ARM GAS  C:\Users\VINCIU~1\AppData\Local\Temp\ccGpRbsb.s 			page 1


   1              		.cpu cortex-m7
   2              		.eabi_attribute 28, 1
   3              		.eabi_attribute 20, 1
   4              		.eabi_attribute 21, 1
   5              		.eabi_attribute 23, 3
   6              		.eabi_attribute 24, 1
   7              		.eabi_attribute 25, 1
   8              		.eabi_attribute 26, 1
   9              		.eabi_attribute 30, 2
  10              		.eabi_attribute 34, 1
  11              		.eabi_attribute 18, 4
  12              		.file	"Menus.cpp"
  13              		.text
  14              	.Ltext0:
  15              		.cfi_sections	.debug_frame
  16              		.section	.text._ZNK5daisy11OledDisplayINS_13SSD130xDriverILj128ELj64ENS_24SSD130x4WireSpiTransport
  17              		.align	1
  18              		.p2align 2,,3
  19              		.weak	_ZNK5daisy11OledDisplayINS_13SSD130xDriverILj128ELj64ENS_24SSD130x4WireSpiTransportEEEE5Widt
  20              		.arch armv7e-m
  21              		.syntax unified
  22              		.thumb
  23              		.thumb_func
  24              		.fpu fpv5-d16
  26              	_ZNK5daisy11OledDisplayINS_13SSD130xDriverILj128ELj64ENS_24SSD130x4WireSpiTransportEEEE5WidthEv:
  27              	.LVL0:
  28              	.LFB4337:
  29              		.file 1 "../../libdaisy/src/hid/disp/oled_display.h"
   1:../../libdaisy/src/hid/disp/oled_display.h **** #pragma once
   2:../../libdaisy/src/hid/disp/oled_display.h **** #ifndef DSY_OLED_DISPLAY_H
   3:../../libdaisy/src/hid/disp/oled_display.h **** #define DSY_OLED_DISPLAY_H /**< Macro */
   4:../../libdaisy/src/hid/disp/oled_display.h **** 
   5:../../libdaisy/src/hid/disp/oled_display.h **** #include "display.h"
   6:../../libdaisy/src/hid/disp/oled_display.h **** 
   7:../../libdaisy/src/hid/disp/oled_display.h **** namespace daisy
   8:../../libdaisy/src/hid/disp/oled_display.h **** {
   9:../../libdaisy/src/hid/disp/oled_display.h **** /** 
  10:../../libdaisy/src/hid/disp/oled_display.h ****  * This class is for drawing to a monochrome OLED display. 
  11:../../libdaisy/src/hid/disp/oled_display.h **** */
  12:../../libdaisy/src/hid/disp/oled_display.h **** template <typename DisplayDriver>
  13:../../libdaisy/src/hid/disp/oled_display.h **** class OledDisplay : public OneBitGraphicsDisplayImpl<OledDisplay<DisplayDriver>>
  14:../../libdaisy/src/hid/disp/oled_display.h **** {
  15:../../libdaisy/src/hid/disp/oled_display.h ****   public:
  16:../../libdaisy/src/hid/disp/oled_display.h ****     OledDisplay() {}
  17:../../libdaisy/src/hid/disp/oled_display.h ****     virtual ~OledDisplay() {}
  18:../../libdaisy/src/hid/disp/oled_display.h **** 
  19:../../libdaisy/src/hid/disp/oled_display.h ****     struct Config
  20:../../libdaisy/src/hid/disp/oled_display.h ****     {
  21:../../libdaisy/src/hid/disp/oled_display.h ****         typename DisplayDriver::Config driver_config;
  22:../../libdaisy/src/hid/disp/oled_display.h ****     };
  23:../../libdaisy/src/hid/disp/oled_display.h **** 
  24:../../libdaisy/src/hid/disp/oled_display.h ****     void Init(Config config) { driver_.Init(config.driver_config); }
  25:../../libdaisy/src/hid/disp/oled_display.h **** 
  26:../../libdaisy/src/hid/disp/oled_display.h ****     uint16_t Height() const override { return driver_.Height(); }
  27:../../libdaisy/src/hid/disp/oled_display.h ****     uint16_t Width() const override { return driver_.Width(); }
  30              		.loc 1 27 14 view -0
  31              		.cfi_startproc
ARM GAS  C:\Users\VINCIU~1\AppData\Local\Temp\ccGpRbsb.s 			page 2


  32              		@ args = 0, pretend = 0, frame = 0
  33              		@ frame_needed = 0, uses_anonymous_args = 0
  34              		@ link register save eliminated.
  35              		.loc 1 27 63 is_stmt 0 view .LVU1
  36 0000 8020     		movs	r0, #128
  37              	.LVL1:
  38              		.loc 1 27 63 view .LVU2
  39 0002 7047     		bx	lr
  40              		.cfi_endproc
  41              	.LFE4337:
  43              		.section	.text._ZNK5daisy11OledDisplayINS_13SSD130xDriverILj128ELj64ENS_24SSD130x4WireSpiTransport
  44              		.align	1
  45              		.p2align 2,,3
  46              		.weak	_ZNK5daisy11OledDisplayINS_13SSD130xDriverILj128ELj64ENS_24SSD130x4WireSpiTransportEEEE6Heig
  47              		.syntax unified
  48              		.thumb
  49              		.thumb_func
  50              		.fpu fpv5-d16
  52              	_ZNK5daisy11OledDisplayINS_13SSD130xDriverILj128ELj64ENS_24SSD130x4WireSpiTransportEEEE6HeightEv:
  53              	.LVL2:
  54              	.LFB4338:
  26:../../libdaisy/src/hid/disp/oled_display.h ****     uint16_t Width() const override { return driver_.Width(); }
  55              		.loc 1 26 14 is_stmt 1 view -0
  56              		.cfi_startproc
  57              		@ args = 0, pretend = 0, frame = 0
  58              		@ frame_needed = 0, uses_anonymous_args = 0
  59              		@ link register save eliminated.
  26:../../libdaisy/src/hid/disp/oled_display.h ****     uint16_t Width() const override { return driver_.Width(); }
  60              		.loc 1 26 65 is_stmt 0 view .LVU4
  61 0000 4020     		movs	r0, #64
  62              	.LVL3:
  26:../../libdaisy/src/hid/disp/oled_display.h ****     uint16_t Width() const override { return driver_.Width(); }
  63              		.loc 1 26 65 view .LVU5
  64 0002 7047     		bx	lr
  65              		.cfi_endproc
  66              	.LFE4338:
  68              		.section	.rodata._ZN5MenusC2Ev.str1.4,"aMS",%progbits,1
  69              		.align	2
  70              	.LC0:
  71 0000 54696D65 		.ascii	"Time_0%%\000"
  71      5F302525 
  71      00
  72              		.section	.text._ZN5MenusC2Ev,"ax",%progbits
  73              		.align	1
  74              		.p2align 2,,3
  75              		.global	_ZN5MenusC2Ev
  76              		.syntax unified
  77              		.thumb
  78              		.thumb_func
  79              		.fpu fpv5-d16
  81              	_ZN5MenusC2Ev:
  82              	.LVL4:
  83              	.LFB4035:
  84              		.file 2 "Menus.cpp"
   1:Menus.cpp     **** #include "Menus.h"
   2:Menus.cpp     **** 
   3:Menus.cpp     **** 
ARM GAS  C:\Users\VINCIU~1\AppData\Local\Temp\ccGpRbsb.s 			page 3


   4:Menus.cpp     **** Menus::Menus()
  85              		.loc 2 4 1 is_stmt 1 view -0
  86              		.cfi_startproc
  87              		@ args = 0, pretend = 0, frame = 0
  88              		@ frame_needed = 0, uses_anonymous_args = 0
  89              	.LBB210:
   5:Menus.cpp     **** {
   6:Menus.cpp     ****     this->on                      = true;
   7:Menus.cpp     ****     this->analogRead              = 0;
   8:Menus.cpp     ****     this->analogLastRead          = 0;
   9:Menus.cpp     ****     this->updateValue             = false;
  10:Menus.cpp     ****     this->menuState               = 0;
  11:Menus.cpp     ****     this->menuStateGlide          = 0;
  12:Menus.cpp     ****     this->OscSelector             = true;
  13:Menus.cpp     ****     this->synthOn                 = 1;
  14:Menus.cpp     ****     this->synthOn2                = 1;
  15:Menus.cpp     ****     this->freqFine2               = 0;
  16:Menus.cpp     ****     this->freqFine                = 0;
  17:Menus.cpp     ****     this->analogRead              = 0;
  18:Menus.cpp     ****     this->glideTime               = 1;
  90              		.loc 2 18 35 is_stmt 0 view .LVU7
  91 0000 4FF07E52 		mov	r2, #1065353216
   6:Menus.cpp     ****     this->analogRead              = 0;
  92              		.loc 2 6 35 view .LVU8
  93 0004 0123     		movs	r3, #1
  19:Menus.cpp     ****     this->circleGlideTimePosition = 10;
  94              		.loc 2 19 35 view .LVU9
  95 0006 DFF850C0 		ldr	ip, .L6+4
  20:Menus.cpp     ****     this->state                   = 1;
  21:Menus.cpp     ****     this->stateWave               = 0;
  22:Menus.cpp     ****     this->toggleState             = 1;
  23:Menus.cpp     ****     this->toggleState2            = 1;
  24:Menus.cpp     ****     this->setWave                 = 0;
  25:Menus.cpp     ****     this->setWave2                = 0;
  26:Menus.cpp     ****     sprintf(this->buffPitchTime, "Time_0%%");
  96              		.loc 2 26 12 view .LVU10
  97 000a 1249     		ldr	r1, .L6
  98              	.LBE210:
   4:Menus.cpp     **** {
  99              		.loc 2 4 1 view .LVU11
 100 000c 10B5     		push	{r4, lr}
 101              		.cfi_def_cfa_offset 8
 102              		.cfi_offset 4, -8
 103              		.cfi_offset 14, -4
   4:Menus.cpp     **** {
 104              		.loc 2 4 1 view .LVU12
 105 000e 0446     		mov	r4, r0
 106              	.LVL5:
 107              	.LBB217:
 108              	.LBB211:
 109              	.LBI211:
 110              		.file 3 "../../libdaisy/src/hid/encoder.h"
   1:../../libdaisy/src/hid/encoder.h **** #pragma once
   2:../../libdaisy/src/hid/encoder.h **** #ifndef DSY_ENCODER_H
   3:../../libdaisy/src/hid/encoder.h **** #define DSY_ENCODER_H
   4:../../libdaisy/src/hid/encoder.h **** #include "daisy_core.h"
   5:../../libdaisy/src/hid/encoder.h **** #include "per/gpio.h"
ARM GAS  C:\Users\VINCIU~1\AppData\Local\Temp\ccGpRbsb.s 			page 4


   6:../../libdaisy/src/hid/encoder.h **** #include "hid/switch.h"
   7:../../libdaisy/src/hid/encoder.h **** 
   8:../../libdaisy/src/hid/encoder.h **** namespace daisy
   9:../../libdaisy/src/hid/encoder.h **** {
  10:../../libdaisy/src/hid/encoder.h **** /** 
  11:../../libdaisy/src/hid/encoder.h ****     @brief Generic Class for handling Quadrature Encoders \n 
  12:../../libdaisy/src/hid/encoder.h ****     Inspired/influenced by Mutable Instruments (pichenettes) Encoder classes
  13:../../libdaisy/src/hid/encoder.h ****     @author Stephen Hensley
  14:../../libdaisy/src/hid/encoder.h ****     @date December 2019
  15:../../libdaisy/src/hid/encoder.h ****     @ingroup controls
  16:../../libdaisy/src/hid/encoder.h **** */
  17:../../libdaisy/src/hid/encoder.h **** class Encoder
  18:../../libdaisy/src/hid/encoder.h **** {
  19:../../libdaisy/src/hid/encoder.h ****   public:
  20:../../libdaisy/src/hid/encoder.h ****     Encoder() {}
 111              		.loc 3 20 5 is_stmt 1 view .LVU13
 112              	.LBB212:
 113              	.LBI212:
 114              		.file 4 "../../libdaisy/src/hid/switch.h"
   1:../../libdaisy/src/hid/switch.h **** #pragma once
   2:../../libdaisy/src/hid/switch.h **** #ifndef DSY_SWITCH_H
   3:../../libdaisy/src/hid/switch.h **** #define DSY_SWITCH_H
   4:../../libdaisy/src/hid/switch.h **** #include "daisy_core.h"
   5:../../libdaisy/src/hid/switch.h **** #include "per/gpio.h"
   6:../../libdaisy/src/hid/switch.h **** 
   7:../../libdaisy/src/hid/switch.h **** namespace daisy
   8:../../libdaisy/src/hid/switch.h **** {
   9:../../libdaisy/src/hid/switch.h **** /** 
  10:../../libdaisy/src/hid/switch.h ****     Generic Class for handling momentary/latching switches \n 
  11:../../libdaisy/src/hid/switch.h ****     Inspired/influenced by Mutable Instruments (pichenettes) Switch classes
  12:../../libdaisy/src/hid/switch.h ****     @author Stephen Hensley
  13:../../libdaisy/src/hid/switch.h ****     @date December 2019
  14:../../libdaisy/src/hid/switch.h ****     @ingroup controls
  15:../../libdaisy/src/hid/switch.h **** */
  16:../../libdaisy/src/hid/switch.h **** class Switch
  17:../../libdaisy/src/hid/switch.h **** {
  18:../../libdaisy/src/hid/switch.h ****   public:
  19:../../libdaisy/src/hid/switch.h ****     /** Specifies the expected behavior of the switch */
  20:../../libdaisy/src/hid/switch.h ****     enum Type
  21:../../libdaisy/src/hid/switch.h ****     {
  22:../../libdaisy/src/hid/switch.h ****         TYPE_TOGGLE,    /**< & */
  23:../../libdaisy/src/hid/switch.h ****         TYPE_MOMENTARY, /**< & */
  24:../../libdaisy/src/hid/switch.h ****     };
  25:../../libdaisy/src/hid/switch.h ****     /** Specifies whether the pressed is HIGH or LOW. */
  26:../../libdaisy/src/hid/switch.h ****     enum Polarity
  27:../../libdaisy/src/hid/switch.h ****     {
  28:../../libdaisy/src/hid/switch.h ****         POLARITY_NORMAL,   /**< & */
  29:../../libdaisy/src/hid/switch.h ****         POLARITY_INVERTED, /**< & */
  30:../../libdaisy/src/hid/switch.h ****     };
  31:../../libdaisy/src/hid/switch.h **** 
  32:../../libdaisy/src/hid/switch.h ****     /** Specifies whether to use built-in Pull Up/Down resistors to hold button at a given state wh
  33:../../libdaisy/src/hid/switch.h ****     enum Pull
  34:../../libdaisy/src/hid/switch.h ****     {
  35:../../libdaisy/src/hid/switch.h ****         PULL_UP,   /**< & */
  36:../../libdaisy/src/hid/switch.h ****         PULL_DOWN, /**< & */
  37:../../libdaisy/src/hid/switch.h ****         PULL_NONE, /**< & */
  38:../../libdaisy/src/hid/switch.h ****     };
ARM GAS  C:\Users\VINCIU~1\AppData\Local\Temp\ccGpRbsb.s 			page 5


  39:../../libdaisy/src/hid/switch.h **** 
  40:../../libdaisy/src/hid/switch.h ****     Switch() {}
 115              		.loc 4 40 5 view .LVU14
 116              		.loc 4 40 5 is_stmt 0 view .LVU15
 117              	.LBE212:
 118              	.LBE211:
 119              	.LBB213:
 120              	.LBI213:
 121              		.loc 3 20 5 is_stmt 1 view .LVU16
 122              	.LBB214:
 123              	.LBI214:
 124              		.loc 4 40 5 view .LVU17
 125              		.loc 4 40 5 is_stmt 0 view .LVU18
 126              	.LBE214:
 127              	.LBE213:
 128              	.LBB215:
 129              	.LBI215:
 130              		.loc 4 40 5 is_stmt 1 view .LVU19
 131              		.loc 4 40 5 is_stmt 0 view .LVU20
 132              	.LBE215:
 133              	.LBB216:
 134              	.LBI216:
 135              		.loc 4 40 5 is_stmt 1 view .LVU21
 136              		.loc 4 40 5 is_stmt 0 view .LVU22
 137              	.LBE216:
   6:Menus.cpp     ****     this->analogRead              = 0;
 138              		.loc 2 6 5 is_stmt 1 view .LVU23
  18:Menus.cpp     ****     this->circleGlideTimePosition = 10;
 139              		.loc 2 18 35 is_stmt 0 view .LVU24
 140 0010 C0F89420 		str	r2, [r0, #148]	@ float
   9:Menus.cpp     ****     this->menuState               = 0;
 141              		.loc 2 9 35 view .LVU25
 142 0014 0022     		movs	r2, #0
   7:Menus.cpp     ****     this->analogLastRead          = 0;
 143              		.loc 2 7 35 view .LVU26
 144 0016 0020     		movs	r0, #0
 145              	.LVL6:
   6:Menus.cpp     ****     this->analogRead              = 0;
 146              		.loc 2 6 35 view .LVU27
 147 0018 84F86831 		strb	r3, [r4, #360]
   7:Menus.cpp     ****     this->analogLastRead          = 0;
 148              		.loc 2 7 5 is_stmt 1 view .LVU28
   7:Menus.cpp     ****     this->analogLastRead          = 0;
 149              		.loc 2 7 35 is_stmt 0 view .LVU29
 150 001c 2060     		str	r0, [r4]	@ float
   8:Menus.cpp     ****     this->updateValue             = false;
 151              		.loc 2 8 5 is_stmt 1 view .LVU30
   8:Menus.cpp     ****     this->updateValue             = false;
 152              		.loc 2 8 35 is_stmt 0 view .LVU31
 153 001e 6060     		str	r0, [r4, #4]	@ float
   9:Menus.cpp     ****     this->menuState               = 0;
 154              		.loc 2 9 5 is_stmt 1 view .LVU32
  15:Menus.cpp     ****     this->freqFine                = 0;
 155              		.loc 2 15 35 is_stmt 0 view .LVU33
 156 0020 C4F84801 		str	r0, [r4, #328]	@ float
  16:Menus.cpp     ****     this->analogRead              = 0;
 157              		.loc 2 16 35 view .LVU34
ARM GAS  C:\Users\VINCIU~1\AppData\Local\Temp\ccGpRbsb.s 			page 6


 158 0024 C4F84401 		str	r0, [r4, #324]	@ float
 159              		.loc 2 26 12 view .LVU35
 160 0028 04F58E70 		add	r0, r4, #284
   9:Menus.cpp     ****     this->menuState               = 0;
 161              		.loc 2 9 35 view .LVU36
 162 002c 2272     		strb	r2, [r4, #8]
  10:Menus.cpp     ****     this->menuStateGlide          = 0;
 163              		.loc 2 10 5 is_stmt 1 view .LVU37
  12:Menus.cpp     ****     this->synthOn                 = 1;
 164              		.loc 2 12 35 is_stmt 0 view .LVU38
 165 002e 84F87430 		strb	r3, [r4, #116]
  19:Menus.cpp     ****     this->state                   = 1;
 166              		.loc 2 19 35 view .LVU39
 167 0032 C4F88CC0 		str	ip, [r4, #140]	@ float
  11:Menus.cpp     ****     this->OscSelector             = true;
 168              		.loc 2 11 35 view .LVU40
 169 0036 C4E91B22 		strd	r2, r2, [r4, #108]
  12:Menus.cpp     ****     this->synthOn                 = 1;
 170              		.loc 2 12 5 is_stmt 1 view .LVU41
  13:Menus.cpp     ****     this->synthOn2                = 1;
 171              		.loc 2 13 5 view .LVU42
  14:Menus.cpp     ****     this->freqFine2               = 0;
 172              		.loc 2 14 35 is_stmt 0 view .LVU43
 173 003a C4E94F33 		strd	r3, r3, [r4, #316]
  15:Menus.cpp     ****     this->freqFine                = 0;
 174              		.loc 2 15 5 is_stmt 1 view .LVU44
  16:Menus.cpp     ****     this->analogRead              = 0;
 175              		.loc 2 16 5 view .LVU45
  17:Menus.cpp     ****     this->glideTime               = 1;
 176              		.loc 2 17 5 view .LVU46
  18:Menus.cpp     ****     this->circleGlideTimePosition = 10;
 177              		.loc 2 18 5 view .LVU47
  19:Menus.cpp     ****     this->state                   = 1;
 178              		.loc 2 19 5 view .LVU48
  20:Menus.cpp     ****     this->stateWave               = 0;
 179              		.loc 2 20 5 view .LVU49
  21:Menus.cpp     ****     this->toggleState             = 1;
 180              		.loc 2 21 35 is_stmt 0 view .LVU50
 181 003e C4E95432 		strd	r3, r2, [r4, #336]
  22:Menus.cpp     ****     this->toggleState2            = 1;
 182              		.loc 2 22 5 is_stmt 1 view .LVU51
  23:Menus.cpp     ****     this->setWave                 = 0;
 183              		.loc 2 23 35 is_stmt 0 view .LVU52
 184 0042 C4E95633 		strd	r3, r3, [r4, #344]
  24:Menus.cpp     ****     this->setWave2                = 0;
 185              		.loc 2 24 5 is_stmt 1 view .LVU53
  25:Menus.cpp     ****     sprintf(this->buffPitchTime, "Time_0%%");
 186              		.loc 2 25 35 is_stmt 0 view .LVU54
 187 0046 C4E95822 		strd	r2, r2, [r4, #352]
 188              		.loc 2 26 5 is_stmt 1 view .LVU55
 189              		.loc 2 26 12 is_stmt 0 view .LVU56
 190 004a FFF7FEFF 		bl	sprintf
 191              	.LVL7:
 192              	.LBE217:
  27:Menus.cpp     **** }
 193              		.loc 2 27 1 view .LVU57
 194 004e 2046     		mov	r0, r4
ARM GAS  C:\Users\VINCIU~1\AppData\Local\Temp\ccGpRbsb.s 			page 7


 195 0050 10BD     		pop	{r4, pc}
 196              	.LVL8:
 197              	.L7:
 198              		.loc 2 27 1 view .LVU58
 199 0052 00BF     		.align	2
 200              	.L6:
 201 0054 00000000 		.word	.LC0
 202 0058 00002041 		.word	1092616192
 203              		.cfi_endproc
 204              	.LFE4035:
 206              		.global	_ZN5MenusC1Ev
 207              		.thumb_set _ZN5MenusC1Ev,_ZN5MenusC2Ev
 208              		.section	.text._ZN5Menus10WaveSelectEf,"ax",%progbits
 209              		.align	1
 210              		.p2align 2,,3
 211              		.global	_ZN5Menus10WaveSelectEf
 212              		.syntax unified
 213              		.thumb
 214              		.thumb_func
 215              		.fpu fpv5-d16
 217              	_ZN5Menus10WaveSelectEf:
 218              	.LVL9:
 219              	.LFB4037:
  28:Menus.cpp     **** 
  29:Menus.cpp     **** int Menus::WaveSelect(float select)
  30:Menus.cpp     **** {
 220              		.loc 2 30 1 is_stmt 1 view -0
 221              		.cfi_startproc
 222              		@ args = 0, pretend = 0, frame = 0
 223              		@ frame_needed = 0, uses_anonymous_args = 0
 224              		@ link register save eliminated.
  31:Menus.cpp     ****     this->stateWave += this->encoderRight.Increment();
 225              		.loc 2 31 5 view .LVU60
 226              		.loc 2 31 21 is_stmt 0 view .LVU61
 227 0000 D0F85431 		ldr	r3, [r0, #340]
  30:Menus.cpp     ****     this->stateWave += this->encoderRight.Increment();
 228              		.loc 2 30 1 view .LVU62
 229 0004 0246     		mov	r2, r0
 230              	.LVL10:
 231              	.LBB218:
 232              	.LBI218:
  21:../../libdaisy/src/hid/encoder.h ****     ~Encoder() {}
  22:../../libdaisy/src/hid/encoder.h **** 
  23:../../libdaisy/src/hid/encoder.h ****     /** Initializes the encoder with the specified hardware pins.
  24:../../libdaisy/src/hid/encoder.h **** */
  25:../../libdaisy/src/hid/encoder.h ****     //
  26:../../libdaisy/src/hid/encoder.h ****     /** Update rate should be the rate at which Debounce() gets called
  27:../../libdaisy/src/hid/encoder.h **** in Hertz.
  28:../../libdaisy/src/hid/encoder.h **** */
  29:../../libdaisy/src/hid/encoder.h ****     //
  30:../../libdaisy/src/hid/encoder.h ****     void
  31:../../libdaisy/src/hid/encoder.h ****     Init(dsy_gpio_pin a, dsy_gpio_pin b, dsy_gpio_pin click, float update_rate);
  32:../../libdaisy/src/hid/encoder.h ****     /** Called at update_rate to debounce and handle timing for the switch.
  33:../../libdaisy/src/hid/encoder.h **** */
  34:../../libdaisy/src/hid/encoder.h ****     //
  35:../../libdaisy/src/hid/encoder.h ****     /** In order for events not to be missed, its important that the Edge/Pressed checks
  36:../../libdaisy/src/hid/encoder.h **** be made at the same rate as the debounce function is being called.
ARM GAS  C:\Users\VINCIU~1\AppData\Local\Temp\ccGpRbsb.s 			page 8


  37:../../libdaisy/src/hid/encoder.h **** */
  38:../../libdaisy/src/hid/encoder.h ****     void Debounce();
  39:../../libdaisy/src/hid/encoder.h ****     /** Returns +1 if the encoder was turned clockwise, -1 if it was turned counter-clockwise, or 0
  40:../../libdaisy/src/hid/encoder.h **** */
  41:../../libdaisy/src/hid/encoder.h ****     inline int32_t Increment() const { return inc_; }
 233              		.loc 3 41 20 is_stmt 1 view .LVU63
 234              	.LBB219:
 235              		.loc 3 41 40 view .LVU64
 236              		.loc 3 41 40 is_stmt 0 view .LVU65
 237              	.LBE219:
 238              	.LBE218:
 239              		.loc 2 31 21 view .LVU66
 240 0006 806C     		ldr	r0, [r0, #72]
 241              	.LVL11:
 242              		.loc 2 31 21 view .LVU67
 243 0008 1844     		add	r0, r0, r3
  32:Menus.cpp     ****     int state;
 244              		.loc 2 32 5 is_stmt 1 view .LVU68
  33:Menus.cpp     ****     if(this->stateWave > 3)
 245              		.loc 2 33 5 view .LVU69
 246 000a 0328     		cmp	r0, #3
 247 000c 04DD     		ble	.L9
  34:Menus.cpp     ****     {
  35:Menus.cpp     ****         this->stateWave = 3;
 248              		.loc 2 35 9 view .LVU70
 249              		.loc 2 35 25 is_stmt 0 view .LVU71
 250 000e 0323     		movs	r3, #3
  36:Menus.cpp     ****     }
  37:Menus.cpp     ****     if(this->stateWave < 0)
  38:Menus.cpp     ****     {
  39:Menus.cpp     ****         this->stateWave = 0;
  40:Menus.cpp     ****     }
  41:Menus.cpp     **** 
  42:Menus.cpp     ****     if(this->stateWave == 0)
  43:Menus.cpp     ****     {
  44:Menus.cpp     ****         state = 0;
  45:Menus.cpp     ****         return state;
  46:Menus.cpp     ****     }
  47:Menus.cpp     ****     else if(this->stateWave == 1)
  48:Menus.cpp     ****     {
  49:Menus.cpp     ****         state = 1;
  50:Menus.cpp     ****         return state;
  51:Menus.cpp     ****     }
  52:Menus.cpp     ****     else if(this->stateWave == 2)
  53:Menus.cpp     ****     {
  54:Menus.cpp     ****         state = 2;
  55:Menus.cpp     ****         return state;
  56:Menus.cpp     ****     }
  57:Menus.cpp     ****     else if(this->stateWave == 3)
  58:Menus.cpp     ****     {
  59:Menus.cpp     ****         state = 3;
  60:Menus.cpp     ****         return state;
 251              		.loc 2 60 16 view .LVU72
 252 0010 1846     		mov	r0, r3
  35:Menus.cpp     ****     }
 253              		.loc 2 35 25 view .LVU73
 254 0012 C2F85431 		str	r3, [r2, #340]
ARM GAS  C:\Users\VINCIU~1\AppData\Local\Temp\ccGpRbsb.s 			page 9


  37:Menus.cpp     ****     {
 255              		.loc 2 37 5 is_stmt 1 view .LVU74
  42:Menus.cpp     ****     {
 256              		.loc 2 42 5 view .LVU75
  47:Menus.cpp     ****     {
 257              		.loc 2 47 10 view .LVU76
 258 0016 7047     		bx	lr
 259              	.L9:
  37:Menus.cpp     ****     {
 260              		.loc 2 37 5 view .LVU77
 261 0018 0028     		cmp	r0, #0
 262 001a 04DA     		bge	.L11
  39:Menus.cpp     ****     }
 263              		.loc 2 39 9 view .LVU78
  39:Menus.cpp     ****     }
 264              		.loc 2 39 25 is_stmt 0 view .LVU79
 265 001c 0023     		movs	r3, #0
  45:Menus.cpp     ****     }
 266              		.loc 2 45 16 view .LVU80
 267 001e 1846     		mov	r0, r3
  39:Menus.cpp     ****     }
 268              		.loc 2 39 25 view .LVU81
 269 0020 C2F85431 		str	r3, [r2, #340]
  42:Menus.cpp     ****     {
 270              		.loc 2 42 5 is_stmt 1 view .LVU82
 271 0024 7047     		bx	lr
 272              	.L11:
  31:Menus.cpp     ****     int state;
 273              		.loc 2 31 21 is_stmt 0 view .LVU83
 274 0026 C2F85401 		str	r0, [r2, #340]
  42:Menus.cpp     ****     {
 275              		.loc 2 42 5 is_stmt 1 view .LVU84
 276 002a 04D0     		beq	.L8
  47:Menus.cpp     ****     {
 277              		.loc 2 47 10 view .LVU85
 278 002c 0128     		cmp	r0, #1
 279 002e 02D0     		beq	.L8
  52:Menus.cpp     ****     {
 280              		.loc 2 52 10 view .LVU86
 281              		.loc 2 60 16 is_stmt 0 view .LVU87
 282 0030 0228     		cmp	r0, #2
 283 0032 18BF     		it	ne
 284 0034 0320     		movne	r0, #3
 285              	.L8:
  61:Menus.cpp     ****     }
  62:Menus.cpp     **** }
 286              		.loc 2 62 1 view .LVU88
 287 0036 7047     		bx	lr
 288              		.cfi_endproc
 289              	.LFE4037:
 291              		.section	.text._ZN5Menus9OscSelectEf,"ax",%progbits
 292              		.align	1
 293              		.p2align 2,,3
 294              		.global	_ZN5Menus9OscSelectEf
 295              		.syntax unified
 296              		.thumb
 297              		.thumb_func
ARM GAS  C:\Users\VINCIU~1\AppData\Local\Temp\ccGpRbsb.s 			page 10


 298              		.fpu fpv5-d16
 300              	_ZN5Menus9OscSelectEf:
 301              	.LVL12:
 302              	.LFB4038:
  63:Menus.cpp     **** 
  64:Menus.cpp     **** bool Menus::OscSelect(float select)
  65:Menus.cpp     **** {
 303              		.loc 2 65 1 is_stmt 1 view -0
 304              		.cfi_startproc
 305              		@ args = 0, pretend = 0, frame = 0
 306              		@ frame_needed = 0, uses_anonymous_args = 0
 307              		@ link register save eliminated.
  66:Menus.cpp     ****     this->state += this->encoderRight.Increment();
 308              		.loc 2 66 5 view .LVU90
 309              		.loc 2 66 17 is_stmt 0 view .LVU91
 310 0000 D0F85021 		ldr	r2, [r0, #336]
  65:Menus.cpp     ****     this->state += this->encoderRight.Increment();
 311              		.loc 2 65 1 view .LVU92
 312 0004 0346     		mov	r3, r0
 313              	.LVL13:
 314              	.LBB220:
 315              	.LBI220:
 316              		.loc 3 41 20 is_stmt 1 view .LVU93
 317              	.LBB221:
 318              		.loc 3 41 40 view .LVU94
 319              		.loc 3 41 40 is_stmt 0 view .LVU95
 320              	.LBE221:
 321              	.LBE220:
 322              		.loc 2 66 17 view .LVU96
 323 0006 816C     		ldr	r1, [r0, #72]
 324 0008 0A44     		add	r2, r2, r1
  67:Menus.cpp     ****     if(this->state > 1)
 325              		.loc 2 67 5 is_stmt 1 view .LVU97
 326 000a 012A     		cmp	r2, #1
 327 000c 04DD     		ble	.L21
 328              	.L17:
  68:Menus.cpp     ****     {
  69:Menus.cpp     ****         this->state = 1;
  70:Menus.cpp     ****     }
  71:Menus.cpp     ****     if(this->state < 0)
  72:Menus.cpp     ****     {
  73:Menus.cpp     ****         this->state = 0;
  74:Menus.cpp     ****     }
  75:Menus.cpp     **** 
  76:Menus.cpp     **** 
  77:Menus.cpp     ****     if(this->state == 1)
  78:Menus.cpp     ****     {
  79:Menus.cpp     ****         state = true;
 329              		.loc 2 79 15 is_stmt 0 view .LVU98
 330 000e 0122     		movs	r2, #1
  80:Menus.cpp     ****         return state;
 331              		.loc 2 80 16 view .LVU99
 332 0010 1046     		mov	r0, r2
 333              	.LVL14:
 334              		.loc 2 80 16 view .LVU100
 335 0012 C3F85021 		str	r2, [r3, #336]
  81:Menus.cpp     ****     }
ARM GAS  C:\Users\VINCIU~1\AppData\Local\Temp\ccGpRbsb.s 			page 11


  82:Menus.cpp     ****     else
  83:Menus.cpp     ****     {
  84:Menus.cpp     ****         state = false;
  85:Menus.cpp     ****         return state;
  86:Menus.cpp     ****     }
  87:Menus.cpp     **** }
 336              		.loc 2 87 1 view .LVU101
 337 0016 7047     		bx	lr
 338              	.LVL15:
 339              	.L21:
  71:Menus.cpp     ****     {
 340              		.loc 2 71 5 is_stmt 1 view .LVU102
 341 0018 002A     		cmp	r2, #0
 342 001a 04DA     		bge	.L22
 343              	.L20:
  84:Menus.cpp     ****         return state;
 344              		.loc 2 84 15 is_stmt 0 view .LVU103
 345 001c 0022     		movs	r2, #0
  85:Menus.cpp     ****     }
 346              		.loc 2 85 16 view .LVU104
 347 001e 1046     		mov	r0, r2
 348              	.LVL16:
  85:Menus.cpp     ****     }
 349              		.loc 2 85 16 view .LVU105
 350 0020 C3F85021 		str	r2, [r3, #336]
 351              		.loc 2 87 1 view .LVU106
 352 0024 7047     		bx	lr
 353              	.LVL17:
 354              	.L22:
  77:Menus.cpp     ****     {
 355              		.loc 2 77 5 view .LVU107
 356 0026 012A     		cmp	r2, #1
  66:Menus.cpp     ****     if(this->state > 1)
 357              		.loc 2 66 17 view .LVU108
 358 0028 C0F85021 		str	r2, [r0, #336]
  77:Menus.cpp     ****     {
 359              		.loc 2 77 5 is_stmt 1 view .LVU109
 360 002c EFD0     		beq	.L17
 361 002e F5E7     		b	.L20
 362              		.cfi_endproc
 363              	.LFE4038:
 365              		.section	.text._ZN5daisy25OneBitGraphicsDisplayImplINS_11OledDisplayINS_13SSD130xDriverILj128ELj64
 366              		.align	1
 367              		.p2align 2,,3
 368              		.weak	_ZN5daisy25OneBitGraphicsDisplayImplINS_11OledDisplayINS_13SSD130xDriverILj128ELj64ENS_24SSD
 369              		.syntax unified
 370              		.thumb
 371              		.thumb_func
 372              		.fpu fpv5-d16
 374              	_ZN5daisy25OneBitGraphicsDisplayImplINS_11OledDisplayINS_13SSD130xDriverILj128ELj64ENS_24SSD130x4Wi
 375              	.LVL18:
 376              	.LFB4336:
 377              		.file 5 "../../libdaisy/src/hid/disp/display.h"
   1:../../libdaisy/src/hid/disp/display.h **** #pragma once
   2:../../libdaisy/src/hid/disp/display.h **** #ifndef DSY_DISPLAY_H
   3:../../libdaisy/src/hid/disp/display.h **** #define DSY_DISPLAY_H /**< Macro */
   4:../../libdaisy/src/hid/disp/display.h **** #include <cmath>
ARM GAS  C:\Users\VINCIU~1\AppData\Local\Temp\ccGpRbsb.s 			page 12


   5:../../libdaisy/src/hid/disp/display.h **** #include "util/oled_fonts.h"
   6:../../libdaisy/src/hid/disp/display.h **** #include "daisy_core.h"
   7:../../libdaisy/src/hid/disp/display.h **** 
   8:../../libdaisy/src/hid/disp/display.h **** #ifndef deg2rad
   9:../../libdaisy/src/hid/disp/display.h **** #define deg2rad(deg) ((deg)*3.141592 / 180.0)
  10:../../libdaisy/src/hid/disp/display.h **** #endif
  11:../../libdaisy/src/hid/disp/display.h **** 
  12:../../libdaisy/src/hid/disp/display.h **** namespace daisy
  13:../../libdaisy/src/hid/disp/display.h **** {
  14:../../libdaisy/src/hid/disp/display.h **** /** 
  15:../../libdaisy/src/hid/disp/display.h ****  * This interface is used as a base class for all types of 1bit-per-pixel
  16:../../libdaisy/src/hid/disp/display.h ****  * graphics displays.
  17:../../libdaisy/src/hid/disp/display.h **** */
  18:../../libdaisy/src/hid/disp/display.h **** class OneBitGraphicsDisplay
  19:../../libdaisy/src/hid/disp/display.h **** {
  20:../../libdaisy/src/hid/disp/display.h ****   public:
  21:../../libdaisy/src/hid/disp/display.h ****     OneBitGraphicsDisplay() {}
  22:../../libdaisy/src/hid/disp/display.h ****     virtual ~OneBitGraphicsDisplay() {}
  23:../../libdaisy/src/hid/disp/display.h **** 
  24:../../libdaisy/src/hid/disp/display.h ****     virtual uint16_t Height() const = 0;
  25:../../libdaisy/src/hid/disp/display.h ****     virtual uint16_t Width() const  = 0;
  26:../../libdaisy/src/hid/disp/display.h **** 
  27:../../libdaisy/src/hid/disp/display.h ****     size_t CurrentX() { return currentX_; };
  28:../../libdaisy/src/hid/disp/display.h ****     size_t CurrentY() { return currentY_; };
  29:../../libdaisy/src/hid/disp/display.h **** 
  30:../../libdaisy/src/hid/disp/display.h ****     /** 
  31:../../libdaisy/src/hid/disp/display.h ****     Fills the entire display with either on/off.
  32:../../libdaisy/src/hid/disp/display.h ****     \param on Sets on or off.
  33:../../libdaisy/src/hid/disp/display.h ****     */
  34:../../libdaisy/src/hid/disp/display.h ****     virtual void Fill(bool on) = 0;
  35:../../libdaisy/src/hid/disp/display.h **** 
  36:../../libdaisy/src/hid/disp/display.h ****     /**
  37:../../libdaisy/src/hid/disp/display.h ****     Sets the pixel at the specified coordinate to be on/off.
  38:../../libdaisy/src/hid/disp/display.h ****     \param x   x Coordinate
  39:../../libdaisy/src/hid/disp/display.h ****     \param y   y coordinate
  40:../../libdaisy/src/hid/disp/display.h ****     \param on  on or off
  41:../../libdaisy/src/hid/disp/display.h ****     */
  42:../../libdaisy/src/hid/disp/display.h ****     virtual void DrawPixel(uint_fast8_t x, uint_fast8_t y, bool on) = 0;
  43:../../libdaisy/src/hid/disp/display.h **** 
  44:../../libdaisy/src/hid/disp/display.h ****     /**
  45:../../libdaisy/src/hid/disp/display.h ****     Draws a line from (x1, y1) to (y1, y2)
  46:../../libdaisy/src/hid/disp/display.h ****     \param x1  x Coordinate of the starting point
  47:../../libdaisy/src/hid/disp/display.h ****     \param y1  y Coordinate of the starting point
  48:../../libdaisy/src/hid/disp/display.h ****     \param x2  x Coordinate of the ending point
  49:../../libdaisy/src/hid/disp/display.h ****     \param y2  y Coordinate of the ending point
  50:../../libdaisy/src/hid/disp/display.h ****     \param on  on or off
  51:../../libdaisy/src/hid/disp/display.h ****     */
  52:../../libdaisy/src/hid/disp/display.h ****     virtual void DrawLine(uint_fast8_t x1,
  53:../../libdaisy/src/hid/disp/display.h ****                           uint_fast8_t y1,
  54:../../libdaisy/src/hid/disp/display.h ****                           uint_fast8_t x2,
  55:../../libdaisy/src/hid/disp/display.h ****                           uint_fast8_t y2,
  56:../../libdaisy/src/hid/disp/display.h ****                           bool         on)
  57:../../libdaisy/src/hid/disp/display.h ****         = 0;
  58:../../libdaisy/src/hid/disp/display.h **** 
  59:../../libdaisy/src/hid/disp/display.h ****     /**
  60:../../libdaisy/src/hid/disp/display.h ****     Draws a rectangle based on two coordinates.
  61:../../libdaisy/src/hid/disp/display.h ****     \param x1 x Coordinate of the first point
ARM GAS  C:\Users\VINCIU~1\AppData\Local\Temp\ccGpRbsb.s 			page 13


  62:../../libdaisy/src/hid/disp/display.h ****     \param y1 y Coordinate of the first point
  63:../../libdaisy/src/hid/disp/display.h ****     \param x2 x Coordinate of the second point
  64:../../libdaisy/src/hid/disp/display.h ****     \param y2 y Coordinate of the second point
  65:../../libdaisy/src/hid/disp/display.h ****     \param on on or off
  66:../../libdaisy/src/hid/disp/display.h ****     */
  67:../../libdaisy/src/hid/disp/display.h ****     virtual void DrawRect(uint_fast8_t x1,
  68:../../libdaisy/src/hid/disp/display.h ****                           uint_fast8_t y1,
  69:../../libdaisy/src/hid/disp/display.h ****                           uint_fast8_t x2,
  70:../../libdaisy/src/hid/disp/display.h ****                           uint_fast8_t y2,
  71:../../libdaisy/src/hid/disp/display.h ****                           bool         on,
  72:../../libdaisy/src/hid/disp/display.h ****                           bool         fill = false)
  73:../../libdaisy/src/hid/disp/display.h ****         = 0;
  74:../../libdaisy/src/hid/disp/display.h **** 
  75:../../libdaisy/src/hid/disp/display.h ****     /**
  76:../../libdaisy/src/hid/disp/display.h ****     Draws an arc around the specified coordinate
  77:../../libdaisy/src/hid/disp/display.h ****     \param x           x Coordinate of the center of the arc
  78:../../libdaisy/src/hid/disp/display.h ****     \param y           y Coordinate of the center of the arc
  79:../../libdaisy/src/hid/disp/display.h ****     \param radius      radius of the arc
  80:../../libdaisy/src/hid/disp/display.h ****     \param start_angle angle where to start the arc
  81:../../libdaisy/src/hid/disp/display.h ****     \param sweep       total angle of the arc
  82:../../libdaisy/src/hid/disp/display.h ****     \param on  on or off
  83:../../libdaisy/src/hid/disp/display.h ****     */
  84:../../libdaisy/src/hid/disp/display.h ****     virtual void DrawArc(uint_fast8_t x,
  85:../../libdaisy/src/hid/disp/display.h ****                          uint_fast8_t y,
  86:../../libdaisy/src/hid/disp/display.h ****                          uint_fast8_t radius,
  87:../../libdaisy/src/hid/disp/display.h ****                          int_fast16_t start_angle,
  88:../../libdaisy/src/hid/disp/display.h ****                          int_fast16_t sweep,
  89:../../libdaisy/src/hid/disp/display.h ****                          bool         on)
  90:../../libdaisy/src/hid/disp/display.h ****         = 0;
  91:../../libdaisy/src/hid/disp/display.h **** 
  92:../../libdaisy/src/hid/disp/display.h ****     /**
  93:../../libdaisy/src/hid/disp/display.h ****     Draws a circle around the specified coordinate
  94:../../libdaisy/src/hid/disp/display.h ****     \param x           x Coordinate of the center of the circle
  95:../../libdaisy/src/hid/disp/display.h ****     \param y           y Coordinate of the center of the circle
  96:../../libdaisy/src/hid/disp/display.h ****     \param radius      radius of the circle
  97:../../libdaisy/src/hid/disp/display.h ****     \param on  on or off
  98:../../libdaisy/src/hid/disp/display.h ****     */
  99:../../libdaisy/src/hid/disp/display.h ****     void
 100:../../libdaisy/src/hid/disp/display.h ****     DrawCircle(uint_fast8_t x, uint_fast8_t y, uint_fast8_t radius, bool on)
 101:../../libdaisy/src/hid/disp/display.h ****     {
 102:../../libdaisy/src/hid/disp/display.h ****         DrawArc(x, y, radius, 0, 360, on);
 103:../../libdaisy/src/hid/disp/display.h ****     };
 104:../../libdaisy/src/hid/disp/display.h **** 
 105:../../libdaisy/src/hid/disp/display.h ****     /** 
 106:../../libdaisy/src/hid/disp/display.h ****     Writes the character with the specific FontDef
 107:../../libdaisy/src/hid/disp/display.h ****     to the display buffer at the current Cursor position.
 108:../../libdaisy/src/hid/disp/display.h ****     \param ch character to be written
 109:../../libdaisy/src/hid/disp/display.h ****     \param font font to be written in
 110:../../libdaisy/src/hid/disp/display.h ****     \param on    on or off
 111:../../libdaisy/src/hid/disp/display.h ****     \return &
 112:../../libdaisy/src/hid/disp/display.h ****     */
 113:../../libdaisy/src/hid/disp/display.h ****     virtual char WriteChar(char ch, FontDef font, bool on) = 0;
 114:../../libdaisy/src/hid/disp/display.h **** 
 115:../../libdaisy/src/hid/disp/display.h ****     /** 
 116:../../libdaisy/src/hid/disp/display.h ****     Similar to WriteChar, except it will handle an entire String.
 117:../../libdaisy/src/hid/disp/display.h ****     Wrapping does not happen automatically, so the width
 118:../../libdaisy/src/hid/disp/display.h ****     of the string must be kept within the dimensions of the screen.
ARM GAS  C:\Users\VINCIU~1\AppData\Local\Temp\ccGpRbsb.s 			page 14


 119:../../libdaisy/src/hid/disp/display.h ****     \param str string to be written
 120:../../libdaisy/src/hid/disp/display.h ****     \param font font to use
 121:../../libdaisy/src/hid/disp/display.h ****     \param on  on or off
 122:../../libdaisy/src/hid/disp/display.h ****     \return &
 123:../../libdaisy/src/hid/disp/display.h ****     */
 124:../../libdaisy/src/hid/disp/display.h ****     virtual char WriteString(const char* str, FontDef font, bool on) = 0;
 125:../../libdaisy/src/hid/disp/display.h **** 
 126:../../libdaisy/src/hid/disp/display.h ****     /** 
 127:../../libdaisy/src/hid/disp/display.h ****     Moves the 'Cursor' position used for WriteChar, and WriteStr to the specified coordinate.
 128:../../libdaisy/src/hid/disp/display.h ****     \param x x pos
 129:../../libdaisy/src/hid/disp/display.h ****     \param y y pos
 130:../../libdaisy/src/hid/disp/display.h ****     */
 131:../../libdaisy/src/hid/disp/display.h ****     void SetCursor(uint16_t x, uint16_t y)
 132:../../libdaisy/src/hid/disp/display.h ****     {
 133:../../libdaisy/src/hid/disp/display.h ****         currentX_ = (x >= Width()) ? Width() - 1 : x;
 134:../../libdaisy/src/hid/disp/display.h ****         currentY_ = (y >= Height()) ? Height() - 1 : y;
 135:../../libdaisy/src/hid/disp/display.h ****     }
 136:../../libdaisy/src/hid/disp/display.h **** 
 137:../../libdaisy/src/hid/disp/display.h ****     /** 
 138:../../libdaisy/src/hid/disp/display.h ****     Writes the current display buffer to the OLED device using SPI or I2C depending on 
 139:../../libdaisy/src/hid/disp/display.h ****     how the object was initialized.
 140:../../libdaisy/src/hid/disp/display.h ****     */
 141:../../libdaisy/src/hid/disp/display.h ****     virtual void Update() = 0;
 142:../../libdaisy/src/hid/disp/display.h **** 
 143:../../libdaisy/src/hid/disp/display.h ****   protected:
 144:../../libdaisy/src/hid/disp/display.h ****     uint16_t currentX_;
 145:../../libdaisy/src/hid/disp/display.h ****     uint16_t currentY_;
 146:../../libdaisy/src/hid/disp/display.h **** };
 147:../../libdaisy/src/hid/disp/display.h **** 
 148:../../libdaisy/src/hid/disp/display.h **** /** This class is intended as a intermediary class for your actual implementation of the OneBitGrap
 149:../../libdaisy/src/hid/disp/display.h ****  *  interface. It uses the CRTP design pattern where the template argument is the child class. It p
 150:../../libdaisy/src/hid/disp/display.h ****  *  implementations for most of the functions, except DrawPixel(), Update() and Fill(), which you'l
 151:../../libdaisy/src/hid/disp/display.h ****  *  to provide in your child class.
 152:../../libdaisy/src/hid/disp/display.h ****  *  The main goal of this class is to provide common drawing functions without relying on massive a
 153:../../libdaisy/src/hid/disp/display.h ****  *  virtual function calls that would result in a performance loss. To achieve this, any drawing fu
 154:../../libdaisy/src/hid/disp/display.h ****  *  is implemented here and internally calls other drawing functions (e.g. DrawRect() which interna
 155:../../libdaisy/src/hid/disp/display.h ****  *  DrawPixel() and DrawLine()) makes these calls via the qualified name of these functions to expl
 156:../../libdaisy/src/hid/disp/display.h ****  *  suppress the virtual dispatch mechanism like this:
 157:../../libdaisy/src/hid/disp/display.h ****  * 
 158:../../libdaisy/src/hid/disp/display.h ****  *      ChildType::DrawPixel(...); // no virtual function call; direct call into the child class fu
 159:../../libdaisy/src/hid/disp/display.h ****  *  
 160:../../libdaisy/src/hid/disp/display.h ****  *  To create a custom OneBitGraphicsDisplay implementation, you can 
 161:../../libdaisy/src/hid/disp/display.h ****  *  A) inherit from OneBitGraphicsDisplay directly and provide all the drawing functions yourself
 162:../../libdaisy/src/hid/disp/display.h ****  *  B) Inherit from OneBitGraphicsDisplayImpl and only provide DrawPixel(), Fill() and Update()
 163:../../libdaisy/src/hid/disp/display.h ****  *     like this:
 164:../../libdaisy/src/hid/disp/display.h ****  *  
 165:../../libdaisy/src/hid/disp/display.h ****  *      class MyDisplayClass : public OneBitGraphicsDisplayImpl<MyDisplayClass> 
 166:../../libdaisy/src/hid/disp/display.h ****  *      {
 167:../../libdaisy/src/hid/disp/display.h ****  *      public:
 168:../../libdaisy/src/hid/disp/display.h ****  *          void Fill() override { ... };
 169:../../libdaisy/src/hid/disp/display.h ****  *          void DrawPixel(uint_fast8_t x, uint_fast8_t y, bool on) override { ... };
 170:../../libdaisy/src/hid/disp/display.h ****  *          void Update() override { ... }
 171:../../libdaisy/src/hid/disp/display.h ****  *      };
 172:../../libdaisy/src/hid/disp/display.h ****  *  
 173:../../libdaisy/src/hid/disp/display.h ****  */
 174:../../libdaisy/src/hid/disp/display.h **** template <class ChildType>
 175:../../libdaisy/src/hid/disp/display.h **** class OneBitGraphicsDisplayImpl : public OneBitGraphicsDisplay
ARM GAS  C:\Users\VINCIU~1\AppData\Local\Temp\ccGpRbsb.s 			page 15


 176:../../libdaisy/src/hid/disp/display.h **** {
 177:../../libdaisy/src/hid/disp/display.h ****   public:
 178:../../libdaisy/src/hid/disp/display.h ****     OneBitGraphicsDisplayImpl() {}
 179:../../libdaisy/src/hid/disp/display.h ****     virtual ~OneBitGraphicsDisplayImpl() {}
 180:../../libdaisy/src/hid/disp/display.h **** 
 181:../../libdaisy/src/hid/disp/display.h ****     void DrawLine(uint_fast8_t x1,
 182:../../libdaisy/src/hid/disp/display.h ****                   uint_fast8_t y1,
 183:../../libdaisy/src/hid/disp/display.h ****                   uint_fast8_t x2,
 184:../../libdaisy/src/hid/disp/display.h ****                   uint_fast8_t y2,
 185:../../libdaisy/src/hid/disp/display.h ****                   bool         on) override
 186:../../libdaisy/src/hid/disp/display.h ****     {
 187:../../libdaisy/src/hid/disp/display.h ****         int_fast16_t deltaX = abs((int_fast16_t)x2 - (int_fast16_t)x1);
 188:../../libdaisy/src/hid/disp/display.h ****         int_fast16_t deltaY = abs((int_fast16_t)y2 - (int_fast16_t)y1);
 189:../../libdaisy/src/hid/disp/display.h ****         int_fast16_t signX  = ((x1 < x2) ? 1 : -1);
 190:../../libdaisy/src/hid/disp/display.h ****         int_fast16_t signY  = ((y1 < y2) ? 1 : -1);
 191:../../libdaisy/src/hid/disp/display.h ****         int_fast16_t error  = deltaX - deltaY;
 192:../../libdaisy/src/hid/disp/display.h ****         int_fast16_t error2;
 193:../../libdaisy/src/hid/disp/display.h **** 
 194:../../libdaisy/src/hid/disp/display.h ****         // If we write "ChildType::DrawPixel(x2, y2, on);", we end up with
 195:../../libdaisy/src/hid/disp/display.h ****         // all sorts of weird compiler errors when the Child class is a template
 196:../../libdaisy/src/hid/disp/display.h ****         // class. The only way around this is to use this very verbose syntax:
 197:../../libdaisy/src/hid/disp/display.h ****         ((ChildType*)(this))->ChildType::DrawPixel(x2, y2, on);
 198:../../libdaisy/src/hid/disp/display.h **** 
 199:../../libdaisy/src/hid/disp/display.h ****         while((x1 != x2) || (y1 != y2))
 200:../../libdaisy/src/hid/disp/display.h ****         {
 201:../../libdaisy/src/hid/disp/display.h ****             ((ChildType*)(this))->ChildType::DrawPixel(x1, y1, on);
 202:../../libdaisy/src/hid/disp/display.h ****             error2 = error * 2;
 203:../../libdaisy/src/hid/disp/display.h ****             if(error2 > -deltaY)
 204:../../libdaisy/src/hid/disp/display.h ****             {
 205:../../libdaisy/src/hid/disp/display.h ****                 error -= deltaY;
 206:../../libdaisy/src/hid/disp/display.h ****                 x1 += signX;
 207:../../libdaisy/src/hid/disp/display.h ****             }
 208:../../libdaisy/src/hid/disp/display.h **** 
 209:../../libdaisy/src/hid/disp/display.h ****             if(error2 < deltaX)
 210:../../libdaisy/src/hid/disp/display.h ****             {
 211:../../libdaisy/src/hid/disp/display.h ****                 error += deltaX;
 212:../../libdaisy/src/hid/disp/display.h ****                 y1 += signY;
 213:../../libdaisy/src/hid/disp/display.h ****             }
 214:../../libdaisy/src/hid/disp/display.h ****         }
 215:../../libdaisy/src/hid/disp/display.h ****     }
 216:../../libdaisy/src/hid/disp/display.h **** 
 217:../../libdaisy/src/hid/disp/display.h ****     void DrawRect(uint_fast8_t x1,
 218:../../libdaisy/src/hid/disp/display.h ****                   uint_fast8_t y1,
 219:../../libdaisy/src/hid/disp/display.h ****                   uint_fast8_t x2,
 220:../../libdaisy/src/hid/disp/display.h ****                   uint_fast8_t y2,
 221:../../libdaisy/src/hid/disp/display.h ****                   bool         on,
 222:../../libdaisy/src/hid/disp/display.h ****                   bool         fill = false) override
 223:../../libdaisy/src/hid/disp/display.h ****     {
 224:../../libdaisy/src/hid/disp/display.h ****         if(fill)
 225:../../libdaisy/src/hid/disp/display.h ****         {
 226:../../libdaisy/src/hid/disp/display.h ****             for(uint_fast8_t x = x1; x <= x2; x++)
 227:../../libdaisy/src/hid/disp/display.h ****             {
 228:../../libdaisy/src/hid/disp/display.h ****                 for(uint_fast8_t y = y1; y <= y2; y++)
 229:../../libdaisy/src/hid/disp/display.h ****                 {
 230:../../libdaisy/src/hid/disp/display.h ****                     ((ChildType*)(this))->ChildType::DrawPixel(x, y, on);
 231:../../libdaisy/src/hid/disp/display.h ****                 }
 232:../../libdaisy/src/hid/disp/display.h ****             }
ARM GAS  C:\Users\VINCIU~1\AppData\Local\Temp\ccGpRbsb.s 			page 16


 233:../../libdaisy/src/hid/disp/display.h ****         }
 234:../../libdaisy/src/hid/disp/display.h ****         else
 235:../../libdaisy/src/hid/disp/display.h ****         {
 236:../../libdaisy/src/hid/disp/display.h ****             ((ChildType*)(this))->ChildType::DrawLine(x1, y1, x2, y1, on);
 237:../../libdaisy/src/hid/disp/display.h ****             ((ChildType*)(this))->ChildType::DrawLine(x2, y1, x2, y2, on);
 238:../../libdaisy/src/hid/disp/display.h ****             ((ChildType*)(this))->ChildType::DrawLine(x2, y2, x1, y2, on);
 239:../../libdaisy/src/hid/disp/display.h ****             ((ChildType*)(this))->ChildType::DrawLine(x1, y2, x1, y1, on);
 240:../../libdaisy/src/hid/disp/display.h ****         }
 241:../../libdaisy/src/hid/disp/display.h ****     }
 242:../../libdaisy/src/hid/disp/display.h **** 
 243:../../libdaisy/src/hid/disp/display.h ****     void DrawArc(uint_fast8_t x,
 244:../../libdaisy/src/hid/disp/display.h ****                  uint_fast8_t y,
 245:../../libdaisy/src/hid/disp/display.h ****                  uint_fast8_t radius,
 246:../../libdaisy/src/hid/disp/display.h ****                  int_fast16_t start_angle,
 247:../../libdaisy/src/hid/disp/display.h ****                  int_fast16_t sweep,
 248:../../libdaisy/src/hid/disp/display.h ****                  bool         on) override
 249:../../libdaisy/src/hid/disp/display.h ****     {
 250:../../libdaisy/src/hid/disp/display.h ****         // Values to calculate the circle
 251:../../libdaisy/src/hid/disp/display.h ****         int_fast16_t t_x, t_y, err, e2;
 252:../../libdaisy/src/hid/disp/display.h **** 
 253:../../libdaisy/src/hid/disp/display.h ****         // Temporary values to speed up comparisons
 254:../../libdaisy/src/hid/disp/display.h ****         float t_sxy, t_syx, t_sxny, t_synx;
 255:../../libdaisy/src/hid/disp/display.h ****         float t_exy, t_eyx, t_exny, t_eynx;
 256:../../libdaisy/src/hid/disp/display.h **** 
 257:../../libdaisy/src/hid/disp/display.h ****         float start_angle_rad, end_angle_rad;
 258:../../libdaisy/src/hid/disp/display.h ****         float start_x, start_y, end_x, end_y;
 259:../../libdaisy/src/hid/disp/display.h **** 
 260:../../libdaisy/src/hid/disp/display.h ****         bool d1, d2, d3, d4;
 261:../../libdaisy/src/hid/disp/display.h **** 
 262:../../libdaisy/src/hid/disp/display.h ****         d1 = d2 = d3 = d4 = true;
 263:../../libdaisy/src/hid/disp/display.h **** 
 264:../../libdaisy/src/hid/disp/display.h ****         bool circle = false;
 265:../../libdaisy/src/hid/disp/display.h **** 
 266:../../libdaisy/src/hid/disp/display.h ****         if(sweep < 0)
 267:../../libdaisy/src/hid/disp/display.h ****         {
 268:../../libdaisy/src/hid/disp/display.h ****             start_angle += sweep;
 269:../../libdaisy/src/hid/disp/display.h ****             sweep = -sweep;
 270:../../libdaisy/src/hid/disp/display.h ****         }
 271:../../libdaisy/src/hid/disp/display.h **** 
 272:../../libdaisy/src/hid/disp/display.h ****         start_angle_rad = deg2rad(start_angle);
 273:../../libdaisy/src/hid/disp/display.h ****         end_angle_rad   = deg2rad(start_angle + sweep);
 274:../../libdaisy/src/hid/disp/display.h **** 
 275:../../libdaisy/src/hid/disp/display.h ****         start_x = cos(start_angle_rad) * radius;
 276:../../libdaisy/src/hid/disp/display.h ****         start_y = -sin(start_angle_rad) * radius;
 277:../../libdaisy/src/hid/disp/display.h ****         end_x   = cos(end_angle_rad) * radius;
 278:../../libdaisy/src/hid/disp/display.h ****         end_y   = -sin(end_angle_rad) * radius;
 279:../../libdaisy/src/hid/disp/display.h **** 
 280:../../libdaisy/src/hid/disp/display.h ****         // Check if start and endpoint are very near
 281:../../libdaisy/src/hid/disp/display.h ****         if((end_x - start_x) * (end_x - start_x)
 282:../../libdaisy/src/hid/disp/display.h ****                + (end_y - start_y) * (end_y - start_y)
 283:../../libdaisy/src/hid/disp/display.h ****            < 2.0f)
 284:../../libdaisy/src/hid/disp/display.h ****         {
 285:../../libdaisy/src/hid/disp/display.h ****             if(sweep > 180)
 286:../../libdaisy/src/hid/disp/display.h ****                 circle = true;
 287:../../libdaisy/src/hid/disp/display.h ****             else
 288:../../libdaisy/src/hid/disp/display.h ****                 // Nothing to draw
 289:../../libdaisy/src/hid/disp/display.h ****                 return;
ARM GAS  C:\Users\VINCIU~1\AppData\Local\Temp\ccGpRbsb.s 			page 17


 290:../../libdaisy/src/hid/disp/display.h ****         }
 291:../../libdaisy/src/hid/disp/display.h **** 
 292:../../libdaisy/src/hid/disp/display.h ****         t_x = -radius;
 293:../../libdaisy/src/hid/disp/display.h ****         t_y = 0;
 294:../../libdaisy/src/hid/disp/display.h ****         err = 2 - 2 * radius;
 295:../../libdaisy/src/hid/disp/display.h **** 
 296:../../libdaisy/src/hid/disp/display.h ****         do
 297:../../libdaisy/src/hid/disp/display.h ****         {
 298:../../libdaisy/src/hid/disp/display.h ****             if(!circle)
 299:../../libdaisy/src/hid/disp/display.h ****             {
 300:../../libdaisy/src/hid/disp/display.h ****                 t_sxy  = start_x * t_y;
 301:../../libdaisy/src/hid/disp/display.h ****                 t_syx  = start_y * t_x;
 302:../../libdaisy/src/hid/disp/display.h ****                 t_sxny = start_x * -t_y;
 303:../../libdaisy/src/hid/disp/display.h ****                 t_synx = start_y * -t_x;
 304:../../libdaisy/src/hid/disp/display.h ****                 t_exy  = end_x * t_y;
 305:../../libdaisy/src/hid/disp/display.h ****                 t_eyx  = end_y * t_x;
 306:../../libdaisy/src/hid/disp/display.h ****                 t_exny = end_x * -t_y;
 307:../../libdaisy/src/hid/disp/display.h ****                 t_eynx = end_y * -t_x;
 308:../../libdaisy/src/hid/disp/display.h **** 
 309:../../libdaisy/src/hid/disp/display.h ****                 if(sweep > 180)
 310:../../libdaisy/src/hid/disp/display.h ****                 {
 311:../../libdaisy/src/hid/disp/display.h ****                     d1 = (t_sxy - t_synx < 0 || t_exy - t_eynx > 0);
 312:../../libdaisy/src/hid/disp/display.h ****                     d2 = (t_sxy - t_syx < 0 || t_exy - t_eyx > 0);
 313:../../libdaisy/src/hid/disp/display.h ****                     d3 = (t_sxny - t_syx < 0 || t_exny - t_eyx > 0);
 314:../../libdaisy/src/hid/disp/display.h ****                     d4 = (t_sxny - t_synx < 0 || t_exny - t_eynx > 0);
 315:../../libdaisy/src/hid/disp/display.h ****                 }
 316:../../libdaisy/src/hid/disp/display.h ****                 else
 317:../../libdaisy/src/hid/disp/display.h ****                 {
 318:../../libdaisy/src/hid/disp/display.h ****                     d1 = (t_sxy - t_synx < 0 && t_exy - t_eynx > 0);
 319:../../libdaisy/src/hid/disp/display.h ****                     d2 = (t_sxy - t_syx < 0 && t_exy - t_eyx > 0);
 320:../../libdaisy/src/hid/disp/display.h ****                     d3 = (t_sxny - t_syx < 0 && t_exny - t_eyx > 0);
 321:../../libdaisy/src/hid/disp/display.h ****                     d4 = (t_sxny - t_synx < 0 && t_exny - t_eynx > 0);
 322:../../libdaisy/src/hid/disp/display.h ****                 }
 323:../../libdaisy/src/hid/disp/display.h ****             }
 324:../../libdaisy/src/hid/disp/display.h **** 
 325:../../libdaisy/src/hid/disp/display.h ****             if(d1)
 326:../../libdaisy/src/hid/disp/display.h ****                 ((ChildType*)(this))
 327:../../libdaisy/src/hid/disp/display.h ****                     ->ChildType::DrawPixel(x - t_x, y + t_y, on);
 328:../../libdaisy/src/hid/disp/display.h ****             if(d2)
 329:../../libdaisy/src/hid/disp/display.h ****                 ((ChildType*)(this))
 330:../../libdaisy/src/hid/disp/display.h ****                     ->ChildType::DrawPixel(x + t_x, y + t_y, on);
 331:../../libdaisy/src/hid/disp/display.h ****             if(d3)
 332:../../libdaisy/src/hid/disp/display.h ****                 ((ChildType*)(this))
 333:../../libdaisy/src/hid/disp/display.h ****                     ->ChildType::DrawPixel(x + t_x, y - t_y, on);
 334:../../libdaisy/src/hid/disp/display.h ****             if(d4)
 335:../../libdaisy/src/hid/disp/display.h ****                 ((ChildType*)(this))
 336:../../libdaisy/src/hid/disp/display.h ****                     ->ChildType::DrawPixel(x - t_x, y - t_y, on);
 337:../../libdaisy/src/hid/disp/display.h **** 
 338:../../libdaisy/src/hid/disp/display.h ****             e2 = err;
 339:../../libdaisy/src/hid/disp/display.h ****             if(e2 <= t_y)
 340:../../libdaisy/src/hid/disp/display.h ****             {
 341:../../libdaisy/src/hid/disp/display.h ****                 t_y++;
 342:../../libdaisy/src/hid/disp/display.h ****                 err = err + (t_y * 2 + 1);
 343:../../libdaisy/src/hid/disp/display.h ****                 if(-t_x == t_y && e2 <= t_x)
 344:../../libdaisy/src/hid/disp/display.h ****                 {
 345:../../libdaisy/src/hid/disp/display.h ****                     e2 = 0;
 346:../../libdaisy/src/hid/disp/display.h ****                 }
ARM GAS  C:\Users\VINCIU~1\AppData\Local\Temp\ccGpRbsb.s 			page 18


 347:../../libdaisy/src/hid/disp/display.h ****             }
 348:../../libdaisy/src/hid/disp/display.h ****             if(e2 > t_x)
 349:../../libdaisy/src/hid/disp/display.h ****             {
 350:../../libdaisy/src/hid/disp/display.h ****                 t_x++;
 351:../../libdaisy/src/hid/disp/display.h ****                 err = err + (t_x * 2 + 1);
 352:../../libdaisy/src/hid/disp/display.h ****             }
 353:../../libdaisy/src/hid/disp/display.h ****         } while(t_x <= 0);
 354:../../libdaisy/src/hid/disp/display.h ****     }
 355:../../libdaisy/src/hid/disp/display.h **** 
 356:../../libdaisy/src/hid/disp/display.h ****     char WriteChar(char ch, FontDef font, bool on) override
 357:../../libdaisy/src/hid/disp/display.h ****     {
 358:../../libdaisy/src/hid/disp/display.h ****         uint32_t i, b, j;
 359:../../libdaisy/src/hid/disp/display.h **** 
 360:../../libdaisy/src/hid/disp/display.h ****         // Check if character is valid
 361:../../libdaisy/src/hid/disp/display.h ****         if(ch < 32 || ch > 126)
 362:../../libdaisy/src/hid/disp/display.h ****             return 0;
 363:../../libdaisy/src/hid/disp/display.h **** 
 364:../../libdaisy/src/hid/disp/display.h ****         // Check remaining space on current line
 365:../../libdaisy/src/hid/disp/display.h ****         if(Width() < (currentX_ + font.FontWidth)
 366:../../libdaisy/src/hid/disp/display.h ****            || Height() < (currentY_ + font.FontHeight))
 367:../../libdaisy/src/hid/disp/display.h ****         {
 368:../../libdaisy/src/hid/disp/display.h ****             // Not enough space on current line
 369:../../libdaisy/src/hid/disp/display.h ****             return 0;
 370:../../libdaisy/src/hid/disp/display.h ****         }
 371:../../libdaisy/src/hid/disp/display.h **** 
 372:../../libdaisy/src/hid/disp/display.h ****         // Use the font to write
 373:../../libdaisy/src/hid/disp/display.h ****         for(i = 0; i < font.FontHeight; i++)
 374:../../libdaisy/src/hid/disp/display.h ****         {
 375:../../libdaisy/src/hid/disp/display.h ****             b = font.data[(ch - 32) * font.FontHeight + i];
 376:../../libdaisy/src/hid/disp/display.h ****             for(j = 0; j < font.FontWidth; j++)
 377:../../libdaisy/src/hid/disp/display.h ****             {
 378:../../libdaisy/src/hid/disp/display.h ****                 if((b << j) & 0x8000)
 379:../../libdaisy/src/hid/disp/display.h ****                 {
 380:../../libdaisy/src/hid/disp/display.h ****                     ((ChildType*)(this))
 381:../../libdaisy/src/hid/disp/display.h ****                         ->ChildType::DrawPixel(
 382:../../libdaisy/src/hid/disp/display.h ****                             currentX_ + j, (currentY_ + i), on);
 383:../../libdaisy/src/hid/disp/display.h ****                 }
 384:../../libdaisy/src/hid/disp/display.h ****                 else
 385:../../libdaisy/src/hid/disp/display.h ****                 {
 386:../../libdaisy/src/hid/disp/display.h ****                     ((ChildType*)(this))
 387:../../libdaisy/src/hid/disp/display.h ****                         ->ChildType::DrawPixel(
 388:../../libdaisy/src/hid/disp/display.h ****                             currentX_ + j, (currentY_ + i), !on);
 389:../../libdaisy/src/hid/disp/display.h ****                 }
 390:../../libdaisy/src/hid/disp/display.h ****             }
 391:../../libdaisy/src/hid/disp/display.h ****         }
 392:../../libdaisy/src/hid/disp/display.h **** 
 393:../../libdaisy/src/hid/disp/display.h ****         // The current space is now taken
 394:../../libdaisy/src/hid/disp/display.h ****         SetCursor(currentX_ + font.FontWidth, currentY_);
 395:../../libdaisy/src/hid/disp/display.h **** 
 396:../../libdaisy/src/hid/disp/display.h ****         // Return written char for validation
 397:../../libdaisy/src/hid/disp/display.h ****         return ch;
 398:../../libdaisy/src/hid/disp/display.h ****     }
 399:../../libdaisy/src/hid/disp/display.h **** 
 400:../../libdaisy/src/hid/disp/display.h ****     char WriteString(const char* str, FontDef font, bool on) override
 378              		.loc 5 400 10 view -0
 379              		.cfi_startproc
 380              		@ args = 4, pretend = 0, frame = 32
ARM GAS  C:\Users\VINCIU~1\AppData\Local\Temp\ccGpRbsb.s 			page 19


 381              		@ frame_needed = 0, uses_anonymous_args = 0
 382              		.loc 5 400 10 is_stmt 0 view .LVU111
 383 0000 2DE9F04F 		push	{r4, r5, r6, r7, r8, r9, r10, fp, lr}
 384              		.cfi_def_cfa_offset 36
 385              		.cfi_offset 4, -36
 386              		.cfi_offset 5, -32
 387              		.cfi_offset 6, -28
 388              		.cfi_offset 7, -24
 389              		.cfi_offset 8, -20
 390              		.cfi_offset 9, -16
 391              		.cfi_offset 10, -12
 392              		.cfi_offset 11, -8
 393              		.cfi_offset 14, -4
 394 0004 89B0     		sub	sp, sp, #36
 395              		.cfi_def_cfa_offset 72
 396              		.loc 5 400 10 view .LVU112
 397 0006 08AC     		add	r4, sp, #32
 398 0008 9DF84870 		ldrb	r7, [sp, #72]	@ zero_extendqisi2
 399 000c 0191     		str	r1, [sp, #4]
 400 000e 04E90C00 		stmdb	r4, {r2, r3}
 401:../../libdaisy/src/hid/disp/display.h ****     {
 402:../../libdaisy/src/hid/disp/display.h ****         // Write until null-byte
 403:../../libdaisy/src/hid/disp/display.h ****         while(*str)
 401              		.loc 5 403 9 is_stmt 1 view .LVU113
 402 0012 0B78     		ldrb	r3, [r1]	@ zero_extendqisi2
 403 0014 002B     		cmp	r3, #0
 404 0016 00F0AB80 		beq	.L47
 405 001a 1A46     		mov	r2, r3
 406 001c 9DF81880 		ldrb	r8, [sp, #24]	@ zero_extendqisi2
 407 0020 9DF81930 		ldrb	r3, [sp, #25]	@ zero_extendqisi2
 408 0024 0646     		mov	r6, r0
 409 0026 4546     		mov	r5, r8
 410 0028 9046     		mov	r8, r2
 411 002a 0393     		str	r3, [sp, #12]
 412 002c 079B     		ldr	r3, [sp, #28]
 413 002e 0593     		str	r3, [sp, #20]
 414              	.LVL19:
 415              	.L48:
 416              	.LBB250:
 417              	.LBI250:
 356:../../libdaisy/src/hid/disp/display.h ****     {
 418              		.loc 5 356 10 view .LVU114
 419              	.LBB251:
 361:../../libdaisy/src/hid/disp/display.h ****             return 0;
 420              		.loc 5 361 20 is_stmt 0 view .LVU115
 421 0030 A8F12004 		sub	r4, r8, #32
 361:../../libdaisy/src/hid/disp/display.h ****             return 0;
 422              		.loc 5 361 9 view .LVU116
 423 0034 E3B2     		uxtb	r3, r4
 424 0036 5E2B     		cmp	r3, #94
 425 0038 00F29E80 		bhi	.L29
 365:../../libdaisy/src/hid/disp/display.h ****            || Height() < (currentY_ + font.FontHeight))
 426              		.loc 5 365 17 view .LVU117
 427 003c 3368     		ldr	r3, [r6]
 428 003e 5E4A     		ldr	r2, .L69
 429 0040 DB68     		ldr	r3, [r3, #12]
 430 0042 9342     		cmp	r3, r2
ARM GAS  C:\Users\VINCIU~1\AppData\Local\Temp\ccGpRbsb.s 			page 20


 431 0044 40F09B80 		bne	.L62
 432 0048 8020     		movs	r0, #128
 433              	.L28:
 365:../../libdaisy/src/hid/disp/display.h ****            || Height() < (currentY_ + font.FontHeight))
 434              		.loc 5 365 23 view .LVU118
 435 004a B388     		ldrh	r3, [r6, #4]
 365:../../libdaisy/src/hid/disp/display.h ****            || Height() < (currentY_ + font.FontHeight))
 436              		.loc 5 365 33 view .LVU119
 437 004c 2B44     		add	r3, r3, r5
 366:../../libdaisy/src/hid/disp/display.h ****         {
 438              		.loc 5 366 12 view .LVU120
 439 004e 8342     		cmp	r3, r0
 440 0050 00F39280 		bgt	.L29
 366:../../libdaisy/src/hid/disp/display.h ****         {
 441              		.loc 5 366 21 view .LVU121
 442 0054 3368     		ldr	r3, [r6]
 443 0056 594A     		ldr	r2, .L69+4
 444 0058 9B68     		ldr	r3, [r3, #8]
 445 005a 9342     		cmp	r3, r2
 446 005c 40F09280 		bne	.L63
 447 0060 4020     		movs	r0, #64
 448              	.L30:
 366:../../libdaisy/src/hid/disp/display.h ****         {
 449              		.loc 5 366 27 view .LVU122
 450 0062 F188     		ldrh	r1, [r6, #6]
 366:../../libdaisy/src/hid/disp/display.h ****         {
 451              		.loc 5 366 37 view .LVU123
 452 0064 039A     		ldr	r2, [sp, #12]
 366:../../libdaisy/src/hid/disp/display.h ****         {
 453              		.loc 5 366 27 view .LVU124
 454 0066 0291     		str	r1, [sp, #8]
 366:../../libdaisy/src/hid/disp/display.h ****         {
 455              		.loc 5 366 37 view .LVU125
 456 0068 8B18     		adds	r3, r1, r2
 366:../../libdaisy/src/hid/disp/display.h ****         {
 457              		.loc 5 366 12 view .LVU126
 458 006a 8342     		cmp	r3, r0
 459 006c 00F38480 		bgt	.L29
 460              	.LVL20:
 373:../../libdaisy/src/hid/disp/display.h ****         {
 461              		.loc 5 373 22 is_stmt 1 view .LVU127
 462 0070 002A     		cmp	r2, #0
 463 0072 00F09180 		beq	.L31
 375:../../libdaisy/src/hid/disp/display.h ****             for(j = 0; j < font.FontWidth; j++)
 464              		.loc 5 375 37 is_stmt 0 view .LVU128
 465 0076 02FB04F4 		mul	r4, r2, r4
 466 007a 6FF00049 		mvn	r9, #-2147483648
 467 007e 059B     		ldr	r3, [sp, #20]
 468 0080 A144     		add	r9, r9, r4
 469 0082 1444     		add	r4, r4, r2
 394:../../libdaisy/src/hid/disp/display.h **** 
 470              		.loc 5 394 19 view .LVU129
 471 0084 B6F804B0 		ldrh	fp, [r6, #4]
 472 0088 03EB4909 		add	r9, r3, r9, lsl #1
 473 008c 023B     		subs	r3, r3, #2
 474 008e CDF81080 		str	r8, [sp, #16]
 475 0092 03EB4403 		add	r3, r3, r4, lsl #1
ARM GAS  C:\Users\VINCIU~1\AppData\Local\Temp\ccGpRbsb.s 			page 21


 476 0096 0C46     		mov	r4, r1
 477 0098 9A46     		mov	r10, r3
 478              	.LVL21:
 479              	.L34:
 375:../../libdaisy/src/hid/disp/display.h ****             for(j = 0; j < font.FontWidth; j++)
 480              		.loc 5 375 15 view .LVU130
 481 009a 39F802CF 		ldrh	ip, [r9, #2]!
 482              	.LVL22:
 376:../../libdaisy/src/hid/disp/display.h ****             {
 483              		.loc 5 376 26 is_stmt 1 view .LVU131
 484 009e A5B3     		cbz	r5, .L39
 485              	.LBB252:
 486              	.LBB253:
 487              	.LBB254:
 488              	.LBB255:
 489              	.LBB256:
 490              		.file 6 "../../libdaisy/src/dev/oled_ssd130x.h"
   1:../../libdaisy/src/dev/oled_ssd130x.h **** #pragma once
   2:../../libdaisy/src/dev/oled_ssd130x.h **** #ifndef SA_OLED_SSD130X_H
   3:../../libdaisy/src/dev/oled_ssd130x.h **** #define SA_OLED_SSD130X_H /**< & */
   4:../../libdaisy/src/dev/oled_ssd130x.h **** 
   5:../../libdaisy/src/dev/oled_ssd130x.h **** #include "per/i2c.h"
   6:../../libdaisy/src/dev/oled_ssd130x.h **** #include "per/spi.h"
   7:../../libdaisy/src/dev/oled_ssd130x.h **** #include "per/gpio.h"
   8:../../libdaisy/src/dev/oled_ssd130x.h **** #include "sys/system.h"
   9:../../libdaisy/src/dev/oled_ssd130x.h **** 
  10:../../libdaisy/src/dev/oled_ssd130x.h **** namespace daisy
  11:../../libdaisy/src/dev/oled_ssd130x.h **** {
  12:../../libdaisy/src/dev/oled_ssd130x.h **** /**
  13:../../libdaisy/src/dev/oled_ssd130x.h ****  * I2C Transport for SSD1306 / SSD1309 OLED display devices
  14:../../libdaisy/src/dev/oled_ssd130x.h ****  */
  15:../../libdaisy/src/dev/oled_ssd130x.h **** class SSD130xI2CTransport
  16:../../libdaisy/src/dev/oled_ssd130x.h **** {
  17:../../libdaisy/src/dev/oled_ssd130x.h ****   public:
  18:../../libdaisy/src/dev/oled_ssd130x.h ****     struct Config
  19:../../libdaisy/src/dev/oled_ssd130x.h ****     {
  20:../../libdaisy/src/dev/oled_ssd130x.h ****         I2CHandle::Config i2c_config;
  21:../../libdaisy/src/dev/oled_ssd130x.h ****         uint8_t           i2c_address;
  22:../../libdaisy/src/dev/oled_ssd130x.h ****         void              Defaults()
  23:../../libdaisy/src/dev/oled_ssd130x.h ****         {
  24:../../libdaisy/src/dev/oled_ssd130x.h ****             i2c_config.periph         = I2CHandle::Config::Peripheral::I2C_1;
  25:../../libdaisy/src/dev/oled_ssd130x.h ****             i2c_config.speed          = I2CHandle::Config::Speed::I2C_1MHZ;
  26:../../libdaisy/src/dev/oled_ssd130x.h ****             i2c_config.mode           = I2CHandle::Config::Mode::I2C_MASTER;
  27:../../libdaisy/src/dev/oled_ssd130x.h ****             i2c_config.pin_config.scl = {DSY_GPIOB, 8};
  28:../../libdaisy/src/dev/oled_ssd130x.h ****             i2c_config.pin_config.sda = {DSY_GPIOB, 9};
  29:../../libdaisy/src/dev/oled_ssd130x.h ****             i2c_address               = 0x3C;
  30:../../libdaisy/src/dev/oled_ssd130x.h ****         }
  31:../../libdaisy/src/dev/oled_ssd130x.h ****     };
  32:../../libdaisy/src/dev/oled_ssd130x.h ****     void Init(const Config& config)
  33:../../libdaisy/src/dev/oled_ssd130x.h ****     {
  34:../../libdaisy/src/dev/oled_ssd130x.h ****         i2c_address_ = config.i2c_address;
  35:../../libdaisy/src/dev/oled_ssd130x.h ****         i2c_.Init(config.i2c_config);
  36:../../libdaisy/src/dev/oled_ssd130x.h ****     };
  37:../../libdaisy/src/dev/oled_ssd130x.h ****     void SendCommand(uint8_t cmd)
  38:../../libdaisy/src/dev/oled_ssd130x.h ****     {
  39:../../libdaisy/src/dev/oled_ssd130x.h ****         uint8_t buf[2] = {0X00, cmd};
  40:../../libdaisy/src/dev/oled_ssd130x.h ****         i2c_.TransmitBlocking(i2c_address_, buf, 2, 1000);
ARM GAS  C:\Users\VINCIU~1\AppData\Local\Temp\ccGpRbsb.s 			page 22


  41:../../libdaisy/src/dev/oled_ssd130x.h ****     };
  42:../../libdaisy/src/dev/oled_ssd130x.h **** 
  43:../../libdaisy/src/dev/oled_ssd130x.h ****     void SendData(uint8_t* buff, size_t size)
  44:../../libdaisy/src/dev/oled_ssd130x.h ****     {
  45:../../libdaisy/src/dev/oled_ssd130x.h ****         for(size_t i = 0; i < size; i++)
  46:../../libdaisy/src/dev/oled_ssd130x.h ****         {
  47:../../libdaisy/src/dev/oled_ssd130x.h ****             uint8_t buf[2] = {0X40, buff[i]};
  48:../../libdaisy/src/dev/oled_ssd130x.h ****             i2c_.TransmitBlocking(i2c_address_, buf, 2, 1000);
  49:../../libdaisy/src/dev/oled_ssd130x.h ****         }
  50:../../libdaisy/src/dev/oled_ssd130x.h ****     };
  51:../../libdaisy/src/dev/oled_ssd130x.h **** 
  52:../../libdaisy/src/dev/oled_ssd130x.h ****   private:
  53:../../libdaisy/src/dev/oled_ssd130x.h ****     daisy::I2CHandle i2c_;
  54:../../libdaisy/src/dev/oled_ssd130x.h ****     uint8_t          i2c_address_;
  55:../../libdaisy/src/dev/oled_ssd130x.h **** };
  56:../../libdaisy/src/dev/oled_ssd130x.h **** 
  57:../../libdaisy/src/dev/oled_ssd130x.h **** /**
  58:../../libdaisy/src/dev/oled_ssd130x.h ****  * 4 Wire SPI Transport for SSD1306 / SSD1309 OLED display devices
  59:../../libdaisy/src/dev/oled_ssd130x.h ****  */
  60:../../libdaisy/src/dev/oled_ssd130x.h **** class SSD130x4WireSpiTransport
  61:../../libdaisy/src/dev/oled_ssd130x.h **** {
  62:../../libdaisy/src/dev/oled_ssd130x.h ****   public:
  63:../../libdaisy/src/dev/oled_ssd130x.h ****     struct Config
  64:../../libdaisy/src/dev/oled_ssd130x.h ****     {
  65:../../libdaisy/src/dev/oled_ssd130x.h ****         struct
  66:../../libdaisy/src/dev/oled_ssd130x.h ****         {
  67:../../libdaisy/src/dev/oled_ssd130x.h ****             dsy_gpio_pin dc;    /**< & */
  68:../../libdaisy/src/dev/oled_ssd130x.h ****             dsy_gpio_pin reset; /**< & */
  69:../../libdaisy/src/dev/oled_ssd130x.h ****         } pin_config;
  70:../../libdaisy/src/dev/oled_ssd130x.h ****         void Defaults()
  71:../../libdaisy/src/dev/oled_ssd130x.h ****         {
  72:../../libdaisy/src/dev/oled_ssd130x.h ****             pin_config.dc    = {DSY_GPIOB, 4};
  73:../../libdaisy/src/dev/oled_ssd130x.h ****             pin_config.reset = {DSY_GPIOB, 15};
  74:../../libdaisy/src/dev/oled_ssd130x.h ****         }
  75:../../libdaisy/src/dev/oled_ssd130x.h ****     };
  76:../../libdaisy/src/dev/oled_ssd130x.h ****     void Init(const Config& config)
  77:../../libdaisy/src/dev/oled_ssd130x.h ****     {
  78:../../libdaisy/src/dev/oled_ssd130x.h ****         // Initialize both GPIO
  79:../../libdaisy/src/dev/oled_ssd130x.h ****         pin_dc_.mode = DSY_GPIO_MODE_OUTPUT_PP;
  80:../../libdaisy/src/dev/oled_ssd130x.h ****         pin_dc_.pin  = config.pin_config.dc;
  81:../../libdaisy/src/dev/oled_ssd130x.h ****         dsy_gpio_init(&pin_dc_);
  82:../../libdaisy/src/dev/oled_ssd130x.h ****         pin_reset_.mode = DSY_GPIO_MODE_OUTPUT_PP;
  83:../../libdaisy/src/dev/oled_ssd130x.h ****         pin_reset_.pin  = config.pin_config.reset;
  84:../../libdaisy/src/dev/oled_ssd130x.h ****         dsy_gpio_init(&pin_reset_);
  85:../../libdaisy/src/dev/oled_ssd130x.h ****         // Initialize SPI
  86:../../libdaisy/src/dev/oled_ssd130x.h ****         SpiHandle::Config spi_config;
  87:../../libdaisy/src/dev/oled_ssd130x.h ****         spi_config.periph    = SpiHandle::Config::Peripheral::SPI_1;
  88:../../libdaisy/src/dev/oled_ssd130x.h ****         spi_config.mode      = SpiHandle::Config::Mode::MASTER;
  89:../../libdaisy/src/dev/oled_ssd130x.h ****         spi_config.direction = SpiHandle::Config::Direction::TWO_LINES_TX_ONLY;
  90:../../libdaisy/src/dev/oled_ssd130x.h ****         spi_config.datasize  = 8;
  91:../../libdaisy/src/dev/oled_ssd130x.h ****         spi_config.clock_polarity = SpiHandle::Config::ClockPolarity::LOW;
  92:../../libdaisy/src/dev/oled_ssd130x.h ****         spi_config.clock_phase    = SpiHandle::Config::ClockPhase::ONE_EDGE;
  93:../../libdaisy/src/dev/oled_ssd130x.h ****         spi_config.nss            = SpiHandle::Config::NSS::HARD_OUTPUT;
  94:../../libdaisy/src/dev/oled_ssd130x.h ****         spi_config.baud_prescaler = SpiHandle::Config::BaudPrescaler::PS_8;
  95:../../libdaisy/src/dev/oled_ssd130x.h **** 
  96:../../libdaisy/src/dev/oled_ssd130x.h ****         spi_config.pin_config.sclk = {DSY_GPIOG, 11};
  97:../../libdaisy/src/dev/oled_ssd130x.h ****         spi_config.pin_config.miso = {DSY_GPIOX, 0};
ARM GAS  C:\Users\VINCIU~1\AppData\Local\Temp\ccGpRbsb.s 			page 23


  98:../../libdaisy/src/dev/oled_ssd130x.h ****         spi_config.pin_config.mosi = {DSY_GPIOB, 5};
  99:../../libdaisy/src/dev/oled_ssd130x.h ****         spi_config.pin_config.nss  = {DSY_GPIOG, 10};
 100:../../libdaisy/src/dev/oled_ssd130x.h **** 
 101:../../libdaisy/src/dev/oled_ssd130x.h ****         spi_.Init(spi_config);
 102:../../libdaisy/src/dev/oled_ssd130x.h **** 
 103:../../libdaisy/src/dev/oled_ssd130x.h ****         // Reset and Configure OLED.
 104:../../libdaisy/src/dev/oled_ssd130x.h ****         dsy_gpio_write(&pin_reset_, 0);
 105:../../libdaisy/src/dev/oled_ssd130x.h ****         System::Delay(10);
 106:../../libdaisy/src/dev/oled_ssd130x.h ****         dsy_gpio_write(&pin_reset_, 1);
 107:../../libdaisy/src/dev/oled_ssd130x.h ****         System::Delay(10);
 108:../../libdaisy/src/dev/oled_ssd130x.h ****     };
 109:../../libdaisy/src/dev/oled_ssd130x.h ****     void SendCommand(uint8_t cmd)
 110:../../libdaisy/src/dev/oled_ssd130x.h ****     {
 111:../../libdaisy/src/dev/oled_ssd130x.h ****         dsy_gpio_write(&pin_dc_, 0);
 112:../../libdaisy/src/dev/oled_ssd130x.h ****         spi_.BlockingTransmit(&cmd, 1);
 113:../../libdaisy/src/dev/oled_ssd130x.h ****     };
 114:../../libdaisy/src/dev/oled_ssd130x.h **** 
 115:../../libdaisy/src/dev/oled_ssd130x.h ****     void SendData(uint8_t* buff, size_t size)
 116:../../libdaisy/src/dev/oled_ssd130x.h ****     {
 117:../../libdaisy/src/dev/oled_ssd130x.h ****         dsy_gpio_write(&pin_dc_, 1);
 118:../../libdaisy/src/dev/oled_ssd130x.h ****         spi_.BlockingTransmit(buff, size);
 119:../../libdaisy/src/dev/oled_ssd130x.h ****     };
 120:../../libdaisy/src/dev/oled_ssd130x.h **** 
 121:../../libdaisy/src/dev/oled_ssd130x.h ****   private:
 122:../../libdaisy/src/dev/oled_ssd130x.h ****     SpiHandle spi_;
 123:../../libdaisy/src/dev/oled_ssd130x.h ****     dsy_gpio  pin_reset_;
 124:../../libdaisy/src/dev/oled_ssd130x.h ****     dsy_gpio  pin_dc_;
 125:../../libdaisy/src/dev/oled_ssd130x.h **** };
 126:../../libdaisy/src/dev/oled_ssd130x.h **** 
 127:../../libdaisy/src/dev/oled_ssd130x.h **** 
 128:../../libdaisy/src/dev/oled_ssd130x.h **** /**
 129:../../libdaisy/src/dev/oled_ssd130x.h ****  * A driver implementation for the SSD1306/SSD1309
 130:../../libdaisy/src/dev/oled_ssd130x.h ****  */
 131:../../libdaisy/src/dev/oled_ssd130x.h **** template <size_t width, size_t height, typename Transport>
 132:../../libdaisy/src/dev/oled_ssd130x.h **** class SSD130xDriver
 133:../../libdaisy/src/dev/oled_ssd130x.h **** {
 134:../../libdaisy/src/dev/oled_ssd130x.h ****   public:
 135:../../libdaisy/src/dev/oled_ssd130x.h ****     struct Config
 136:../../libdaisy/src/dev/oled_ssd130x.h ****     {
 137:../../libdaisy/src/dev/oled_ssd130x.h ****         typename Transport::Config transport_config;
 138:../../libdaisy/src/dev/oled_ssd130x.h ****     };
 139:../../libdaisy/src/dev/oled_ssd130x.h **** 
 140:../../libdaisy/src/dev/oled_ssd130x.h ****     void Init(Config config)
 141:../../libdaisy/src/dev/oled_ssd130x.h ****     {
 142:../../libdaisy/src/dev/oled_ssd130x.h ****         transport_.Init(config.transport_config);
 143:../../libdaisy/src/dev/oled_ssd130x.h **** 
 144:../../libdaisy/src/dev/oled_ssd130x.h ****         // Init routine...
 145:../../libdaisy/src/dev/oled_ssd130x.h **** 
 146:../../libdaisy/src/dev/oled_ssd130x.h ****         // Display Off
 147:../../libdaisy/src/dev/oled_ssd130x.h ****         transport_.SendCommand(0xaE);
 148:../../libdaisy/src/dev/oled_ssd130x.h ****         // Dimension dependent commands...
 149:../../libdaisy/src/dev/oled_ssd130x.h ****         switch(height)
 150:../../libdaisy/src/dev/oled_ssd130x.h ****         {
 151:../../libdaisy/src/dev/oled_ssd130x.h ****             case 16:
 152:../../libdaisy/src/dev/oled_ssd130x.h ****                 // Display Clock Divide Ratio
 153:../../libdaisy/src/dev/oled_ssd130x.h ****                 transport_.SendCommand(0xD5);
 154:../../libdaisy/src/dev/oled_ssd130x.h ****                 transport_.SendCommand(0x60);
ARM GAS  C:\Users\VINCIU~1\AppData\Local\Temp\ccGpRbsb.s 			page 24


 155:../../libdaisy/src/dev/oled_ssd130x.h ****                 // Multiplex Ratio
 156:../../libdaisy/src/dev/oled_ssd130x.h ****                 transport_.SendCommand(0xA8);
 157:../../libdaisy/src/dev/oled_ssd130x.h ****                 transport_.SendCommand(0x0F);
 158:../../libdaisy/src/dev/oled_ssd130x.h ****                 // COM Pins
 159:../../libdaisy/src/dev/oled_ssd130x.h ****                 transport_.SendCommand(0xDA);
 160:../../libdaisy/src/dev/oled_ssd130x.h ****                 transport_.SendCommand(0x02);
 161:../../libdaisy/src/dev/oled_ssd130x.h ****                 break;
 162:../../libdaisy/src/dev/oled_ssd130x.h ****             case 32:
 163:../../libdaisy/src/dev/oled_ssd130x.h ****                 // Display Clock Divide Ratio
 164:../../libdaisy/src/dev/oled_ssd130x.h ****                 transport_.SendCommand(0xD5);
 165:../../libdaisy/src/dev/oled_ssd130x.h ****                 transport_.SendCommand(0x80);
 166:../../libdaisy/src/dev/oled_ssd130x.h ****                 // Multiplex Ratio
 167:../../libdaisy/src/dev/oled_ssd130x.h ****                 transport_.SendCommand(0xA8);
 168:../../libdaisy/src/dev/oled_ssd130x.h ****                 transport_.SendCommand(0x1F);
 169:../../libdaisy/src/dev/oled_ssd130x.h ****                 // COM Pins
 170:../../libdaisy/src/dev/oled_ssd130x.h ****                 transport_.SendCommand(0xDA);
 171:../../libdaisy/src/dev/oled_ssd130x.h ****                 if(width == 64)
 172:../../libdaisy/src/dev/oled_ssd130x.h ****                 {
 173:../../libdaisy/src/dev/oled_ssd130x.h ****                     transport_.SendCommand(0x12);
 174:../../libdaisy/src/dev/oled_ssd130x.h ****                 }
 175:../../libdaisy/src/dev/oled_ssd130x.h ****                 else
 176:../../libdaisy/src/dev/oled_ssd130x.h ****                 {
 177:../../libdaisy/src/dev/oled_ssd130x.h ****                     transport_.SendCommand(0x02);
 178:../../libdaisy/src/dev/oled_ssd130x.h ****                 }
 179:../../libdaisy/src/dev/oled_ssd130x.h **** 
 180:../../libdaisy/src/dev/oled_ssd130x.h ****                 break;
 181:../../libdaisy/src/dev/oled_ssd130x.h ****             case 48:
 182:../../libdaisy/src/dev/oled_ssd130x.h ****                 // Display Clock Divide Ratio
 183:../../libdaisy/src/dev/oled_ssd130x.h ****                 transport_.SendCommand(0xD5);
 184:../../libdaisy/src/dev/oled_ssd130x.h ****                 transport_.SendCommand(0x80);
 185:../../libdaisy/src/dev/oled_ssd130x.h ****                 // Multiplex Ratio
 186:../../libdaisy/src/dev/oled_ssd130x.h ****                 transport_.SendCommand(0xA8);
 187:../../libdaisy/src/dev/oled_ssd130x.h ****                 transport_.SendCommand(0x2F);
 188:../../libdaisy/src/dev/oled_ssd130x.h ****                 // COM Pins
 189:../../libdaisy/src/dev/oled_ssd130x.h ****                 transport_.SendCommand(0xDA);
 190:../../libdaisy/src/dev/oled_ssd130x.h ****                 transport_.SendCommand(0x12);
 191:../../libdaisy/src/dev/oled_ssd130x.h ****                 break;
 192:../../libdaisy/src/dev/oled_ssd130x.h ****             default: // 128
 193:../../libdaisy/src/dev/oled_ssd130x.h ****                 // Display Clock Divide Ratio
 194:../../libdaisy/src/dev/oled_ssd130x.h ****                 transport_.SendCommand(0xD5);
 195:../../libdaisy/src/dev/oled_ssd130x.h ****                 transport_.SendCommand(0x80);
 196:../../libdaisy/src/dev/oled_ssd130x.h ****                 // Multiplex Ratio
 197:../../libdaisy/src/dev/oled_ssd130x.h ****                 transport_.SendCommand(0xA8);
 198:../../libdaisy/src/dev/oled_ssd130x.h ****                 transport_.SendCommand(0x3F);
 199:../../libdaisy/src/dev/oled_ssd130x.h ****                 // COM Pins
 200:../../libdaisy/src/dev/oled_ssd130x.h ****                 transport_.SendCommand(0xDA);
 201:../../libdaisy/src/dev/oled_ssd130x.h ****                 transport_.SendCommand(0x12);
 202:../../libdaisy/src/dev/oled_ssd130x.h ****                 break;
 203:../../libdaisy/src/dev/oled_ssd130x.h ****         }
 204:../../libdaisy/src/dev/oled_ssd130x.h **** 
 205:../../libdaisy/src/dev/oled_ssd130x.h ****         // Display Offset
 206:../../libdaisy/src/dev/oled_ssd130x.h ****         transport_.SendCommand(0xD3);
 207:../../libdaisy/src/dev/oled_ssd130x.h ****         transport_.SendCommand(0x00);
 208:../../libdaisy/src/dev/oled_ssd130x.h ****         // Start Line Address
 209:../../libdaisy/src/dev/oled_ssd130x.h ****         transport_.SendCommand(0x40);
 210:../../libdaisy/src/dev/oled_ssd130x.h ****         // Normal Display
 211:../../libdaisy/src/dev/oled_ssd130x.h ****         transport_.SendCommand(0xA6);
ARM GAS  C:\Users\VINCIU~1\AppData\Local\Temp\ccGpRbsb.s 			page 25


 212:../../libdaisy/src/dev/oled_ssd130x.h ****         // All On Resume
 213:../../libdaisy/src/dev/oled_ssd130x.h ****         transport_.SendCommand(0xA4);
 214:../../libdaisy/src/dev/oled_ssd130x.h ****         // Charge Pump
 215:../../libdaisy/src/dev/oled_ssd130x.h ****         transport_.SendCommand(0x8D);
 216:../../libdaisy/src/dev/oled_ssd130x.h ****         transport_.SendCommand(0x14);
 217:../../libdaisy/src/dev/oled_ssd130x.h ****         // Set Segment Remap
 218:../../libdaisy/src/dev/oled_ssd130x.h ****         transport_.SendCommand(0xA1);
 219:../../libdaisy/src/dev/oled_ssd130x.h ****         // COM Output Scan Direction
 220:../../libdaisy/src/dev/oled_ssd130x.h ****         transport_.SendCommand(0xC8);
 221:../../libdaisy/src/dev/oled_ssd130x.h ****         // Contrast Control
 222:../../libdaisy/src/dev/oled_ssd130x.h ****         transport_.SendCommand(0x81);
 223:../../libdaisy/src/dev/oled_ssd130x.h ****         transport_.SendCommand(0x8F);
 224:../../libdaisy/src/dev/oled_ssd130x.h ****         // Pre Charge
 225:../../libdaisy/src/dev/oled_ssd130x.h ****         transport_.SendCommand(0xD9);
 226:../../libdaisy/src/dev/oled_ssd130x.h ****         transport_.SendCommand(0x25);
 227:../../libdaisy/src/dev/oled_ssd130x.h ****         // VCOM Detect
 228:../../libdaisy/src/dev/oled_ssd130x.h ****         transport_.SendCommand(0xDB);
 229:../../libdaisy/src/dev/oled_ssd130x.h ****         transport_.SendCommand(0x34);
 230:../../libdaisy/src/dev/oled_ssd130x.h **** 
 231:../../libdaisy/src/dev/oled_ssd130x.h **** 
 232:../../libdaisy/src/dev/oled_ssd130x.h ****         // Display On
 233:../../libdaisy/src/dev/oled_ssd130x.h ****         transport_.SendCommand(0xAF); //--turn on oled panel
 234:../../libdaisy/src/dev/oled_ssd130x.h ****     };
 235:../../libdaisy/src/dev/oled_ssd130x.h **** 
 236:../../libdaisy/src/dev/oled_ssd130x.h ****     size_t Width() const { return width; };
 237:../../libdaisy/src/dev/oled_ssd130x.h ****     size_t Height() const { return height; };
 238:../../libdaisy/src/dev/oled_ssd130x.h **** 
 239:../../libdaisy/src/dev/oled_ssd130x.h ****     void DrawPixel(uint_fast8_t x, uint_fast8_t y, bool on)
 240:../../libdaisy/src/dev/oled_ssd130x.h ****     {
 241:../../libdaisy/src/dev/oled_ssd130x.h ****         if(x >= width || y >= height)
 242:../../libdaisy/src/dev/oled_ssd130x.h ****             return;
 243:../../libdaisy/src/dev/oled_ssd130x.h ****         if(on)
 244:../../libdaisy/src/dev/oled_ssd130x.h ****             buffer_[x + (y / 8) * width] |= (1 << (y % 8));
 245:../../libdaisy/src/dev/oled_ssd130x.h ****         else
 246:../../libdaisy/src/dev/oled_ssd130x.h ****             buffer_[x + (y / 8) * width] &= ~(1 << (y % 8));
 491              		.loc 6 246 55 is_stmt 0 view .LVU132
 492 00a0 04F00703 		and	r3, r4, #7
 493              		.loc 6 246 49 view .LVU133
 494 00a4 4FF0010E 		mov	lr, #1
 495              		.loc 6 246 28 view .LVU134
 496 00a8 E208     		lsrs	r2, r4, #3
 497 00aa 5946     		mov	r1, fp
 498              		.loc 6 246 49 view .LVU135
 499 00ac 0EFA03FE 		lsl	lr, lr, r3
 500 00b0 0BF11403 		add	r3, fp, #20
 501              		.loc 6 246 42 view .LVU136
 502 00b4 4FFA8EFE 		sxtb	lr, lr
 503 00b8 03EBC212 		add	r2, r3, r2, lsl #7
 504              	.LBE256:
 505              	.LBE255:
 506              	.LBE254:
 507              	.LBE253:
 508              	.LBE252:
 376:../../libdaisy/src/hid/disp/display.h ****             {
 509              		.loc 5 376 19 view .LVU137
 510 00bc 0023     		movs	r3, #0
 511              	.LBB274:
ARM GAS  C:\Users\VINCIU~1\AppData\Local\Temp\ccGpRbsb.s 			page 26


 512              	.LBB269:
 513              	.LBB264:
 514              	.LBB260:
 515              	.LBB257:
 516              		.loc 6 246 42 view .LVU138
 517 00be 6FEA0E08 		mvn	r8, lr
 518 00c2 3244     		add	r2, r2, r6
 519 00c4 0DE0     		b	.L40
 520              	.LVL23:
 521              	.L64:
 522              		.loc 6 246 42 view .LVU139
 523              	.LBE257:
 524              	.LBE260:
 525              	.LBE264:
 526              	.LBE269:
 527              	.LBE274:
 528              	.LBB275:
 529              	.LBI275:
  28:../../libdaisy/src/hid/disp/oled_display.h **** 
  29:../../libdaisy/src/hid/disp/oled_display.h ****     /** 
  30:../../libdaisy/src/hid/disp/oled_display.h ****     Fills the entire display with either on/off.
  31:../../libdaisy/src/hid/disp/oled_display.h ****     \param on Sets on or off.
  32:../../libdaisy/src/hid/disp/oled_display.h ****     */
  33:../../libdaisy/src/hid/disp/oled_display.h ****     void Fill(bool on) override { driver_.Fill(on); }
  34:../../libdaisy/src/hid/disp/oled_display.h **** 
  35:../../libdaisy/src/hid/disp/oled_display.h ****     /**
  36:../../libdaisy/src/hid/disp/oled_display.h ****     Sets the pixel at the specified coordinate to be on/off.
  37:../../libdaisy/src/hid/disp/oled_display.h ****     \param x   x Coordinate
  38:../../libdaisy/src/hid/disp/oled_display.h ****     \param y   y coordinate
  39:../../libdaisy/src/hid/disp/oled_display.h ****     \param on  on or off
  40:../../libdaisy/src/hid/disp/oled_display.h ****     */
  41:../../libdaisy/src/hid/disp/oled_display.h ****     void DrawPixel(uint_fast8_t x, uint_fast8_t y, bool on) override
 530              		.loc 1 41 10 is_stmt 1 view .LVU140
 531              	.LBB276:
 532              	.LBI276:
 239:../../libdaisy/src/dev/oled_ssd130x.h ****     {
 533              		.loc 6 239 10 view .LVU141
 534              	.LBB277:
 241:../../libdaisy/src/dev/oled_ssd130x.h ****             return;
 535              		.loc 6 241 9 is_stmt 0 view .LVU142
 536 00c6 7F29     		cmp	r1, #127
 537 00c8 06D8     		bhi	.L36
 538 00ca 3F2C     		cmp	r4, #63
 539 00cc 04D8     		bhi	.L36
 244:../../libdaisy/src/dev/oled_ssd130x.h ****         else
 540              		.loc 6 244 42 view .LVU143
 541 00ce 1078     		ldrb	r0, [r2]	@ zero_extendqisi2
 243:../../libdaisy/src/dev/oled_ssd130x.h ****             buffer_[x + (y / 8) * width] |= (1 << (y % 8));
 542              		.loc 6 243 9 view .LVU144
 543 00d0 97B1     		cbz	r7, .L38
 544              	.L61:
 243:../../libdaisy/src/dev/oled_ssd130x.h ****             buffer_[x + (y / 8) * width] |= (1 << (y % 8));
 545              		.loc 6 243 9 view .LVU145
 546              	.LBE277:
 547              	.LBE276:
 548              	.LBE275:
 549              	.LBB278:
ARM GAS  C:\Users\VINCIU~1\AppData\Local\Temp\ccGpRbsb.s 			page 27


 550              	.LBB270:
 551              	.LBB265:
 244:../../libdaisy/src/dev/oled_ssd130x.h ****         else
 552              		.loc 6 244 42 view .LVU146
 553 00d2 4EEA0000 		orr	r0, lr, r0
 554 00d6 1070     		strb	r0, [r2]
 555              	.L36:
 556              	.LBE265:
 557              	.LBE270:
 558              	.LBE278:
 376:../../libdaisy/src/hid/disp/display.h ****             {
 559              		.loc 5 376 13 is_stmt 1 view .LVU147
 560 00d8 0133     		adds	r3, r3, #1
 561              	.LVL24:
 376:../../libdaisy/src/hid/disp/display.h ****             {
 562              		.loc 5 376 26 view .LVU148
 563 00da 0132     		adds	r2, r2, #1
 564 00dc 0131     		adds	r1, r1, #1
 565 00de AB42     		cmp	r3, r5
 566 00e0 13D0     		beq	.L39
 567              	.LVL25:
 568              	.L40:
 378:../../libdaisy/src/hid/disp/display.h ****                 {
 569              		.loc 5 378 23 is_stmt 0 view .LVU149
 570 00e2 0CFA03F0 		lsl	r0, ip, r3
 378:../../libdaisy/src/hid/disp/display.h ****                 {
 571              		.loc 5 378 17 view .LVU150
 572 00e6 0004     		lsls	r0, r0, #16
 573 00e8 EDD4     		bmi	.L64
 574              	.LVL26:
 575              	.LBB279:
 576              	.LBI252:
 577              		.loc 1 41 10 is_stmt 1 view .LVU151
 578              	.LBB271:
 579              	.LBI253:
 239:../../libdaisy/src/dev/oled_ssd130x.h ****     {
 580              		.loc 6 239 10 view .LVU152
 581              	.LBB266:
 241:../../libdaisy/src/dev/oled_ssd130x.h ****             return;
 582              		.loc 6 241 9 is_stmt 0 view .LVU153
 583 00ea 7F29     		cmp	r1, #127
 584 00ec F4D8     		bhi	.L36
 585 00ee 3F2C     		cmp	r4, #63
 586 00f0 F2D8     		bhi	.L36
 244:../../libdaisy/src/dev/oled_ssd130x.h ****         else
 587              		.loc 6 244 42 view .LVU154
 588 00f2 1078     		ldrb	r0, [r2]	@ zero_extendqisi2
 243:../../libdaisy/src/dev/oled_ssd130x.h ****             buffer_[x + (y / 8) * width] |= (1 << (y % 8));
 589              		.loc 6 243 9 view .LVU155
 590 00f4 002F     		cmp	r7, #0
 591 00f6 ECD0     		beq	.L61
 592              	.L38:
 593              	.LVL27:
 594              	.LBB261:
 595              	.LBI255:
 239:../../libdaisy/src/dev/oled_ssd130x.h ****     {
 596              		.loc 6 239 10 is_stmt 1 view .LVU156
ARM GAS  C:\Users\VINCIU~1\AppData\Local\Temp\ccGpRbsb.s 			page 28


 239:../../libdaisy/src/dev/oled_ssd130x.h ****     {
 597              		.loc 6 239 10 is_stmt 0 view .LVU157
 598              	.LBE261:
 599              	.LBE266:
 600              	.LBE271:
 601              	.LBE279:
 376:../../libdaisy/src/hid/disp/display.h ****             {
 602              		.loc 5 376 13 view .LVU158
 603 00f8 0133     		adds	r3, r3, #1
 604              	.LVL28:
 605              	.LBB280:
 606              	.LBB272:
 607              	.LBB267:
 608              	.LBB262:
 609              	.LBB258:
 610              		.loc 6 246 42 view .LVU159
 611 00fa 08EA0000 		and	r0, r8, r0
 612              	.LBE258:
 613              	.LBE262:
 614              	.LBE267:
 615              	.LBE272:
 616              	.LBE280:
 376:../../libdaisy/src/hid/disp/display.h ****             {
 617              		.loc 5 376 26 view .LVU160
 618 00fe 0132     		adds	r2, r2, #1
 619 0100 0131     		adds	r1, r1, #1
 620 0102 AB42     		cmp	r3, r5
 621              	.LBB281:
 622              	.LBB273:
 623              	.LBB268:
 624              	.LBB263:
 625              	.LBB259:
 626              		.loc 6 246 42 view .LVU161
 627 0104 02F8010C 		strb	r0, [r2, #-1]
 628              		.loc 6 246 42 view .LVU162
 629              	.LBE259:
 630              	.LBE263:
 631              	.LBE268:
 632              	.LBE273:
 633              	.LBE281:
 376:../../libdaisy/src/hid/disp/display.h ****             {
 634              		.loc 5 376 13 is_stmt 1 view .LVU163
 635              	.LVL29:
 376:../../libdaisy/src/hid/disp/display.h ****             {
 636              		.loc 5 376 26 view .LVU164
 637 0108 EBD1     		bne	.L40
 638              	.LVL30:
 639              	.L39:
 373:../../libdaisy/src/hid/disp/display.h ****         {
 640              		.loc 5 373 9 view .LVU165
 373:../../libdaisy/src/hid/disp/display.h ****         {
 641              		.loc 5 373 22 view .LVU166
 642 010a D145     		cmp	r9, r10
 643 010c 04F10104 		add	r4, r4, #1
 644 0110 C3D1     		bne	.L34
 645 0112 DDF81080 		ldr	r8, [sp, #16]
 646              	.LVL31:
ARM GAS  C:\Users\VINCIU~1\AppData\Local\Temp\ccGpRbsb.s 			page 29


 647              	.L33:
 648              	.LBB282:
 649              	.LBB283:
 133:../../libdaisy/src/hid/disp/display.h ****         currentY_ = (y >= Height()) ? Height() - 1 : y;
 650              		.loc 5 133 33 is_stmt 0 view .LVU167
 651 0116 3268     		ldr	r2, [r6]
 652              	.LBE283:
 653              	.LBE282:
 394:../../libdaisy/src/hid/disp/display.h **** 
 654              		.loc 5 394 18 view .LVU168
 655 0118 0BEB0504 		add	r4, fp, r5
 656 011c 2649     		ldr	r1, .L69
 657              	.LBB288:
 658              	.LBB284:
 133:../../libdaisy/src/hid/disp/display.h ****         currentY_ = (y >= Height()) ? Height() - 1 : y;
 659              		.loc 5 133 33 view .LVU169
 660 011e D368     		ldr	r3, [r2, #12]
 661              	.LBE284:
 662              	.LBE288:
 394:../../libdaisy/src/hid/disp/display.h **** 
 663              		.loc 5 394 18 view .LVU170
 664 0120 A4B2     		uxth	r4, r4
 665              	.LVL32:
 666              	.LBB289:
 667              	.LBI282:
 131:../../libdaisy/src/hid/disp/display.h ****     {
 668              		.loc 5 131 10 is_stmt 1 view .LVU171
 669              	.LBB285:
 133:../../libdaisy/src/hid/disp/display.h ****         currentY_ = (y >= Height()) ? Height() - 1 : y;
 670              		.loc 5 133 9 view .LVU172
 671 0122 8B42     		cmp	r3, r1
 672 0124 34D1     		bne	.L65
 133:../../libdaisy/src/hid/disp/display.h ****         currentY_ = (y >= Height()) ? Height() - 1 : y;
 673              		.loc 5 133 33 is_stmt 0 view .LVU173
 674 0126 8020     		movs	r0, #128
 675              	.L41:
 133:../../libdaisy/src/hid/disp/display.h ****         currentY_ = (y >= Height()) ? Height() - 1 : y;
 676              		.loc 5 133 19 view .LVU174
 677 0128 8442     		cmp	r4, r0
 678 012a 04D3     		bcc	.L42
 133:../../libdaisy/src/hid/disp/display.h ****         currentY_ = (y >= Height()) ? Height() - 1 : y;
 679              		.loc 5 133 44 view .LVU175
 680 012c D368     		ldr	r3, [r2, #12]
 681 012e 2249     		ldr	r1, .L69
 682 0130 8B42     		cmp	r3, r1
 683 0132 3AD1     		bne	.L66
 684 0134 7F24     		movs	r4, #127
 685              	.LVL33:
 686              	.L42:
 134:../../libdaisy/src/hid/disp/display.h ****     }
 687              		.loc 5 134 34 view .LVU176
 688 0136 9368     		ldr	r3, [r2, #8]
 689 0138 204A     		ldr	r2, .L69+4
 133:../../libdaisy/src/hid/disp/display.h ****         currentY_ = (y >= Height()) ? Height() - 1 : y;
 690              		.loc 5 133 19 view .LVU177
 691 013a B480     		strh	r4, [r6, #4]	@ movhi
 134:../../libdaisy/src/hid/disp/display.h ****     }
ARM GAS  C:\Users\VINCIU~1\AppData\Local\Temp\ccGpRbsb.s 			page 30


 692              		.loc 5 134 9 is_stmt 1 view .LVU178
 693 013c 9342     		cmp	r3, r2
 694 013e 24D1     		bne	.L67
 134:../../libdaisy/src/hid/disp/display.h ****     }
 695              		.loc 5 134 34 is_stmt 0 view .LVU179
 696 0140 4020     		movs	r0, #64
 697              	.L44:
 134:../../libdaisy/src/hid/disp/display.h ****     }
 698              		.loc 5 134 19 view .LVU180
 699 0142 029B     		ldr	r3, [sp, #8]
 700 0144 8342     		cmp	r3, r0
 701 0146 06D3     		bcc	.L45
 134:../../libdaisy/src/hid/disp/display.h ****     }
 702              		.loc 5 134 46 view .LVU181
 703 0148 3368     		ldr	r3, [r6]
 704 014a 1C4A     		ldr	r2, .L69+4
 705 014c 9B68     		ldr	r3, [r3, #8]
 706 014e 9342     		cmp	r3, r2
 707 0150 25D1     		bne	.L68
 708 0152 3F23     		movs	r3, #63
 709 0154 0293     		str	r3, [sp, #8]
 710              	.LVL34:
 711              	.L45:
 134:../../libdaisy/src/hid/disp/display.h ****     }
 712              		.loc 5 134 19 view .LVU182
 713 0156 029B     		ldr	r3, [sp, #8]
 714 0158 F380     		strh	r3, [r6, #6]	@ movhi
 715              	.LVL35:
 716              	.L27:
 134:../../libdaisy/src/hid/disp/display.h ****     }
 717              		.loc 5 134 19 view .LVU183
 718              	.LBE285:
 719              	.LBE289:
 720              	.LBE251:
 721              	.LBE250:
 404:../../libdaisy/src/hid/disp/display.h ****         {
 405:../../libdaisy/src/hid/disp/display.h ****             if(((ChildType*)(this))->ChildType::WriteChar(*str, font, on)
 406:../../libdaisy/src/hid/disp/display.h ****                != *str)
 722              		.loc 5 406 16 view .LVU184
 723 015a 019B     		ldr	r3, [sp, #4]
 724 015c 1878     		ldrb	r0, [r3]	@ zero_extendqisi2
 405:../../libdaisy/src/hid/disp/display.h ****                != *str)
 725              		.loc 5 405 13 view .LVU185
 726 015e 4045     		cmp	r0, r8
 727 0160 07D1     		bne	.L25
 728              	.LVL36:
 403:../../libdaisy/src/hid/disp/display.h ****         {
 729              		.loc 5 403 9 is_stmt 1 view .LVU186
 730 0162 13F8018F 		ldrb	r8, [r3, #1]!	@ zero_extendqisi2
 731              	.LVL37:
 403:../../libdaisy/src/hid/disp/display.h ****         {
 732              		.loc 5 403 9 is_stmt 0 view .LVU187
 733 0166 0193     		str	r3, [sp, #4]
 734 0168 B8F1000F 		cmp	r8, #0
 735 016c 7FF460AF 		bne	.L48
 736              	.LVL38:
 737              	.L47:
ARM GAS  C:\Users\VINCIU~1\AppData\Local\Temp\ccGpRbsb.s 			page 31


 738              	.LBB294:
 739              	.LBB292:
 362:../../libdaisy/src/hid/disp/display.h **** 
 740              		.loc 5 362 20 view .LVU188
 741 0170 0020     		movs	r0, #0
 742              	.L25:
 743              	.LBE292:
 744              	.LBE294:
 407:../../libdaisy/src/hid/disp/display.h ****             {
 408:../../libdaisy/src/hid/disp/display.h ****                 // Char could not be written
 409:../../libdaisy/src/hid/disp/display.h ****                 return *str;
 410:../../libdaisy/src/hid/disp/display.h ****             }
 411:../../libdaisy/src/hid/disp/display.h **** 
 412:../../libdaisy/src/hid/disp/display.h ****             // Next char
 413:../../libdaisy/src/hid/disp/display.h ****             str++;
 414:../../libdaisy/src/hid/disp/display.h ****         }
 415:../../libdaisy/src/hid/disp/display.h **** 
 416:../../libdaisy/src/hid/disp/display.h ****         // Everything ok
 417:../../libdaisy/src/hid/disp/display.h ****         return *str;
 418:../../libdaisy/src/hid/disp/display.h ****     }
 745              		.loc 5 418 5 view .LVU189
 746 0172 09B0     		add	sp, sp, #36
 747              		.cfi_remember_state
 748              		.cfi_def_cfa_offset 36
 749              		@ sp needed
 750 0174 BDE8F08F 		pop	{r4, r5, r6, r7, r8, r9, r10, fp, pc}
 751              	.LVL39:
 752              	.L29:
 753              		.cfi_restore_state
 754              	.LBB295:
 755              	.LBB293:
 362:../../libdaisy/src/hid/disp/display.h **** 
 756              		.loc 5 362 20 view .LVU190
 757 0178 4FF00008 		mov	r8, #0
 758              	.LVL40:
 362:../../libdaisy/src/hid/disp/display.h **** 
 759              		.loc 5 362 20 view .LVU191
 760 017c EDE7     		b	.L27
 761              	.LVL41:
 762              	.L62:
 365:../../libdaisy/src/hid/disp/display.h ****            || Height() < (currentY_ + font.FontHeight))
 763              		.loc 5 365 17 view .LVU192
 764 017e 3046     		mov	r0, r6
 765 0180 9847     		blx	r3
 766              	.LVL42:
 767 0182 62E7     		b	.L28
 768              	.L63:
 366:../../libdaisy/src/hid/disp/display.h ****         {
 769              		.loc 5 366 21 view .LVU193
 770 0184 3046     		mov	r0, r6
 771 0186 9847     		blx	r3
 772              	.LVL43:
 773 0188 6BE7     		b	.L30
 774              	.LVL44:
 775              	.L67:
 776              	.LBB290:
 777              	.LBB286:
ARM GAS  C:\Users\VINCIU~1\AppData\Local\Temp\ccGpRbsb.s 			page 32


 134:../../libdaisy/src/hid/disp/display.h ****     }
 778              		.loc 5 134 33 view .LVU194
 779 018a 3046     		mov	r0, r6
 780 018c 9847     		blx	r3
 781              	.LVL45:
 782 018e D8E7     		b	.L44
 783              	.LVL46:
 784              	.L65:
 133:../../libdaisy/src/hid/disp/display.h ****         currentY_ = (y >= Height()) ? Height() - 1 : y;
 785              		.loc 5 133 32 view .LVU195
 786 0190 3046     		mov	r0, r6
 787 0192 9847     		blx	r3
 788              	.LVL47:
 133:../../libdaisy/src/hid/disp/display.h ****         currentY_ = (y >= Height()) ? Height() - 1 : y;
 789              		.loc 5 133 44 view .LVU196
 790 0194 3268     		ldr	r2, [r6]
 791 0196 C7E7     		b	.L41
 792              	.LVL48:
 793              	.L31:
 133:../../libdaisy/src/hid/disp/display.h ****         currentY_ = (y >= Height()) ? Height() - 1 : y;
 794              		.loc 5 133 44 view .LVU197
 795              	.LBE286:
 796              	.LBE290:
 394:../../libdaisy/src/hid/disp/display.h **** 
 797              		.loc 5 394 19 view .LVU198
 798 0198 B6F804B0 		ldrh	fp, [r6, #4]
 799 019c BBE7     		b	.L33
 800              	.LVL49:
 801              	.L68:
 802              	.LBB291:
 803              	.LBB287:
 134:../../libdaisy/src/hid/disp/display.h ****     }
 804              		.loc 5 134 45 view .LVU199
 805 019e 3046     		mov	r0, r6
 806 01a0 9847     		blx	r3
 807              	.LVL50:
 134:../../libdaisy/src/hid/disp/display.h ****     }
 808              		.loc 5 134 19 view .LVU200
 809 01a2 0138     		subs	r0, r0, #1
 810 01a4 83B2     		uxth	r3, r0
 811 01a6 0293     		str	r3, [sp, #8]
 812              	.LVL51:
 134:../../libdaisy/src/hid/disp/display.h ****     }
 813              		.loc 5 134 19 view .LVU201
 814 01a8 D5E7     		b	.L45
 815              	.LVL52:
 816              	.L66:
 133:../../libdaisy/src/hid/disp/display.h ****         currentY_ = (y >= Height()) ? Height() - 1 : y;
 817              		.loc 5 133 43 view .LVU202
 818 01aa 3046     		mov	r0, r6
 819 01ac 9847     		blx	r3
 820              	.LVL53:
 133:../../libdaisy/src/hid/disp/display.h ****         currentY_ = (y >= Height()) ? Height() - 1 : y;
 821              		.loc 5 133 19 view .LVU203
 822 01ae 0138     		subs	r0, r0, #1
 134:../../libdaisy/src/hid/disp/display.h ****     }
 823              		.loc 5 134 34 view .LVU204
ARM GAS  C:\Users\VINCIU~1\AppData\Local\Temp\ccGpRbsb.s 			page 33


 824 01b0 3268     		ldr	r2, [r6]
 133:../../libdaisy/src/hid/disp/display.h ****         currentY_ = (y >= Height()) ? Height() - 1 : y;
 825              		.loc 5 133 19 view .LVU205
 826 01b2 84B2     		uxth	r4, r0
 827              	.LVL54:
 133:../../libdaisy/src/hid/disp/display.h ****         currentY_ = (y >= Height()) ? Height() - 1 : y;
 828              		.loc 5 133 19 view .LVU206
 829 01b4 BFE7     		b	.L42
 830              	.L70:
 831 01b6 00BF     		.align	2
 832              	.L69:
 833 01b8 00000000 		.word	_ZNK5daisy11OledDisplayINS_13SSD130xDriverILj128ELj64ENS_24SSD130x4WireSpiTransportEEEE5Widt
 834 01bc 00000000 		.word	_ZNK5daisy11OledDisplayINS_13SSD130xDriverILj128ELj64ENS_24SSD130x4WireSpiTransportEEEE6Heig
 835              	.LBE287:
 836              	.LBE291:
 837              	.LBE293:
 838              	.LBE295:
 839              		.cfi_endproc
 840              	.LFE4336:
 842              		.section	.text._ZN5daisy25OneBitGraphicsDisplayImplINS_11OledDisplayINS_13SSD130xDriverILj128ELj64
 843              		.align	1
 844              		.p2align 2,,3
 845              		.weak	_ZN5daisy25OneBitGraphicsDisplayImplINS_11OledDisplayINS_13SSD130xDriverILj128ELj64ENS_24SSD
 846              		.syntax unified
 847              		.thumb
 848              		.thumb_func
 849              		.fpu fpv5-d16
 851              	_ZN5daisy25OneBitGraphicsDisplayImplINS_11OledDisplayINS_13SSD130xDriverILj128ELj64ENS_24SSD130x4Wi
 852              	.LVL55:
 853              	.LFB4340:
 217:../../libdaisy/src/hid/disp/display.h ****                   uint_fast8_t y1,
 854              		.loc 5 217 10 is_stmt 1 view -0
 855              		.cfi_startproc
 856              		@ args = 12, pretend = 0, frame = 24
 857              		@ frame_needed = 0, uses_anonymous_args = 0
 217:../../libdaisy/src/hid/disp/display.h ****                   uint_fast8_t y1,
 858              		.loc 5 217 10 is_stmt 0 view .LVU208
 859 0000 2DE9F04F 		push	{r4, r5, r6, r7, r8, r9, r10, fp, lr}
 860              		.cfi_def_cfa_offset 36
 861              		.cfi_offset 4, -36
 862              		.cfi_offset 5, -32
 863              		.cfi_offset 6, -28
 864              		.cfi_offset 7, -24
 865              		.cfi_offset 8, -20
 866              		.cfi_offset 9, -16
 867              		.cfi_offset 10, -12
 868              		.cfi_offset 11, -8
 869              		.cfi_offset 14, -4
 870 0004 87B0     		sub	sp, sp, #28
 871              		.cfi_def_cfa_offset 64
 217:../../libdaisy/src/hid/disp/display.h ****                   uint_fast8_t y1,
 872              		.loc 5 217 10 view .LVU209
 873 0006 9DF84850 		ldrb	r5, [sp, #72]	@ zero_extendqisi2
 874 000a 109C     		ldr	r4, [sp, #64]
 875 000c 2E46     		mov	r6, r5
 876 000e 0195     		str	r5, [sp, #4]
 877 0010 9DF84450 		ldrb	r5, [sp, #68]	@ zero_extendqisi2
ARM GAS  C:\Users\VINCIU~1\AppData\Local\Temp\ccGpRbsb.s 			page 34


 878              	.LBB367:
 224:../../libdaisy/src/hid/disp/display.h ****         {
 879              		.loc 5 224 9 view .LVU210
 880 0014 9EB3     		cbz	r6, .L72
 881              	.LVL56:
 224:../../libdaisy/src/hid/disp/display.h ****         {
 882              		.loc 5 224 9 view .LVU211
 883              	.LBE367:
 884              	.LBB489:
 885              	.LBB490:
 226:../../libdaisy/src/hid/disp/display.h ****             {
 886              		.loc 5 226 40 is_stmt 1 view .LVU212
 887 0016 9942     		cmp	r1, r3
 888 0018 2ED8     		bhi	.L71
 889 001a 9946     		mov	r9, r3
 890              	.LVL57:
 891              	.L75:
 892              	.LBB491:
 228:../../libdaisy/src/hid/disp/display.h ****                 {
 893              		.loc 5 228 44 view .LVU213
 894 001c A242     		cmp	r2, r4
 895 001e 28D8     		bhi	.L78
 896              	.LBB492:
 897              	.LBB493:
 898              	.LBB494:
 241:../../libdaisy/src/dev/oled_ssd130x.h ****             return;
 899              		.loc 6 241 14 is_stmt 0 view .LVU214
 900 0020 7F29     		cmp	r1, #127
 901 0022 1646     		mov	r6, r2
 902 0024 94BF     		ite	ls
 903 0026 0023     		movls	r3, #0
 904 0028 0123     		movhi	r3, #1
 905 002a 08E0     		b	.L79
 906              	.LVL58:
 907              	.L162:
 244:../../libdaisy/src/dev/oled_ssd130x.h ****         else
 908              		.loc 6 244 42 view .LVU215
 909 002c 9CF81480 		ldrb	r8, [ip, #20]	@ zero_extendqisi2
 910 0030 4EEA080E 		orr	lr, lr, r8
 911 0034 8CF814E0 		strb	lr, [ip, #20]
 912              	.LVL59:
 913              	.L76:
 244:../../libdaisy/src/dev/oled_ssd130x.h ****         else
 914              		.loc 6 244 42 view .LVU216
 915              	.LBE494:
 916              	.LBE493:
 917              	.LBE492:
 228:../../libdaisy/src/hid/disp/display.h ****                 {
 918              		.loc 5 228 17 is_stmt 1 view .LVU217
 919 0038 0136     		adds	r6, r6, #1
 920              	.LVL60:
 228:../../libdaisy/src/hid/disp/display.h ****                 {
 921              		.loc 5 228 44 view .LVU218
 922 003a B442     		cmp	r4, r6
 923 003c 19D3     		bcc	.L78
 924              	.L79:
 925              	.LVL61:
ARM GAS  C:\Users\VINCIU~1\AppData\Local\Temp\ccGpRbsb.s 			page 35


 926              	.LBB508:
 927              	.LBI492:
 928              		.loc 1 41 10 view .LVU219
 929              	.LBB505:
 930              	.LBI493:
 239:../../libdaisy/src/dev/oled_ssd130x.h ****     {
 931              		.loc 6 239 10 view .LVU220
 932              	.LBB502:
 241:../../libdaisy/src/dev/oled_ssd130x.h ****             return;
 933              		.loc 6 241 9 is_stmt 0 view .LVU221
 934 003e 3F2E     		cmp	r6, #63
 935 0040 FAD8     		bhi	.L76
 241:../../libdaisy/src/dev/oled_ssd130x.h ****             return;
 936              		.loc 6 241 9 view .LVU222
 937 0042 002B     		cmp	r3, #0
 938 0044 F8D1     		bne	.L76
 939              	.LVL62:
 940              	.LBB495:
 941              	.LBI495:
 239:../../libdaisy/src/dev/oled_ssd130x.h ****     {
 942              		.loc 6 239 10 is_stmt 1 view .LVU223
 239:../../libdaisy/src/dev/oled_ssd130x.h ****     {
 943              		.loc 6 239 10 is_stmt 0 view .LVU224
 944              	.LBE495:
 244:../../libdaisy/src/dev/oled_ssd130x.h ****         else
 945              		.loc 6 244 28 view .LVU225
 946 0046 4FEAD60C 		lsr	ip, r6, #3
 244:../../libdaisy/src/dev/oled_ssd130x.h ****         else
 947              		.loc 6 244 54 view .LVU226
 948 004a 06F0070E 		and	lr, r6, #7
 244:../../libdaisy/src/dev/oled_ssd130x.h ****         else
 949              		.loc 6 244 48 view .LVU227
 950 004e 4FF00108 		mov	r8, #1
 244:../../libdaisy/src/dev/oled_ssd130x.h ****         else
 951              		.loc 6 244 42 view .LVU228
 952 0052 01EBCC1C 		add	ip, r1, ip, lsl #7
 244:../../libdaisy/src/dev/oled_ssd130x.h ****         else
 953              		.loc 6 244 48 view .LVU229
 954 0056 08FA0EFE 		lsl	lr, r8, lr
 244:../../libdaisy/src/dev/oled_ssd130x.h ****         else
 955              		.loc 6 244 42 view .LVU230
 956 005a 8444     		add	ip, ip, r0
 243:../../libdaisy/src/dev/oled_ssd130x.h ****             buffer_[x + (y / 8) * width] |= (1 << (y % 8));
 957              		.loc 6 243 9 view .LVU231
 958 005c 002D     		cmp	r5, #0
 959 005e E5D1     		bne	.L162
 960              	.LBB499:
 961              	.LBB496:
 962              		.loc 6 246 42 view .LVU232
 963 0060 9CF814B0 		ldrb	fp, [ip, #20]	@ zero_extendqisi2
 964              	.LBE496:
 965              	.LBE499:
 966              	.LBE502:
 967              	.LBE505:
 968              	.LBE508:
 228:../../libdaisy/src/hid/disp/display.h ****                 {
 969              		.loc 5 228 17 view .LVU233
ARM GAS  C:\Users\VINCIU~1\AppData\Local\Temp\ccGpRbsb.s 			page 36


 970 0064 0136     		adds	r6, r6, #1
 971              	.LVL63:
 972              	.LBB509:
 973              	.LBB506:
 974              	.LBB503:
 975              	.LBB500:
 976              	.LBB497:
 977              		.loc 6 246 42 view .LVU234
 978 0066 2BEA0E0A 		bic	r10, fp, lr
 979              	.LBE497:
 980              	.LBE500:
 981              	.LBE503:
 982              	.LBE506:
 983              	.LBE509:
 228:../../libdaisy/src/hid/disp/display.h ****                 {
 984              		.loc 5 228 44 view .LVU235
 985 006a B442     		cmp	r4, r6
 986              	.LBB510:
 987              	.LBB507:
 988              	.LBB504:
 989              	.LBB501:
 990              	.LBB498:
 991              		.loc 6 246 42 view .LVU236
 992 006c 8CF814A0 		strb	r10, [ip, #20]
 993              	.LVL64:
 994              		.loc 6 246 42 view .LVU237
 995              	.LBE498:
 996              	.LBE501:
 997              	.LBE504:
 998              	.LBE507:
 999              	.LBE510:
 228:../../libdaisy/src/hid/disp/display.h ****                 {
 1000              		.loc 5 228 17 is_stmt 1 view .LVU238
 228:../../libdaisy/src/hid/disp/display.h ****                 {
 1001              		.loc 5 228 44 view .LVU239
 1002 0070 E5D2     		bcs	.L79
 1003              	.LVL65:
 1004              	.L78:
 228:../../libdaisy/src/hid/disp/display.h ****                 {
 1005              		.loc 5 228 44 is_stmt 0 view .LVU240
 1006              	.LBE491:
 226:../../libdaisy/src/hid/disp/display.h ****             {
 1007              		.loc 5 226 13 is_stmt 1 view .LVU241
 1008 0072 0131     		adds	r1, r1, #1
 1009              	.LVL66:
 226:../../libdaisy/src/hid/disp/display.h ****             {
 1010              		.loc 5 226 40 view .LVU242
 1011 0074 8945     		cmp	r9, r1
 1012 0076 D1D2     		bcs	.L75
 1013              	.LVL67:
 1014              	.L71:
 226:../../libdaisy/src/hid/disp/display.h ****             {
 1015              		.loc 5 226 40 is_stmt 0 view .LVU243
 1016              	.LBE490:
 1017              	.LBE489:
 241:../../libdaisy/src/hid/disp/display.h **** 
 1018              		.loc 5 241 5 view .LVU244
ARM GAS  C:\Users\VINCIU~1\AppData\Local\Temp\ccGpRbsb.s 			page 37


 1019 0078 07B0     		add	sp, sp, #28
 1020              		.cfi_remember_state
 1021              		.cfi_def_cfa_offset 36
 1022              		@ sp needed
 1023 007a BDE8F08F 		pop	{r4, r5, r6, r7, r8, r9, r10, fp, pc}
 1024              	.LVL68:
 1025              	.L72:
 1026              		.cfi_restore_state
 1027              	.LBB511:
 1028              	.LBB368:
 1029              	.LBI368:
 181:../../libdaisy/src/hid/disp/display.h ****                   uint_fast8_t y1,
 1030              		.loc 5 181 10 is_stmt 1 view .LVU245
 1031              	.LBB369:
 187:../../libdaisy/src/hid/disp/display.h ****         int_fast16_t deltaY = abs((int_fast16_t)y2 - (int_fast16_t)y1);
 1032              		.loc 5 187 52 is_stmt 0 view .LVU246
 1033 007e A3EB0108 		sub	r8, r3, r1
 187:../../libdaisy/src/hid/disp/display.h ****         int_fast16_t deltaY = abs((int_fast16_t)y2 - (int_fast16_t)y1);
 1034              		.loc 5 187 22 view .LVU247
 1035 0082 B8F1000F 		cmp	r8, #0
 1036 0086 B8BF     		it	lt
 1037 0088 C8F10008 		rsblt	r8, r8, #0
 1038              	.LVL69:
 189:../../libdaisy/src/hid/disp/display.h ****         int_fast16_t signY  = ((y1 < y2) ? 1 : -1);
 1039              		.loc 5 189 42 view .LVU248
 1040 008c 9942     		cmp	r1, r3
 1041 008e C0F04E81 		bcc	.L80
 1042              	.LVL70:
 1043              	.LBB370:
 1044              	.LBI370:
 1045              		.loc 1 41 10 is_stmt 1 view .LVU249
 1046              	.LBB371:
 1047              	.LBI371:
 239:../../libdaisy/src/dev/oled_ssd130x.h ****     {
 1048              		.loc 6 239 10 view .LVU250
 1049              	.LBB372:
 241:../../libdaisy/src/dev/oled_ssd130x.h ****             return;
 1050              		.loc 6 241 14 is_stmt 0 view .LVU251
 1051 0092 7F2B     		cmp	r3, #127
 1052              	.LBE372:
 1053              	.LBE371:
 1054              	.LBE370:
 189:../../libdaisy/src/hid/disp/display.h ****         int_fast16_t signY  = ((y1 < y2) ? 1 : -1);
 1055              		.loc 5 189 42 view .LVU252
 1056 0094 4FF0FF3A 		mov	r10, #-1
 1057              	.LBB383:
 1058              	.LBB379:
 1059              	.LBB375:
 241:../../libdaisy/src/dev/oled_ssd130x.h ****             return;
 1060              		.loc 6 241 14 view .LVU253
 1061 0098 94BF     		ite	ls
 1062 009a 0026     		movls	r6, #0
 1063 009c 0126     		movhi	r6, #1
 241:../../libdaisy/src/dev/oled_ssd130x.h ****             return;
 1064              		.loc 6 241 28 view .LVU254
 1065 009e 3F2A     		cmp	r2, #63
 241:../../libdaisy/src/dev/oled_ssd130x.h ****             return;
ARM GAS  C:\Users\VINCIU~1\AppData\Local\Temp\ccGpRbsb.s 			page 38


 1066              		.loc 6 241 14 view .LVU255
 1067 00a0 0096     		str	r6, [sp]
 241:../../libdaisy/src/dev/oled_ssd130x.h ****             return;
 1068              		.loc 6 241 28 view .LVU256
 1069 00a2 94BF     		ite	ls
 1070 00a4 0027     		movls	r7, #0
 1071 00a6 0127     		movhi	r7, #1
 1072 00a8 0297     		str	r7, [sp, #8]
 241:../../libdaisy/src/dev/oled_ssd130x.h ****             return;
 1073              		.loc 6 241 9 view .LVU257
 1074 00aa A6B9     		cbnz	r6, .L81
 1075 00ac 9FB9     		cbnz	r7, .L81
 1076              	.LVL71:
 1077              	.L122:
 244:../../libdaisy/src/dev/oled_ssd130x.h ****         else
 1078              		.loc 6 244 28 view .LVU258
 1079 00ae D608     		lsrs	r6, r2, #3
 244:../../libdaisy/src/dev/oled_ssd130x.h ****         else
 1080              		.loc 6 244 54 view .LVU259
 1081 00b0 02F0070C 		and	ip, r2, #7
 244:../../libdaisy/src/dev/oled_ssd130x.h ****         else
 1082              		.loc 6 244 48 view .LVU260
 1083 00b4 0127     		movs	r7, #1
 244:../../libdaisy/src/dev/oled_ssd130x.h ****         else
 1084              		.loc 6 244 42 view .LVU261
 1085 00b6 03EBC616 		add	r6, r3, r6, lsl #7
 1086 00ba 0644     		add	r6, r6, r0
 243:../../libdaisy/src/dev/oled_ssd130x.h ****             buffer_[x + (y / 8) * width] |= (1 << (y % 8));
 1087              		.loc 6 243 9 view .LVU262
 1088 00bc 002D     		cmp	r5, #0
 1089 00be 00F09481 		beq	.L82
 244:../../libdaisy/src/dev/oled_ssd130x.h ****         else
 1090              		.loc 6 244 48 view .LVU263
 1091 00c2 07FA0CF7 		lsl	r7, r7, ip
 244:../../libdaisy/src/dev/oled_ssd130x.h ****         else
 1092              		.loc 6 244 42 view .LVU264
 1093 00c6 96F814C0 		ldrb	ip, [r6, #20]	@ zero_extendqisi2
 1094 00ca 47EA0C07 		orr	r7, r7, ip
 1095 00ce 3775     		strb	r7, [r6, #20]
 1096 00d0 0026     		movs	r6, #0
 1097 00d2 0296     		str	r6, [sp, #8]
 1098 00d4 0096     		str	r6, [sp]
 1099              	.L81:
 1100              	.LVL72:
 244:../../libdaisy/src/dev/oled_ssd130x.h ****         else
 1101              		.loc 6 244 42 view .LVU265
 1102              	.LBE375:
 1103              	.LBE379:
 1104              	.LBE383:
 199:../../libdaisy/src/hid/disp/display.h ****         {
 1105              		.loc 5 199 26 is_stmt 1 view .LVU266
 1106 00d6 9942     		cmp	r1, r3
 1107 00d8 00F09781 		beq	.L163
 1108              	.L84:
 1109              	.LVL73:
 187:../../libdaisy/src/hid/disp/display.h ****         int_fast16_t deltaY = abs((int_fast16_t)y2 - (int_fast16_t)y1);
 1110              		.loc 5 187 22 is_stmt 0 view .LVU267
ARM GAS  C:\Users\VINCIU~1\AppData\Local\Temp\ccGpRbsb.s 			page 39


 1111 00dc 4646     		mov	r6, r8
 1112 00de 9446     		mov	ip, r2
 1113 00e0 8E46     		mov	lr, r1
 1114              	.LVL74:
 1115              	.L86:
 1116              	.LBB384:
 1117              	.LBI384:
 1118              		.loc 1 41 10 is_stmt 1 view .LVU268
 1119              	.LBB385:
 1120              	.LBI385:
 239:../../libdaisy/src/dev/oled_ssd130x.h ****     {
 1121              		.loc 6 239 10 view .LVU269
 1122              	.LBB386:
 241:../../libdaisy/src/dev/oled_ssd130x.h ****             return;
 1123              		.loc 6 241 9 is_stmt 0 view .LVU270
 1124 00e2 BEF17F0F 		cmp	lr, #127
 1125 00e6 16D8     		bhi	.L87
 1126 00e8 BCF13F0F 		cmp	ip, #63
 1127 00ec 13D8     		bhi	.L87
 244:../../libdaisy/src/dev/oled_ssd130x.h ****         else
 1128              		.loc 6 244 28 view .LVU271
 1129 00ee 4FEADC07 		lsr	r7, ip, #3
 244:../../libdaisy/src/dev/oled_ssd130x.h ****         else
 1130              		.loc 6 244 54 view .LVU272
 1131 00f2 0CF0070B 		and	fp, ip, #7
 244:../../libdaisy/src/dev/oled_ssd130x.h ****         else
 1132              		.loc 6 244 48 view .LVU273
 1133 00f6 4FF00109 		mov	r9, #1
 244:../../libdaisy/src/dev/oled_ssd130x.h ****         else
 1134              		.loc 6 244 42 view .LVU274
 1135 00fa 0EEBC717 		add	r7, lr, r7, lsl #7
 1136 00fe 0744     		add	r7, r7, r0
 243:../../libdaisy/src/dev/oled_ssd130x.h ****             buffer_[x + (y / 8) * width] |= (1 << (y % 8));
 1137              		.loc 6 243 9 view .LVU275
 1138 0100 002D     		cmp	r5, #0
 1139 0102 00F03981 		beq	.L88
 244:../../libdaisy/src/dev/oled_ssd130x.h ****         else
 1140              		.loc 6 244 48 view .LVU276
 1141 0106 09FA0BF9 		lsl	r9, r9, fp
 244:../../libdaisy/src/dev/oled_ssd130x.h ****         else
 1142              		.loc 6 244 42 view .LVU277
 1143 010a 97F814B0 		ldrb	fp, [r7, #20]	@ zero_extendqisi2
 1144 010e 49EA0B09 		orr	r9, r9, fp
 1145 0112 87F81490 		strb	r9, [r7, #20]
 1146              	.L87:
 1147              	.LVL75:
 244:../../libdaisy/src/dev/oled_ssd130x.h ****         else
 1148              		.loc 6 244 42 view .LVU278
 1149              	.LBE386:
 1150              	.LBE385:
 1151              	.LBE384:
 203:../../libdaisy/src/hid/disp/display.h ****             {
 1152              		.loc 5 203 13 view .LVU279
 1153 0116 7700     		lsls	r7, r6, #1
 1154              	.LVL76:
 206:../../libdaisy/src/hid/disp/display.h ****             }
 1155              		.loc 5 206 20 view .LVU280
ARM GAS  C:\Users\VINCIU~1\AppData\Local\Temp\ccGpRbsb.s 			page 40


 1156 0118 18BF     		it	ne
 1157 011a D644     		addne	lr, lr, r10
 1158              	.LVL77:
 209:../../libdaisy/src/hid/disp/display.h ****             {
 1159              		.loc 5 209 13 view .LVU281
 1160 011c B845     		cmp	r8, r7
 1161 011e 02DD     		ble	.L90
 211:../../libdaisy/src/hid/disp/display.h ****                 y1 += signY;
 1162              		.loc 5 211 23 view .LVU282
 1163 0120 4644     		add	r6, r6, r8
 1164              	.LVL78:
 212:../../libdaisy/src/hid/disp/display.h ****             }
 1165              		.loc 5 212 20 view .LVU283
 1166 0122 0CF1FF3C 		add	ip, ip, #-1
 1167              	.LVL79:
 1168              	.L90:
 199:../../libdaisy/src/hid/disp/display.h ****         {
 1169              		.loc 5 199 26 is_stmt 1 view .LVU284
 1170 0126 7345     		cmp	r3, lr
 1171 0128 DBD1     		bne	.L86
 199:../../libdaisy/src/hid/disp/display.h ****         {
 1172              		.loc 5 199 26 is_stmt 0 view .LVU285
 1173 012a 6245     		cmp	r2, ip
 1174 012c D9D1     		bne	.L86
 1175 012e 0026     		movs	r6, #0
 1176              	.LVL80:
 199:../../libdaisy/src/hid/disp/display.h ****         {
 1177              		.loc 5 199 26 view .LVU286
 1178 0130 0496     		str	r6, [sp, #16]
 1179              	.LVL81:
 1180              	.L83:
 199:../../libdaisy/src/hid/disp/display.h ****         {
 1181              		.loc 5 199 26 view .LVU287
 1182              	.LBE369:
 1183              	.LBE368:
 1184              	.LBB399:
 1185              	.LBI399:
 181:../../libdaisy/src/hid/disp/display.h ****                   uint_fast8_t y1,
 1186              		.loc 5 181 10 is_stmt 1 view .LVU288
 1187              	.LBB400:
 188:../../libdaisy/src/hid/disp/display.h ****         int_fast16_t signX  = ((x1 < x2) ? 1 : -1);
 1188              		.loc 5 188 52 is_stmt 0 view .LVU289
 1189 0132 A4EB0209 		sub	r9, r4, r2
 1190              	.LBB401:
 1191              	.LBB402:
 1192              	.LBB403:
 241:../../libdaisy/src/dev/oled_ssd130x.h ****             return;
 1193              		.loc 6 241 9 view .LVU290
 1194 0136 009F     		ldr	r7, [sp]
 1195              	.LBE403:
 1196              	.LBE402:
 1197              	.LBE401:
 188:../../libdaisy/src/hid/disp/display.h ****         int_fast16_t signX  = ((x1 < x2) ? 1 : -1);
 1198              		.loc 5 188 22 view .LVU291
 1199 0138 B9F1000F 		cmp	r9, #0
 1200 013c B8BF     		it	lt
 1201 013e C9F10009 		rsblt	r9, r9, #0
ARM GAS  C:\Users\VINCIU~1\AppData\Local\Temp\ccGpRbsb.s 			page 41


 1202              	.LVL82:
 1203              	.LBB418:
 1204              	.LBB412:
 1205              	.LBB406:
 241:../../libdaisy/src/dev/oled_ssd130x.h ****             return;
 1206              		.loc 6 241 28 view .LVU292
 1207 0142 3F2C     		cmp	r4, #63
 1208 0144 94BF     		ite	ls
 1209 0146 0026     		movls	r6, #0
 1210 0148 0126     		movhi	r6, #1
 1211              	.LBE406:
 1212              	.LBE412:
 1213              	.LBE418:
 190:../../libdaisy/src/hid/disp/display.h ****         int_fast16_t error  = deltaX - deltaY;
 1214              		.loc 5 190 42 view .LVU293
 1215 014a A242     		cmp	r2, r4
 191:../../libdaisy/src/hid/disp/display.h ****         int_fast16_t error2;
 1216              		.loc 5 191 22 view .LVU294
 1217 014c C9F10008 		rsb	r8, r9, #0
 1218              	.LVL83:
 1219              	.LBB419:
 1220              	.LBI401:
 1221              		.loc 1 41 10 is_stmt 1 view .LVU295
 1222              	.LBB413:
 1223              	.LBI402:
 239:../../libdaisy/src/dev/oled_ssd130x.h ****     {
 1224              		.loc 6 239 10 view .LVU296
 1225              	.LBB407:
 241:../../libdaisy/src/dev/oled_ssd130x.h ****             return;
 1226              		.loc 6 241 28 is_stmt 0 view .LVU297
 1227 0150 0396     		str	r6, [sp, #12]
 1228              	.LBE407:
 1229              	.LBE413:
 1230              	.LBE419:
 190:../../libdaisy/src/hid/disp/display.h ****         int_fast16_t error  = deltaX - deltaY;
 1231              		.loc 5 190 42 view .LVU298
 1232 0152 C0F02381 		bcc	.L91
 1233              	.LVL84:
 1234              	.LBB420:
 1235              	.LBB414:
 1236              	.LBB408:
 241:../../libdaisy/src/dev/oled_ssd130x.h ****             return;
 1237              		.loc 6 241 9 view .LVU299
 1238 0156 002F     		cmp	r7, #0
 1239 0158 40F05081 		bne	.L126
 1240 015c 002E     		cmp	r6, #0
 1241 015e 40F04D81 		bne	.L126
 1242              	.LBE408:
 1243              	.LBE414:
 1244              	.LBE420:
 190:../../libdaisy/src/hid/disp/display.h ****         int_fast16_t error  = deltaX - deltaY;
 1245              		.loc 5 190 42 view .LVU300
 1246 0162 4FF0FF36 		mov	r6, #-1
 1247 0166 0096     		str	r6, [sp]
 1248              	.LBB421:
 1249              	.LBB415:
 1250              	.LBB409:
ARM GAS  C:\Users\VINCIU~1\AppData\Local\Temp\ccGpRbsb.s 			page 42


 244:../../libdaisy/src/dev/oled_ssd130x.h ****         else
 1251              		.loc 6 244 28 view .LVU301
 1252 0168 E608     		lsrs	r6, r4, #3
 244:../../libdaisy/src/dev/oled_ssd130x.h ****         else
 1253              		.loc 6 244 42 view .LVU302
 1254 016a 03EBC616 		add	r6, r3, r6, lsl #7
 1255 016e 0644     		add	r6, r6, r0
 243:../../libdaisy/src/dev/oled_ssd130x.h ****             buffer_[x + (y / 8) * width] |= (1 << (y % 8));
 1256              		.loc 6 243 9 view .LVU303
 1257 0170 002D     		cmp	r5, #0
 1258 0172 00F01E81 		beq	.L93
 1259              	.LVL85:
 1260              	.L165:
 244:../../libdaisy/src/dev/oled_ssd130x.h ****         else
 1261              		.loc 6 244 48 view .LVU304
 1262 0176 4FF0010C 		mov	ip, #1
 244:../../libdaisy/src/dev/oled_ssd130x.h ****         else
 1263              		.loc 6 244 54 view .LVU305
 1264 017a 04F00707 		and	r7, r4, #7
 244:../../libdaisy/src/dev/oled_ssd130x.h ****         else
 1265              		.loc 6 244 48 view .LVU306
 1266 017e 0CFA07F7 		lsl	r7, ip, r7
 244:../../libdaisy/src/dev/oled_ssd130x.h ****         else
 1267              		.loc 6 244 42 view .LVU307
 1268 0182 96F814C0 		ldrb	ip, [r6, #20]	@ zero_extendqisi2
 1269 0186 47EA0C07 		orr	r7, r7, ip
 1270 018a 3775     		strb	r7, [r6, #20]
 1271 018c 0026     		movs	r6, #0
 1272 018e 0396     		str	r6, [sp, #12]
 1273              	.L92:
 1274              	.LVL86:
 244:../../libdaisy/src/dev/oled_ssd130x.h ****         else
 1275              		.loc 6 244 42 view .LVU308
 1276              	.LBE409:
 1277              	.LBE415:
 1278              	.LBE421:
 199:../../libdaisy/src/hid/disp/display.h ****         {
 1279              		.loc 5 199 26 is_stmt 1 view .LVU309
 1280 0190 A242     		cmp	r2, r4
 1281 0192 00F03D81 		beq	.L164
 1282              	.L95:
 1283              	.LVL87:
 190:../../libdaisy/src/hid/disp/display.h ****         int_fast16_t error  = deltaX - deltaY;
 1284              		.loc 5 190 42 is_stmt 0 view .LVU310
 1285 0196 C446     		mov	ip, r8
 1286 0198 1646     		mov	r6, r2
 1287 019a 1F46     		mov	r7, r3
 1288 019c 0592     		str	r2, [sp, #20]
 1289              	.LVL88:
 1290              	.L97:
 1291              	.LBB422:
 1292              	.LBI422:
 1293              		.loc 1 41 10 is_stmt 1 view .LVU311
 1294              	.LBB423:
 1295              	.LBI423:
 239:../../libdaisy/src/dev/oled_ssd130x.h ****     {
 1296              		.loc 6 239 10 view .LVU312
ARM GAS  C:\Users\VINCIU~1\AppData\Local\Temp\ccGpRbsb.s 			page 43


 1297              	.LBB424:
 241:../../libdaisy/src/dev/oled_ssd130x.h ****             return;
 1298              		.loc 6 241 9 is_stmt 0 view .LVU313
 1299 019e 7F2F     		cmp	r7, #127
 1300 01a0 15D8     		bhi	.L98
 1301 01a2 3F2E     		cmp	r6, #63
 1302 01a4 13D8     		bhi	.L98
 244:../../libdaisy/src/dev/oled_ssd130x.h ****         else
 1303              		.loc 6 244 28 view .LVU314
 1304 01a6 4FEAD60E 		lsr	lr, r6, #3
 244:../../libdaisy/src/dev/oled_ssd130x.h ****         else
 1305              		.loc 6 244 54 view .LVU315
 1306 01aa 06F0070B 		and	fp, r6, #7
 244:../../libdaisy/src/dev/oled_ssd130x.h ****         else
 1307              		.loc 6 244 48 view .LVU316
 1308 01ae 4FF0010A 		mov	r10, #1
 244:../../libdaisy/src/dev/oled_ssd130x.h ****         else
 1309              		.loc 6 244 42 view .LVU317
 1310 01b2 07EBCE1E 		add	lr, r7, lr, lsl #7
 1311 01b6 8644     		add	lr, lr, r0
 243:../../libdaisy/src/dev/oled_ssd130x.h ****             buffer_[x + (y / 8) * width] |= (1 << (y % 8));
 1312              		.loc 6 243 9 view .LVU318
 1313 01b8 002D     		cmp	r5, #0
 1314 01ba 00F0E680 		beq	.L99
 244:../../libdaisy/src/dev/oled_ssd130x.h ****         else
 1315              		.loc 6 244 48 view .LVU319
 1316 01be 0AFA0BFA 		lsl	r10, r10, fp
 244:../../libdaisy/src/dev/oled_ssd130x.h ****         else
 1317              		.loc 6 244 42 view .LVU320
 1318 01c2 9EF814B0 		ldrb	fp, [lr, #20]	@ zero_extendqisi2
 1319 01c6 4AEA0B0A 		orr	r10, r10, fp
 1320 01ca 8EF814A0 		strb	r10, [lr, #20]
 1321              	.L98:
 1322              	.LVL89:
 244:../../libdaisy/src/dev/oled_ssd130x.h ****         else
 1323              		.loc 6 244 42 view .LVU321
 1324              	.LBE424:
 1325              	.LBE423:
 1326              	.LBE422:
 203:../../libdaisy/src/hid/disp/display.h ****             {
 1327              		.loc 5 203 13 view .LVU322
 1328 01ce B8EB4C0F 		cmp	r8, ip, lsl #1
 202:../../libdaisy/src/hid/disp/display.h ****             if(error2 > -deltaY)
 1329              		.loc 5 202 20 view .LVU323
 1330 01d2 4FEA4C0E 		lsl	lr, ip, #1
 1331              	.LVL90:
 203:../../libdaisy/src/hid/disp/display.h ****             {
 1332              		.loc 5 203 13 view .LVU324
 1333 01d6 02DA     		bge	.L100
 205:../../libdaisy/src/hid/disp/display.h ****                 x1 += signX;
 1334              		.loc 5 205 23 view .LVU325
 1335 01d8 ACEB090C 		sub	ip, ip, r9
 1336              	.LVL91:
 206:../../libdaisy/src/hid/disp/display.h ****             }
 1337              		.loc 5 206 20 view .LVU326
 1338 01dc 013F     		subs	r7, r7, #1
 1339              	.LVL92:
ARM GAS  C:\Users\VINCIU~1\AppData\Local\Temp\ccGpRbsb.s 			page 44


 1340              	.L100:
 209:../../libdaisy/src/hid/disp/display.h ****             {
 1341              		.loc 5 209 13 view .LVU327
 1342 01de BEF1000F 		cmp	lr, #0
 1343 01e2 01D0     		beq	.L101
 212:../../libdaisy/src/hid/disp/display.h ****             }
 1344              		.loc 5 212 20 view .LVU328
 1345 01e4 009A     		ldr	r2, [sp]
 1346 01e6 1644     		add	r6, r6, r2
 1347              	.LVL93:
 1348              	.L101:
 199:../../libdaisy/src/hid/disp/display.h ****         {
 1349              		.loc 5 199 26 is_stmt 1 view .LVU329
 1350 01e8 BB42     		cmp	r3, r7
 1351 01ea D8D1     		bne	.L97
 199:../../libdaisy/src/hid/disp/display.h ****         {
 1352              		.loc 5 199 26 is_stmt 0 view .LVU330
 1353 01ec B442     		cmp	r4, r6
 1354 01ee D6D1     		bne	.L97
 1355 01f0 059A     		ldr	r2, [sp, #20]
 1356              	.LVL94:
 1357              	.L94:
 199:../../libdaisy/src/hid/disp/display.h ****         {
 1358              		.loc 5 199 26 view .LVU331
 1359              	.LBE400:
 1360              	.LBE399:
 1361              	.LBB435:
 1362              	.LBI435:
 181:../../libdaisy/src/hid/disp/display.h ****                   uint_fast8_t y1,
 1363              		.loc 5 181 10 is_stmt 1 view .LVU332
 1364              	.LBB436:
 187:../../libdaisy/src/hid/disp/display.h ****         int_fast16_t deltaY = abs((int_fast16_t)y2 - (int_fast16_t)y1);
 1365              		.loc 5 187 52 is_stmt 0 view .LVU333
 1366 01f2 A1EB030E 		sub	lr, r1, r3
 187:../../libdaisy/src/hid/disp/display.h ****         int_fast16_t deltaY = abs((int_fast16_t)y2 - (int_fast16_t)y1);
 1367              		.loc 5 187 22 view .LVU334
 1368 01f6 BEF1000F 		cmp	lr, #0
 1369 01fa B8BF     		it	lt
 1370 01fc CEF1000E 		rsblt	lr, lr, #0
 1371              	.LVL95:
 1372              	.LBB437:
 1373              	.LBB438:
 1374              	.LBB439:
 241:../../libdaisy/src/dev/oled_ssd130x.h ****             return;
 1375              		.loc 6 241 14 view .LVU335
 1376 0200 7F29     		cmp	r1, #127
 1377 0202 94BF     		ite	ls
 1378 0204 4FF0000A 		movls	r10, #0
 1379 0208 4FF0010A 		movhi	r10, #1
 1380              	.LBE439:
 1381              	.LBE438:
 1382              	.LBE437:
 189:../../libdaisy/src/hid/disp/display.h ****         int_fast16_t signY  = ((y1 < y2) ? 1 : -1);
 1383              		.loc 5 189 42 view .LVU336
 1384 020c 9942     		cmp	r1, r3
 1385 020e 8CBF     		ite	hi
 1386 0210 4FF00109 		movhi	r9, #1
ARM GAS  C:\Users\VINCIU~1\AppData\Local\Temp\ccGpRbsb.s 			page 45


 1387 0214 4FF0FF39 		movls	r9, #-1
 1388              	.LVL96:
 1389              	.LBB446:
 1390              	.LBI437:
 1391              		.loc 1 41 10 is_stmt 1 view .LVU337
 1392              	.LBB444:
 1393              	.LBI438:
 239:../../libdaisy/src/dev/oled_ssd130x.h ****     {
 1394              		.loc 6 239 10 view .LVU338
 1395              	.LBB442:
 241:../../libdaisy/src/dev/oled_ssd130x.h ****             return;
 1396              		.loc 6 241 9 is_stmt 0 view .LVU339
 1397 0218 BAF1000F 		cmp	r10, #0
 1398 021c 13D1     		bne	.L103
 1399 021e 039E     		ldr	r6, [sp, #12]
 1400 0220 8EB9     		cbnz	r6, .L103
 244:../../libdaisy/src/dev/oled_ssd130x.h ****         else
 1401              		.loc 6 244 28 view .LVU340
 1402 0222 E608     		lsrs	r6, r4, #3
 244:../../libdaisy/src/dev/oled_ssd130x.h ****         else
 1403              		.loc 6 244 42 view .LVU341
 1404 0224 01EBC616 		add	r6, r1, r6, lsl #7
 1405 0228 0644     		add	r6, r6, r0
 243:../../libdaisy/src/dev/oled_ssd130x.h ****             buffer_[x + (y / 8) * width] |= (1 << (y % 8));
 1406              		.loc 6 243 9 view .LVU342
 1407 022a 002D     		cmp	r5, #0
 1408 022c 00F0D380 		beq	.L104
 244:../../libdaisy/src/dev/oled_ssd130x.h ****         else
 1409              		.loc 6 244 48 view .LVU343
 1410 0230 4FF0010C 		mov	ip, #1
 244:../../libdaisy/src/dev/oled_ssd130x.h ****         else
 1411              		.loc 6 244 54 view .LVU344
 1412 0234 04F00707 		and	r7, r4, #7
 244:../../libdaisy/src/dev/oled_ssd130x.h ****         else
 1413              		.loc 6 244 48 view .LVU345
 1414 0238 0CFA07F7 		lsl	r7, ip, r7
 244:../../libdaisy/src/dev/oled_ssd130x.h ****         else
 1415              		.loc 6 244 42 view .LVU346
 1416 023c 96F814C0 		ldrb	ip, [r6, #20]	@ zero_extendqisi2
 1417 0240 47EA0C07 		orr	r7, r7, ip
 1418 0244 3775     		strb	r7, [r6, #20]
 1419              	.L103:
 1420              	.LVL97:
 244:../../libdaisy/src/dev/oled_ssd130x.h ****         else
 1421              		.loc 6 244 42 view .LVU347
 1422              	.LBE442:
 1423              	.LBE444:
 1424              	.LBE446:
 199:../../libdaisy/src/hid/disp/display.h ****         {
 1425              		.loc 5 199 26 is_stmt 1 view .LVU348
 1426 0246 049E     		ldr	r6, [sp, #16]
 1427 0248 26BB     		cbnz	r6, .L105
 187:../../libdaisy/src/hid/disp/display.h ****         int_fast16_t deltaY = abs((int_fast16_t)y2 - (int_fast16_t)y1);
 1428              		.loc 5 187 22 is_stmt 0 view .LVU349
 1429 024a 7746     		mov	r7, lr
 199:../../libdaisy/src/hid/disp/display.h ****         {
 1430              		.loc 5 199 26 view .LVU350
ARM GAS  C:\Users\VINCIU~1\AppData\Local\Temp\ccGpRbsb.s 			page 46


 1431 024c 2646     		mov	r6, r4
 1432              	.LVL98:
 1433              	.L106:
 1434              	.LBB447:
 1435              	.LBI447:
 1436              		.loc 1 41 10 is_stmt 1 view .LVU351
 1437              	.LBB448:
 1438              	.LBI448:
 239:../../libdaisy/src/dev/oled_ssd130x.h ****     {
 1439              		.loc 6 239 10 view .LVU352
 1440              	.LBB449:
 241:../../libdaisy/src/dev/oled_ssd130x.h ****             return;
 1441              		.loc 6 241 9 is_stmt 0 view .LVU353
 1442 024e 7F2B     		cmp	r3, #127
 1443 0250 14D8     		bhi	.L108
 241:../../libdaisy/src/dev/oled_ssd130x.h ****             return;
 1444              		.loc 6 241 9 view .LVU354
 1445 0252 3F2E     		cmp	r6, #63
 1446 0254 12D8     		bhi	.L108
 244:../../libdaisy/src/dev/oled_ssd130x.h ****         else
 1447              		.loc 6 244 28 view .LVU355
 1448 0256 4FEAD60C 		lsr	ip, r6, #3
 244:../../libdaisy/src/dev/oled_ssd130x.h ****         else
 1449              		.loc 6 244 54 view .LVU356
 1450 025a 06F0070B 		and	fp, r6, #7
 244:../../libdaisy/src/dev/oled_ssd130x.h ****         else
 1451              		.loc 6 244 48 view .LVU357
 1452 025e 4FF00108 		mov	r8, #1
 244:../../libdaisy/src/dev/oled_ssd130x.h ****         else
 1453              		.loc 6 244 42 view .LVU358
 1454 0262 03EBCC1C 		add	ip, r3, ip, lsl #7
 1455 0266 8444     		add	ip, ip, r0
 243:../../libdaisy/src/dev/oled_ssd130x.h ****             buffer_[x + (y / 8) * width] |= (1 << (y % 8));
 1456              		.loc 6 243 9 view .LVU359
 1457 0268 002D     		cmp	r5, #0
 1458 026a 73D0     		beq	.L109
 244:../../libdaisy/src/dev/oled_ssd130x.h ****         else
 1459              		.loc 6 244 48 view .LVU360
 1460 026c 08FA0BF8 		lsl	r8, r8, fp
 244:../../libdaisy/src/dev/oled_ssd130x.h ****         else
 1461              		.loc 6 244 42 view .LVU361
 1462 0270 9CF814B0 		ldrb	fp, [ip, #20]	@ zero_extendqisi2
 1463 0274 48EA0B08 		orr	r8, r8, fp
 1464 0278 8CF81480 		strb	r8, [ip, #20]
 1465              	.L108:
 1466              	.LVL99:
 244:../../libdaisy/src/dev/oled_ssd130x.h ****         else
 1467              		.loc 6 244 42 view .LVU362
 1468              	.LBE449:
 1469              	.LBE448:
 1470              	.LBE447:
 203:../../libdaisy/src/hid/disp/display.h ****             {
 1471              		.loc 5 203 13 view .LVU363
 1472 027c 5FEA470C 		lsls	ip, r7, #1
 1473              	.LVL100:
 206:../../libdaisy/src/hid/disp/display.h ****             }
 1474              		.loc 5 206 20 view .LVU364
ARM GAS  C:\Users\VINCIU~1\AppData\Local\Temp\ccGpRbsb.s 			page 47


 1475 0280 18BF     		it	ne
 1476 0282 4B44     		addne	r3, r3, r9
 1477              	.LVL101:
 209:../../libdaisy/src/hid/disp/display.h ****             {
 1478              		.loc 5 209 13 view .LVU365
 1479 0284 E645     		cmp	lr, ip
 1480 0286 01DD     		ble	.L111
 211:../../libdaisy/src/hid/disp/display.h ****                 y1 += signY;
 1481              		.loc 5 211 23 view .LVU366
 1482 0288 7744     		add	r7, r7, lr
 1483              	.LVL102:
 212:../../libdaisy/src/hid/disp/display.h ****             }
 1484              		.loc 5 212 20 view .LVU367
 1485 028a 013E     		subs	r6, r6, #1
 1486              	.LVL103:
 1487              	.L111:
 199:../../libdaisy/src/hid/disp/display.h ****         {
 1488              		.loc 5 199 26 is_stmt 1 view .LVU368
 1489 028c 9942     		cmp	r1, r3
 1490 028e DED1     		bne	.L106
 199:../../libdaisy/src/hid/disp/display.h ****         {
 1491              		.loc 5 199 26 is_stmt 0 view .LVU369
 1492 0290 B442     		cmp	r4, r6
 1493 0292 DCD1     		bne	.L106
 1494              	.LVL104:
 1495              	.L105:
 199:../../libdaisy/src/hid/disp/display.h ****         {
 1496              		.loc 5 199 26 view .LVU370
 1497              	.LBE436:
 1498              	.LBE435:
 1499              	.LBB458:
 1500              	.LBI458:
 181:../../libdaisy/src/hid/disp/display.h ****                   uint_fast8_t y1,
 1501              		.loc 5 181 10 is_stmt 1 view .LVU371
 1502              	.LBB459:
 188:../../libdaisy/src/hid/disp/display.h ****         int_fast16_t signX  = ((x1 < x2) ? 1 : -1);
 1503              		.loc 5 188 52 is_stmt 0 view .LVU372
 1504 0294 A2EB040E 		sub	lr, r2, r4
 188:../../libdaisy/src/hid/disp/display.h ****         int_fast16_t signX  = ((x1 < x2) ? 1 : -1);
 1505              		.loc 5 188 22 view .LVU373
 1506 0298 BEF1000F 		cmp	lr, #0
 1507 029c B8BF     		it	lt
 1508 029e CEF1000E 		rsblt	lr, lr, #0
 1509              	.LVL105:
 190:../../libdaisy/src/hid/disp/display.h ****         int_fast16_t error  = deltaX - deltaY;
 1510              		.loc 5 190 42 view .LVU374
 1511 02a2 A242     		cmp	r2, r4
 1512 02a4 8CBF     		ite	hi
 1513 02a6 4FF00108 		movhi	r8, #1
 1514 02aa 4FF0FF38 		movls	r8, #-1
 1515              	.LVL106:
 191:../../libdaisy/src/hid/disp/display.h ****         int_fast16_t error2;
 1516              		.loc 5 191 22 view .LVU375
 1517 02ae CEF1000C 		rsb	ip, lr, #0
 1518              	.LVL107:
 1519              	.LBB460:
 1520              	.LBI460:
ARM GAS  C:\Users\VINCIU~1\AppData\Local\Temp\ccGpRbsb.s 			page 48


 1521              		.loc 1 41 10 is_stmt 1 view .LVU376
 1522              	.LBB461:
 1523              	.LBI461:
 239:../../libdaisy/src/dev/oled_ssd130x.h ****     {
 1524              		.loc 6 239 10 view .LVU377
 1525              	.LBB462:
 241:../../libdaisy/src/dev/oled_ssd130x.h ****             return;
 1526              		.loc 6 241 9 is_stmt 0 view .LVU378
 1527 02b2 BAF1000F 		cmp	r10, #0
 1528 02b6 0ED1     		bne	.L113
 1529 02b8 029B     		ldr	r3, [sp, #8]
 1530 02ba 63B9     		cbnz	r3, .L113
 244:../../libdaisy/src/dev/oled_ssd130x.h ****         else
 1531              		.loc 6 244 28 view .LVU379
 1532 02bc D308     		lsrs	r3, r2, #3
 244:../../libdaisy/src/dev/oled_ssd130x.h ****         else
 1533              		.loc 6 244 54 view .LVU380
 1534 02be 02F00707 		and	r7, r2, #7
 244:../../libdaisy/src/dev/oled_ssd130x.h ****         else
 1535              		.loc 6 244 48 view .LVU381
 1536 02c2 0126     		movs	r6, #1
 244:../../libdaisy/src/dev/oled_ssd130x.h ****         else
 1537              		.loc 6 244 42 view .LVU382
 1538 02c4 01EBC313 		add	r3, r1, r3, lsl #7
 1539 02c8 0344     		add	r3, r3, r0
 243:../../libdaisy/src/dev/oled_ssd130x.h ****             buffer_[x + (y / 8) * width] |= (1 << (y % 8));
 1540              		.loc 6 243 9 view .LVU383
 1541 02ca 002D     		cmp	r5, #0
 1542 02cc 7CD0     		beq	.L114
 244:../../libdaisy/src/dev/oled_ssd130x.h ****         else
 1543              		.loc 6 244 48 view .LVU384
 1544 02ce BE40     		lsls	r6, r6, r7
 244:../../libdaisy/src/dev/oled_ssd130x.h ****         else
 1545              		.loc 6 244 42 view .LVU385
 1546 02d0 1F7D     		ldrb	r7, [r3, #20]	@ zero_extendqisi2
 1547 02d2 3E43     		orrs	r6, r6, r7
 1548 02d4 1E75     		strb	r6, [r3, #20]
 1549              	.L113:
 1550              	.LVL108:
 244:../../libdaisy/src/dev/oled_ssd130x.h ****         else
 1551              		.loc 6 244 42 view .LVU386
 1552              	.LBE462:
 1553              	.LBE461:
 1554              	.LBE460:
 199:../../libdaisy/src/hid/disp/display.h ****         {
 1555              		.loc 5 199 26 is_stmt 1 view .LVU387
 1556 02d6 019B     		ldr	r3, [sp, #4]
 1557 02d8 002B     		cmp	r3, #0
 1558 02da 7FF4CDAE 		bne	.L71
 1559 02de 6646     		mov	r6, ip
 1560 02e0 0B46     		mov	r3, r1
 1561              	.LVL109:
 1562              	.L115:
 1563              	.LBB467:
 1564              	.LBI467:
 1565              		.loc 1 41 10 view .LVU388
 1566              	.LBB468:
ARM GAS  C:\Users\VINCIU~1\AppData\Local\Temp\ccGpRbsb.s 			page 49


 1567              	.LBI468:
 239:../../libdaisy/src/dev/oled_ssd130x.h ****     {
 1568              		.loc 6 239 10 view .LVU389
 1569              	.LBB469:
 241:../../libdaisy/src/dev/oled_ssd130x.h ****             return;
 1570              		.loc 6 241 9 is_stmt 0 view .LVU390
 1571 02e2 7F2B     		cmp	r3, #127
 1572 02e4 12D8     		bhi	.L117
 241:../../libdaisy/src/dev/oled_ssd130x.h ****             return;
 1573              		.loc 6 241 9 view .LVU391
 1574 02e6 3F2C     		cmp	r4, #63
 1575 02e8 10D8     		bhi	.L117
 244:../../libdaisy/src/dev/oled_ssd130x.h ****         else
 1576              		.loc 6 244 28 view .LVU392
 1577 02ea E708     		lsrs	r7, r4, #3
 244:../../libdaisy/src/dev/oled_ssd130x.h ****         else
 1578              		.loc 6 244 54 view .LVU393
 1579 02ec 04F0070A 		and	r10, r4, #7
 244:../../libdaisy/src/dev/oled_ssd130x.h ****         else
 1580              		.loc 6 244 48 view .LVU394
 1581 02f0 4FF00109 		mov	r9, #1
 244:../../libdaisy/src/dev/oled_ssd130x.h ****         else
 1582              		.loc 6 244 42 view .LVU395
 1583 02f4 03EBC717 		add	r7, r3, r7, lsl #7
 1584 02f8 0744     		add	r7, r7, r0
 243:../../libdaisy/src/dev/oled_ssd130x.h ****             buffer_[x + (y / 8) * width] |= (1 << (y % 8));
 1585              		.loc 6 243 9 view .LVU396
 1586 02fa A5B3     		cbz	r5, .L118
 244:../../libdaisy/src/dev/oled_ssd130x.h ****         else
 1587              		.loc 6 244 48 view .LVU397
 1588 02fc 09FA0AF9 		lsl	r9, r9, r10
 244:../../libdaisy/src/dev/oled_ssd130x.h ****         else
 1589              		.loc 6 244 42 view .LVU398
 1590 0300 97F814A0 		ldrb	r10, [r7, #20]	@ zero_extendqisi2
 1591 0304 49EA0A09 		orr	r9, r9, r10
 1592 0308 87F81490 		strb	r9, [r7, #20]
 1593              	.L117:
 1594              	.LVL110:
 244:../../libdaisy/src/dev/oled_ssd130x.h ****         else
 1595              		.loc 6 244 42 view .LVU399
 1596              	.LBE469:
 1597              	.LBE468:
 1598              	.LBE467:
 203:../../libdaisy/src/hid/disp/display.h ****             {
 1599              		.loc 5 203 13 view .LVU400
 1600 030c BCEB460F 		cmp	ip, r6, lsl #1
 202:../../libdaisy/src/hid/disp/display.h ****             if(error2 > -deltaY)
 1601              		.loc 5 202 20 view .LVU401
 1602 0310 4FEA4607 		lsl	r7, r6, #1
 1603              	.LVL111:
 203:../../libdaisy/src/hid/disp/display.h ****             {
 1604              		.loc 5 203 13 view .LVU402
 1605 0314 02DA     		bge	.L119
 205:../../libdaisy/src/hid/disp/display.h ****                 x1 += signX;
 1606              		.loc 5 205 23 view .LVU403
 1607 0316 A6EB0E06 		sub	r6, r6, lr
 1608              	.LVL112:
ARM GAS  C:\Users\VINCIU~1\AppData\Local\Temp\ccGpRbsb.s 			page 50


 206:../../libdaisy/src/hid/disp/display.h ****             }
 1609              		.loc 5 206 20 view .LVU404
 1610 031a 013B     		subs	r3, r3, #1
 1611              	.LVL113:
 1612              	.L119:
 209:../../libdaisy/src/hid/disp/display.h ****             {
 1613              		.loc 5 209 13 view .LVU405
 1614 031c 07B1     		cbz	r7, .L120
 212:../../libdaisy/src/hid/disp/display.h ****             }
 1615              		.loc 5 212 20 view .LVU406
 1616 031e 4444     		add	r4, r4, r8
 1617              	.LVL114:
 1618              	.L120:
 199:../../libdaisy/src/hid/disp/display.h ****         {
 1619              		.loc 5 199 26 is_stmt 1 view .LVU407
 1620 0320 9942     		cmp	r1, r3
 1621 0322 DED1     		bne	.L115
 199:../../libdaisy/src/hid/disp/display.h ****         {
 1622              		.loc 5 199 26 is_stmt 0 view .LVU408
 1623 0324 A242     		cmp	r2, r4
 1624 0326 DCD1     		bne	.L115
 1625              	.LBE459:
 1626              	.LBE458:
 1627              	.LBE511:
 241:../../libdaisy/src/hid/disp/display.h **** 
 1628              		.loc 5 241 5 view .LVU409
 1629 0328 07B0     		add	sp, sp, #28
 1630              		.cfi_remember_state
 1631              		.cfi_def_cfa_offset 36
 1632              		@ sp needed
 1633 032a BDE8F08F 		pop	{r4, r5, r6, r7, r8, r9, r10, fp, pc}
 1634              	.LVL115:
 1635              	.L80:
 1636              		.cfi_restore_state
 1637              	.LBB512:
 1638              	.LBB478:
 1639              	.LBB395:
 1640              	.LBB391:
 1641              		.loc 1 41 10 is_stmt 1 view .LVU410
 1642              	.LBB380:
 239:../../libdaisy/src/dev/oled_ssd130x.h ****     {
 1643              		.loc 6 239 10 view .LVU411
 1644              	.LBB376:
 241:../../libdaisy/src/dev/oled_ssd130x.h ****             return;
 1645              		.loc 6 241 28 is_stmt 0 view .LVU412
 1646 032e 3F2A     		cmp	r2, #63
 1647              	.LBE376:
 1648              	.LBE380:
 1649              	.LBE391:
 189:../../libdaisy/src/hid/disp/display.h ****         int_fast16_t signY  = ((y1 < y2) ? 1 : -1);
 1650              		.loc 5 189 42 view .LVU413
 1651 0330 4FF0010A 		mov	r10, #1
 1652              	.LBB392:
 1653              	.LBB381:
 1654              	.LBB377:
 241:../../libdaisy/src/dev/oled_ssd130x.h ****             return;
 1655              		.loc 6 241 28 view .LVU414
ARM GAS  C:\Users\VINCIU~1\AppData\Local\Temp\ccGpRbsb.s 			page 51


 1656 0334 94BF     		ite	ls
 1657 0336 0026     		movls	r6, #0
 1658 0338 0126     		movhi	r6, #1
 241:../../libdaisy/src/dev/oled_ssd130x.h ****             return;
 1659              		.loc 6 241 14 view .LVU415
 1660 033a 7F2B     		cmp	r3, #127
 241:../../libdaisy/src/dev/oled_ssd130x.h ****             return;
 1661              		.loc 6 241 28 view .LVU416
 1662 033c 0296     		str	r6, [sp, #8]
 241:../../libdaisy/src/dev/oled_ssd130x.h ****             return;
 1663              		.loc 6 241 14 view .LVU417
 1664 033e 94BF     		ite	ls
 1665 0340 0027     		movls	r7, #0
 1666 0342 0127     		movhi	r7, #1
 1667 0344 0097     		str	r7, [sp]
 241:../../libdaisy/src/dev/oled_ssd130x.h ****             return;
 1668              		.loc 6 241 9 view .LVU418
 1669 0346 002E     		cmp	r6, #0
 1670 0348 7FF4C8AE 		bne	.L84
 1671 034c 002F     		cmp	r7, #0
 1672 034e 3FF4AEAE 		beq	.L122
 1673 0352 C3E6     		b	.L84
 1674              	.LVL116:
 1675              	.L109:
 241:../../libdaisy/src/dev/oled_ssd130x.h ****             return;
 1676              		.loc 6 241 9 view .LVU419
 1677              	.LBE377:
 1678              	.LBE381:
 1679              	.LBE392:
 1680              	.LBE395:
 1681              	.LBE478:
 1682              	.LBB479:
 1683              	.LBB456:
 1684              	.LBB454:
 1685              	.LBB453:
 1686              	.LBB452:
 1687              	.LBB450:
 1688              	.LBI450:
 239:../../libdaisy/src/dev/oled_ssd130x.h ****     {
 1689              		.loc 6 239 10 is_stmt 1 view .LVU420
 1690              	.LBB451:
 1691              		.loc 6 246 49 is_stmt 0 view .LVU421
 1692 0354 08FA0BFB 		lsl	fp, r8, fp
 1693              		.loc 6 246 42 view .LVU422
 1694 0358 9CF81480 		ldrb	r8, [ip, #20]	@ zero_extendqisi2
 1695 035c 28EA0B08 		bic	r8, r8, fp
 1696 0360 8CF81480 		strb	r8, [ip, #20]
 1697 0364 8AE7     		b	.L108
 1698              	.LVL117:
 1699              	.L118:
 1700              		.loc 6 246 42 view .LVU423
 1701              	.LBE451:
 1702              	.LBE450:
 1703              	.LBE452:
 1704              	.LBE453:
 1705              	.LBE454:
 1706              	.LBE456:
ARM GAS  C:\Users\VINCIU~1\AppData\Local\Temp\ccGpRbsb.s 			page 52


 1707              	.LBE479:
 1708              	.LBB480:
 1709              	.LBB476:
 1710              	.LBB474:
 1711              	.LBB473:
 1712              	.LBB472:
 1713              	.LBB470:
 1714              	.LBI470:
 239:../../libdaisy/src/dev/oled_ssd130x.h ****     {
 1715              		.loc 6 239 10 is_stmt 1 view .LVU424
 1716              	.LBB471:
 1717              		.loc 6 246 49 is_stmt 0 view .LVU425
 1718 0366 09FA0AFA 		lsl	r10, r9, r10
 1719              		.loc 6 246 42 view .LVU426
 1720 036a 97F81490 		ldrb	r9, [r7, #20]	@ zero_extendqisi2
 1721 036e 29EA0A09 		bic	r9, r9, r10
 1722 0372 87F81490 		strb	r9, [r7, #20]
 1723 0376 C9E7     		b	.L117
 1724              	.LVL118:
 1725              	.L88:
 1726              		.loc 6 246 42 view .LVU427
 1727              	.LBE471:
 1728              	.LBE470:
 1729              	.LBE472:
 1730              	.LBE473:
 1731              	.LBE474:
 1732              	.LBE476:
 1733              	.LBE480:
 1734              	.LBB481:
 1735              	.LBB396:
 1736              	.LBB393:
 1737              	.LBB390:
 1738              	.LBB389:
 1739              	.LBB387:
 1740              	.LBI387:
 239:../../libdaisy/src/dev/oled_ssd130x.h ****     {
 1741              		.loc 6 239 10 is_stmt 1 view .LVU428
 1742              	.LBB388:
 1743              		.loc 6 246 49 is_stmt 0 view .LVU429
 1744 0378 09FA0BFB 		lsl	fp, r9, fp
 1745              		.loc 6 246 42 view .LVU430
 1746 037c 97F81490 		ldrb	r9, [r7, #20]	@ zero_extendqisi2
 1747 0380 29EA0B09 		bic	r9, r9, fp
 1748 0384 87F81490 		strb	r9, [r7, #20]
 1749 0388 C5E6     		b	.L87
 1750              	.LVL119:
 1751              	.L99:
 1752              		.loc 6 246 42 view .LVU431
 1753              	.LBE388:
 1754              	.LBE387:
 1755              	.LBE389:
 1756              	.LBE390:
 1757              	.LBE393:
 1758              	.LBE396:
 1759              	.LBE481:
 1760              	.LBB482:
 1761              	.LBB432:
ARM GAS  C:\Users\VINCIU~1\AppData\Local\Temp\ccGpRbsb.s 			page 53


 1762              	.LBB429:
 1763              	.LBB428:
 1764              	.LBB427:
 1765              	.LBB425:
 1766              	.LBI425:
 239:../../libdaisy/src/dev/oled_ssd130x.h ****     {
 1767              		.loc 6 239 10 is_stmt 1 view .LVU432
 1768              	.LBB426:
 1769              		.loc 6 246 49 is_stmt 0 view .LVU433
 1770 038a 0AFA0BFB 		lsl	fp, r10, fp
 1771              		.loc 6 246 42 view .LVU434
 1772 038e 9EF814A0 		ldrb	r10, [lr, #20]	@ zero_extendqisi2
 1773 0392 2AEA0B0A 		bic	r10, r10, fp
 1774 0396 8EF814A0 		strb	r10, [lr, #20]
 1775 039a 18E7     		b	.L98
 1776              	.LVL120:
 1777              	.L91:
 1778              		.loc 6 246 42 view .LVU435
 1779              	.LBE426:
 1780              	.LBE425:
 1781              	.LBE427:
 1782              	.LBE428:
 1783              	.LBE429:
 1784              	.LBB430:
 1785              	.LBB416:
 1786              	.LBB410:
 241:../../libdaisy/src/dev/oled_ssd130x.h ****             return;
 1787              		.loc 6 241 9 view .LVU436
 1788 039c 97BB     		cbnz	r7, .L130
 1789 039e 8EBB     		cbnz	r6, .L130
 1790              	.LBE410:
 1791              	.LBE416:
 1792              	.LBE430:
 190:../../libdaisy/src/hid/disp/display.h ****         int_fast16_t error  = deltaX - deltaY;
 1793              		.loc 5 190 42 view .LVU437
 1794 03a0 0126     		movs	r6, #1
 1795 03a2 0096     		str	r6, [sp]
 1796              	.LBB431:
 1797              	.LBB417:
 1798              	.LBB411:
 244:../../libdaisy/src/dev/oled_ssd130x.h ****         else
 1799              		.loc 6 244 28 view .LVU438
 1800 03a4 E608     		lsrs	r6, r4, #3
 244:../../libdaisy/src/dev/oled_ssd130x.h ****         else
 1801              		.loc 6 244 42 view .LVU439
 1802 03a6 03EBC616 		add	r6, r3, r6, lsl #7
 1803 03aa 0644     		add	r6, r6, r0
 243:../../libdaisy/src/dev/oled_ssd130x.h ****             buffer_[x + (y / 8) * width] |= (1 << (y % 8));
 1804              		.loc 6 243 9 view .LVU440
 1805 03ac 002D     		cmp	r5, #0
 1806 03ae 7FF4E2AE 		bne	.L165
 1807              	.LVL121:
 1808              	.L93:
 1809              	.LBB404:
 1810              	.LBI404:
 239:../../libdaisy/src/dev/oled_ssd130x.h ****     {
 1811              		.loc 6 239 10 is_stmt 1 view .LVU441
ARM GAS  C:\Users\VINCIU~1\AppData\Local\Temp\ccGpRbsb.s 			page 54


 1812              	.LBB405:
 1813              		.loc 6 246 49 is_stmt 0 view .LVU442
 1814 03b2 0127     		movs	r7, #1
 1815              		.loc 6 246 55 view .LVU443
 1816 03b4 04F0070C 		and	ip, r4, #7
 1817              		.loc 6 246 42 view .LVU444
 1818 03b8 0395     		str	r5, [sp, #12]
 1819              		.loc 6 246 49 view .LVU445
 1820 03ba 07FA0CFC 		lsl	ip, r7, ip
 1821              		.loc 6 246 42 view .LVU446
 1822 03be 377D     		ldrb	r7, [r6, #20]	@ zero_extendqisi2
 1823 03c0 27EA0C07 		bic	r7, r7, ip
 1824 03c4 3775     		strb	r7, [r6, #20]
 1825 03c6 E3E6     		b	.L92
 1826              	.LVL122:
 1827              	.L114:
 1828              		.loc 6 246 42 view .LVU447
 1829              	.LBE405:
 1830              	.LBE404:
 1831              	.LBE411:
 1832              	.LBE417:
 1833              	.LBE431:
 1834              	.LBE432:
 1835              	.LBE482:
 1836              	.LBB483:
 1837              	.LBB477:
 1838              	.LBB475:
 1839              	.LBB466:
 1840              	.LBB465:
 1841              	.LBB463:
 1842              	.LBI463:
 239:../../libdaisy/src/dev/oled_ssd130x.h ****     {
 1843              		.loc 6 239 10 is_stmt 1 view .LVU448
 1844              	.LBB464:
 1845              		.loc 6 246 49 is_stmt 0 view .LVU449
 1846 03c8 06FA07F7 		lsl	r7, r6, r7
 1847              		.loc 6 246 42 view .LVU450
 1848 03cc 1E7D     		ldrb	r6, [r3, #20]	@ zero_extendqisi2
 1849 03ce 26EA0706 		bic	r6, r6, r7
 1850 03d2 1E75     		strb	r6, [r3, #20]
 1851 03d4 7FE7     		b	.L113
 1852              	.LVL123:
 1853              	.L104:
 1854              		.loc 6 246 42 view .LVU451
 1855              	.LBE464:
 1856              	.LBE463:
 1857              	.LBE465:
 1858              	.LBE466:
 1859              	.LBE475:
 1860              	.LBE477:
 1861              	.LBE483:
 1862              	.LBB484:
 1863              	.LBB457:
 1864              	.LBB455:
 1865              	.LBB445:
 1866              	.LBB443:
 1867              	.LBB440:
ARM GAS  C:\Users\VINCIU~1\AppData\Local\Temp\ccGpRbsb.s 			page 55


 1868              	.LBI440:
 239:../../libdaisy/src/dev/oled_ssd130x.h ****     {
 1869              		.loc 6 239 10 is_stmt 1 view .LVU452
 1870              	.LBB441:
 1871              		.loc 6 246 49 is_stmt 0 view .LVU453
 1872 03d6 0127     		movs	r7, #1
 1873              		.loc 6 246 55 view .LVU454
 1874 03d8 04F0070C 		and	ip, r4, #7
 1875              		.loc 6 246 49 view .LVU455
 1876 03dc 07FA0CFC 		lsl	ip, r7, ip
 1877              		.loc 6 246 42 view .LVU456
 1878 03e0 377D     		ldrb	r7, [r6, #20]	@ zero_extendqisi2
 1879 03e2 27EA0C07 		bic	r7, r7, ip
 1880 03e6 3775     		strb	r7, [r6, #20]
 1881 03e8 2DE7     		b	.L103
 1882              	.LVL124:
 1883              	.L82:
 1884              		.loc 6 246 42 view .LVU457
 1885              	.LBE441:
 1886              	.LBE440:
 1887              	.LBE443:
 1888              	.LBE445:
 1889              	.LBE455:
 1890              	.LBE457:
 1891              	.LBE484:
 1892              	.LBB485:
 1893              	.LBB397:
 1894              	.LBB394:
 1895              	.LBB382:
 1896              	.LBB378:
 1897              	.LBB373:
 1898              	.LBI373:
 239:../../libdaisy/src/dev/oled_ssd130x.h ****     {
 1899              		.loc 6 239 10 is_stmt 1 view .LVU458
 1900              	.LBB374:
 1901              		.loc 6 246 49 is_stmt 0 view .LVU459
 1902 03ea 07FA0CFC 		lsl	ip, r7, ip
 1903              		.loc 6 246 42 view .LVU460
 1904 03ee 377D     		ldrb	r7, [r6, #20]	@ zero_extendqisi2
 1905 03f0 0295     		str	r5, [sp, #8]
 1906 03f2 27EA0C07 		bic	r7, r7, ip
 1907 03f6 0095     		str	r5, [sp]
 1908 03f8 3775     		strb	r7, [r6, #20]
 1909 03fa 6CE6     		b	.L81
 1910              	.LVL125:
 1911              	.L126:
 1912              		.loc 6 246 42 view .LVU461
 1913              	.LBE374:
 1914              	.LBE373:
 1915              	.LBE378:
 1916              	.LBE382:
 1917              	.LBE394:
 1918              	.LBE397:
 1919              	.LBE485:
 1920              	.LBB486:
 1921              	.LBB433:
 190:../../libdaisy/src/hid/disp/display.h ****         int_fast16_t error  = deltaX - deltaY;
ARM GAS  C:\Users\VINCIU~1\AppData\Local\Temp\ccGpRbsb.s 			page 56


 1922              		.loc 5 190 42 view .LVU462
 1923 03fc 4FF0FF36 		mov	r6, #-1
 1924 0400 0096     		str	r6, [sp]
 1925 0402 C5E6     		b	.L92
 1926              	.LVL126:
 1927              	.L130:
 190:../../libdaisy/src/hid/disp/display.h ****         int_fast16_t error  = deltaX - deltaY;
 1928              		.loc 5 190 42 view .LVU463
 1929 0404 0126     		movs	r6, #1
 1930 0406 0096     		str	r6, [sp]
 1931 0408 C5E6     		b	.L95
 1932              	.LVL127:
 1933              	.L163:
 190:../../libdaisy/src/hid/disp/display.h ****         int_fast16_t error  = deltaX - deltaY;
 1934              		.loc 5 190 42 view .LVU464
 1935              	.LBE433:
 1936              	.LBE486:
 1937              	.LBB487:
 1938              	.LBB398:
 199:../../libdaisy/src/hid/disp/display.h ****         {
 1939              		.loc 5 199 19 view .LVU465
 1940 040a 0126     		movs	r6, #1
 1941 040c 0496     		str	r6, [sp, #16]
 1942 040e 90E6     		b	.L83
 1943              	.LVL128:
 1944              	.L164:
 199:../../libdaisy/src/hid/disp/display.h ****         {
 1945              		.loc 5 199 19 view .LVU466
 1946              	.LBE398:
 1947              	.LBE487:
 1948              	.LBB488:
 1949              	.LBB434:
 199:../../libdaisy/src/hid/disp/display.h ****         {
 1950              		.loc 5 199 33 view .LVU467
 1951 0410 0126     		movs	r6, #1
 1952 0412 0196     		str	r6, [sp, #4]
 1953 0414 EDE6     		b	.L94
 1954              	.LBE434:
 1955              	.LBE488:
 1956              	.LBE512:
 1957              		.cfi_endproc
 1958              	.LFE4340:
 1960 0416 00BF     		.section	.rodata._ZN5Menus5Menu1E23OledDisplayExtravaganzaPN7daisysp10OscillatorE.str1.4,"aMS",%pr
 1961              		.align	2
 1962              	.LC1:
 1963 0000 00       		.ascii	"\000"
 1964 0001 000000   		.align	2
 1965              	.LC2:
 1966 0004 4F736300 		.ascii	"Osc\000"
 1967              		.align	2
 1968              	.LC3:
 1969 0008 53656D69 		.ascii	"Semi_%dst\000"
 1969      5F256473 
 1969      7400
 1970 0012 0000     		.align	2
 1971              	.LC4:
 1972 0014 46696E65 		.ascii	"Fine_%d%%\000"
ARM GAS  C:\Users\VINCIU~1\AppData\Local\Temp\ccGpRbsb.s 			page 57


 1972      5F256425 
 1972      2500
 1973              		.section	.text._ZN5Menus5Menu1E23OledDisplayExtravaganzaPN7daisysp10OscillatorE,"ax",%progbits
 1974              		.align	1
 1975              		.p2align 2,,3
 1976              		.global	_ZN5Menus5Menu1E23OledDisplayExtravaganzaPN7daisysp10OscillatorE
 1977              		.syntax unified
 1978              		.thumb
 1979              		.thumb_func
 1980              		.fpu fpv5-d16
 1982              	_ZN5Menus5Menu1E23OledDisplayExtravaganzaPN7daisysp10OscillatorE:
 1983              	.LVL129:
 1984              	.LFB4039:
  88:Menus.cpp     **** 
  89:Menus.cpp     **** void Menus::Menu1(OledDisplayExtravaganza screen, daisysp::Oscillator osc[])
  90:Menus.cpp     **** 
  91:Menus.cpp     **** {
 1985              		.loc 2 91 1 is_stmt 1 view -0
 1986              		.cfi_startproc
 1987              		@ args = 0, pretend = 0, frame = 8
 1988              		@ frame_needed = 0, uses_anonymous_args = 0
 1989              		.loc 2 91 1 is_stmt 0 view .LVU469
 1990 0000 2DE9F043 		push	{r4, r5, r6, r7, r8, r9, lr}
 1991              		.cfi_def_cfa_offset 28
 1992              		.cfi_offset 4, -28
 1993              		.cfi_offset 5, -24
 1994              		.cfi_offset 6, -20
 1995              		.cfi_offset 7, -16
 1996              		.cfi_offset 8, -12
 1997              		.cfi_offset 9, -8
 1998              		.cfi_offset 14, -4
  92:Menus.cpp     ****     screen.Fill(!on);
 1999              		.loc 2 92 18 view .LVU470
 2000 0004 90F86881 		ldrb	r8, [r0, #360]	@ zero_extendqisi2
 2001 0008 01F11406 		add	r6, r1, #20
  91:Menus.cpp     ****     screen.Fill(!on);
 2002              		.loc 2 91 1 view .LVU471
 2003 000c 0C46     		mov	r4, r1
 2004 000e 0546     		mov	r5, r0
 2005              		.loc 2 92 5 is_stmt 1 view .LVU472
 2006              	.LVL130:
 2007              	.LBB734:
 2008              	.LBI734:
  33:../../libdaisy/src/hid/disp/oled_display.h **** 
 2009              		.loc 1 33 10 view .LVU473
 2010              	.LBB735:
 2011              	.LBI735:
 247:../../libdaisy/src/dev/oled_ssd130x.h ****     }
 248:../../libdaisy/src/dev/oled_ssd130x.h **** 
 249:../../libdaisy/src/dev/oled_ssd130x.h ****     void Fill(bool on)
 2012              		.loc 6 249 10 view .LVU474
 2013              	.LBB736:
 250:../../libdaisy/src/dev/oled_ssd130x.h ****     {
 251:../../libdaisy/src/dev/oled_ssd130x.h ****         for(size_t i = 0; i < sizeof(buffer_); i++)
 2014              		.loc 6 251 29 view .LVU475
 252:../../libdaisy/src/dev/oled_ssd130x.h ****         {
 253:../../libdaisy/src/dev/oled_ssd130x.h ****             buffer_[i] = on ? 0xff : 0x00;
ARM GAS  C:\Users\VINCIU~1\AppData\Local\Temp\ccGpRbsb.s 			page 58


 2015              		.loc 6 253 24 is_stmt 0 view .LVU476
 2016 0010 88F00101 		eor	r1, r8, #1
 2017              	.LVL131:
 2018              		.loc 6 253 24 view .LVU477
 2019              	.LBE736:
 2020              	.LBE735:
 2021              	.LBE734:
  91:Menus.cpp     ****     screen.Fill(!on);
 2022              		.loc 2 91 1 view .LVU478
 2023 0014 1746     		mov	r7, r2
 2024              	.LBB743:
 2025              	.LBB740:
 2026              	.LBB737:
 2027              		.loc 6 253 24 view .LVU479
 2028 0016 3046     		mov	r0, r6
 2029              	.LVL132:
 2030              		.loc 6 253 24 view .LVU480
 2031 0018 4FF48062 		mov	r2, #1024
 2032              	.LVL133:
 2033              		.loc 6 253 24 view .LVU481
 2034 001c 4942     		rsbs	r1, r1, #0
 2035              	.LBE737:
 2036              	.LBE740:
 2037              	.LBE743:
  91:Menus.cpp     ****     screen.Fill(!on);
 2038              		.loc 2 91 1 view .LVU482
 2039 001e 2DED028B 		vpush.64	{d8}
 2040              		.cfi_def_cfa_offset 36
 2041              		.cfi_offset 80, -36
 2042              		.cfi_offset 81, -32
 2043              	.LBB744:
 2044              	.LBB741:
 2045              	.LBB738:
 2046              		.loc 6 253 24 view .LVU483
 2047 0022 C9B2     		uxtb	r1, r1
 2048              	.LBE738:
 2049              	.LBE741:
 2050              	.LBE744:
  91:Menus.cpp     ****     screen.Fill(!on);
 2051              		.loc 2 91 1 view .LVU484
 2052 0024 87B0     		sub	sp, sp, #28
 2053              		.cfi_def_cfa_offset 64
 2054              	.LBB745:
 2055              	.LBB742:
 2056              	.LBB739:
 2057              		.loc 6 253 24 view .LVU485
 2058 0026 FFF7FEFF 		bl	memset
 2059              	.LVL134:
 2060              		.loc 6 253 24 view .LVU486
 2061              	.LBE739:
 2062              	.LBE742:
 2063              	.LBE745:
  93:Menus.cpp     ****     if(this->buttonLeft.RisingEdge())
 2064              		.loc 2 93 5 is_stmt 1 view .LVU487
 2065              	.LBB746:
 2066              	.LBI746:
  41:../../libdaisy/src/hid/switch.h ****     ~Switch() {}
ARM GAS  C:\Users\VINCIU~1\AppData\Local\Temp\ccGpRbsb.s 			page 59


  42:../../libdaisy/src/hid/switch.h **** 
  43:../../libdaisy/src/hid/switch.h ****     /** 
  44:../../libdaisy/src/hid/switch.h ****     Initializes the switch object with a given port/pin combo.
  45:../../libdaisy/src/hid/switch.h ****     \param pin port/pin object to tell the switch which hardware pin to use.
  46:../../libdaisy/src/hid/switch.h ****     \param update_rate the rate at which the Debounce() function will be called. (used for timing).
  47:../../libdaisy/src/hid/switch.h ****     \param t switch type -- Default: TYPE_MOMENTARY
  48:../../libdaisy/src/hid/switch.h ****     \param pol switch polarity -- Default: POLARITY_INVERTED
  49:../../libdaisy/src/hid/switch.h ****     \param pu switch pull up/down -- Default: PULL_UP
  50:../../libdaisy/src/hid/switch.h ****     */
  51:../../libdaisy/src/hid/switch.h ****     void
  52:../../libdaisy/src/hid/switch.h ****     Init(dsy_gpio_pin pin, float update_rate, Type t, Polarity pol, Pull pu);
  53:../../libdaisy/src/hid/switch.h **** 
  54:../../libdaisy/src/hid/switch.h ****     /**
  55:../../libdaisy/src/hid/switch.h ****        Simplified Init.
  56:../../libdaisy/src/hid/switch.h ****        \param pin port/pin object to tell the switch which hardware pin to use.
  57:../../libdaisy/src/hid/switch.h ****        \param update_rate the rate at which the Debounce() function will be called. (used for timin
  58:../../libdaisy/src/hid/switch.h ****     */
  59:../../libdaisy/src/hid/switch.h ****     void Init(dsy_gpio_pin pin, float update_rate);
  60:../../libdaisy/src/hid/switch.h **** 
  61:../../libdaisy/src/hid/switch.h ****     /** 
  62:../../libdaisy/src/hid/switch.h ****     Called at update_rate to debounce and handle timing for the switch.
  63:../../libdaisy/src/hid/switch.h ****     In order for events not to be missed, its important that the Edge/Pressed checks
  64:../../libdaisy/src/hid/switch.h ****     be made at the same rate as the debounce function is being called.
  65:../../libdaisy/src/hid/switch.h ****     */
  66:../../libdaisy/src/hid/switch.h ****     void Debounce();
  67:../../libdaisy/src/hid/switch.h **** 
  68:../../libdaisy/src/hid/switch.h ****     /** \return true if a button was just pressed. */
  69:../../libdaisy/src/hid/switch.h ****     inline bool RisingEdge() const { return state_ == 0x7f; }
 2067              		.loc 4 69 17 view .LVU488
 2068              	.LBB747:
 2069              		.loc 4 69 38 view .LVU489
 2070              		.loc 4 69 38 is_stmt 0 view .LVU490
 2071              	.LBE747:
 2072              	.LBE746:
 2073              		.loc 2 93 5 view .LVU491
 2074 002a 95F85130 		ldrb	r3, [r5, #81]	@ zero_extendqisi2
 2075 002e 7F2B     		cmp	r3, #127
 2076 0030 00F0BC82 		beq	.L282
  94:Menus.cpp     **** 
  95:Menus.cpp     ****     {
  96:Menus.cpp     ****         menuState = menuState - 1;
  97:Menus.cpp     ****         if(menuState < 0)
  98:Menus.cpp     ****         {
  99:Menus.cpp     ****             menuState = 3;
 100:Menus.cpp     ****         }
 101:Menus.cpp     ****     }
 102:Menus.cpp     ****     if(this->buttonRight.RisingEdge())
 2077              		.loc 2 102 5 is_stmt 1 view .LVU492
 2078              	.LVL135:
 2079              	.LBB748:
 2080              	.LBI748:
 2081              		.loc 4 69 17 view .LVU493
 2082              	.LBB749:
 2083              		.loc 4 69 38 view .LVU494
 2084              		.loc 4 69 38 is_stmt 0 view .LVU495
 2085              	.LBE749:
 2086              	.LBE748:
ARM GAS  C:\Users\VINCIU~1\AppData\Local\Temp\ccGpRbsb.s 			page 60


 2087              		.loc 2 102 5 view .LVU496
 2088 0034 95F86130 		ldrb	r3, [r5, #97]	@ zero_extendqisi2
 2089 0038 7F2B     		cmp	r3, #127
 2090 003a 00F0C082 		beq	.L283
 2091              	.L170:
 103:Menus.cpp     **** 
 104:Menus.cpp     ****     {
 105:Menus.cpp     ****         menuState = menuState + 1;
 106:Menus.cpp     ****         if(menuState > 3)
 107:Menus.cpp     ****         {
 108:Menus.cpp     ****             menuState = 0;
 109:Menus.cpp     ****         }
 110:Menus.cpp     ****     }
 111:Menus.cpp     **** 
 112:Menus.cpp     ****     screen.drawHorizontalToggle(46, 13, 8, on, this->OscSelector, "");
 2092              		.loc 2 112 5 is_stmt 1 view .LVU497
 2093              		.loc 2 112 32 is_stmt 0 view .LVU498
 2094 003e 4146     		mov	r1, r8
 2095 0040 B2EE001A 		vmov.f32	s2, #8.0e+0
 2096 0044 F2EE0A0A 		vmov.f32	s1, #1.3e+1
 2097 0048 9FEDC30A 		vldr.32	s0, .L307
 2098 004c C34B     		ldr	r3, .L307+4
 2099 004e 2046     		mov	r0, r4
 2100 0050 95F87420 		ldrb	r2, [r5, #116]	@ zero_extendqisi2
 2101 0054 FFF7FEFF 		bl	_ZN23OledDisplayExtravaganza20drawHorizontalToggleEfffbbPKc
 2102              	.LVL136:
 113:Menus.cpp     **** 
 114:Menus.cpp     ****     if(this->OscSelector == true)
 2103              		.loc 2 114 5 is_stmt 1 view .LVU499
 2104 0058 95F87480 		ldrb	r8, [r5, #116]	@ zero_extendqisi2
 2105 005c B8F1000F 		cmp	r8, #0
 2106 0060 00F02681 		beq	.L172
 115:Menus.cpp     ****     {
 116:Menus.cpp     ****         screen.drawSlider(70, 7, 50, 3, on, ((this->drawSliderSemi)) / 40);
 2107              		.loc 2 116 9 view .LVU500
 2108              		.loc 2 116 26 is_stmt 0 view .LVU501
 2109 0064 95F86831 		ldrb	r3, [r5, #360]	@ zero_extendqisi2
 2110 0068 F0EE081A 		vmov.f32	s3, #3.0e+0
 2111 006c D5ED1E2A 		vldr.32	s5, [r5, #120]
 2112 0070 F1EE0C0A 		vmov.f32	s1, #7.0e+0
 2113 0074 02EE103A 		vmov	s4, r3	@ int
 2114 0078 9FEDC68A 		vldr.32	s16, .L307+60
 2115 007c 2046     		mov	r0, r4
 2116 007e 9FEDB81A 		vldr.32	s2, .L307+8
 2117 0082 C2EE882A 		vdiv.f32	s5, s5, s16
 2118 0086 9FEDB70A 		vldr.32	s0, .L307+12
 117:Menus.cpp     ****         screen.drawSlider(70, 40, 50, 3, on, drawSliderFine);
 118:Menus.cpp     ****         screen.drawVerticalToggle(13, 51, 8, on, this->toggleOsc, "");
 119:Menus.cpp     ****         screen.WaveIcons(35, 42, 55, this->selectedWave, on);
 120:Menus.cpp     ****         screen.SetCursor(70, 17);
 121:Menus.cpp     ****         screen.WriteString(this->buff, Font_6x8, true);
 2119              		.loc 2 121 27 view .LVU502
 2120 008a DFF8FC82 		ldr	r8, .L307+48
 2121 008e 4FF00109 		mov	r9, #1
 116:Menus.cpp     ****         screen.drawSlider(70, 40, 50, 3, on, drawSliderFine);
 2122              		.loc 2 116 26 view .LVU503
 2123 0092 B8EE422A 		vcvt.f32.u32	s4, s4
ARM GAS  C:\Users\VINCIU~1\AppData\Local\Temp\ccGpRbsb.s 			page 61


 2124 0096 FFF7FEFF 		bl	_ZN23OledDisplayExtravaganza10drawSliderEffffff
 2125              	.LVL137:
 117:Menus.cpp     ****         screen.drawSlider(70, 40, 50, 3, on, drawSliderFine);
 2126              		.loc 2 117 9 is_stmt 1 view .LVU504
 117:Menus.cpp     ****         screen.drawSlider(70, 40, 50, 3, on, drawSliderFine);
 2127              		.loc 2 117 26 is_stmt 0 view .LVU505
 2128 009a 95F86831 		ldrb	r3, [r5, #360]	@ zero_extendqisi2
 2129 009e F0EE081A 		vmov.f32	s3, #3.0e+0
 2130 00a2 D5ED1F2A 		vldr.32	s5, [r5, #124]
 2131 00a6 02EE103A 		vmov	s4, r3	@ int
 2132 00aa F0EE480A 		vmov.f32	s1, s16
 2133 00ae 2046     		mov	r0, r4
 2134 00b0 9FEDAB1A 		vldr.32	s2, .L307+8
 2135 00b4 B8EE422A 		vcvt.f32.u32	s4, s4
 2136 00b8 9FEDAA0A 		vldr.32	s0, .L307+12
 2137 00bc FFF7FEFF 		bl	_ZN23OledDisplayExtravaganza10drawSliderEffffff
 2138              	.LVL138:
 118:Menus.cpp     ****         screen.WaveIcons(35, 42, 55, this->selectedWave, on);
 2139              		.loc 2 118 9 is_stmt 1 view .LVU506
 118:Menus.cpp     ****         screen.WaveIcons(35, 42, 55, this->selectedWave, on);
 2140              		.loc 2 118 34 is_stmt 0 view .LVU507
 2141 00c0 B2EE001A 		vmov.f32	s2, #8.0e+0
 2142 00c4 B2EE0A0A 		vmov.f32	s0, #1.3e+1
 2143 00c8 DFEDA70A 		vldr.32	s1, .L307+16
 2144 00cc 2046     		mov	r0, r4
 2145 00ce A34B     		ldr	r3, .L307+4
 2146 00d0 95F89820 		ldrb	r2, [r5, #152]	@ zero_extendqisi2
 2147 00d4 95F86811 		ldrb	r1, [r5, #360]	@ zero_extendqisi2
 2148 00d8 FFF7FEFF 		bl	_ZN23OledDisplayExtravaganza18drawVerticalToggleEfffbbPKc
 2149              	.LVL139:
 119:Menus.cpp     ****         screen.SetCursor(70, 17);
 2150              		.loc 2 119 9 is_stmt 1 view .LVU508
 119:Menus.cpp     ****         screen.SetCursor(70, 17);
 2151              		.loc 2 119 25 is_stmt 0 view .LVU509
 2152 00dc 95F86831 		ldrb	r3, [r5, #360]	@ zero_extendqisi2
 2153 00e0 2046     		mov	r0, r4
 2154 00e2 2A22     		movs	r2, #42
 2155 00e4 0193     		str	r3, [sp, #4]
 2156 00e6 2321     		movs	r1, #35
 2157 00e8 D5F89C30 		ldr	r3, [r5, #156]
 2158 00ec 0093     		str	r3, [sp]
 2159 00ee 3723     		movs	r3, #55
 2160 00f0 FFF7FEFF 		bl	_ZN23OledDisplayExtravaganza9WaveIconsEiiiib
 2161              	.LVL140:
 120:Menus.cpp     ****         screen.WriteString(this->buff, Font_6x8, true);
 2162              		.loc 2 120 9 is_stmt 1 view .LVU510
 2163              	.LBB752:
 2164              	.LBI752:
 131:../../libdaisy/src/hid/disp/display.h ****     {
 2165              		.loc 5 131 10 view .LVU511
 2166              	.LBB753:
 133:../../libdaisy/src/hid/disp/display.h ****         currentY_ = (y >= Height()) ? Height() - 1 : y;
 2167              		.loc 5 133 9 view .LVU512
 134:../../libdaisy/src/hid/disp/display.h ****     }
 2168              		.loc 5 134 9 view .LVU513
 133:../../libdaisy/src/hid/disp/display.h ****         currentY_ = (y >= Height()) ? Height() - 1 : y;
 2169              		.loc 5 133 19 is_stmt 0 view .LVU514
ARM GAS  C:\Users\VINCIU~1\AppData\Local\Temp\ccGpRbsb.s 			page 62


 2170 00f4 9D4B     		ldr	r3, .L307+20
 2171              	.LBE753:
 2172              	.LBE752:
 2173              		.loc 2 121 27 view .LVU515
 2174 00f6 05F1A401 		add	r1, r5, #164
 2175 00fa 2046     		mov	r0, r4
 2176              	.LBB755:
 2177              	.LBB754:
 133:../../libdaisy/src/hid/disp/display.h ****         currentY_ = (y >= Height()) ? Height() - 1 : y;
 2178              		.loc 5 133 19 view .LVU516
 2179 00fc 6360     		str	r3, [r4, #4]
 2180              	.LVL141:
 133:../../libdaisy/src/hid/disp/display.h ****         currentY_ = (y >= Height()) ? Height() - 1 : y;
 2181              		.loc 5 133 19 view .LVU517
 2182              	.LBE754:
 2183              	.LBE755:
 2184              		.loc 2 121 9 is_stmt 1 view .LVU518
 2185              		.loc 2 121 27 is_stmt 0 view .LVU519
 2186 00fe CDF80090 		str	r9, [sp]
 2187 0102 98E80C00 		ldm	r8, {r2, r3}
 2188 0106 FFF7FEFF 		bl	_ZN5daisy25OneBitGraphicsDisplayImplINS_11OledDisplayINS_13SSD130xDriverILj128ELj64ENS_24SSD130
 2189              	.LVL142:
 122:Menus.cpp     ****         screen.SetCursor(70, 50);
 2190              		.loc 2 122 9 is_stmt 1 view .LVU520
 2191              	.LBB756:
 2192              	.LBI756:
 131:../../libdaisy/src/hid/disp/display.h ****     {
 2193              		.loc 5 131 10 view .LVU521
 2194              	.LBB757:
 133:../../libdaisy/src/hid/disp/display.h ****         currentY_ = (y >= Height()) ? Height() - 1 : y;
 2195              		.loc 5 133 9 view .LVU522
 134:../../libdaisy/src/hid/disp/display.h ****     }
 2196              		.loc 5 134 9 view .LVU523
 133:../../libdaisy/src/hid/disp/display.h ****         currentY_ = (y >= Height()) ? Height() - 1 : y;
 2197              		.loc 5 133 19 is_stmt 0 view .LVU524
 2198 010a 994B     		ldr	r3, .L307+24
 2199              	.LBE757:
 2200              	.LBE756:
 123:Menus.cpp     ****         screen.WriteString(this->buffFine, Font_6x8, true);
 2201              		.loc 2 123 27 view .LVU525
 2202 010c CDF80090 		str	r9, [sp]
 2203 0110 05F1D401 		add	r1, r5, #212
 2204              	.LBB759:
 2205              	.LBB758:
 133:../../libdaisy/src/hid/disp/display.h ****         currentY_ = (y >= Height()) ? Height() - 1 : y;
 2206              		.loc 5 133 19 view .LVU526
 2207 0114 6360     		str	r3, [r4, #4]
 2208              	.LVL143:
 133:../../libdaisy/src/hid/disp/display.h ****         currentY_ = (y >= Height()) ? Height() - 1 : y;
 2209              		.loc 5 133 19 view .LVU527
 2210              	.LBE758:
 2211              	.LBE759:
 2212              		.loc 2 123 9 is_stmt 1 view .LVU528
 2213              		.loc 2 123 27 is_stmt 0 view .LVU529
 2214 0116 2046     		mov	r0, r4
 2215 0118 98E80C00 		ldm	r8, {r2, r3}
 2216 011c FFF7FEFF 		bl	_ZN5daisy25OneBitGraphicsDisplayImplINS_11OledDisplayINS_13SSD130xDriverILj128ELj64ENS_24SSD130
ARM GAS  C:\Users\VINCIU~1\AppData\Local\Temp\ccGpRbsb.s 			page 63


 2217              	.LVL144:
 2218              	.L173:
 124:Menus.cpp     ****     }
 125:Menus.cpp     ****     else
 126:Menus.cpp     ****     {
 127:Menus.cpp     ****         screen.drawSlider(70, 7, 50, 3, false, (this->drawSliderSemi2) / 40);
 128:Menus.cpp     ****         screen.drawSlider(70, 40, 50, 3, false, drawSliderFine2);
 129:Menus.cpp     ****         screen.drawVerticalToggle(13, 51, 8, false, this->toggleOsc2, "");
 130:Menus.cpp     ****         screen.WaveIcons(35, 42, 55, this->selectedWave2, false);
 131:Menus.cpp     ****         screen.SetCursor(70, 17);
 132:Menus.cpp     ****         screen.WriteString(this->buff2, Font_6x8, false);
 133:Menus.cpp     ****         screen.SetCursor(70, 50);
 134:Menus.cpp     ****         screen.WriteString(this->buffFine2, Font_6x8, false);
 135:Menus.cpp     ****     }
 136:Menus.cpp     **** 
 137:Menus.cpp     **** 
 138:Menus.cpp     ****     screen.SetCursor(4, 8);
 2219              		.loc 2 138 5 is_stmt 1 view .LVU530
 2220              	.LBB760:
 2221              	.LBI760:
 131:../../libdaisy/src/hid/disp/display.h ****     {
 2222              		.loc 5 131 10 view .LVU531
 2223              	.LBB761:
 133:../../libdaisy/src/hid/disp/display.h ****         currentY_ = (y >= Height()) ? Height() - 1 : y;
 2224              		.loc 5 133 9 view .LVU532
 134:../../libdaisy/src/hid/disp/display.h ****     }
 2225              		.loc 5 134 9 view .LVU533
 133:../../libdaisy/src/hid/disp/display.h ****         currentY_ = (y >= Height()) ? Height() - 1 : y;
 2226              		.loc 5 133 19 is_stmt 0 view .LVU534
 2227 0120 944B     		ldr	r3, .L307+28
 2228              	.LBE761:
 2229              	.LBE760:
 139:Menus.cpp     ****     screen.WriteString("Osc", Font_7x10, on);
 2230              		.loc 2 139 23 view .LVU535
 2231 0122 2046     		mov	r0, r4
 2232 0124 95F86821 		ldrb	r2, [r5, #360]	@ zero_extendqisi2
 2233              	.LBB763:
 2234              	.LBB762:
 133:../../libdaisy/src/hid/disp/display.h ****         currentY_ = (y >= Height()) ? Height() - 1 : y;
 2235              		.loc 5 133 19 view .LVU536
 2236 0128 6360     		str	r3, [r4, #4]
 2237              	.LVL145:
 133:../../libdaisy/src/hid/disp/display.h ****         currentY_ = (y >= Height()) ? Height() - 1 : y;
 2238              		.loc 5 133 19 view .LVU537
 2239              	.LBE762:
 2240              	.LBE763:
 2241              		.loc 2 139 5 is_stmt 1 view .LVU538
 2242              		.loc 2 139 23 is_stmt 0 view .LVU539
 2243 012a 934B     		ldr	r3, .L307+32
 2244 012c 0092     		str	r2, [sp]
 2245 012e 9349     		ldr	r1, .L307+36
 2246 0130 0CCB     		ldm	r3, {r2, r3}
 2247 0132 FFF7FEFF 		bl	_ZN5daisy25OneBitGraphicsDisplayImplINS_11OledDisplayINS_13SSD130xDriverILj128ELj64ENS_24SSD130
 2248              	.LVL146:
 140:Menus.cpp     **** 
 141:Menus.cpp     **** 
 142:Menus.cpp     ****     for(int i = 0; i < screen.Width(); i++)
ARM GAS  C:\Users\VINCIU~1\AppData\Local\Temp\ccGpRbsb.s 			page 64


 2249              		.loc 2 142 5 is_stmt 1 view .LVU540
 2250              	.LBB764:
 2251              		.loc 2 142 22 view .LVU541
 143:Menus.cpp     ****     {
 144:Menus.cpp     ****         screen.DrawPixel(i * 3, (screen.Height() / 2) - 3, on);
 2252              		.loc 2 144 25 is_stmt 0 view .LVU542
 2253 0136 95F86801 		ldrb	r0, [r5, #360]	@ zero_extendqisi2
 2254 013a A446     		mov	ip, r4
 2255 013c 0023     		movs	r3, #0
 2256              	.LVL147:
 2257              	.L178:
 2258              		.loc 2 144 9 is_stmt 1 discriminator 2 view .LVU543
 2259              	.LBB765:
 2260              	.LBI765:
 2261              		.loc 1 41 10 discriminator 2 view .LVU544
 2262              	.LBB766:
 2263              	.LBI766:
 239:../../libdaisy/src/dev/oled_ssd130x.h ****     {
 2264              		.loc 6 239 10 discriminator 2 view .LVU545
 2265              	.LBB767:
 241:../../libdaisy/src/dev/oled_ssd130x.h ****             return;
 2266              		.loc 6 241 9 is_stmt 0 discriminator 2 view .LVU546
 2267 013e 7F2B     		cmp	r3, #127
 2268 0140 0DD8     		bhi	.L174
 2269              	.LVL148:
 2270              	.L284:
 2271              	.LBB768:
 2272              	.LBI768:
 239:../../libdaisy/src/dev/oled_ssd130x.h ****     {
 2273              		.loc 6 239 10 is_stmt 1 view .LVU547
 239:../../libdaisy/src/dev/oled_ssd130x.h ****     {
 2274              		.loc 6 239 10 is_stmt 0 view .LVU548
 2275              	.LBE768:
 244:../../libdaisy/src/dev/oled_ssd130x.h ****         else
 2276              		.loc 6 244 42 view .LVU549
 2277 0142 9CF89421 		ldrb	r2, [ip, #404]	@ zero_extendqisi2
 243:../../libdaisy/src/dev/oled_ssd130x.h ****             buffer_[x + (y / 8) * width] |= (1 << (y % 8));
 2278              		.loc 6 243 9 view .LVU550
 2279 0146 0028     		cmp	r0, #0
 2280 0148 00F09B80 		beq	.L175
 244:../../libdaisy/src/dev/oled_ssd130x.h ****         else
 2281              		.loc 6 244 42 view .LVU551
 2282 014c 42F02002 		orr	r2, r2, #32
 2283 0150 8CF89421 		strb	r2, [ip, #404]
 2284              	.L176:
 2285              	.LVL149:
 244:../../libdaisy/src/dev/oled_ssd130x.h ****         else
 2286              		.loc 6 244 42 view .LVU552
 2287              	.LBE767:
 2288              	.LBE766:
 2289              	.LBE765:
 142:Menus.cpp     ****     {
 2290              		.loc 2 142 5 is_stmt 1 view .LVU553
 142:Menus.cpp     ****     {
 2291              		.loc 2 142 22 view .LVU554
 2292 0154 0333     		adds	r3, r3, #3
 2293 0156 0CF1030C 		add	ip, ip, #3
ARM GAS  C:\Users\VINCIU~1\AppData\Local\Temp\ccGpRbsb.s 			page 65


 2294              		.loc 2 144 9 view .LVU555
 2295              	.LVL150:
 2296              	.LBB775:
 2297              		.loc 1 41 10 view .LVU556
 2298              	.LBB773:
 239:../../libdaisy/src/dev/oled_ssd130x.h ****     {
 2299              		.loc 6 239 10 view .LVU557
 2300              	.LBB771:
 241:../../libdaisy/src/dev/oled_ssd130x.h ****             return;
 2301              		.loc 6 241 9 is_stmt 0 view .LVU558
 2302 015a 7F2B     		cmp	r3, #127
 2303 015c F1D9     		bls	.L284
 2304              	.LVL151:
 2305              	.L174:
 241:../../libdaisy/src/dev/oled_ssd130x.h ****             return;
 2306              		.loc 6 241 9 view .LVU559
 2307              	.LBE771:
 2308              	.LBE773:
 2309              	.LBE775:
 142:Menus.cpp     ****     {
 2310              		.loc 2 142 5 is_stmt 1 view .LVU560
 142:Menus.cpp     ****     {
 2311              		.loc 2 142 22 view .LVU561
 2312 015e 0333     		adds	r3, r3, #3
 2313 0160 0CF1030C 		add	ip, ip, #3
 2314 0164 B3F5C07F 		cmp	r3, #384
 2315 0168 E9D1     		bne	.L178
 2316 016a 0023     		movs	r3, #0
 2317              	.L177:
 2318              	.LBE764:
 2319              	.LBB777:
 145:Menus.cpp     ****     }
 146:Menus.cpp     ****     for(int i = 0; i < screen.Height(); i++)
 147:Menus.cpp     ****     {
 148:Menus.cpp     ****         screen.DrawPixel(60, i * 2, on);
 2320              		.loc 2 148 9 discriminator 2 view .LVU562
 2321              	.LVL152:
 2322              	.LBB778:
 2323              	.LBI778:
 2324              		.loc 1 41 10 discriminator 2 view .LVU563
 2325              	.LBB779:
 2326              	.LBI779:
 239:../../libdaisy/src/dev/oled_ssd130x.h ****     {
 2327              		.loc 6 239 10 discriminator 2 view .LVU564
 2328              	.LBB780:
 241:../../libdaisy/src/dev/oled_ssd130x.h ****             return;
 2329              		.loc 6 241 9 is_stmt 0 discriminator 2 view .LVU565
 2330 016c 3F2B     		cmp	r3, #63
 2331 016e 14D8     		bhi	.L179
 2332              	.LVL153:
 2333              	.L285:
 2334              	.LBB781:
 2335              	.LBI781:
 239:../../libdaisy/src/dev/oled_ssd130x.h ****     {
 2336              		.loc 6 239 10 is_stmt 1 view .LVU566
 239:../../libdaisy/src/dev/oled_ssd130x.h ****     {
 2337              		.loc 6 239 10 is_stmt 0 view .LVU567
ARM GAS  C:\Users\VINCIU~1\AppData\Local\Temp\ccGpRbsb.s 			page 66


 2338              	.LBE781:
 244:../../libdaisy/src/dev/oled_ssd130x.h ****         else
 2339              		.loc 6 244 48 view .LVU568
 2340 0170 0121     		movs	r1, #1
 244:../../libdaisy/src/dev/oled_ssd130x.h ****         else
 2341              		.loc 6 244 28 view .LVU569
 2342 0172 4FEAD30C 		lsr	ip, r3, #3
 244:../../libdaisy/src/dev/oled_ssd130x.h ****         else
 2343              		.loc 6 244 54 view .LVU570
 2344 0176 03F0070E 		and	lr, r3, #7
 2345              	.LBB784:
 2346              	.LBB782:
 246:../../libdaisy/src/dev/oled_ssd130x.h ****     }
 2347              		.loc 6 246 49 view .LVU571
 2348 017a 8846     		mov	r8, r1
 2349              	.LBE782:
 2350              	.LBE784:
 244:../../libdaisy/src/dev/oled_ssd130x.h ****         else
 2351              		.loc 6 244 42 view .LVU572
 2352 017c 04EBCC1C 		add	ip, r4, ip, lsl #7
 244:../../libdaisy/src/dev/oled_ssd130x.h ****         else
 2353              		.loc 6 244 48 view .LVU573
 2354 0180 01FA0EF1 		lsl	r1, r1, lr
 243:../../libdaisy/src/dev/oled_ssd130x.h ****             buffer_[x + (y / 8) * width] |= (1 << (y % 8));
 2355              		.loc 6 243 9 view .LVU574
 2356 0184 0028     		cmp	r0, #0
 2357 0186 00F08180 		beq	.L180
 244:../../libdaisy/src/dev/oled_ssd130x.h ****         else
 2358              		.loc 6 244 42 view .LVU575
 2359 018a 9CF85020 		ldrb	r2, [ip, #80]	@ zero_extendqisi2
 2360 018e 1143     		orrs	r1, r1, r2
 2361 0190 8CF85010 		strb	r1, [ip, #80]
 2362              	.L181:
 2363              	.LVL154:
 244:../../libdaisy/src/dev/oled_ssd130x.h ****         else
 2364              		.loc 6 244 42 view .LVU576
 2365              	.LBE780:
 2366              	.LBE779:
 2367              	.LBE778:
 146:Menus.cpp     ****     {
 2368              		.loc 2 146 5 is_stmt 1 view .LVU577
 146:Menus.cpp     ****     {
 2369              		.loc 2 146 22 view .LVU578
 2370 0194 0233     		adds	r3, r3, #2
 2371              		.loc 2 148 9 view .LVU579
 2372              	.LVL155:
 2373              	.LBB790:
 2374              		.loc 1 41 10 view .LVU580
 2375              	.LBB788:
 239:../../libdaisy/src/dev/oled_ssd130x.h ****     {
 2376              		.loc 6 239 10 view .LVU581
 2377              	.LBB786:
 241:../../libdaisy/src/dev/oled_ssd130x.h ****             return;
 2378              		.loc 6 241 9 is_stmt 0 view .LVU582
 2379 0196 3F2B     		cmp	r3, #63
 2380 0198 EAD9     		bls	.L285
 2381              	.LVL156:
ARM GAS  C:\Users\VINCIU~1\AppData\Local\Temp\ccGpRbsb.s 			page 67


 2382              	.L179:
 241:../../libdaisy/src/dev/oled_ssd130x.h ****             return;
 2383              		.loc 6 241 9 view .LVU583
 2384              	.LBE786:
 2385              	.LBE788:
 2386              	.LBE790:
 146:Menus.cpp     ****     {
 2387              		.loc 2 146 5 is_stmt 1 view .LVU584
 146:Menus.cpp     ****     {
 2388              		.loc 2 146 22 view .LVU585
 2389 019a 0233     		adds	r3, r3, #2
 2390 019c 802B     		cmp	r3, #128
 2391 019e E5D1     		bne	.L177
 2392 01a0 1E23     		movs	r3, #30
 2393              	.L182:
 2394              	.LBE777:
 2395              	.LBB792:
 149:Menus.cpp     ****     }
 150:Menus.cpp     ****     for(int i = screen.Height() / 4 - 1; i < screen.Height(); i++)
 151:Menus.cpp     ****     {
 152:Menus.cpp     ****         screen.DrawPixel(29, i * 2, on);
 2396              		.loc 2 152 9 discriminator 2 view .LVU586
 2397              	.LVL157:
 2398              	.LBB793:
 2399              	.LBI793:
 2400              		.loc 1 41 10 discriminator 2 view .LVU587
 2401              	.LBB794:
 2402              	.LBI794:
 239:../../libdaisy/src/dev/oled_ssd130x.h ****     {
 2403              		.loc 6 239 10 discriminator 2 view .LVU588
 2404              	.LBB795:
 241:../../libdaisy/src/dev/oled_ssd130x.h ****             return;
 2405              		.loc 6 241 9 is_stmt 0 discriminator 2 view .LVU589
 2406 01a2 3F2B     		cmp	r3, #63
 2407 01a4 13D8     		bhi	.L183
 2408              	.LVL158:
 2409              	.L286:
 2410              	.LBB796:
 2411              	.LBI796:
 239:../../libdaisy/src/dev/oled_ssd130x.h ****     {
 2412              		.loc 6 239 10 is_stmt 1 view .LVU590
 239:../../libdaisy/src/dev/oled_ssd130x.h ****     {
 2413              		.loc 6 239 10 is_stmt 0 view .LVU591
 2414              	.LBE796:
 244:../../libdaisy/src/dev/oled_ssd130x.h ****         else
 2415              		.loc 6 244 48 view .LVU592
 2416 01a6 0122     		movs	r2, #1
 244:../../libdaisy/src/dev/oled_ssd130x.h ****         else
 2417              		.loc 6 244 28 view .LVU593
 2418 01a8 4FEAD30C 		lsr	ip, r3, #3
 244:../../libdaisy/src/dev/oled_ssd130x.h ****         else
 2419              		.loc 6 244 54 view .LVU594
 2420 01ac 03F0070E 		and	lr, r3, #7
 2421              	.LBB799:
 2422              	.LBB797:
 246:../../libdaisy/src/dev/oled_ssd130x.h ****     }
 2423              		.loc 6 246 49 view .LVU595
ARM GAS  C:\Users\VINCIU~1\AppData\Local\Temp\ccGpRbsb.s 			page 68


 2424 01b0 9046     		mov	r8, r2
 2425              	.LBE797:
 2426              	.LBE799:
 244:../../libdaisy/src/dev/oled_ssd130x.h ****         else
 2427              		.loc 6 244 42 view .LVU596
 2428 01b2 04EBCC1C 		add	ip, r4, ip, lsl #7
 244:../../libdaisy/src/dev/oled_ssd130x.h ****         else
 2429              		.loc 6 244 48 view .LVU597
 2430 01b6 02FA0EF2 		lsl	r2, r2, lr
 243:../../libdaisy/src/dev/oled_ssd130x.h ****             buffer_[x + (y / 8) * width] |= (1 << (y % 8));
 2431              		.loc 6 243 9 view .LVU598
 2432 01ba 0028     		cmp	r0, #0
 2433 01bc 6FD0     		beq	.L184
 244:../../libdaisy/src/dev/oled_ssd130x.h ****         else
 2434              		.loc 6 244 42 view .LVU599
 2435 01be 9CF83110 		ldrb	r1, [ip, #49]	@ zero_extendqisi2
 2436 01c2 0A43     		orrs	r2, r2, r1
 2437 01c4 8CF83120 		strb	r2, [ip, #49]
 2438              	.L185:
 2439              	.LVL159:
 244:../../libdaisy/src/dev/oled_ssd130x.h ****         else
 2440              		.loc 6 244 42 view .LVU600
 2441              	.LBE795:
 2442              	.LBE794:
 2443              	.LBE793:
 150:Menus.cpp     ****     {
 2444              		.loc 2 150 5 is_stmt 1 view .LVU601
 150:Menus.cpp     ****     {
 2445              		.loc 2 150 44 view .LVU602
 2446 01c8 0233     		adds	r3, r3, #2
 2447              		.loc 2 152 9 view .LVU603
 2448              	.LVL160:
 2449              	.LBB805:
 2450              		.loc 1 41 10 view .LVU604
 2451              	.LBB803:
 239:../../libdaisy/src/dev/oled_ssd130x.h ****     {
 2452              		.loc 6 239 10 view .LVU605
 2453              	.LBB801:
 241:../../libdaisy/src/dev/oled_ssd130x.h ****             return;
 2454              		.loc 6 241 9 is_stmt 0 view .LVU606
 2455 01ca 3F2B     		cmp	r3, #63
 2456 01cc EBD9     		bls	.L286
 2457              	.LVL161:
 2458              	.L183:
 241:../../libdaisy/src/dev/oled_ssd130x.h ****             return;
 2459              		.loc 6 241 9 view .LVU607
 2460              	.LBE801:
 2461              	.LBE803:
 2462              	.LBE805:
 150:Menus.cpp     ****     {
 2463              		.loc 2 150 5 is_stmt 1 view .LVU608
 150:Menus.cpp     ****     {
 2464              		.loc 2 150 44 view .LVU609
 2465 01ce 0233     		adds	r3, r3, #2
 2466 01d0 802B     		cmp	r3, #128
 2467 01d2 E6D1     		bne	.L182
 2468              	.LBE792:
ARM GAS  C:\Users\VINCIU~1\AppData\Local\Temp\ccGpRbsb.s 			page 69


 153:Menus.cpp     ****     }
 154:Menus.cpp     **** 
 155:Menus.cpp     ****     if(encoderLeft.RisingEdge())
 2469              		.loc 2 155 5 view .LVU610
 2470              	.LVL162:
 2471              	.LBB807:
 2472              	.LBB808:
 2473              	.LBI808:
  42:../../libdaisy/src/hid/encoder.h ****     /** Returns true if the encoder was just pressed.
  43:../../libdaisy/src/hid/encoder.h **** */
  44:../../libdaisy/src/hid/encoder.h ****     inline bool RisingEdge() const { return sw_.RisingEdge(); }
 2474              		.loc 3 44 17 view .LVU611
 2475              	.LBE808:
 2476              	.LBE807:
 2477              		.loc 3 44 38 view .LVU612
 2478              	.LBB1076:
 2479              	.LBB811:
 2480              	.LBB809:
 2481              	.LBI809:
 2482              		.loc 4 69 17 view .LVU613
 2483              	.LBB810:
 2484              		.loc 4 69 38 view .LVU614
 2485              		.loc 4 69 38 is_stmt 0 view .LVU615
 2486              	.LBE810:
 2487              	.LBE809:
 2488              	.LBE811:
 2489              		.loc 2 155 5 view .LVU616
 2490 01d4 6B7C     		ldrb	r3, [r5, #17]	@ zero_extendqisi2
 2491 01d6 7F2B     		cmp	r3, #127
 2492 01d8 00F09E81 		beq	.L287
 2493              	.LBE1076:
 156:Menus.cpp     ****     {
 157:Menus.cpp     ****         this->OscSelector = !this->OscSelector;
 158:Menus.cpp     ****         on                = this->OscSelector;
 159:Menus.cpp     ****     }
 160:Menus.cpp     ****     else if(menuState == 0)
 2494              		.loc 2 160 10 is_stmt 1 view .LVU617
 2495              	.LBB1077:
 2496              	.LBB812:
 2497              		.loc 2 160 13 is_stmt 0 view .LVU618
 2498 01dc EB6E     		ldr	r3, [r5, #108]
 2499              		.loc 2 160 10 view .LVU619
 2500 01de 002B     		cmp	r3, #0
 2501 01e0 00F0DA80 		beq	.L288
 2502              	.LBE812:
 2503              	.LBE1077:
 161:Menus.cpp     ****     {
 162:Menus.cpp     ****         if(this->OscSelector == true)
 163:Menus.cpp     ****         {
 164:Menus.cpp     ****             if(this->noteSemiAdd > 32)
 165:Menus.cpp     ****             {
 166:Menus.cpp     ****                 this->noteSemiAdd = 32;
 167:Menus.cpp     ****             }
 168:Menus.cpp     ****             if(this->noteSemiAdd < 0)
 169:Menus.cpp     ****             {
 170:Menus.cpp     ****                 this->noteSemiAdd = 0;
 171:Menus.cpp     ****             }
ARM GAS  C:\Users\VINCIU~1\AppData\Local\Temp\ccGpRbsb.s 			page 70


 172:Menus.cpp     ****             if(this->drawSliderSemi >= 40)
 173:Menus.cpp     ****             {
 174:Menus.cpp     ****                 this->drawSliderSemi = 40;
 175:Menus.cpp     ****             }
 176:Menus.cpp     ****             if(this->drawSliderSemi < 0)
 177:Menus.cpp     ****             {
 178:Menus.cpp     ****                 this->drawSliderSemi = 0;
 179:Menus.cpp     ****             }
 180:Menus.cpp     ****             this->noteSemiAdd += this->encoderRight.Increment();
 181:Menus.cpp     ****             this->drawSliderSemi
 182:Menus.cpp     ****                 += (((float)this->encoderRight.Increment()) / 32) * 40;
 183:Menus.cpp     ****             sprintf(this->buff, "Semi_%dst", this->noteSemiAdd);
 184:Menus.cpp     ****         }
 185:Menus.cpp     ****         else
 186:Menus.cpp     ****         {
 187:Menus.cpp     ****             if(this->noteSemiAdd2 > 32)
 188:Menus.cpp     ****             {
 189:Menus.cpp     ****                 this->noteSemiAdd2 = 32;
 190:Menus.cpp     ****             }
 191:Menus.cpp     ****             if(this->noteSemiAdd2 < 0)
 192:Menus.cpp     ****             {
 193:Menus.cpp     ****                 this->noteSemiAdd2 = 0;
 194:Menus.cpp     ****             }
 195:Menus.cpp     ****             if(this->drawSliderSemi2 >= 40)
 196:Menus.cpp     ****             {
 197:Menus.cpp     ****                 this->drawSliderSemi2 = 40;
 198:Menus.cpp     ****             }
 199:Menus.cpp     ****             if(this->drawSliderSemi2 < 0)
 200:Menus.cpp     ****             {
 201:Menus.cpp     ****                 this->drawSliderSemi2 = 0;
 202:Menus.cpp     ****             }
 203:Menus.cpp     ****             this->noteSemiAdd2 += (float)this->encoderRight.Increment();
 204:Menus.cpp     ****             this->drawSliderSemi2
 205:Menus.cpp     ****                 += (((float)this->encoderRight.Increment()) / 32) * 40;
 206:Menus.cpp     ****             sprintf(this->buff2, "Semi_%dst", this->noteSemiAdd2);
 207:Menus.cpp     ****         }
 208:Menus.cpp     **** 
 209:Menus.cpp     **** 
 210:Menus.cpp     ****         screen.DrawRect(
 211:Menus.cpp     ****             60, 0, screen.Width() - 1, screen.Height() / 2 - 3, on, false);
 212:Menus.cpp     ****     }
 213:Menus.cpp     ****     else if(menuState == 1)
 2504              		.loc 2 213 10 is_stmt 1 view .LVU620
 2505              	.LBB1078:
 2506              	.LBB1055:
 2507              	.LBB813:
 2508 01e4 012B     		cmp	r3, #1
 2509 01e6 00F07282 		beq	.L289
 2510              	.LBE813:
 2511              	.LBE1055:
 2512              	.LBE1078:
 214:Menus.cpp     ****     {
 215:Menus.cpp     ****         if(this->OscSelector == true)
 216:Menus.cpp     **** 
 217:Menus.cpp     ****         {
 218:Menus.cpp     ****             if(this->encoderRight.Increment() == 1)
 219:Menus.cpp     ****             {
ARM GAS  C:\Users\VINCIU~1\AppData\Local\Temp\ccGpRbsb.s 			page 71


 220:Menus.cpp     ****                 synthOn         = 1;
 221:Menus.cpp     ****                 this->toggleOsc = false;
 222:Menus.cpp     ****             }
 223:Menus.cpp     ****             if(this->encoderRight.Increment() == -1)
 224:Menus.cpp     ****             {
 225:Menus.cpp     ****                 synthOn         = 0;
 226:Menus.cpp     ****                 this->toggleOsc = true;
 227:Menus.cpp     ****             }
 228:Menus.cpp     ****         }
 229:Menus.cpp     ****         else
 230:Menus.cpp     ****         {
 231:Menus.cpp     ****             if(this->encoderRight.Increment() == 1)
 232:Menus.cpp     ****             {
 233:Menus.cpp     ****                 synthOn2         = 1;
 234:Menus.cpp     ****                 this->toggleOsc2 = false;
 235:Menus.cpp     ****             }
 236:Menus.cpp     ****             if(this->encoderRight.Increment() == -1)
 237:Menus.cpp     ****             {
 238:Menus.cpp     ****                 synthOn2         = 0;
 239:Menus.cpp     ****                 this->toggleOsc2 = true;
 240:Menus.cpp     ****             }
 241:Menus.cpp     ****         }
 242:Menus.cpp     **** 
 243:Menus.cpp     ****         screen.DrawRect(
 244:Menus.cpp     ****             0, screen.Height() / 2 - 3, 29, screen.Height() - 1, on, false);
 245:Menus.cpp     ****     }
 246:Menus.cpp     ****     else if(menuState == 2)
 2513              		.loc 2 246 10 view .LVU621
 2514              	.LBB1079:
 2515              	.LBB1056:
 2516              	.LBB915:
 2517              	.LBB814:
 2518 01ea 022B     		cmp	r3, #2
 2519 01ec 00F02582 		beq	.L290
 247:Menus.cpp     ****     {
 248:Menus.cpp     ****         if(this->OscSelector == true)
 249:Menus.cpp     ****         {
 250:Menus.cpp     ****             this->setWave += this->encoderRight.Increment();
 251:Menus.cpp     ****             if(setWave > 3)
 252:Menus.cpp     ****             {
 253:Menus.cpp     ****                 this->setWave = 3;
 254:Menus.cpp     ****             }
 255:Menus.cpp     ****             if(this->setWave < 0)
 256:Menus.cpp     ****             {
 257:Menus.cpp     ****                 this->setWave = 0;
 258:Menus.cpp     ****             }
 259:Menus.cpp     ****             if(this->setWave == 0)
 260:Menus.cpp     ****             {
 261:Menus.cpp     ****                 for(int i = 0; i < 2; i++)
 262:Menus.cpp     ****                 {
 263:Menus.cpp     ****                     selectedWave = setWave;
 264:Menus.cpp     ****                     osc[0].SetWaveform(osc[0].WAVE_SIN);
 265:Menus.cpp     ****                 }
 266:Menus.cpp     ****             }
 267:Menus.cpp     ****             else if(setWave == 1)
 268:Menus.cpp     ****             {
 269:Menus.cpp     ****                 for(int i = 0; i < 2; i++)
ARM GAS  C:\Users\VINCIU~1\AppData\Local\Temp\ccGpRbsb.s 			page 72


 270:Menus.cpp     ****                 {
 271:Menus.cpp     ****                     selectedWave = setWave;
 272:Menus.cpp     ****                     osc[0].SetWaveform(osc[0].WAVE_TRI);
 273:Menus.cpp     ****                 }
 274:Menus.cpp     ****             }
 275:Menus.cpp     ****             else if(setWave == 2)
 276:Menus.cpp     ****             {
 277:Menus.cpp     ****                 for(int i = 0; i < 2; i++)
 278:Menus.cpp     ****                 {
 279:Menus.cpp     ****                     selectedWave = setWave;
 280:Menus.cpp     ****                     osc[0].SetWaveform(osc[0].WAVE_SQUARE);
 281:Menus.cpp     ****                 }
 282:Menus.cpp     ****             }
 283:Menus.cpp     ****             else if(setWave == 3)
 284:Menus.cpp     ****             {
 285:Menus.cpp     ****                 for(int i = 0; i < 2; i++)
 286:Menus.cpp     ****                 {
 287:Menus.cpp     ****                     selectedWave = setWave;
 288:Menus.cpp     ****                     osc[0].SetWaveform(osc[0].WAVE_SAW);
 289:Menus.cpp     ****                 }
 290:Menus.cpp     ****             }
 291:Menus.cpp     ****         }
 292:Menus.cpp     ****         {
 293:Menus.cpp     ****             if(this->OscSelector == false)
 294:Menus.cpp     ****             {
 295:Menus.cpp     ****                 if(setWave2 > 3)
 296:Menus.cpp     ****                 {
 297:Menus.cpp     ****                     this->setWave2 = 3;
 298:Menus.cpp     ****                 }
 299:Menus.cpp     ****                 if(this->setWave2 < 0)
 300:Menus.cpp     ****                 {
 301:Menus.cpp     ****                     this->setWave2 = 0;
 302:Menus.cpp     ****                 }
 303:Menus.cpp     ****                 this->setWave2 += this->encoderRight.Increment();
 304:Menus.cpp     ****                 if(setWave2 > 3)
 305:Menus.cpp     ****                 {
 306:Menus.cpp     ****                     this->setWave2 = 3;
 307:Menus.cpp     ****                 }
 308:Menus.cpp     ****                 if(this->setWave2 < 0)
 309:Menus.cpp     ****                 {
 310:Menus.cpp     ****                     this->setWave2 = 0;
 311:Menus.cpp     ****                 }
 312:Menus.cpp     ****                 if(this->setWave2 == 0)
 313:Menus.cpp     ****                 {
 314:Menus.cpp     ****                     for(int i = 0; i < 2; i++)
 315:Menus.cpp     ****                     {
 316:Menus.cpp     ****                         selectedWave2 = setWave2;
 317:Menus.cpp     ****                         osc[1].SetWaveform(osc[1].WAVE_SIN);
 318:Menus.cpp     ****                     }
 319:Menus.cpp     ****                 }
 320:Menus.cpp     ****                 else if(setWave2 == 1)
 321:Menus.cpp     ****                 {
 322:Menus.cpp     ****                     for(int i = 0; i < 2; i++)
 323:Menus.cpp     ****                     {
 324:Menus.cpp     ****                         selectedWave2 = setWave2;
 325:Menus.cpp     ****                         osc[1].SetWaveform(osc[1].WAVE_TRI);
 326:Menus.cpp     ****                     }
ARM GAS  C:\Users\VINCIU~1\AppData\Local\Temp\ccGpRbsb.s 			page 73


 327:Menus.cpp     ****                 }
 328:Menus.cpp     ****                 else if(setWave2 == 2)
 329:Menus.cpp     ****                 {
 330:Menus.cpp     ****                     for(int i = 0; i < 2; i++)
 331:Menus.cpp     ****                     {
 332:Menus.cpp     ****                         selectedWave2 = setWave2;
 333:Menus.cpp     ****                         osc[1].SetWaveform(osc[1].WAVE_SQUARE);
 334:Menus.cpp     ****                     }
 335:Menus.cpp     ****                 }
 336:Menus.cpp     ****                 else if(setWave2 == 3)
 337:Menus.cpp     ****                 {
 338:Menus.cpp     ****                     for(int i = 0; i < 2; i++)
 339:Menus.cpp     ****                     {
 340:Menus.cpp     ****                         selectedWave2 = setWave2;
 341:Menus.cpp     ****                         osc[1].SetWaveform(osc[1].WAVE_SAW);
 342:Menus.cpp     ****                     }
 343:Menus.cpp     ****                 }
 344:Menus.cpp     ****             }
 345:Menus.cpp     **** 
 346:Menus.cpp     **** 
 347:Menus.cpp     ****             screen.DrawRect(29,
 348:Menus.cpp     ****                             screen.Height() / 2 - 3,
 349:Menus.cpp     ****                             60,
 350:Menus.cpp     ****                             screen.Height() - 1,
 351:Menus.cpp     ****                             on,
 352:Menus.cpp     ****                             false);
 353:Menus.cpp     ****         }
 354:Menus.cpp     ****     }
 355:Menus.cpp     ****     else if(menuState == 3)
 2520              		.loc 2 355 10 view .LVU622
 2521 01f0 032B     		cmp	r3, #3
 2522 01f2 40F09981 		bne	.L188
 356:Menus.cpp     ****     {
 357:Menus.cpp     ****         /*  this->noteSemiAdd
 358:Menus.cpp     ****                 += (((float)this->encoderRight.Increment()) / 32) * 40;
 359:Menus.cpp     ****             this->drawSliderSemi
 360:Menus.cpp     ****                 += ((float)this->encoderRight.Increment()) / 32; */
 361:Menus.cpp     **** 
 362:Menus.cpp     **** 
 363:Menus.cpp     ****         if(this->OscSelector == true)
 2523              		.loc 2 363 9 view .LVU623
 2524 01f6 95F87430 		ldrb	r3, [r5, #116]	@ zero_extendqisi2
 364:Menus.cpp     ****         {
 365:Menus.cpp     ****             if(this->freqFine >= 1)
 2525              		.loc 2 365 13 is_stmt 0 view .LVU624
 2526 01fa B7EE007A 		vmov.f32	s14, #1.0e+0
 363:Menus.cpp     ****         {
 2527              		.loc 2 363 9 view .LVU625
 2528 01fe 002B     		cmp	r3, #0
 2529 0200 00F0BB82 		beq	.L237
 2530              		.loc 2 365 13 is_stmt 1 view .LVU626
 2531              		.loc 2 365 22 is_stmt 0 view .LVU627
 2532 0204 D5ED517A 		vldr.32	s15, [r5, #324]
 2533              		.loc 2 365 13 view .LVU628
 2534 0208 F4EEC77A 		vcmpe.f32	s15, s14
 2535 020c F1EE10FA 		vmrs	APSR_nzcv, FPSCR
 2536 0210 C0F20183 		blt	.L291
ARM GAS  C:\Users\VINCIU~1\AppData\Local\Temp\ccGpRbsb.s 			page 74


 2537 0214 F0EE477A 		vmov.f32	s15, s14
 2538              	.L238:
 366:Menus.cpp     ****             {
 367:Menus.cpp     ****                 this->freqFine = 1;
 368:Menus.cpp     ****             }
 369:Menus.cpp     ****             if(this->freqFine < 0)
 370:Menus.cpp     ****             {
 371:Menus.cpp     ****                 this->freqFine = 0;
 372:Menus.cpp     ****             }
 373:Menus.cpp     ****             if(this->drawSliderFine >= 1)
 2539              		.loc 2 373 13 is_stmt 1 view .LVU629
 2540 0218 F7EE006A 		vmov.f32	s13, #1.0e+0
 2541              		.loc 2 373 22 is_stmt 0 view .LVU630
 2542 021c 95ED1F7A 		vldr.32	s14, [r5, #124]
 2543              		.loc 2 373 13 view .LVU631
 2544 0220 B4EEE67A 		vcmpe.f32	s14, s13
 2545 0224 F1EE10FA 		vmrs	APSR_nzcv, FPSCR
 2546 0228 C0F2EC82 		blt	.L292
 2547 022c B0EE667A 		vmov.f32	s14, s13
 2548              	.L239:
 374:Menus.cpp     ****             {
 375:Menus.cpp     ****                 this->drawSliderFine = 1;
 376:Menus.cpp     ****             }
 377:Menus.cpp     ****             if(this->drawSliderFine < 0)
 378:Menus.cpp     ****             {
 379:Menus.cpp     ****                 this->drawSliderFine = 0;
 380:Menus.cpp     ****             }
 381:Menus.cpp     **** 
 382:Menus.cpp     ****             this->freqFine += (((float)this->encoderRight.Increment()) / 32);
 2549              		.loc 2 382 13 is_stmt 1 view .LVU632
 2550              	.LVL163:
 2551              	.LBB815:
 2552              	.LBI815:
  41:../../libdaisy/src/hid/encoder.h ****     /** Returns true if the encoder was just pressed.
 2553              		.loc 3 41 20 view .LVU633
 2554              	.LBB816:
  41:../../libdaisy/src/hid/encoder.h ****     /** Returns true if the encoder was just pressed.
 2555              		.loc 3 41 40 view .LVU634
  41:../../libdaisy/src/hid/encoder.h ****     /** Returns true if the encoder was just pressed.
 2556              		.loc 3 41 40 is_stmt 0 view .LVU635
 2557              	.LBE816:
 2558              	.LBE815:
 2559              		.loc 2 382 33 view .LVU636
 2560 0230 D5ED126A 		vldr.32	s13, [r5, #72]	@ int
 383:Menus.cpp     ****             this->drawSliderFine
 384:Menus.cpp     ****                 += (((float)this->encoderRight.Increment()) / 32);
 385:Menus.cpp     ****             sprintf(this->buffFine, "Fine_%d%%", (int)(freqFine * 100));
 2561              		.loc 2 385 20 view .LVU637
 2562 0234 05F1D400 		add	r0, r5, #212
 382:Menus.cpp     ****             this->drawSliderFine
 2563              		.loc 2 382 28 view .LVU638
 2564 0238 DFED555A 		vldr.32	s11, .L307+56
 382:Menus.cpp     ****             this->drawSliderFine
 2565              		.loc 2 382 33 view .LVU639
 2566 023c F8EEE66A 		vcvt.f32.s32	s13, s13
 2567              		.loc 2 385 65 view .LVU640
 2568 0240 9FED4F6A 		vldr.32	s12, .L307+40
ARM GAS  C:\Users\VINCIU~1\AppData\Local\Temp\ccGpRbsb.s 			page 75


 2569              		.loc 2 385 20 view .LVU641
 2570 0244 4F49     		ldr	r1, .L307+44
 382:Menus.cpp     ****             this->drawSliderFine
 2571              		.loc 2 382 28 view .LVU642
 2572 0246 E6EEA57A 		vfma.f32	s15, s13, s11
 384:Menus.cpp     ****             sprintf(this->buffFine, "Fine_%d%%", (int)(freqFine * 100));
 2573              		.loc 2 384 17 view .LVU643
 2574 024a A6EEA57A 		vfma.f32	s14, s13, s11
 2575              		.loc 2 385 65 view .LVU644
 2576 024e 67EE866A 		vmul.f32	s13, s15, s12
 382:Menus.cpp     ****             this->drawSliderFine
 2577              		.loc 2 382 28 view .LVU645
 2578 0252 C5ED517A 		vstr.32	s15, [r5, #324]
 383:Menus.cpp     ****             this->drawSliderFine
 2579              		.loc 2 383 13 is_stmt 1 view .LVU646
 2580              	.LVL164:
 383:Menus.cpp     ****             this->drawSliderFine
 2581              		.loc 2 383 13 is_stmt 0 view .LVU647
 2582              	.LBE814:
 2583              	.LBE915:
 2584              	.LBE1056:
 2585              	.LBE1079:
  41:../../libdaisy/src/hid/encoder.h ****     /** Returns true if the encoder was just pressed.
 2586              		.loc 3 41 40 is_stmt 1 view .LVU648
 2587              	.LBB1080:
 2588              	.LBB1057:
 2589              	.LBB916:
 2590              	.LBB899:
 384:Menus.cpp     ****             sprintf(this->buffFine, "Fine_%d%%", (int)(freqFine * 100));
 2591              		.loc 2 384 17 is_stmt 0 view .LVU649
 2592 0256 85ED1F7A 		vstr.32	s14, [r5, #124]
 2593              		.loc 2 385 13 is_stmt 1 view .LVU650
 2594              		.loc 2 385 20 is_stmt 0 view .LVU651
 2595 025a FDEEE67A 		vcvt.s32.f32	s15, s13
 2596 025e 17EE902A 		vmov	r2, s15	@ int
 2597 0262 FFF7FEFF 		bl	sprintf
 2598              	.LVL165:
 2599              	.L240:
 386:Menus.cpp     ****         }
 387:Menus.cpp     ****         else
 388:Menus.cpp     ****         {
 389:Menus.cpp     ****             if(this->freqFine2 > 1)
 390:Menus.cpp     ****             {
 391:Menus.cpp     ****                 this->freqFine2 = 1;
 392:Menus.cpp     ****             }
 393:Menus.cpp     ****             if(this->freqFine2 < 0)
 394:Menus.cpp     ****             {
 395:Menus.cpp     ****                 this->freqFine2 = 0;
 396:Menus.cpp     ****             }
 397:Menus.cpp     ****             if(this->drawSliderFine2 >= 1)
 398:Menus.cpp     ****             {
 399:Menus.cpp     ****                 this->drawSliderFine2 = 1;
 400:Menus.cpp     ****             }
 401:Menus.cpp     ****             if(this->drawSliderFine2 < 0)
 402:Menus.cpp     ****             {
 403:Menus.cpp     ****                 this->drawSliderFine2 = 0;
 404:Menus.cpp     ****             }
ARM GAS  C:\Users\VINCIU~1\AppData\Local\Temp\ccGpRbsb.s 			page 76


 405:Menus.cpp     **** 
 406:Menus.cpp     ****             this->freqFine2 += (((float)this->encoderRight.Increment()) / 32);
 407:Menus.cpp     ****             this->drawSliderFine2
 408:Menus.cpp     ****                 += (((float)this->encoderRight.Increment()) / 32);
 409:Menus.cpp     ****             sprintf(this->buffFine2, "Fine_%d%%", (int)(freqFine2 * 100));
 410:Menus.cpp     ****         }
 411:Menus.cpp     **** 
 412:Menus.cpp     ****         screen.DrawRect(60,
 2600              		.loc 2 412 9 is_stmt 1 view .LVU652
 2601              		.loc 2 412 24 is_stmt 0 view .LVU653
 2602 0266 95F86831 		ldrb	r3, [r5, #360]	@ zero_extendqisi2
 2603 026a 0022     		movs	r2, #0
 2604 026c 3F21     		movs	r1, #63
 2605 026e 2046     		mov	r0, r4
 2606 0270 CDE90132 		strd	r3, r2, [sp, #4]
 2607 0274 0091     		str	r1, [sp]
 2608 0276 7F23     		movs	r3, #127
 2609 0278 1D22     		movs	r2, #29
 2610 027a 3C21     		movs	r1, #60
 2611 027c FFF7FEFF 		bl	_ZN5daisy25OneBitGraphicsDisplayImplINS_11OledDisplayINS_13SSD130xDriverILj128ELj64ENS_24SSD130
 2612              	.LVL166:
 2613 0280 52E1     		b	.L188
 2614              	.LVL167:
 2615              	.L175:
 2616              		.loc 2 412 24 view .LVU654
 2617              	.LBE899:
 2618              	.LBE916:
 2619              	.LBE1057:
 2620              	.LBE1080:
 2621              	.LBB1081:
 2622              	.LBB776:
 2623              	.LBB774:
 2624              	.LBB772:
 2625              	.LBB770:
 2626              	.LBB769:
 246:../../libdaisy/src/dev/oled_ssd130x.h ****     }
 2627              		.loc 6 246 42 view .LVU655
 2628 0282 22F02002 		bic	r2, r2, #32
 2629 0286 8CF89421 		strb	r2, [ip, #404]
 2630 028a 63E7     		b	.L176
 2631              	.LVL168:
 2632              	.L180:
 246:../../libdaisy/src/dev/oled_ssd130x.h ****     }
 2633              		.loc 6 246 42 view .LVU656
 2634              	.LBE769:
 2635              	.LBE770:
 2636              	.LBE772:
 2637              	.LBE774:
 2638              	.LBE776:
 2639              	.LBE1081:
 2640              	.LBB1082:
 2641              	.LBB791:
 2642              	.LBB789:
 2643              	.LBB787:
 2644              	.LBB785:
 2645              	.LBB783:
 2646 028c 9CF85010 		ldrb	r1, [ip, #80]	@ zero_extendqisi2
ARM GAS  C:\Users\VINCIU~1\AppData\Local\Temp\ccGpRbsb.s 			page 77


 246:../../libdaisy/src/dev/oled_ssd130x.h ****     }
 2647              		.loc 6 246 49 view .LVU657
 2648 0290 08FA0EF8 		lsl	r8, r8, lr
 246:../../libdaisy/src/dev/oled_ssd130x.h ****     }
 2649              		.loc 6 246 42 view .LVU658
 2650 0294 21EA0808 		bic	r8, r1, r8
 2651 0298 8CF85080 		strb	r8, [ip, #80]
 2652 029c 7AE7     		b	.L181
 2653              	.LVL169:
 2654              	.L184:
 246:../../libdaisy/src/dev/oled_ssd130x.h ****     }
 2655              		.loc 6 246 42 view .LVU659
 2656              	.LBE783:
 2657              	.LBE785:
 2658              	.LBE787:
 2659              	.LBE789:
 2660              	.LBE791:
 2661              	.LBE1082:
 2662              	.LBB1083:
 2663              	.LBB806:
 2664              	.LBB804:
 2665              	.LBB802:
 2666              	.LBB800:
 2667              	.LBB798:
 2668 029e 9CF83120 		ldrb	r2, [ip, #49]	@ zero_extendqisi2
 246:../../libdaisy/src/dev/oled_ssd130x.h ****     }
 2669              		.loc 6 246 49 view .LVU660
 2670 02a2 08FA0EF8 		lsl	r8, r8, lr
 246:../../libdaisy/src/dev/oled_ssd130x.h ****     }
 2671              		.loc 6 246 42 view .LVU661
 2672 02a6 22EA0808 		bic	r8, r2, r8
 2673 02aa 8CF83180 		strb	r8, [ip, #49]
 2674 02ae 8BE7     		b	.L185
 2675              	.LVL170:
 2676              	.L172:
 246:../../libdaisy/src/dev/oled_ssd130x.h ****     }
 2677              		.loc 6 246 42 view .LVU662
 2678              	.LBE798:
 2679              	.LBE800:
 2680              	.LBE802:
 2681              	.LBE804:
 2682              	.LBE806:
 2683              	.LBE1083:
 127:Menus.cpp     ****         screen.drawSlider(70, 40, 50, 3, false, drawSliderFine2);
 2684              		.loc 2 127 9 is_stmt 1 view .LVU663
 127:Menus.cpp     ****         screen.drawSlider(70, 40, 50, 3, false, drawSliderFine2);
 2685              		.loc 2 127 26 is_stmt 0 view .LVU664
 2686 02b0 D5ED202A 		vldr.32	s5, [r5, #128]
 2687 02b4 2046     		mov	r0, r4
 2688 02b6 9FED378A 		vldr.32	s16, .L307+60
 2689 02ba F0EE081A 		vmov.f32	s3, #3.0e+0
 2690 02be F1EE0C0A 		vmov.f32	s1, #7.0e+0
 2691 02c2 9FED322A 		vldr.32	s4, .L307+52
 2692 02c6 C2EE882A 		vdiv.f32	s5, s5, s16
 2693 02ca 9FED251A 		vldr.32	s2, .L307+8
 2694 02ce 9FED250A 		vldr.32	s0, .L307+12
 2695 02d2 FFF7FEFF 		bl	_ZN23OledDisplayExtravaganza10drawSliderEffffff
ARM GAS  C:\Users\VINCIU~1\AppData\Local\Temp\ccGpRbsb.s 			page 78


 2696              	.LVL171:
 128:Menus.cpp     ****         screen.drawVerticalToggle(13, 51, 8, false, this->toggleOsc2, "");
 2697              		.loc 2 128 9 is_stmt 1 view .LVU665
 128:Menus.cpp     ****         screen.drawVerticalToggle(13, 51, 8, false, this->toggleOsc2, "");
 2698              		.loc 2 128 26 is_stmt 0 view .LVU666
 2699 02d6 D5ED212A 		vldr.32	s5, [r5, #132]
 2700 02da 9FED2C2A 		vldr.32	s4, .L307+52
 2701 02de 2046     		mov	r0, r4
 2702 02e0 9FED1F1A 		vldr.32	s2, .L307+8
 2703 02e4 F0EE081A 		vmov.f32	s3, #3.0e+0
 2704 02e8 9FED1E0A 		vldr.32	s0, .L307+12
 2705 02ec F0EE480A 		vmov.f32	s1, s16
 132:Menus.cpp     ****         screen.SetCursor(70, 50);
 2706              		.loc 2 132 27 view .LVU667
 2707 02f0 DFF89490 		ldr	r9, .L307+48
 128:Menus.cpp     ****         screen.drawVerticalToggle(13, 51, 8, false, this->toggleOsc2, "");
 2708              		.loc 2 128 26 view .LVU668
 2709 02f4 FFF7FEFF 		bl	_ZN23OledDisplayExtravaganza10drawSliderEffffff
 2710              	.LVL172:
 129:Menus.cpp     ****         screen.WaveIcons(35, 42, 55, this->selectedWave2, false);
 2711              		.loc 2 129 9 is_stmt 1 view .LVU669
 129:Menus.cpp     ****         screen.WaveIcons(35, 42, 55, this->selectedWave2, false);
 2712              		.loc 2 129 34 is_stmt 0 view .LVU670
 2713 02f8 B2EE001A 		vmov.f32	s2, #8.0e+0
 2714 02fc B2EE0A0A 		vmov.f32	s0, #1.3e+1
 2715 0300 DFED190A 		vldr.32	s1, .L307+16
 2716 0304 95F89920 		ldrb	r2, [r5, #153]	@ zero_extendqisi2
 2717 0308 4146     		mov	r1, r8
 2718 030a 2046     		mov	r0, r4
 2719 030c 134B     		ldr	r3, .L307+4
 2720 030e FFF7FEFF 		bl	_ZN23OledDisplayExtravaganza18drawVerticalToggleEfffbbPKc
 2721              	.LVL173:
 130:Menus.cpp     ****         screen.SetCursor(70, 17);
 2722              		.loc 2 130 9 is_stmt 1 view .LVU671
 130:Menus.cpp     ****         screen.SetCursor(70, 17);
 2723              		.loc 2 130 25 is_stmt 0 view .LVU672
 2724 0312 CDF80480 		str	r8, [sp, #4]
 2725 0316 D5F8A030 		ldr	r3, [r5, #160]
 2726 031a 2046     		mov	r0, r4
 2727 031c 2A22     		movs	r2, #42
 2728 031e 2321     		movs	r1, #35
 2729 0320 0093     		str	r3, [sp]
 2730 0322 3723     		movs	r3, #55
 2731 0324 FFF7FEFF 		bl	_ZN23OledDisplayExtravaganza9WaveIconsEiiiib
 2732              	.LVL174:
 131:Menus.cpp     ****         screen.WriteString(this->buff2, Font_6x8, false);
 2733              		.loc 2 131 9 is_stmt 1 view .LVU673
 2734              	.LBB1084:
 2735              	.LBI1084:
 131:../../libdaisy/src/hid/disp/display.h ****     {
 2736              		.loc 5 131 10 view .LVU674
 2737              	.LBB1085:
 133:../../libdaisy/src/hid/disp/display.h ****         currentY_ = (y >= Height()) ? Height() - 1 : y;
 2738              		.loc 5 133 9 view .LVU675
 134:../../libdaisy/src/hid/disp/display.h ****     }
 2739              		.loc 5 134 9 view .LVU676
 133:../../libdaisy/src/hid/disp/display.h ****         currentY_ = (y >= Height()) ? Height() - 1 : y;
ARM GAS  C:\Users\VINCIU~1\AppData\Local\Temp\ccGpRbsb.s 			page 79


 2740              		.loc 5 133 19 is_stmt 0 view .LVU677
 2741 0328 104B     		ldr	r3, .L307+20
 2742              	.LBE1085:
 2743              	.LBE1084:
 132:Menus.cpp     ****         screen.SetCursor(70, 50);
 2744              		.loc 2 132 27 view .LVU678
 2745 032a CDF80080 		str	r8, [sp]
 2746 032e 05F1BC01 		add	r1, r5, #188
 2747              	.LBB1087:
 2748              	.LBB1086:
 133:../../libdaisy/src/hid/disp/display.h ****         currentY_ = (y >= Height()) ? Height() - 1 : y;
 2749              		.loc 5 133 19 view .LVU679
 2750 0332 6360     		str	r3, [r4, #4]
 2751              	.LVL175:
 133:../../libdaisy/src/hid/disp/display.h ****         currentY_ = (y >= Height()) ? Height() - 1 : y;
 2752              		.loc 5 133 19 view .LVU680
 2753              	.LBE1086:
 2754              	.LBE1087:
 132:Menus.cpp     ****         screen.SetCursor(70, 50);
 2755              		.loc 2 132 9 is_stmt 1 view .LVU681
 132:Menus.cpp     ****         screen.SetCursor(70, 50);
 2756              		.loc 2 132 27 is_stmt 0 view .LVU682
 2757 0334 2046     		mov	r0, r4
 2758 0336 99E80C00 		ldm	r9, {r2, r3}
 2759 033a FFF7FEFF 		bl	_ZN5daisy25OneBitGraphicsDisplayImplINS_11OledDisplayINS_13SSD130xDriverILj128ELj64ENS_24SSD130
 2760              	.LVL176:
 133:Menus.cpp     ****         screen.WriteString(this->buffFine2, Font_6x8, false);
 2761              		.loc 2 133 9 is_stmt 1 view .LVU683
 2762              	.LBB1088:
 2763              	.LBI1088:
 131:../../libdaisy/src/hid/disp/display.h ****     {
 2764              		.loc 5 131 10 view .LVU684
 2765              	.LBB1089:
 133:../../libdaisy/src/hid/disp/display.h ****         currentY_ = (y >= Height()) ? Height() - 1 : y;
 2766              		.loc 5 133 9 view .LVU685
 134:../../libdaisy/src/hid/disp/display.h ****     }
 2767              		.loc 5 134 9 view .LVU686
 133:../../libdaisy/src/hid/disp/display.h ****         currentY_ = (y >= Height()) ? Height() - 1 : y;
 2768              		.loc 5 133 19 is_stmt 0 view .LVU687
 2769 033e 0C4B     		ldr	r3, .L307+24
 2770              	.LBE1089:
 2771              	.LBE1088:
 134:Menus.cpp     ****     }
 2772              		.loc 2 134 27 view .LVU688
 2773 0340 CDF80080 		str	r8, [sp]
 2774 0344 05F1EC01 		add	r1, r5, #236
 2775              	.LBB1091:
 2776              	.LBB1090:
 133:../../libdaisy/src/hid/disp/display.h ****         currentY_ = (y >= Height()) ? Height() - 1 : y;
 2777              		.loc 5 133 19 view .LVU689
 2778 0348 6360     		str	r3, [r4, #4]
 2779              	.LVL177:
 133:../../libdaisy/src/hid/disp/display.h ****         currentY_ = (y >= Height()) ? Height() - 1 : y;
 2780              		.loc 5 133 19 view .LVU690
 2781              	.LBE1090:
 2782              	.LBE1091:
 134:Menus.cpp     ****     }
ARM GAS  C:\Users\VINCIU~1\AppData\Local\Temp\ccGpRbsb.s 			page 80


 2783              		.loc 2 134 9 is_stmt 1 view .LVU691
 134:Menus.cpp     ****     }
 2784              		.loc 2 134 27 is_stmt 0 view .LVU692
 2785 034a 2046     		mov	r0, r4
 2786 034c 99E80C00 		ldm	r9, {r2, r3}
 2787 0350 FFF7FEFF 		bl	_ZN5daisy25OneBitGraphicsDisplayImplINS_11OledDisplayINS_13SSD130xDriverILj128ELj64ENS_24SSD130
 2788              	.LVL178:
 2789 0354 E4E6     		b	.L173
 2790              	.L308:
 2791 0356 00BF     		.align	2
 2792              	.L307:
 2793 0358 00003842 		.word	1110966272
 2794 035c 00000000 		.word	.LC1
 2795 0360 00004842 		.word	1112014848
 2796 0364 00008C42 		.word	1116471296
 2797 0368 00004C42 		.word	1112276992
 2798 036c 46001100 		.word	1114182
 2799 0370 46003200 		.word	3276870
 2800 0374 04000800 		.word	524292
 2801 0378 00000000 		.word	Font_7x10
 2802 037c 04000000 		.word	.LC2
 2803 0380 0000C842 		.word	1120403456
 2804 0384 14000000 		.word	.LC4
 2805 0388 00000000 		.word	Font_6x8
 2806 038c 00000000 		.word	0
 2807 0390 0000003D 		.word	1023410176
 2808 0394 00002042 		.word	1109393408
 2809              	.L288:
 2810              	.LBB1092:
 2811              	.LBB1058:
 162:Menus.cpp     ****         {
 2812              		.loc 2 162 9 is_stmt 1 view .LVU693
 2813 0398 95F87430 		ldrb	r3, [r5, #116]	@ zero_extendqisi2
 2814 039c 002B     		cmp	r3, #0
 2815 039e 40F01781 		bne	.L293
 187:Menus.cpp     ****             {
 2816              		.loc 2 187 13 view .LVU694
 187:Menus.cpp     ****             {
 2817              		.loc 2 187 22 is_stmt 0 view .LVU695
 2818 03a2 D5F83831 		ldr	r3, [r5, #312]
 187:Menus.cpp     ****             {
 2819              		.loc 2 187 13 view .LVU696
 2820 03a6 202B     		cmp	r3, #32
 2821 03a8 00F3A281 		bgt	.L251
 191:Menus.cpp     ****             {
 2822              		.loc 2 191 13 is_stmt 1 view .LVU697
 2823 03ac 002B     		cmp	r3, #0
 2824 03ae 80F21482 		bge	.L294
 2825 03b2 5FED0A7A 		vldr.32	s15, .L307+52
 2826              	.L193:
 195:Menus.cpp     ****             {
 2827              		.loc 2 195 13 view .LVU698
 195:Menus.cpp     ****             {
 2828              		.loc 2 195 22 is_stmt 0 view .LVU699
 2829 03b6 95ED207A 		vldr.32	s14, [r5, #128]
 195:Menus.cpp     ****             {
 2830              		.loc 2 195 13 view .LVU700
ARM GAS  C:\Users\VINCIU~1\AppData\Local\Temp\ccGpRbsb.s 			page 81


 2831 03ba 5FED0A6A 		vldr.32	s13, .L307+60
 2832 03be B4EEE67A 		vcmpe.f32	s14, s13
 2833 03c2 F1EE10FA 		vmrs	APSR_nzcv, FPSCR
 2834 03c6 80F29081 		bge	.L253
 199:Menus.cpp     ****             {
 2835              		.loc 2 199 13 is_stmt 1 view .LVU701
 2836 03ca B5EEC07A 		vcmpe.f32	s14, #0
 2837 03ce F1EE10FA 		vmrs	APSR_nzcv, FPSCR
 2838 03d2 01D5     		bpl	.L194
 2839 03d4 1FED137A 		vldr.32	s14, .L307+52
 2840              	.L194:
 203:Menus.cpp     ****             this->drawSliderSemi2
 2841              		.loc 2 203 13 view .LVU702
 2842              	.LVL179:
 2843              	.LBB917:
 2844              	.LBI917:
  41:../../libdaisy/src/hid/encoder.h ****     /** Returns true if the encoder was just pressed.
 2845              		.loc 3 41 20 view .LVU703
 2846              	.LBB918:
  41:../../libdaisy/src/hid/encoder.h ****     /** Returns true if the encoder was just pressed.
 2847              		.loc 3 41 40 view .LVU704
  41:../../libdaisy/src/hid/encoder.h ****     /** Returns true if the encoder was just pressed.
 2848              		.loc 3 41 40 is_stmt 0 view .LVU705
 2849              	.LBE918:
 2850              	.LBE917:
 203:Menus.cpp     ****             this->drawSliderSemi2
 2851              		.loc 2 203 35 view .LVU706
 2852 03d8 D5ED126A 		vldr.32	s13, [r5, #72]	@ int
 206:Menus.cpp     ****         }
 2853              		.loc 2 206 20 view .LVU707
 2854 03dc 05F1BC00 		add	r0, r5, #188
 205:Menus.cpp     ****             sprintf(this->buff2, "Semi_%dst", this->noteSemiAdd2);
 2855              		.loc 2 205 61 view .LVU708
 2856 03e0 1FED156A 		vldr.32	s12, .L307+56
 203:Menus.cpp     ****             this->drawSliderSemi2
 2857              		.loc 2 203 35 view .LVU709
 2858 03e4 F8EEE66A 		vcvt.f32.s32	s13, s13
 205:Menus.cpp     ****             sprintf(this->buff2, "Semi_%dst", this->noteSemiAdd2);
 2859              		.loc 2 205 17 view .LVU710
 2860 03e8 5FED165A 		vldr.32	s11, .L307+60
 206:Menus.cpp     ****         }
 2861              		.loc 2 206 20 view .LVU711
 2862 03ec C349     		ldr	r1, .L309
 205:Menus.cpp     ****             sprintf(this->buff2, "Semi_%dst", this->noteSemiAdd2);
 2863              		.loc 2 205 61 view .LVU712
 2864 03ee 26EE866A 		vmul.f32	s12, s13, s12
 203:Menus.cpp     ****             this->drawSliderSemi2
 2865              		.loc 2 203 32 view .LVU713
 2866 03f2 77EEA67A 		vadd.f32	s15, s15, s13
 205:Menus.cpp     ****             sprintf(this->buff2, "Semi_%dst", this->noteSemiAdd2);
 2867              		.loc 2 205 17 view .LVU714
 2868 03f6 A6EE257A 		vfma.f32	s14, s12, s11
 203:Menus.cpp     ****             this->drawSliderSemi2
 2869              		.loc 2 203 32 view .LVU715
 2870 03fa FDEEE77A 		vcvt.s32.f32	s15, s15
 2871 03fe 17EE902A 		vmov	r2, s15	@ int
 2872 0402 C5ED4E7A 		vstr.32	s15, [r5, #312]	@ int
ARM GAS  C:\Users\VINCIU~1\AppData\Local\Temp\ccGpRbsb.s 			page 82


 204:Menus.cpp     ****                 += (((float)this->encoderRight.Increment()) / 32) * 40;
 2873              		.loc 2 204 13 is_stmt 1 view .LVU716
 2874              	.LVL180:
 204:Menus.cpp     ****                 += (((float)this->encoderRight.Increment()) / 32) * 40;
 2875              		.loc 2 204 13 is_stmt 0 view .LVU717
 2876              	.LBE1058:
 2877              	.LBE1092:
  41:../../libdaisy/src/hid/encoder.h ****     /** Returns true if the encoder was just pressed.
 2878              		.loc 3 41 40 is_stmt 1 view .LVU718
 2879              	.LBB1093:
 2880              	.LBB1059:
 205:Menus.cpp     ****             sprintf(this->buff2, "Semi_%dst", this->noteSemiAdd2);
 2881              		.loc 2 205 17 is_stmt 0 view .LVU719
 2882 0406 85ED207A 		vstr.32	s14, [r5, #128]
 206:Menus.cpp     ****         }
 2883              		.loc 2 206 13 is_stmt 1 view .LVU720
 206:Menus.cpp     ****         }
 2884              		.loc 2 206 20 is_stmt 0 view .LVU721
 2885 040a FFF7FEFF 		bl	sprintf
 2886              	.LVL181:
 210:Menus.cpp     ****             60, 0, screen.Width() - 1, screen.Height() / 2 - 3, on, false);
 2887              		.loc 2 210 9 is_stmt 1 view .LVU722
 210:Menus.cpp     ****             60, 0, screen.Width() - 1, screen.Height() / 2 - 3, on, false);
 2888              		.loc 2 210 24 is_stmt 0 view .LVU723
 2889 040e 95F86801 		ldrb	r0, [r5, #360]	@ zero_extendqisi2
 2890              	.LVL182:
 2891              	.LBB919:
 2892              	.LBI919:
 217:../../libdaisy/src/hid/disp/display.h ****                   uint_fast8_t y1,
 2893              		.loc 5 217 10 is_stmt 1 view .LVU724
 2894              	.LBB920:
 2895              	.LBI920:
 181:../../libdaisy/src/hid/disp/display.h ****                   uint_fast8_t y1,
 2896              		.loc 5 181 10 view .LVU725
 2897              	.LBB921:
 2898              	.LBB922:
 2899              	.LBI922:
 2900              		.loc 1 41 10 view .LVU726
 2901              	.LBB923:
 2902              	.LBI923:
 239:../../libdaisy/src/dev/oled_ssd130x.h ****     {
 2903              		.loc 6 239 10 view .LVU727
 2904              	.LBB924:
 244:../../libdaisy/src/dev/oled_ssd130x.h ****         else
 2905              		.loc 6 244 42 is_stmt 0 view .LVU728
 2906 0412 94F89320 		ldrb	r2, [r4, #147]	@ zero_extendqisi2
 243:../../libdaisy/src/dev/oled_ssd130x.h ****             buffer_[x + (y / 8) * width] |= (1 << (y % 8));
 2907              		.loc 6 243 9 view .LVU729
 2908 0416 0028     		cmp	r0, #0
 2909 0418 00F00C81 		beq	.L195
 2910              	.LVL183:
 2911              	.L302:
 244:../../libdaisy/src/dev/oled_ssd130x.h ****         else
 2912              		.loc 6 244 42 view .LVU730
 2913 041c 42F00102 		orr	r2, r2, #1
 2914              	.L196:
 244:../../libdaisy/src/dev/oled_ssd130x.h ****         else
ARM GAS  C:\Users\VINCIU~1\AppData\Local\Temp\ccGpRbsb.s 			page 83


 2915              		.loc 6 244 42 view .LVU731
 2916 0420 04F14F03 		add	r3, r4, #79
 2917 0424 04F19201 		add	r1, r4, #146
 2918 0428 84F89320 		strb	r2, [r4, #147]
 2919              	.LVL184:
 244:../../libdaisy/src/dev/oled_ssd130x.h ****         else
 2920              		.loc 6 244 42 view .LVU732
 2921              	.LBE924:
 2922              	.LBE923:
 2923              	.LBE922:
 199:../../libdaisy/src/hid/disp/display.h ****         {
 2924              		.loc 5 199 26 is_stmt 1 view .LVU733
 2925 042c 05E0     		b	.L199
 2926              	.LVL185:
 2927              	.L296:
 2928              	.LBB929:
 2929              	.LBB930:
 2930              	.LBB931:
 244:../../libdaisy/src/dev/oled_ssd130x.h ****         else
 2931              		.loc 6 244 42 is_stmt 0 view .LVU734
 2932 042e 42F00102 		orr	r2, r2, #1
 2933 0432 03F8012F 		strb	r2, [r3, #1]!
 2934              	.LVL186:
 244:../../libdaisy/src/dev/oled_ssd130x.h ****         else
 2935              		.loc 6 244 42 view .LVU735
 2936              	.LBE931:
 2937              	.LBE930:
 2938              	.LBE929:
 199:../../libdaisy/src/hid/disp/display.h ****         {
 2939              		.loc 5 199 26 is_stmt 1 view .LVU736
 2940 0436 9942     		cmp	r1, r3
 2941 0438 08D0     		beq	.L295
 2942              	.LVL187:
 2943              	.L199:
 2944              	.LBB937:
 2945              	.LBI929:
 2946              		.loc 1 41 10 view .LVU737
 2947              	.LBB936:
 2948              	.LBI930:
 239:../../libdaisy/src/dev/oled_ssd130x.h ****     {
 2949              		.loc 6 239 10 view .LVU738
 2950              	.LBB935:
 2951              	.LBB932:
 2952              	.LBI932:
 239:../../libdaisy/src/dev/oled_ssd130x.h ****     {
 2953              		.loc 6 239 10 view .LVU739
 239:../../libdaisy/src/dev/oled_ssd130x.h ****     {
 2954              		.loc 6 239 10 is_stmt 0 view .LVU740
 2955              	.LBE932:
 244:../../libdaisy/src/dev/oled_ssd130x.h ****         else
 2956              		.loc 6 244 42 view .LVU741
 2957 043a 5A78     		ldrb	r2, [r3, #1]	@ zero_extendqisi2
 243:../../libdaisy/src/dev/oled_ssd130x.h ****             buffer_[x + (y / 8) * width] |= (1 << (y % 8));
 2958              		.loc 6 243 9 view .LVU742
 2959 043c 0028     		cmp	r0, #0
 2960 043e F6D1     		bne	.L296
 2961              	.LBB934:
ARM GAS  C:\Users\VINCIU~1\AppData\Local\Temp\ccGpRbsb.s 			page 84


 2962              	.LBB933:
 246:../../libdaisy/src/dev/oled_ssd130x.h ****     }
 2963              		.loc 6 246 42 view .LVU743
 2964 0440 02F0FE02 		and	r2, r2, #254
 2965 0444 03F8012F 		strb	r2, [r3, #1]!
 2966              	.LVL188:
 246:../../libdaisy/src/dev/oled_ssd130x.h ****     }
 2967              		.loc 6 246 42 view .LVU744
 2968              	.LBE933:
 2969              	.LBE934:
 2970              	.LBE935:
 2971              	.LBE936:
 2972              	.LBE937:
 199:../../libdaisy/src/hid/disp/display.h ****         {
 2973              		.loc 5 199 26 is_stmt 1 view .LVU745
 2974 0448 9942     		cmp	r1, r3
 2975 044a F6D1     		bne	.L199
 2976              	.LVL189:
 2977              	.L295:
 199:../../libdaisy/src/hid/disp/display.h ****         {
 2978              		.loc 5 199 26 is_stmt 0 view .LVU746
 2979              	.LBE921:
 2980              	.LBE920:
 2981              	.LBB940:
 2982              	.LBI940:
 181:../../libdaisy/src/hid/disp/display.h ****                   uint_fast8_t y1,
 2983              		.loc 5 181 10 is_stmt 1 view .LVU747
 2984              	.LBB941:
 2985              	.LBB942:
 2986              	.LBI942:
 2987              		.loc 1 41 10 view .LVU748
 2988              	.LBB943:
 2989              	.LBI943:
 239:../../libdaisy/src/dev/oled_ssd130x.h ****     {
 2990              		.loc 6 239 10 view .LVU749
 2991              	.LBB944:
 244:../../libdaisy/src/dev/oled_ssd130x.h ****         else
 2992              		.loc 6 244 42 is_stmt 0 view .LVU750
 2993 044c 94F81322 		ldrb	r2, [r4, #531]	@ zero_extendqisi2
 243:../../libdaisy/src/dev/oled_ssd130x.h ****             buffer_[x + (y / 8) * width] |= (1 << (y % 8));
 2994              		.loc 6 243 9 view .LVU751
 2995 0450 0028     		cmp	r0, #0
 2996 0452 00F03981 		beq	.L200
 2997              	.LVL190:
 244:../../libdaisy/src/dev/oled_ssd130x.h ****         else
 2998              		.loc 6 244 42 view .LVU752
 2999 0456 42F02002 		orr	r2, r2, #32
 3000              	.LVL191:
 3001              	.L201:
 244:../../libdaisy/src/dev/oled_ssd130x.h ****         else
 3002              		.loc 6 244 42 view .LVU753
 3003              	.LBE944:
 3004              	.LBE943:
 3005              	.LBE942:
 3006              	.LBE941:
 3007              	.LBE940:
 3008              	.LBE919:
ARM GAS  C:\Users\VINCIU~1\AppData\Local\Temp\ccGpRbsb.s 			page 85


 3009 045a 0023     		movs	r3, #0
 3010 045c 84F81322 		strb	r2, [r4, #531]
 3011              	.LVL192:
 3012              	.LBB1034:
 3013              	.LBB979:
 3014              	.LBB977:
 199:../../libdaisy/src/hid/disp/display.h ****         {
 3015              		.loc 5 199 26 is_stmt 1 view .LVU754
 3016 0460 05E0     		b	.L204
 3017              	.LVL193:
 3018              	.L298:
 3019              	.LBB949:
 3020              	.LBB950:
 3021              	.LBB951:
 244:../../libdaisy/src/dev/oled_ssd130x.h ****         else
 3022              		.loc 6 244 42 is_stmt 0 view .LVU755
 3023 0462 0A7D     		ldrb	r2, [r1, #20]	@ zero_extendqisi2
 3024              	.LBE951:
 3025              	.LBE950:
 3026              	.LBE949:
 212:../../libdaisy/src/hid/disp/display.h ****             }
 3027              		.loc 5 212 20 view .LVU756
 3028 0464 0133     		adds	r3, r3, #1
 3029              	.LVL194:
 3030              	.LBB971:
 3031              	.LBB966:
 3032              	.LBB961:
 244:../../libdaisy/src/dev/oled_ssd130x.h ****         else
 3033              		.loc 6 244 42 view .LVU757
 3034 0466 1543     		orrs	r5, r5, r2
 3035              	.LBE961:
 3036              	.LBE966:
 3037              	.LBE971:
 199:../../libdaisy/src/hid/disp/display.h ****         {
 3038              		.loc 5 199 26 view .LVU758
 3039 0468 1D2B     		cmp	r3, #29
 3040              	.LBB972:
 3041              	.LBB967:
 3042              	.LBB962:
 244:../../libdaisy/src/dev/oled_ssd130x.h ****         else
 3043              		.loc 6 244 42 view .LVU759
 3044 046a 0D75     		strb	r5, [r1, #20]
 3045              	.LVL195:
 244:../../libdaisy/src/dev/oled_ssd130x.h ****         else
 3046              		.loc 6 244 42 view .LVU760
 3047              	.LBE962:
 3048              	.LBE967:
 3049              	.LBE972:
 199:../../libdaisy/src/hid/disp/display.h ****         {
 3050              		.loc 5 199 26 is_stmt 1 view .LVU761
 3051 046c 12D0     		beq	.L297
 3052              	.LVL196:
 3053              	.L204:
 3054              	.LBB973:
 3055              	.LBI949:
 3056              		.loc 1 41 10 view .LVU762
 3057              	.LBB968:
ARM GAS  C:\Users\VINCIU~1\AppData\Local\Temp\ccGpRbsb.s 			page 86


 3058              	.LBI950:
 239:../../libdaisy/src/dev/oled_ssd130x.h ****     {
 3059              		.loc 6 239 10 view .LVU763
 3060              	.LBB963:
 3061              	.LBB952:
 3062              	.LBI952:
 239:../../libdaisy/src/dev/oled_ssd130x.h ****     {
 3063              		.loc 6 239 10 view .LVU764
 239:../../libdaisy/src/dev/oled_ssd130x.h ****     {
 3064              		.loc 6 239 10 is_stmt 0 view .LVU765
 3065              	.LBE952:
 244:../../libdaisy/src/dev/oled_ssd130x.h ****         else
 3066              		.loc 6 244 42 view .LVU766
 3067 046e 1901     		lsls	r1, r3, #4
 244:../../libdaisy/src/dev/oled_ssd130x.h ****         else
 3068              		.loc 6 244 54 view .LVU767
 3069 0470 03F00707 		and	r7, r3, #7
 244:../../libdaisy/src/dev/oled_ssd130x.h ****         else
 3070              		.loc 6 244 48 view .LVU768
 3071 0474 0125     		movs	r5, #1
 244:../../libdaisy/src/dev/oled_ssd130x.h ****         else
 3072              		.loc 6 244 42 view .LVU769
 3073 0476 41F07F01 		orr	r1, r1, #127
 244:../../libdaisy/src/dev/oled_ssd130x.h ****         else
 3074              		.loc 6 244 48 view .LVU770
 3075 047a BD40     		lsls	r5, r5, r7
 244:../../libdaisy/src/dev/oled_ssd130x.h ****         else
 3076              		.loc 6 244 42 view .LVU771
 3077 047c 2144     		add	r1, r1, r4
 3078              	.LBB957:
 3079              	.LBB953:
 246:../../libdaisy/src/dev/oled_ssd130x.h ****     }
 3080              		.loc 6 246 42 view .LVU772
 3081 047e 0A46     		mov	r2, r1
 3082              	.LBE953:
 3083              	.LBE957:
 243:../../libdaisy/src/dev/oled_ssd130x.h ****             buffer_[x + (y / 8) * width] |= (1 << (y % 8));
 3084              		.loc 6 243 9 view .LVU773
 3085 0480 0028     		cmp	r0, #0
 3086 0482 EED1     		bne	.L298
 3087              	.LBB958:
 3088              	.LBB954:
 246:../../libdaisy/src/dev/oled_ssd130x.h ****     }
 3089              		.loc 6 246 42 view .LVU774
 3090 0484 097D     		ldrb	r1, [r1, #20]	@ zero_extendqisi2
 3091              	.LBE954:
 3092              	.LBE958:
 3093              	.LBE963:
 3094              	.LBE968:
 3095              	.LBE973:
 212:../../libdaisy/src/hid/disp/display.h ****             }
 3096              		.loc 5 212 20 view .LVU775
 3097 0486 0133     		adds	r3, r3, #1
 3098              	.LVL197:
 3099              	.LBB974:
 3100              	.LBB969:
 3101              	.LBB964:
ARM GAS  C:\Users\VINCIU~1\AppData\Local\Temp\ccGpRbsb.s 			page 87


 3102              	.LBB959:
 3103              	.LBB955:
 246:../../libdaisy/src/dev/oled_ssd130x.h ****     }
 3104              		.loc 6 246 42 view .LVU776
 3105 0488 21EA050C 		bic	ip, r1, r5
 3106              	.LBE955:
 3107              	.LBE959:
 3108              	.LBE964:
 3109              	.LBE969:
 3110              	.LBE974:
 199:../../libdaisy/src/hid/disp/display.h ****         {
 3111              		.loc 5 199 26 view .LVU777
 3112 048c 1D2B     		cmp	r3, #29
 3113              	.LBB975:
 3114              	.LBB970:
 3115              	.LBB965:
 3116              	.LBB960:
 3117              	.LBB956:
 246:../../libdaisy/src/dev/oled_ssd130x.h ****     }
 3118              		.loc 6 246 42 view .LVU778
 3119 048e 82F814C0 		strb	ip, [r2, #20]
 3120              	.LVL198:
 246:../../libdaisy/src/dev/oled_ssd130x.h ****     }
 3121              		.loc 6 246 42 view .LVU779
 3122              	.LBE956:
 3123              	.LBE960:
 3124              	.LBE965:
 3125              	.LBE970:
 3126              	.LBE975:
 199:../../libdaisy/src/hid/disp/display.h ****         {
 3127              		.loc 5 199 26 is_stmt 1 view .LVU780
 3128 0492 ECD1     		bne	.L204
 3129              	.L297:
 3130              	.LVL199:
 199:../../libdaisy/src/hid/disp/display.h ****         {
 3131              		.loc 5 199 26 is_stmt 0 view .LVU781
 3132              	.LBE977:
 3133              	.LBE979:
 3134              	.LBB980:
 3135              	.LBI980:
 181:../../libdaisy/src/hid/disp/display.h ****                   uint_fast8_t y1,
 3136              		.loc 5 181 10 is_stmt 1 view .LVU782
 3137              	.LBB981:
 3138              	.LBB982:
 3139              	.LBI982:
 3140              		.loc 1 41 10 view .LVU783
 3141              	.LBB983:
 3142              	.LBI983:
 239:../../libdaisy/src/dev/oled_ssd130x.h ****     {
 3143              		.loc 6 239 10 view .LVU784
 3144              	.LBB984:
 244:../../libdaisy/src/dev/oled_ssd130x.h ****         else
 3145              		.loc 6 244 42 is_stmt 0 view .LVU785
 3146 0494 94F8D021 		ldrb	r2, [r4, #464]	@ zero_extendqisi2
 243:../../libdaisy/src/dev/oled_ssd130x.h ****             buffer_[x + (y / 8) * width] |= (1 << (y % 8));
 3147              		.loc 6 243 9 view .LVU786
 3148 0498 0028     		cmp	r0, #0
ARM GAS  C:\Users\VINCIU~1\AppData\Local\Temp\ccGpRbsb.s 			page 88


 3149 049a 00F01281 		beq	.L205
 3150              	.LVL200:
 244:../../libdaisy/src/dev/oled_ssd130x.h ****         else
 3151              		.loc 6 244 42 view .LVU787
 3152 049e 42F02002 		orr	r2, r2, #32
 3153              	.LVL201:
 3154              	.L206:
 244:../../libdaisy/src/dev/oled_ssd130x.h ****         else
 3155              		.loc 6 244 42 view .LVU788
 3156 04a2 84F8D021 		strb	r2, [r4, #464]
 3157              	.LVL202:
 244:../../libdaisy/src/dev/oled_ssd130x.h ****         else
 3158              		.loc 6 244 42 view .LVU789
 3159              	.LBE984:
 3160              	.LBE983:
 3161              	.LBE982:
 199:../../libdaisy/src/hid/disp/display.h ****         {
 3162              		.loc 5 199 26 is_stmt 1 view .LVU790
 3163 04a6 04F5E875 		add	r5, r4, #464
 3164 04aa 04F21322 		addw	r2, r4, #531
 3165 04ae 05E0     		b	.L209
 3166              	.LVL203:
 3167              	.L300:
 3168              	.LBB989:
 3169              	.LBB990:
 3170              	.LBB991:
 244:../../libdaisy/src/dev/oled_ssd130x.h ****         else
 3171              		.loc 6 244 42 is_stmt 0 view .LVU791
 3172 04b0 41F02001 		orr	r1, r1, #32
 3173              	.LBE991:
 3174              	.LBE990:
 3175              	.LBE989:
 199:../../libdaisy/src/hid/disp/display.h ****         {
 3176              		.loc 5 199 26 view .LVU792
 3177 04b4 013A     		subs	r2, r2, #1
 3178              	.LVL204:
 3179              	.LBB1003:
 3180              	.LBB1000:
 3181              	.LBB997:
 244:../../libdaisy/src/dev/oled_ssd130x.h ****         else
 3182              		.loc 6 244 42 view .LVU793
 3183 04b6 5170     		strb	r1, [r2, #1]
 3184              	.LVL205:
 244:../../libdaisy/src/dev/oled_ssd130x.h ****         else
 3185              		.loc 6 244 42 view .LVU794
 3186              	.LBE997:
 3187              	.LBE1000:
 3188              	.LBE1003:
 199:../../libdaisy/src/hid/disp/display.h ****         {
 3189              		.loc 5 199 26 is_stmt 1 view .LVU795
 3190 04b8 9542     		cmp	r5, r2
 3191 04ba 08D0     		beq	.L299
 3192              	.LVL206:
 3193              	.L209:
 3194              	.LBB1004:
 3195              	.LBI989:
 3196              		.loc 1 41 10 view .LVU796
ARM GAS  C:\Users\VINCIU~1\AppData\Local\Temp\ccGpRbsb.s 			page 89


 3197              	.LBB1001:
 3198              	.LBI990:
 239:../../libdaisy/src/dev/oled_ssd130x.h ****     {
 3199              		.loc 6 239 10 view .LVU797
 3200              	.LBB998:
 3201              	.LBB992:
 3202              	.LBI992:
 239:../../libdaisy/src/dev/oled_ssd130x.h ****     {
 3203              		.loc 6 239 10 view .LVU798
 239:../../libdaisy/src/dev/oled_ssd130x.h ****     {
 3204              		.loc 6 239 10 is_stmt 0 view .LVU799
 3205              	.LBE992:
 244:../../libdaisy/src/dev/oled_ssd130x.h ****         else
 3206              		.loc 6 244 42 view .LVU800
 3207 04bc 1178     		ldrb	r1, [r2]	@ zero_extendqisi2
 243:../../libdaisy/src/dev/oled_ssd130x.h ****             buffer_[x + (y / 8) * width] |= (1 << (y % 8));
 3208              		.loc 6 243 9 view .LVU801
 3209 04be 0028     		cmp	r0, #0
 3210 04c0 F6D1     		bne	.L300
 3211              	.LBB995:
 3212              	.LBB993:
 246:../../libdaisy/src/dev/oled_ssd130x.h ****     }
 3213              		.loc 6 246 42 view .LVU802
 3214 04c2 21F02001 		bic	r1, r1, #32
 3215              	.LBE993:
 3216              	.LBE995:
 3217              	.LBE998:
 3218              	.LBE1001:
 3219              	.LBE1004:
 199:../../libdaisy/src/hid/disp/display.h ****         {
 3220              		.loc 5 199 26 view .LVU803
 3221 04c6 013A     		subs	r2, r2, #1
 3222              	.LVL207:
 3223              	.LBB1005:
 3224              	.LBB1002:
 3225              	.LBB999:
 3226              	.LBB996:
 3227              	.LBB994:
 246:../../libdaisy/src/dev/oled_ssd130x.h ****     }
 3228              		.loc 6 246 42 view .LVU804
 3229 04c8 5170     		strb	r1, [r2, #1]
 3230              	.LVL208:
 246:../../libdaisy/src/dev/oled_ssd130x.h ****     }
 3231              		.loc 6 246 42 view .LVU805
 3232              	.LBE994:
 3233              	.LBE996:
 3234              	.LBE999:
 3235              	.LBE1002:
 3236              	.LBE1005:
 199:../../libdaisy/src/hid/disp/display.h ****         {
 3237              		.loc 5 199 26 is_stmt 1 view .LVU806
 3238 04ca 9542     		cmp	r5, r2
 3239 04cc F6D1     		bne	.L209
 3240              	.L299:
 3241              	.LVL209:
 199:../../libdaisy/src/hid/disp/display.h ****         {
 3242              		.loc 5 199 26 is_stmt 0 view .LVU807
ARM GAS  C:\Users\VINCIU~1\AppData\Local\Temp\ccGpRbsb.s 			page 90


 3243              	.LBE981:
 3244              	.LBE980:
 3245              	.LBB1008:
 3246              	.LBI1008:
 181:../../libdaisy/src/hid/disp/display.h ****                   uint_fast8_t y1,
 3247              		.loc 5 181 10 is_stmt 1 view .LVU808
 3248              	.LBB1009:
 3249              	.LBB1010:
 3250              	.LBI1010:
 3251              		.loc 1 41 10 view .LVU809
 3252              	.LBB1011:
 3253              	.LBI1011:
 239:../../libdaisy/src/dev/oled_ssd130x.h ****     {
 3254              		.loc 6 239 10 view .LVU810
 3255              	.LBB1012:
 244:../../libdaisy/src/dev/oled_ssd130x.h ****         else
 3256              		.loc 6 244 42 is_stmt 0 view .LVU811
 3257 04ce 94F85020 		ldrb	r2, [r4, #80]	@ zero_extendqisi2
 243:../../libdaisy/src/dev/oled_ssd130x.h ****             buffer_[x + (y / 8) * width] |= (1 << (y % 8));
 3258              		.loc 6 243 9 view .LVU812
 3259 04d2 0028     		cmp	r0, #0
 3260 04d4 00F0F280 		beq	.L210
 3261              	.LVL210:
 244:../../libdaisy/src/dev/oled_ssd130x.h ****         else
 3262              		.loc 6 244 42 view .LVU813
 3263 04d8 42F00102 		orr	r2, r2, #1
 3264              	.LVL211:
 3265              	.L211:
 244:../../libdaisy/src/dev/oled_ssd130x.h ****         else
 3266              		.loc 6 244 42 view .LVU814
 3267 04dc 84F85020 		strb	r2, [r4, #80]
 3268              	.LVL212:
 244:../../libdaisy/src/dev/oled_ssd130x.h ****         else
 3269              		.loc 6 244 42 view .LVU815
 3270              	.LBE1012:
 3271              	.LBE1011:
 3272              	.LBE1010:
 199:../../libdaisy/src/hid/disp/display.h ****         {
 3273              		.loc 5 199 26 is_stmt 1 view .LVU816
 3274 04e0 06E0     		b	.L214
 3275              	.LVL213:
 3276              	.L301:
 3277              	.LBB1017:
 3278              	.LBB1018:
 3279              	.LBB1019:
 244:../../libdaisy/src/dev/oled_ssd130x.h ****         else
 3280              		.loc 6 244 42 is_stmt 0 view .LVU817
 3281 04e2 95F85020 		ldrb	r2, [r5, #80]	@ zero_extendqisi2
 3282 04e6 1143     		orrs	r1, r1, r2
 3283 04e8 85F85010 		strb	r1, [r5, #80]
 3284              	.L213:
 3285              	.LVL214:
 244:../../libdaisy/src/dev/oled_ssd130x.h ****         else
 3286              		.loc 6 244 42 view .LVU818
 3287              	.LBE1019:
 3288              	.LBE1018:
 3289              	.LBE1017:
ARM GAS  C:\Users\VINCIU~1\AppData\Local\Temp\ccGpRbsb.s 			page 91


 199:../../libdaisy/src/hid/disp/display.h ****         {
 3290              		.loc 5 199 26 is_stmt 1 view .LVU819
 3291 04ec 013B     		subs	r3, r3, #1
 3292              	.LVL215:
 199:../../libdaisy/src/hid/disp/display.h ****         {
 3293              		.loc 5 199 26 is_stmt 0 view .LVU820
 3294 04ee 1BD0     		beq	.L188
 3295              	.LVL216:
 3296              	.L214:
 3297              	.LBB1027:
 3298              	.LBI1017:
 3299              		.loc 1 41 10 is_stmt 1 view .LVU821
 3300              	.LBB1026:
 3301              	.LBI1018:
 239:../../libdaisy/src/dev/oled_ssd130x.h ****     {
 3302              		.loc 6 239 10 view .LVU822
 3303              	.LBB1025:
 3304              	.LBB1020:
 3305              	.LBI1020:
 239:../../libdaisy/src/dev/oled_ssd130x.h ****     {
 3306              		.loc 6 239 10 view .LVU823
 239:../../libdaisy/src/dev/oled_ssd130x.h ****     {
 3307              		.loc 6 239 10 is_stmt 0 view .LVU824
 3308              	.LBE1020:
 244:../../libdaisy/src/dev/oled_ssd130x.h ****         else
 3309              		.loc 6 244 48 view .LVU825
 3310 04f0 0121     		movs	r1, #1
 244:../../libdaisy/src/dev/oled_ssd130x.h ****         else
 3311              		.loc 6 244 28 view .LVU826
 3312 04f2 DD08     		lsrs	r5, r3, #3
 244:../../libdaisy/src/dev/oled_ssd130x.h ****         else
 3313              		.loc 6 244 54 view .LVU827
 3314 04f4 03F0070C 		and	ip, r3, #7
 3315              	.LBB1023:
 3316              	.LBB1021:
 246:../../libdaisy/src/dev/oled_ssd130x.h ****     }
 3317              		.loc 6 246 49 view .LVU828
 3318 04f8 0F46     		mov	r7, r1
 3319              	.LBE1021:
 3320              	.LBE1023:
 244:../../libdaisy/src/dev/oled_ssd130x.h ****         else
 3321              		.loc 6 244 42 view .LVU829
 3322 04fa 04EBC515 		add	r5, r4, r5, lsl #7
 244:../../libdaisy/src/dev/oled_ssd130x.h ****         else
 3323              		.loc 6 244 48 view .LVU830
 3324 04fe 01FA0CF1 		lsl	r1, r1, ip
 243:../../libdaisy/src/dev/oled_ssd130x.h ****             buffer_[x + (y / 8) * width] |= (1 << (y % 8));
 3325              		.loc 6 243 9 view .LVU831
 3326 0502 0028     		cmp	r0, #0
 3327 0504 EDD1     		bne	.L301
 3328              	.LBB1024:
 3329              	.LBB1022:
 246:../../libdaisy/src/dev/oled_ssd130x.h ****     }
 3330              		.loc 6 246 42 view .LVU832
 3331 0506 95F85010 		ldrb	r1, [r5, #80]	@ zero_extendqisi2
 246:../../libdaisy/src/dev/oled_ssd130x.h ****     }
 3332              		.loc 6 246 49 view .LVU833
ARM GAS  C:\Users\VINCIU~1\AppData\Local\Temp\ccGpRbsb.s 			page 92


 3333 050a 07FA0CF7 		lsl	r7, r7, ip
 246:../../libdaisy/src/dev/oled_ssd130x.h ****     }
 3334              		.loc 6 246 42 view .LVU834
 3335 050e 21EA0707 		bic	r7, r1, r7
 3336 0512 85F85070 		strb	r7, [r5, #80]
 3337 0516 E9E7     		b	.L213
 3338              	.LVL217:
 3339              	.L287:
 246:../../libdaisy/src/dev/oled_ssd130x.h ****     }
 3340              		.loc 6 246 42 view .LVU835
 3341              	.LBE1022:
 3342              	.LBE1024:
 3343              	.LBE1025:
 3344              	.LBE1026:
 3345              	.LBE1027:
 3346              	.LBE1009:
 3347              	.LBE1008:
 3348              	.LBE1034:
 3349              	.LBE1059:
 157:Menus.cpp     ****         on                = this->OscSelector;
 3350              		.loc 2 157 9 is_stmt 1 view .LVU836
 157:Menus.cpp     ****         on                = this->OscSelector;
 3351              		.loc 2 157 29 is_stmt 0 view .LVU837
 3352 0518 95F87430 		ldrb	r3, [r5, #116]	@ zero_extendqisi2
 3353 051c 83F00103 		eor	r3, r3, #1
 157:Menus.cpp     ****         on                = this->OscSelector;
 3354              		.loc 2 157 27 view .LVU838
 3355 0520 85F87430 		strb	r3, [r5, #116]
 158:Menus.cpp     ****     }
 3356              		.loc 2 158 9 is_stmt 1 view .LVU839
 158:Menus.cpp     ****     }
 3357              		.loc 2 158 27 is_stmt 0 view .LVU840
 3358 0524 85F86831 		strb	r3, [r5, #360]
 3359              	.LVL218:
 3360              	.L188:
 158:Menus.cpp     ****     }
 3361              		.loc 2 158 27 view .LVU841
 3362              	.LBE1093:
 3363              	.LBB1094:
 3364              	.LBB1095:
 3365              	.LBB1096:
 3366              	.LBB1097:
 3367              	.LBB1098:
 111:../../libdaisy/src/dev/oled_ssd130x.h ****         spi_.BlockingTransmit(&cmd, 1);
 3368              		.loc 6 111 24 view .LVU842
 3369 0528 04F10807 		add	r7, r4, #8
 112:../../libdaisy/src/dev/oled_ssd130x.h ****     };
 3370              		.loc 6 112 30 view .LVU843
 3371 052c B025     		movs	r5, #176
 111:../../libdaisy/src/dev/oled_ssd130x.h ****         spi_.BlockingTransmit(&cmd, 1);
 3372              		.loc 6 111 24 view .LVU844
 3373 052e 1034     		adds	r4, r4, #16
 3374              	.LVL219:
 3375              	.L243:
 111:../../libdaisy/src/dev/oled_ssd130x.h ****         spi_.BlockingTransmit(&cmd, 1);
 3376              		.loc 6 111 24 view .LVU845
 3377 0530 4FF00008 		mov	r8, #0
ARM GAS  C:\Users\VINCIU~1\AppData\Local\Temp\ccGpRbsb.s 			page 93


 111:../../libdaisy/src/dev/oled_ssd130x.h ****         spi_.BlockingTransmit(&cmd, 1);
 3378              		.loc 6 111 23 view .LVU846
 3379 0534 2046     		mov	r0, r4
 3380 0536 8DF81750 		strb	r5, [sp, #23]
 3381              	.LVL220:
 111:../../libdaisy/src/dev/oled_ssd130x.h ****         spi_.BlockingTransmit(&cmd, 1);
 3382              		.loc 6 111 23 view .LVU847
 3383              	.LBE1098:
 3384              	.LBI1097:
 109:../../libdaisy/src/dev/oled_ssd130x.h ****     {
 3385              		.loc 6 109 10 is_stmt 1 view .LVU848
 3386              	.LBB1099:
 111:../../libdaisy/src/dev/oled_ssd130x.h ****         spi_.BlockingTransmit(&cmd, 1);
 3387              		.loc 6 111 9 view .LVU849
 3388              	.LBE1099:
 3389              	.LBE1097:
 254:../../libdaisy/src/dev/oled_ssd130x.h ****         }
 255:../../libdaisy/src/dev/oled_ssd130x.h ****     };
 256:../../libdaisy/src/dev/oled_ssd130x.h **** 
 257:../../libdaisy/src/dev/oled_ssd130x.h ****     /**
 258:../../libdaisy/src/dev/oled_ssd130x.h ****      * Update the display 
 259:../../libdaisy/src/dev/oled_ssd130x.h ****     */
 260:../../libdaisy/src/dev/oled_ssd130x.h ****     void Update()
 261:../../libdaisy/src/dev/oled_ssd130x.h ****     {
 262:../../libdaisy/src/dev/oled_ssd130x.h ****         uint8_t i;
 263:../../libdaisy/src/dev/oled_ssd130x.h ****         uint8_t high_column_addr;
 264:../../libdaisy/src/dev/oled_ssd130x.h ****         switch(height)
 265:../../libdaisy/src/dev/oled_ssd130x.h ****         {
 266:../../libdaisy/src/dev/oled_ssd130x.h ****             case 32: high_column_addr = 0x12; break;
 267:../../libdaisy/src/dev/oled_ssd130x.h **** 
 268:../../libdaisy/src/dev/oled_ssd130x.h ****             default: high_column_addr = 0x10; break;
 269:../../libdaisy/src/dev/oled_ssd130x.h ****         }
 270:../../libdaisy/src/dev/oled_ssd130x.h ****         for(i = 0; i < (height / 8); i++)
 3390              		.loc 6 270 22 is_stmt 0 view .LVU850
 3391 053a 0135     		adds	r5, r5, #1
 3392              	.LVL221:
 3393              	.LBB1102:
 3394              	.LBB1100:
 111:../../libdaisy/src/dev/oled_ssd130x.h ****         spi_.BlockingTransmit(&cmd, 1);
 3395              		.loc 6 111 23 view .LVU851
 3396 053c 4146     		mov	r1, r8
 3397 053e FFF7FEFF 		bl	dsy_gpio_write
 3398              	.LVL222:
 112:../../libdaisy/src/dev/oled_ssd130x.h ****     };
 3399              		.loc 6 112 9 is_stmt 1 view .LVU852
 112:../../libdaisy/src/dev/oled_ssd130x.h ****     };
 3400              		.loc 6 112 30 is_stmt 0 view .LVU853
 3401 0542 6423     		movs	r3, #100
 3402 0544 0122     		movs	r2, #1
 3403 0546 0DF11701 		add	r1, sp, #23
 3404 054a 3846     		mov	r0, r7
 3405              	.LBE1100:
 3406              	.LBE1102:
 3407              		.loc 6 270 22 view .LVU854
 3408 054c EDB2     		uxtb	r5, r5
 3409              	.LBB1103:
 3410              	.LBB1101:
ARM GAS  C:\Users\VINCIU~1\AppData\Local\Temp\ccGpRbsb.s 			page 94


 112:../../libdaisy/src/dev/oled_ssd130x.h ****     };
 3411              		.loc 6 112 30 view .LVU855
 3412 054e FFF7FEFF 		bl	_ZN5daisy9SpiHandle16BlockingTransmitEPhjm
 3413              	.LVL223:
 112:../../libdaisy/src/dev/oled_ssd130x.h ****     };
 3414              		.loc 6 112 30 view .LVU856
 3415              	.LBE1101:
 3416              	.LBE1103:
 3417              	.LBB1104:
 3418              	.LBB1105:
 111:../../libdaisy/src/dev/oled_ssd130x.h ****         spi_.BlockingTransmit(&cmd, 1);
 3419              		.loc 6 111 23 view .LVU857
 3420 0552 4146     		mov	r1, r8
 3421 0554 2046     		mov	r0, r4
 3422 0556 8DF81780 		strb	r8, [sp, #23]
 3423              	.LVL224:
 111:../../libdaisy/src/dev/oled_ssd130x.h ****         spi_.BlockingTransmit(&cmd, 1);
 3424              		.loc 6 111 23 view .LVU858
 3425              	.LBE1105:
 3426              	.LBI1104:
 109:../../libdaisy/src/dev/oled_ssd130x.h ****     {
 3427              		.loc 6 109 10 is_stmt 1 view .LVU859
 3428              	.LBB1106:
 111:../../libdaisy/src/dev/oled_ssd130x.h ****         spi_.BlockingTransmit(&cmd, 1);
 3429              		.loc 6 111 9 view .LVU860
 111:../../libdaisy/src/dev/oled_ssd130x.h ****         spi_.BlockingTransmit(&cmd, 1);
 3430              		.loc 6 111 23 is_stmt 0 view .LVU861
 3431 055a FFF7FEFF 		bl	dsy_gpio_write
 3432              	.LVL225:
 112:../../libdaisy/src/dev/oled_ssd130x.h ****     };
 3433              		.loc 6 112 9 is_stmt 1 view .LVU862
 112:../../libdaisy/src/dev/oled_ssd130x.h ****     };
 3434              		.loc 6 112 30 is_stmt 0 view .LVU863
 3435 055e 0122     		movs	r2, #1
 3436 0560 6423     		movs	r3, #100
 3437 0562 0DF11701 		add	r1, sp, #23
 3438 0566 3846     		mov	r0, r7
 3439 0568 FFF7FEFF 		bl	_ZN5daisy9SpiHandle16BlockingTransmitEPhjm
 3440              	.LVL226:
 112:../../libdaisy/src/dev/oled_ssd130x.h ****     };
 3441              		.loc 6 112 30 view .LVU864
 3442 056c 1023     		movs	r3, #16
 3443              	.LBE1106:
 3444              	.LBE1104:
 3445              	.LBB1107:
 3446              	.LBB1108:
 111:../../libdaisy/src/dev/oled_ssd130x.h ****         spi_.BlockingTransmit(&cmd, 1);
 3447              		.loc 6 111 23 view .LVU865
 3448 056e 4146     		mov	r1, r8
 3449 0570 2046     		mov	r0, r4
 3450 0572 8DF81730 		strb	r3, [sp, #23]
 3451              	.LVL227:
 111:../../libdaisy/src/dev/oled_ssd130x.h ****         spi_.BlockingTransmit(&cmd, 1);
 3452              		.loc 6 111 23 view .LVU866
 3453              	.LBE1108:
 3454              	.LBI1107:
 109:../../libdaisy/src/dev/oled_ssd130x.h ****     {
ARM GAS  C:\Users\VINCIU~1\AppData\Local\Temp\ccGpRbsb.s 			page 95


 3455              		.loc 6 109 10 is_stmt 1 view .LVU867
 3456              	.LBB1109:
 111:../../libdaisy/src/dev/oled_ssd130x.h ****         spi_.BlockingTransmit(&cmd, 1);
 3457              		.loc 6 111 9 view .LVU868
 111:../../libdaisy/src/dev/oled_ssd130x.h ****         spi_.BlockingTransmit(&cmd, 1);
 3458              		.loc 6 111 23 is_stmt 0 view .LVU869
 3459 0576 FFF7FEFF 		bl	dsy_gpio_write
 3460              	.LVL228:
 112:../../libdaisy/src/dev/oled_ssd130x.h ****     };
 3461              		.loc 6 112 9 is_stmt 1 view .LVU870
 112:../../libdaisy/src/dev/oled_ssd130x.h ****     };
 3462              		.loc 6 112 30 is_stmt 0 view .LVU871
 3463 057a 6423     		movs	r3, #100
 3464 057c 0122     		movs	r2, #1
 3465 057e 0DF11701 		add	r1, sp, #23
 3466 0582 3846     		mov	r0, r7
 3467 0584 FFF7FEFF 		bl	_ZN5daisy9SpiHandle16BlockingTransmitEPhjm
 3468              	.LVL229:
 112:../../libdaisy/src/dev/oled_ssd130x.h ****     };
 3469              		.loc 6 112 30 view .LVU872
 3470              	.LBE1109:
 3471              	.LBE1107:
 3472              	.LBB1110:
 3473              	.LBI1110:
 115:../../libdaisy/src/dev/oled_ssd130x.h ****     {
 3474              		.loc 6 115 10 is_stmt 1 view .LVU873
 3475              	.LBB1111:
 117:../../libdaisy/src/dev/oled_ssd130x.h ****         spi_.BlockingTransmit(buff, size);
 3476              		.loc 6 117 9 view .LVU874
 117:../../libdaisy/src/dev/oled_ssd130x.h ****         spi_.BlockingTransmit(buff, size);
 3477              		.loc 6 117 23 is_stmt 0 view .LVU875
 3478 0588 0121     		movs	r1, #1
 3479 058a 2046     		mov	r0, r4
 3480 058c FFF7FEFF 		bl	dsy_gpio_write
 3481              	.LVL230:
 118:../../libdaisy/src/dev/oled_ssd130x.h ****     };
 3482              		.loc 6 118 9 is_stmt 1 view .LVU876
 118:../../libdaisy/src/dev/oled_ssd130x.h ****     };
 3483              		.loc 6 118 30 is_stmt 0 view .LVU877
 3484 0590 8022     		movs	r2, #128
 3485 0592 3146     		mov	r1, r6
 3486 0594 6423     		movs	r3, #100
 3487 0596 3846     		mov	r0, r7
 3488              	.LBE1111:
 3489              	.LBE1110:
 3490              		.loc 6 270 22 view .LVU878
 3491 0598 1644     		add	r6, r6, r2
 3492              	.LVL231:
 3493              	.LBB1113:
 3494              	.LBB1112:
 118:../../libdaisy/src/dev/oled_ssd130x.h ****     };
 3495              		.loc 6 118 30 view .LVU879
 3496 059a FFF7FEFF 		bl	_ZN5daisy9SpiHandle16BlockingTransmitEPhjm
 3497              	.LVL232:
 118:../../libdaisy/src/dev/oled_ssd130x.h ****     };
 3498              		.loc 6 118 30 view .LVU880
 3499              	.LBE1112:
ARM GAS  C:\Users\VINCIU~1\AppData\Local\Temp\ccGpRbsb.s 			page 96


 3500              	.LBE1113:
 3501              		.loc 6 270 9 is_stmt 1 view .LVU881
 3502              		.loc 6 270 22 view .LVU882
 3503 059e B82D     		cmp	r5, #184
 3504 05a0 C6D1     		bne	.L243
 3505              	.LBE1096:
 3506              	.LBE1095:
 3507              	.LBE1094:
 413:Menus.cpp     ****                         screen.Height() / 2 - 3,
 414:Menus.cpp     ****                         screen.Width() - 1,
 415:Menus.cpp     ****                         screen.Height() - 1,
 416:Menus.cpp     ****                         on,
 417:Menus.cpp     ****                         false);
 418:Menus.cpp     ****     }
 419:Menus.cpp     ****     //noteCross            = noteCross + (this->drawSliderSemi * 100);
 420:Menus.cpp     ****     screen.Update();
 421:Menus.cpp     **** }
 3508              		.loc 2 421 1 is_stmt 0 view .LVU883
 3509 05a2 07B0     		add	sp, sp, #28
 3510              		.cfi_remember_state
 3511              		.cfi_def_cfa_offset 36
 3512              		@ sp needed
 3513 05a4 BDEC028B 		vldm	sp!, {d8}
 3514              		.cfi_restore 80
 3515              		.cfi_restore 81
 3516              		.cfi_def_cfa_offset 28
 3517 05a8 BDE8F083 		pop	{r4, r5, r6, r7, r8, r9, pc}
 3518              	.LVL233:
 3519              	.L282:
 3520              		.cfi_restore_state
  96:Menus.cpp     ****         if(menuState < 0)
 3521              		.loc 2 96 9 is_stmt 1 view .LVU884
  97:Menus.cpp     ****         {
 3522              		.loc 2 97 9 view .LVU885
  96:Menus.cpp     ****         if(menuState < 0)
 3523              		.loc 2 96 31 is_stmt 0 view .LVU886
 3524 05ac EB6E     		ldr	r3, [r5, #108]
  97:Menus.cpp     ****         {
 3525              		.loc 2 97 9 view .LVU887
 3526 05ae 013B     		subs	r3, r3, #1
 3527 05b0 7CD4     		bmi	.L168
  96:Menus.cpp     ****         if(menuState < 0)
 3528              		.loc 2 96 19 view .LVU888
 3529 05b2 EB66     		str	r3, [r5, #108]
 102:Menus.cpp     **** 
 3530              		.loc 2 102 5 is_stmt 1 view .LVU889
 3531              	.LVL234:
 3532              	.LBB1114:
 3533              		.loc 4 69 17 view .LVU890
 3534              	.LBB750:
 3535              		.loc 4 69 38 view .LVU891
 3536              		.loc 4 69 38 is_stmt 0 view .LVU892
 3537              	.LBE750:
 3538              	.LBE1114:
 102:Menus.cpp     **** 
 3539              		.loc 2 102 5 view .LVU893
 3540 05b4 95F86130 		ldrb	r3, [r5, #97]	@ zero_extendqisi2
ARM GAS  C:\Users\VINCIU~1\AppData\Local\Temp\ccGpRbsb.s 			page 97


 3541 05b8 7F2B     		cmp	r3, #127
 3542 05ba 7FF440AD 		bne	.L170
 3543              	.L283:
 105:Menus.cpp     ****         if(menuState > 3)
 3544              		.loc 2 105 9 is_stmt 1 view .LVU894
 105:Menus.cpp     ****         if(menuState > 3)
 3545              		.loc 2 105 31 is_stmt 0 view .LVU895
 3546 05be EB6E     		ldr	r3, [r5, #108]
 3547 05c0 0133     		adds	r3, r3, #1
 106:Menus.cpp     ****         {
 3548              		.loc 2 106 9 view .LVU896
 3549 05c2 032B     		cmp	r3, #3
 105:Menus.cpp     ****         if(menuState > 3)
 3550              		.loc 2 105 19 view .LVU897
 3551 05c4 EB66     		str	r3, [r5, #108]
 106:Menus.cpp     ****         {
 3552              		.loc 2 106 9 is_stmt 1 view .LVU898
 3553 05c6 7FF73AAD 		ble	.L170
 3554              	.L169:
 108:Menus.cpp     ****         }
 3555              		.loc 2 108 13 view .LVU899
 108:Menus.cpp     ****         }
 3556              		.loc 2 108 23 is_stmt 0 view .LVU900
 3557 05ca 0023     		movs	r3, #0
 3558 05cc EB66     		str	r3, [r5, #108]
 3559 05ce 36E5     		b	.L170
 3560              	.L293:
 3561              	.LBB1115:
 3562              	.LBB1060:
 164:Menus.cpp     ****             {
 3563              		.loc 2 164 13 is_stmt 1 view .LVU901
 3564 05d0 D5F83421 		ldr	r2, [r5, #308]
 172:Menus.cpp     ****             {
 3565              		.loc 2 172 22 is_stmt 0 view .LVU902
 3566 05d4 D5ED1E7A 		vldr.32	s15, [r5, #120]
 172:Menus.cpp     ****             {
 3567              		.loc 2 172 13 view .LVU903
 3568 05d8 9FED497A 		vldr.32	s14, .L309+4
 3569 05dc 22EAE272 		bic	r2, r2, r2, asr #31
 3570 05e0 F4EEC77A 		vcmpe.f32	s15, s14
 3571 05e4 202A     		cmp	r2, #32
 3572 05e6 A8BF     		it	ge
 3573 05e8 2022     		movge	r2, #32
 172:Menus.cpp     ****             {
 3574              		.loc 2 172 13 is_stmt 1 view .LVU904
 3575 05ea F1EE10FA 		vmrs	APSR_nzcv, FPSCR
 3576 05ee 80F28280 		bge	.L249
 176:Menus.cpp     ****             {
 3577              		.loc 2 176 13 view .LVU905
 3578 05f2 F5EEC07A 		vcmpe.f32	s15, #0
 3579 05f6 F1EE10FA 		vmrs	APSR_nzcv, FPSCR
 3580 05fa 01D5     		bpl	.L191
 3581 05fc DFED417A 		vldr.32	s15, .L309+8
 3582              	.L191:
 180:Menus.cpp     ****             this->drawSliderSemi
 3583              		.loc 2 180 13 view .LVU906
 3584              	.LVL235:
ARM GAS  C:\Users\VINCIU~1\AppData\Local\Temp\ccGpRbsb.s 			page 98


 3585              	.LBB1035:
 3586              	.LBI1035:
  41:../../libdaisy/src/hid/encoder.h ****     /** Returns true if the encoder was just pressed.
 3587              		.loc 3 41 20 view .LVU907
 3588              	.LBB1036:
  41:../../libdaisy/src/hid/encoder.h ****     /** Returns true if the encoder was just pressed.
 3589              		.loc 3 41 40 view .LVU908
  41:../../libdaisy/src/hid/encoder.h ****     /** Returns true if the encoder was just pressed.
 3590              		.loc 3 41 40 is_stmt 0 view .LVU909
 3591              	.LBE1036:
 3592              	.LBE1035:
 182:Menus.cpp     ****             sprintf(this->buff, "Semi_%dst", this->noteSemiAdd);
 3593              		.loc 2 182 61 view .LVU910
 3594 0600 D5ED126A 		vldr.32	s13, [r5, #72]	@ int
 183:Menus.cpp     ****         }
 3595              		.loc 2 183 20 view .LVU911
 3596 0604 05F1A400 		add	r0, r5, #164
 182:Menus.cpp     ****             sprintf(this->buff, "Semi_%dst", this->noteSemiAdd);
 3597              		.loc 2 182 17 view .LVU912
 3598 0608 9FED3D7A 		vldr.32	s14, .L309+4
 182:Menus.cpp     ****             sprintf(this->buff, "Semi_%dst", this->noteSemiAdd);
 3599              		.loc 2 182 61 view .LVU913
 3600 060c FAEEED6A 		vcvt.f32.s32	s13, s13, #5
 180:Menus.cpp     ****             this->drawSliderSemi
 3601              		.loc 2 180 31 view .LVU914
 3602 0610 AB6C     		ldr	r3, [r5, #72]
 183:Menus.cpp     ****         }
 3603              		.loc 2 183 20 view .LVU915
 3604 0612 3A49     		ldr	r1, .L309
 180:Menus.cpp     ****             this->drawSliderSemi
 3605              		.loc 2 180 31 view .LVU916
 3606 0614 1A44     		add	r2, r2, r3
 182:Menus.cpp     ****             sprintf(this->buff, "Semi_%dst", this->noteSemiAdd);
 3607              		.loc 2 182 17 view .LVU917
 3608 0616 E6EE877A 		vfma.f32	s15, s13, s14
 180:Menus.cpp     ****             this->drawSliderSemi
 3609              		.loc 2 180 31 view .LVU918
 3610 061a C5F83421 		str	r2, [r5, #308]
 181:Menus.cpp     ****                 += (((float)this->encoderRight.Increment()) / 32) * 40;
 3611              		.loc 2 181 13 is_stmt 1 view .LVU919
 3612              	.LVL236:
 181:Menus.cpp     ****                 += (((float)this->encoderRight.Increment()) / 32) * 40;
 3613              		.loc 2 181 13 is_stmt 0 view .LVU920
 3614              	.LBE1060:
 3615              	.LBE1115:
  41:../../libdaisy/src/hid/encoder.h ****     /** Returns true if the encoder was just pressed.
 3616              		.loc 3 41 40 is_stmt 1 view .LVU921
 3617              	.LBB1116:
 3618              	.LBB1061:
 182:Menus.cpp     ****             sprintf(this->buff, "Semi_%dst", this->noteSemiAdd);
 3619              		.loc 2 182 17 is_stmt 0 view .LVU922
 3620 061e C5ED1E7A 		vstr.32	s15, [r5, #120]
 183:Menus.cpp     ****         }
 3621              		.loc 2 183 13 is_stmt 1 view .LVU923
 183:Menus.cpp     ****         }
 3622              		.loc 2 183 20 is_stmt 0 view .LVU924
 3623 0622 FFF7FEFF 		bl	sprintf
ARM GAS  C:\Users\VINCIU~1\AppData\Local\Temp\ccGpRbsb.s 			page 99


 3624              	.LVL237:
 210:Menus.cpp     ****             60, 0, screen.Width() - 1, screen.Height() / 2 - 3, on, false);
 3625              		.loc 2 210 9 is_stmt 1 view .LVU925
 210:Menus.cpp     ****             60, 0, screen.Width() - 1, screen.Height() / 2 - 3, on, false);
 3626              		.loc 2 210 24 is_stmt 0 view .LVU926
 3627 0626 95F86801 		ldrb	r0, [r5, #360]	@ zero_extendqisi2
 3628              	.LVL238:
 3629              	.LBB1037:
 217:../../libdaisy/src/hid/disp/display.h ****                   uint_fast8_t y1,
 3630              		.loc 5 217 10 is_stmt 1 view .LVU927
 3631              	.LBB1030:
 181:../../libdaisy/src/hid/disp/display.h ****                   uint_fast8_t y1,
 3632              		.loc 5 181 10 view .LVU928
 3633              	.LBB939:
 3634              	.LBB938:
 3635              		.loc 1 41 10 view .LVU929
 3636              	.LBB928:
 239:../../libdaisy/src/dev/oled_ssd130x.h ****     {
 3637              		.loc 6 239 10 view .LVU930
 3638              	.LBB927:
 244:../../libdaisy/src/dev/oled_ssd130x.h ****         else
 3639              		.loc 6 244 42 is_stmt 0 view .LVU931
 3640 062a 94F89320 		ldrb	r2, [r4, #147]	@ zero_extendqisi2
 243:../../libdaisy/src/dev/oled_ssd130x.h ****             buffer_[x + (y / 8) * width] |= (1 << (y % 8));
 3641              		.loc 6 243 9 view .LVU932
 3642 062e 0028     		cmp	r0, #0
 3643 0630 7FF4F4AE 		bne	.L302
 3644              	.LVL239:
 3645              	.L195:
 3646              	.LBB925:
 3647              	.LBI925:
 239:../../libdaisy/src/dev/oled_ssd130x.h ****     {
 3648              		.loc 6 239 10 is_stmt 1 view .LVU933
 3649              	.LBB926:
 246:../../libdaisy/src/dev/oled_ssd130x.h ****     }
 3650              		.loc 6 246 42 is_stmt 0 view .LVU934
 3651 0634 02F0FE02 		and	r2, r2, #254
 3652 0638 F2E6     		b	.L196
 3653              	.LVL240:
 3654              	.L290:
 246:../../libdaisy/src/dev/oled_ssd130x.h ****     }
 3655              		.loc 6 246 42 view .LVU935
 3656              	.LBE926:
 3657              	.LBE925:
 3658              	.LBE927:
 3659              	.LBE928:
 3660              	.LBE938:
 3661              	.LBE939:
 3662              	.LBE1030:
 3663              	.LBE1037:
 3664              	.LBE1061:
 3665              	.LBE1116:
 248:Menus.cpp     ****         {
 3666              		.loc 2 248 9 is_stmt 1 view .LVU936
 3667              	.LBB1117:
 3668              	.LBB1062:
 3669              	.LBB1038:
ARM GAS  C:\Users\VINCIU~1\AppData\Local\Temp\ccGpRbsb.s 			page 100


 3670              	.LBB900:
 3671              	.LBB817:
 3672 063a 95F87430 		ldrb	r3, [r5, #116]	@ zero_extendqisi2
 3673 063e 9BB1     		cbz	r3, .L221
 3674              	.LBB818:
 250:Menus.cpp     ****             if(setWave > 3)
 3675              		.loc 2 250 13 view .LVU937
 3676              	.LVL241:
 3677              	.LBB819:
 3678              	.LBI819:
  41:../../libdaisy/src/hid/encoder.h ****     /** Returns true if the encoder was just pressed.
 3679              		.loc 3 41 20 view .LVU938
 3680              	.LBB820:
  41:../../libdaisy/src/hid/encoder.h ****     /** Returns true if the encoder was just pressed.
 3681              		.loc 3 41 40 view .LVU939
  41:../../libdaisy/src/hid/encoder.h ****     /** Returns true if the encoder was just pressed.
 3682              		.loc 3 41 40 is_stmt 0 view .LVU940
 3683              	.LBE820:
 3684              	.LBE819:
 250:Menus.cpp     ****             if(setWave > 3)
 3685              		.loc 2 250 27 view .LVU941
 3686 0640 D5F86031 		ldr	r3, [r5, #352]
 3687 0644 AA6C     		ldr	r2, [r5, #72]
 3688 0646 1344     		add	r3, r3, r2
 251:Menus.cpp     ****             {
 3689              		.loc 2 251 13 is_stmt 1 view .LVU942
 3690 0648 032B     		cmp	r3, #3
 3691 064a 40F38280 		ble	.L222
 253:Menus.cpp     ****             }
 3692              		.loc 2 253 17 view .LVU943
 253:Menus.cpp     ****             }
 3693              		.loc 2 253 31 is_stmt 0 view .LVU944
 3694 064e 0323     		movs	r3, #3
 3695 0650 C5F86031 		str	r3, [r5, #352]
 255:Menus.cpp     ****             {
 3696              		.loc 2 255 13 is_stmt 1 view .LVU945
 259:Menus.cpp     ****             {
 3697              		.loc 2 259 13 view .LVU946
 3698              	.LBE818:
 3699              	.LBE817:
 3700              	.LBE900:
 3701              	.LBE1038:
 3702              	.LBE1062:
 3703              	.LBE1117:
 267:Menus.cpp     ****             {
 3704              		.loc 2 267 18 view .LVU947
 3705              	.L223:
 3706              	.LVL242:
 3707              	.LBB1118:
 3708              	.LBB1063:
 3709              	.LBB1039:
 3710              	.LBB901:
 3711              	.LBB851:
 3712              	.LBB846:
 3713              	.LBB821:
 3714              	.LBB822:
 3715              	.LBB823:
ARM GAS  C:\Users\VINCIU~1\AppData\Local\Temp\ccGpRbsb.s 			page 101


 3716              	.LBB824:
 285:Menus.cpp     ****                 {
 3717              		.loc 2 285 34 view .LVU948
 287:Menus.cpp     ****                     osc[0].SetWaveform(osc[0].WAVE_SAW);
 3718              		.loc 2 287 21 view .LVU949
 288:Menus.cpp     ****                 }
 3719              		.loc 2 288 21 view .LVU950
 3720              	.LBB825:
 3721              	.LBI825:
 3722              		.file 7 "../../DaisySP/Source/Synthesis/oscillator.h"
   1:../../DaisySP/Source/Synthesis/oscillator.h **** #pragma once
   2:../../DaisySP/Source/Synthesis/oscillator.h **** #ifndef DSY_OSCILLATOR_H
   3:../../DaisySP/Source/Synthesis/oscillator.h **** #define DSY_OSCILLATOR_H
   4:../../DaisySP/Source/Synthesis/oscillator.h **** #include <stdint.h>
   5:../../DaisySP/Source/Synthesis/oscillator.h **** #include "Utility/dsp.h"
   6:../../DaisySP/Source/Synthesis/oscillator.h **** #ifdef __cplusplus
   7:../../DaisySP/Source/Synthesis/oscillator.h **** 
   8:../../DaisySP/Source/Synthesis/oscillator.h **** namespace daisysp
   9:../../DaisySP/Source/Synthesis/oscillator.h **** {
  10:../../DaisySP/Source/Synthesis/oscillator.h **** /** Synthesis of several waveforms, including polyBLEP bandlimited waveforms.
  11:../../DaisySP/Source/Synthesis/oscillator.h **** */
  12:../../DaisySP/Source/Synthesis/oscillator.h **** class Oscillator
  13:../../DaisySP/Source/Synthesis/oscillator.h **** {
  14:../../DaisySP/Source/Synthesis/oscillator.h ****   public:
  15:../../DaisySP/Source/Synthesis/oscillator.h ****     Oscillator() {}
  16:../../DaisySP/Source/Synthesis/oscillator.h ****     ~Oscillator() {}
  17:../../DaisySP/Source/Synthesis/oscillator.h ****     /** Choices for output waveforms, POLYBLEP are appropriately labeled. Others are naive forms.
  18:../../DaisySP/Source/Synthesis/oscillator.h ****     */
  19:../../DaisySP/Source/Synthesis/oscillator.h ****     enum
  20:../../DaisySP/Source/Synthesis/oscillator.h ****     {
  21:../../DaisySP/Source/Synthesis/oscillator.h ****         WAVE_SIN,
  22:../../DaisySP/Source/Synthesis/oscillator.h ****         WAVE_TRI,
  23:../../DaisySP/Source/Synthesis/oscillator.h ****         WAVE_SAW,
  24:../../DaisySP/Source/Synthesis/oscillator.h ****         WAVE_RAMP,
  25:../../DaisySP/Source/Synthesis/oscillator.h ****         WAVE_SQUARE,
  26:../../DaisySP/Source/Synthesis/oscillator.h ****         WAVE_POLYBLEP_TRI,
  27:../../DaisySP/Source/Synthesis/oscillator.h ****         WAVE_POLYBLEP_SAW,
  28:../../DaisySP/Source/Synthesis/oscillator.h ****         WAVE_POLYBLEP_SQUARE,
  29:../../DaisySP/Source/Synthesis/oscillator.h ****         WAVE_LAST,
  30:../../DaisySP/Source/Synthesis/oscillator.h ****     };
  31:../../DaisySP/Source/Synthesis/oscillator.h **** 
  32:../../DaisySP/Source/Synthesis/oscillator.h **** 
  33:../../DaisySP/Source/Synthesis/oscillator.h ****     /** Initializes the Oscillator
  34:../../DaisySP/Source/Synthesis/oscillator.h **** 
  35:../../DaisySP/Source/Synthesis/oscillator.h ****         \param sample_rate - sample rate of the audio engine being run, and the frequency that the 
  36:../../DaisySP/Source/Synthesis/oscillator.h **** 
  37:../../DaisySP/Source/Synthesis/oscillator.h ****         Defaults:
  38:../../DaisySP/Source/Synthesis/oscillator.h ****         - freq_ = 100 Hz
  39:../../DaisySP/Source/Synthesis/oscillator.h ****         - amp_ = 0.5
  40:../../DaisySP/Source/Synthesis/oscillator.h ****         - waveform_ = sine wave.
  41:../../DaisySP/Source/Synthesis/oscillator.h ****     */
  42:../../DaisySP/Source/Synthesis/oscillator.h ****     void Init(float sample_rate)
  43:../../DaisySP/Source/Synthesis/oscillator.h ****     {
  44:../../DaisySP/Source/Synthesis/oscillator.h ****         sr_        = sample_rate;
  45:../../DaisySP/Source/Synthesis/oscillator.h ****         sr_recip_  = 1.0f / sample_rate;
  46:../../DaisySP/Source/Synthesis/oscillator.h ****         freq_      = 100.0f;
  47:../../DaisySP/Source/Synthesis/oscillator.h ****         amp_       = 0.5f;
ARM GAS  C:\Users\VINCIU~1\AppData\Local\Temp\ccGpRbsb.s 			page 102


  48:../../DaisySP/Source/Synthesis/oscillator.h ****         phase_     = 0.0f;
  49:../../DaisySP/Source/Synthesis/oscillator.h ****         phase_inc_ = CalcPhaseInc(freq_);
  50:../../DaisySP/Source/Synthesis/oscillator.h ****         waveform_  = WAVE_SIN;
  51:../../DaisySP/Source/Synthesis/oscillator.h ****         eoc_       = true;
  52:../../DaisySP/Source/Synthesis/oscillator.h ****         eor_       = true;
  53:../../DaisySP/Source/Synthesis/oscillator.h ****     }
  54:../../DaisySP/Source/Synthesis/oscillator.h **** 
  55:../../DaisySP/Source/Synthesis/oscillator.h **** 
  56:../../DaisySP/Source/Synthesis/oscillator.h ****     /** Changes the frequency of the Oscillator, and recalculates phase increment.
  57:../../DaisySP/Source/Synthesis/oscillator.h ****     */
  58:../../DaisySP/Source/Synthesis/oscillator.h ****     inline void SetFreq(const float f)
  59:../../DaisySP/Source/Synthesis/oscillator.h ****     {
  60:../../DaisySP/Source/Synthesis/oscillator.h ****         freq_      = f;
  61:../../DaisySP/Source/Synthesis/oscillator.h ****         phase_inc_ = CalcPhaseInc(f);
  62:../../DaisySP/Source/Synthesis/oscillator.h ****     }
  63:../../DaisySP/Source/Synthesis/oscillator.h **** 
  64:../../DaisySP/Source/Synthesis/oscillator.h **** 
  65:../../DaisySP/Source/Synthesis/oscillator.h ****     /** Sets the amplitude of the waveform.
  66:../../DaisySP/Source/Synthesis/oscillator.h ****     */
  67:../../DaisySP/Source/Synthesis/oscillator.h ****     inline void SetAmp(const float a) { amp_ = a; }
  68:../../DaisySP/Source/Synthesis/oscillator.h ****     /** Sets the waveform to be synthesized by the Process() function.
  69:../../DaisySP/Source/Synthesis/oscillator.h ****     */
  70:../../DaisySP/Source/Synthesis/oscillator.h ****     inline void SetWaveform(const uint8_t wf)
 3723              		.loc 7 70 17 view .LVU951
 3724              	.LBB826:
  71:../../DaisySP/Source/Synthesis/oscillator.h ****     {
  72:../../DaisySP/Source/Synthesis/oscillator.h ****         waveform_ = wf < WAVE_LAST ? wf : WAVE_SIN;
 3725              		.loc 7 72 9 view .LVU952
 3726              		.loc 7 72 19 is_stmt 0 view .LVU953
 3727 0654 0223     		movs	r3, #2
 3728              	.LVL243:
 3729              	.L279:
 3730              		.loc 7 72 19 view .LVU954
 3731 0656 3B70     		strb	r3, [r7]
 3732              	.LBE826:
 3733              	.LBE825:
 285:Menus.cpp     ****                 {
 3734              		.loc 2 285 17 is_stmt 1 view .LVU955
 3735              	.LVL244:
 285:Menus.cpp     ****                 {
 3736              		.loc 2 285 34 view .LVU956
 287:Menus.cpp     ****                     osc[0].SetWaveform(osc[0].WAVE_SAW);
 3737              		.loc 2 287 21 view .LVU957
 287:Menus.cpp     ****                     osc[0].SetWaveform(osc[0].WAVE_SAW);
 3738              		.loc 2 287 34 is_stmt 0 view .LVU958
 3739 0658 D5F86021 		ldr	r2, [r5, #352]
 3740 065c C5F89C20 		str	r2, [r5, #156]
 288:Menus.cpp     ****                 }
 3741              		.loc 2 288 21 is_stmt 1 view .LVU959
 3742              	.LVL245:
 3743              	.LBB828:
  70:../../DaisySP/Source/Synthesis/oscillator.h ****     {
 3744              		.loc 7 70 17 view .LVU960
 3745              	.LBB827:
 3746              		.loc 7 72 9 view .LVU961
 3747              		.loc 7 72 19 is_stmt 0 view .LVU962
 3748 0660 3B70     		strb	r3, [r7]
ARM GAS  C:\Users\VINCIU~1\AppData\Local\Temp\ccGpRbsb.s 			page 103


 3749              	.LVL246:
 3750              		.loc 7 72 19 view .LVU963
 3751              	.LBE827:
 3752              	.LBE828:
 285:Menus.cpp     ****                 {
 3753              		.loc 2 285 17 is_stmt 1 view .LVU964
 285:Menus.cpp     ****                 {
 3754              		.loc 2 285 34 view .LVU965
 3755              	.L227:
 285:Menus.cpp     ****                 {
 3756              		.loc 2 285 34 is_stmt 0 view .LVU966
 3757              	.LBE824:
 3758              	.LBE823:
 3759              	.LBE822:
 3760              	.LBE821:
 3761              	.LBE846:
 3762              	.LBE851:
 3763              	.LBE901:
 3764              	.LBE1039:
 3765              	.LBE1063:
 3766              	.LBE1118:
 292:Menus.cpp     ****             if(this->OscSelector == false)
 3767              		.loc 2 292 9 is_stmt 1 view .LVU967
 3768              	.LBB1119:
 3769              	.LBB1064:
 3770              	.LBB1040:
 3771              	.LBB902:
 3772              	.LBB852:
 293:Menus.cpp     ****             {
 3773              		.loc 2 293 13 view .LVU968
 3774              	.LBB853:
 3775 0662 95F87430 		ldrb	r3, [r5, #116]	@ zero_extendqisi2
 3776 0666 9BB9     		cbnz	r3, .L281
 3777              	.L221:
 3778              	.LBB854:
 295:Menus.cpp     ****                 {
 3779              		.loc 2 295 17 view .LVU969
 303:Menus.cpp     ****                 if(setWave2 > 3)
 3780              		.loc 2 303 17 view .LVU970
 3781              	.LVL247:
 3782              	.LBB855:
 3783              	.LBI855:
  41:../../libdaisy/src/hid/encoder.h ****     /** Returns true if the encoder was just pressed.
 3784              		.loc 3 41 20 view .LVU971
 3785              	.LBB856:
  41:../../libdaisy/src/hid/encoder.h ****     /** Returns true if the encoder was just pressed.
 3786              		.loc 3 41 40 view .LVU972
  41:../../libdaisy/src/hid/encoder.h ****     /** Returns true if the encoder was just pressed.
 3787              		.loc 3 41 40 is_stmt 0 view .LVU973
 3788              	.LBE856:
 3789              	.LBE855:
 303:Menus.cpp     ****                 if(setWave2 > 3)
 3790              		.loc 2 303 32 view .LVU974
 3791 0668 D5F86431 		ldr	r3, [r5, #356]
 3792 066c AA6C     		ldr	r2, [r5, #72]
 3793 066e 83F30203 		usat	r3, #2, r3
 3794 0672 1344     		add	r3, r3, r2
ARM GAS  C:\Users\VINCIU~1\AppData\Local\Temp\ccGpRbsb.s 			page 104


 304:Menus.cpp     ****                 {
 3795              		.loc 2 304 17 is_stmt 1 view .LVU975
 3796 0674 032B     		cmp	r3, #3
 3797 0676 79DD     		ble	.L230
 306:Menus.cpp     ****                 }
 3798              		.loc 2 306 21 view .LVU976
 306:Menus.cpp     ****                 }
 3799              		.loc 2 306 36 is_stmt 0 view .LVU977
 3800 0678 0323     		movs	r3, #3
 3801 067a C5F86431 		str	r3, [r5, #356]
 308:Menus.cpp     ****                 {
 3802              		.loc 2 308 17 is_stmt 1 view .LVU978
 312:Menus.cpp     ****                 {
 3803              		.loc 2 312 17 view .LVU979
 3804              	.LBE854:
 3805              	.LBE853:
 3806              	.LBE852:
 3807              	.LBE902:
 3808              	.LBE1040:
 3809              	.LBE1064:
 3810              	.LBE1119:
 320:Menus.cpp     ****                 {
 3811              		.loc 2 320 22 view .LVU980
 3812              	.L231:
 3813              	.LVL248:
 3814              	.LBB1120:
 3815              	.LBB1065:
 3816              	.LBB1041:
 3817              	.LBB903:
 3818              	.LBB888:
 3819              	.LBB883:
 3820              	.LBB878:
 3821              	.LBB857:
 3822              	.LBB858:
 3823              	.LBB859:
 3824              	.LBB860:
 338:Menus.cpp     ****                     {
 3825              		.loc 2 338 38 view .LVU981
 340:Menus.cpp     ****                         osc[1].SetWaveform(osc[1].WAVE_SAW);
 3826              		.loc 2 340 25 view .LVU982
 341:Menus.cpp     ****                     }
 3827              		.loc 2 341 25 view .LVU983
 3828              	.LBB861:
 3829              	.LBI861:
  70:../../DaisySP/Source/Synthesis/oscillator.h ****     {
 3830              		.loc 7 70 17 view .LVU984
 3831              	.LBB862:
 3832              		.loc 7 72 9 view .LVU985
 3833              		.loc 7 72 19 is_stmt 0 view .LVU986
 3834 067e 0223     		movs	r3, #2
 3835              	.LVL249:
 3836              	.L280:
 3837              		.loc 7 72 19 view .LVU987
 3838 0680 87F82830 		strb	r3, [r7, #40]
 3839              	.LBE862:
 3840              	.LBE861:
 338:Menus.cpp     ****                     {
ARM GAS  C:\Users\VINCIU~1\AppData\Local\Temp\ccGpRbsb.s 			page 105


 3841              		.loc 2 338 21 is_stmt 1 view .LVU988
 3842              	.LVL250:
 338:Menus.cpp     ****                     {
 3843              		.loc 2 338 38 view .LVU989
 340:Menus.cpp     ****                         osc[1].SetWaveform(osc[1].WAVE_SAW);
 3844              		.loc 2 340 25 view .LVU990
 340:Menus.cpp     ****                         osc[1].SetWaveform(osc[1].WAVE_SAW);
 3845              		.loc 2 340 39 is_stmt 0 view .LVU991
 3846 0684 D5F86421 		ldr	r2, [r5, #356]
 3847 0688 C5F8A020 		str	r2, [r5, #160]
 341:Menus.cpp     ****                     }
 3848              		.loc 2 341 25 is_stmt 1 view .LVU992
 3849              	.LVL251:
 3850              	.LBB864:
  70:../../DaisySP/Source/Synthesis/oscillator.h ****     {
 3851              		.loc 7 70 17 view .LVU993
 3852              	.LBB863:
 3853              		.loc 7 72 9 view .LVU994
 3854              		.loc 7 72 19 is_stmt 0 view .LVU995
 3855 068c 87F82830 		strb	r3, [r7, #40]
 3856              	.LVL252:
 3857              	.L281:
 3858              		.loc 7 72 19 view .LVU996
 3859              	.LBE863:
 3860              	.LBE864:
 338:Menus.cpp     ****                     {
 3861              		.loc 2 338 21 is_stmt 1 view .LVU997
 338:Menus.cpp     ****                     {
 3862              		.loc 2 338 38 view .LVU998
 3863              	.LBE860:
 3864              	.LBE859:
 3865              	.LBE858:
 3866              	.LBE857:
 3867              	.LBE878:
 3868              	.LBE883:
 347:Menus.cpp     ****                             screen.Height() / 2 - 3,
 3869              		.loc 2 347 28 is_stmt 0 view .LVU999
 3870 0690 95F86831 		ldrb	r3, [r5, #360]	@ zero_extendqisi2
 347:Menus.cpp     ****                             screen.Height() / 2 - 3,
 3871              		.loc 2 347 13 is_stmt 1 view .LVU1000
 347:Menus.cpp     ****                             screen.Height() / 2 - 3,
 3872              		.loc 2 347 28 is_stmt 0 view .LVU1001
 3873 0694 0022     		movs	r2, #0
 3874 0696 3F21     		movs	r1, #63
 3875 0698 2046     		mov	r0, r4
 3876 069a CDE90132 		strd	r3, r2, [sp, #4]
 3877 069e 1D22     		movs	r2, #29
 3878 06a0 0091     		str	r1, [sp]
 3879 06a2 3C23     		movs	r3, #60
 3880 06a4 1146     		mov	r1, r2
 3881 06a6 FFF7FEFF 		bl	_ZN5daisy25OneBitGraphicsDisplayImplINS_11OledDisplayINS_13SSD130xDriverILj128ELj64ENS_24SSD130
 3882              	.LVL253:
 3883              	.LBE888:
 3884 06aa 3DE7     		b	.L188
 3885              	.LVL254:
 3886              	.L168:
 347:Menus.cpp     ****                             screen.Height() / 2 - 3,
ARM GAS  C:\Users\VINCIU~1\AppData\Local\Temp\ccGpRbsb.s 			page 106


 3887              		.loc 2 347 28 view .LVU1002
 3888              	.LBE903:
 3889              	.LBE1041:
 3890              	.LBE1065:
 3891              	.LBE1120:
  99:Menus.cpp     ****         }
 3892              		.loc 2 99 13 is_stmt 1 view .LVU1003
  99:Menus.cpp     ****         }
 3893              		.loc 2 99 23 is_stmt 0 view .LVU1004
 3894 06ac 0323     		movs	r3, #3
 3895 06ae EB66     		str	r3, [r5, #108]
 102:Menus.cpp     **** 
 3896              		.loc 2 102 5 is_stmt 1 view .LVU1005
 3897              	.LVL255:
 3898              	.LBB1121:
 3899              		.loc 4 69 17 view .LVU1006
 3900              	.LBB751:
 3901              		.loc 4 69 38 view .LVU1007
 3902              		.loc 4 69 38 is_stmt 0 view .LVU1008
 3903              	.LBE751:
 3904              	.LBE1121:
 102:Menus.cpp     **** 
 3905              		.loc 2 102 5 view .LVU1009
 3906 06b0 95F86130 		ldrb	r3, [r5, #97]	@ zero_extendqisi2
 3907 06b4 7F2B     		cmp	r3, #127
 3908 06b6 7FF4C2AC 		bne	.L170
 3909 06ba 86E7     		b	.L169
 3910              	.LVL256:
 3911              	.L210:
 3912              	.LBB1122:
 3913              	.LBB1066:
 3914              	.LBB1042:
 3915              	.LBB1031:
 3916              	.LBB1029:
 3917              	.LBB1028:
 3918              	.LBB1016:
 3919              	.LBB1015:
 3920              	.LBB1013:
 3921              	.LBI1013:
 239:../../libdaisy/src/dev/oled_ssd130x.h ****     {
 3922              		.loc 6 239 10 is_stmt 1 view .LVU1010
 3923              	.LBB1014:
 246:../../libdaisy/src/dev/oled_ssd130x.h ****     }
 3924              		.loc 6 246 42 is_stmt 0 view .LVU1011
 3925 06bc 02F0FE02 		and	r2, r2, #254
 3926 06c0 0CE7     		b	.L211
 3927              	.LVL257:
 3928              	.L205:
 246:../../libdaisy/src/dev/oled_ssd130x.h ****     }
 3929              		.loc 6 246 42 view .LVU1012
 3930              	.LBE1014:
 3931              	.LBE1013:
 3932              	.LBE1015:
 3933              	.LBE1016:
 3934              	.LBE1028:
 3935              	.LBE1029:
 3936              	.LBE1031:
ARM GAS  C:\Users\VINCIU~1\AppData\Local\Temp\ccGpRbsb.s 			page 107


 3937              	.LBB1032:
 3938              	.LBB1007:
 3939              	.LBB1006:
 3940              	.LBB988:
 3941              	.LBB987:
 3942              	.LBB985:
 3943              	.LBI985:
 239:../../libdaisy/src/dev/oled_ssd130x.h ****     {
 3944              		.loc 6 239 10 is_stmt 1 view .LVU1013
 3945              	.LBB986:
 246:../../libdaisy/src/dev/oled_ssd130x.h ****     }
 3946              		.loc 6 246 42 is_stmt 0 view .LVU1014
 3947 06c2 02F0DF02 		and	r2, r2, #223
 3948 06c6 ECE6     		b	.L206
 3949              	.LVL258:
 3950              	.L200:
 246:../../libdaisy/src/dev/oled_ssd130x.h ****     }
 3951              		.loc 6 246 42 view .LVU1015
 3952              	.LBE986:
 3953              	.LBE985:
 3954              	.LBE987:
 3955              	.LBE988:
 3956              	.LBE1006:
 3957              	.LBE1007:
 3958              	.LBE1032:
 3959              	.LBB1033:
 3960              	.LBB978:
 3961              	.LBB976:
 3962              	.LBB948:
 3963              	.LBB947:
 3964              	.LBB945:
 3965              	.LBI945:
 239:../../libdaisy/src/dev/oled_ssd130x.h ****     {
 3966              		.loc 6 239 10 is_stmt 1 view .LVU1016
 3967              	.LBB946:
 246:../../libdaisy/src/dev/oled_ssd130x.h ****     }
 3968              		.loc 6 246 42 is_stmt 0 view .LVU1017
 3969 06c8 02F0DF02 		and	r2, r2, #223
 3970 06cc C5E6     		b	.L201
 3971              	.LVL259:
 3972              	.L289:
 246:../../libdaisy/src/dev/oled_ssd130x.h ****     }
 3973              		.loc 6 246 42 view .LVU1018
 3974              	.LBE946:
 3975              	.LBE945:
 3976              	.LBE947:
 3977              	.LBE948:
 3978              	.LBE976:
 3979              	.LBE978:
 3980              	.LBE1033:
 3981              	.LBE1042:
 3982              	.LBB1043:
 215:Menus.cpp     **** 
 3983              		.loc 2 215 9 is_stmt 1 view .LVU1019
 3984 06ce 95F87420 		ldrb	r2, [r5, #116]	@ zero_extendqisi2
 3985 06d2 FAB1     		cbz	r2, .L216
 218:Menus.cpp     ****             {
ARM GAS  C:\Users\VINCIU~1\AppData\Local\Temp\ccGpRbsb.s 			page 108


 3986              		.loc 2 218 13 view .LVU1020
 3987              	.LVL260:
 3988              	.LBB904:
 3989              	.LBI904:
  41:../../libdaisy/src/hid/encoder.h ****     /** Returns true if the encoder was just pressed.
 3990              		.loc 3 41 20 view .LVU1021
 3991              	.LBB905:
  41:../../libdaisy/src/hid/encoder.h ****     /** Returns true if the encoder was just pressed.
 3992              		.loc 3 41 40 view .LVU1022
  41:../../libdaisy/src/hid/encoder.h ****     /** Returns true if the encoder was just pressed.
 3993              		.loc 3 41 47 is_stmt 0 view .LVU1023
 3994 06d4 AA6C     		ldr	r2, [r5, #72]
 3995              	.LVL261:
  41:../../libdaisy/src/hid/encoder.h ****     /** Returns true if the encoder was just pressed.
 3996              		.loc 3 41 47 view .LVU1024
 3997              	.LBE905:
 3998              	.LBE904:
 218:Menus.cpp     ****             {
 3999              		.loc 2 218 13 view .LVU1025
 4000 06d6 012A     		cmp	r2, #1
 4001 06d8 30D0     		beq	.L303
 223:Menus.cpp     ****             {
 4002              		.loc 2 223 13 is_stmt 1 view .LVU1026
 4003              	.LVL262:
 223:Menus.cpp     ****             {
 4004              		.loc 2 223 13 is_stmt 0 view .LVU1027
 4005              	.LBE1043:
 4006              	.LBE1066:
 4007              	.LBE1122:
  41:../../libdaisy/src/hid/encoder.h ****     /** Returns true if the encoder was just pressed.
 4008              		.loc 3 41 40 is_stmt 1 view .LVU1028
 4009              	.LBB1123:
 4010              	.LBB1067:
 4011              	.LBB1044:
 223:Menus.cpp     ****             {
 4012              		.loc 2 223 13 is_stmt 0 view .LVU1029
 4013 06da 0132     		adds	r2, r2, #1
 4014 06dc 23D1     		bne	.L218
 225:Menus.cpp     ****                 this->toggleOsc = true;
 4015              		.loc 2 225 17 is_stmt 1 view .LVU1030
 226:Menus.cpp     ****             }
 4016              		.loc 2 226 33 is_stmt 0 view .LVU1031
 4017 06de 85F89830 		strb	r3, [r5, #152]
 225:Menus.cpp     ****                 this->toggleOsc = true;
 4018              		.loc 2 225 33 view .LVU1032
 4019 06e2 0023     		movs	r3, #0
 4020 06e4 C5F83C31 		str	r3, [r5, #316]
 226:Menus.cpp     ****             }
 4021              		.loc 2 226 17 is_stmt 1 view .LVU1033
 4022 06e8 1DE0     		b	.L218
 4023              	.L253:
 226:Menus.cpp     ****             }
 4024              		.loc 2 226 17 is_stmt 0 view .LVU1034
 4025              	.LBE1044:
 4026 06ea B0EE667A 		vmov.f32	s14, s13
 4027 06ee 73E6     		b	.L194
 4028              	.L251:
ARM GAS  C:\Users\VINCIU~1\AppData\Local\Temp\ccGpRbsb.s 			page 109


 226:Menus.cpp     ****             }
 4029              		.loc 2 226 17 view .LVU1035
 4030 06f0 DFED057A 		vldr.32	s15, .L309+12
 4031 06f4 5FE6     		b	.L193
 4032              	.L249:
 226:Menus.cpp     ****             }
 4033              		.loc 2 226 17 view .LVU1036
 4034 06f6 F0EE477A 		vmov.f32	s15, s14
 4035 06fa 81E7     		b	.L191
 4036              	.L310:
 4037              		.align	2
 4038              	.L309:
 4039 06fc 08000000 		.word	.LC3
 4040 0700 00002042 		.word	1109393408
 4041 0704 00000000 		.word	0
 4042 0708 00000042 		.word	1107296256
 4043 070c 0000003D 		.word	1023410176
 4044 0710 0000C842 		.word	1120403456
 4045              	.L216:
 4046              	.LBB1045:
 231:Menus.cpp     ****             {
 4047              		.loc 2 231 13 is_stmt 1 view .LVU1037
 4048              	.LVL263:
 4049              	.LBB906:
 4050              	.LBI906:
  41:../../libdaisy/src/hid/encoder.h ****     /** Returns true if the encoder was just pressed.
 4051              		.loc 3 41 20 view .LVU1038
 4052              	.LBB907:
  41:../../libdaisy/src/hid/encoder.h ****     /** Returns true if the encoder was just pressed.
 4053              		.loc 3 41 40 view .LVU1039
  41:../../libdaisy/src/hid/encoder.h ****     /** Returns true if the encoder was just pressed.
 4054              		.loc 3 41 47 is_stmt 0 view .LVU1040
 4055 0714 A96C     		ldr	r1, [r5, #72]
 4056              	.LVL264:
  41:../../libdaisy/src/hid/encoder.h ****     /** Returns true if the encoder was just pressed.
 4057              		.loc 3 41 47 view .LVU1041
 4058              	.LBE907:
 4059              	.LBE906:
 231:Menus.cpp     ****             {
 4060              		.loc 2 231 13 view .LVU1042
 4061 0716 0129     		cmp	r1, #1
 4062 0718 16D0     		beq	.L304
 236:Menus.cpp     ****             {
 4063              		.loc 2 236 13 is_stmt 1 view .LVU1043
 4064              	.LVL265:
 236:Menus.cpp     ****             {
 4065              		.loc 2 236 13 is_stmt 0 view .LVU1044
 4066              	.LBE1045:
 4067              	.LBE1067:
 4068              	.LBE1123:
  41:../../libdaisy/src/hid/encoder.h ****     /** Returns true if the encoder was just pressed.
 4069              		.loc 3 41 40 is_stmt 1 view .LVU1045
 4070              	.LBB1124:
 4071              	.LBB1068:
 4072              	.LBB1046:
 236:Menus.cpp     ****             {
 4073              		.loc 2 236 13 is_stmt 0 view .LVU1046
ARM GAS  C:\Users\VINCIU~1\AppData\Local\Temp\ccGpRbsb.s 			page 110


 4074 071a 0131     		adds	r1, r1, #1
 4075 071c 03D1     		bne	.L218
 238:Menus.cpp     ****                 this->toggleOsc2 = true;
 4076              		.loc 2 238 17 is_stmt 1 view .LVU1047
 238:Menus.cpp     ****                 this->toggleOsc2 = true;
 4077              		.loc 2 238 34 is_stmt 0 view .LVU1048
 4078 071e C5F84021 		str	r2, [r5, #320]
 239:Menus.cpp     ****             }
 4079              		.loc 2 239 17 is_stmt 1 view .LVU1049
 239:Menus.cpp     ****             }
 4080              		.loc 2 239 34 is_stmt 0 view .LVU1050
 4081 0722 85F89930 		strb	r3, [r5, #153]
 4082              	.L218:
 243:Menus.cpp     ****             0, screen.Height() / 2 - 3, 29, screen.Height() - 1, on, false);
 4083              		.loc 2 243 9 is_stmt 1 view .LVU1051
 243:Menus.cpp     ****             0, screen.Height() / 2 - 3, 29, screen.Height() - 1, on, false);
 4084              		.loc 2 243 24 is_stmt 0 view .LVU1052
 4085 0726 3F23     		movs	r3, #63
 4086 0728 0021     		movs	r1, #0
 4087 072a 0093     		str	r3, [sp]
 4088 072c 1D23     		movs	r3, #29
 4089 072e CDE90101 		strd	r0, r1, [sp, #4]
 4090 0732 1A46     		mov	r2, r3
 4091 0734 2046     		mov	r0, r4
 4092 0736 FFF7FEFF 		bl	_ZN5daisy25OneBitGraphicsDisplayImplINS_11OledDisplayINS_13SSD130xDriverILj128ELj64ENS_24SSD130
 4093              	.LVL266:
 4094 073a F5E6     		b	.L188
 4095              	.L303:
 220:Menus.cpp     ****                 this->toggleOsc = false;
 4096              		.loc 2 220 17 is_stmt 1 view .LVU1053
 221:Menus.cpp     ****             }
 4097              		.loc 2 221 33 is_stmt 0 view .LVU1054
 4098 073c 0023     		movs	r3, #0
 220:Menus.cpp     ****                 this->toggleOsc = false;
 4099              		.loc 2 220 33 view .LVU1055
 4100 073e C5F83C21 		str	r2, [r5, #316]
 221:Menus.cpp     ****             }
 4101              		.loc 2 221 17 is_stmt 1 view .LVU1056
 221:Menus.cpp     ****             }
 4102              		.loc 2 221 33 is_stmt 0 view .LVU1057
 4103 0742 85F89830 		strb	r3, [r5, #152]
 223:Menus.cpp     ****             {
 4104              		.loc 2 223 13 is_stmt 1 view .LVU1058
 4105              	.LVL267:
 223:Menus.cpp     ****             {
 4106              		.loc 2 223 13 is_stmt 0 view .LVU1059
 4107              	.LBE1046:
 4108              	.LBE1068:
 4109              	.LBE1124:
  41:../../libdaisy/src/hid/encoder.h ****     /** Returns true if the encoder was just pressed.
 4110              		.loc 3 41 40 is_stmt 1 view .LVU1060
  41:../../libdaisy/src/hid/encoder.h ****     /** Returns true if the encoder was just pressed.
 4111              		.loc 3 41 40 is_stmt 0 view .LVU1061
 4112 0746 EEE7     		b	.L218
 4113              	.L304:
 4114              	.LBB1125:
 4115              	.LBB1069:
ARM GAS  C:\Users\VINCIU~1\AppData\Local\Temp\ccGpRbsb.s 			page 111


 4116              	.LBB1047:
 233:Menus.cpp     ****                 this->toggleOsc2 = false;
 4117              		.loc 2 233 17 is_stmt 1 view .LVU1062
 233:Menus.cpp     ****                 this->toggleOsc2 = false;
 4118              		.loc 2 233 34 is_stmt 0 view .LVU1063
 4119 0748 C5F84011 		str	r1, [r5, #320]
 234:Menus.cpp     ****             }
 4120              		.loc 2 234 17 is_stmt 1 view .LVU1064
 234:Menus.cpp     ****             }
 4121              		.loc 2 234 34 is_stmt 0 view .LVU1065
 4122 074c 85F89920 		strb	r2, [r5, #153]
 236:Menus.cpp     ****             {
 4123              		.loc 2 236 13 is_stmt 1 view .LVU1066
 4124              	.LVL268:
 236:Menus.cpp     ****             {
 4125              		.loc 2 236 13 is_stmt 0 view .LVU1067
 4126              	.LBE1047:
 4127              	.LBE1069:
 4128              	.LBE1125:
  41:../../libdaisy/src/hid/encoder.h ****     /** Returns true if the encoder was just pressed.
 4129              		.loc 3 41 40 is_stmt 1 view .LVU1068
  41:../../libdaisy/src/hid/encoder.h ****     /** Returns true if the encoder was just pressed.
 4130              		.loc 3 41 40 is_stmt 0 view .LVU1069
 4131 0750 E9E7     		b	.L218
 4132              	.L222:
 4133              	.LBB1126:
 4134              	.LBB1070:
 4135              	.LBB1048:
 4136              	.LBB908:
 4137              	.LBB889:
 4138              	.LBB847:
 255:Menus.cpp     ****             {
 4139              		.loc 2 255 13 is_stmt 1 view .LVU1070
 4140 0752 002B     		cmp	r3, #0
 4141 0754 68DA     		bge	.L224
 257:Menus.cpp     ****             }
 4142              		.loc 2 257 17 view .LVU1071
 257:Menus.cpp     ****             }
 4143              		.loc 2 257 31 is_stmt 0 view .LVU1072
 4144 0756 0023     		movs	r3, #0
 4145 0758 C5F86031 		str	r3, [r5, #352]
 259:Menus.cpp     ****             {
 4146              		.loc 2 259 13 is_stmt 1 view .LVU1073
 4147              	.L225:
 4148              	.LVL269:
 4149              	.LBB842:
 4150              	.LBB835:
 261:Menus.cpp     ****                 {
 4151              		.loc 2 261 34 view .LVU1074
 263:Menus.cpp     ****                     osc[0].SetWaveform(osc[0].WAVE_SIN);
 4152              		.loc 2 263 21 view .LVU1075
 264:Menus.cpp     ****                 }
 4153              		.loc 2 264 21 view .LVU1076
 4154              	.LBB836:
 4155              	.LBI836:
  70:../../DaisySP/Source/Synthesis/oscillator.h ****     {
 4156              		.loc 7 70 17 view .LVU1077
ARM GAS  C:\Users\VINCIU~1\AppData\Local\Temp\ccGpRbsb.s 			page 112


 4157              	.LBB837:
 4158              		.loc 7 72 9 view .LVU1078
 4159              		.loc 7 72 19 is_stmt 0 view .LVU1079
 4160 075c 0023     		movs	r3, #0
 4161 075e 3B70     		strb	r3, [r7]
 4162              	.LVL270:
 4163              		.loc 7 72 19 view .LVU1080
 4164              	.LBE837:
 4165              	.LBE836:
 261:Menus.cpp     ****                 {
 4166              		.loc 2 261 17 is_stmt 1 view .LVU1081
 261:Menus.cpp     ****                 {
 4167              		.loc 2 261 34 view .LVU1082
 263:Menus.cpp     ****                     osc[0].SetWaveform(osc[0].WAVE_SIN);
 4168              		.loc 2 263 21 view .LVU1083
 263:Menus.cpp     ****                     osc[0].SetWaveform(osc[0].WAVE_SIN);
 4169              		.loc 2 263 34 is_stmt 0 view .LVU1084
 4170 0760 D5F86021 		ldr	r2, [r5, #352]
 4171 0764 C5F89C20 		str	r2, [r5, #156]
 264:Menus.cpp     ****                 }
 4172              		.loc 2 264 21 is_stmt 1 view .LVU1085
 4173              	.LVL271:
 4174              	.LBB839:
  70:../../DaisySP/Source/Synthesis/oscillator.h ****     {
 4175              		.loc 7 70 17 view .LVU1086
 4176              	.LBB838:
 4177              		.loc 7 72 9 view .LVU1087
 4178              		.loc 7 72 19 is_stmt 0 view .LVU1088
 4179 0768 3B70     		strb	r3, [r7]
 4180              	.LVL272:
 4181              		.loc 7 72 19 view .LVU1089
 4182              	.LBE838:
 4183              	.LBE839:
 261:Menus.cpp     ****                 {
 4184              		.loc 2 261 17 is_stmt 1 view .LVU1090
 261:Menus.cpp     ****                 {
 4185              		.loc 2 261 34 view .LVU1091
 4186 076a 7AE7     		b	.L227
 4187              	.LVL273:
 4188              	.L230:
 261:Menus.cpp     ****                 {
 4189              		.loc 2 261 34 is_stmt 0 view .LVU1092
 4190              	.LBE835:
 4191              	.LBE842:
 4192              	.LBE847:
 4193              	.LBE889:
 4194              	.LBB890:
 4195              	.LBB884:
 4196              	.LBB879:
 308:Menus.cpp     ****                 {
 4197              		.loc 2 308 17 is_stmt 1 view .LVU1093
 4198 076c 002B     		cmp	r3, #0
 4199 076e 6CDA     		bge	.L232
 310:Menus.cpp     ****                 }
 4200              		.loc 2 310 21 view .LVU1094
 310:Menus.cpp     ****                 }
 4201              		.loc 2 310 36 is_stmt 0 view .LVU1095
ARM GAS  C:\Users\VINCIU~1\AppData\Local\Temp\ccGpRbsb.s 			page 113


 4202 0770 0023     		movs	r3, #0
 4203 0772 C5F86431 		str	r3, [r5, #356]
 312:Menus.cpp     ****                 {
 4204              		.loc 2 312 17 is_stmt 1 view .LVU1096
 4205              	.L233:
 4206              	.LVL274:
 4207              	.LBB874:
 4208              	.LBB869:
 314:Menus.cpp     ****                     {
 4209              		.loc 2 314 38 view .LVU1097
 316:Menus.cpp     ****                         osc[1].SetWaveform(osc[1].WAVE_SIN);
 4210              		.loc 2 316 25 view .LVU1098
 317:Menus.cpp     ****                     }
 4211              		.loc 2 317 25 view .LVU1099
 4212              	.LBB870:
 4213              	.LBI870:
  70:../../DaisySP/Source/Synthesis/oscillator.h ****     {
 4214              		.loc 7 70 17 view .LVU1100
 4215              	.LBB871:
 4216              		.loc 7 72 9 view .LVU1101
 4217              		.loc 7 72 19 is_stmt 0 view .LVU1102
 4218 0776 0023     		movs	r3, #0
 4219 0778 82E7     		b	.L280
 4220              	.LVL275:
 4221              	.L237:
 4222              		.loc 7 72 19 view .LVU1103
 4223              	.LBE871:
 4224              	.LBE870:
 4225              	.LBE869:
 4226              	.LBE874:
 4227              	.LBE879:
 4228              	.LBE884:
 4229              	.LBE890:
 389:Menus.cpp     ****             {
 4230              		.loc 2 389 13 is_stmt 1 view .LVU1104
 389:Menus.cpp     ****             {
 4231              		.loc 2 389 22 is_stmt 0 view .LVU1105
 4232 077a D5ED527A 		vldr.32	s15, [r5, #328]
 389:Menus.cpp     ****             {
 4233              		.loc 2 389 13 view .LVU1106
 4234 077e F4EEC77A 		vcmpe.f32	s15, s14
 4235 0782 F1EE10FA 		vmrs	APSR_nzcv, FPSCR
 4236 0786 35DD     		ble	.L305
 4237 0788 F0EE477A 		vmov.f32	s15, s14
 4238              	.L241:
 397:Menus.cpp     ****             {
 4239              		.loc 2 397 13 is_stmt 1 view .LVU1107
 4240 078c F7EE006A 		vmov.f32	s13, #1.0e+0
 397:Menus.cpp     ****             {
 4241              		.loc 2 397 22 is_stmt 0 view .LVU1108
 4242 0790 95ED217A 		vldr.32	s14, [r5, #132]
 397:Menus.cpp     ****             {
 4243              		.loc 2 397 13 view .LVU1109
 4244 0794 B4EEE67A 		vcmpe.f32	s14, s13
 4245 0798 F1EE10FA 		vmrs	APSR_nzcv, FPSCR
 4246 079c 22DB     		blt	.L306
 4247 079e B0EE667A 		vmov.f32	s14, s13
ARM GAS  C:\Users\VINCIU~1\AppData\Local\Temp\ccGpRbsb.s 			page 114


 4248              	.L242:
 406:Menus.cpp     ****             this->drawSliderFine2
 4249              		.loc 2 406 13 is_stmt 1 view .LVU1110
 4250              	.LVL276:
 4251              	.LBB891:
 4252              	.LBI891:
  41:../../libdaisy/src/hid/encoder.h ****     /** Returns true if the encoder was just pressed.
 4253              		.loc 3 41 20 view .LVU1111
 4254              	.LBB892:
  41:../../libdaisy/src/hid/encoder.h ****     /** Returns true if the encoder was just pressed.
 4255              		.loc 3 41 40 view .LVU1112
  41:../../libdaisy/src/hid/encoder.h ****     /** Returns true if the encoder was just pressed.
 4256              		.loc 3 41 40 is_stmt 0 view .LVU1113
 4257              	.LBE892:
 4258              	.LBE891:
 406:Menus.cpp     ****             this->drawSliderFine2
 4259              		.loc 2 406 34 view .LVU1114
 4260 07a2 D5ED126A 		vldr.32	s13, [r5, #72]	@ int
 409:Menus.cpp     ****         }
 4261              		.loc 2 409 20 view .LVU1115
 4262 07a6 05F1EC00 		add	r0, r5, #236
 406:Menus.cpp     ****             this->drawSliderFine2
 4263              		.loc 2 406 29 view .LVU1116
 4264 07aa 5FED285A 		vldr.32	s11, .L309+16
 406:Menus.cpp     ****             this->drawSliderFine2
 4265              		.loc 2 406 34 view .LVU1117
 4266 07ae F8EEE66A 		vcvt.f32.s32	s13, s13
 409:Menus.cpp     ****         }
 4267              		.loc 2 409 67 view .LVU1118
 4268 07b2 1FED296A 		vldr.32	s12, .L309+20
 409:Menus.cpp     ****         }
 4269              		.loc 2 409 20 view .LVU1119
 4270 07b6 2A49     		ldr	r1, .L311
 406:Menus.cpp     ****             this->drawSliderFine2
 4271              		.loc 2 406 29 view .LVU1120
 4272 07b8 E6EEA57A 		vfma.f32	s15, s13, s11
 408:Menus.cpp     ****             sprintf(this->buffFine2, "Fine_%d%%", (int)(freqFine2 * 100));
 4273              		.loc 2 408 17 view .LVU1121
 4274 07bc A6EEA57A 		vfma.f32	s14, s13, s11
 409:Menus.cpp     ****         }
 4275              		.loc 2 409 67 view .LVU1122
 4276 07c0 67EE866A 		vmul.f32	s13, s15, s12
 406:Menus.cpp     ****             this->drawSliderFine2
 4277              		.loc 2 406 29 view .LVU1123
 4278 07c4 C5ED527A 		vstr.32	s15, [r5, #328]
 407:Menus.cpp     ****                 += (((float)this->encoderRight.Increment()) / 32);
 4279              		.loc 2 407 13 is_stmt 1 view .LVU1124
 4280              	.LVL277:
 407:Menus.cpp     ****                 += (((float)this->encoderRight.Increment()) / 32);
 4281              		.loc 2 407 13 is_stmt 0 view .LVU1125
 4282              	.LBE908:
 4283              	.LBE1048:
 4284              	.LBE1070:
 4285              	.LBE1126:
  41:../../libdaisy/src/hid/encoder.h ****     /** Returns true if the encoder was just pressed.
 4286              		.loc 3 41 40 is_stmt 1 view .LVU1126
 4287              	.LBB1127:
ARM GAS  C:\Users\VINCIU~1\AppData\Local\Temp\ccGpRbsb.s 			page 115


 4288              	.LBB1071:
 4289              	.LBB1049:
 4290              	.LBB909:
 408:Menus.cpp     ****             sprintf(this->buffFine2, "Fine_%d%%", (int)(freqFine2 * 100));
 4291              		.loc 2 408 17 is_stmt 0 view .LVU1127
 4292 07c8 85ED217A 		vstr.32	s14, [r5, #132]
 409:Menus.cpp     ****         }
 4293              		.loc 2 409 13 is_stmt 1 view .LVU1128
 409:Menus.cpp     ****         }
 4294              		.loc 2 409 20 is_stmt 0 view .LVU1129
 4295 07cc FDEEE67A 		vcvt.s32.f32	s15, s13
 4296 07d0 17EE902A 		vmov	r2, s15	@ int
 4297 07d4 FFF7FEFF 		bl	sprintf
 4298              	.LVL278:
 4299 07d8 45E5     		b	.L240
 4300              	.L294:
 409:Menus.cpp     ****         }
 4301              		.loc 2 409 20 view .LVU1130
 4302              	.LBE909:
 4303              	.LBE1049:
 203:Menus.cpp     ****             this->drawSliderSemi2
 4304              		.loc 2 203 32 view .LVU1131
 4305 07da 07EE903A 		vmov	s15, r3	@ int
 4306 07de F8EEE77A 		vcvt.f32.s32	s15, s15
 4307 07e2 E8E5     		b	.L193
 4308              	.L306:
 4309              	.LBB1050:
 4310              	.LBB910:
 401:Menus.cpp     ****             {
 4311              		.loc 2 401 13 is_stmt 1 view .LVU1132
 4312 07e4 B5EEC07A 		vcmpe.f32	s14, #0
 4313 07e8 F1EE10FA 		vmrs	APSR_nzcv, FPSCR
 4314 07ec D9D5     		bpl	.L242
 4315 07ee 9FED1D7A 		vldr.32	s14, .L311+4
 4316 07f2 D6E7     		b	.L242
 4317              	.L305:
 393:Menus.cpp     ****             {
 4318              		.loc 2 393 13 view .LVU1133
 4319 07f4 F5EEC07A 		vcmpe.f32	s15, #0
 4320 07f8 F1EE10FA 		vmrs	APSR_nzcv, FPSCR
 4321 07fc C6D5     		bpl	.L241
 4322 07fe DFED197A 		vldr.32	s15, .L311+4
 4323 0802 C3E7     		b	.L241
 4324              	.L292:
 377:Menus.cpp     ****             {
 4325              		.loc 2 377 13 view .LVU1134
 4326 0804 B5EEC07A 		vcmpe.f32	s14, #0
 4327 0808 F1EE10FA 		vmrs	APSR_nzcv, FPSCR
 4328 080c 7FF510AD 		bpl	.L239
 4329 0810 9FED147A 		vldr.32	s14, .L311+4
 4330 0814 0CE5     		b	.L239
 4331              	.L291:
 369:Menus.cpp     ****             {
 4332              		.loc 2 369 13 view .LVU1135
 4333 0816 F5EEC07A 		vcmpe.f32	s15, #0
 4334 081a F1EE10FA 		vmrs	APSR_nzcv, FPSCR
 4335 081e 7FF5FBAC 		bpl	.L238
ARM GAS  C:\Users\VINCIU~1\AppData\Local\Temp\ccGpRbsb.s 			page 116


 4336 0822 DFED107A 		vldr.32	s15, .L311+4
 4337 0826 F7E4     		b	.L238
 4338              	.L224:
 4339              	.LBB893:
 4340              	.LBB848:
 250:Menus.cpp     ****             if(setWave > 3)
 4341              		.loc 2 250 27 is_stmt 0 view .LVU1136
 4342 0828 C5F86031 		str	r3, [r5, #352]
 259:Menus.cpp     ****             {
 4343              		.loc 2 259 13 is_stmt 1 view .LVU1137
 4344              	.LBB843:
 4345 082c 96D0     		beq	.L225
 4346              	.LBE843:
 4347              	.LBE848:
 4348              	.LBE893:
 4349              	.LBE910:
 4350              	.LBE1050:
 4351              	.LBE1071:
 4352              	.LBE1127:
 267:Menus.cpp     ****             {
 4353              		.loc 2 267 18 view .LVU1138
 4354              	.LBB1128:
 4355              	.LBB1072:
 4356              	.LBB1051:
 4357              	.LBB911:
 4358              	.LBB894:
 4359              	.LBB849:
 4360              	.LBB844:
 4361              	.LBB840:
 4362 082e 012B     		cmp	r3, #1
 4363 0830 3FF411AF 		beq	.L279
 4364              	.LBE840:
 4365              	.LBE844:
 4366              	.LBE849:
 4367              	.LBE894:
 4368              	.LBE911:
 4369              	.LBE1051:
 4370              	.LBE1072:
 4371              	.LBE1128:
 275:Menus.cpp     ****             {
 4372              		.loc 2 275 18 view .LVU1139
 4373              	.LBB1129:
 4374              	.LBB1073:
 4375              	.LBB1052:
 4376              	.LBB912:
 4377              	.LBB895:
 4378              	.LBB850:
 4379              	.LBB845:
 4380              	.LBB841:
 4381              	.LBB834:
 4382 0834 022B     		cmp	r3, #2
 4383 0836 7FF40DAF 		bne	.L223
 4384              	.LVL279:
 4385              	.LBB829:
 277:Menus.cpp     ****                 {
 4386              		.loc 2 277 34 view .LVU1140
 279:Menus.cpp     ****                     osc[0].SetWaveform(osc[0].WAVE_SQUARE);
ARM GAS  C:\Users\VINCIU~1\AppData\Local\Temp\ccGpRbsb.s 			page 117


 4387              		.loc 2 279 21 view .LVU1141
 280:Menus.cpp     ****                 }
 4388              		.loc 2 280 21 view .LVU1142
 4389              	.LBB830:
 4390              	.LBI830:
  70:../../DaisySP/Source/Synthesis/oscillator.h ****     {
 4391              		.loc 7 70 17 view .LVU1143
 4392              	.LBB831:
 4393              		.loc 7 72 9 view .LVU1144
 4394              		.loc 7 72 19 is_stmt 0 view .LVU1145
 4395 083a 0423     		movs	r3, #4
 4396 083c 3B70     		strb	r3, [r7]
 4397              	.LVL280:
 4398              		.loc 7 72 19 view .LVU1146
 4399              	.LBE831:
 4400              	.LBE830:
 277:Menus.cpp     ****                 {
 4401              		.loc 2 277 17 is_stmt 1 view .LVU1147
 277:Menus.cpp     ****                 {
 4402              		.loc 2 277 34 view .LVU1148
 279:Menus.cpp     ****                     osc[0].SetWaveform(osc[0].WAVE_SQUARE);
 4403              		.loc 2 279 21 view .LVU1149
 279:Menus.cpp     ****                     osc[0].SetWaveform(osc[0].WAVE_SQUARE);
 4404              		.loc 2 279 34 is_stmt 0 view .LVU1150
 4405 083e D5F86021 		ldr	r2, [r5, #352]
 4406 0842 C5F89C20 		str	r2, [r5, #156]
 280:Menus.cpp     ****                 }
 4407              		.loc 2 280 21 is_stmt 1 view .LVU1151
 4408              	.LVL281:
 4409              	.LBB833:
  70:../../DaisySP/Source/Synthesis/oscillator.h ****     {
 4410              		.loc 7 70 17 view .LVU1152
 4411              	.LBB832:
 4412              		.loc 7 72 9 view .LVU1153
 4413              		.loc 7 72 19 is_stmt 0 view .LVU1154
 4414 0846 3B70     		strb	r3, [r7]
 4415              	.LVL282:
 4416              		.loc 7 72 19 view .LVU1155
 4417              	.LBE832:
 4418              	.LBE833:
 277:Menus.cpp     ****                 {
 4419              		.loc 2 277 17 is_stmt 1 view .LVU1156
 277:Menus.cpp     ****                 {
 4420              		.loc 2 277 34 view .LVU1157
 4421 0848 0BE7     		b	.L227
 4422              	.LVL283:
 4423              	.L232:
 277:Menus.cpp     ****                 {
 4424              		.loc 2 277 34 is_stmt 0 view .LVU1158
 4425              	.LBE829:
 4426              	.LBE834:
 4427              	.LBE841:
 4428              	.LBE845:
 4429              	.LBE850:
 4430              	.LBE895:
 4431              	.LBB896:
 4432              	.LBB885:
ARM GAS  C:\Users\VINCIU~1\AppData\Local\Temp\ccGpRbsb.s 			page 118


 4433              	.LBB880:
 303:Menus.cpp     ****                 if(setWave2 > 3)
 4434              		.loc 2 303 32 view .LVU1159
 4435 084a C5F86431 		str	r3, [r5, #356]
 312:Menus.cpp     ****                 {
 4436              		.loc 2 312 17 is_stmt 1 view .LVU1160
 4437              	.LBB875:
 4438 084e 92D0     		beq	.L233
 4439              	.LBE875:
 4440              	.LBE880:
 4441              	.LBE885:
 4442              	.LBE896:
 4443              	.LBE912:
 4444              	.LBE1052:
 4445              	.LBE1073:
 4446              	.LBE1129:
 320:Menus.cpp     ****                 {
 4447              		.loc 2 320 22 view .LVU1161
 4448              	.LBB1130:
 4449              	.LBB1074:
 4450              	.LBB1053:
 4451              	.LBB913:
 4452              	.LBB897:
 4453              	.LBB886:
 4454              	.LBB881:
 4455              	.LBB876:
 4456              	.LBB872:
 4457 0850 012B     		cmp	r3, #1
 4458 0852 3FF415AF 		beq	.L280
 4459              	.LBE872:
 4460              	.LBE876:
 4461              	.LBE881:
 4462              	.LBE886:
 4463              	.LBE897:
 4464              	.LBE913:
 4465              	.LBE1053:
 4466              	.LBE1074:
 4467              	.LBE1130:
 328:Menus.cpp     ****                 {
 4468              		.loc 2 328 22 view .LVU1162
 4469              	.LBB1131:
 4470              	.LBB1075:
 4471              	.LBB1054:
 4472              	.LBB914:
 4473              	.LBB898:
 4474              	.LBB887:
 4475              	.LBB882:
 4476              	.LBB877:
 4477              	.LBB873:
 4478              	.LBB868:
 4479 0856 022B     		cmp	r3, #2
 4480 0858 7FF411AF 		bne	.L231
 4481              	.LVL284:
 4482              	.LBB865:
 330:Menus.cpp     ****                     {
 4483              		.loc 2 330 38 view .LVU1163
 332:Menus.cpp     ****                         osc[1].SetWaveform(osc[1].WAVE_SQUARE);
ARM GAS  C:\Users\VINCIU~1\AppData\Local\Temp\ccGpRbsb.s 			page 119


 4484              		.loc 2 332 25 view .LVU1164
 333:Menus.cpp     ****                     }
 4485              		.loc 2 333 25 view .LVU1165
 4486              	.LBB866:
 4487              	.LBI866:
  70:../../DaisySP/Source/Synthesis/oscillator.h ****     {
 4488              		.loc 7 70 17 view .LVU1166
 4489              	.LBB867:
 4490              		.loc 7 72 9 view .LVU1167
 4491              		.loc 7 72 19 is_stmt 0 view .LVU1168
 4492 085c 0423     		movs	r3, #4
 4493 085e 0FE7     		b	.L280
 4494              	.L312:
 4495              		.align	2
 4496              	.L311:
 4497 0860 14000000 		.word	.LC4
 4498 0864 00000000 		.word	0
 4499              	.LBE867:
 4500              	.LBE866:
 4501              	.LBE865:
 4502              	.LBE868:
 4503              	.LBE873:
 4504              	.LBE877:
 4505              	.LBE882:
 4506              	.LBE887:
 4507              	.LBE898:
 4508              	.LBE914:
 4509              	.LBE1054:
 4510              	.LBE1075:
 4511              	.LBE1131:
 4512              		.cfi_endproc
 4513              	.LFE4039:
 4515              		.section	.rodata._ZN5Menus5Menu2E23OledDisplayExtravaganzaPN7daisysp10OscillatorE.str1.4,"aMS",%pr
 4516              		.align	2
 4517              	.LC5:
 4518 0000 496E6974 		.ascii	"Init_%d%%\000"
 4518      5F256425 
 4518      2500
 4519 000a 0000     		.align	2
 4520              	.LC6:
 4521 000c 54696D65 		.ascii	"Time_%d%%\000"
 4521      5F256425 
 4521      2500
 4522              		.section	.text._ZN5Menus5Menu2E23OledDisplayExtravaganzaPN7daisysp10OscillatorE,"ax",%progbits
 4523              		.align	1
 4524              		.p2align 2,,3
 4525              		.global	_ZN5Menus5Menu2E23OledDisplayExtravaganzaPN7daisysp10OscillatorE
 4526              		.syntax unified
 4527              		.thumb
 4528              		.thumb_func
 4529              		.fpu fpv5-d16
 4531              	_ZN5Menus5Menu2E23OledDisplayExtravaganzaPN7daisysp10OscillatorE:
 4532              	.LVL285:
 4533              	.LFB4040:
 422:Menus.cpp     **** 
 423:Menus.cpp     **** void Menus::Menu2(OledDisplayExtravaganza screen, daisysp::Oscillator osc[])
 424:Menus.cpp     **** {
ARM GAS  C:\Users\VINCIU~1\AppData\Local\Temp\ccGpRbsb.s 			page 120


 4534              		.loc 2 424 1 is_stmt 1 view -0
 4535              		.cfi_startproc
 4536              		@ args = 0, pretend = 0, frame = 24
 4537              		@ frame_needed = 0, uses_anonymous_args = 0
 4538              		.loc 2 424 1 is_stmt 0 view .LVU1170
 4539 0000 2DE9F04F 		push	{r4, r5, r6, r7, r8, r9, r10, fp, lr}
 4540              		.cfi_def_cfa_offset 36
 4541              		.cfi_offset 4, -36
 4542              		.cfi_offset 5, -32
 4543              		.cfi_offset 6, -28
 4544              		.cfi_offset 7, -24
 4545              		.cfi_offset 8, -20
 4546              		.cfi_offset 9, -16
 4547              		.cfi_offset 10, -12
 4548              		.cfi_offset 11, -8
 4549              		.cfi_offset 14, -4
 4550 0004 0C46     		mov	r4, r1
 4551 0006 0646     		mov	r6, r0
 425:Menus.cpp     ****     screen.Fill(false);
 4552              		.loc 2 425 5 is_stmt 1 view .LVU1171
 4553              	.LVL286:
 4554              	.LBB1273:
 4555              	.LBI1273:
  33:../../libdaisy/src/hid/disp/oled_display.h **** 
 4556              		.loc 1 33 10 view .LVU1172
 4557              	.LBB1274:
 4558              	.LBI1274:
 249:../../libdaisy/src/dev/oled_ssd130x.h ****     {
 4559              		.loc 6 249 10 view .LVU1173
 4560              	.LBB1275:
 251:../../libdaisy/src/dev/oled_ssd130x.h ****         {
 4561              		.loc 6 251 29 view .LVU1174
 4562              	.LBE1275:
 4563              	.LBE1274:
 4564              	.LBE1273:
 424:Menus.cpp     ****     screen.Fill(false);
 4565              		.loc 2 424 1 is_stmt 0 view .LVU1175
 4566 0008 8BB0     		sub	sp, sp, #44
 4567              		.cfi_def_cfa_offset 80
 4568              	.LBB1278:
 4569              	.LBB1277:
 4570              	.LBB1276:
 253:../../libdaisy/src/dev/oled_ssd130x.h ****         }
 4571              		.loc 6 253 24 view .LVU1176
 4572 000a 4FF48062 		mov	r2, #1024
 4573              	.LVL287:
 253:../../libdaisy/src/dev/oled_ssd130x.h ****         }
 4574              		.loc 6 253 24 view .LVU1177
 4575 000e 0021     		movs	r1, #0
 4576              	.LVL288:
 253:../../libdaisy/src/dev/oled_ssd130x.h ****         }
 4577              		.loc 6 253 24 view .LVU1178
 4578 0010 04F11400 		add	r0, r4, #20
 4579              	.LVL289:
 253:../../libdaisy/src/dev/oled_ssd130x.h ****         }
 4580              		.loc 6 253 24 view .LVU1179
 4581 0014 FFF7FEFF 		bl	memset
ARM GAS  C:\Users\VINCIU~1\AppData\Local\Temp\ccGpRbsb.s 			page 121


 4582              	.LVL290:
 253:../../libdaisy/src/dev/oled_ssd130x.h ****         }
 4583              		.loc 6 253 24 view .LVU1180
 4584              	.LBE1276:
 4585              	.LBE1277:
 4586              	.LBE1278:
 426:Menus.cpp     ****     float glideInit;
 4587              		.loc 2 426 5 is_stmt 1 view .LVU1181
 427:Menus.cpp     ****     float margin = 10;
 4588              		.loc 2 427 5 view .LVU1182
 428:Menus.cpp     ****     float offset = (screen.Height() / 4);
 4589              		.loc 2 428 5 view .LVU1183
 429:Menus.cpp     ****     glideInit    = (offset + (this->analogRead * screen.Height() * 0.625));
 4590              		.loc 2 429 5 view .LVU1184
 430:Menus.cpp     ****     if(this->buttonLeft.RisingEdge())
 4591              		.loc 2 430 5 view .LVU1185
 4592              	.LBB1279:
 4593              	.LBI1279:
 4594              		.loc 4 69 17 view .LVU1186
 4595              	.LBB1280:
 4596              		.loc 4 69 38 view .LVU1187
 4597              		.loc 4 69 38 is_stmt 0 view .LVU1188
 4598              	.LBE1280:
 4599              	.LBE1279:
 4600              		.loc 2 430 5 view .LVU1189
 4601 0018 96F85130 		ldrb	r3, [r6, #81]	@ zero_extendqisi2
 4602 001c 7F2B     		cmp	r3, #127
 431:Menus.cpp     **** 
 432:Menus.cpp     ****     {
 433:Menus.cpp     ****         this->menuStateGlide = this->menuStateGlide - 1;
 4603              		.loc 2 433 53 view .LVU1190
 4604 001e 336F     		ldr	r3, [r6, #112]
 430:Menus.cpp     ****     if(this->buttonLeft.RisingEdge())
 4605              		.loc 2 430 5 view .LVU1191
 4606 0020 00F08A81 		beq	.L383
 4607              	.L316:
 434:Menus.cpp     ****         if(this->menuStateGlide < 0)
 435:Menus.cpp     ****         {
 436:Menus.cpp     ****             this->menuStateGlide = 1;
 437:Menus.cpp     ****         }
 438:Menus.cpp     ****     }
 439:Menus.cpp     ****     if(this->buttonRight.RisingEdge())
 4608              		.loc 2 439 5 is_stmt 1 view .LVU1192
 4609              	.LVL291:
 4610              	.LBB1281:
 4611              	.LBI1281:
 4612              		.loc 4 69 17 view .LVU1193
 4613              	.LBB1282:
 4614              		.loc 4 69 38 view .LVU1194
 4615              		.loc 4 69 38 is_stmt 0 view .LVU1195
 4616              	.LBE1282:
 4617              	.LBE1281:
 4618              		.loc 2 439 5 view .LVU1196
 4619 0024 96F86120 		ldrb	r2, [r6, #97]	@ zero_extendqisi2
 4620 0028 7F2A     		cmp	r2, #127
 4621 002a 4ED0     		beq	.L384
 4622              	.L319:
ARM GAS  C:\Users\VINCIU~1\AppData\Local\Temp\ccGpRbsb.s 			page 122


 440:Menus.cpp     **** 
 441:Menus.cpp     ****     {
 442:Menus.cpp     ****         this->menuStateGlide = this->menuStateGlide + 1;
 443:Menus.cpp     ****         if(this->menuStateGlide > 1)
 444:Menus.cpp     ****         {
 445:Menus.cpp     ****             this->menuStateGlide = 0;
 446:Menus.cpp     ****         }
 447:Menus.cpp     ****     }
 448:Menus.cpp     ****     if(this->menuStateGlide == 0)
 4623              		.loc 2 448 5 is_stmt 1 view .LVU1197
 4624              	.LBB1284:
 4625 002c 002B     		cmp	r3, #0
 4626 002e 52D0     		beq	.L318
 449:Menus.cpp     ****     {
 450:Menus.cpp     ****         if(this->glideInit > 100)
 451:Menus.cpp     ****         {
 452:Menus.cpp     ****             this->glideInit = 100;
 453:Menus.cpp     ****         }
 454:Menus.cpp     ****         if(this->glideInit < -100)
 455:Menus.cpp     ****         {
 456:Menus.cpp     ****             this->glideInit = -100;
 457:Menus.cpp     ****         }
 458:Menus.cpp     **** 
 459:Menus.cpp     ****         int glideScale;
 460:Menus.cpp     ****         glideScale = screen.Height() - ((this->glideInit + 212) * 0.15);
 461:Menus.cpp     ****         this->glideInit += this->encoderRight.Increment();
 462:Menus.cpp     ****         circleGlidePosition = glideScale;
 463:Menus.cpp     **** 
 464:Menus.cpp     ****         sprintf(this->buffPitchGlide, "Init_%d%%", this->glideInit);
 465:Menus.cpp     **** 
 466:Menus.cpp     **** 
 467:Menus.cpp     ****         //(this->analogRead * 24) - 12;
 468:Menus.cpp     **** 
 469:Menus.cpp     ****         screen.DrawRect(0, 0, 66, 13, true, false);
 470:Menus.cpp     ****     }
 471:Menus.cpp     ****     else if(this->menuStateGlide == 1)
 4627              		.loc 2 471 10 view .LVU1198
 4628 0030 012B     		cmp	r3, #1
 4629 0032 00F0AC81 		beq	.L317
 4630              	.LBB1285:
 464:Menus.cpp     **** 
 4631              		.loc 2 464 23 is_stmt 0 view .LVU1199
 4632 0036 06F58275 		add	r5, r6, #260
 4633              	.LVL292:
 4634              	.L382:
 464:Menus.cpp     **** 
 4635              		.loc 2 464 23 view .LVU1200
 4636              	.LBE1285:
 472:Menus.cpp     ****     {
 473:Menus.cpp     ****          if(this->glideTime >= 100)
 474:Menus.cpp     ****         {
 475:Menus.cpp     ****             this->glideTime = 100;
 476:Menus.cpp     ****         }
 477:Menus.cpp     ****         if(this->glideTime <= 0)
 478:Menus.cpp     ****         {
 479:Menus.cpp     ****             this->glideTime = 0;
 480:Menus.cpp     ****         } 
ARM GAS  C:\Users\VINCIU~1\AppData\Local\Temp\ccGpRbsb.s 			page 123


 481:Menus.cpp     ****         if(circleGlidePosition >= 100)
 482:Menus.cpp     ****         {
 483:Menus.cpp     ****             circleGlidePosition = 100;
 484:Menus.cpp     ****         }
 485:Menus.cpp     ****         if(circleGlidePosition <= 0)
 486:Menus.cpp     ****         {
 487:Menus.cpp     ****             circleGlidePosition = 0;
 488:Menus.cpp     ****         }
 489:Menus.cpp     ****             if(circleGlideTimePosition >= 100)
 490:Menus.cpp     ****         {
 491:Menus.cpp     ****             circleGlideTimePosition = 100;
 492:Menus.cpp     ****         }
 493:Menus.cpp     ****         if(circleGlideTimePosition <= 10)
 494:Menus.cpp     ****         {
 495:Menus.cpp     ****             circleGlideTimePosition = 10;
 496:Menus.cpp     ****         }
 497:Menus.cpp     ****         circleGlideTimePosition += this->encoderRight.Increment();
 498:Menus.cpp     ****         ;
 499:Menus.cpp     ****         this->glideTime += this->encoderRight.Increment();
 500:Menus.cpp     ****         sprintf(this->buffPitchTime, "Time_%d%%", (int)this->glideTime);
 4637              		.loc 2 500 23 view .LVU1201
 4638 003a 06F58E77 		add	r7, r6, #284
 4639              	.L327:
 4640              		.loc 2 500 23 view .LVU1202
 4641              	.LBE1284:
 501:Menus.cpp     ****         screen.DrawRect(67, 0, screen.Width() - 2, 13, true, false);
 502:Menus.cpp     ****     }
 503:Menus.cpp     **** 
 504:Menus.cpp     ****     screen.SetCursor(6, 4);
 4642              		.loc 2 504 5 is_stmt 1 view .LVU1203
 4643              	.LVL293:
 4644              	.LBB1346:
 4645              	.LBI1346:
 131:../../libdaisy/src/hid/disp/display.h ****     {
 4646              		.loc 5 131 10 view .LVU1204
 4647              	.LBB1347:
 133:../../libdaisy/src/hid/disp/display.h ****         currentY_ = (y >= Height()) ? Height() - 1 : y;
 4648              		.loc 5 133 9 view .LVU1205
 134:../../libdaisy/src/hid/disp/display.h ****     }
 4649              		.loc 5 134 9 view .LVU1206
 4650              	.LBE1347:
 4651              	.LBE1346:
 505:Menus.cpp     ****     screen.WriteString(buffPitchGlide, Font_6x8, true);
 4652              		.loc 2 505 23 is_stmt 0 view .LVU1207
 4653 003e 2946     		mov	r1, r5
 4654              	.LBB1350:
 4655              	.LBB1348:
 133:../../libdaisy/src/hid/disp/display.h ****         currentY_ = (y >= Height()) ? Height() - 1 : y;
 4656              		.loc 5 133 19 view .LVU1208
 4657 0040 C84B     		ldr	r3, .L387
 4658              	.LBE1348:
 4659              	.LBE1350:
 4660              		.loc 2 505 23 view .LVU1209
 4661 0042 C94D     		ldr	r5, .L387+4
 4662 0044 4FF00109 		mov	r9, #1
 4663              	.LBB1351:
 4664              	.LBB1349:
ARM GAS  C:\Users\VINCIU~1\AppData\Local\Temp\ccGpRbsb.s 			page 124


 133:../../libdaisy/src/hid/disp/display.h ****         currentY_ = (y >= Height()) ? Height() - 1 : y;
 4665              		.loc 5 133 19 view .LVU1210
 4666 0048 6360     		str	r3, [r4, #4]
 4667              	.LVL294:
 133:../../libdaisy/src/hid/disp/display.h ****         currentY_ = (y >= Height()) ? Height() - 1 : y;
 4668              		.loc 5 133 19 view .LVU1211
 4669              	.LBE1349:
 4670              	.LBE1351:
 4671              		.loc 2 505 5 is_stmt 1 view .LVU1212
 4672              		.loc 2 505 23 is_stmt 0 view .LVU1213
 4673 004a 2046     		mov	r0, r4
 4674 004c CDF80090 		str	r9, [sp]
 4675 0050 95E80C00 		ldm	r5, {r2, r3}
 4676 0054 FFF7FEFF 		bl	_ZN5daisy25OneBitGraphicsDisplayImplINS_11OledDisplayINS_13SSD130xDriverILj128ELj64ENS_24SSD130
 4677              	.LVL295:
 506:Menus.cpp     ****     screen.SetCursor(73, 4);
 4678              		.loc 2 506 5 is_stmt 1 view .LVU1214
 4679              	.LBB1352:
 4680              	.LBI1352:
 131:../../libdaisy/src/hid/disp/display.h ****     {
 4681              		.loc 5 131 10 view .LVU1215
 4682              	.LBB1353:
 133:../../libdaisy/src/hid/disp/display.h ****         currentY_ = (y >= Height()) ? Height() - 1 : y;
 4683              		.loc 5 133 9 view .LVU1216
 134:../../libdaisy/src/hid/disp/display.h ****     }
 4684              		.loc 5 134 9 view .LVU1217
 133:../../libdaisy/src/hid/disp/display.h ****         currentY_ = (y >= Height()) ? Height() - 1 : y;
 4685              		.loc 5 133 19 is_stmt 0 view .LVU1218
 4686 0058 C44B     		ldr	r3, .L387+8
 4687              	.LBE1353:
 4688              	.LBE1352:
 507:Menus.cpp     ****     screen.WriteString(buffPitchTime, Font_6x8, true);
 4689              		.loc 2 507 23 view .LVU1219
 4690 005a CDF80090 		str	r9, [sp]
 4691 005e 3946     		mov	r1, r7
 4692              	.LBB1355:
 4693              	.LBB1354:
 133:../../libdaisy/src/hid/disp/display.h ****         currentY_ = (y >= Height()) ? Height() - 1 : y;
 4694              		.loc 5 133 19 view .LVU1220
 4695 0060 6360     		str	r3, [r4, #4]
 4696              	.LVL296:
 133:../../libdaisy/src/hid/disp/display.h ****         currentY_ = (y >= Height()) ? Height() - 1 : y;
 4697              		.loc 5 133 19 view .LVU1221
 4698              	.LBE1354:
 4699              	.LBE1355:
 4700              		.loc 2 507 5 is_stmt 1 view .LVU1222
 4701              		.loc 2 507 23 is_stmt 0 view .LVU1223
 4702 0062 2046     		mov	r0, r4
 4703 0064 95E80C00 		ldm	r5, {r2, r3}
 4704 0068 FFF7FEFF 		bl	_ZN5daisy25OneBitGraphicsDisplayImplINS_11OledDisplayINS_13SSD130xDriverILj128ELj64ENS_24SSD130
 4705              	.LVL297:
 508:Menus.cpp     ****     screen.DrawLine(margin,
 4706              		.loc 2 508 5 is_stmt 1 view .LVU1224
 4707              		.loc 2 508 20 is_stmt 0 view .LVU1225
 4708 006c 96ED227A 		vldr.32	s14, [r6, #136]
 4709 0070 D6ED237A 		vldr.32	s15, [r6, #140]
 4710 0074 BCEEC77A 		vcvt.u32.f32	s14, s14
ARM GAS  C:\Users\VINCIU~1\AppData\Local\Temp\ccGpRbsb.s 			page 125


 4711 0078 FCEEE77A 		vcvt.u32.f32	s15, s15
 4712              	.LBB1356:
 4713              	.LBB1357:
 188:../../libdaisy/src/hid/disp/display.h ****         int_fast16_t signX  = ((x1 < x2) ? 1 : -1);
 4714              		.loc 5 188 52 view .LVU1226
 4715 007c 17EE103A 		vmov	r3, s14	@ int
 4716              	.LBE1357:
 4717              	.LBE1356:
 4718              		.loc 2 508 20 view .LVU1227
 4719 0080 8DED057A 		vstr.32	s14, [sp, #20]	@ int
 4720 0084 17EE908A 		vmov	r8, s15	@ int
 4721              	.LVL298:
 4722              	.LBB1396:
 4723              	.LBI1356:
 181:../../libdaisy/src/hid/disp/display.h ****                   uint_fast8_t y1,
 4724              		.loc 5 181 10 is_stmt 1 view .LVU1228
 4725              	.LBB1392:
 188:../../libdaisy/src/hid/disp/display.h ****         int_fast16_t signX  = ((x1 < x2) ? 1 : -1);
 4726              		.loc 5 188 52 is_stmt 0 view .LVU1229
 4727 0088 C3F1200A 		rsb	r10, r3, #32
 187:../../libdaisy/src/hid/disp/display.h ****         int_fast16_t deltaY = abs((int_fast16_t)y2 - (int_fast16_t)y1);
 4728              		.loc 5 187 52 view .LVU1230
 4729 008c A8F10A07 		sub	r7, r8, #10
 188:../../libdaisy/src/hid/disp/display.h ****         int_fast16_t signX  = ((x1 < x2) ? 1 : -1);
 4730              		.loc 5 188 22 view .LVU1231
 4731 0090 BAF1000F 		cmp	r10, #0
 4732 0094 B8BF     		it	lt
 4733 0096 CAF1000A 		rsblt	r10, r10, #0
 187:../../libdaisy/src/hid/disp/display.h ****         int_fast16_t deltaY = abs((int_fast16_t)y2 - (int_fast16_t)y1);
 4734              		.loc 5 187 22 view .LVU1232
 4735 009a 002F     		cmp	r7, #0
 4736 009c B8BF     		it	lt
 4737 009e 7F42     		rsblt	r7, r7, #0
 4738              	.LVL299:
 189:../../libdaisy/src/hid/disp/display.h ****         int_fast16_t signY  = ((y1 < y2) ? 1 : -1);
 4739              		.loc 5 189 42 view .LVU1233
 4740 00a0 B8F10A0F 		cmp	r8, #10
 4741 00a4 40F28480 		bls	.L335
 4742              	.LVL300:
 190:../../libdaisy/src/hid/disp/display.h ****         int_fast16_t error  = deltaX - deltaY;
 4743              		.loc 5 190 42 view .LVU1234
 4744 00a8 1F2B     		cmp	r3, #31
 191:../../libdaisy/src/hid/disp/display.h ****         int_fast16_t error2;
 4745              		.loc 5 191 22 view .LVU1235
 4746 00aa A7EB0A01 		sub	r1, r7, r10
 4747              	.LVL301:
 4748              	.LBB1358:
 4749              	.LBI1358:
 4750              		.loc 1 41 10 is_stmt 1 view .LVU1236
 4751              	.LBB1359:
  42:../../libdaisy/src/hid/disp/oled_display.h ****     {
  43:../../libdaisy/src/hid/disp/oled_display.h ****         driver_.DrawPixel(x, y, on);
 4752              		.loc 1 43 26 is_stmt 0 view .LVU1237
 4753 00ae 04F10805 		add	r5, r4, #8
 4754              	.LBE1359:
 4755              	.LBE1358:
 190:../../libdaisy/src/hid/disp/display.h ****         int_fast16_t error  = deltaX - deltaY;
ARM GAS  C:\Users\VINCIU~1\AppData\Local\Temp\ccGpRbsb.s 			page 126


 4756              		.loc 5 190 42 view .LVU1238
 4757 00b2 40F24581 		bls	.L336
 4758              	.LVL302:
 4759              	.LBB1379:
 4760              	.LBB1372:
 4761              	.LBB1360:
 4762              	.LBI1360:
 239:../../libdaisy/src/dev/oled_ssd130x.h ****     {
 4763              		.loc 6 239 10 is_stmt 1 view .LVU1239
 4764              	.LBB1361:
 241:../../libdaisy/src/dev/oled_ssd130x.h ****             return;
 4765              		.loc 6 241 9 is_stmt 0 view .LVU1240
 4766 00b6 B8F17F0F 		cmp	r8, #127
 4767              	.LBE1361:
 4768              	.LBE1360:
 4769              	.LBE1372:
 4770              	.LBE1379:
 189:../../libdaisy/src/hid/disp/display.h ****         int_fast16_t signY  = ((y1 < y2) ? 1 : -1);
 4771              		.loc 5 189 42 view .LVU1241
 4772 00ba CDF81C90 		str	r9, [sp, #28]
 4773              	.LBB1380:
 4774              	.LBB1373:
 4775              	.LBB1366:
 4776              	.LBB1362:
 241:../../libdaisy/src/dev/oled_ssd130x.h ****             return;
 4777              		.loc 6 241 9 view .LVU1242
 4778 00be 40F28280 		bls	.L354
 4779              	.LBE1362:
 4780              	.LBE1366:
 4781              	.LBE1373:
 4782              	.LBE1380:
 190:../../libdaisy/src/hid/disp/display.h ****         int_fast16_t error  = deltaX - deltaY;
 4783              		.loc 5 190 42 view .LVU1243
 4784 00c2 4FF0FF33 		mov	r3, #-1
 4785              	.LVL303:
 190:../../libdaisy/src/hid/disp/display.h ****         int_fast16_t error  = deltaX - deltaY;
 4786              		.loc 5 190 42 view .LVU1244
 4787 00c6 0693     		str	r3, [sp, #24]
 4788 00c8 8DE0     		b	.L337
 4789              	.LVL304:
 4790              	.L384:
 190:../../libdaisy/src/hid/disp/display.h ****         int_fast16_t error  = deltaX - deltaY;
 4791              		.loc 5 190 42 view .LVU1245
 4792              	.LBE1392:
 4793              	.LBE1396:
 442:Menus.cpp     ****         if(this->menuStateGlide > 1)
 4794              		.loc 2 442 9 is_stmt 1 view .LVU1246
 442:Menus.cpp     ****         if(this->menuStateGlide > 1)
 4795              		.loc 2 442 53 is_stmt 0 view .LVU1247
 4796 00ca 0133     		adds	r3, r3, #1
 443:Menus.cpp     ****         {
 4797              		.loc 2 443 9 view .LVU1248
 4798 00cc 012B     		cmp	r3, #1
 442:Menus.cpp     ****         if(this->menuStateGlide > 1)
 4799              		.loc 2 442 30 view .LVU1249
 4800 00ce 3367     		str	r3, [r6, #112]
 443:Menus.cpp     ****         {
ARM GAS  C:\Users\VINCIU~1\AppData\Local\Temp\ccGpRbsb.s 			page 127


 4801              		.loc 2 443 9 is_stmt 1 view .LVU1250
 4802 00d0 ACDD     		ble	.L319
 4803              	.L320:
 445:Menus.cpp     ****         }
 4804              		.loc 2 445 13 view .LVU1251
 445:Menus.cpp     ****         }
 4805              		.loc 2 445 34 is_stmt 0 view .LVU1252
 4806 00d2 0023     		movs	r3, #0
 4807 00d4 3367     		str	r3, [r6, #112]
 448:Menus.cpp     ****     {
 4808              		.loc 2 448 5 is_stmt 1 view .LVU1253
 4809              	.L318:
 4810              	.LBB1397:
 4811              	.LBB1341:
 450:Menus.cpp     ****         {
 4812              		.loc 2 450 9 view .LVU1254
 450:Menus.cpp     ****         {
 4813              		.loc 2 450 18 is_stmt 0 view .LVU1255
 4814 00d6 D6F89030 		ldr	r3, [r6, #144]
 450:Menus.cpp     ****         {
 4815              		.loc 2 450 9 view .LVU1256
 4816 00da 642B     		cmp	r3, #100
 4817 00dc 64DC     		bgt	.L355
 454:Menus.cpp     ****         {
 4818              		.loc 2 454 9 is_stmt 1 view .LVU1257
 4819 00de 13F1640F 		cmn	r3, #100
 4820 00e2 80F2B481 		bge	.L385
 4821 00e6 DFEDA27A 		vldr.32	s15, .L387+12
 4822 00ea 6FF06303 		mvn	r3, #99
 4823              	.L322:
 459:Menus.cpp     ****         glideScale = screen.Height() - ((this->glideInit + 212) * 0.15);
 4824              		.loc 2 459 9 view .LVU1258
 460:Menus.cpp     ****         this->glideInit += this->encoderRight.Increment();
 4825              		.loc 2 460 9 view .LVU1259
 4826              	.LVL305:
 461:Menus.cpp     ****         circleGlidePosition = glideScale;
 4827              		.loc 2 461 9 view .LVU1260
 4828              	.LBB1286:
 4829              	.LBI1286:
  41:../../libdaisy/src/hid/encoder.h ****     /** Returns true if the encoder was just pressed.
 4830              		.loc 3 41 20 view .LVU1261
 4831              	.LBB1287:
  41:../../libdaisy/src/hid/encoder.h ****     /** Returns true if the encoder was just pressed.
 4832              		.loc 3 41 40 view .LVU1262
  41:../../libdaisy/src/hid/encoder.h ****     /** Returns true if the encoder was just pressed.
 4833              		.loc 3 41 40 is_stmt 0 view .LVU1263
 4834              	.LBE1287:
 4835              	.LBE1286:
 461:Menus.cpp     ****         circleGlidePosition = glideScale;
 4836              		.loc 2 461 25 view .LVU1264
 4837 00ee B26C     		ldr	r2, [r6, #72]
 464:Menus.cpp     **** 
 4838              		.loc 2 464 23 view .LVU1265
 4839 00f0 06F58275 		add	r5, r6, #260
 464:Menus.cpp     **** 
 4840              		.loc 2 464 16 view .LVU1266
 4841 00f4 9F49     		ldr	r1, .L387+16
ARM GAS  C:\Users\VINCIU~1\AppData\Local\Temp\ccGpRbsb.s 			page 128


 461:Menus.cpp     ****         circleGlidePosition = glideScale;
 4842              		.loc 2 461 25 view .LVU1267
 4843 00f6 1A44     		add	r2, r2, r3
 464:Menus.cpp     **** 
 4844              		.loc 2 464 16 view .LVU1268
 4845 00f8 2846     		mov	r0, r5
 462:Menus.cpp     **** 
 4846              		.loc 2 462 29 view .LVU1269
 4847 00fa C6ED227A 		vstr.32	s15, [r6, #136]
 4848              	.LVL306:
 461:Menus.cpp     ****         circleGlidePosition = glideScale;
 4849              		.loc 2 461 25 view .LVU1270
 4850 00fe C6F89020 		str	r2, [r6, #144]
 4851              	.LVL307:
 462:Menus.cpp     **** 
 4852              		.loc 2 462 9 is_stmt 1 view .LVU1271
 464:Menus.cpp     **** 
 4853              		.loc 2 464 9 view .LVU1272
 464:Menus.cpp     **** 
 4854              		.loc 2 464 16 is_stmt 0 view .LVU1273
 4855 0102 FFF7FEFF 		bl	sprintf
 4856              	.LVL308:
 469:Menus.cpp     ****     }
 4857              		.loc 2 469 9 is_stmt 1 view .LVU1274
 4858              	.LBB1288:
 4859              	.LBI1288:
 217:../../libdaisy/src/hid/disp/display.h ****                   uint_fast8_t y1,
 4860              		.loc 5 217 10 view .LVU1275
 4861              	.LBB1289:
 4862              	.LBI1289:
 181:../../libdaisy/src/hid/disp/display.h ****                   uint_fast8_t y1,
 4863              		.loc 5 181 10 view .LVU1276
 4864              	.LBB1290:
 4865              	.LBB1291:
 4866              	.LBI1291:
  41:../../libdaisy/src/hid/disp/oled_display.h ****     {
 4867              		.loc 1 41 10 view .LVU1277
 4868              	.LBB1292:
 4869              	.LBI1292:
 239:../../libdaisy/src/dev/oled_ssd130x.h ****     {
 4870              		.loc 6 239 10 view .LVU1278
 4871              	.LBB1293:
 244:../../libdaisy/src/dev/oled_ssd130x.h ****         else
 4872              		.loc 6 244 42 is_stmt 0 view .LVU1279
 4873 0106 94F85620 		ldrb	r2, [r4, #86]	@ zero_extendqisi2
 4874 010a 04F11303 		add	r3, r4, #19
 4875 010e 04F15501 		add	r1, r4, #85
 4876 0112 42F00102 		orr	r2, r2, #1
 4877 0116 84F85620 		strb	r2, [r4, #86]
 4878              	.LVL309:
 244:../../libdaisy/src/dev/oled_ssd130x.h ****         else
 4879              		.loc 6 244 42 view .LVU1280
 4880              	.LBE1293:
 4881              	.LBE1292:
 4882              	.LBE1291:
 199:../../libdaisy/src/hid/disp/display.h ****         {
 4883              		.loc 5 199 26 is_stmt 1 view .LVU1281
ARM GAS  C:\Users\VINCIU~1\AppData\Local\Temp\ccGpRbsb.s 			page 129


 4884              	.L323:
 4885              	.LBB1294:
 4886              	.LBI1294:
  41:../../libdaisy/src/hid/disp/oled_display.h ****     {
 4887              		.loc 1 41 10 view .LVU1282
 4888              	.LBB1295:
 4889              	.LBI1295:
 239:../../libdaisy/src/dev/oled_ssd130x.h ****     {
 4890              		.loc 6 239 10 view .LVU1283
 4891              	.LBB1296:
 244:../../libdaisy/src/dev/oled_ssd130x.h ****         else
 4892              		.loc 6 244 42 is_stmt 0 view .LVU1284
 4893 011a 13F8012F 		ldrb	r2, [r3, #1]!	@ zero_extendqisi2
 244:../../libdaisy/src/dev/oled_ssd130x.h ****         else
 4894              		.loc 6 244 42 view .LVU1285
 4895 011e 42F00102 		orr	r2, r2, #1
 4896              	.LBE1296:
 4897              	.LBE1295:
 4898              	.LBE1294:
 199:../../libdaisy/src/hid/disp/display.h ****         {
 4899              		.loc 5 199 26 view .LVU1286
 4900 0122 9942     		cmp	r1, r3
 4901              	.LBB1299:
 4902              	.LBB1298:
 4903              	.LBB1297:
 244:../../libdaisy/src/dev/oled_ssd130x.h ****         else
 4904              		.loc 6 244 42 view .LVU1287
 4905 0124 1A70     		strb	r2, [r3]
 4906              	.LVL310:
 244:../../libdaisy/src/dev/oled_ssd130x.h ****         else
 4907              		.loc 6 244 42 view .LVU1288
 4908              	.LBE1297:
 4909              	.LBE1298:
 4910              	.LBE1299:
 199:../../libdaisy/src/hid/disp/display.h ****         {
 4911              		.loc 5 199 26 is_stmt 1 view .LVU1289
 4912 0126 F8D1     		bne	.L323
 4913              	.LVL311:
 199:../../libdaisy/src/hid/disp/display.h ****         {
 4914              		.loc 5 199 26 is_stmt 0 view .LVU1290
 4915              	.LBE1290:
 4916              	.LBE1289:
 4917              	.LBB1300:
 4918              	.LBI1300:
 181:../../libdaisy/src/hid/disp/display.h ****                   uint_fast8_t y1,
 4919              		.loc 5 181 10 is_stmt 1 view .LVU1291
 4920              	.LBB1301:
 4921              	.LBB1302:
 4922              	.LBI1302:
  41:../../libdaisy/src/hid/disp/oled_display.h ****     {
 4923              		.loc 1 41 10 view .LVU1292
 4924              	.LBB1303:
 4925              	.LBI1303:
 239:../../libdaisy/src/dev/oled_ssd130x.h ****     {
 4926              		.loc 6 239 10 view .LVU1293
 4927              	.LBB1304:
 244:../../libdaisy/src/dev/oled_ssd130x.h ****         else
ARM GAS  C:\Users\VINCIU~1\AppData\Local\Temp\ccGpRbsb.s 			page 130


 4928              		.loc 6 244 42 is_stmt 0 view .LVU1294
 4929 0128 94F8D620 		ldrb	r2, [r4, #214]	@ zero_extendqisi2
 4930 012c 0023     		movs	r3, #0
 4931 012e 42F02002 		orr	r2, r2, #32
 4932 0132 84F8D620 		strb	r2, [r4, #214]
 4933              	.LVL312:
 244:../../libdaisy/src/dev/oled_ssd130x.h ****         else
 4934              		.loc 6 244 42 view .LVU1295
 4935              	.LBE1304:
 4936              	.LBE1303:
 4937              	.LBE1302:
 199:../../libdaisy/src/hid/disp/display.h ****         {
 4938              		.loc 5 199 26 is_stmt 1 view .LVU1296
 4939              	.L324:
 4940              	.LBB1305:
 4941              	.LBI1305:
  41:../../libdaisy/src/hid/disp/oled_display.h ****     {
 4942              		.loc 1 41 10 view .LVU1297
 4943              	.LBB1306:
 4944              	.LBI1306:
 239:../../libdaisy/src/dev/oled_ssd130x.h ****     {
 4945              		.loc 6 239 10 view .LVU1298
 4946              	.LBB1307:
 244:../../libdaisy/src/dev/oled_ssd130x.h ****         else
 4947              		.loc 6 244 28 is_stmt 0 view .LVU1299
 4948 0136 D908     		lsrs	r1, r3, #3
 244:../../libdaisy/src/dev/oled_ssd130x.h ****         else
 4949              		.loc 6 244 54 view .LVU1300
 4950 0138 03F00700 		and	r0, r3, #7
 244:../../libdaisy/src/dev/oled_ssd130x.h ****         else
 4951              		.loc 6 244 48 view .LVU1301
 4952 013c 0122     		movs	r2, #1
 244:../../libdaisy/src/dev/oled_ssd130x.h ****         else
 4953              		.loc 6 244 42 view .LVU1302
 4954 013e 04EBC111 		add	r1, r4, r1, lsl #7
 4955              	.LBE1307:
 4956              	.LBE1306:
 4957              	.LBE1305:
 212:../../libdaisy/src/hid/disp/display.h ****             }
 4958              		.loc 5 212 20 view .LVU1303
 4959 0142 1344     		add	r3, r3, r2
 4960              	.LVL313:
 4961              	.LBB1312:
 4962              	.LBB1310:
 4963              	.LBB1308:
 244:../../libdaisy/src/dev/oled_ssd130x.h ****         else
 4964              		.loc 6 244 48 view .LVU1304
 4965 0144 8240     		lsls	r2, r2, r0
 244:../../libdaisy/src/dev/oled_ssd130x.h ****         else
 4966              		.loc 6 244 42 view .LVU1305
 4967 0146 91F85600 		ldrb	r0, [r1, #86]	@ zero_extendqisi2
 4968              	.LBE1308:
 4969              	.LBE1310:
 4970              	.LBE1312:
 199:../../libdaisy/src/hid/disp/display.h ****         {
 4971              		.loc 5 199 26 view .LVU1306
 4972 014a 0D2B     		cmp	r3, #13
ARM GAS  C:\Users\VINCIU~1\AppData\Local\Temp\ccGpRbsb.s 			page 131


 4973              	.LBB1313:
 4974              	.LBB1311:
 4975              	.LBB1309:
 244:../../libdaisy/src/dev/oled_ssd130x.h ****         else
 4976              		.loc 6 244 42 view .LVU1307
 4977 014c 42EA0002 		orr	r2, r2, r0
 4978 0150 81F85620 		strb	r2, [r1, #86]
 4979              	.LVL314:
 244:../../libdaisy/src/dev/oled_ssd130x.h ****         else
 4980              		.loc 6 244 42 view .LVU1308
 4981              	.LBE1309:
 4982              	.LBE1311:
 4983              	.LBE1313:
 199:../../libdaisy/src/hid/disp/display.h ****         {
 4984              		.loc 5 199 26 is_stmt 1 view .LVU1309
 4985 0154 EFD1     		bne	.L324
 4986              	.LVL315:
 199:../../libdaisy/src/hid/disp/display.h ****         {
 4987              		.loc 5 199 26 is_stmt 0 view .LVU1310
 4988              	.LBE1301:
 4989              	.LBE1300:
 4990              	.LBB1314:
 4991              	.LBI1314:
 181:../../libdaisy/src/hid/disp/display.h ****                   uint_fast8_t y1,
 4992              		.loc 5 181 10 is_stmt 1 view .LVU1311
 4993              	.LBB1315:
 4994              	.LBB1316:
 4995              	.LBI1316:
  41:../../libdaisy/src/hid/disp/oled_display.h ****     {
 4996              		.loc 1 41 10 view .LVU1312
 4997              	.LBB1317:
 4998              	.LBI1317:
 239:../../libdaisy/src/dev/oled_ssd130x.h ****     {
 4999              		.loc 6 239 10 view .LVU1313
 5000              	.LBB1318:
 244:../../libdaisy/src/dev/oled_ssd130x.h ****         else
 5001              		.loc 6 244 42 is_stmt 0 view .LVU1314
 5002 0156 94F89420 		ldrb	r2, [r4, #148]	@ zero_extendqisi2
 5003 015a 04F1D701 		add	r1, r4, #215
 5004 015e 04F19507 		add	r7, r4, #149
 5005 0162 42F02002 		orr	r2, r2, #32
 5006 0166 84F89420 		strb	r2, [r4, #148]
 5007              	.LVL316:
 244:../../libdaisy/src/dev/oled_ssd130x.h ****         else
 5008              		.loc 6 244 42 view .LVU1315
 5009              	.LBE1318:
 5010              	.LBE1317:
 5011              	.LBE1316:
 199:../../libdaisy/src/hid/disp/display.h ****         {
 5012              		.loc 5 199 26 is_stmt 1 view .LVU1316
 5013              	.L325:
 5014              	.LBB1319:
 5015              	.LBI1319:
  41:../../libdaisy/src/hid/disp/oled_display.h ****     {
 5016              		.loc 1 41 10 view .LVU1317
 5017              	.LBB1320:
 5018              	.LBI1320:
ARM GAS  C:\Users\VINCIU~1\AppData\Local\Temp\ccGpRbsb.s 			page 132


 239:../../libdaisy/src/dev/oled_ssd130x.h ****     {
 5019              		.loc 6 239 10 view .LVU1318
 5020              	.LBB1321:
 244:../../libdaisy/src/dev/oled_ssd130x.h ****         else
 5021              		.loc 6 244 42 is_stmt 0 view .LVU1319
 5022 016a 11F8010D 		ldrb	r0, [r1, #-1]!	@ zero_extendqisi2
 244:../../libdaisy/src/dev/oled_ssd130x.h ****         else
 5023              		.loc 6 244 42 view .LVU1320
 5024 016e 40F02000 		orr	r0, r0, #32
 5025              	.LBE1321:
 5026              	.LBE1320:
 5027              	.LBE1319:
 199:../../libdaisy/src/hid/disp/display.h ****         {
 5028              		.loc 5 199 26 view .LVU1321
 5029 0172 8F42     		cmp	r7, r1
 5030              	.LBB1324:
 5031              	.LBB1323:
 5032              	.LBB1322:
 244:../../libdaisy/src/dev/oled_ssd130x.h ****         else
 5033              		.loc 6 244 42 view .LVU1322
 5034 0174 0870     		strb	r0, [r1]
 5035              	.LVL317:
 244:../../libdaisy/src/dev/oled_ssd130x.h ****         else
 5036              		.loc 6 244 42 view .LVU1323
 5037              	.LBE1322:
 5038              	.LBE1323:
 5039              	.LBE1324:
 199:../../libdaisy/src/hid/disp/display.h ****         {
 5040              		.loc 5 199 26 is_stmt 1 view .LVU1324
 5041 0176 F8D1     		bne	.L325
 5042              	.LVL318:
 199:../../libdaisy/src/hid/disp/display.h ****         {
 5043              		.loc 5 199 26 is_stmt 0 view .LVU1325
 5044              	.LBE1315:
 5045              	.LBE1314:
 5046              	.LBB1325:
 5047              	.LBI1325:
 181:../../libdaisy/src/hid/disp/display.h ****                   uint_fast8_t y1,
 5048              		.loc 5 181 10 is_stmt 1 view .LVU1326
 5049              	.LBB1326:
 5050              	.LBB1327:
 5051              	.LBI1327:
  41:../../libdaisy/src/hid/disp/oled_display.h ****     {
 5052              		.loc 1 41 10 view .LVU1327
 5053              	.LBB1328:
 5054              	.LBI1328:
 239:../../libdaisy/src/dev/oled_ssd130x.h ****     {
 5055              		.loc 6 239 10 view .LVU1328
 5056              	.LBB1329:
 244:../../libdaisy/src/dev/oled_ssd130x.h ****         else
 5057              		.loc 6 244 42 is_stmt 0 view .LVU1329
 5058 0178 217D     		ldrb	r1, [r4, #20]	@ zero_extendqisi2
 5059 017a 0120     		movs	r0, #1
 5060 017c 41F00101 		orr	r1, r1, #1
 5061 0180 2175     		strb	r1, [r4, #20]
 5062              	.LVL319:
 244:../../libdaisy/src/dev/oled_ssd130x.h ****         else
ARM GAS  C:\Users\VINCIU~1\AppData\Local\Temp\ccGpRbsb.s 			page 133


 5063              		.loc 6 244 42 view .LVU1330
 5064              	.LBE1329:
 5065              	.LBE1328:
 5066              	.LBE1327:
 199:../../libdaisy/src/hid/disp/display.h ****         {
 5067              		.loc 5 199 26 is_stmt 1 view .LVU1331
 5068 0182 02E0     		b	.L328
 5069              	.LVL320:
 5070              	.L326:
 5071              	.LBB1330:
 5072              	.LBB1331:
 5073              	.LBB1332:
 244:../../libdaisy/src/dev/oled_ssd130x.h ****         else
 5074              		.loc 6 244 42 is_stmt 0 view .LVU1332
 5075 0184 04EBC012 		add	r2, r4, r0, lsl #7
 5076 0188 127D     		ldrb	r2, [r2, #20]	@ zero_extendqisi2
 5077              	.LVL321:
 5078              	.L328:
 244:../../libdaisy/src/dev/oled_ssd130x.h ****         else
 5079              		.loc 6 244 42 view .LVU1333
 5080              	.LBE1332:
 5081              	.LBE1331:
 5082              	.LBI1330:
  41:../../libdaisy/src/hid/disp/oled_display.h ****     {
 5083              		.loc 1 41 10 is_stmt 1 view .LVU1334
 5084              	.LBB1336:
 5085              	.LBI1331:
 239:../../libdaisy/src/dev/oled_ssd130x.h ****     {
 5086              		.loc 6 239 10 view .LVU1335
 5087              	.LBB1333:
 244:../../libdaisy/src/dev/oled_ssd130x.h ****         else
 5088              		.loc 6 244 54 is_stmt 0 view .LVU1336
 5089 018a 03F00707 		and	r7, r3, #7
 244:../../libdaisy/src/dev/oled_ssd130x.h ****         else
 5090              		.loc 6 244 48 view .LVU1337
 5091 018e 0121     		movs	r1, #1
 244:../../libdaisy/src/dev/oled_ssd130x.h ****         else
 5092              		.loc 6 244 42 view .LVU1338
 5093 0190 04EBC010 		add	r0, r4, r0, lsl #7
 5094              	.LBE1333:
 5095              	.LBE1336:
 5096              	.LBE1330:
 199:../../libdaisy/src/hid/disp/display.h ****         {
 5097              		.loc 5 199 26 view .LVU1339
 5098 0194 013B     		subs	r3, r3, #1
 5099              	.LVL322:
 5100              	.LBB1339:
 5101              	.LBB1337:
 5102              	.LBB1334:
 244:../../libdaisy/src/dev/oled_ssd130x.h ****         else
 5103              		.loc 6 244 48 view .LVU1340
 5104 0196 01FA07F1 		lsl	r1, r1, r7
 244:../../libdaisy/src/dev/oled_ssd130x.h ****         else
 5105              		.loc 6 244 42 view .LVU1341
 5106 019a 42EA0102 		orr	r2, r2, r1
 5107 019e 0275     		strb	r2, [r0, #20]
 5108              	.LVL323:
ARM GAS  C:\Users\VINCIU~1\AppData\Local\Temp\ccGpRbsb.s 			page 134


 244:../../libdaisy/src/dev/oled_ssd130x.h ****         else
 5109              		.loc 6 244 42 view .LVU1342
 5110              	.LBE1334:
 5111              	.LBE1337:
 5112              	.LBE1339:
 199:../../libdaisy/src/hid/disp/display.h ****         {
 5113              		.loc 5 199 26 is_stmt 1 view .LVU1343
 5114              	.LBB1340:
 5115              	.LBB1338:
 5116              	.LBB1335:
 244:../../libdaisy/src/dev/oled_ssd130x.h ****         else
 5117              		.loc 6 244 28 is_stmt 0 view .LVU1344
 5118 01a0 4FEAD300 		lsr	r0, r3, #3
 5119              	.LBE1335:
 5120              	.LBE1338:
 5121              	.LBE1340:
 199:../../libdaisy/src/hid/disp/display.h ****         {
 5122              		.loc 5 199 26 view .LVU1345
 5123 01a4 EED1     		bne	.L326
 5124 01a6 48E7     		b	.L382
 5125              	.LVL324:
 5126              	.L355:
 199:../../libdaisy/src/hid/disp/display.h ****         {
 5127              		.loc 5 199 26 view .LVU1346
 5128              	.LBE1326:
 5129              	.LBE1325:
 5130              	.LBE1288:
 5131 01a8 F3EE017A 		vmov.f32	s15, #1.7e+1
 5132 01ac 6423     		movs	r3, #100
 5133 01ae 9EE7     		b	.L322
 5134              	.LVL325:
 5135              	.L335:
 199:../../libdaisy/src/hid/disp/display.h ****         {
 5136              		.loc 5 199 26 view .LVU1347
 5137              	.LBE1341:
 5138              	.LBE1397:
 5139              	.LBB1398:
 5140              	.LBB1393:
 190:../../libdaisy/src/hid/disp/display.h ****         int_fast16_t error  = deltaX - deltaY;
 5141              		.loc 5 190 42 view .LVU1348
 5142 01b0 059B     		ldr	r3, [sp, #20]
 5143              	.LVL326:
 190:../../libdaisy/src/hid/disp/display.h ****         int_fast16_t error  = deltaX - deltaY;
 5144              		.loc 5 190 42 view .LVU1349
 5145 01b2 1F2B     		cmp	r3, #31
 5146 01b4 40F2CB80 		bls	.L353
 5147              	.LVL327:
 189:../../libdaisy/src/hid/disp/display.h ****         int_fast16_t signY  = ((y1 < y2) ? 1 : -1);
 5148              		.loc 5 189 42 view .LVU1350
 5149 01b8 4FF0FF33 		mov	r3, #-1
 191:../../libdaisy/src/hid/disp/display.h ****         int_fast16_t error2;
 5150              		.loc 5 191 22 view .LVU1351
 5151 01bc A7EB0A01 		sub	r1, r7, r10
 5152              	.LVL328:
 5153              	.LBB1381:
  41:../../libdaisy/src/hid/disp/oled_display.h ****     {
 5154              		.loc 1 41 10 is_stmt 1 view .LVU1352
ARM GAS  C:\Users\VINCIU~1\AppData\Local\Temp\ccGpRbsb.s 			page 135


 5155              	.LBB1374:
 5156              		.loc 1 43 26 is_stmt 0 view .LVU1353
 5157 01c0 04F10805 		add	r5, r4, #8
 5158              	.LVL329:
 5159              	.LBB1367:
 239:../../libdaisy/src/dev/oled_ssd130x.h ****     {
 5160              		.loc 6 239 10 is_stmt 1 view .LVU1354
 5161              	.LBE1367:
 5162              	.LBE1374:
 5163              	.LBE1381:
 189:../../libdaisy/src/hid/disp/display.h ****         int_fast16_t signY  = ((y1 < y2) ? 1 : -1);
 5164              		.loc 5 189 42 is_stmt 0 view .LVU1355
 5165 01c4 0793     		str	r3, [sp, #28]
 5166              	.LVL330:
 5167              	.L354:
 190:../../libdaisy/src/hid/disp/display.h ****         int_fast16_t error  = deltaX - deltaY;
 5168              		.loc 5 190 42 view .LVU1356
 5169 01c6 4FF0FF33 		mov	r3, #-1
 5170 01ca 0693     		str	r3, [sp, #24]
 5171              	.LVL331:
 5172              	.L351:
 5173              	.LBB1382:
 5174              	.LBB1375:
 5175              	.LBB1368:
 5176              	.LBB1363:
 244:../../libdaisy/src/dev/oled_ssd130x.h ****         else
 5177              		.loc 6 244 42 view .LVU1357
 5178 01cc 08F50073 		add	r3, r8, #512
 5179 01d0 2344     		add	r3, r3, r4
 5180 01d2 1A7D     		ldrb	r2, [r3, #20]	@ zero_extendqisi2
 5181 01d4 42F00102 		orr	r2, r2, #1
 5182 01d8 1A75     		strb	r2, [r3, #20]
 5183              	.LVL332:
 244:../../libdaisy/src/dev/oled_ssd130x.h ****         else
 5184              		.loc 6 244 42 view .LVU1358
 5185              	.LBE1363:
 5186              	.LBE1368:
 5187              	.LBE1375:
 5188              	.LBE1382:
 199:../../libdaisy/src/hid/disp/display.h ****         {
 5189              		.loc 5 199 26 is_stmt 1 view .LVU1359
 5190 01da 059B     		ldr	r3, [sp, #20]
 5191 01dc 202B     		cmp	r3, #32
 5192 01de 02D1     		bne	.L337
 199:../../libdaisy/src/hid/disp/display.h ****         {
 5193              		.loc 5 199 26 is_stmt 0 view .LVU1360
 5194 01e0 B8F10A0F 		cmp	r8, #10
 5195 01e4 2AD0     		beq	.L338
 5196              	.L337:
 5197              	.LVL333:
 203:../../libdaisy/src/hid/disp/display.h ****             {
 5198              		.loc 5 203 23 view .LVU1361
 5199 01e6 CAF10009 		rsb	r9, r10, #0
 5200              	.LBE1393:
 5201              	.LBE1398:
 5202              		.loc 2 508 20 view .LVU1362
 5203 01ea 059A     		ldr	r2, [sp, #20]
ARM GAS  C:\Users\VINCIU~1\AppData\Local\Temp\ccGpRbsb.s 			page 136


 5204              	.LBB1399:
 5205              	.LBB1394:
 203:../../libdaisy/src/hid/disp/display.h ****             {
 5206              		.loc 5 203 23 view .LVU1363
 5207 01ec 4FF00A0C 		mov	ip, #10
 5208              	.L341:
 5209              	.LVL334:
 5210              	.LBB1383:
 5211              	.LBI1383:
  41:../../libdaisy/src/hid/disp/oled_display.h ****     {
 5212              		.loc 1 41 10 is_stmt 1 view .LVU1364
 5213              	.LBB1384:
 5214              	.LBI1384:
 239:../../libdaisy/src/dev/oled_ssd130x.h ****     {
 5215              		.loc 6 239 10 view .LVU1365
 5216              	.LBB1385:
 244:../../libdaisy/src/dev/oled_ssd130x.h ****         else
 5217              		.loc 6 244 48 is_stmt 0 view .LVU1366
 5218 01f0 4FF0010B 		mov	fp, #1
 244:../../libdaisy/src/dev/oled_ssd130x.h ****         else
 5219              		.loc 6 244 28 view .LVU1367
 5220 01f4 D308     		lsrs	r3, r2, #3
 244:../../libdaisy/src/dev/oled_ssd130x.h ****         else
 5221              		.loc 6 244 54 view .LVU1368
 5222 01f6 02F00700 		and	r0, r2, #7
 241:../../libdaisy/src/dev/oled_ssd130x.h ****             return;
 5223              		.loc 6 241 9 view .LVU1369
 5224 01fa BCF17F0F 		cmp	ip, #127
 244:../../libdaisy/src/dev/oled_ssd130x.h ****         else
 5225              		.loc 6 244 42 view .LVU1370
 5226 01fe 0CEBC313 		add	r3, ip, r3, lsl #7
 5227              	.LBE1385:
 5228              	.LBE1384:
 5229              	.LBE1383:
 202:../../libdaisy/src/hid/disp/display.h ****             if(error2 > -deltaY)
 5230              		.loc 5 202 20 view .LVU1371
 5231 0202 01FA0BFE 		lsl	lr, r1, fp
 5232              	.LVL335:
 5233              	.LBB1388:
 5234              	.LBB1387:
 5235              	.LBB1386:
 244:../../libdaisy/src/dev/oled_ssd130x.h ****         else
 5236              		.loc 6 244 48 view .LVU1372
 5237 0206 0BFA00F0 		lsl	r0, fp, r0
 241:../../libdaisy/src/dev/oled_ssd130x.h ****             return;
 5238              		.loc 6 241 9 view .LVU1373
 5239 020a 07D8     		bhi	.L342
 5240 020c 3F2A     		cmp	r2, #63
 244:../../libdaisy/src/dev/oled_ssd130x.h ****         else
 5241              		.loc 6 244 42 view .LVU1374
 5242 020e 2344     		add	r3, r3, r4
 241:../../libdaisy/src/dev/oled_ssd130x.h ****             return;
 5243              		.loc 6 241 9 view .LVU1375
 5244 0210 04D8     		bhi	.L342
 244:../../libdaisy/src/dev/oled_ssd130x.h ****         else
 5245              		.loc 6 244 42 view .LVU1376
 5246 0212 93F814B0 		ldrb	fp, [r3, #20]	@ zero_extendqisi2
ARM GAS  C:\Users\VINCIU~1\AppData\Local\Temp\ccGpRbsb.s 			page 137


 5247 0216 40EA0B00 		orr	r0, r0, fp
 5248 021a 1875     		strb	r0, [r3, #20]
 5249              	.L342:
 244:../../libdaisy/src/dev/oled_ssd130x.h ****         else
 5250              		.loc 6 244 42 view .LVU1377
 5251              	.LBE1386:
 5252              	.LBE1387:
 5253              	.LBE1388:
 203:../../libdaisy/src/hid/disp/display.h ****             {
 5254              		.loc 5 203 13 view .LVU1378
 5255 021c B9EB410F 		cmp	r9, r1, lsl #1
 5256 0220 03DA     		bge	.L343
 206:../../libdaisy/src/hid/disp/display.h ****             }
 5257              		.loc 5 206 20 view .LVU1379
 5258 0222 079B     		ldr	r3, [sp, #28]
 205:../../libdaisy/src/hid/disp/display.h ****                 x1 += signX;
 5259              		.loc 5 205 23 view .LVU1380
 5260 0224 A1EB0A01 		sub	r1, r1, r10
 5261              	.LVL336:
 206:../../libdaisy/src/hid/disp/display.h ****             }
 5262              		.loc 5 206 20 view .LVU1381
 5263 0228 9C44     		add	ip, ip, r3
 5264              	.LVL337:
 5265              	.L343:
 209:../../libdaisy/src/hid/disp/display.h ****             {
 5266              		.loc 5 209 13 view .LVU1382
 5267 022a 7745     		cmp	r7, lr
 5268 022c 02DD     		ble	.L344
 212:../../libdaisy/src/hid/disp/display.h ****             }
 5269              		.loc 5 212 20 view .LVU1383
 5270 022e 069B     		ldr	r3, [sp, #24]
 211:../../libdaisy/src/hid/disp/display.h ****                 y1 += signY;
 5271              		.loc 5 211 23 view .LVU1384
 5272 0230 3944     		add	r1, r1, r7
 5273              	.LVL338:
 212:../../libdaisy/src/hid/disp/display.h ****             }
 5274              		.loc 5 212 20 view .LVU1385
 5275 0232 1A44     		add	r2, r2, r3
 5276              	.LVL339:
 5277              	.L344:
 199:../../libdaisy/src/hid/disp/display.h ****         {
 5278              		.loc 5 199 26 is_stmt 1 view .LVU1386
 5279 0234 E045     		cmp	r8, ip
 5280 0236 DBD1     		bne	.L341
 199:../../libdaisy/src/hid/disp/display.h ****         {
 5281              		.loc 5 199 26 is_stmt 0 view .LVU1387
 5282 0238 202A     		cmp	r2, #32
 5283 023a D9D1     		bne	.L341
 5284              	.LVL340:
 5285              	.L338:
 199:../../libdaisy/src/hid/disp/display.h ****         {
 5286              		.loc 5 199 26 view .LVU1388
 5287              	.LBE1394:
 5288              	.LBE1399:
 509:Menus.cpp     ****                     circleGlidePosition,
 510:Menus.cpp     ****                     circleGlideTimePosition,
 511:Menus.cpp     ****                     screen.Height() / 2,
ARM GAS  C:\Users\VINCIU~1\AppData\Local\Temp\ccGpRbsb.s 			page 138


 512:Menus.cpp     ****                     true);
 513:Menus.cpp     ****     screen.DrawCircle(margin, circleGlidePosition, 3, true);
 5289              		.loc 2 513 5 is_stmt 1 view .LVU1389
 5290              	.LBB1400:
 5291              	.LBI1400:
 100:../../libdaisy/src/hid/disp/display.h ****     {
 5292              		.loc 5 100 5 view .LVU1390
 5293              	.LBB1401:
 102:../../libdaisy/src/hid/disp/display.h ****     };
 5294              		.loc 5 102 9 view .LVU1391
 102:../../libdaisy/src/hid/disp/display.h ****     };
 5295              		.loc 5 102 41 is_stmt 0 view .LVU1392
 5296 023c 2368     		ldr	r3, [r4]
 102:../../libdaisy/src/hid/disp/display.h ****     };
 5297              		.loc 5 102 16 view .LVU1393
 5298 023e 0027     		movs	r7, #0
 5299 0240 4FF4B478 		mov	r8, #360
 5300 0244 4FF00109 		mov	r9, #1
 5301 0248 059A     		ldr	r2, [sp, #20]
 5302 024a 0A21     		movs	r1, #10
 5303 024c 2046     		mov	r0, r4
 5304 024e 8DE88003 		stm	sp, {r7, r8, r9}
 5305 0252 D3F820A0 		ldr	r10, [r3, #32]
 5306 0256 0323     		movs	r3, #3
 5307 0258 D047     		blx	r10
 5308              	.LVL341:
 102:../../libdaisy/src/hid/disp/display.h ****     };
 5309              		.loc 5 102 16 view .LVU1394
 5310              	.LBE1401:
 5311              	.LBE1400:
 514:Menus.cpp     ****     screen.DrawCircle(circleGlideTimePosition, screen.Height() / 2, 3, true);
 5312              		.loc 2 514 5 is_stmt 1 view .LVU1395
 5313              	.LBB1402:
 5314              	.LBI1402:
 100:../../libdaisy/src/hid/disp/display.h ****     {
 5315              		.loc 5 100 5 view .LVU1396
 5316              	.LBB1403:
 102:../../libdaisy/src/hid/disp/display.h ****     };
 5317              		.loc 5 102 9 view .LVU1397
 102:../../libdaisy/src/hid/disp/display.h ****     };
 5318              		.loc 5 102 16 is_stmt 0 view .LVU1398
 5319 025a CDF80890 		str	r9, [sp, #8]
 5320              	.LVL342:
 102:../../libdaisy/src/hid/disp/display.h ****     };
 5321              		.loc 5 102 16 view .LVU1399
 5322              	.LBE1403:
 5323              	.LBE1402:
 5324              		.loc 2 514 22 view .LVU1400
 5325 025e D6ED237A 		vldr.32	s15, [r6, #140]
 5326              	.LBB1405:
 5327              	.LBB1404:
 102:../../libdaisy/src/hid/disp/display.h ****     };
 5328              		.loc 5 102 16 view .LVU1401
 5329 0262 2022     		movs	r2, #32
 5330 0264 2046     		mov	r0, r4
 5331 0266 FCEEE77A 		vcvt.u32.f32	s15, s15
 5332 026a CDE90078 		strd	r7, r8, [sp]
ARM GAS  C:\Users\VINCIU~1\AppData\Local\Temp\ccGpRbsb.s 			page 139


 102:../../libdaisy/src/hid/disp/display.h ****     };
 5333              		.loc 5 102 41 view .LVU1402
 5334 026e 2368     		ldr	r3, [r4]
 102:../../libdaisy/src/hid/disp/display.h ****     };
 5335              		.loc 5 102 16 view .LVU1403
 5336 0270 17EE901A 		vmov	r1, s15	@ int
 5337 0274 D3F82080 		ldr	r8, [r3, #32]
 5338 0278 0323     		movs	r3, #3
 5339 027a C047     		blx	r8
 5340              	.LVL343:
 102:../../libdaisy/src/hid/disp/display.h ****     };
 5341              		.loc 5 102 16 view .LVU1404
 5342              	.LBE1404:
 5343              	.LBE1405:
 515:Menus.cpp     ****     for(int i = 0; i < screen.Width(); i++)
 5344              		.loc 2 515 5 is_stmt 1 view .LVU1405
 5345              	.LBB1406:
 5346              		.loc 2 515 22 view .LVU1406
 516:Menus.cpp     ****     {
 517:Menus.cpp     ****         screen.DrawPixel(i * 3, (screen.Height() / 2), on);
 5347              		.loc 2 517 25 is_stmt 0 view .LVU1407
 5348 027c 96F86811 		ldrb	r1, [r6, #360]	@ zero_extendqisi2
 5349 0280 3B46     		mov	r3, r7
 5350              	.LVL344:
 5351              	.L349:
 5352              		.loc 2 517 9 is_stmt 1 discriminator 2 view .LVU1408
 5353              	.LBB1407:
 5354              	.LBI1407:
  41:../../libdaisy/src/hid/disp/oled_display.h ****     {
 5355              		.loc 1 41 10 discriminator 2 view .LVU1409
 5356              	.LBB1408:
 5357              	.LBI1408:
 239:../../libdaisy/src/dev/oled_ssd130x.h ****     {
 5358              		.loc 6 239 10 discriminator 2 view .LVU1410
 5359              	.LBB1409:
 241:../../libdaisy/src/dev/oled_ssd130x.h ****             return;
 5360              		.loc 6 241 9 is_stmt 0 discriminator 2 view .LVU1411
 5361 0282 7F2B     		cmp	r3, #127
 5362 0284 0BD8     		bhi	.L345
 5363              	.LVL345:
 5364              	.L386:
 5365              	.LBB1410:
 5366              	.LBI1410:
 239:../../libdaisy/src/dev/oled_ssd130x.h ****     {
 5367              		.loc 6 239 10 is_stmt 1 view .LVU1412
 239:../../libdaisy/src/dev/oled_ssd130x.h ****     {
 5368              		.loc 6 239 10 is_stmt 0 view .LVU1413
 5369              	.LBE1410:
 244:../../libdaisy/src/dev/oled_ssd130x.h ****         else
 5370              		.loc 6 244 42 view .LVU1414
 5371 0286 94F81422 		ldrb	r2, [r4, #532]	@ zero_extendqisi2
 243:../../libdaisy/src/dev/oled_ssd130x.h ****             buffer_[x + (y / 8) * width] |= (1 << (y % 8));
 5372              		.loc 6 243 9 view .LVU1415
 5373 028a 0029     		cmp	r1, #0
 5374 028c 4FD0     		beq	.L346
 244:../../libdaisy/src/dev/oled_ssd130x.h ****         else
 5375              		.loc 6 244 42 view .LVU1416
ARM GAS  C:\Users\VINCIU~1\AppData\Local\Temp\ccGpRbsb.s 			page 140


 5376 028e 42F00102 		orr	r2, r2, #1
 5377 0292 84F81422 		strb	r2, [r4, #532]
 5378              	.L347:
 5379              	.LVL346:
 244:../../libdaisy/src/dev/oled_ssd130x.h ****         else
 5380              		.loc 6 244 42 view .LVU1417
 5381              	.LBE1409:
 5382              	.LBE1408:
 5383              	.LBE1407:
 515:Menus.cpp     ****     {
 5384              		.loc 2 515 5 is_stmt 1 view .LVU1418
 515:Menus.cpp     ****     {
 5385              		.loc 2 515 22 view .LVU1419
 5386 0296 0333     		adds	r3, r3, #3
 5387 0298 0334     		adds	r4, r4, #3
 5388              		.loc 2 517 9 view .LVU1420
 5389              	.LVL347:
 5390              	.LBB1417:
  41:../../libdaisy/src/hid/disp/oled_display.h ****     {
 5391              		.loc 1 41 10 view .LVU1421
 5392              	.LBB1415:
 239:../../libdaisy/src/dev/oled_ssd130x.h ****     {
 5393              		.loc 6 239 10 view .LVU1422
 5394              	.LBB1413:
 241:../../libdaisy/src/dev/oled_ssd130x.h ****             return;
 5395              		.loc 6 241 9 is_stmt 0 view .LVU1423
 5396 029a 7F2B     		cmp	r3, #127
 5397 029c F3D9     		bls	.L386
 5398              	.LVL348:
 5399              	.L345:
 241:../../libdaisy/src/dev/oled_ssd130x.h ****             return;
 5400              		.loc 6 241 9 view .LVU1424
 5401              	.LBE1413:
 5402              	.LBE1415:
 5403              	.LBE1417:
 515:Menus.cpp     ****     {
 5404              		.loc 2 515 5 is_stmt 1 view .LVU1425
 515:Menus.cpp     ****     {
 5405              		.loc 2 515 22 view .LVU1426
 5406 029e 0333     		adds	r3, r3, #3
 5407 02a0 0334     		adds	r4, r4, #3
 5408 02a2 B3F5C07F 		cmp	r3, #384
 5409 02a6 ECD1     		bne	.L349
 5410              	.LBE1406:
 5411              	.LBB1419:
 5412              	.LBB1420:
 5413              	.LBB1421:
 5414              	.LBB1422:
 5415              	.LBB1423:
 111:../../libdaisy/src/dev/oled_ssd130x.h ****         spi_.BlockingTransmit(&cmd, 1);
 5416              		.loc 6 111 24 is_stmt 0 view .LVU1427
 5417 02a8 05F10807 		add	r7, r5, #8
 5418 02ac 05F10C06 		add	r6, r5, #12
 5419              	.LVL349:
 111:../../libdaisy/src/dev/oled_ssd130x.h ****         spi_.BlockingTransmit(&cmd, 1);
 5420              		.loc 6 111 24 view .LVU1428
 5421 02b0 05F20C49 		addw	r9, r5, #1036
ARM GAS  C:\Users\VINCIU~1\AppData\Local\Temp\ccGpRbsb.s 			page 141


 5422 02b4 B024     		movs	r4, #176
 5423              	.L350:
 5424              	.LVL350:
 111:../../libdaisy/src/dev/oled_ssd130x.h ****         spi_.BlockingTransmit(&cmd, 1);
 5425              		.loc 6 111 24 view .LVU1429
 5426 02b6 4FF00008 		mov	r8, #0
 111:../../libdaisy/src/dev/oled_ssd130x.h ****         spi_.BlockingTransmit(&cmd, 1);
 5427              		.loc 6 111 23 view .LVU1430
 5428 02ba 3846     		mov	r0, r7
 5429 02bc 8DF82740 		strb	r4, [sp, #39]
 5430              	.LVL351:
 111:../../libdaisy/src/dev/oled_ssd130x.h ****         spi_.BlockingTransmit(&cmd, 1);
 5431              		.loc 6 111 23 view .LVU1431
 5432              	.LBE1423:
 5433              	.LBI1422:
 109:../../libdaisy/src/dev/oled_ssd130x.h ****     {
 5434              		.loc 6 109 10 is_stmt 1 view .LVU1432
 5435              	.LBB1424:
 111:../../libdaisy/src/dev/oled_ssd130x.h ****         spi_.BlockingTransmit(&cmd, 1);
 5436              		.loc 6 111 9 view .LVU1433
 5437              	.LBE1424:
 5438              	.LBE1422:
 5439              		.loc 6 270 22 is_stmt 0 view .LVU1434
 5440 02c0 0134     		adds	r4, r4, #1
 5441              	.LVL352:
 5442              	.LBB1427:
 5443              	.LBB1425:
 111:../../libdaisy/src/dev/oled_ssd130x.h ****         spi_.BlockingTransmit(&cmd, 1);
 5444              		.loc 6 111 23 view .LVU1435
 5445 02c2 4146     		mov	r1, r8
 5446 02c4 FFF7FEFF 		bl	dsy_gpio_write
 5447              	.LVL353:
 112:../../libdaisy/src/dev/oled_ssd130x.h ****     };
 5448              		.loc 6 112 9 is_stmt 1 view .LVU1436
 112:../../libdaisy/src/dev/oled_ssd130x.h ****     };
 5449              		.loc 6 112 30 is_stmt 0 view .LVU1437
 5450 02c8 6423     		movs	r3, #100
 5451 02ca 0122     		movs	r2, #1
 5452 02cc 0DF12701 		add	r1, sp, #39
 5453 02d0 2846     		mov	r0, r5
 5454              	.LBE1425:
 5455              	.LBE1427:
 5456              		.loc 6 270 22 view .LVU1438
 5457 02d2 E4B2     		uxtb	r4, r4
 5458              	.LBB1428:
 5459              	.LBB1426:
 112:../../libdaisy/src/dev/oled_ssd130x.h ****     };
 5460              		.loc 6 112 30 view .LVU1439
 5461 02d4 FFF7FEFF 		bl	_ZN5daisy9SpiHandle16BlockingTransmitEPhjm
 5462              	.LVL354:
 112:../../libdaisy/src/dev/oled_ssd130x.h ****     };
 5463              		.loc 6 112 30 view .LVU1440
 5464              	.LBE1426:
 5465              	.LBE1428:
 5466              	.LBB1429:
 5467              	.LBB1430:
 111:../../libdaisy/src/dev/oled_ssd130x.h ****         spi_.BlockingTransmit(&cmd, 1);
ARM GAS  C:\Users\VINCIU~1\AppData\Local\Temp\ccGpRbsb.s 			page 142


 5468              		.loc 6 111 23 view .LVU1441
 5469 02d8 4146     		mov	r1, r8
 5470 02da 3846     		mov	r0, r7
 5471 02dc 8DF82780 		strb	r8, [sp, #39]
 5472              	.LVL355:
 111:../../libdaisy/src/dev/oled_ssd130x.h ****         spi_.BlockingTransmit(&cmd, 1);
 5473              		.loc 6 111 23 view .LVU1442
 5474              	.LBE1430:
 5475              	.LBI1429:
 109:../../libdaisy/src/dev/oled_ssd130x.h ****     {
 5476              		.loc 6 109 10 is_stmt 1 view .LVU1443
 5477              	.LBB1431:
 111:../../libdaisy/src/dev/oled_ssd130x.h ****         spi_.BlockingTransmit(&cmd, 1);
 5478              		.loc 6 111 9 view .LVU1444
 111:../../libdaisy/src/dev/oled_ssd130x.h ****         spi_.BlockingTransmit(&cmd, 1);
 5479              		.loc 6 111 23 is_stmt 0 view .LVU1445
 5480 02e0 FFF7FEFF 		bl	dsy_gpio_write
 5481              	.LVL356:
 112:../../libdaisy/src/dev/oled_ssd130x.h ****     };
 5482              		.loc 6 112 9 is_stmt 1 view .LVU1446
 112:../../libdaisy/src/dev/oled_ssd130x.h ****     };
 5483              		.loc 6 112 30 is_stmt 0 view .LVU1447
 5484 02e4 0122     		movs	r2, #1
 5485 02e6 6423     		movs	r3, #100
 5486 02e8 0DF12701 		add	r1, sp, #39
 5487 02ec 2846     		mov	r0, r5
 5488 02ee FFF7FEFF 		bl	_ZN5daisy9SpiHandle16BlockingTransmitEPhjm
 5489              	.LVL357:
 112:../../libdaisy/src/dev/oled_ssd130x.h ****     };
 5490              		.loc 6 112 30 view .LVU1448
 5491 02f2 1023     		movs	r3, #16
 5492              	.LBE1431:
 5493              	.LBE1429:
 5494              	.LBB1432:
 5495              	.LBB1433:
 111:../../libdaisy/src/dev/oled_ssd130x.h ****         spi_.BlockingTransmit(&cmd, 1);
 5496              		.loc 6 111 23 view .LVU1449
 5497 02f4 4146     		mov	r1, r8
 5498 02f6 3846     		mov	r0, r7
 5499 02f8 8DF82730 		strb	r3, [sp, #39]
 5500              	.LVL358:
 111:../../libdaisy/src/dev/oled_ssd130x.h ****         spi_.BlockingTransmit(&cmd, 1);
 5501              		.loc 6 111 23 view .LVU1450
 5502              	.LBE1433:
 5503              	.LBI1432:
 109:../../libdaisy/src/dev/oled_ssd130x.h ****     {
 5504              		.loc 6 109 10 is_stmt 1 view .LVU1451
 5505              	.LBB1434:
 111:../../libdaisy/src/dev/oled_ssd130x.h ****         spi_.BlockingTransmit(&cmd, 1);
 5506              		.loc 6 111 9 view .LVU1452
 111:../../libdaisy/src/dev/oled_ssd130x.h ****         spi_.BlockingTransmit(&cmd, 1);
 5507              		.loc 6 111 23 is_stmt 0 view .LVU1453
 5508 02fc FFF7FEFF 		bl	dsy_gpio_write
 5509              	.LVL359:
 112:../../libdaisy/src/dev/oled_ssd130x.h ****     };
 5510              		.loc 6 112 9 is_stmt 1 view .LVU1454
 112:../../libdaisy/src/dev/oled_ssd130x.h ****     };
ARM GAS  C:\Users\VINCIU~1\AppData\Local\Temp\ccGpRbsb.s 			page 143


 5511              		.loc 6 112 30 is_stmt 0 view .LVU1455
 5512 0300 6423     		movs	r3, #100
 5513 0302 0122     		movs	r2, #1
 5514 0304 0DF12701 		add	r1, sp, #39
 5515 0308 2846     		mov	r0, r5
 5516 030a FFF7FEFF 		bl	_ZN5daisy9SpiHandle16BlockingTransmitEPhjm
 5517              	.LVL360:
 112:../../libdaisy/src/dev/oled_ssd130x.h ****     };
 5518              		.loc 6 112 30 view .LVU1456
 5519              	.LBE1434:
 5520              	.LBE1432:
 5521              	.LBB1435:
 5522              	.LBI1435:
 115:../../libdaisy/src/dev/oled_ssd130x.h ****     {
 5523              		.loc 6 115 10 is_stmt 1 view .LVU1457
 5524              	.LBB1436:
 117:../../libdaisy/src/dev/oled_ssd130x.h ****         spi_.BlockingTransmit(buff, size);
 5525              		.loc 6 117 9 view .LVU1458
 117:../../libdaisy/src/dev/oled_ssd130x.h ****         spi_.BlockingTransmit(buff, size);
 5526              		.loc 6 117 23 is_stmt 0 view .LVU1459
 5527 030e 0121     		movs	r1, #1
 5528 0310 3846     		mov	r0, r7
 5529 0312 FFF7FEFF 		bl	dsy_gpio_write
 5530              	.LVL361:
 118:../../libdaisy/src/dev/oled_ssd130x.h ****     };
 5531              		.loc 6 118 9 is_stmt 1 view .LVU1460
 118:../../libdaisy/src/dev/oled_ssd130x.h ****     };
 5532              		.loc 6 118 30 is_stmt 0 view .LVU1461
 5533 0316 8022     		movs	r2, #128
 5534 0318 3146     		mov	r1, r6
 5535 031a 6423     		movs	r3, #100
 5536              	.LBE1436:
 5537              	.LBE1435:
 5538              		.loc 6 270 22 view .LVU1462
 5539 031c 1644     		add	r6, r6, r2
 5540              	.LVL362:
 5541              	.LBB1438:
 5542              	.LBB1437:
 118:../../libdaisy/src/dev/oled_ssd130x.h ****     };
 5543              		.loc 6 118 30 view .LVU1463
 5544 031e 2846     		mov	r0, r5
 5545 0320 FFF7FEFF 		bl	_ZN5daisy9SpiHandle16BlockingTransmitEPhjm
 5546              	.LVL363:
 118:../../libdaisy/src/dev/oled_ssd130x.h ****     };
 5547              		.loc 6 118 30 view .LVU1464
 5548              	.LBE1437:
 5549              	.LBE1438:
 5550              		.loc 6 270 9 is_stmt 1 view .LVU1465
 5551              		.loc 6 270 22 view .LVU1466
 5552 0324 4E45     		cmp	r6, r9
 5553 0326 C6D1     		bne	.L350
 5554              	.LBE1421:
 5555              	.LBE1420:
 5556              	.LBE1419:
 518:Menus.cpp     ****     }
 519:Menus.cpp     **** 
 520:Menus.cpp     **** 
ARM GAS  C:\Users\VINCIU~1\AppData\Local\Temp\ccGpRbsb.s 			page 144


 521:Menus.cpp     ****     screen.Update();
 522:Menus.cpp     **** }...
 5557              		.loc 2 522 1 is_stmt 0 view .LVU1467
 5558 0328 0BB0     		add	sp, sp, #44
 5559              		.cfi_remember_state
 5560              		.cfi_def_cfa_offset 36
 5561              		@ sp needed
 5562 032a BDE8F08F 		pop	{r4, r5, r6, r7, r8, r9, r10, fp, pc}
 5563              	.LVL364:
 5564              	.L346:
 5565              		.cfi_restore_state
 5566              	.LBB1439:
 5567              	.LBB1418:
 5568              	.LBB1416:
 5569              	.LBB1414:
 5570              	.LBB1412:
 5571              	.LBB1411:
 246:../../libdaisy/src/dev/oled_ssd130x.h ****     }
 5572              		.loc 6 246 42 view .LVU1468
 5573 032e 22F00102 		bic	r2, r2, #1
 5574 0332 84F81422 		strb	r2, [r4, #532]
 5575 0336 AEE7     		b	.L347
 5576              	.LVL365:
 5577              	.L383:
 246:../../libdaisy/src/dev/oled_ssd130x.h ****     }
 5578              		.loc 6 246 42 view .LVU1469
 5579              	.LBE1411:
 5580              	.LBE1412:
 5581              	.LBE1414:
 5582              	.LBE1416:
 5583              	.LBE1418:
 5584              	.LBE1439:
 433:Menus.cpp     ****         this->menuStateGlide = this->menuStateGlide - 1;
 5585              		.loc 2 433 9 is_stmt 1 view .LVU1470
 434:Menus.cpp     ****         if(this->menuStateGlide < 0)
 5586              		.loc 2 434 9 view .LVU1471
 5587 0338 013B     		subs	r3, r3, #1
 5588 033a 21D4     		bmi	.L315
 433:Menus.cpp     ****         this->menuStateGlide = this->menuStateGlide - 1;
 5589              		.loc 2 433 30 is_stmt 0 view .LVU1472
 5590 033c 3367     		str	r3, [r6, #112]
 5591 033e 71E6     		b	.L316
 5592              	.LVL366:
 5593              	.L336:
 5594              	.LBB1440:
 5595              	.LBB1395:
 5596              	.LBB1389:
 5597              	.LBB1376:
 5598              	.LBB1369:
 239:../../libdaisy/src/dev/oled_ssd130x.h ****     {
 5599              		.loc 6 239 10 is_stmt 1 view .LVU1473
 5600              	.LBB1364:
 241:../../libdaisy/src/dev/oled_ssd130x.h ****             return;
 5601              		.loc 6 241 9 is_stmt 0 view .LVU1474
 5602 0340 B8F17F0F 		cmp	r8, #127
 5603              	.LBE1364:
 5604              	.LBE1369:
ARM GAS  C:\Users\VINCIU~1\AppData\Local\Temp\ccGpRbsb.s 			page 145


 5605              	.LBE1376:
 5606              	.LBE1389:
 190:../../libdaisy/src/hid/disp/display.h ****         int_fast16_t error  = deltaX - deltaY;
 5607              		.loc 5 190 42 view .LVU1475
 5608 0344 CDE90699 		strd	r9, r9, [sp, #24]
 5609              	.LBB1390:
 5610              	.LBB1377:
 5611              	.LBB1370:
 5612              	.LBB1365:
 241:../../libdaisy/src/dev/oled_ssd130x.h ****             return;
 5613              		.loc 6 241 9 view .LVU1476
 5614 0348 3FF64DAF 		bhi	.L337
 5615 034c 3EE7     		b	.L351
 5616              	.LVL367:
 5617              	.L353:
 241:../../libdaisy/src/dev/oled_ssd130x.h ****             return;
 5618              		.loc 6 241 9 view .LVU1477
 5619              	.LBE1365:
 5620              	.LBE1370:
 5621              	.LBE1377:
 5622              	.LBE1390:
 189:../../libdaisy/src/hid/disp/display.h ****         int_fast16_t signY  = ((y1 < y2) ? 1 : -1);
 5623              		.loc 5 189 42 view .LVU1478
 5624 034e 4FF0FF33 		mov	r3, #-1
 191:../../libdaisy/src/hid/disp/display.h ****         int_fast16_t error2;
 5625              		.loc 5 191 22 view .LVU1479
 5626 0352 A7EB0A01 		sub	r1, r7, r10
 5627              	.LVL368:
 5628              	.LBB1391:
  41:../../libdaisy/src/hid/disp/oled_display.h ****     {
 5629              		.loc 1 41 10 is_stmt 1 view .LVU1480
 5630              	.LBB1378:
 5631              		.loc 1 43 26 is_stmt 0 view .LVU1481
 5632 0356 04F10805 		add	r5, r4, #8
 5633              	.LVL369:
 5634              	.LBB1371:
 239:../../libdaisy/src/dev/oled_ssd130x.h ****     {
 5635              		.loc 6 239 10 is_stmt 1 view .LVU1482
 5636              	.LBE1371:
 5637              	.LBE1378:
 5638              	.LBE1391:
 190:../../libdaisy/src/hid/disp/display.h ****         int_fast16_t error  = deltaX - deltaY;
 5639              		.loc 5 190 42 is_stmt 0 view .LVU1483
 5640 035a CDF81890 		str	r9, [sp, #24]
 189:../../libdaisy/src/hid/disp/display.h ****         int_fast16_t signY  = ((y1 < y2) ? 1 : -1);
 5641              		.loc 5 189 42 view .LVU1484
 5642 035e 0793     		str	r3, [sp, #28]
 5643 0360 34E7     		b	.L351
 5644              	.L388:
 5645 0362 00BF     		.align	2
 5646              	.L387:
 5647 0364 06000400 		.word	262150
 5648 0368 00000000 		.word	Font_6x8
 5649 036c 49000400 		.word	262217
 5650 0370 00003C42 		.word	1111228416
 5651 0374 00000000 		.word	.LC5
 5652 0378 00000000 		.word	0
ARM GAS  C:\Users\VINCIU~1\AppData\Local\Temp\ccGpRbsb.s 			page 146


 5653 037c 0000C842 		.word	1120403456
 5654              	.LVL370:
 5655              	.L315:
 189:../../libdaisy/src/hid/disp/display.h ****         int_fast16_t signY  = ((y1 < y2) ? 1 : -1);
 5656              		.loc 5 189 42 view .LVU1485
 5657              	.LBE1395:
 5658              	.LBE1440:
 436:Menus.cpp     ****             this->menuStateGlide = 1;
 5659              		.loc 2 436 13 is_stmt 1 view .LVU1486
 439:Menus.cpp     ****     if(this->buttonRight.RisingEdge())
 5660              		.loc 2 439 5 is_stmt 0 view .LVU1487
 5661 0380 96F86130 		ldrb	r3, [r6, #97]	@ zero_extendqisi2
 436:Menus.cpp     ****             this->menuStateGlide = 1;
 5662              		.loc 2 436 34 view .LVU1488
 5663 0384 0122     		movs	r2, #1
 439:Menus.cpp     ****     if(this->buttonRight.RisingEdge())
 5664              		.loc 2 439 5 view .LVU1489
 5665 0386 7F2B     		cmp	r3, #127
 436:Menus.cpp     ****             this->menuStateGlide = 1;
 5666              		.loc 2 436 34 view .LVU1490
 5667 0388 3267     		str	r2, [r6, #112]
 439:Menus.cpp     ****     if(this->buttonRight.RisingEdge())
 5668              		.loc 2 439 5 is_stmt 1 view .LVU1491
 5669              	.LVL371:
 5670              	.LBB1441:
 5671              		.loc 4 69 17 view .LVU1492
 5672              	.LBB1283:
 5673              		.loc 4 69 38 view .LVU1493
 5674              		.loc 4 69 38 is_stmt 0 view .LVU1494
 5675              	.LBE1283:
 5676              	.LBE1441:
 439:Menus.cpp     ****     if(this->buttonRight.RisingEdge())
 5677              		.loc 2 439 5 view .LVU1495
 5678 038a 3FF4A2AE 		beq	.L320
 5679              	.L317:
 5680              	.LBB1442:
 473:Menus.cpp     ****          if(this->glideTime >= 100)
 5681              		.loc 2 473 10 is_stmt 1 view .LVU1496
 473:Menus.cpp     ****          if(this->glideTime >= 100)
 5682              		.loc 2 473 19 is_stmt 0 view .LVU1497
 5683 038e D6ED257A 		vldr.32	s15, [r6, #148]
 473:Menus.cpp     ****          if(this->glideTime >= 100)
 5684              		.loc 2 473 10 view .LVU1498
 5685 0392 1FED067A 		vldr.32	s14, .L387+24
 5686 0396 F4EEC77A 		vcmpe.f32	s15, s14
 5687 039a F1EE10FA 		vmrs	APSR_nzcv, FPSCR
 5688 039e 47DA     		bge	.L357
 477:Menus.cpp     ****         if(this->glideTime <= 0)
 5689              		.loc 2 477 9 is_stmt 1 view .LVU1499
 5690 03a0 F5EEC07A 		vcmpe.f32	s15, #0
 5691 03a4 F1EE10FA 		vmrs	APSR_nzcv, FPSCR
 5692 03a8 01D8     		bhi	.L329
 5693 03aa 5FED0D7A 		vldr.32	s15, .L387+20
 5694              	.L329:
 481:Menus.cpp     ****         if(circleGlidePosition >= 100)
 5695              		.loc 2 481 9 view .LVU1500
 481:Menus.cpp     ****         if(circleGlidePosition >= 100)
ARM GAS  C:\Users\VINCIU~1\AppData\Local\Temp\ccGpRbsb.s 			page 147


 5696              		.loc 2 481 12 is_stmt 0 view .LVU1501
 5697 03ae 96ED227A 		vldr.32	s14, [r6, #136]
 481:Menus.cpp     ****         if(circleGlidePosition >= 100)
 5698              		.loc 2 481 9 view .LVU1502
 5699 03b2 5FED0E6A 		vldr.32	s13, .L387+24
 5700 03b6 B4EEE67A 		vcmpe.f32	s14, s13
 5701 03ba F1EE10FA 		vmrs	APSR_nzcv, FPSCR
 5702 03be 3DDB     		blt	.L379
 483:Menus.cpp     ****             circleGlidePosition = 100;
 5703              		.loc 2 483 13 is_stmt 1 view .LVU1503
 483:Menus.cpp     ****             circleGlidePosition = 100;
 5704              		.loc 2 483 33 is_stmt 0 view .LVU1504
 5705 03c0 C6ED226A 		vstr.32	s13, [r6, #136]
 5706              	.LVL372:
 485:Menus.cpp     ****         if(circleGlidePosition <= 0)
 5707              		.loc 2 485 9 is_stmt 1 view .LVU1505
 5708              	.L332:
 489:Menus.cpp     ****             if(circleGlideTimePosition >= 100)
 5709              		.loc 2 489 13 view .LVU1506
 489:Menus.cpp     ****             if(circleGlideTimePosition >= 100)
 5710              		.loc 2 489 16 is_stmt 0 view .LVU1507
 5711 03c4 D6ED236A 		vldr.32	s13, [r6, #140]
 489:Menus.cpp     ****             if(circleGlideTimePosition >= 100)
 5712              		.loc 2 489 13 view .LVU1508
 5713 03c8 1FED147A 		vldr.32	s14, .L387+24
 5714 03cc F4EEC76A 		vcmpe.f32	s13, s14
 5715 03d0 F1EE10FA 		vmrs	APSR_nzcv, FPSCR
 5716 03d4 2FDA     		bge	.L359
 493:Menus.cpp     ****         if(circleGlideTimePosition <= 10)
 5717              		.loc 2 493 9 is_stmt 1 view .LVU1509
 5718 03d6 B2EE047A 		vmov.f32	s14, #1.0e+1
 5719 03da F4EE476A 		vcmp.f32	s13, s14
 5720 03de F1EE10FA 		vmrs	APSR_nzcv, FPSCR
 5721 03e2 98BF     		it	ls
 5722 03e4 F0EE476A 		vmovls.f32	s13, s14
 5723              	.L334:
 497:Menus.cpp     ****         circleGlideTimePosition += this->encoderRight.Increment();
 5724              		.loc 2 497 9 view .LVU1510
 5725              	.LVL373:
 5726              	.LBB1342:
 5727              	.LBI1342:
  41:../../libdaisy/src/hid/encoder.h ****     /** Returns true if the encoder was just pressed.
 5728              		.loc 3 41 20 view .LVU1511
 5729              	.LBB1343:
  41:../../libdaisy/src/hid/encoder.h ****     /** Returns true if the encoder was just pressed.
 5730              		.loc 3 41 40 view .LVU1512
  41:../../libdaisy/src/hid/encoder.h ****     /** Returns true if the encoder was just pressed.
 5731              		.loc 3 41 40 is_stmt 0 view .LVU1513
 5732              	.LBE1343:
 5733              	.LBE1342:
 497:Menus.cpp     ****         circleGlideTimePosition += this->encoderRight.Increment();
 5734              		.loc 2 497 33 view .LVU1514
 5735 03e8 96ED127A 		vldr.32	s14, [r6, #72]	@ int
 500:Menus.cpp     ****         sprintf(this->buffPitchTime, "Time_%d%%", (int)this->glideTime);
 5736              		.loc 2 500 23 view .LVU1515
 5737 03ec 06F58E77 		add	r7, r6, #284
 500:Menus.cpp     ****         sprintf(this->buffPitchTime, "Time_%d%%", (int)this->glideTime);
ARM GAS  C:\Users\VINCIU~1\AppData\Local\Temp\ccGpRbsb.s 			page 148


 5738              		.loc 2 500 16 view .LVU1516
 5739 03f0 2349     		ldr	r1, .L389+16
 5740              	.LBB1344:
 464:Menus.cpp     ****         sprintf(this->buffPitchGlide, "Init_%d%%", this->glideInit);
 5741              		.loc 2 464 23 view .LVU1517
 5742 03f2 06F58275 		add	r5, r6, #260
 5743              	.LBE1344:
 497:Menus.cpp     ****         circleGlideTimePosition += this->encoderRight.Increment();
 5744              		.loc 2 497 33 view .LVU1518
 5745 03f6 B8EEC77A 		vcvt.f32.s32	s14, s14
 500:Menus.cpp     ****         sprintf(this->buffPitchTime, "Time_%d%%", (int)this->glideTime);
 5746              		.loc 2 500 16 view .LVU1519
 5747 03fa 3846     		mov	r0, r7
 499:Menus.cpp     ****         this->glideTime += this->encoderRight.Increment();
 5748              		.loc 2 499 25 view .LVU1520
 5749 03fc 77EE277A 		vadd.f32	s15, s14, s15
 497:Menus.cpp     ****         circleGlideTimePosition += this->encoderRight.Increment();
 5750              		.loc 2 497 33 view .LVU1521
 5751 0400 37EE267A 		vadd.f32	s14, s14, s13
 500:Menus.cpp     ****         sprintf(this->buffPitchTime, "Time_%d%%", (int)this->glideTime);
 5752              		.loc 2 500 16 view .LVU1522
 5753 0404 FDEEE76A 		vcvt.s32.f32	s13, s15
 499:Menus.cpp     ****         this->glideTime += this->encoderRight.Increment();
 5754              		.loc 2 499 25 view .LVU1523
 5755 0408 C6ED257A 		vstr.32	s15, [r6, #148]
 497:Menus.cpp     ****         circleGlideTimePosition += this->encoderRight.Increment();
 5756              		.loc 2 497 33 view .LVU1524
 5757 040c 86ED237A 		vstr.32	s14, [r6, #140]
 498:Menus.cpp     ****         ;
 5758              		.loc 2 498 9 is_stmt 1 view .LVU1525
 499:Menus.cpp     ****         this->glideTime += this->encoderRight.Increment();
 5759              		.loc 2 499 9 view .LVU1526
 5760              	.LVL374:
 499:Menus.cpp     ****         this->glideTime += this->encoderRight.Increment();
 5761              		.loc 2 499 9 is_stmt 0 view .LVU1527
 5762              	.LBE1442:
  41:../../libdaisy/src/hid/encoder.h ****     /** Returns true if the encoder was just pressed.
 5763              		.loc 3 41 40 is_stmt 1 view .LVU1528
 5764              	.LBB1443:
 500:Menus.cpp     ****         sprintf(this->buffPitchTime, "Time_%d%%", (int)this->glideTime);
 5765              		.loc 2 500 9 view .LVU1529
 500:Menus.cpp     ****         sprintf(this->buffPitchTime, "Time_%d%%", (int)this->glideTime);
 5766              		.loc 2 500 16 is_stmt 0 view .LVU1530
 5767 0410 16EE902A 		vmov	r2, s13	@ int
 5768 0414 FFF7FEFF 		bl	sprintf
 5769              	.LVL375:
 501:Menus.cpp     ****         screen.DrawRect(67, 0, screen.Width() - 2, 13, true, false);
 5770              		.loc 2 501 9 is_stmt 1 view .LVU1531
 501:Menus.cpp     ****         screen.DrawRect(67, 0, screen.Width() - 2, 13, true, false);
 5771              		.loc 2 501 24 is_stmt 0 view .LVU1532
 5772 0418 0123     		movs	r3, #1
 5773 041a 0022     		movs	r2, #0
 5774 041c 4321     		movs	r1, #67
 5775 041e 2046     		mov	r0, r4
 5776 0420 CDE90132 		strd	r3, r2, [sp, #4]
 5777 0424 0D23     		movs	r3, #13
 5778 0426 0093     		str	r3, [sp]
ARM GAS  C:\Users\VINCIU~1\AppData\Local\Temp\ccGpRbsb.s 			page 149


 5779 0428 7E23     		movs	r3, #126
 5780 042a FFF7FEFF 		bl	_ZN5daisy25OneBitGraphicsDisplayImplINS_11OledDisplayINS_13SSD130xDriverILj128ELj64ENS_24SSD130
 5781              	.LVL376:
 5782 042e 06E6     		b	.L327
 5783              	.LVL377:
 5784              	.L357:
 501:Menus.cpp     ****         screen.DrawRect(67, 0, screen.Width() - 2, 13, true, false);
 5785              		.loc 2 501 24 view .LVU1533
 5786 0430 F0EE477A 		vmov.f32	s15, s14
 5787 0434 BBE7     		b	.L329
 5788              	.LVL378:
 5789              	.L359:
 501:Menus.cpp     ****         screen.DrawRect(67, 0, screen.Width() - 2, 13, true, false);
 5790              		.loc 2 501 24 view .LVU1534
 5791 0436 F0EE476A 		vmov.f32	s13, s14
 5792 043a D5E7     		b	.L334
 5793              	.LVL379:
 5794              	.L379:
 485:Menus.cpp     ****         if(circleGlidePosition <= 0)
 5795              		.loc 2 485 9 is_stmt 1 view .LVU1535
 5796 043c B5EEC07A 		vcmpe.f32	s14, #0
 5797 0440 0023     		movs	r3, #0
 5798 0442 F1EE10FA 		vmrs	APSR_nzcv, FPSCR
 487:Menus.cpp     ****             circleGlidePosition = 0;
 5799              		.loc 2 487 13 view .LVU1536
 487:Menus.cpp     ****             circleGlidePosition = 0;
 5800              		.loc 2 487 33 is_stmt 0 view .LVU1537
 5801 0446 98BF     		it	ls
 5802 0448 C6F88830 		strls	r3, [r6, #136]	@ float
 5803              	.LVL380:
 487:Menus.cpp     ****             circleGlidePosition = 0;
 5804              		.loc 2 487 33 view .LVU1538
 5805 044c BAE7     		b	.L332
 5806              	.LVL381:
 5807              	.L385:
 5808              	.LBB1345:
 460:Menus.cpp     ****         glideScale = screen.Height() - ((this->glideInit + 212) * 0.15);
 5809              		.loc 2 460 58 view .LVU1539
 5810 044e 03F1D402 		add	r2, r3, #212
 460:Menus.cpp     ****         glideScale = screen.Height() - ((this->glideInit + 212) * 0.15);
 5811              		.loc 2 460 65 view .LVU1540
 5812 0452 06EE902A 		vmov	s13, r2	@ int
 460:Menus.cpp     ****         glideScale = screen.Height() - ((this->glideInit + 212) * 0.15);
 5813              		.loc 2 460 38 view .LVU1541
 5814 0456 9FED065B 		vldr.64	d5, .L389
 5815 045a 9FED077B 		vldr.64	d7, .L389+8
 460:Menus.cpp     ****         glideScale = screen.Height() - ((this->glideInit + 212) * 0.15);
 5816              		.loc 2 460 65 view .LVU1542
 5817 045e B8EEE66B 		vcvt.f64.s32	d6, s13
 460:Menus.cpp     ****         glideScale = screen.Height() - ((this->glideInit + 212) * 0.15);
 5818              		.loc 2 460 38 view .LVU1543
 5819 0462 A6EE457B 		vfms.f64	d7, d6, d5
 460:Menus.cpp     ****         glideScale = screen.Height() - ((this->glideInit + 212) * 0.15);
 5820              		.loc 2 460 20 view .LVU1544
 5821 0466 FDEEC77B 		vcvt.s32.f64	s15, d7
 462:Menus.cpp     ****         circleGlidePosition = glideScale;
 5822              		.loc 2 462 29 view .LVU1545
ARM GAS  C:\Users\VINCIU~1\AppData\Local\Temp\ccGpRbsb.s 			page 150


 5823 046a F8EEE77A 		vcvt.f32.s32	s15, s15
 5824 046e 3EE6     		b	.L322
 5825              	.L390:
 5826              		.align	3
 5827              	.L389:
 5828 0470 33333333 		.word	858993459
 5829 0474 3333C33F 		.word	1069757235
 5830 0478 00000000 		.word	0
 5831 047c 00005040 		.word	1078984704
 5832 0480 0C000000 		.word	.LC6
 5833              	.LBE1345:
 5834              	.LBE1443:
 5835              		.cfi_endproc
 5836              	.LFE4040:
 5838              		.text
 5839              	.Letext0:
 5840              		.file 8 "c:\\users\\vin\355cius\\documents\\daisytoolchain-0.3.1\\windows\\arm-none-eabi\\include\
 5841              		.file 9 "c:\\users\\vin\355cius\\documents\\daisytoolchain-0.3.1\\windows\\arm-none-eabi\\include\
 5842              		.file 10 "c:\\users\\vin\355cius\\documents\\daisytoolchain-0.3.1\\windows\\arm-none-eabi\\include
 5843              		.file 11 "c:\\users\\vin\355cius\\documents\\daisytoolchain-0.3.1\\windows\\lib\\gcc\\arm-none-eab
 5844              		.file 12 "c:\\users\\vin\355cius\\documents\\daisytoolchain-0.3.1\\windows\\arm-none-eabi\\include
 5845              		.file 13 "c:\\users\\vin\355cius\\documents\\daisytoolchain-0.3.1\\windows\\arm-none-eabi\\include
 5846              		.file 14 "c:\\users\\vin\355cius\\documents\\daisytoolchain-0.3.1\\windows\\arm-none-eabi\\include
 5847              		.file 15 "c:\\users\\vin\355cius\\documents\\daisytoolchain-0.3.1\\windows\\arm-none-eabi\\include
 5848              		.file 16 "c:\\users\\vin\355cius\\documents\\daisytoolchain-0.3.1\\windows\\arm-none-eabi\\include
 5849              		.file 17 "c:\\users\\vin\355cius\\documents\\daisytoolchain-0.3.1\\windows\\arm-none-eabi\\include
 5850              		.file 18 "c:\\users\\vin\355cius\\documents\\daisytoolchain-0.3.1\\windows\\arm-none-eabi\\include
 5851              		.file 19 "c:\\users\\vin\355cius\\documents\\daisytoolchain-0.3.1\\windows\\arm-none-eabi\\include
 5852              		.file 20 "c:\\users\\vin\355cius\\documents\\daisytoolchain-0.3.1\\windows\\arm-none-eabi\\include
 5853              		.file 21 "c:\\users\\vin\355cius\\documents\\daisytoolchain-0.3.1\\windows\\arm-none-eabi\\include
 5854              		.file 22 "c:\\users\\vin\355cius\\documents\\daisytoolchain-0.3.1\\windows\\arm-none-eabi\\include
 5855              		.file 23 "c:\\users\\vin\355cius\\documents\\daisytoolchain-0.3.1\\windows\\arm-none-eabi\\include
 5856              		.file 24 "c:\\users\\vin\355cius\\documents\\daisytoolchain-0.3.1\\windows\\arm-none-eabi\\include
 5857              		.file 25 "c:\\users\\vin\355cius\\documents\\daisytoolchain-0.3.1\\windows\\arm-none-eabi\\include
 5858              		.file 26 "c:\\users\\vin\355cius\\documents\\daisytoolchain-0.3.1\\windows\\arm-none-eabi\\include
 5859              		.file 27 "c:\\users\\vin\355cius\\documents\\daisytoolchain-0.3.1\\windows\\arm-none-eabi\\include
 5860              		.file 28 "c:\\users\\vin\355cius\\documents\\daisytoolchain-0.3.1\\windows\\arm-none-eabi\\include
 5861              		.file 29 "c:\\users\\vin\355cius\\documents\\daisytoolchain-0.3.1\\windows\\arm-none-eabi\\include
 5862              		.file 30 "c:\\users\\vin\355cius\\documents\\daisytoolchain-0.3.1\\windows\\arm-none-eabi\\include
 5863              		.file 31 "c:\\users\\vin\355cius\\documents\\daisytoolchain-0.3.1\\windows\\arm-none-eabi\\include
 5864              		.file 32 "c:\\users\\vin\355cius\\documents\\daisytoolchain-0.3.1\\windows\\arm-none-eabi\\include
 5865              		.file 33 "c:\\users\\vin\355cius\\documents\\daisytoolchain-0.3.1\\windows\\arm-none-eabi\\include
 5866              		.file 34 "c:\\users\\vin\355cius\\documents\\daisytoolchain-0.3.1\\windows\\arm-none-eabi\\include
 5867              		.file 35 "c:\\users\\vin\355cius\\documents\\daisytoolchain-0.3.1\\windows\\arm-none-eabi\\include
 5868              		.file 36 "c:\\users\\vin\355cius\\documents\\daisytoolchain-0.3.1\\windows\\arm-none-eabi\\include
 5869              		.file 37 "../../libdaisy/src/daisy_core.h"
 5870              		.file 38 "../../libdaisy/src/per/tim.h"
 5871              		.file 39 "../../libdaisy/src/per/spi.h"
 5872              		.file 40 "../../libdaisy/src/util/wav_format.h"
 5873              		.file 41 "../../libdaisy/src/per/gpio.h"
 5874              		.file 42 "c:\\users\\vin\355cius\\documents\\daisytoolchain-0.3.1\\windows\\lib\\gcc\\arm-none-eab
 5875              		.file 43 "c:\\users\\vin\355cius\\documents\\daisytoolchain-0.3.1\\windows\\arm-none-eabi\\include
 5876              		.file 44 "../../libdaisy/src/util/oled_fonts.h"
 5877              		.file 45 "../../DaisySP/Source/Control/adenv.h"
 5878              		.file 46 "../../DaisySP/Source/Utility/dsp.h"
 5879              		.file 47 "c:\\users\\vin\355cius\\documents\\daisytoolchain-0.3.1\\windows\\arm-none-eabi\\include
 5880              		.file 48 "c:\\users\\vin\355cius\\documents\\daisytoolchain-0.3.1\\windows\\arm-none-eabi\\include
ARM GAS  C:\Users\VINCIU~1\AppData\Local\Temp\ccGpRbsb.s 			page 151


 5881              		.file 49 "c:\\users\\vin\355cius\\documents\\daisytoolchain-0.3.1\\windows\\arm-none-eabi\\include
 5882              		.file 50 "Menus.h"
 5883              		.file 51 "OledDisplayExtravaganza.h"
 5884              		.file 52 "../../libdaisy/src/dev/sr_595.h"
 5885              		.file 53 "<built-in>"
ARM GAS  C:\Users\VINCIU~1\AppData\Local\Temp\ccGpRbsb.s 			page 152


DEFINED SYMBOLS
                            *ABS*:00000000 Menus.cpp
C:\Users\VINCIU~1\AppData\Local\Temp\ccGpRbsb.s:17     .text._ZNK5daisy11OledDisplayINS_13SSD130xDriverILj128ELj64ENS_24SSD130x4WireSpiTransportEEEE5WidthEv:00000000 $t
C:\Users\VINCIU~1\AppData\Local\Temp\ccGpRbsb.s:26     .text._ZNK5daisy11OledDisplayINS_13SSD130xDriverILj128ELj64ENS_24SSD130x4WireSpiTransportEEEE5WidthEv:00000000 _ZNK5daisy11OledDisplayINS_13SSD130xDriverILj128ELj64ENS_24SSD130x4WireSpiTransportEEEE5WidthEv
C:\Users\VINCIU~1\AppData\Local\Temp\ccGpRbsb.s:44     .text._ZNK5daisy11OledDisplayINS_13SSD130xDriverILj128ELj64ENS_24SSD130x4WireSpiTransportEEEE6HeightEv:00000000 $t
C:\Users\VINCIU~1\AppData\Local\Temp\ccGpRbsb.s:52     .text._ZNK5daisy11OledDisplayINS_13SSD130xDriverILj128ELj64ENS_24SSD130x4WireSpiTransportEEEE6HeightEv:00000000 _ZNK5daisy11OledDisplayINS_13SSD130xDriverILj128ELj64ENS_24SSD130x4WireSpiTransportEEEE6HeightEv
C:\Users\VINCIU~1\AppData\Local\Temp\ccGpRbsb.s:69     .rodata._ZN5MenusC2Ev.str1.4:00000000 $d
C:\Users\VINCIU~1\AppData\Local\Temp\ccGpRbsb.s:73     .text._ZN5MenusC2Ev:00000000 $t
C:\Users\VINCIU~1\AppData\Local\Temp\ccGpRbsb.s:81     .text._ZN5MenusC2Ev:00000000 _ZN5MenusC2Ev
C:\Users\VINCIU~1\AppData\Local\Temp\ccGpRbsb.s:201    .text._ZN5MenusC2Ev:00000054 $d
C:\Users\VINCIU~1\AppData\Local\Temp\ccGpRbsb.s:81     .text._ZN5MenusC2Ev:00000000 _ZN5MenusC1Ev
C:\Users\VINCIU~1\AppData\Local\Temp\ccGpRbsb.s:209    .text._ZN5Menus10WaveSelectEf:00000000 $t
C:\Users\VINCIU~1\AppData\Local\Temp\ccGpRbsb.s:217    .text._ZN5Menus10WaveSelectEf:00000000 _ZN5Menus10WaveSelectEf
C:\Users\VINCIU~1\AppData\Local\Temp\ccGpRbsb.s:292    .text._ZN5Menus9OscSelectEf:00000000 $t
C:\Users\VINCIU~1\AppData\Local\Temp\ccGpRbsb.s:300    .text._ZN5Menus9OscSelectEf:00000000 _ZN5Menus9OscSelectEf
C:\Users\VINCIU~1\AppData\Local\Temp\ccGpRbsb.s:366    .text._ZN5daisy25OneBitGraphicsDisplayImplINS_11OledDisplayINS_13SSD130xDriverILj128ELj64ENS_24SSD130x4WireSpiTransportEEEEEE11WriteStringEPKc7FontDefb:00000000 $t
C:\Users\VINCIU~1\AppData\Local\Temp\ccGpRbsb.s:374    .text._ZN5daisy25OneBitGraphicsDisplayImplINS_11OledDisplayINS_13SSD130xDriverILj128ELj64ENS_24SSD130x4WireSpiTransportEEEEEE11WriteStringEPKc7FontDefb:00000000 _ZN5daisy25OneBitGraphicsDisplayImplINS_11OledDisplayINS_13SSD130xDriverILj128ELj64ENS_24SSD130x4WireSpiTransportEEEEEE11WriteStringEPKc7FontDefb
C:\Users\VINCIU~1\AppData\Local\Temp\ccGpRbsb.s:833    .text._ZN5daisy25OneBitGraphicsDisplayImplINS_11OledDisplayINS_13SSD130xDriverILj128ELj64ENS_24SSD130x4WireSpiTransportEEEEEE11WriteStringEPKc7FontDefb:000001b8 $d
C:\Users\VINCIU~1\AppData\Local\Temp\ccGpRbsb.s:843    .text._ZN5daisy25OneBitGraphicsDisplayImplINS_11OledDisplayINS_13SSD130xDriverILj128ELj64ENS_24SSD130x4WireSpiTransportEEEEEE8DrawRectEjjjjbb:00000000 $t
C:\Users\VINCIU~1\AppData\Local\Temp\ccGpRbsb.s:851    .text._ZN5daisy25OneBitGraphicsDisplayImplINS_11OledDisplayINS_13SSD130xDriverILj128ELj64ENS_24SSD130x4WireSpiTransportEEEEEE8DrawRectEjjjjbb:00000000 _ZN5daisy25OneBitGraphicsDisplayImplINS_11OledDisplayINS_13SSD130xDriverILj128ELj64ENS_24SSD130x4WireSpiTransportEEEEEE8DrawRectEjjjjbb
C:\Users\VINCIU~1\AppData\Local\Temp\ccGpRbsb.s:1961   .rodata._ZN5Menus5Menu1E23OledDisplayExtravaganzaPN7daisysp10OscillatorE.str1.4:00000000 $d
C:\Users\VINCIU~1\AppData\Local\Temp\ccGpRbsb.s:1974   .text._ZN5Menus5Menu1E23OledDisplayExtravaganzaPN7daisysp10OscillatorE:00000000 $t
C:\Users\VINCIU~1\AppData\Local\Temp\ccGpRbsb.s:1982   .text._ZN5Menus5Menu1E23OledDisplayExtravaganzaPN7daisysp10OscillatorE:00000000 _ZN5Menus5Menu1E23OledDisplayExtravaganzaPN7daisysp10OscillatorE
C:\Users\VINCIU~1\AppData\Local\Temp\ccGpRbsb.s:2793   .text._ZN5Menus5Menu1E23OledDisplayExtravaganzaPN7daisysp10OscillatorE:00000358 $d
C:\Users\VINCIU~1\AppData\Local\Temp\ccGpRbsb.s:2813   .text._ZN5Menus5Menu1E23OledDisplayExtravaganzaPN7daisysp10OscillatorE:00000398 $t
C:\Users\VINCIU~1\AppData\Local\Temp\ccGpRbsb.s:4039   .text._ZN5Menus5Menu1E23OledDisplayExtravaganzaPN7daisysp10OscillatorE:000006fc $d
C:\Users\VINCIU~1\AppData\Local\Temp\ccGpRbsb.s:4055   .text._ZN5Menus5Menu1E23OledDisplayExtravaganzaPN7daisysp10OscillatorE:00000714 $t
C:\Users\VINCIU~1\AppData\Local\Temp\ccGpRbsb.s:4497   .text._ZN5Menus5Menu1E23OledDisplayExtravaganzaPN7daisysp10OscillatorE:00000860 $d
C:\Users\VINCIU~1\AppData\Local\Temp\ccGpRbsb.s:4516   .rodata._ZN5Menus5Menu2E23OledDisplayExtravaganzaPN7daisysp10OscillatorE.str1.4:00000000 $d
C:\Users\VINCIU~1\AppData\Local\Temp\ccGpRbsb.s:4523   .text._ZN5Menus5Menu2E23OledDisplayExtravaganzaPN7daisysp10OscillatorE:00000000 $t
C:\Users\VINCIU~1\AppData\Local\Temp\ccGpRbsb.s:4531   .text._ZN5Menus5Menu2E23OledDisplayExtravaganzaPN7daisysp10OscillatorE:00000000 _ZN5Menus5Menu2E23OledDisplayExtravaganzaPN7daisysp10OscillatorE
C:\Users\VINCIU~1\AppData\Local\Temp\ccGpRbsb.s:5647   .text._ZN5Menus5Menu2E23OledDisplayExtravaganzaPN7daisysp10OscillatorE:00000364 $d
C:\Users\VINCIU~1\AppData\Local\Temp\ccGpRbsb.s:5661   .text._ZN5Menus5Menu2E23OledDisplayExtravaganzaPN7daisysp10OscillatorE:00000380 $t
C:\Users\VINCIU~1\AppData\Local\Temp\ccGpRbsb.s:5828   .text._ZN5Menus5Menu2E23OledDisplayExtravaganzaPN7daisysp10OscillatorE:00000470 $d

UNDEFINED SYMBOLS
sprintf
memset
_ZN23OledDisplayExtravaganza20drawHorizontalToggleEfffbbPKc
_ZN23OledDisplayExtravaganza10drawSliderEffffff
_ZN23OledDisplayExtravaganza18drawVerticalToggleEfffbbPKc
_ZN23OledDisplayExtravaganza9WaveIconsEiiiib
Font_7x10
Font_6x8
dsy_gpio_write
_ZN5daisy9SpiHandle16BlockingTransmitEPhjm
