ARM GAS  C:\Users\VINCIU~1\AppData\Local\Temp\cchCBePv.s 			page 1


   1              		.cpu cortex-m7
   2              		.eabi_attribute 28, 1
   3              		.eabi_attribute 20, 1
   4              		.eabi_attribute 21, 1
   5              		.eabi_attribute 23, 3
   6              		.eabi_attribute 24, 1
   7              		.eabi_attribute 25, 1
   8              		.eabi_attribute 26, 1
   9              		.eabi_attribute 30, 2
  10              		.eabi_attribute 34, 1
  11              		.eabi_attribute 18, 4
  12              		.file	"Menus.cpp"
  13              		.text
  14              	.Ltext0:
  15              		.cfi_sections	.debug_frame
  16              		.section	.text._ZNK5daisy11OledDisplayINS_13SSD130xDriverILj128ELj64ENS_24SSD130x4WireSpiTransport
  17              		.align	1
  18              		.p2align 2,,3
  19              		.weak	_ZNK5daisy11OledDisplayINS_13SSD130xDriverILj128ELj64ENS_24SSD130x4WireSpiTransportEEEE5Widt
  20              		.arch armv7e-m
  21              		.syntax unified
  22              		.thumb
  23              		.thumb_func
  24              		.fpu fpv5-d16
  26              	_ZNK5daisy11OledDisplayINS_13SSD130xDriverILj128ELj64ENS_24SSD130x4WireSpiTransportEEEE5WidthEv:
  27              	.LVL0:
  28              	.LFB4337:
  29              		.file 1 "../../libdaisy/src/hid/disp/oled_display.h"
   1:../../libdaisy/src/hid/disp/oled_display.h **** #pragma once
   2:../../libdaisy/src/hid/disp/oled_display.h **** #ifndef DSY_OLED_DISPLAY_H
   3:../../libdaisy/src/hid/disp/oled_display.h **** #define DSY_OLED_DISPLAY_H /**< Macro */
   4:../../libdaisy/src/hid/disp/oled_display.h **** 
   5:../../libdaisy/src/hid/disp/oled_display.h **** #include "display.h"
   6:../../libdaisy/src/hid/disp/oled_display.h **** 
   7:../../libdaisy/src/hid/disp/oled_display.h **** namespace daisy
   8:../../libdaisy/src/hid/disp/oled_display.h **** {
   9:../../libdaisy/src/hid/disp/oled_display.h **** /** 
  10:../../libdaisy/src/hid/disp/oled_display.h ****  * This class is for drawing to a monochrome OLED display. 
  11:../../libdaisy/src/hid/disp/oled_display.h **** */
  12:../../libdaisy/src/hid/disp/oled_display.h **** template <typename DisplayDriver>
  13:../../libdaisy/src/hid/disp/oled_display.h **** class OledDisplay : public OneBitGraphicsDisplayImpl<OledDisplay<DisplayDriver>>
  14:../../libdaisy/src/hid/disp/oled_display.h **** {
  15:../../libdaisy/src/hid/disp/oled_display.h ****   public:
  16:../../libdaisy/src/hid/disp/oled_display.h ****     OledDisplay() {}
  17:../../libdaisy/src/hid/disp/oled_display.h ****     virtual ~OledDisplay() {}
  18:../../libdaisy/src/hid/disp/oled_display.h **** 
  19:../../libdaisy/src/hid/disp/oled_display.h ****     struct Config
  20:../../libdaisy/src/hid/disp/oled_display.h ****     {
  21:../../libdaisy/src/hid/disp/oled_display.h ****         typename DisplayDriver::Config driver_config;
  22:../../libdaisy/src/hid/disp/oled_display.h ****     };
  23:../../libdaisy/src/hid/disp/oled_display.h **** 
  24:../../libdaisy/src/hid/disp/oled_display.h ****     void Init(Config config) { driver_.Init(config.driver_config); }
  25:../../libdaisy/src/hid/disp/oled_display.h **** 
  26:../../libdaisy/src/hid/disp/oled_display.h ****     uint16_t Height() const override { return driver_.Height(); }
  27:../../libdaisy/src/hid/disp/oled_display.h ****     uint16_t Width() const override { return driver_.Width(); }
  30              		.loc 1 27 14 view -0
  31              		.cfi_startproc
ARM GAS  C:\Users\VINCIU~1\AppData\Local\Temp\cchCBePv.s 			page 2


  32              		@ args = 0, pretend = 0, frame = 0
  33              		@ frame_needed = 0, uses_anonymous_args = 0
  34              		@ link register save eliminated.
  35              		.loc 1 27 63 is_stmt 0 view .LVU1
  36 0000 8020     		movs	r0, #128
  37              	.LVL1:
  38              		.loc 1 27 63 view .LVU2
  39 0002 7047     		bx	lr
  40              		.cfi_endproc
  41              	.LFE4337:
  43              		.section	.text._ZNK5daisy11OledDisplayINS_13SSD130xDriverILj128ELj64ENS_24SSD130x4WireSpiTransport
  44              		.align	1
  45              		.p2align 2,,3
  46              		.weak	_ZNK5daisy11OledDisplayINS_13SSD130xDriverILj128ELj64ENS_24SSD130x4WireSpiTransportEEEE6Heig
  47              		.syntax unified
  48              		.thumb
  49              		.thumb_func
  50              		.fpu fpv5-d16
  52              	_ZNK5daisy11OledDisplayINS_13SSD130xDriverILj128ELj64ENS_24SSD130x4WireSpiTransportEEEE6HeightEv:
  53              	.LVL2:
  54              	.LFB4338:
  26:../../libdaisy/src/hid/disp/oled_display.h ****     uint16_t Width() const override { return driver_.Width(); }
  55              		.loc 1 26 14 is_stmt 1 view -0
  56              		.cfi_startproc
  57              		@ args = 0, pretend = 0, frame = 0
  58              		@ frame_needed = 0, uses_anonymous_args = 0
  59              		@ link register save eliminated.
  26:../../libdaisy/src/hid/disp/oled_display.h ****     uint16_t Width() const override { return driver_.Width(); }
  60              		.loc 1 26 65 is_stmt 0 view .LVU4
  61 0000 4020     		movs	r0, #64
  62              	.LVL3:
  26:../../libdaisy/src/hid/disp/oled_display.h ****     uint16_t Width() const override { return driver_.Width(); }
  63              		.loc 1 26 65 view .LVU5
  64 0002 7047     		bx	lr
  65              		.cfi_endproc
  66              	.LFE4338:
  68              		.section	.rodata._ZN5MenusC2Ev.str1.4,"aMS",%progbits,1
  69              		.align	2
  70              	.LC0:
  71 0000 54696D65 		.ascii	"Time_50%%\000"
  71      5F353025 
  71      2500
  72              		.section	.text._ZN5MenusC2Ev,"ax",%progbits
  73              		.align	1
  74              		.p2align 2,,3
  75              		.global	_ZN5MenusC2Ev
  76              		.syntax unified
  77              		.thumb
  78              		.thumb_func
  79              		.fpu fpv5-d16
  81              	_ZN5MenusC2Ev:
  82              	.LVL4:
  83              	.LFB4035:
  84              		.file 2 "Menus.cpp"
   1:Menus.cpp     **** #include "Menus.h"
   2:Menus.cpp     **** 
   3:Menus.cpp     **** 
ARM GAS  C:\Users\VINCIU~1\AppData\Local\Temp\cchCBePv.s 			page 3


   4:Menus.cpp     **** Menus::Menus()
  85              		.loc 2 4 1 is_stmt 1 view -0
  86              		.cfi_startproc
  87              		@ args = 0, pretend = 0, frame = 0
  88              		@ frame_needed = 0, uses_anonymous_args = 0
  89              		.loc 2 4 1 is_stmt 0 view .LVU7
  90 0000 10B5     		push	{r4, lr}
  91              		.cfi_def_cfa_offset 8
  92              		.cfi_offset 4, -8
  93              		.cfi_offset 14, -4
  94              	.LBB162:
   5:Menus.cpp     **** {
   6:Menus.cpp     ****     this->on                      = true;
   7:Menus.cpp     ****     this->analogRead              = 0;
   8:Menus.cpp     ****     this->analogLastRead          = 0;
   9:Menus.cpp     ****     this->updateValue             = false;
  10:Menus.cpp     ****     this->menuState               = 0;
  11:Menus.cpp     ****     this->menuStateGlide          = 0;
  12:Menus.cpp     ****     this->OscSelector             = true;
  13:Menus.cpp     ****     this->synthOn                 = 1;
  14:Menus.cpp     ****     this->synthOn2                = 1;
  15:Menus.cpp     ****     this->freqFine2               = 1;
  95              		.loc 2 15 35 view .LVU8
  96 0002 4FF07E52 		mov	r2, #1065353216
  97              	.LBE162:
   4:Menus.cpp     ****     this->on                      = true;
  98              		.loc 2 4 1 view .LVU9
  99 0006 0446     		mov	r4, r0
 100              	.LVL5:
 101              	.LBB169:
 102              	.LBB163:
 103              	.LBI163:
 104              		.file 3 "../../libdaisy/src/hid/encoder.h"
   1:../../libdaisy/src/hid/encoder.h **** #pragma once
   2:../../libdaisy/src/hid/encoder.h **** #ifndef DSY_ENCODER_H
   3:../../libdaisy/src/hid/encoder.h **** #define DSY_ENCODER_H
   4:../../libdaisy/src/hid/encoder.h **** #include "daisy_core.h"
   5:../../libdaisy/src/hid/encoder.h **** #include "per/gpio.h"
   6:../../libdaisy/src/hid/encoder.h **** #include "hid/switch.h"
   7:../../libdaisy/src/hid/encoder.h **** 
   8:../../libdaisy/src/hid/encoder.h **** namespace daisy
   9:../../libdaisy/src/hid/encoder.h **** {
  10:../../libdaisy/src/hid/encoder.h **** /** 
  11:../../libdaisy/src/hid/encoder.h ****     @brief Generic Class for handling Quadrature Encoders \n 
  12:../../libdaisy/src/hid/encoder.h ****     Inspired/influenced by Mutable Instruments (pichenettes) Encoder classes
  13:../../libdaisy/src/hid/encoder.h ****     @author Stephen Hensley
  14:../../libdaisy/src/hid/encoder.h ****     @date December 2019
  15:../../libdaisy/src/hid/encoder.h ****     @ingroup controls
  16:../../libdaisy/src/hid/encoder.h **** */
  17:../../libdaisy/src/hid/encoder.h **** class Encoder
  18:../../libdaisy/src/hid/encoder.h **** {
  19:../../libdaisy/src/hid/encoder.h ****   public:
  20:../../libdaisy/src/hid/encoder.h ****     Encoder() {}
 105              		.loc 3 20 5 is_stmt 1 view .LVU10
 106              	.LBB164:
 107              	.LBI164:
 108              		.file 4 "../../libdaisy/src/hid/switch.h"
ARM GAS  C:\Users\VINCIU~1\AppData\Local\Temp\cchCBePv.s 			page 4


   1:../../libdaisy/src/hid/switch.h **** #pragma once
   2:../../libdaisy/src/hid/switch.h **** #ifndef DSY_SWITCH_H
   3:../../libdaisy/src/hid/switch.h **** #define DSY_SWITCH_H
   4:../../libdaisy/src/hid/switch.h **** #include "daisy_core.h"
   5:../../libdaisy/src/hid/switch.h **** #include "per/gpio.h"
   6:../../libdaisy/src/hid/switch.h **** 
   7:../../libdaisy/src/hid/switch.h **** namespace daisy
   8:../../libdaisy/src/hid/switch.h **** {
   9:../../libdaisy/src/hid/switch.h **** /** 
  10:../../libdaisy/src/hid/switch.h ****     Generic Class for handling momentary/latching switches \n 
  11:../../libdaisy/src/hid/switch.h ****     Inspired/influenced by Mutable Instruments (pichenettes) Switch classes
  12:../../libdaisy/src/hid/switch.h ****     @author Stephen Hensley
  13:../../libdaisy/src/hid/switch.h ****     @date December 2019
  14:../../libdaisy/src/hid/switch.h ****     @ingroup controls
  15:../../libdaisy/src/hid/switch.h **** */
  16:../../libdaisy/src/hid/switch.h **** class Switch
  17:../../libdaisy/src/hid/switch.h **** {
  18:../../libdaisy/src/hid/switch.h ****   public:
  19:../../libdaisy/src/hid/switch.h ****     /** Specifies the expected behavior of the switch */
  20:../../libdaisy/src/hid/switch.h ****     enum Type
  21:../../libdaisy/src/hid/switch.h ****     {
  22:../../libdaisy/src/hid/switch.h ****         TYPE_TOGGLE,    /**< & */
  23:../../libdaisy/src/hid/switch.h ****         TYPE_MOMENTARY, /**< & */
  24:../../libdaisy/src/hid/switch.h ****     };
  25:../../libdaisy/src/hid/switch.h ****     /** Specifies whether the pressed is HIGH or LOW. */
  26:../../libdaisy/src/hid/switch.h ****     enum Polarity
  27:../../libdaisy/src/hid/switch.h ****     {
  28:../../libdaisy/src/hid/switch.h ****         POLARITY_NORMAL,   /**< & */
  29:../../libdaisy/src/hid/switch.h ****         POLARITY_INVERTED, /**< & */
  30:../../libdaisy/src/hid/switch.h ****     };
  31:../../libdaisy/src/hid/switch.h **** 
  32:../../libdaisy/src/hid/switch.h ****     /** Specifies whether to use built-in Pull Up/Down resistors to hold button at a given state wh
  33:../../libdaisy/src/hid/switch.h ****     enum Pull
  34:../../libdaisy/src/hid/switch.h ****     {
  35:../../libdaisy/src/hid/switch.h ****         PULL_UP,   /**< & */
  36:../../libdaisy/src/hid/switch.h ****         PULL_DOWN, /**< & */
  37:../../libdaisy/src/hid/switch.h ****         PULL_NONE, /**< & */
  38:../../libdaisy/src/hid/switch.h ****     };
  39:../../libdaisy/src/hid/switch.h **** 
  40:../../libdaisy/src/hid/switch.h ****     Switch() {}
 109              		.loc 4 40 5 view .LVU11
 110              		.loc 4 40 5 is_stmt 0 view .LVU12
 111              	.LBE164:
 112              	.LBE163:
 113              	.LBB165:
 114              	.LBI165:
 115              		.loc 3 20 5 is_stmt 1 view .LVU13
 116              	.LBB166:
 117              	.LBI166:
 118              		.loc 4 40 5 view .LVU14
 119              		.loc 4 40 5 is_stmt 0 view .LVU15
 120              	.LBE166:
 121              	.LBE165:
 122              	.LBB167:
 123              	.LBI167:
 124              		.loc 4 40 5 is_stmt 1 view .LVU16
 125              		.loc 4 40 5 is_stmt 0 view .LVU17
ARM GAS  C:\Users\VINCIU~1\AppData\Local\Temp\cchCBePv.s 			page 5


 126              	.LBE167:
 127              	.LBB168:
 128              	.LBI168:
 129              		.loc 4 40 5 is_stmt 1 view .LVU18
 130              		.loc 4 40 5 is_stmt 0 view .LVU19
 131              	.LBE168:
   6:Menus.cpp     ****     this->analogRead              = 0;
 132              		.loc 2 6 5 is_stmt 1 view .LVU20
   6:Menus.cpp     ****     this->analogRead              = 0;
 133              		.loc 2 6 35 is_stmt 0 view .LVU21
 134 0008 0123     		movs	r3, #1
   9:Menus.cpp     ****     this->menuState               = 0;
 135              		.loc 2 9 35 view .LVU22
 136 000a 0021     		movs	r1, #0
   7:Menus.cpp     ****     this->analogLastRead          = 0;
 137              		.loc 2 7 35 view .LVU23
 138 000c 0020     		movs	r0, #0
 139              	.LVL6:
  16:Menus.cpp     ****     this->freqFine                = 1;
  17:Menus.cpp     ****     this->analogRead              = 0;
  18:Menus.cpp     ****     this->glideTime               = 1;
  19:Menus.cpp     ****     this->circleGlideTimePosition = 64;
 140              		.loc 2 19 35 view .LVU24
 141 000e 4FF0854C 		mov	ip, #1115684864
   9:Menus.cpp     ****     this->menuState               = 0;
 142              		.loc 2 9 35 view .LVU25
 143 0012 2172     		strb	r1, [r4, #8]
   7:Menus.cpp     ****     this->analogLastRead          = 0;
 144              		.loc 2 7 35 view .LVU26
 145 0014 2060     		str	r0, [r4]	@ float
   8:Menus.cpp     ****     this->updateValue             = false;
 146              		.loc 2 8 35 view .LVU27
 147 0016 6060     		str	r0, [r4, #4]	@ float
  20:Menus.cpp     ****     sprintf(this->buffPitchTime,"Time_50%%");
 148              		.loc 2 20 12 view .LVU28
 149 0018 04F58E70 		add	r0, r4, #284
   6:Menus.cpp     ****     this->analogRead              = 0;
 150              		.loc 2 6 35 view .LVU29
 151 001c 84F84C31 		strb	r3, [r4, #332]
   7:Menus.cpp     ****     this->analogLastRead          = 0;
 152              		.loc 2 7 5 is_stmt 1 view .LVU30
   8:Menus.cpp     ****     this->updateValue             = false;
 153              		.loc 2 8 5 view .LVU31
   9:Menus.cpp     ****     this->menuState               = 0;
 154              		.loc 2 9 5 view .LVU32
  10:Menus.cpp     ****     this->menuStateGlide          = 0;
 155              		.loc 2 10 5 view .LVU33
  12:Menus.cpp     ****     this->synthOn                 = 1;
 156              		.loc 2 12 35 is_stmt 0 view .LVU34
 157 0020 84F87430 		strb	r3, [r4, #116]
  15:Menus.cpp     ****     this->freqFine                = 1;
 158              		.loc 2 15 35 view .LVU35
 159 0024 C4F84821 		str	r2, [r4, #328]	@ float
  16:Menus.cpp     ****     this->analogRead              = 0;
 160              		.loc 2 16 35 view .LVU36
 161 0028 C4F84421 		str	r2, [r4, #324]	@ float
  18:Menus.cpp     ****     this->circleGlideTimePosition = 64;
ARM GAS  C:\Users\VINCIU~1\AppData\Local\Temp\cchCBePv.s 			page 6


 162              		.loc 2 18 35 view .LVU37
 163 002c C4F89420 		str	r2, [r4, #148]	@ float
  19:Menus.cpp     ****     sprintf(this->buffPitchTime,"Time_50%%");
 164              		.loc 2 19 35 view .LVU38
 165 0030 C4F88CC0 		str	ip, [r4, #140]	@ float
  11:Menus.cpp     ****     this->OscSelector             = true;
 166              		.loc 2 11 35 view .LVU39
 167 0034 C4E91B11 		strd	r1, r1, [r4, #108]
  12:Menus.cpp     ****     this->synthOn                 = 1;
 168              		.loc 2 12 5 is_stmt 1 view .LVU40
  13:Menus.cpp     ****     this->synthOn2                = 1;
 169              		.loc 2 13 5 view .LVU41
  14:Menus.cpp     ****     this->freqFine2               = 1;
 170              		.loc 2 14 35 is_stmt 0 view .LVU42
 171 0038 C4E94F33 		strd	r3, r3, [r4, #316]
  15:Menus.cpp     ****     this->freqFine                = 1;
 172              		.loc 2 15 5 is_stmt 1 view .LVU43
  16:Menus.cpp     ****     this->analogRead              = 0;
 173              		.loc 2 16 5 view .LVU44
  17:Menus.cpp     ****     this->glideTime               = 1;
 174              		.loc 2 17 5 view .LVU45
  18:Menus.cpp     ****     this->circleGlideTimePosition = 64;
 175              		.loc 2 18 5 view .LVU46
  19:Menus.cpp     ****     sprintf(this->buffPitchTime,"Time_50%%");
 176              		.loc 2 19 5 view .LVU47
 177              		.loc 2 20 5 view .LVU48
 178              		.loc 2 20 12 is_stmt 0 view .LVU49
 179 003c 0249     		ldr	r1, .L6
 180 003e FFF7FEFF 		bl	sprintf
 181              	.LVL7:
 182              	.LBE169:
  21:Menus.cpp     ****     
  22:Menus.cpp     **** }
 183              		.loc 2 22 1 view .LVU50
 184 0042 2046     		mov	r0, r4
 185 0044 10BD     		pop	{r4, pc}
 186              	.LVL8:
 187              	.L7:
 188              		.loc 2 22 1 view .LVU51
 189 0046 00BF     		.align	2
 190              	.L6:
 191 0048 00000000 		.word	.LC0
 192              		.cfi_endproc
 193              	.LFE4035:
 195              		.global	_ZN5MenusC1Ev
 196              		.thumb_set _ZN5MenusC1Ev,_ZN5MenusC2Ev
 197              		.section	.text._ZN5Menus10WaveSelectEf,"ax",%progbits
 198              		.align	1
 199              		.p2align 2,,3
 200              		.global	_ZN5Menus10WaveSelectEf
 201              		.syntax unified
 202              		.thumb
 203              		.thumb_func
 204              		.fpu fpv5-d16
 206              	_ZN5Menus10WaveSelectEf:
 207              	.LVL9:
 208              	.LFB4037:
ARM GAS  C:\Users\VINCIU~1\AppData\Local\Temp\cchCBePv.s 			page 7


  23:Menus.cpp     **** 
  24:Menus.cpp     **** int Menus::WaveSelect(float select)
  25:Menus.cpp     **** {
 209              		.loc 2 25 1 is_stmt 1 view -0
 210              		.cfi_startproc
 211              		@ args = 0, pretend = 0, frame = 0
 212              		@ frame_needed = 0, uses_anonymous_args = 0
 213              		@ link register save eliminated.
  26:Menus.cpp     ****     int state;
 214              		.loc 2 26 5 view .LVU53
  27:Menus.cpp     ****     if(select >= 0 && select < 0.25)
 215              		.loc 2 27 5 view .LVU54
 216 0000 B5EEC00A 		vcmpe.f32	s0, #0
 217 0004 F1EE10FA 		vmrs	APSR_nzcv, FPSCR
 218 0008 0DDB     		blt	.L9
 219              		.loc 2 27 20 is_stmt 0 discriminator 1 view .LVU55
 220 000a F5EE007A 		vmov.f32	s15, #2.5e-1
 221 000e B4EEE70A 		vcmpe.f32	s0, s15
 222 0012 F1EE10FA 		vmrs	APSR_nzcv, FPSCR
 223 0016 17D4     		bmi	.L13
  28:Menus.cpp     ****     {
  29:Menus.cpp     ****         state = 0;
  30:Menus.cpp     ****         return state;
  31:Menus.cpp     ****     }
  32:Menus.cpp     ****     else if(select >= 0 && select < 0.5)
 224              		.loc 2 32 25 discriminator 1 view .LVU56
 225 0018 F6EE007A 		vmov.f32	s15, #5.0e-1
 226 001c B4EEE70A 		vcmpe.f32	s0, s15
 227 0020 F1EE10FA 		vmrs	APSR_nzcv, FPSCR
 228 0024 12D4     		bmi	.L14
 229              	.L9:
  33:Menus.cpp     ****     {
  34:Menus.cpp     ****         state = 1;
  35:Menus.cpp     ****         return state;
  36:Menus.cpp     ****     }
  37:Menus.cpp     ****     else if(select >= 0.5 && select < 0.75)
 230              		.loc 2 37 10 is_stmt 1 view .LVU57
 231 0026 F6EE007A 		vmov.f32	s15, #5.0e-1
 232 002a B4EEE70A 		vcmpe.f32	s0, s15
 233 002e F1EE10FA 		vmrs	APSR_nzcv, FPSCR
 234 0032 0DDB     		blt	.L19
 235              		.loc 2 37 27 is_stmt 0 discriminator 1 view .LVU58
 236 0034 F6EE087A 		vmov.f32	s15, #7.5e-1
 237 0038 B4EEE70A 		vcmpe.f32	s0, s15
 238 003c F1EE10FA 		vmrs	APSR_nzcv, FPSCR
 239 0040 4CBF     		ite	mi
 240 0042 0220     		movmi	r0, #2
 241              	.LVL10:
 242              		.loc 2 37 27 discriminator 1 view .LVU59
 243 0044 0320     		movpl	r0, #3
 244 0046 7047     		bx	lr
 245              	.LVL11:
 246              	.L13:
  30:Menus.cpp     ****     }
 247              		.loc 2 30 16 view .LVU60
 248 0048 0020     		movs	r0, #0
 249              	.LVL12:
ARM GAS  C:\Users\VINCIU~1\AppData\Local\Temp\cchCBePv.s 			page 8


  30:Menus.cpp     ****     }
 250              		.loc 2 30 16 view .LVU61
 251 004a 7047     		bx	lr
 252              	.LVL13:
 253              	.L14:
  35:Menus.cpp     ****     }
 254              		.loc 2 35 16 view .LVU62
 255 004c 0120     		movs	r0, #1
 256              	.LVL14:
  35:Menus.cpp     ****     }
 257              		.loc 2 35 16 view .LVU63
 258 004e 7047     		bx	lr
 259              	.LVL15:
 260              	.L19:
  35:Menus.cpp     ****     }
 261              		.loc 2 35 16 view .LVU64
 262 0050 0320     		movs	r0, #3
 263              	.LVL16:
  38:Menus.cpp     ****     {
  39:Menus.cpp     ****         state = 2;
  40:Menus.cpp     ****         return state;
  41:Menus.cpp     ****     }
  42:Menus.cpp     ****     else if(select >= 0.75 && select < 1)
  43:Menus.cpp     ****     {
  44:Menus.cpp     ****         state = 3;
  45:Menus.cpp     ****         return state;
  46:Menus.cpp     ****     }
  47:Menus.cpp     **** }
 264              		.loc 2 47 1 view .LVU65
 265 0052 7047     		bx	lr
 266              		.cfi_endproc
 267              	.LFE4037:
 269              		.section	.text._ZN5Menus9OscSelectEf,"ax",%progbits
 270              		.align	1
 271              		.p2align 2,,3
 272              		.global	_ZN5Menus9OscSelectEf
 273              		.syntax unified
 274              		.thumb
 275              		.thumb_func
 276              		.fpu fpv5-d16
 278              	_ZN5Menus9OscSelectEf:
 279              	.LVL17:
 280              	.LFB4038:
  48:Menus.cpp     **** 
  49:Menus.cpp     **** bool Menus::OscSelect(float select)
  50:Menus.cpp     **** {
 281              		.loc 2 50 1 is_stmt 1 view -0
 282              		.cfi_startproc
 283              		@ args = 0, pretend = 0, frame = 0
 284              		@ frame_needed = 0, uses_anonymous_args = 0
 285              		@ link register save eliminated.
  51:Menus.cpp     ****     bool state;
 286              		.loc 2 51 5 view .LVU67
  52:Menus.cpp     ****     if(select >= 0.5)
 287              		.loc 2 52 5 view .LVU68
 288 0000 F6EE007A 		vmov.f32	s15, #5.0e-1
 289 0004 B4EEE70A 		vcmpe.f32	s0, s15
ARM GAS  C:\Users\VINCIU~1\AppData\Local\Temp\cchCBePv.s 			page 9


 290 0008 F1EE10FA 		vmrs	APSR_nzcv, FPSCR
  53:Menus.cpp     ****     {
  54:Menus.cpp     ****         state = true;
  55:Menus.cpp     ****         return state;
  56:Menus.cpp     ****     }
  57:Menus.cpp     ****     else
  58:Menus.cpp     ****     {
  59:Menus.cpp     ****         state = false;
  60:Menus.cpp     ****         return state;
  61:Menus.cpp     ****     }
  62:Menus.cpp     **** }
 291              		.loc 2 62 1 is_stmt 0 view .LVU69
 292 000c ACBF     		ite	ge
 293 000e 0120     		movge	r0, #1
 294              	.LVL18:
 295              		.loc 2 62 1 view .LVU70
 296 0010 0020     		movlt	r0, #0
 297 0012 7047     		bx	lr
 298              		.cfi_endproc
 299              	.LFE4038:
 301              		.section	.text._ZN5daisy25OneBitGraphicsDisplayImplINS_11OledDisplayINS_13SSD130xDriverILj128ELj64
 302              		.align	1
 303              		.p2align 2,,3
 304              		.weak	_ZN5daisy25OneBitGraphicsDisplayImplINS_11OledDisplayINS_13SSD130xDriverILj128ELj64ENS_24SSD
 305              		.syntax unified
 306              		.thumb
 307              		.thumb_func
 308              		.fpu fpv5-d16
 310              	_ZN5daisy25OneBitGraphicsDisplayImplINS_11OledDisplayINS_13SSD130xDriverILj128ELj64ENS_24SSD130x4Wi
 311              	.LVL19:
 312              	.LFB4336:
 313              		.file 5 "../../libdaisy/src/hid/disp/display.h"
   1:../../libdaisy/src/hid/disp/display.h **** #pragma once
   2:../../libdaisy/src/hid/disp/display.h **** #ifndef DSY_DISPLAY_H
   3:../../libdaisy/src/hid/disp/display.h **** #define DSY_DISPLAY_H /**< Macro */
   4:../../libdaisy/src/hid/disp/display.h **** #include <cmath>
   5:../../libdaisy/src/hid/disp/display.h **** #include "util/oled_fonts.h"
   6:../../libdaisy/src/hid/disp/display.h **** #include "daisy_core.h"
   7:../../libdaisy/src/hid/disp/display.h **** 
   8:../../libdaisy/src/hid/disp/display.h **** #ifndef deg2rad
   9:../../libdaisy/src/hid/disp/display.h **** #define deg2rad(deg) ((deg)*3.141592 / 180.0)
  10:../../libdaisy/src/hid/disp/display.h **** #endif
  11:../../libdaisy/src/hid/disp/display.h **** 
  12:../../libdaisy/src/hid/disp/display.h **** namespace daisy
  13:../../libdaisy/src/hid/disp/display.h **** {
  14:../../libdaisy/src/hid/disp/display.h **** /** 
  15:../../libdaisy/src/hid/disp/display.h ****  * This interface is used as a base class for all types of 1bit-per-pixel
  16:../../libdaisy/src/hid/disp/display.h ****  * graphics displays.
  17:../../libdaisy/src/hid/disp/display.h **** */
  18:../../libdaisy/src/hid/disp/display.h **** class OneBitGraphicsDisplay
  19:../../libdaisy/src/hid/disp/display.h **** {
  20:../../libdaisy/src/hid/disp/display.h ****   public:
  21:../../libdaisy/src/hid/disp/display.h ****     OneBitGraphicsDisplay() {}
  22:../../libdaisy/src/hid/disp/display.h ****     virtual ~OneBitGraphicsDisplay() {}
  23:../../libdaisy/src/hid/disp/display.h **** 
  24:../../libdaisy/src/hid/disp/display.h ****     virtual uint16_t Height() const = 0;
  25:../../libdaisy/src/hid/disp/display.h ****     virtual uint16_t Width() const  = 0;
ARM GAS  C:\Users\VINCIU~1\AppData\Local\Temp\cchCBePv.s 			page 10


  26:../../libdaisy/src/hid/disp/display.h **** 
  27:../../libdaisy/src/hid/disp/display.h ****     size_t CurrentX() { return currentX_; };
  28:../../libdaisy/src/hid/disp/display.h ****     size_t CurrentY() { return currentY_; };
  29:../../libdaisy/src/hid/disp/display.h **** 
  30:../../libdaisy/src/hid/disp/display.h ****     /** 
  31:../../libdaisy/src/hid/disp/display.h ****     Fills the entire display with either on/off.
  32:../../libdaisy/src/hid/disp/display.h ****     \param on Sets on or off.
  33:../../libdaisy/src/hid/disp/display.h ****     */
  34:../../libdaisy/src/hid/disp/display.h ****     virtual void Fill(bool on) = 0;
  35:../../libdaisy/src/hid/disp/display.h **** 
  36:../../libdaisy/src/hid/disp/display.h ****     /**
  37:../../libdaisy/src/hid/disp/display.h ****     Sets the pixel at the specified coordinate to be on/off.
  38:../../libdaisy/src/hid/disp/display.h ****     \param x   x Coordinate
  39:../../libdaisy/src/hid/disp/display.h ****     \param y   y coordinate
  40:../../libdaisy/src/hid/disp/display.h ****     \param on  on or off
  41:../../libdaisy/src/hid/disp/display.h ****     */
  42:../../libdaisy/src/hid/disp/display.h ****     virtual void DrawPixel(uint_fast8_t x, uint_fast8_t y, bool on) = 0;
  43:../../libdaisy/src/hid/disp/display.h **** 
  44:../../libdaisy/src/hid/disp/display.h ****     /**
  45:../../libdaisy/src/hid/disp/display.h ****     Draws a line from (x1, y1) to (y1, y2)
  46:../../libdaisy/src/hid/disp/display.h ****     \param x1  x Coordinate of the starting point
  47:../../libdaisy/src/hid/disp/display.h ****     \param y1  y Coordinate of the starting point
  48:../../libdaisy/src/hid/disp/display.h ****     \param x2  x Coordinate of the ending point
  49:../../libdaisy/src/hid/disp/display.h ****     \param y2  y Coordinate of the ending point
  50:../../libdaisy/src/hid/disp/display.h ****     \param on  on or off
  51:../../libdaisy/src/hid/disp/display.h ****     */
  52:../../libdaisy/src/hid/disp/display.h ****     virtual void DrawLine(uint_fast8_t x1,
  53:../../libdaisy/src/hid/disp/display.h ****                           uint_fast8_t y1,
  54:../../libdaisy/src/hid/disp/display.h ****                           uint_fast8_t x2,
  55:../../libdaisy/src/hid/disp/display.h ****                           uint_fast8_t y2,
  56:../../libdaisy/src/hid/disp/display.h ****                           bool         on)
  57:../../libdaisy/src/hid/disp/display.h ****         = 0;
  58:../../libdaisy/src/hid/disp/display.h **** 
  59:../../libdaisy/src/hid/disp/display.h ****     /**
  60:../../libdaisy/src/hid/disp/display.h ****     Draws a rectangle based on two coordinates.
  61:../../libdaisy/src/hid/disp/display.h ****     \param x1 x Coordinate of the first point
  62:../../libdaisy/src/hid/disp/display.h ****     \param y1 y Coordinate of the first point
  63:../../libdaisy/src/hid/disp/display.h ****     \param x2 x Coordinate of the second point
  64:../../libdaisy/src/hid/disp/display.h ****     \param y2 y Coordinate of the second point
  65:../../libdaisy/src/hid/disp/display.h ****     \param on on or off
  66:../../libdaisy/src/hid/disp/display.h ****     */
  67:../../libdaisy/src/hid/disp/display.h ****     virtual void DrawRect(uint_fast8_t x1,
  68:../../libdaisy/src/hid/disp/display.h ****                           uint_fast8_t y1,
  69:../../libdaisy/src/hid/disp/display.h ****                           uint_fast8_t x2,
  70:../../libdaisy/src/hid/disp/display.h ****                           uint_fast8_t y2,
  71:../../libdaisy/src/hid/disp/display.h ****                           bool         on,
  72:../../libdaisy/src/hid/disp/display.h ****                           bool         fill = false)
  73:../../libdaisy/src/hid/disp/display.h ****         = 0;
  74:../../libdaisy/src/hid/disp/display.h **** 
  75:../../libdaisy/src/hid/disp/display.h ****     /**
  76:../../libdaisy/src/hid/disp/display.h ****     Draws an arc around the specified coordinate
  77:../../libdaisy/src/hid/disp/display.h ****     \param x           x Coordinate of the center of the arc
  78:../../libdaisy/src/hid/disp/display.h ****     \param y           y Coordinate of the center of the arc
  79:../../libdaisy/src/hid/disp/display.h ****     \param radius      radius of the arc
  80:../../libdaisy/src/hid/disp/display.h ****     \param start_angle angle where to start the arc
  81:../../libdaisy/src/hid/disp/display.h ****     \param sweep       total angle of the arc
  82:../../libdaisy/src/hid/disp/display.h ****     \param on  on or off
ARM GAS  C:\Users\VINCIU~1\AppData\Local\Temp\cchCBePv.s 			page 11


  83:../../libdaisy/src/hid/disp/display.h ****     */
  84:../../libdaisy/src/hid/disp/display.h ****     virtual void DrawArc(uint_fast8_t x,
  85:../../libdaisy/src/hid/disp/display.h ****                          uint_fast8_t y,
  86:../../libdaisy/src/hid/disp/display.h ****                          uint_fast8_t radius,
  87:../../libdaisy/src/hid/disp/display.h ****                          int_fast16_t start_angle,
  88:../../libdaisy/src/hid/disp/display.h ****                          int_fast16_t sweep,
  89:../../libdaisy/src/hid/disp/display.h ****                          bool         on)
  90:../../libdaisy/src/hid/disp/display.h ****         = 0;
  91:../../libdaisy/src/hid/disp/display.h **** 
  92:../../libdaisy/src/hid/disp/display.h ****     /**
  93:../../libdaisy/src/hid/disp/display.h ****     Draws a circle around the specified coordinate
  94:../../libdaisy/src/hid/disp/display.h ****     \param x           x Coordinate of the center of the circle
  95:../../libdaisy/src/hid/disp/display.h ****     \param y           y Coordinate of the center of the circle
  96:../../libdaisy/src/hid/disp/display.h ****     \param radius      radius of the circle
  97:../../libdaisy/src/hid/disp/display.h ****     \param on  on or off
  98:../../libdaisy/src/hid/disp/display.h ****     */
  99:../../libdaisy/src/hid/disp/display.h ****     void
 100:../../libdaisy/src/hid/disp/display.h ****     DrawCircle(uint_fast8_t x, uint_fast8_t y, uint_fast8_t radius, bool on)
 101:../../libdaisy/src/hid/disp/display.h ****     {
 102:../../libdaisy/src/hid/disp/display.h ****         DrawArc(x, y, radius, 0, 360, on);
 103:../../libdaisy/src/hid/disp/display.h ****     };
 104:../../libdaisy/src/hid/disp/display.h **** 
 105:../../libdaisy/src/hid/disp/display.h ****     /** 
 106:../../libdaisy/src/hid/disp/display.h ****     Writes the character with the specific FontDef
 107:../../libdaisy/src/hid/disp/display.h ****     to the display buffer at the current Cursor position.
 108:../../libdaisy/src/hid/disp/display.h ****     \param ch character to be written
 109:../../libdaisy/src/hid/disp/display.h ****     \param font font to be written in
 110:../../libdaisy/src/hid/disp/display.h ****     \param on    on or off
 111:../../libdaisy/src/hid/disp/display.h ****     \return &
 112:../../libdaisy/src/hid/disp/display.h ****     */
 113:../../libdaisy/src/hid/disp/display.h ****     virtual char WriteChar(char ch, FontDef font, bool on) = 0;
 114:../../libdaisy/src/hid/disp/display.h **** 
 115:../../libdaisy/src/hid/disp/display.h ****     /** 
 116:../../libdaisy/src/hid/disp/display.h ****     Similar to WriteChar, except it will handle an entire String.
 117:../../libdaisy/src/hid/disp/display.h ****     Wrapping does not happen automatically, so the width
 118:../../libdaisy/src/hid/disp/display.h ****     of the string must be kept within the dimensions of the screen.
 119:../../libdaisy/src/hid/disp/display.h ****     \param str string to be written
 120:../../libdaisy/src/hid/disp/display.h ****     \param font font to use
 121:../../libdaisy/src/hid/disp/display.h ****     \param on  on or off
 122:../../libdaisy/src/hid/disp/display.h ****     \return &
 123:../../libdaisy/src/hid/disp/display.h ****     */
 124:../../libdaisy/src/hid/disp/display.h ****     virtual char WriteString(const char* str, FontDef font, bool on) = 0;
 125:../../libdaisy/src/hid/disp/display.h **** 
 126:../../libdaisy/src/hid/disp/display.h ****     /** 
 127:../../libdaisy/src/hid/disp/display.h ****     Moves the 'Cursor' position used for WriteChar, and WriteStr to the specified coordinate.
 128:../../libdaisy/src/hid/disp/display.h ****     \param x x pos
 129:../../libdaisy/src/hid/disp/display.h ****     \param y y pos
 130:../../libdaisy/src/hid/disp/display.h ****     */
 131:../../libdaisy/src/hid/disp/display.h ****     void SetCursor(uint16_t x, uint16_t y)
 132:../../libdaisy/src/hid/disp/display.h ****     {
 133:../../libdaisy/src/hid/disp/display.h ****         currentX_ = (x >= Width()) ? Width() - 1 : x;
 134:../../libdaisy/src/hid/disp/display.h ****         currentY_ = (y >= Height()) ? Height() - 1 : y;
 135:../../libdaisy/src/hid/disp/display.h ****     }
 136:../../libdaisy/src/hid/disp/display.h **** 
 137:../../libdaisy/src/hid/disp/display.h ****     /** 
 138:../../libdaisy/src/hid/disp/display.h ****     Writes the current display buffer to the OLED device using SPI or I2C depending on 
 139:../../libdaisy/src/hid/disp/display.h ****     how the object was initialized.
ARM GAS  C:\Users\VINCIU~1\AppData\Local\Temp\cchCBePv.s 			page 12


 140:../../libdaisy/src/hid/disp/display.h ****     */
 141:../../libdaisy/src/hid/disp/display.h ****     virtual void Update() = 0;
 142:../../libdaisy/src/hid/disp/display.h **** 
 143:../../libdaisy/src/hid/disp/display.h ****   protected:
 144:../../libdaisy/src/hid/disp/display.h ****     uint16_t currentX_;
 145:../../libdaisy/src/hid/disp/display.h ****     uint16_t currentY_;
 146:../../libdaisy/src/hid/disp/display.h **** };
 147:../../libdaisy/src/hid/disp/display.h **** 
 148:../../libdaisy/src/hid/disp/display.h **** /** This class is intended as a intermediary class for your actual implementation of the OneBitGrap
 149:../../libdaisy/src/hid/disp/display.h ****  *  interface. It uses the CRTP design pattern where the template argument is the child class. It p
 150:../../libdaisy/src/hid/disp/display.h ****  *  implementations for most of the functions, except DrawPixel(), Update() and Fill(), which you'l
 151:../../libdaisy/src/hid/disp/display.h ****  *  to provide in your child class.
 152:../../libdaisy/src/hid/disp/display.h ****  *  The main goal of this class is to provide common drawing functions without relying on massive a
 153:../../libdaisy/src/hid/disp/display.h ****  *  virtual function calls that would result in a performance loss. To achieve this, any drawing fu
 154:../../libdaisy/src/hid/disp/display.h ****  *  is implemented here and internally calls other drawing functions (e.g. DrawRect() which interna
 155:../../libdaisy/src/hid/disp/display.h ****  *  DrawPixel() and DrawLine()) makes these calls via the qualified name of these functions to expl
 156:../../libdaisy/src/hid/disp/display.h ****  *  suppress the virtual dispatch mechanism like this:
 157:../../libdaisy/src/hid/disp/display.h ****  * 
 158:../../libdaisy/src/hid/disp/display.h ****  *      ChildType::DrawPixel(...); // no virtual function call; direct call into the child class fu
 159:../../libdaisy/src/hid/disp/display.h ****  *  
 160:../../libdaisy/src/hid/disp/display.h ****  *  To create a custom OneBitGraphicsDisplay implementation, you can 
 161:../../libdaisy/src/hid/disp/display.h ****  *  A) inherit from OneBitGraphicsDisplay directly and provide all the drawing functions yourself
 162:../../libdaisy/src/hid/disp/display.h ****  *  B) Inherit from OneBitGraphicsDisplayImpl and only provide DrawPixel(), Fill() and Update()
 163:../../libdaisy/src/hid/disp/display.h ****  *     like this:
 164:../../libdaisy/src/hid/disp/display.h ****  *  
 165:../../libdaisy/src/hid/disp/display.h ****  *      class MyDisplayClass : public OneBitGraphicsDisplayImpl<MyDisplayClass> 
 166:../../libdaisy/src/hid/disp/display.h ****  *      {
 167:../../libdaisy/src/hid/disp/display.h ****  *      public:
 168:../../libdaisy/src/hid/disp/display.h ****  *          void Fill() override { ... };
 169:../../libdaisy/src/hid/disp/display.h ****  *          void DrawPixel(uint_fast8_t x, uint_fast8_t y, bool on) override { ... };
 170:../../libdaisy/src/hid/disp/display.h ****  *          void Update() override { ... }
 171:../../libdaisy/src/hid/disp/display.h ****  *      };
 172:../../libdaisy/src/hid/disp/display.h ****  *  
 173:../../libdaisy/src/hid/disp/display.h ****  */
 174:../../libdaisy/src/hid/disp/display.h **** template <class ChildType>
 175:../../libdaisy/src/hid/disp/display.h **** class OneBitGraphicsDisplayImpl : public OneBitGraphicsDisplay
 176:../../libdaisy/src/hid/disp/display.h **** {
 177:../../libdaisy/src/hid/disp/display.h ****   public:
 178:../../libdaisy/src/hid/disp/display.h ****     OneBitGraphicsDisplayImpl() {}
 179:../../libdaisy/src/hid/disp/display.h ****     virtual ~OneBitGraphicsDisplayImpl() {}
 180:../../libdaisy/src/hid/disp/display.h **** 
 181:../../libdaisy/src/hid/disp/display.h ****     void DrawLine(uint_fast8_t x1,
 182:../../libdaisy/src/hid/disp/display.h ****                   uint_fast8_t y1,
 183:../../libdaisy/src/hid/disp/display.h ****                   uint_fast8_t x2,
 184:../../libdaisy/src/hid/disp/display.h ****                   uint_fast8_t y2,
 185:../../libdaisy/src/hid/disp/display.h ****                   bool         on) override
 186:../../libdaisy/src/hid/disp/display.h ****     {
 187:../../libdaisy/src/hid/disp/display.h ****         int_fast16_t deltaX = abs((int_fast16_t)x2 - (int_fast16_t)x1);
 188:../../libdaisy/src/hid/disp/display.h ****         int_fast16_t deltaY = abs((int_fast16_t)y2 - (int_fast16_t)y1);
 189:../../libdaisy/src/hid/disp/display.h ****         int_fast16_t signX  = ((x1 < x2) ? 1 : -1);
 190:../../libdaisy/src/hid/disp/display.h ****         int_fast16_t signY  = ((y1 < y2) ? 1 : -1);
 191:../../libdaisy/src/hid/disp/display.h ****         int_fast16_t error  = deltaX - deltaY;
 192:../../libdaisy/src/hid/disp/display.h ****         int_fast16_t error2;
 193:../../libdaisy/src/hid/disp/display.h **** 
 194:../../libdaisy/src/hid/disp/display.h ****         // If we write "ChildType::DrawPixel(x2, y2, on);", we end up with
 195:../../libdaisy/src/hid/disp/display.h ****         // all sorts of weird compiler errors when the Child class is a template
 196:../../libdaisy/src/hid/disp/display.h ****         // class. The only way around this is to use this very verbose syntax:
ARM GAS  C:\Users\VINCIU~1\AppData\Local\Temp\cchCBePv.s 			page 13


 197:../../libdaisy/src/hid/disp/display.h ****         ((ChildType*)(this))->ChildType::DrawPixel(x2, y2, on);
 198:../../libdaisy/src/hid/disp/display.h **** 
 199:../../libdaisy/src/hid/disp/display.h ****         while((x1 != x2) || (y1 != y2))
 200:../../libdaisy/src/hid/disp/display.h ****         {
 201:../../libdaisy/src/hid/disp/display.h ****             ((ChildType*)(this))->ChildType::DrawPixel(x1, y1, on);
 202:../../libdaisy/src/hid/disp/display.h ****             error2 = error * 2;
 203:../../libdaisy/src/hid/disp/display.h ****             if(error2 > -deltaY)
 204:../../libdaisy/src/hid/disp/display.h ****             {
 205:../../libdaisy/src/hid/disp/display.h ****                 error -= deltaY;
 206:../../libdaisy/src/hid/disp/display.h ****                 x1 += signX;
 207:../../libdaisy/src/hid/disp/display.h ****             }
 208:../../libdaisy/src/hid/disp/display.h **** 
 209:../../libdaisy/src/hid/disp/display.h ****             if(error2 < deltaX)
 210:../../libdaisy/src/hid/disp/display.h ****             {
 211:../../libdaisy/src/hid/disp/display.h ****                 error += deltaX;
 212:../../libdaisy/src/hid/disp/display.h ****                 y1 += signY;
 213:../../libdaisy/src/hid/disp/display.h ****             }
 214:../../libdaisy/src/hid/disp/display.h ****         }
 215:../../libdaisy/src/hid/disp/display.h ****     }
 216:../../libdaisy/src/hid/disp/display.h **** 
 217:../../libdaisy/src/hid/disp/display.h ****     void DrawRect(uint_fast8_t x1,
 218:../../libdaisy/src/hid/disp/display.h ****                   uint_fast8_t y1,
 219:../../libdaisy/src/hid/disp/display.h ****                   uint_fast8_t x2,
 220:../../libdaisy/src/hid/disp/display.h ****                   uint_fast8_t y2,
 221:../../libdaisy/src/hid/disp/display.h ****                   bool         on,
 222:../../libdaisy/src/hid/disp/display.h ****                   bool         fill = false) override
 223:../../libdaisy/src/hid/disp/display.h ****     {
 224:../../libdaisy/src/hid/disp/display.h ****         if(fill)
 225:../../libdaisy/src/hid/disp/display.h ****         {
 226:../../libdaisy/src/hid/disp/display.h ****             for(uint_fast8_t x = x1; x <= x2; x++)
 227:../../libdaisy/src/hid/disp/display.h ****             {
 228:../../libdaisy/src/hid/disp/display.h ****                 for(uint_fast8_t y = y1; y <= y2; y++)
 229:../../libdaisy/src/hid/disp/display.h ****                 {
 230:../../libdaisy/src/hid/disp/display.h ****                     ((ChildType*)(this))->ChildType::DrawPixel(x, y, on);
 231:../../libdaisy/src/hid/disp/display.h ****                 }
 232:../../libdaisy/src/hid/disp/display.h ****             }
 233:../../libdaisy/src/hid/disp/display.h ****         }
 234:../../libdaisy/src/hid/disp/display.h ****         else
 235:../../libdaisy/src/hid/disp/display.h ****         {
 236:../../libdaisy/src/hid/disp/display.h ****             ((ChildType*)(this))->ChildType::DrawLine(x1, y1, x2, y1, on);
 237:../../libdaisy/src/hid/disp/display.h ****             ((ChildType*)(this))->ChildType::DrawLine(x2, y1, x2, y2, on);
 238:../../libdaisy/src/hid/disp/display.h ****             ((ChildType*)(this))->ChildType::DrawLine(x2, y2, x1, y2, on);
 239:../../libdaisy/src/hid/disp/display.h ****             ((ChildType*)(this))->ChildType::DrawLine(x1, y2, x1, y1, on);
 240:../../libdaisy/src/hid/disp/display.h ****         }
 241:../../libdaisy/src/hid/disp/display.h ****     }
 242:../../libdaisy/src/hid/disp/display.h **** 
 243:../../libdaisy/src/hid/disp/display.h ****     void DrawArc(uint_fast8_t x,
 244:../../libdaisy/src/hid/disp/display.h ****                  uint_fast8_t y,
 245:../../libdaisy/src/hid/disp/display.h ****                  uint_fast8_t radius,
 246:../../libdaisy/src/hid/disp/display.h ****                  int_fast16_t start_angle,
 247:../../libdaisy/src/hid/disp/display.h ****                  int_fast16_t sweep,
 248:../../libdaisy/src/hid/disp/display.h ****                  bool         on) override
 249:../../libdaisy/src/hid/disp/display.h ****     {
 250:../../libdaisy/src/hid/disp/display.h ****         // Values to calculate the circle
 251:../../libdaisy/src/hid/disp/display.h ****         int_fast16_t t_x, t_y, err, e2;
 252:../../libdaisy/src/hid/disp/display.h **** 
 253:../../libdaisy/src/hid/disp/display.h ****         // Temporary values to speed up comparisons
ARM GAS  C:\Users\VINCIU~1\AppData\Local\Temp\cchCBePv.s 			page 14


 254:../../libdaisy/src/hid/disp/display.h ****         float t_sxy, t_syx, t_sxny, t_synx;
 255:../../libdaisy/src/hid/disp/display.h ****         float t_exy, t_eyx, t_exny, t_eynx;
 256:../../libdaisy/src/hid/disp/display.h **** 
 257:../../libdaisy/src/hid/disp/display.h ****         float start_angle_rad, end_angle_rad;
 258:../../libdaisy/src/hid/disp/display.h ****         float start_x, start_y, end_x, end_y;
 259:../../libdaisy/src/hid/disp/display.h **** 
 260:../../libdaisy/src/hid/disp/display.h ****         bool d1, d2, d3, d4;
 261:../../libdaisy/src/hid/disp/display.h **** 
 262:../../libdaisy/src/hid/disp/display.h ****         d1 = d2 = d3 = d4 = true;
 263:../../libdaisy/src/hid/disp/display.h **** 
 264:../../libdaisy/src/hid/disp/display.h ****         bool circle = false;
 265:../../libdaisy/src/hid/disp/display.h **** 
 266:../../libdaisy/src/hid/disp/display.h ****         if(sweep < 0)
 267:../../libdaisy/src/hid/disp/display.h ****         {
 268:../../libdaisy/src/hid/disp/display.h ****             start_angle += sweep;
 269:../../libdaisy/src/hid/disp/display.h ****             sweep = -sweep;
 270:../../libdaisy/src/hid/disp/display.h ****         }
 271:../../libdaisy/src/hid/disp/display.h **** 
 272:../../libdaisy/src/hid/disp/display.h ****         start_angle_rad = deg2rad(start_angle);
 273:../../libdaisy/src/hid/disp/display.h ****         end_angle_rad   = deg2rad(start_angle + sweep);
 274:../../libdaisy/src/hid/disp/display.h **** 
 275:../../libdaisy/src/hid/disp/display.h ****         start_x = cos(start_angle_rad) * radius;
 276:../../libdaisy/src/hid/disp/display.h ****         start_y = -sin(start_angle_rad) * radius;
 277:../../libdaisy/src/hid/disp/display.h ****         end_x   = cos(end_angle_rad) * radius;
 278:../../libdaisy/src/hid/disp/display.h ****         end_y   = -sin(end_angle_rad) * radius;
 279:../../libdaisy/src/hid/disp/display.h **** 
 280:../../libdaisy/src/hid/disp/display.h ****         // Check if start and endpoint are very near
 281:../../libdaisy/src/hid/disp/display.h ****         if((end_x - start_x) * (end_x - start_x)
 282:../../libdaisy/src/hid/disp/display.h ****                + (end_y - start_y) * (end_y - start_y)
 283:../../libdaisy/src/hid/disp/display.h ****            < 2.0f)
 284:../../libdaisy/src/hid/disp/display.h ****         {
 285:../../libdaisy/src/hid/disp/display.h ****             if(sweep > 180)
 286:../../libdaisy/src/hid/disp/display.h ****                 circle = true;
 287:../../libdaisy/src/hid/disp/display.h ****             else
 288:../../libdaisy/src/hid/disp/display.h ****                 // Nothing to draw
 289:../../libdaisy/src/hid/disp/display.h ****                 return;
 290:../../libdaisy/src/hid/disp/display.h ****         }
 291:../../libdaisy/src/hid/disp/display.h **** 
 292:../../libdaisy/src/hid/disp/display.h ****         t_x = -radius;
 293:../../libdaisy/src/hid/disp/display.h ****         t_y = 0;
 294:../../libdaisy/src/hid/disp/display.h ****         err = 2 - 2 * radius;
 295:../../libdaisy/src/hid/disp/display.h **** 
 296:../../libdaisy/src/hid/disp/display.h ****         do
 297:../../libdaisy/src/hid/disp/display.h ****         {
 298:../../libdaisy/src/hid/disp/display.h ****             if(!circle)
 299:../../libdaisy/src/hid/disp/display.h ****             {
 300:../../libdaisy/src/hid/disp/display.h ****                 t_sxy  = start_x * t_y;
 301:../../libdaisy/src/hid/disp/display.h ****                 t_syx  = start_y * t_x;
 302:../../libdaisy/src/hid/disp/display.h ****                 t_sxny = start_x * -t_y;
 303:../../libdaisy/src/hid/disp/display.h ****                 t_synx = start_y * -t_x;
 304:../../libdaisy/src/hid/disp/display.h ****                 t_exy  = end_x * t_y;
 305:../../libdaisy/src/hid/disp/display.h ****                 t_eyx  = end_y * t_x;
 306:../../libdaisy/src/hid/disp/display.h ****                 t_exny = end_x * -t_y;
 307:../../libdaisy/src/hid/disp/display.h ****                 t_eynx = end_y * -t_x;
 308:../../libdaisy/src/hid/disp/display.h **** 
 309:../../libdaisy/src/hid/disp/display.h ****                 if(sweep > 180)
 310:../../libdaisy/src/hid/disp/display.h ****                 {
ARM GAS  C:\Users\VINCIU~1\AppData\Local\Temp\cchCBePv.s 			page 15


 311:../../libdaisy/src/hid/disp/display.h ****                     d1 = (t_sxy - t_synx < 0 || t_exy - t_eynx > 0);
 312:../../libdaisy/src/hid/disp/display.h ****                     d2 = (t_sxy - t_syx < 0 || t_exy - t_eyx > 0);
 313:../../libdaisy/src/hid/disp/display.h ****                     d3 = (t_sxny - t_syx < 0 || t_exny - t_eyx > 0);
 314:../../libdaisy/src/hid/disp/display.h ****                     d4 = (t_sxny - t_synx < 0 || t_exny - t_eynx > 0);
 315:../../libdaisy/src/hid/disp/display.h ****                 }
 316:../../libdaisy/src/hid/disp/display.h ****                 else
 317:../../libdaisy/src/hid/disp/display.h ****                 {
 318:../../libdaisy/src/hid/disp/display.h ****                     d1 = (t_sxy - t_synx < 0 && t_exy - t_eynx > 0);
 319:../../libdaisy/src/hid/disp/display.h ****                     d2 = (t_sxy - t_syx < 0 && t_exy - t_eyx > 0);
 320:../../libdaisy/src/hid/disp/display.h ****                     d3 = (t_sxny - t_syx < 0 && t_exny - t_eyx > 0);
 321:../../libdaisy/src/hid/disp/display.h ****                     d4 = (t_sxny - t_synx < 0 && t_exny - t_eynx > 0);
 322:../../libdaisy/src/hid/disp/display.h ****                 }
 323:../../libdaisy/src/hid/disp/display.h ****             }
 324:../../libdaisy/src/hid/disp/display.h **** 
 325:../../libdaisy/src/hid/disp/display.h ****             if(d1)
 326:../../libdaisy/src/hid/disp/display.h ****                 ((ChildType*)(this))
 327:../../libdaisy/src/hid/disp/display.h ****                     ->ChildType::DrawPixel(x - t_x, y + t_y, on);
 328:../../libdaisy/src/hid/disp/display.h ****             if(d2)
 329:../../libdaisy/src/hid/disp/display.h ****                 ((ChildType*)(this))
 330:../../libdaisy/src/hid/disp/display.h ****                     ->ChildType::DrawPixel(x + t_x, y + t_y, on);
 331:../../libdaisy/src/hid/disp/display.h ****             if(d3)
 332:../../libdaisy/src/hid/disp/display.h ****                 ((ChildType*)(this))
 333:../../libdaisy/src/hid/disp/display.h ****                     ->ChildType::DrawPixel(x + t_x, y - t_y, on);
 334:../../libdaisy/src/hid/disp/display.h ****             if(d4)
 335:../../libdaisy/src/hid/disp/display.h ****                 ((ChildType*)(this))
 336:../../libdaisy/src/hid/disp/display.h ****                     ->ChildType::DrawPixel(x - t_x, y - t_y, on);
 337:../../libdaisy/src/hid/disp/display.h **** 
 338:../../libdaisy/src/hid/disp/display.h ****             e2 = err;
 339:../../libdaisy/src/hid/disp/display.h ****             if(e2 <= t_y)
 340:../../libdaisy/src/hid/disp/display.h ****             {
 341:../../libdaisy/src/hid/disp/display.h ****                 t_y++;
 342:../../libdaisy/src/hid/disp/display.h ****                 err = err + (t_y * 2 + 1);
 343:../../libdaisy/src/hid/disp/display.h ****                 if(-t_x == t_y && e2 <= t_x)
 344:../../libdaisy/src/hid/disp/display.h ****                 {
 345:../../libdaisy/src/hid/disp/display.h ****                     e2 = 0;
 346:../../libdaisy/src/hid/disp/display.h ****                 }
 347:../../libdaisy/src/hid/disp/display.h ****             }
 348:../../libdaisy/src/hid/disp/display.h ****             if(e2 > t_x)
 349:../../libdaisy/src/hid/disp/display.h ****             {
 350:../../libdaisy/src/hid/disp/display.h ****                 t_x++;
 351:../../libdaisy/src/hid/disp/display.h ****                 err = err + (t_x * 2 + 1);
 352:../../libdaisy/src/hid/disp/display.h ****             }
 353:../../libdaisy/src/hid/disp/display.h ****         } while(t_x <= 0);
 354:../../libdaisy/src/hid/disp/display.h ****     }
 355:../../libdaisy/src/hid/disp/display.h **** 
 356:../../libdaisy/src/hid/disp/display.h ****     char WriteChar(char ch, FontDef font, bool on) override
 357:../../libdaisy/src/hid/disp/display.h ****     {
 358:../../libdaisy/src/hid/disp/display.h ****         uint32_t i, b, j;
 359:../../libdaisy/src/hid/disp/display.h **** 
 360:../../libdaisy/src/hid/disp/display.h ****         // Check if character is valid
 361:../../libdaisy/src/hid/disp/display.h ****         if(ch < 32 || ch > 126)
 362:../../libdaisy/src/hid/disp/display.h ****             return 0;
 363:../../libdaisy/src/hid/disp/display.h **** 
 364:../../libdaisy/src/hid/disp/display.h ****         // Check remaining space on current line
 365:../../libdaisy/src/hid/disp/display.h ****         if(Width() < (currentX_ + font.FontWidth)
 366:../../libdaisy/src/hid/disp/display.h ****            || Height() < (currentY_ + font.FontHeight))
 367:../../libdaisy/src/hid/disp/display.h ****         {
ARM GAS  C:\Users\VINCIU~1\AppData\Local\Temp\cchCBePv.s 			page 16


 368:../../libdaisy/src/hid/disp/display.h ****             // Not enough space on current line
 369:../../libdaisy/src/hid/disp/display.h ****             return 0;
 370:../../libdaisy/src/hid/disp/display.h ****         }
 371:../../libdaisy/src/hid/disp/display.h **** 
 372:../../libdaisy/src/hid/disp/display.h ****         // Use the font to write
 373:../../libdaisy/src/hid/disp/display.h ****         for(i = 0; i < font.FontHeight; i++)
 374:../../libdaisy/src/hid/disp/display.h ****         {
 375:../../libdaisy/src/hid/disp/display.h ****             b = font.data[(ch - 32) * font.FontHeight + i];
 376:../../libdaisy/src/hid/disp/display.h ****             for(j = 0; j < font.FontWidth; j++)
 377:../../libdaisy/src/hid/disp/display.h ****             {
 378:../../libdaisy/src/hid/disp/display.h ****                 if((b << j) & 0x8000)
 379:../../libdaisy/src/hid/disp/display.h ****                 {
 380:../../libdaisy/src/hid/disp/display.h ****                     ((ChildType*)(this))
 381:../../libdaisy/src/hid/disp/display.h ****                         ->ChildType::DrawPixel(
 382:../../libdaisy/src/hid/disp/display.h ****                             currentX_ + j, (currentY_ + i), on);
 383:../../libdaisy/src/hid/disp/display.h ****                 }
 384:../../libdaisy/src/hid/disp/display.h ****                 else
 385:../../libdaisy/src/hid/disp/display.h ****                 {
 386:../../libdaisy/src/hid/disp/display.h ****                     ((ChildType*)(this))
 387:../../libdaisy/src/hid/disp/display.h ****                         ->ChildType::DrawPixel(
 388:../../libdaisy/src/hid/disp/display.h ****                             currentX_ + j, (currentY_ + i), !on);
 389:../../libdaisy/src/hid/disp/display.h ****                 }
 390:../../libdaisy/src/hid/disp/display.h ****             }
 391:../../libdaisy/src/hid/disp/display.h ****         }
 392:../../libdaisy/src/hid/disp/display.h **** 
 393:../../libdaisy/src/hid/disp/display.h ****         // The current space is now taken
 394:../../libdaisy/src/hid/disp/display.h ****         SetCursor(currentX_ + font.FontWidth, currentY_);
 395:../../libdaisy/src/hid/disp/display.h **** 
 396:../../libdaisy/src/hid/disp/display.h ****         // Return written char for validation
 397:../../libdaisy/src/hid/disp/display.h ****         return ch;
 398:../../libdaisy/src/hid/disp/display.h ****     }
 399:../../libdaisy/src/hid/disp/display.h **** 
 400:../../libdaisy/src/hid/disp/display.h ****     char WriteString(const char* str, FontDef font, bool on) override
 314              		.loc 5 400 10 is_stmt 1 view -0
 315              		.cfi_startproc
 316              		@ args = 4, pretend = 0, frame = 32
 317              		@ frame_needed = 0, uses_anonymous_args = 0
 318              		.loc 5 400 10 is_stmt 0 view .LVU72
 319 0000 2DE9F04F 		push	{r4, r5, r6, r7, r8, r9, r10, fp, lr}
 320              		.cfi_def_cfa_offset 36
 321              		.cfi_offset 4, -36
 322              		.cfi_offset 5, -32
 323              		.cfi_offset 6, -28
 324              		.cfi_offset 7, -24
 325              		.cfi_offset 8, -20
 326              		.cfi_offset 9, -16
 327              		.cfi_offset 10, -12
 328              		.cfi_offset 11, -8
 329              		.cfi_offset 14, -4
 330 0004 89B0     		sub	sp, sp, #36
 331              		.cfi_def_cfa_offset 72
 332              		.loc 5 400 10 view .LVU73
 333 0006 08AC     		add	r4, sp, #32
 334 0008 9DF84870 		ldrb	r7, [sp, #72]	@ zero_extendqisi2
 335 000c 0191     		str	r1, [sp, #4]
 336 000e 04E90C00 		stmdb	r4, {r2, r3}
 401:../../libdaisy/src/hid/disp/display.h ****     {
ARM GAS  C:\Users\VINCIU~1\AppData\Local\Temp\cchCBePv.s 			page 17


 402:../../libdaisy/src/hid/disp/display.h ****         // Write until null-byte
 403:../../libdaisy/src/hid/disp/display.h ****         while(*str)
 337              		.loc 5 403 9 is_stmt 1 view .LVU74
 338 0012 0B78     		ldrb	r3, [r1]	@ zero_extendqisi2
 339 0014 002B     		cmp	r3, #0
 340 0016 00F0AB80 		beq	.L45
 341 001a 1A46     		mov	r2, r3
 342 001c 9DF81880 		ldrb	r8, [sp, #24]	@ zero_extendqisi2
 343 0020 9DF81930 		ldrb	r3, [sp, #25]	@ zero_extendqisi2
 344 0024 0646     		mov	r6, r0
 345 0026 4546     		mov	r5, r8
 346 0028 9046     		mov	r8, r2
 347 002a 0393     		str	r3, [sp, #12]
 348 002c 079B     		ldr	r3, [sp, #28]
 349 002e 0593     		str	r3, [sp, #20]
 350              	.LVL20:
 351              	.L46:
 352              	.LBB200:
 353              	.LBI200:
 356:../../libdaisy/src/hid/disp/display.h ****     {
 354              		.loc 5 356 10 view .LVU75
 355              	.LBB201:
 361:../../libdaisy/src/hid/disp/display.h ****             return 0;
 356              		.loc 5 361 20 is_stmt 0 view .LVU76
 357 0030 A8F12004 		sub	r4, r8, #32
 361:../../libdaisy/src/hid/disp/display.h ****             return 0;
 358              		.loc 5 361 9 view .LVU77
 359 0034 E3B2     		uxtb	r3, r4
 360 0036 5E2B     		cmp	r3, #94
 361 0038 00F29E80 		bhi	.L27
 365:../../libdaisy/src/hid/disp/display.h ****            || Height() < (currentY_ + font.FontHeight))
 362              		.loc 5 365 17 view .LVU78
 363 003c 3368     		ldr	r3, [r6]
 364 003e 5E4A     		ldr	r2, .L67
 365 0040 DB68     		ldr	r3, [r3, #12]
 366 0042 9342     		cmp	r3, r2
 367 0044 40F09B80 		bne	.L60
 368 0048 8020     		movs	r0, #128
 369              	.L26:
 365:../../libdaisy/src/hid/disp/display.h ****            || Height() < (currentY_ + font.FontHeight))
 370              		.loc 5 365 23 view .LVU79
 371 004a B388     		ldrh	r3, [r6, #4]
 365:../../libdaisy/src/hid/disp/display.h ****            || Height() < (currentY_ + font.FontHeight))
 372              		.loc 5 365 33 view .LVU80
 373 004c 2B44     		add	r3, r3, r5
 366:../../libdaisy/src/hid/disp/display.h ****         {
 374              		.loc 5 366 12 view .LVU81
 375 004e 8342     		cmp	r3, r0
 376 0050 00F39280 		bgt	.L27
 366:../../libdaisy/src/hid/disp/display.h ****         {
 377              		.loc 5 366 21 view .LVU82
 378 0054 3368     		ldr	r3, [r6]
 379 0056 594A     		ldr	r2, .L67+4
 380 0058 9B68     		ldr	r3, [r3, #8]
 381 005a 9342     		cmp	r3, r2
 382 005c 40F09280 		bne	.L61
 383 0060 4020     		movs	r0, #64
ARM GAS  C:\Users\VINCIU~1\AppData\Local\Temp\cchCBePv.s 			page 18


 384              	.L28:
 366:../../libdaisy/src/hid/disp/display.h ****         {
 385              		.loc 5 366 27 view .LVU83
 386 0062 F188     		ldrh	r1, [r6, #6]
 366:../../libdaisy/src/hid/disp/display.h ****         {
 387              		.loc 5 366 37 view .LVU84
 388 0064 039A     		ldr	r2, [sp, #12]
 366:../../libdaisy/src/hid/disp/display.h ****         {
 389              		.loc 5 366 27 view .LVU85
 390 0066 0291     		str	r1, [sp, #8]
 366:../../libdaisy/src/hid/disp/display.h ****         {
 391              		.loc 5 366 37 view .LVU86
 392 0068 8B18     		adds	r3, r1, r2
 366:../../libdaisy/src/hid/disp/display.h ****         {
 393              		.loc 5 366 12 view .LVU87
 394 006a 8342     		cmp	r3, r0
 395 006c 00F38480 		bgt	.L27
 396              	.LVL21:
 373:../../libdaisy/src/hid/disp/display.h ****         {
 397              		.loc 5 373 22 is_stmt 1 view .LVU88
 398 0070 002A     		cmp	r2, #0
 399 0072 00F09180 		beq	.L29
 375:../../libdaisy/src/hid/disp/display.h ****             for(j = 0; j < font.FontWidth; j++)
 400              		.loc 5 375 37 is_stmt 0 view .LVU89
 401 0076 02FB04F4 		mul	r4, r2, r4
 402 007a 6FF00049 		mvn	r9, #-2147483648
 403 007e 059B     		ldr	r3, [sp, #20]
 404 0080 A144     		add	r9, r9, r4
 405 0082 1444     		add	r4, r4, r2
 394:../../libdaisy/src/hid/disp/display.h **** 
 406              		.loc 5 394 19 view .LVU90
 407 0084 B6F804B0 		ldrh	fp, [r6, #4]
 408 0088 03EB4909 		add	r9, r3, r9, lsl #1
 409 008c 023B     		subs	r3, r3, #2
 410 008e CDF81080 		str	r8, [sp, #16]
 411 0092 03EB4403 		add	r3, r3, r4, lsl #1
 412 0096 0C46     		mov	r4, r1
 413 0098 9A46     		mov	r10, r3
 414              	.LVL22:
 415              	.L32:
 375:../../libdaisy/src/hid/disp/display.h ****             for(j = 0; j < font.FontWidth; j++)
 416              		.loc 5 375 15 view .LVU91
 417 009a 39F802CF 		ldrh	ip, [r9, #2]!
 418              	.LVL23:
 376:../../libdaisy/src/hid/disp/display.h ****             {
 419              		.loc 5 376 26 is_stmt 1 view .LVU92
 420 009e A5B3     		cbz	r5, .L37
 421              	.LBB202:
 422              	.LBB203:
 423              	.LBB204:
 424              	.LBB205:
 425              	.LBB206:
 426              		.file 6 "../../libdaisy/src/dev/oled_ssd130x.h"
   1:../../libdaisy/src/dev/oled_ssd130x.h **** #pragma once
   2:../../libdaisy/src/dev/oled_ssd130x.h **** #ifndef SA_OLED_SSD130X_H
   3:../../libdaisy/src/dev/oled_ssd130x.h **** #define SA_OLED_SSD130X_H /**< & */
   4:../../libdaisy/src/dev/oled_ssd130x.h **** 
ARM GAS  C:\Users\VINCIU~1\AppData\Local\Temp\cchCBePv.s 			page 19


   5:../../libdaisy/src/dev/oled_ssd130x.h **** #include "per/i2c.h"
   6:../../libdaisy/src/dev/oled_ssd130x.h **** #include "per/spi.h"
   7:../../libdaisy/src/dev/oled_ssd130x.h **** #include "per/gpio.h"
   8:../../libdaisy/src/dev/oled_ssd130x.h **** #include "sys/system.h"
   9:../../libdaisy/src/dev/oled_ssd130x.h **** 
  10:../../libdaisy/src/dev/oled_ssd130x.h **** namespace daisy
  11:../../libdaisy/src/dev/oled_ssd130x.h **** {
  12:../../libdaisy/src/dev/oled_ssd130x.h **** /**
  13:../../libdaisy/src/dev/oled_ssd130x.h ****  * I2C Transport for SSD1306 / SSD1309 OLED display devices
  14:../../libdaisy/src/dev/oled_ssd130x.h ****  */
  15:../../libdaisy/src/dev/oled_ssd130x.h **** class SSD130xI2CTransport
  16:../../libdaisy/src/dev/oled_ssd130x.h **** {
  17:../../libdaisy/src/dev/oled_ssd130x.h ****   public:
  18:../../libdaisy/src/dev/oled_ssd130x.h ****     struct Config
  19:../../libdaisy/src/dev/oled_ssd130x.h ****     {
  20:../../libdaisy/src/dev/oled_ssd130x.h ****         I2CHandle::Config i2c_config;
  21:../../libdaisy/src/dev/oled_ssd130x.h ****         uint8_t           i2c_address;
  22:../../libdaisy/src/dev/oled_ssd130x.h ****         void              Defaults()
  23:../../libdaisy/src/dev/oled_ssd130x.h ****         {
  24:../../libdaisy/src/dev/oled_ssd130x.h ****             i2c_config.periph         = I2CHandle::Config::Peripheral::I2C_1;
  25:../../libdaisy/src/dev/oled_ssd130x.h ****             i2c_config.speed          = I2CHandle::Config::Speed::I2C_1MHZ;
  26:../../libdaisy/src/dev/oled_ssd130x.h ****             i2c_config.mode           = I2CHandle::Config::Mode::I2C_MASTER;
  27:../../libdaisy/src/dev/oled_ssd130x.h ****             i2c_config.pin_config.scl = {DSY_GPIOB, 8};
  28:../../libdaisy/src/dev/oled_ssd130x.h ****             i2c_config.pin_config.sda = {DSY_GPIOB, 9};
  29:../../libdaisy/src/dev/oled_ssd130x.h ****             i2c_address               = 0x3C;
  30:../../libdaisy/src/dev/oled_ssd130x.h ****         }
  31:../../libdaisy/src/dev/oled_ssd130x.h ****     };
  32:../../libdaisy/src/dev/oled_ssd130x.h ****     void Init(const Config& config)
  33:../../libdaisy/src/dev/oled_ssd130x.h ****     {
  34:../../libdaisy/src/dev/oled_ssd130x.h ****         i2c_address_ = config.i2c_address;
  35:../../libdaisy/src/dev/oled_ssd130x.h ****         i2c_.Init(config.i2c_config);
  36:../../libdaisy/src/dev/oled_ssd130x.h ****     };
  37:../../libdaisy/src/dev/oled_ssd130x.h ****     void SendCommand(uint8_t cmd)
  38:../../libdaisy/src/dev/oled_ssd130x.h ****     {
  39:../../libdaisy/src/dev/oled_ssd130x.h ****         uint8_t buf[2] = {0X00, cmd};
  40:../../libdaisy/src/dev/oled_ssd130x.h ****         i2c_.TransmitBlocking(i2c_address_, buf, 2, 1000);
  41:../../libdaisy/src/dev/oled_ssd130x.h ****     };
  42:../../libdaisy/src/dev/oled_ssd130x.h **** 
  43:../../libdaisy/src/dev/oled_ssd130x.h ****     void SendData(uint8_t* buff, size_t size)
  44:../../libdaisy/src/dev/oled_ssd130x.h ****     {
  45:../../libdaisy/src/dev/oled_ssd130x.h ****         for(size_t i = 0; i < size; i++)
  46:../../libdaisy/src/dev/oled_ssd130x.h ****         {
  47:../../libdaisy/src/dev/oled_ssd130x.h ****             uint8_t buf[2] = {0X40, buff[i]};
  48:../../libdaisy/src/dev/oled_ssd130x.h ****             i2c_.TransmitBlocking(i2c_address_, buf, 2, 1000);
  49:../../libdaisy/src/dev/oled_ssd130x.h ****         }
  50:../../libdaisy/src/dev/oled_ssd130x.h ****     };
  51:../../libdaisy/src/dev/oled_ssd130x.h **** 
  52:../../libdaisy/src/dev/oled_ssd130x.h ****   private:
  53:../../libdaisy/src/dev/oled_ssd130x.h ****     daisy::I2CHandle i2c_;
  54:../../libdaisy/src/dev/oled_ssd130x.h ****     uint8_t          i2c_address_;
  55:../../libdaisy/src/dev/oled_ssd130x.h **** };
  56:../../libdaisy/src/dev/oled_ssd130x.h **** 
  57:../../libdaisy/src/dev/oled_ssd130x.h **** /**
  58:../../libdaisy/src/dev/oled_ssd130x.h ****  * 4 Wire SPI Transport for SSD1306 / SSD1309 OLED display devices
  59:../../libdaisy/src/dev/oled_ssd130x.h ****  */
  60:../../libdaisy/src/dev/oled_ssd130x.h **** class SSD130x4WireSpiTransport
  61:../../libdaisy/src/dev/oled_ssd130x.h **** {
ARM GAS  C:\Users\VINCIU~1\AppData\Local\Temp\cchCBePv.s 			page 20


  62:../../libdaisy/src/dev/oled_ssd130x.h ****   public:
  63:../../libdaisy/src/dev/oled_ssd130x.h ****     struct Config
  64:../../libdaisy/src/dev/oled_ssd130x.h ****     {
  65:../../libdaisy/src/dev/oled_ssd130x.h ****         struct
  66:../../libdaisy/src/dev/oled_ssd130x.h ****         {
  67:../../libdaisy/src/dev/oled_ssd130x.h ****             dsy_gpio_pin dc;    /**< & */
  68:../../libdaisy/src/dev/oled_ssd130x.h ****             dsy_gpio_pin reset; /**< & */
  69:../../libdaisy/src/dev/oled_ssd130x.h ****         } pin_config;
  70:../../libdaisy/src/dev/oled_ssd130x.h ****         void Defaults()
  71:../../libdaisy/src/dev/oled_ssd130x.h ****         {
  72:../../libdaisy/src/dev/oled_ssd130x.h ****             pin_config.dc    = {DSY_GPIOB, 4};
  73:../../libdaisy/src/dev/oled_ssd130x.h ****             pin_config.reset = {DSY_GPIOB, 15};
  74:../../libdaisy/src/dev/oled_ssd130x.h ****         }
  75:../../libdaisy/src/dev/oled_ssd130x.h ****     };
  76:../../libdaisy/src/dev/oled_ssd130x.h ****     void Init(const Config& config)
  77:../../libdaisy/src/dev/oled_ssd130x.h ****     {
  78:../../libdaisy/src/dev/oled_ssd130x.h ****         // Initialize both GPIO
  79:../../libdaisy/src/dev/oled_ssd130x.h ****         pin_dc_.mode = DSY_GPIO_MODE_OUTPUT_PP;
  80:../../libdaisy/src/dev/oled_ssd130x.h ****         pin_dc_.pin  = config.pin_config.dc;
  81:../../libdaisy/src/dev/oled_ssd130x.h ****         dsy_gpio_init(&pin_dc_);
  82:../../libdaisy/src/dev/oled_ssd130x.h ****         pin_reset_.mode = DSY_GPIO_MODE_OUTPUT_PP;
  83:../../libdaisy/src/dev/oled_ssd130x.h ****         pin_reset_.pin  = config.pin_config.reset;
  84:../../libdaisy/src/dev/oled_ssd130x.h ****         dsy_gpio_init(&pin_reset_);
  85:../../libdaisy/src/dev/oled_ssd130x.h ****         // Initialize SPI
  86:../../libdaisy/src/dev/oled_ssd130x.h ****         SpiHandle::Config spi_config;
  87:../../libdaisy/src/dev/oled_ssd130x.h ****         spi_config.periph    = SpiHandle::Config::Peripheral::SPI_1;
  88:../../libdaisy/src/dev/oled_ssd130x.h ****         spi_config.mode      = SpiHandle::Config::Mode::MASTER;
  89:../../libdaisy/src/dev/oled_ssd130x.h ****         spi_config.direction = SpiHandle::Config::Direction::TWO_LINES_TX_ONLY;
  90:../../libdaisy/src/dev/oled_ssd130x.h ****         spi_config.datasize  = 8;
  91:../../libdaisy/src/dev/oled_ssd130x.h ****         spi_config.clock_polarity = SpiHandle::Config::ClockPolarity::LOW;
  92:../../libdaisy/src/dev/oled_ssd130x.h ****         spi_config.clock_phase    = SpiHandle::Config::ClockPhase::ONE_EDGE;
  93:../../libdaisy/src/dev/oled_ssd130x.h ****         spi_config.nss            = SpiHandle::Config::NSS::HARD_OUTPUT;
  94:../../libdaisy/src/dev/oled_ssd130x.h ****         spi_config.baud_prescaler = SpiHandle::Config::BaudPrescaler::PS_8;
  95:../../libdaisy/src/dev/oled_ssd130x.h **** 
  96:../../libdaisy/src/dev/oled_ssd130x.h ****         spi_config.pin_config.sclk = {DSY_GPIOG, 11};
  97:../../libdaisy/src/dev/oled_ssd130x.h ****         spi_config.pin_config.miso = {DSY_GPIOX, 0};
  98:../../libdaisy/src/dev/oled_ssd130x.h ****         spi_config.pin_config.mosi = {DSY_GPIOB, 5};
  99:../../libdaisy/src/dev/oled_ssd130x.h ****         spi_config.pin_config.nss  = {DSY_GPIOG, 10};
 100:../../libdaisy/src/dev/oled_ssd130x.h **** 
 101:../../libdaisy/src/dev/oled_ssd130x.h ****         spi_.Init(spi_config);
 102:../../libdaisy/src/dev/oled_ssd130x.h **** 
 103:../../libdaisy/src/dev/oled_ssd130x.h ****         // Reset and Configure OLED.
 104:../../libdaisy/src/dev/oled_ssd130x.h ****         dsy_gpio_write(&pin_reset_, 0);
 105:../../libdaisy/src/dev/oled_ssd130x.h ****         System::Delay(10);
 106:../../libdaisy/src/dev/oled_ssd130x.h ****         dsy_gpio_write(&pin_reset_, 1);
 107:../../libdaisy/src/dev/oled_ssd130x.h ****         System::Delay(10);
 108:../../libdaisy/src/dev/oled_ssd130x.h ****     };
 109:../../libdaisy/src/dev/oled_ssd130x.h ****     void SendCommand(uint8_t cmd)
 110:../../libdaisy/src/dev/oled_ssd130x.h ****     {
 111:../../libdaisy/src/dev/oled_ssd130x.h ****         dsy_gpio_write(&pin_dc_, 0);
 112:../../libdaisy/src/dev/oled_ssd130x.h ****         spi_.BlockingTransmit(&cmd, 1);
 113:../../libdaisy/src/dev/oled_ssd130x.h ****     };
 114:../../libdaisy/src/dev/oled_ssd130x.h **** 
 115:../../libdaisy/src/dev/oled_ssd130x.h ****     void SendData(uint8_t* buff, size_t size)
 116:../../libdaisy/src/dev/oled_ssd130x.h ****     {
 117:../../libdaisy/src/dev/oled_ssd130x.h ****         dsy_gpio_write(&pin_dc_, 1);
 118:../../libdaisy/src/dev/oled_ssd130x.h ****         spi_.BlockingTransmit(buff, size);
ARM GAS  C:\Users\VINCIU~1\AppData\Local\Temp\cchCBePv.s 			page 21


 119:../../libdaisy/src/dev/oled_ssd130x.h ****     };
 120:../../libdaisy/src/dev/oled_ssd130x.h **** 
 121:../../libdaisy/src/dev/oled_ssd130x.h ****   private:
 122:../../libdaisy/src/dev/oled_ssd130x.h ****     SpiHandle spi_;
 123:../../libdaisy/src/dev/oled_ssd130x.h ****     dsy_gpio  pin_reset_;
 124:../../libdaisy/src/dev/oled_ssd130x.h ****     dsy_gpio  pin_dc_;
 125:../../libdaisy/src/dev/oled_ssd130x.h **** };
 126:../../libdaisy/src/dev/oled_ssd130x.h **** 
 127:../../libdaisy/src/dev/oled_ssd130x.h **** 
 128:../../libdaisy/src/dev/oled_ssd130x.h **** /**
 129:../../libdaisy/src/dev/oled_ssd130x.h ****  * A driver implementation for the SSD1306/SSD1309
 130:../../libdaisy/src/dev/oled_ssd130x.h ****  */
 131:../../libdaisy/src/dev/oled_ssd130x.h **** template <size_t width, size_t height, typename Transport>
 132:../../libdaisy/src/dev/oled_ssd130x.h **** class SSD130xDriver
 133:../../libdaisy/src/dev/oled_ssd130x.h **** {
 134:../../libdaisy/src/dev/oled_ssd130x.h ****   public:
 135:../../libdaisy/src/dev/oled_ssd130x.h ****     struct Config
 136:../../libdaisy/src/dev/oled_ssd130x.h ****     {
 137:../../libdaisy/src/dev/oled_ssd130x.h ****         typename Transport::Config transport_config;
 138:../../libdaisy/src/dev/oled_ssd130x.h ****     };
 139:../../libdaisy/src/dev/oled_ssd130x.h **** 
 140:../../libdaisy/src/dev/oled_ssd130x.h ****     void Init(Config config)
 141:../../libdaisy/src/dev/oled_ssd130x.h ****     {
 142:../../libdaisy/src/dev/oled_ssd130x.h ****         transport_.Init(config.transport_config);
 143:../../libdaisy/src/dev/oled_ssd130x.h **** 
 144:../../libdaisy/src/dev/oled_ssd130x.h ****         // Init routine...
 145:../../libdaisy/src/dev/oled_ssd130x.h **** 
 146:../../libdaisy/src/dev/oled_ssd130x.h ****         // Display Off
 147:../../libdaisy/src/dev/oled_ssd130x.h ****         transport_.SendCommand(0xaE);
 148:../../libdaisy/src/dev/oled_ssd130x.h ****         // Dimension dependent commands...
 149:../../libdaisy/src/dev/oled_ssd130x.h ****         switch(height)
 150:../../libdaisy/src/dev/oled_ssd130x.h ****         {
 151:../../libdaisy/src/dev/oled_ssd130x.h ****             case 16:
 152:../../libdaisy/src/dev/oled_ssd130x.h ****                 // Display Clock Divide Ratio
 153:../../libdaisy/src/dev/oled_ssd130x.h ****                 transport_.SendCommand(0xD5);
 154:../../libdaisy/src/dev/oled_ssd130x.h ****                 transport_.SendCommand(0x60);
 155:../../libdaisy/src/dev/oled_ssd130x.h ****                 // Multiplex Ratio
 156:../../libdaisy/src/dev/oled_ssd130x.h ****                 transport_.SendCommand(0xA8);
 157:../../libdaisy/src/dev/oled_ssd130x.h ****                 transport_.SendCommand(0x0F);
 158:../../libdaisy/src/dev/oled_ssd130x.h ****                 // COM Pins
 159:../../libdaisy/src/dev/oled_ssd130x.h ****                 transport_.SendCommand(0xDA);
 160:../../libdaisy/src/dev/oled_ssd130x.h ****                 transport_.SendCommand(0x02);
 161:../../libdaisy/src/dev/oled_ssd130x.h ****                 break;
 162:../../libdaisy/src/dev/oled_ssd130x.h ****             case 32:
 163:../../libdaisy/src/dev/oled_ssd130x.h ****                 // Display Clock Divide Ratio
 164:../../libdaisy/src/dev/oled_ssd130x.h ****                 transport_.SendCommand(0xD5);
 165:../../libdaisy/src/dev/oled_ssd130x.h ****                 transport_.SendCommand(0x80);
 166:../../libdaisy/src/dev/oled_ssd130x.h ****                 // Multiplex Ratio
 167:../../libdaisy/src/dev/oled_ssd130x.h ****                 transport_.SendCommand(0xA8);
 168:../../libdaisy/src/dev/oled_ssd130x.h ****                 transport_.SendCommand(0x1F);
 169:../../libdaisy/src/dev/oled_ssd130x.h ****                 // COM Pins
 170:../../libdaisy/src/dev/oled_ssd130x.h ****                 transport_.SendCommand(0xDA);
 171:../../libdaisy/src/dev/oled_ssd130x.h ****                 if(width == 64)
 172:../../libdaisy/src/dev/oled_ssd130x.h ****                 {
 173:../../libdaisy/src/dev/oled_ssd130x.h ****                     transport_.SendCommand(0x12);
 174:../../libdaisy/src/dev/oled_ssd130x.h ****                 }
 175:../../libdaisy/src/dev/oled_ssd130x.h ****                 else
ARM GAS  C:\Users\VINCIU~1\AppData\Local\Temp\cchCBePv.s 			page 22


 176:../../libdaisy/src/dev/oled_ssd130x.h ****                 {
 177:../../libdaisy/src/dev/oled_ssd130x.h ****                     transport_.SendCommand(0x02);
 178:../../libdaisy/src/dev/oled_ssd130x.h ****                 }
 179:../../libdaisy/src/dev/oled_ssd130x.h **** 
 180:../../libdaisy/src/dev/oled_ssd130x.h ****                 break;
 181:../../libdaisy/src/dev/oled_ssd130x.h ****             case 48:
 182:../../libdaisy/src/dev/oled_ssd130x.h ****                 // Display Clock Divide Ratio
 183:../../libdaisy/src/dev/oled_ssd130x.h ****                 transport_.SendCommand(0xD5);
 184:../../libdaisy/src/dev/oled_ssd130x.h ****                 transport_.SendCommand(0x80);
 185:../../libdaisy/src/dev/oled_ssd130x.h ****                 // Multiplex Ratio
 186:../../libdaisy/src/dev/oled_ssd130x.h ****                 transport_.SendCommand(0xA8);
 187:../../libdaisy/src/dev/oled_ssd130x.h ****                 transport_.SendCommand(0x2F);
 188:../../libdaisy/src/dev/oled_ssd130x.h ****                 // COM Pins
 189:../../libdaisy/src/dev/oled_ssd130x.h ****                 transport_.SendCommand(0xDA);
 190:../../libdaisy/src/dev/oled_ssd130x.h ****                 transport_.SendCommand(0x12);
 191:../../libdaisy/src/dev/oled_ssd130x.h ****                 break;
 192:../../libdaisy/src/dev/oled_ssd130x.h ****             default: // 128
 193:../../libdaisy/src/dev/oled_ssd130x.h ****                 // Display Clock Divide Ratio
 194:../../libdaisy/src/dev/oled_ssd130x.h ****                 transport_.SendCommand(0xD5);
 195:../../libdaisy/src/dev/oled_ssd130x.h ****                 transport_.SendCommand(0x80);
 196:../../libdaisy/src/dev/oled_ssd130x.h ****                 // Multiplex Ratio
 197:../../libdaisy/src/dev/oled_ssd130x.h ****                 transport_.SendCommand(0xA8);
 198:../../libdaisy/src/dev/oled_ssd130x.h ****                 transport_.SendCommand(0x3F);
 199:../../libdaisy/src/dev/oled_ssd130x.h ****                 // COM Pins
 200:../../libdaisy/src/dev/oled_ssd130x.h ****                 transport_.SendCommand(0xDA);
 201:../../libdaisy/src/dev/oled_ssd130x.h ****                 transport_.SendCommand(0x12);
 202:../../libdaisy/src/dev/oled_ssd130x.h ****                 break;
 203:../../libdaisy/src/dev/oled_ssd130x.h ****         }
 204:../../libdaisy/src/dev/oled_ssd130x.h **** 
 205:../../libdaisy/src/dev/oled_ssd130x.h ****         // Display Offset
 206:../../libdaisy/src/dev/oled_ssd130x.h ****         transport_.SendCommand(0xD3);
 207:../../libdaisy/src/dev/oled_ssd130x.h ****         transport_.SendCommand(0x00);
 208:../../libdaisy/src/dev/oled_ssd130x.h ****         // Start Line Address
 209:../../libdaisy/src/dev/oled_ssd130x.h ****         transport_.SendCommand(0x40);
 210:../../libdaisy/src/dev/oled_ssd130x.h ****         // Normal Display
 211:../../libdaisy/src/dev/oled_ssd130x.h ****         transport_.SendCommand(0xA6);
 212:../../libdaisy/src/dev/oled_ssd130x.h ****         // All On Resume
 213:../../libdaisy/src/dev/oled_ssd130x.h ****         transport_.SendCommand(0xA4);
 214:../../libdaisy/src/dev/oled_ssd130x.h ****         // Charge Pump
 215:../../libdaisy/src/dev/oled_ssd130x.h ****         transport_.SendCommand(0x8D);
 216:../../libdaisy/src/dev/oled_ssd130x.h ****         transport_.SendCommand(0x14);
 217:../../libdaisy/src/dev/oled_ssd130x.h ****         // Set Segment Remap
 218:../../libdaisy/src/dev/oled_ssd130x.h ****         transport_.SendCommand(0xA1);
 219:../../libdaisy/src/dev/oled_ssd130x.h ****         // COM Output Scan Direction
 220:../../libdaisy/src/dev/oled_ssd130x.h ****         transport_.SendCommand(0xC8);
 221:../../libdaisy/src/dev/oled_ssd130x.h ****         // Contrast Control
 222:../../libdaisy/src/dev/oled_ssd130x.h ****         transport_.SendCommand(0x81);
 223:../../libdaisy/src/dev/oled_ssd130x.h ****         transport_.SendCommand(0x8F);
 224:../../libdaisy/src/dev/oled_ssd130x.h ****         // Pre Charge
 225:../../libdaisy/src/dev/oled_ssd130x.h ****         transport_.SendCommand(0xD9);
 226:../../libdaisy/src/dev/oled_ssd130x.h ****         transport_.SendCommand(0x25);
 227:../../libdaisy/src/dev/oled_ssd130x.h ****         // VCOM Detect
 228:../../libdaisy/src/dev/oled_ssd130x.h ****         transport_.SendCommand(0xDB);
 229:../../libdaisy/src/dev/oled_ssd130x.h ****         transport_.SendCommand(0x34);
 230:../../libdaisy/src/dev/oled_ssd130x.h **** 
 231:../../libdaisy/src/dev/oled_ssd130x.h **** 
 232:../../libdaisy/src/dev/oled_ssd130x.h ****         // Display On
ARM GAS  C:\Users\VINCIU~1\AppData\Local\Temp\cchCBePv.s 			page 23


 233:../../libdaisy/src/dev/oled_ssd130x.h ****         transport_.SendCommand(0xAF); //--turn on oled panel
 234:../../libdaisy/src/dev/oled_ssd130x.h ****     };
 235:../../libdaisy/src/dev/oled_ssd130x.h **** 
 236:../../libdaisy/src/dev/oled_ssd130x.h ****     size_t Width() const { return width; };
 237:../../libdaisy/src/dev/oled_ssd130x.h ****     size_t Height() const { return height; };
 238:../../libdaisy/src/dev/oled_ssd130x.h **** 
 239:../../libdaisy/src/dev/oled_ssd130x.h ****     void DrawPixel(uint_fast8_t x, uint_fast8_t y, bool on)
 240:../../libdaisy/src/dev/oled_ssd130x.h ****     {
 241:../../libdaisy/src/dev/oled_ssd130x.h ****         if(x >= width || y >= height)
 242:../../libdaisy/src/dev/oled_ssd130x.h ****             return;
 243:../../libdaisy/src/dev/oled_ssd130x.h ****         if(on)
 244:../../libdaisy/src/dev/oled_ssd130x.h ****             buffer_[x + (y / 8) * width] |= (1 << (y % 8));
 245:../../libdaisy/src/dev/oled_ssd130x.h ****         else
 246:../../libdaisy/src/dev/oled_ssd130x.h ****             buffer_[x + (y / 8) * width] &= ~(1 << (y % 8));
 427              		.loc 6 246 55 is_stmt 0 view .LVU93
 428 00a0 04F00703 		and	r3, r4, #7
 429              		.loc 6 246 49 view .LVU94
 430 00a4 4FF0010E 		mov	lr, #1
 431              		.loc 6 246 28 view .LVU95
 432 00a8 E208     		lsrs	r2, r4, #3
 433 00aa 5946     		mov	r1, fp
 434              		.loc 6 246 49 view .LVU96
 435 00ac 0EFA03FE 		lsl	lr, lr, r3
 436 00b0 0BF11403 		add	r3, fp, #20
 437              		.loc 6 246 42 view .LVU97
 438 00b4 4FFA8EFE 		sxtb	lr, lr
 439 00b8 03EBC212 		add	r2, r3, r2, lsl #7
 440              	.LBE206:
 441              	.LBE205:
 442              	.LBE204:
 443              	.LBE203:
 444              	.LBE202:
 376:../../libdaisy/src/hid/disp/display.h ****             {
 445              		.loc 5 376 19 view .LVU98
 446 00bc 0023     		movs	r3, #0
 447              	.LBB224:
 448              	.LBB219:
 449              	.LBB214:
 450              	.LBB210:
 451              	.LBB207:
 452              		.loc 6 246 42 view .LVU99
 453 00be 6FEA0E08 		mvn	r8, lr
 454 00c2 3244     		add	r2, r2, r6
 455 00c4 0DE0     		b	.L38
 456              	.LVL24:
 457              	.L62:
 458              		.loc 6 246 42 view .LVU100
 459              	.LBE207:
 460              	.LBE210:
 461              	.LBE214:
 462              	.LBE219:
 463              	.LBE224:
 464              	.LBB225:
 465              	.LBI225:
  28:../../libdaisy/src/hid/disp/oled_display.h **** 
  29:../../libdaisy/src/hid/disp/oled_display.h ****     /** 
  30:../../libdaisy/src/hid/disp/oled_display.h ****     Fills the entire display with either on/off.
ARM GAS  C:\Users\VINCIU~1\AppData\Local\Temp\cchCBePv.s 			page 24


  31:../../libdaisy/src/hid/disp/oled_display.h ****     \param on Sets on or off.
  32:../../libdaisy/src/hid/disp/oled_display.h ****     */
  33:../../libdaisy/src/hid/disp/oled_display.h ****     void Fill(bool on) override { driver_.Fill(on); }
  34:../../libdaisy/src/hid/disp/oled_display.h **** 
  35:../../libdaisy/src/hid/disp/oled_display.h ****     /**
  36:../../libdaisy/src/hid/disp/oled_display.h ****     Sets the pixel at the specified coordinate to be on/off.
  37:../../libdaisy/src/hid/disp/oled_display.h ****     \param x   x Coordinate
  38:../../libdaisy/src/hid/disp/oled_display.h ****     \param y   y coordinate
  39:../../libdaisy/src/hid/disp/oled_display.h ****     \param on  on or off
  40:../../libdaisy/src/hid/disp/oled_display.h ****     */
  41:../../libdaisy/src/hid/disp/oled_display.h ****     void DrawPixel(uint_fast8_t x, uint_fast8_t y, bool on) override
 466              		.loc 1 41 10 is_stmt 1 view .LVU101
 467              	.LBB226:
 468              	.LBI226:
 239:../../libdaisy/src/dev/oled_ssd130x.h ****     {
 469              		.loc 6 239 10 view .LVU102
 470              	.LBB227:
 241:../../libdaisy/src/dev/oled_ssd130x.h ****             return;
 471              		.loc 6 241 9 is_stmt 0 view .LVU103
 472 00c6 7F29     		cmp	r1, #127
 473 00c8 06D8     		bhi	.L34
 474 00ca 3F2C     		cmp	r4, #63
 475 00cc 04D8     		bhi	.L34
 244:../../libdaisy/src/dev/oled_ssd130x.h ****         else
 476              		.loc 6 244 42 view .LVU104
 477 00ce 1078     		ldrb	r0, [r2]	@ zero_extendqisi2
 243:../../libdaisy/src/dev/oled_ssd130x.h ****             buffer_[x + (y / 8) * width] |= (1 << (y % 8));
 478              		.loc 6 243 9 view .LVU105
 479 00d0 97B1     		cbz	r7, .L36
 480              	.L59:
 243:../../libdaisy/src/dev/oled_ssd130x.h ****             buffer_[x + (y / 8) * width] |= (1 << (y % 8));
 481              		.loc 6 243 9 view .LVU106
 482              	.LBE227:
 483              	.LBE226:
 484              	.LBE225:
 485              	.LBB228:
 486              	.LBB220:
 487              	.LBB215:
 244:../../libdaisy/src/dev/oled_ssd130x.h ****         else
 488              		.loc 6 244 42 view .LVU107
 489 00d2 4EEA0000 		orr	r0, lr, r0
 490 00d6 1070     		strb	r0, [r2]
 491              	.L34:
 492              	.LBE215:
 493              	.LBE220:
 494              	.LBE228:
 376:../../libdaisy/src/hid/disp/display.h ****             {
 495              		.loc 5 376 13 is_stmt 1 view .LVU108
 496 00d8 0133     		adds	r3, r3, #1
 497              	.LVL25:
 376:../../libdaisy/src/hid/disp/display.h ****             {
 498              		.loc 5 376 26 view .LVU109
 499 00da 0132     		adds	r2, r2, #1
 500 00dc 0131     		adds	r1, r1, #1
 501 00de AB42     		cmp	r3, r5
 502 00e0 13D0     		beq	.L37
 503              	.LVL26:
ARM GAS  C:\Users\VINCIU~1\AppData\Local\Temp\cchCBePv.s 			page 25


 504              	.L38:
 378:../../libdaisy/src/hid/disp/display.h ****                 {
 505              		.loc 5 378 23 is_stmt 0 view .LVU110
 506 00e2 0CFA03F0 		lsl	r0, ip, r3
 378:../../libdaisy/src/hid/disp/display.h ****                 {
 507              		.loc 5 378 17 view .LVU111
 508 00e6 0004     		lsls	r0, r0, #16
 509 00e8 EDD4     		bmi	.L62
 510              	.LVL27:
 511              	.LBB229:
 512              	.LBI202:
 513              		.loc 1 41 10 is_stmt 1 view .LVU112
 514              	.LBB221:
 515              	.LBI203:
 239:../../libdaisy/src/dev/oled_ssd130x.h ****     {
 516              		.loc 6 239 10 view .LVU113
 517              	.LBB216:
 241:../../libdaisy/src/dev/oled_ssd130x.h ****             return;
 518              		.loc 6 241 9 is_stmt 0 view .LVU114
 519 00ea 7F29     		cmp	r1, #127
 520 00ec F4D8     		bhi	.L34
 521 00ee 3F2C     		cmp	r4, #63
 522 00f0 F2D8     		bhi	.L34
 244:../../libdaisy/src/dev/oled_ssd130x.h ****         else
 523              		.loc 6 244 42 view .LVU115
 524 00f2 1078     		ldrb	r0, [r2]	@ zero_extendqisi2
 243:../../libdaisy/src/dev/oled_ssd130x.h ****             buffer_[x + (y / 8) * width] |= (1 << (y % 8));
 525              		.loc 6 243 9 view .LVU116
 526 00f4 002F     		cmp	r7, #0
 527 00f6 ECD0     		beq	.L59
 528              	.L36:
 529              	.LVL28:
 530              	.LBB211:
 531              	.LBI205:
 239:../../libdaisy/src/dev/oled_ssd130x.h ****     {
 532              		.loc 6 239 10 is_stmt 1 view .LVU117
 239:../../libdaisy/src/dev/oled_ssd130x.h ****     {
 533              		.loc 6 239 10 is_stmt 0 view .LVU118
 534              	.LBE211:
 535              	.LBE216:
 536              	.LBE221:
 537              	.LBE229:
 376:../../libdaisy/src/hid/disp/display.h ****             {
 538              		.loc 5 376 13 view .LVU119
 539 00f8 0133     		adds	r3, r3, #1
 540              	.LVL29:
 541              	.LBB230:
 542              	.LBB222:
 543              	.LBB217:
 544              	.LBB212:
 545              	.LBB208:
 546              		.loc 6 246 42 view .LVU120
 547 00fa 08EA0000 		and	r0, r8, r0
 548              	.LBE208:
 549              	.LBE212:
 550              	.LBE217:
 551              	.LBE222:
ARM GAS  C:\Users\VINCIU~1\AppData\Local\Temp\cchCBePv.s 			page 26


 552              	.LBE230:
 376:../../libdaisy/src/hid/disp/display.h ****             {
 553              		.loc 5 376 26 view .LVU121
 554 00fe 0132     		adds	r2, r2, #1
 555 0100 0131     		adds	r1, r1, #1
 556 0102 AB42     		cmp	r3, r5
 557              	.LBB231:
 558              	.LBB223:
 559              	.LBB218:
 560              	.LBB213:
 561              	.LBB209:
 562              		.loc 6 246 42 view .LVU122
 563 0104 02F8010C 		strb	r0, [r2, #-1]
 564              		.loc 6 246 42 view .LVU123
 565              	.LBE209:
 566              	.LBE213:
 567              	.LBE218:
 568              	.LBE223:
 569              	.LBE231:
 376:../../libdaisy/src/hid/disp/display.h ****             {
 570              		.loc 5 376 13 is_stmt 1 view .LVU124
 571              	.LVL30:
 376:../../libdaisy/src/hid/disp/display.h ****             {
 572              		.loc 5 376 26 view .LVU125
 573 0108 EBD1     		bne	.L38
 574              	.LVL31:
 575              	.L37:
 373:../../libdaisy/src/hid/disp/display.h ****         {
 576              		.loc 5 373 9 view .LVU126
 373:../../libdaisy/src/hid/disp/display.h ****         {
 577              		.loc 5 373 22 view .LVU127
 578 010a D145     		cmp	r9, r10
 579 010c 04F10104 		add	r4, r4, #1
 580 0110 C3D1     		bne	.L32
 581 0112 DDF81080 		ldr	r8, [sp, #16]
 582              	.LVL32:
 583              	.L31:
 584              	.LBB232:
 585              	.LBB233:
 133:../../libdaisy/src/hid/disp/display.h ****         currentY_ = (y >= Height()) ? Height() - 1 : y;
 586              		.loc 5 133 33 is_stmt 0 view .LVU128
 587 0116 3268     		ldr	r2, [r6]
 588              	.LBE233:
 589              	.LBE232:
 394:../../libdaisy/src/hid/disp/display.h **** 
 590              		.loc 5 394 18 view .LVU129
 591 0118 0BEB0504 		add	r4, fp, r5
 592 011c 2649     		ldr	r1, .L67
 593              	.LBB238:
 594              	.LBB234:
 133:../../libdaisy/src/hid/disp/display.h ****         currentY_ = (y >= Height()) ? Height() - 1 : y;
 595              		.loc 5 133 33 view .LVU130
 596 011e D368     		ldr	r3, [r2, #12]
 597              	.LBE234:
 598              	.LBE238:
 394:../../libdaisy/src/hid/disp/display.h **** 
 599              		.loc 5 394 18 view .LVU131
ARM GAS  C:\Users\VINCIU~1\AppData\Local\Temp\cchCBePv.s 			page 27


 600 0120 A4B2     		uxth	r4, r4
 601              	.LVL33:
 602              	.LBB239:
 603              	.LBI232:
 131:../../libdaisy/src/hid/disp/display.h ****     {
 604              		.loc 5 131 10 is_stmt 1 view .LVU132
 605              	.LBB235:
 133:../../libdaisy/src/hid/disp/display.h ****         currentY_ = (y >= Height()) ? Height() - 1 : y;
 606              		.loc 5 133 9 view .LVU133
 607 0122 8B42     		cmp	r3, r1
 608 0124 34D1     		bne	.L63
 133:../../libdaisy/src/hid/disp/display.h ****         currentY_ = (y >= Height()) ? Height() - 1 : y;
 609              		.loc 5 133 33 is_stmt 0 view .LVU134
 610 0126 8020     		movs	r0, #128
 611              	.L39:
 133:../../libdaisy/src/hid/disp/display.h ****         currentY_ = (y >= Height()) ? Height() - 1 : y;
 612              		.loc 5 133 19 view .LVU135
 613 0128 8442     		cmp	r4, r0
 614 012a 04D3     		bcc	.L40
 133:../../libdaisy/src/hid/disp/display.h ****         currentY_ = (y >= Height()) ? Height() - 1 : y;
 615              		.loc 5 133 44 view .LVU136
 616 012c D368     		ldr	r3, [r2, #12]
 617 012e 2249     		ldr	r1, .L67
 618 0130 8B42     		cmp	r3, r1
 619 0132 3AD1     		bne	.L64
 620 0134 7F24     		movs	r4, #127
 621              	.LVL34:
 622              	.L40:
 134:../../libdaisy/src/hid/disp/display.h ****     }
 623              		.loc 5 134 34 view .LVU137
 624 0136 9368     		ldr	r3, [r2, #8]
 625 0138 204A     		ldr	r2, .L67+4
 133:../../libdaisy/src/hid/disp/display.h ****         currentY_ = (y >= Height()) ? Height() - 1 : y;
 626              		.loc 5 133 19 view .LVU138
 627 013a B480     		strh	r4, [r6, #4]	@ movhi
 134:../../libdaisy/src/hid/disp/display.h ****     }
 628              		.loc 5 134 9 is_stmt 1 view .LVU139
 629 013c 9342     		cmp	r3, r2
 630 013e 24D1     		bne	.L65
 134:../../libdaisy/src/hid/disp/display.h ****     }
 631              		.loc 5 134 34 is_stmt 0 view .LVU140
 632 0140 4020     		movs	r0, #64
 633              	.L42:
 134:../../libdaisy/src/hid/disp/display.h ****     }
 634              		.loc 5 134 19 view .LVU141
 635 0142 029B     		ldr	r3, [sp, #8]
 636 0144 8342     		cmp	r3, r0
 637 0146 06D3     		bcc	.L43
 134:../../libdaisy/src/hid/disp/display.h ****     }
 638              		.loc 5 134 46 view .LVU142
 639 0148 3368     		ldr	r3, [r6]
 640 014a 1C4A     		ldr	r2, .L67+4
 641 014c 9B68     		ldr	r3, [r3, #8]
 642 014e 9342     		cmp	r3, r2
 643 0150 25D1     		bne	.L66
 644 0152 3F23     		movs	r3, #63
 645 0154 0293     		str	r3, [sp, #8]
ARM GAS  C:\Users\VINCIU~1\AppData\Local\Temp\cchCBePv.s 			page 28


 646              	.LVL35:
 647              	.L43:
 134:../../libdaisy/src/hid/disp/display.h ****     }
 648              		.loc 5 134 19 view .LVU143
 649 0156 029B     		ldr	r3, [sp, #8]
 650 0158 F380     		strh	r3, [r6, #6]	@ movhi
 651              	.LVL36:
 652              	.L25:
 134:../../libdaisy/src/hid/disp/display.h ****     }
 653              		.loc 5 134 19 view .LVU144
 654              	.LBE235:
 655              	.LBE239:
 656              	.LBE201:
 657              	.LBE200:
 404:../../libdaisy/src/hid/disp/display.h ****         {
 405:../../libdaisy/src/hid/disp/display.h ****             if(((ChildType*)(this))->ChildType::WriteChar(*str, font, on)
 406:../../libdaisy/src/hid/disp/display.h ****                != *str)
 658              		.loc 5 406 16 view .LVU145
 659 015a 019B     		ldr	r3, [sp, #4]
 660 015c 1878     		ldrb	r0, [r3]	@ zero_extendqisi2
 405:../../libdaisy/src/hid/disp/display.h ****                != *str)
 661              		.loc 5 405 13 view .LVU146
 662 015e 4045     		cmp	r0, r8
 663 0160 07D1     		bne	.L23
 664              	.LVL37:
 403:../../libdaisy/src/hid/disp/display.h ****         {
 665              		.loc 5 403 9 is_stmt 1 view .LVU147
 666 0162 13F8018F 		ldrb	r8, [r3, #1]!	@ zero_extendqisi2
 667              	.LVL38:
 403:../../libdaisy/src/hid/disp/display.h ****         {
 668              		.loc 5 403 9 is_stmt 0 view .LVU148
 669 0166 0193     		str	r3, [sp, #4]
 670 0168 B8F1000F 		cmp	r8, #0
 671 016c 7FF460AF 		bne	.L46
 672              	.LVL39:
 673              	.L45:
 674              	.LBB244:
 675              	.LBB242:
 362:../../libdaisy/src/hid/disp/display.h **** 
 676              		.loc 5 362 20 view .LVU149
 677 0170 0020     		movs	r0, #0
 678              	.L23:
 679              	.LBE242:
 680              	.LBE244:
 407:../../libdaisy/src/hid/disp/display.h ****             {
 408:../../libdaisy/src/hid/disp/display.h ****                 // Char could not be written
 409:../../libdaisy/src/hid/disp/display.h ****                 return *str;
 410:../../libdaisy/src/hid/disp/display.h ****             }
 411:../../libdaisy/src/hid/disp/display.h **** 
 412:../../libdaisy/src/hid/disp/display.h ****             // Next char
 413:../../libdaisy/src/hid/disp/display.h ****             str++;
 414:../../libdaisy/src/hid/disp/display.h ****         }
 415:../../libdaisy/src/hid/disp/display.h **** 
 416:../../libdaisy/src/hid/disp/display.h ****         // Everything ok
 417:../../libdaisy/src/hid/disp/display.h ****         return *str;
 418:../../libdaisy/src/hid/disp/display.h ****     }
 681              		.loc 5 418 5 view .LVU150
ARM GAS  C:\Users\VINCIU~1\AppData\Local\Temp\cchCBePv.s 			page 29


 682 0172 09B0     		add	sp, sp, #36
 683              		.cfi_remember_state
 684              		.cfi_def_cfa_offset 36
 685              		@ sp needed
 686 0174 BDE8F08F 		pop	{r4, r5, r6, r7, r8, r9, r10, fp, pc}
 687              	.LVL40:
 688              	.L27:
 689              		.cfi_restore_state
 690              	.LBB245:
 691              	.LBB243:
 362:../../libdaisy/src/hid/disp/display.h **** 
 692              		.loc 5 362 20 view .LVU151
 693 0178 4FF00008 		mov	r8, #0
 694              	.LVL41:
 362:../../libdaisy/src/hid/disp/display.h **** 
 695              		.loc 5 362 20 view .LVU152
 696 017c EDE7     		b	.L25
 697              	.LVL42:
 698              	.L60:
 365:../../libdaisy/src/hid/disp/display.h ****            || Height() < (currentY_ + font.FontHeight))
 699              		.loc 5 365 17 view .LVU153
 700 017e 3046     		mov	r0, r6
 701 0180 9847     		blx	r3
 702              	.LVL43:
 703 0182 62E7     		b	.L26
 704              	.L61:
 366:../../libdaisy/src/hid/disp/display.h ****         {
 705              		.loc 5 366 21 view .LVU154
 706 0184 3046     		mov	r0, r6
 707 0186 9847     		blx	r3
 708              	.LVL44:
 709 0188 6BE7     		b	.L28
 710              	.LVL45:
 711              	.L65:
 712              	.LBB240:
 713              	.LBB236:
 134:../../libdaisy/src/hid/disp/display.h ****     }
 714              		.loc 5 134 33 view .LVU155
 715 018a 3046     		mov	r0, r6
 716 018c 9847     		blx	r3
 717              	.LVL46:
 718 018e D8E7     		b	.L42
 719              	.LVL47:
 720              	.L63:
 133:../../libdaisy/src/hid/disp/display.h ****         currentY_ = (y >= Height()) ? Height() - 1 : y;
 721              		.loc 5 133 32 view .LVU156
 722 0190 3046     		mov	r0, r6
 723 0192 9847     		blx	r3
 724              	.LVL48:
 133:../../libdaisy/src/hid/disp/display.h ****         currentY_ = (y >= Height()) ? Height() - 1 : y;
 725              		.loc 5 133 44 view .LVU157
 726 0194 3268     		ldr	r2, [r6]
 727 0196 C7E7     		b	.L39
 728              	.LVL49:
 729              	.L29:
 133:../../libdaisy/src/hid/disp/display.h ****         currentY_ = (y >= Height()) ? Height() - 1 : y;
 730              		.loc 5 133 44 view .LVU158
ARM GAS  C:\Users\VINCIU~1\AppData\Local\Temp\cchCBePv.s 			page 30


 731              	.LBE236:
 732              	.LBE240:
 394:../../libdaisy/src/hid/disp/display.h **** 
 733              		.loc 5 394 19 view .LVU159
 734 0198 B6F804B0 		ldrh	fp, [r6, #4]
 735 019c BBE7     		b	.L31
 736              	.LVL50:
 737              	.L66:
 738              	.LBB241:
 739              	.LBB237:
 134:../../libdaisy/src/hid/disp/display.h ****     }
 740              		.loc 5 134 45 view .LVU160
 741 019e 3046     		mov	r0, r6
 742 01a0 9847     		blx	r3
 743              	.LVL51:
 134:../../libdaisy/src/hid/disp/display.h ****     }
 744              		.loc 5 134 19 view .LVU161
 745 01a2 0138     		subs	r0, r0, #1
 746 01a4 83B2     		uxth	r3, r0
 747 01a6 0293     		str	r3, [sp, #8]
 748              	.LVL52:
 134:../../libdaisy/src/hid/disp/display.h ****     }
 749              		.loc 5 134 19 view .LVU162
 750 01a8 D5E7     		b	.L43
 751              	.LVL53:
 752              	.L64:
 133:../../libdaisy/src/hid/disp/display.h ****         currentY_ = (y >= Height()) ? Height() - 1 : y;
 753              		.loc 5 133 43 view .LVU163
 754 01aa 3046     		mov	r0, r6
 755 01ac 9847     		blx	r3
 756              	.LVL54:
 133:../../libdaisy/src/hid/disp/display.h ****         currentY_ = (y >= Height()) ? Height() - 1 : y;
 757              		.loc 5 133 19 view .LVU164
 758 01ae 0138     		subs	r0, r0, #1
 134:../../libdaisy/src/hid/disp/display.h ****     }
 759              		.loc 5 134 34 view .LVU165
 760 01b0 3268     		ldr	r2, [r6]
 133:../../libdaisy/src/hid/disp/display.h ****         currentY_ = (y >= Height()) ? Height() - 1 : y;
 761              		.loc 5 133 19 view .LVU166
 762 01b2 84B2     		uxth	r4, r0
 763              	.LVL55:
 133:../../libdaisy/src/hid/disp/display.h ****         currentY_ = (y >= Height()) ? Height() - 1 : y;
 764              		.loc 5 133 19 view .LVU167
 765 01b4 BFE7     		b	.L40
 766              	.L68:
 767 01b6 00BF     		.align	2
 768              	.L67:
 769 01b8 00000000 		.word	_ZNK5daisy11OledDisplayINS_13SSD130xDriverILj128ELj64ENS_24SSD130x4WireSpiTransportEEEE5Widt
 770 01bc 00000000 		.word	_ZNK5daisy11OledDisplayINS_13SSD130xDriverILj128ELj64ENS_24SSD130x4WireSpiTransportEEEE6Heig
 771              	.LBE237:
 772              	.LBE241:
 773              	.LBE243:
 774              	.LBE245:
 775              		.cfi_endproc
 776              	.LFE4336:
 778              		.section	.text._ZN5daisy25OneBitGraphicsDisplayImplINS_11OledDisplayINS_13SSD130xDriverILj128ELj64
 779              		.align	1
ARM GAS  C:\Users\VINCIU~1\AppData\Local\Temp\cchCBePv.s 			page 31


 780              		.p2align 2,,3
 781              		.weak	_ZN5daisy25OneBitGraphicsDisplayImplINS_11OledDisplayINS_13SSD130xDriverILj128ELj64ENS_24SSD
 782              		.syntax unified
 783              		.thumb
 784              		.thumb_func
 785              		.fpu fpv5-d16
 787              	_ZN5daisy25OneBitGraphicsDisplayImplINS_11OledDisplayINS_13SSD130xDriverILj128ELj64ENS_24SSD130x4Wi
 788              	.LVL56:
 789              	.LFB4340:
 217:../../libdaisy/src/hid/disp/display.h ****                   uint_fast8_t y1,
 790              		.loc 5 217 10 is_stmt 1 view -0
 791              		.cfi_startproc
 792              		@ args = 12, pretend = 0, frame = 24
 793              		@ frame_needed = 0, uses_anonymous_args = 0
 217:../../libdaisy/src/hid/disp/display.h ****                   uint_fast8_t y1,
 794              		.loc 5 217 10 is_stmt 0 view .LVU169
 795 0000 2DE9F04F 		push	{r4, r5, r6, r7, r8, r9, r10, fp, lr}
 796              		.cfi_def_cfa_offset 36
 797              		.cfi_offset 4, -36
 798              		.cfi_offset 5, -32
 799              		.cfi_offset 6, -28
 800              		.cfi_offset 7, -24
 801              		.cfi_offset 8, -20
 802              		.cfi_offset 9, -16
 803              		.cfi_offset 10, -12
 804              		.cfi_offset 11, -8
 805              		.cfi_offset 14, -4
 806 0004 87B0     		sub	sp, sp, #28
 807              		.cfi_def_cfa_offset 64
 217:../../libdaisy/src/hid/disp/display.h ****                   uint_fast8_t y1,
 808              		.loc 5 217 10 view .LVU170
 809 0006 9DF84850 		ldrb	r5, [sp, #72]	@ zero_extendqisi2
 810 000a 109C     		ldr	r4, [sp, #64]
 811 000c 2E46     		mov	r6, r5
 812 000e 0195     		str	r5, [sp, #4]
 813 0010 9DF84450 		ldrb	r5, [sp, #68]	@ zero_extendqisi2
 814              	.LBB317:
 224:../../libdaisy/src/hid/disp/display.h ****         {
 815              		.loc 5 224 9 view .LVU171
 816 0014 9EB3     		cbz	r6, .L70
 817              	.LVL57:
 224:../../libdaisy/src/hid/disp/display.h ****         {
 818              		.loc 5 224 9 view .LVU172
 819              	.LBE317:
 820              	.LBB439:
 821              	.LBB440:
 226:../../libdaisy/src/hid/disp/display.h ****             {
 822              		.loc 5 226 40 is_stmt 1 view .LVU173
 823 0016 9942     		cmp	r1, r3
 824 0018 2ED8     		bhi	.L69
 825 001a 9946     		mov	r9, r3
 826              	.LVL58:
 827              	.L73:
 828              	.LBB441:
 228:../../libdaisy/src/hid/disp/display.h ****                 {
 829              		.loc 5 228 44 view .LVU174
 830 001c A242     		cmp	r2, r4
ARM GAS  C:\Users\VINCIU~1\AppData\Local\Temp\cchCBePv.s 			page 32


 831 001e 28D8     		bhi	.L76
 832              	.LBB442:
 833              	.LBB443:
 834              	.LBB444:
 241:../../libdaisy/src/dev/oled_ssd130x.h ****             return;
 835              		.loc 6 241 14 is_stmt 0 view .LVU175
 836 0020 7F29     		cmp	r1, #127
 837 0022 1646     		mov	r6, r2
 838 0024 94BF     		ite	ls
 839 0026 0023     		movls	r3, #0
 840 0028 0123     		movhi	r3, #1
 841 002a 08E0     		b	.L77
 842              	.LVL59:
 843              	.L160:
 244:../../libdaisy/src/dev/oled_ssd130x.h ****         else
 844              		.loc 6 244 42 view .LVU176
 845 002c 9CF81480 		ldrb	r8, [ip, #20]	@ zero_extendqisi2
 846 0030 4EEA080E 		orr	lr, lr, r8
 847 0034 8CF814E0 		strb	lr, [ip, #20]
 848              	.LVL60:
 849              	.L74:
 244:../../libdaisy/src/dev/oled_ssd130x.h ****         else
 850              		.loc 6 244 42 view .LVU177
 851              	.LBE444:
 852              	.LBE443:
 853              	.LBE442:
 228:../../libdaisy/src/hid/disp/display.h ****                 {
 854              		.loc 5 228 17 is_stmt 1 view .LVU178
 855 0038 0136     		adds	r6, r6, #1
 856              	.LVL61:
 228:../../libdaisy/src/hid/disp/display.h ****                 {
 857              		.loc 5 228 44 view .LVU179
 858 003a B442     		cmp	r4, r6
 859 003c 19D3     		bcc	.L76
 860              	.L77:
 861              	.LVL62:
 862              	.LBB458:
 863              	.LBI442:
 864              		.loc 1 41 10 view .LVU180
 865              	.LBB455:
 866              	.LBI443:
 239:../../libdaisy/src/dev/oled_ssd130x.h ****     {
 867              		.loc 6 239 10 view .LVU181
 868              	.LBB452:
 241:../../libdaisy/src/dev/oled_ssd130x.h ****             return;
 869              		.loc 6 241 9 is_stmt 0 view .LVU182
 870 003e 3F2E     		cmp	r6, #63
 871 0040 FAD8     		bhi	.L74
 241:../../libdaisy/src/dev/oled_ssd130x.h ****             return;
 872              		.loc 6 241 9 view .LVU183
 873 0042 002B     		cmp	r3, #0
 874 0044 F8D1     		bne	.L74
 875              	.LVL63:
 876              	.LBB445:
 877              	.LBI445:
 239:../../libdaisy/src/dev/oled_ssd130x.h ****     {
 878              		.loc 6 239 10 is_stmt 1 view .LVU184
ARM GAS  C:\Users\VINCIU~1\AppData\Local\Temp\cchCBePv.s 			page 33


 239:../../libdaisy/src/dev/oled_ssd130x.h ****     {
 879              		.loc 6 239 10 is_stmt 0 view .LVU185
 880              	.LBE445:
 244:../../libdaisy/src/dev/oled_ssd130x.h ****         else
 881              		.loc 6 244 28 view .LVU186
 882 0046 4FEAD60C 		lsr	ip, r6, #3
 244:../../libdaisy/src/dev/oled_ssd130x.h ****         else
 883              		.loc 6 244 54 view .LVU187
 884 004a 06F0070E 		and	lr, r6, #7
 244:../../libdaisy/src/dev/oled_ssd130x.h ****         else
 885              		.loc 6 244 48 view .LVU188
 886 004e 4FF00108 		mov	r8, #1
 244:../../libdaisy/src/dev/oled_ssd130x.h ****         else
 887              		.loc 6 244 42 view .LVU189
 888 0052 01EBCC1C 		add	ip, r1, ip, lsl #7
 244:../../libdaisy/src/dev/oled_ssd130x.h ****         else
 889              		.loc 6 244 48 view .LVU190
 890 0056 08FA0EFE 		lsl	lr, r8, lr
 244:../../libdaisy/src/dev/oled_ssd130x.h ****         else
 891              		.loc 6 244 42 view .LVU191
 892 005a 8444     		add	ip, ip, r0
 243:../../libdaisy/src/dev/oled_ssd130x.h ****             buffer_[x + (y / 8) * width] |= (1 << (y % 8));
 893              		.loc 6 243 9 view .LVU192
 894 005c 002D     		cmp	r5, #0
 895 005e E5D1     		bne	.L160
 896              	.LBB449:
 897              	.LBB446:
 898              		.loc 6 246 42 view .LVU193
 899 0060 9CF814B0 		ldrb	fp, [ip, #20]	@ zero_extendqisi2
 900              	.LBE446:
 901              	.LBE449:
 902              	.LBE452:
 903              	.LBE455:
 904              	.LBE458:
 228:../../libdaisy/src/hid/disp/display.h ****                 {
 905              		.loc 5 228 17 view .LVU194
 906 0064 0136     		adds	r6, r6, #1
 907              	.LVL64:
 908              	.LBB459:
 909              	.LBB456:
 910              	.LBB453:
 911              	.LBB450:
 912              	.LBB447:
 913              		.loc 6 246 42 view .LVU195
 914 0066 2BEA0E0A 		bic	r10, fp, lr
 915              	.LBE447:
 916              	.LBE450:
 917              	.LBE453:
 918              	.LBE456:
 919              	.LBE459:
 228:../../libdaisy/src/hid/disp/display.h ****                 {
 920              		.loc 5 228 44 view .LVU196
 921 006a B442     		cmp	r4, r6
 922              	.LBB460:
 923              	.LBB457:
 924              	.LBB454:
 925              	.LBB451:
ARM GAS  C:\Users\VINCIU~1\AppData\Local\Temp\cchCBePv.s 			page 34


 926              	.LBB448:
 927              		.loc 6 246 42 view .LVU197
 928 006c 8CF814A0 		strb	r10, [ip, #20]
 929              	.LVL65:
 930              		.loc 6 246 42 view .LVU198
 931              	.LBE448:
 932              	.LBE451:
 933              	.LBE454:
 934              	.LBE457:
 935              	.LBE460:
 228:../../libdaisy/src/hid/disp/display.h ****                 {
 936              		.loc 5 228 17 is_stmt 1 view .LVU199
 228:../../libdaisy/src/hid/disp/display.h ****                 {
 937              		.loc 5 228 44 view .LVU200
 938 0070 E5D2     		bcs	.L77
 939              	.LVL66:
 940              	.L76:
 228:../../libdaisy/src/hid/disp/display.h ****                 {
 941              		.loc 5 228 44 is_stmt 0 view .LVU201
 942              	.LBE441:
 226:../../libdaisy/src/hid/disp/display.h ****             {
 943              		.loc 5 226 13 is_stmt 1 view .LVU202
 944 0072 0131     		adds	r1, r1, #1
 945              	.LVL67:
 226:../../libdaisy/src/hid/disp/display.h ****             {
 946              		.loc 5 226 40 view .LVU203
 947 0074 8945     		cmp	r9, r1
 948 0076 D1D2     		bcs	.L73
 949              	.LVL68:
 950              	.L69:
 226:../../libdaisy/src/hid/disp/display.h ****             {
 951              		.loc 5 226 40 is_stmt 0 view .LVU204
 952              	.LBE440:
 953              	.LBE439:
 241:../../libdaisy/src/hid/disp/display.h **** 
 954              		.loc 5 241 5 view .LVU205
 955 0078 07B0     		add	sp, sp, #28
 956              		.cfi_remember_state
 957              		.cfi_def_cfa_offset 36
 958              		@ sp needed
 959 007a BDE8F08F 		pop	{r4, r5, r6, r7, r8, r9, r10, fp, pc}
 960              	.LVL69:
 961              	.L70:
 962              		.cfi_restore_state
 963              	.LBB461:
 964              	.LBB318:
 965              	.LBI318:
 181:../../libdaisy/src/hid/disp/display.h ****                   uint_fast8_t y1,
 966              		.loc 5 181 10 is_stmt 1 view .LVU206
 967              	.LBB319:
 187:../../libdaisy/src/hid/disp/display.h ****         int_fast16_t deltaY = abs((int_fast16_t)y2 - (int_fast16_t)y1);
 968              		.loc 5 187 52 is_stmt 0 view .LVU207
 969 007e A3EB0108 		sub	r8, r3, r1
 187:../../libdaisy/src/hid/disp/display.h ****         int_fast16_t deltaY = abs((int_fast16_t)y2 - (int_fast16_t)y1);
 970              		.loc 5 187 22 view .LVU208
 971 0082 B8F1000F 		cmp	r8, #0
 972 0086 B8BF     		it	lt
ARM GAS  C:\Users\VINCIU~1\AppData\Local\Temp\cchCBePv.s 			page 35


 973 0088 C8F10008 		rsblt	r8, r8, #0
 974              	.LVL70:
 189:../../libdaisy/src/hid/disp/display.h ****         int_fast16_t signY  = ((y1 < y2) ? 1 : -1);
 975              		.loc 5 189 42 view .LVU209
 976 008c 9942     		cmp	r1, r3
 977 008e C0F04E81 		bcc	.L78
 978              	.LVL71:
 979              	.LBB320:
 980              	.LBI320:
 981              		.loc 1 41 10 is_stmt 1 view .LVU210
 982              	.LBB321:
 983              	.LBI321:
 239:../../libdaisy/src/dev/oled_ssd130x.h ****     {
 984              		.loc 6 239 10 view .LVU211
 985              	.LBB322:
 241:../../libdaisy/src/dev/oled_ssd130x.h ****             return;
 986              		.loc 6 241 14 is_stmt 0 view .LVU212
 987 0092 7F2B     		cmp	r3, #127
 988              	.LBE322:
 989              	.LBE321:
 990              	.LBE320:
 189:../../libdaisy/src/hid/disp/display.h ****         int_fast16_t signY  = ((y1 < y2) ? 1 : -1);
 991              		.loc 5 189 42 view .LVU213
 992 0094 4FF0FF3A 		mov	r10, #-1
 993              	.LBB333:
 994              	.LBB329:
 995              	.LBB325:
 241:../../libdaisy/src/dev/oled_ssd130x.h ****             return;
 996              		.loc 6 241 14 view .LVU214
 997 0098 94BF     		ite	ls
 998 009a 0026     		movls	r6, #0
 999 009c 0126     		movhi	r6, #1
 241:../../libdaisy/src/dev/oled_ssd130x.h ****             return;
 1000              		.loc 6 241 28 view .LVU215
 1001 009e 3F2A     		cmp	r2, #63
 241:../../libdaisy/src/dev/oled_ssd130x.h ****             return;
 1002              		.loc 6 241 14 view .LVU216
 1003 00a0 0096     		str	r6, [sp]
 241:../../libdaisy/src/dev/oled_ssd130x.h ****             return;
 1004              		.loc 6 241 28 view .LVU217
 1005 00a2 94BF     		ite	ls
 1006 00a4 0027     		movls	r7, #0
 1007 00a6 0127     		movhi	r7, #1
 1008 00a8 0297     		str	r7, [sp, #8]
 241:../../libdaisy/src/dev/oled_ssd130x.h ****             return;
 1009              		.loc 6 241 9 view .LVU218
 1010 00aa A6B9     		cbnz	r6, .L79
 1011 00ac 9FB9     		cbnz	r7, .L79
 1012              	.LVL72:
 1013              	.L120:
 244:../../libdaisy/src/dev/oled_ssd130x.h ****         else
 1014              		.loc 6 244 28 view .LVU219
 1015 00ae D608     		lsrs	r6, r2, #3
 244:../../libdaisy/src/dev/oled_ssd130x.h ****         else
 1016              		.loc 6 244 54 view .LVU220
 1017 00b0 02F0070C 		and	ip, r2, #7
 244:../../libdaisy/src/dev/oled_ssd130x.h ****         else
ARM GAS  C:\Users\VINCIU~1\AppData\Local\Temp\cchCBePv.s 			page 36


 1018              		.loc 6 244 48 view .LVU221
 1019 00b4 0127     		movs	r7, #1
 244:../../libdaisy/src/dev/oled_ssd130x.h ****         else
 1020              		.loc 6 244 42 view .LVU222
 1021 00b6 03EBC616 		add	r6, r3, r6, lsl #7
 1022 00ba 0644     		add	r6, r6, r0
 243:../../libdaisy/src/dev/oled_ssd130x.h ****             buffer_[x + (y / 8) * width] |= (1 << (y % 8));
 1023              		.loc 6 243 9 view .LVU223
 1024 00bc 002D     		cmp	r5, #0
 1025 00be 00F09481 		beq	.L80
 244:../../libdaisy/src/dev/oled_ssd130x.h ****         else
 1026              		.loc 6 244 48 view .LVU224
 1027 00c2 07FA0CF7 		lsl	r7, r7, ip
 244:../../libdaisy/src/dev/oled_ssd130x.h ****         else
 1028              		.loc 6 244 42 view .LVU225
 1029 00c6 96F814C0 		ldrb	ip, [r6, #20]	@ zero_extendqisi2
 1030 00ca 47EA0C07 		orr	r7, r7, ip
 1031 00ce 3775     		strb	r7, [r6, #20]
 1032 00d0 0026     		movs	r6, #0
 1033 00d2 0296     		str	r6, [sp, #8]
 1034 00d4 0096     		str	r6, [sp]
 1035              	.L79:
 1036              	.LVL73:
 244:../../libdaisy/src/dev/oled_ssd130x.h ****         else
 1037              		.loc 6 244 42 view .LVU226
 1038              	.LBE325:
 1039              	.LBE329:
 1040              	.LBE333:
 199:../../libdaisy/src/hid/disp/display.h ****         {
 1041              		.loc 5 199 26 is_stmt 1 view .LVU227
 1042 00d6 9942     		cmp	r1, r3
 1043 00d8 00F09781 		beq	.L161
 1044              	.L82:
 1045              	.LVL74:
 187:../../libdaisy/src/hid/disp/display.h ****         int_fast16_t deltaY = abs((int_fast16_t)y2 - (int_fast16_t)y1);
 1046              		.loc 5 187 22 is_stmt 0 view .LVU228
 1047 00dc 4646     		mov	r6, r8
 1048 00de 9446     		mov	ip, r2
 1049 00e0 8E46     		mov	lr, r1
 1050              	.LVL75:
 1051              	.L84:
 1052              	.LBB334:
 1053              	.LBI334:
 1054              		.loc 1 41 10 is_stmt 1 view .LVU229
 1055              	.LBB335:
 1056              	.LBI335:
 239:../../libdaisy/src/dev/oled_ssd130x.h ****     {
 1057              		.loc 6 239 10 view .LVU230
 1058              	.LBB336:
 241:../../libdaisy/src/dev/oled_ssd130x.h ****             return;
 1059              		.loc 6 241 9 is_stmt 0 view .LVU231
 1060 00e2 BEF17F0F 		cmp	lr, #127
 1061 00e6 16D8     		bhi	.L85
 1062 00e8 BCF13F0F 		cmp	ip, #63
 1063 00ec 13D8     		bhi	.L85
 244:../../libdaisy/src/dev/oled_ssd130x.h ****         else
 1064              		.loc 6 244 28 view .LVU232
ARM GAS  C:\Users\VINCIU~1\AppData\Local\Temp\cchCBePv.s 			page 37


 1065 00ee 4FEADC07 		lsr	r7, ip, #3
 244:../../libdaisy/src/dev/oled_ssd130x.h ****         else
 1066              		.loc 6 244 54 view .LVU233
 1067 00f2 0CF0070B 		and	fp, ip, #7
 244:../../libdaisy/src/dev/oled_ssd130x.h ****         else
 1068              		.loc 6 244 48 view .LVU234
 1069 00f6 4FF00109 		mov	r9, #1
 244:../../libdaisy/src/dev/oled_ssd130x.h ****         else
 1070              		.loc 6 244 42 view .LVU235
 1071 00fa 0EEBC717 		add	r7, lr, r7, lsl #7
 1072 00fe 0744     		add	r7, r7, r0
 243:../../libdaisy/src/dev/oled_ssd130x.h ****             buffer_[x + (y / 8) * width] |= (1 << (y % 8));
 1073              		.loc 6 243 9 view .LVU236
 1074 0100 002D     		cmp	r5, #0
 1075 0102 00F03981 		beq	.L86
 244:../../libdaisy/src/dev/oled_ssd130x.h ****         else
 1076              		.loc 6 244 48 view .LVU237
 1077 0106 09FA0BF9 		lsl	r9, r9, fp
 244:../../libdaisy/src/dev/oled_ssd130x.h ****         else
 1078              		.loc 6 244 42 view .LVU238
 1079 010a 97F814B0 		ldrb	fp, [r7, #20]	@ zero_extendqisi2
 1080 010e 49EA0B09 		orr	r9, r9, fp
 1081 0112 87F81490 		strb	r9, [r7, #20]
 1082              	.L85:
 1083              	.LVL76:
 244:../../libdaisy/src/dev/oled_ssd130x.h ****         else
 1084              		.loc 6 244 42 view .LVU239
 1085              	.LBE336:
 1086              	.LBE335:
 1087              	.LBE334:
 203:../../libdaisy/src/hid/disp/display.h ****             {
 1088              		.loc 5 203 13 view .LVU240
 1089 0116 7700     		lsls	r7, r6, #1
 1090              	.LVL77:
 206:../../libdaisy/src/hid/disp/display.h ****             }
 1091              		.loc 5 206 20 view .LVU241
 1092 0118 18BF     		it	ne
 1093 011a D644     		addne	lr, lr, r10
 1094              	.LVL78:
 209:../../libdaisy/src/hid/disp/display.h ****             {
 1095              		.loc 5 209 13 view .LVU242
 1096 011c B845     		cmp	r8, r7
 1097 011e 02DD     		ble	.L88
 211:../../libdaisy/src/hid/disp/display.h ****                 y1 += signY;
 1098              		.loc 5 211 23 view .LVU243
 1099 0120 4644     		add	r6, r6, r8
 1100              	.LVL79:
 212:../../libdaisy/src/hid/disp/display.h ****             }
 1101              		.loc 5 212 20 view .LVU244
 1102 0122 0CF1FF3C 		add	ip, ip, #-1
 1103              	.LVL80:
 1104              	.L88:
 199:../../libdaisy/src/hid/disp/display.h ****         {
 1105              		.loc 5 199 26 is_stmt 1 view .LVU245
 1106 0126 7345     		cmp	r3, lr
 1107 0128 DBD1     		bne	.L84
 199:../../libdaisy/src/hid/disp/display.h ****         {
ARM GAS  C:\Users\VINCIU~1\AppData\Local\Temp\cchCBePv.s 			page 38


 1108              		.loc 5 199 26 is_stmt 0 view .LVU246
 1109 012a 6245     		cmp	r2, ip
 1110 012c D9D1     		bne	.L84
 1111 012e 0026     		movs	r6, #0
 1112              	.LVL81:
 199:../../libdaisy/src/hid/disp/display.h ****         {
 1113              		.loc 5 199 26 view .LVU247
 1114 0130 0496     		str	r6, [sp, #16]
 1115              	.LVL82:
 1116              	.L81:
 199:../../libdaisy/src/hid/disp/display.h ****         {
 1117              		.loc 5 199 26 view .LVU248
 1118              	.LBE319:
 1119              	.LBE318:
 1120              	.LBB349:
 1121              	.LBI349:
 181:../../libdaisy/src/hid/disp/display.h ****                   uint_fast8_t y1,
 1122              		.loc 5 181 10 is_stmt 1 view .LVU249
 1123              	.LBB350:
 188:../../libdaisy/src/hid/disp/display.h ****         int_fast16_t signX  = ((x1 < x2) ? 1 : -1);
 1124              		.loc 5 188 52 is_stmt 0 view .LVU250
 1125 0132 A4EB0209 		sub	r9, r4, r2
 1126              	.LBB351:
 1127              	.LBB352:
 1128              	.LBB353:
 241:../../libdaisy/src/dev/oled_ssd130x.h ****             return;
 1129              		.loc 6 241 9 view .LVU251
 1130 0136 009F     		ldr	r7, [sp]
 1131              	.LBE353:
 1132              	.LBE352:
 1133              	.LBE351:
 188:../../libdaisy/src/hid/disp/display.h ****         int_fast16_t signX  = ((x1 < x2) ? 1 : -1);
 1134              		.loc 5 188 22 view .LVU252
 1135 0138 B9F1000F 		cmp	r9, #0
 1136 013c B8BF     		it	lt
 1137 013e C9F10009 		rsblt	r9, r9, #0
 1138              	.LVL83:
 1139              	.LBB368:
 1140              	.LBB362:
 1141              	.LBB356:
 241:../../libdaisy/src/dev/oled_ssd130x.h ****             return;
 1142              		.loc 6 241 28 view .LVU253
 1143 0142 3F2C     		cmp	r4, #63
 1144 0144 94BF     		ite	ls
 1145 0146 0026     		movls	r6, #0
 1146 0148 0126     		movhi	r6, #1
 1147              	.LBE356:
 1148              	.LBE362:
 1149              	.LBE368:
 190:../../libdaisy/src/hid/disp/display.h ****         int_fast16_t error  = deltaX - deltaY;
 1150              		.loc 5 190 42 view .LVU254
 1151 014a A242     		cmp	r2, r4
 191:../../libdaisy/src/hid/disp/display.h ****         int_fast16_t error2;
 1152              		.loc 5 191 22 view .LVU255
 1153 014c C9F10008 		rsb	r8, r9, #0
 1154              	.LVL84:
 1155              	.LBB369:
ARM GAS  C:\Users\VINCIU~1\AppData\Local\Temp\cchCBePv.s 			page 39


 1156              	.LBI351:
 1157              		.loc 1 41 10 is_stmt 1 view .LVU256
 1158              	.LBB363:
 1159              	.LBI352:
 239:../../libdaisy/src/dev/oled_ssd130x.h ****     {
 1160              		.loc 6 239 10 view .LVU257
 1161              	.LBB357:
 241:../../libdaisy/src/dev/oled_ssd130x.h ****             return;
 1162              		.loc 6 241 28 is_stmt 0 view .LVU258
 1163 0150 0396     		str	r6, [sp, #12]
 1164              	.LBE357:
 1165              	.LBE363:
 1166              	.LBE369:
 190:../../libdaisy/src/hid/disp/display.h ****         int_fast16_t error  = deltaX - deltaY;
 1167              		.loc 5 190 42 view .LVU259
 1168 0152 C0F02381 		bcc	.L89
 1169              	.LVL85:
 1170              	.LBB370:
 1171              	.LBB364:
 1172              	.LBB358:
 241:../../libdaisy/src/dev/oled_ssd130x.h ****             return;
 1173              		.loc 6 241 9 view .LVU260
 1174 0156 002F     		cmp	r7, #0
 1175 0158 40F05081 		bne	.L124
 1176 015c 002E     		cmp	r6, #0
 1177 015e 40F04D81 		bne	.L124
 1178              	.LBE358:
 1179              	.LBE364:
 1180              	.LBE370:
 190:../../libdaisy/src/hid/disp/display.h ****         int_fast16_t error  = deltaX - deltaY;
 1181              		.loc 5 190 42 view .LVU261
 1182 0162 4FF0FF36 		mov	r6, #-1
 1183 0166 0096     		str	r6, [sp]
 1184              	.LBB371:
 1185              	.LBB365:
 1186              	.LBB359:
 244:../../libdaisy/src/dev/oled_ssd130x.h ****         else
 1187              		.loc 6 244 28 view .LVU262
 1188 0168 E608     		lsrs	r6, r4, #3
 244:../../libdaisy/src/dev/oled_ssd130x.h ****         else
 1189              		.loc 6 244 42 view .LVU263
 1190 016a 03EBC616 		add	r6, r3, r6, lsl #7
 1191 016e 0644     		add	r6, r6, r0
 243:../../libdaisy/src/dev/oled_ssd130x.h ****             buffer_[x + (y / 8) * width] |= (1 << (y % 8));
 1192              		.loc 6 243 9 view .LVU264
 1193 0170 002D     		cmp	r5, #0
 1194 0172 00F01E81 		beq	.L91
 1195              	.LVL86:
 1196              	.L163:
 244:../../libdaisy/src/dev/oled_ssd130x.h ****         else
 1197              		.loc 6 244 48 view .LVU265
 1198 0176 4FF0010C 		mov	ip, #1
 244:../../libdaisy/src/dev/oled_ssd130x.h ****         else
 1199              		.loc 6 244 54 view .LVU266
 1200 017a 04F00707 		and	r7, r4, #7
 244:../../libdaisy/src/dev/oled_ssd130x.h ****         else
 1201              		.loc 6 244 48 view .LVU267
ARM GAS  C:\Users\VINCIU~1\AppData\Local\Temp\cchCBePv.s 			page 40


 1202 017e 0CFA07F7 		lsl	r7, ip, r7
 244:../../libdaisy/src/dev/oled_ssd130x.h ****         else
 1203              		.loc 6 244 42 view .LVU268
 1204 0182 96F814C0 		ldrb	ip, [r6, #20]	@ zero_extendqisi2
 1205 0186 47EA0C07 		orr	r7, r7, ip
 1206 018a 3775     		strb	r7, [r6, #20]
 1207 018c 0026     		movs	r6, #0
 1208 018e 0396     		str	r6, [sp, #12]
 1209              	.L90:
 1210              	.LVL87:
 244:../../libdaisy/src/dev/oled_ssd130x.h ****         else
 1211              		.loc 6 244 42 view .LVU269
 1212              	.LBE359:
 1213              	.LBE365:
 1214              	.LBE371:
 199:../../libdaisy/src/hid/disp/display.h ****         {
 1215              		.loc 5 199 26 is_stmt 1 view .LVU270
 1216 0190 A242     		cmp	r2, r4
 1217 0192 00F03D81 		beq	.L162
 1218              	.L93:
 1219              	.LVL88:
 190:../../libdaisy/src/hid/disp/display.h ****         int_fast16_t error  = deltaX - deltaY;
 1220              		.loc 5 190 42 is_stmt 0 view .LVU271
 1221 0196 C446     		mov	ip, r8
 1222 0198 1646     		mov	r6, r2
 1223 019a 1F46     		mov	r7, r3
 1224 019c 0592     		str	r2, [sp, #20]
 1225              	.LVL89:
 1226              	.L95:
 1227              	.LBB372:
 1228              	.LBI372:
 1229              		.loc 1 41 10 is_stmt 1 view .LVU272
 1230              	.LBB373:
 1231              	.LBI373:
 239:../../libdaisy/src/dev/oled_ssd130x.h ****     {
 1232              		.loc 6 239 10 view .LVU273
 1233              	.LBB374:
 241:../../libdaisy/src/dev/oled_ssd130x.h ****             return;
 1234              		.loc 6 241 9 is_stmt 0 view .LVU274
 1235 019e 7F2F     		cmp	r7, #127
 1236 01a0 15D8     		bhi	.L96
 1237 01a2 3F2E     		cmp	r6, #63
 1238 01a4 13D8     		bhi	.L96
 244:../../libdaisy/src/dev/oled_ssd130x.h ****         else
 1239              		.loc 6 244 28 view .LVU275
 1240 01a6 4FEAD60E 		lsr	lr, r6, #3
 244:../../libdaisy/src/dev/oled_ssd130x.h ****         else
 1241              		.loc 6 244 54 view .LVU276
 1242 01aa 06F0070B 		and	fp, r6, #7
 244:../../libdaisy/src/dev/oled_ssd130x.h ****         else
 1243              		.loc 6 244 48 view .LVU277
 1244 01ae 4FF0010A 		mov	r10, #1
 244:../../libdaisy/src/dev/oled_ssd130x.h ****         else
 1245              		.loc 6 244 42 view .LVU278
 1246 01b2 07EBCE1E 		add	lr, r7, lr, lsl #7
 1247 01b6 8644     		add	lr, lr, r0
 243:../../libdaisy/src/dev/oled_ssd130x.h ****             buffer_[x + (y / 8) * width] |= (1 << (y % 8));
ARM GAS  C:\Users\VINCIU~1\AppData\Local\Temp\cchCBePv.s 			page 41


 1248              		.loc 6 243 9 view .LVU279
 1249 01b8 002D     		cmp	r5, #0
 1250 01ba 00F0E680 		beq	.L97
 244:../../libdaisy/src/dev/oled_ssd130x.h ****         else
 1251              		.loc 6 244 48 view .LVU280
 1252 01be 0AFA0BFA 		lsl	r10, r10, fp
 244:../../libdaisy/src/dev/oled_ssd130x.h ****         else
 1253              		.loc 6 244 42 view .LVU281
 1254 01c2 9EF814B0 		ldrb	fp, [lr, #20]	@ zero_extendqisi2
 1255 01c6 4AEA0B0A 		orr	r10, r10, fp
 1256 01ca 8EF814A0 		strb	r10, [lr, #20]
 1257              	.L96:
 1258              	.LVL90:
 244:../../libdaisy/src/dev/oled_ssd130x.h ****         else
 1259              		.loc 6 244 42 view .LVU282
 1260              	.LBE374:
 1261              	.LBE373:
 1262              	.LBE372:
 203:../../libdaisy/src/hid/disp/display.h ****             {
 1263              		.loc 5 203 13 view .LVU283
 1264 01ce B8EB4C0F 		cmp	r8, ip, lsl #1
 202:../../libdaisy/src/hid/disp/display.h ****             if(error2 > -deltaY)
 1265              		.loc 5 202 20 view .LVU284
 1266 01d2 4FEA4C0E 		lsl	lr, ip, #1
 1267              	.LVL91:
 203:../../libdaisy/src/hid/disp/display.h ****             {
 1268              		.loc 5 203 13 view .LVU285
 1269 01d6 02DA     		bge	.L98
 205:../../libdaisy/src/hid/disp/display.h ****                 x1 += signX;
 1270              		.loc 5 205 23 view .LVU286
 1271 01d8 ACEB090C 		sub	ip, ip, r9
 1272              	.LVL92:
 206:../../libdaisy/src/hid/disp/display.h ****             }
 1273              		.loc 5 206 20 view .LVU287
 1274 01dc 013F     		subs	r7, r7, #1
 1275              	.LVL93:
 1276              	.L98:
 209:../../libdaisy/src/hid/disp/display.h ****             {
 1277              		.loc 5 209 13 view .LVU288
 1278 01de BEF1000F 		cmp	lr, #0
 1279 01e2 01D0     		beq	.L99
 212:../../libdaisy/src/hid/disp/display.h ****             }
 1280              		.loc 5 212 20 view .LVU289
 1281 01e4 009A     		ldr	r2, [sp]
 1282 01e6 1644     		add	r6, r6, r2
 1283              	.LVL94:
 1284              	.L99:
 199:../../libdaisy/src/hid/disp/display.h ****         {
 1285              		.loc 5 199 26 is_stmt 1 view .LVU290
 1286 01e8 BB42     		cmp	r3, r7
 1287 01ea D8D1     		bne	.L95
 199:../../libdaisy/src/hid/disp/display.h ****         {
 1288              		.loc 5 199 26 is_stmt 0 view .LVU291
 1289 01ec B442     		cmp	r4, r6
 1290 01ee D6D1     		bne	.L95
 1291 01f0 059A     		ldr	r2, [sp, #20]
 1292              	.LVL95:
ARM GAS  C:\Users\VINCIU~1\AppData\Local\Temp\cchCBePv.s 			page 42


 1293              	.L92:
 199:../../libdaisy/src/hid/disp/display.h ****         {
 1294              		.loc 5 199 26 view .LVU292
 1295              	.LBE350:
 1296              	.LBE349:
 1297              	.LBB385:
 1298              	.LBI385:
 181:../../libdaisy/src/hid/disp/display.h ****                   uint_fast8_t y1,
 1299              		.loc 5 181 10 is_stmt 1 view .LVU293
 1300              	.LBB386:
 187:../../libdaisy/src/hid/disp/display.h ****         int_fast16_t deltaY = abs((int_fast16_t)y2 - (int_fast16_t)y1);
 1301              		.loc 5 187 52 is_stmt 0 view .LVU294
 1302 01f2 A1EB030E 		sub	lr, r1, r3
 187:../../libdaisy/src/hid/disp/display.h ****         int_fast16_t deltaY = abs((int_fast16_t)y2 - (int_fast16_t)y1);
 1303              		.loc 5 187 22 view .LVU295
 1304 01f6 BEF1000F 		cmp	lr, #0
 1305 01fa B8BF     		it	lt
 1306 01fc CEF1000E 		rsblt	lr, lr, #0
 1307              	.LVL96:
 1308              	.LBB387:
 1309              	.LBB388:
 1310              	.LBB389:
 241:../../libdaisy/src/dev/oled_ssd130x.h ****             return;
 1311              		.loc 6 241 14 view .LVU296
 1312 0200 7F29     		cmp	r1, #127
 1313 0202 94BF     		ite	ls
 1314 0204 4FF0000A 		movls	r10, #0
 1315 0208 4FF0010A 		movhi	r10, #1
 1316              	.LBE389:
 1317              	.LBE388:
 1318              	.LBE387:
 189:../../libdaisy/src/hid/disp/display.h ****         int_fast16_t signY  = ((y1 < y2) ? 1 : -1);
 1319              		.loc 5 189 42 view .LVU297
 1320 020c 9942     		cmp	r1, r3
 1321 020e 8CBF     		ite	hi
 1322 0210 4FF00109 		movhi	r9, #1
 1323 0214 4FF0FF39 		movls	r9, #-1
 1324              	.LVL97:
 1325              	.LBB396:
 1326              	.LBI387:
 1327              		.loc 1 41 10 is_stmt 1 view .LVU298
 1328              	.LBB394:
 1329              	.LBI388:
 239:../../libdaisy/src/dev/oled_ssd130x.h ****     {
 1330              		.loc 6 239 10 view .LVU299
 1331              	.LBB392:
 241:../../libdaisy/src/dev/oled_ssd130x.h ****             return;
 1332              		.loc 6 241 9 is_stmt 0 view .LVU300
 1333 0218 BAF1000F 		cmp	r10, #0
 1334 021c 13D1     		bne	.L101
 1335 021e 039E     		ldr	r6, [sp, #12]
 1336 0220 8EB9     		cbnz	r6, .L101
 244:../../libdaisy/src/dev/oled_ssd130x.h ****         else
 1337              		.loc 6 244 28 view .LVU301
 1338 0222 E608     		lsrs	r6, r4, #3
 244:../../libdaisy/src/dev/oled_ssd130x.h ****         else
 1339              		.loc 6 244 42 view .LVU302
ARM GAS  C:\Users\VINCIU~1\AppData\Local\Temp\cchCBePv.s 			page 43


 1340 0224 01EBC616 		add	r6, r1, r6, lsl #7
 1341 0228 0644     		add	r6, r6, r0
 243:../../libdaisy/src/dev/oled_ssd130x.h ****             buffer_[x + (y / 8) * width] |= (1 << (y % 8));
 1342              		.loc 6 243 9 view .LVU303
 1343 022a 002D     		cmp	r5, #0
 1344 022c 00F0D380 		beq	.L102
 244:../../libdaisy/src/dev/oled_ssd130x.h ****         else
 1345              		.loc 6 244 48 view .LVU304
 1346 0230 4FF0010C 		mov	ip, #1
 244:../../libdaisy/src/dev/oled_ssd130x.h ****         else
 1347              		.loc 6 244 54 view .LVU305
 1348 0234 04F00707 		and	r7, r4, #7
 244:../../libdaisy/src/dev/oled_ssd130x.h ****         else
 1349              		.loc 6 244 48 view .LVU306
 1350 0238 0CFA07F7 		lsl	r7, ip, r7
 244:../../libdaisy/src/dev/oled_ssd130x.h ****         else
 1351              		.loc 6 244 42 view .LVU307
 1352 023c 96F814C0 		ldrb	ip, [r6, #20]	@ zero_extendqisi2
 1353 0240 47EA0C07 		orr	r7, r7, ip
 1354 0244 3775     		strb	r7, [r6, #20]
 1355              	.L101:
 1356              	.LVL98:
 244:../../libdaisy/src/dev/oled_ssd130x.h ****         else
 1357              		.loc 6 244 42 view .LVU308
 1358              	.LBE392:
 1359              	.LBE394:
 1360              	.LBE396:
 199:../../libdaisy/src/hid/disp/display.h ****         {
 1361              		.loc 5 199 26 is_stmt 1 view .LVU309
 1362 0246 049E     		ldr	r6, [sp, #16]
 1363 0248 26BB     		cbnz	r6, .L103
 187:../../libdaisy/src/hid/disp/display.h ****         int_fast16_t deltaY = abs((int_fast16_t)y2 - (int_fast16_t)y1);
 1364              		.loc 5 187 22 is_stmt 0 view .LVU310
 1365 024a 7746     		mov	r7, lr
 199:../../libdaisy/src/hid/disp/display.h ****         {
 1366              		.loc 5 199 26 view .LVU311
 1367 024c 2646     		mov	r6, r4
 1368              	.LVL99:
 1369              	.L104:
 1370              	.LBB397:
 1371              	.LBI397:
 1372              		.loc 1 41 10 is_stmt 1 view .LVU312
 1373              	.LBB398:
 1374              	.LBI398:
 239:../../libdaisy/src/dev/oled_ssd130x.h ****     {
 1375              		.loc 6 239 10 view .LVU313
 1376              	.LBB399:
 241:../../libdaisy/src/dev/oled_ssd130x.h ****             return;
 1377              		.loc 6 241 9 is_stmt 0 view .LVU314
 1378 024e 7F2B     		cmp	r3, #127
 1379 0250 14D8     		bhi	.L106
 241:../../libdaisy/src/dev/oled_ssd130x.h ****             return;
 1380              		.loc 6 241 9 view .LVU315
 1381 0252 3F2E     		cmp	r6, #63
 1382 0254 12D8     		bhi	.L106
 244:../../libdaisy/src/dev/oled_ssd130x.h ****         else
 1383              		.loc 6 244 28 view .LVU316
ARM GAS  C:\Users\VINCIU~1\AppData\Local\Temp\cchCBePv.s 			page 44


 1384 0256 4FEAD60C 		lsr	ip, r6, #3
 244:../../libdaisy/src/dev/oled_ssd130x.h ****         else
 1385              		.loc 6 244 54 view .LVU317
 1386 025a 06F0070B 		and	fp, r6, #7
 244:../../libdaisy/src/dev/oled_ssd130x.h ****         else
 1387              		.loc 6 244 48 view .LVU318
 1388 025e 4FF00108 		mov	r8, #1
 244:../../libdaisy/src/dev/oled_ssd130x.h ****         else
 1389              		.loc 6 244 42 view .LVU319
 1390 0262 03EBCC1C 		add	ip, r3, ip, lsl #7
 1391 0266 8444     		add	ip, ip, r0
 243:../../libdaisy/src/dev/oled_ssd130x.h ****             buffer_[x + (y / 8) * width] |= (1 << (y % 8));
 1392              		.loc 6 243 9 view .LVU320
 1393 0268 002D     		cmp	r5, #0
 1394 026a 73D0     		beq	.L107
 244:../../libdaisy/src/dev/oled_ssd130x.h ****         else
 1395              		.loc 6 244 48 view .LVU321
 1396 026c 08FA0BF8 		lsl	r8, r8, fp
 244:../../libdaisy/src/dev/oled_ssd130x.h ****         else
 1397              		.loc 6 244 42 view .LVU322
 1398 0270 9CF814B0 		ldrb	fp, [ip, #20]	@ zero_extendqisi2
 1399 0274 48EA0B08 		orr	r8, r8, fp
 1400 0278 8CF81480 		strb	r8, [ip, #20]
 1401              	.L106:
 1402              	.LVL100:
 244:../../libdaisy/src/dev/oled_ssd130x.h ****         else
 1403              		.loc 6 244 42 view .LVU323
 1404              	.LBE399:
 1405              	.LBE398:
 1406              	.LBE397:
 203:../../libdaisy/src/hid/disp/display.h ****             {
 1407              		.loc 5 203 13 view .LVU324
 1408 027c 5FEA470C 		lsls	ip, r7, #1
 1409              	.LVL101:
 206:../../libdaisy/src/hid/disp/display.h ****             }
 1410              		.loc 5 206 20 view .LVU325
 1411 0280 18BF     		it	ne
 1412 0282 4B44     		addne	r3, r3, r9
 1413              	.LVL102:
 209:../../libdaisy/src/hid/disp/display.h ****             {
 1414              		.loc 5 209 13 view .LVU326
 1415 0284 E645     		cmp	lr, ip
 1416 0286 01DD     		ble	.L109
 211:../../libdaisy/src/hid/disp/display.h ****                 y1 += signY;
 1417              		.loc 5 211 23 view .LVU327
 1418 0288 7744     		add	r7, r7, lr
 1419              	.LVL103:
 212:../../libdaisy/src/hid/disp/display.h ****             }
 1420              		.loc 5 212 20 view .LVU328
 1421 028a 013E     		subs	r6, r6, #1
 1422              	.LVL104:
 1423              	.L109:
 199:../../libdaisy/src/hid/disp/display.h ****         {
 1424              		.loc 5 199 26 is_stmt 1 view .LVU329
 1425 028c 9942     		cmp	r1, r3
 1426 028e DED1     		bne	.L104
 199:../../libdaisy/src/hid/disp/display.h ****         {
ARM GAS  C:\Users\VINCIU~1\AppData\Local\Temp\cchCBePv.s 			page 45


 1427              		.loc 5 199 26 is_stmt 0 view .LVU330
 1428 0290 B442     		cmp	r4, r6
 1429 0292 DCD1     		bne	.L104
 1430              	.LVL105:
 1431              	.L103:
 199:../../libdaisy/src/hid/disp/display.h ****         {
 1432              		.loc 5 199 26 view .LVU331
 1433              	.LBE386:
 1434              	.LBE385:
 1435              	.LBB408:
 1436              	.LBI408:
 181:../../libdaisy/src/hid/disp/display.h ****                   uint_fast8_t y1,
 1437              		.loc 5 181 10 is_stmt 1 view .LVU332
 1438              	.LBB409:
 188:../../libdaisy/src/hid/disp/display.h ****         int_fast16_t signX  = ((x1 < x2) ? 1 : -1);
 1439              		.loc 5 188 52 is_stmt 0 view .LVU333
 1440 0294 A2EB040E 		sub	lr, r2, r4
 188:../../libdaisy/src/hid/disp/display.h ****         int_fast16_t signX  = ((x1 < x2) ? 1 : -1);
 1441              		.loc 5 188 22 view .LVU334
 1442 0298 BEF1000F 		cmp	lr, #0
 1443 029c B8BF     		it	lt
 1444 029e CEF1000E 		rsblt	lr, lr, #0
 1445              	.LVL106:
 190:../../libdaisy/src/hid/disp/display.h ****         int_fast16_t error  = deltaX - deltaY;
 1446              		.loc 5 190 42 view .LVU335
 1447 02a2 A242     		cmp	r2, r4
 1448 02a4 8CBF     		ite	hi
 1449 02a6 4FF00108 		movhi	r8, #1
 1450 02aa 4FF0FF38 		movls	r8, #-1
 1451              	.LVL107:
 191:../../libdaisy/src/hid/disp/display.h ****         int_fast16_t error2;
 1452              		.loc 5 191 22 view .LVU336
 1453 02ae CEF1000C 		rsb	ip, lr, #0
 1454              	.LVL108:
 1455              	.LBB410:
 1456              	.LBI410:
 1457              		.loc 1 41 10 is_stmt 1 view .LVU337
 1458              	.LBB411:
 1459              	.LBI411:
 239:../../libdaisy/src/dev/oled_ssd130x.h ****     {
 1460              		.loc 6 239 10 view .LVU338
 1461              	.LBB412:
 241:../../libdaisy/src/dev/oled_ssd130x.h ****             return;
 1462              		.loc 6 241 9 is_stmt 0 view .LVU339
 1463 02b2 BAF1000F 		cmp	r10, #0
 1464 02b6 0ED1     		bne	.L111
 1465 02b8 029B     		ldr	r3, [sp, #8]
 1466 02ba 63B9     		cbnz	r3, .L111
 244:../../libdaisy/src/dev/oled_ssd130x.h ****         else
 1467              		.loc 6 244 28 view .LVU340
 1468 02bc D308     		lsrs	r3, r2, #3
 244:../../libdaisy/src/dev/oled_ssd130x.h ****         else
 1469              		.loc 6 244 54 view .LVU341
 1470 02be 02F00707 		and	r7, r2, #7
 244:../../libdaisy/src/dev/oled_ssd130x.h ****         else
 1471              		.loc 6 244 48 view .LVU342
 1472 02c2 0126     		movs	r6, #1
ARM GAS  C:\Users\VINCIU~1\AppData\Local\Temp\cchCBePv.s 			page 46


 244:../../libdaisy/src/dev/oled_ssd130x.h ****         else
 1473              		.loc 6 244 42 view .LVU343
 1474 02c4 01EBC313 		add	r3, r1, r3, lsl #7
 1475 02c8 0344     		add	r3, r3, r0
 243:../../libdaisy/src/dev/oled_ssd130x.h ****             buffer_[x + (y / 8) * width] |= (1 << (y % 8));
 1476              		.loc 6 243 9 view .LVU344
 1477 02ca 002D     		cmp	r5, #0
 1478 02cc 7CD0     		beq	.L112
 244:../../libdaisy/src/dev/oled_ssd130x.h ****         else
 1479              		.loc 6 244 48 view .LVU345
 1480 02ce BE40     		lsls	r6, r6, r7
 244:../../libdaisy/src/dev/oled_ssd130x.h ****         else
 1481              		.loc 6 244 42 view .LVU346
 1482 02d0 1F7D     		ldrb	r7, [r3, #20]	@ zero_extendqisi2
 1483 02d2 3E43     		orrs	r6, r6, r7
 1484 02d4 1E75     		strb	r6, [r3, #20]
 1485              	.L111:
 1486              	.LVL109:
 244:../../libdaisy/src/dev/oled_ssd130x.h ****         else
 1487              		.loc 6 244 42 view .LVU347
 1488              	.LBE412:
 1489              	.LBE411:
 1490              	.LBE410:
 199:../../libdaisy/src/hid/disp/display.h ****         {
 1491              		.loc 5 199 26 is_stmt 1 view .LVU348
 1492 02d6 019B     		ldr	r3, [sp, #4]
 1493 02d8 002B     		cmp	r3, #0
 1494 02da 7FF4CDAE 		bne	.L69
 1495 02de 6646     		mov	r6, ip
 1496 02e0 0B46     		mov	r3, r1
 1497              	.LVL110:
 1498              	.L113:
 1499              	.LBB417:
 1500              	.LBI417:
 1501              		.loc 1 41 10 view .LVU349
 1502              	.LBB418:
 1503              	.LBI418:
 239:../../libdaisy/src/dev/oled_ssd130x.h ****     {
 1504              		.loc 6 239 10 view .LVU350
 1505              	.LBB419:
 241:../../libdaisy/src/dev/oled_ssd130x.h ****             return;
 1506              		.loc 6 241 9 is_stmt 0 view .LVU351
 1507 02e2 7F2B     		cmp	r3, #127
 1508 02e4 12D8     		bhi	.L115
 241:../../libdaisy/src/dev/oled_ssd130x.h ****             return;
 1509              		.loc 6 241 9 view .LVU352
 1510 02e6 3F2C     		cmp	r4, #63
 1511 02e8 10D8     		bhi	.L115
 244:../../libdaisy/src/dev/oled_ssd130x.h ****         else
 1512              		.loc 6 244 28 view .LVU353
 1513 02ea E708     		lsrs	r7, r4, #3
 244:../../libdaisy/src/dev/oled_ssd130x.h ****         else
 1514              		.loc 6 244 54 view .LVU354
 1515 02ec 04F0070A 		and	r10, r4, #7
 244:../../libdaisy/src/dev/oled_ssd130x.h ****         else
 1516              		.loc 6 244 48 view .LVU355
 1517 02f0 4FF00109 		mov	r9, #1
ARM GAS  C:\Users\VINCIU~1\AppData\Local\Temp\cchCBePv.s 			page 47


 244:../../libdaisy/src/dev/oled_ssd130x.h ****         else
 1518              		.loc 6 244 42 view .LVU356
 1519 02f4 03EBC717 		add	r7, r3, r7, lsl #7
 1520 02f8 0744     		add	r7, r7, r0
 243:../../libdaisy/src/dev/oled_ssd130x.h ****             buffer_[x + (y / 8) * width] |= (1 << (y % 8));
 1521              		.loc 6 243 9 view .LVU357
 1522 02fa A5B3     		cbz	r5, .L116
 244:../../libdaisy/src/dev/oled_ssd130x.h ****         else
 1523              		.loc 6 244 48 view .LVU358
 1524 02fc 09FA0AF9 		lsl	r9, r9, r10
 244:../../libdaisy/src/dev/oled_ssd130x.h ****         else
 1525              		.loc 6 244 42 view .LVU359
 1526 0300 97F814A0 		ldrb	r10, [r7, #20]	@ zero_extendqisi2
 1527 0304 49EA0A09 		orr	r9, r9, r10
 1528 0308 87F81490 		strb	r9, [r7, #20]
 1529              	.L115:
 1530              	.LVL111:
 244:../../libdaisy/src/dev/oled_ssd130x.h ****         else
 1531              		.loc 6 244 42 view .LVU360
 1532              	.LBE419:
 1533              	.LBE418:
 1534              	.LBE417:
 203:../../libdaisy/src/hid/disp/display.h ****             {
 1535              		.loc 5 203 13 view .LVU361
 1536 030c BCEB460F 		cmp	ip, r6, lsl #1
 202:../../libdaisy/src/hid/disp/display.h ****             if(error2 > -deltaY)
 1537              		.loc 5 202 20 view .LVU362
 1538 0310 4FEA4607 		lsl	r7, r6, #1
 1539              	.LVL112:
 203:../../libdaisy/src/hid/disp/display.h ****             {
 1540              		.loc 5 203 13 view .LVU363
 1541 0314 02DA     		bge	.L117
 205:../../libdaisy/src/hid/disp/display.h ****                 x1 += signX;
 1542              		.loc 5 205 23 view .LVU364
 1543 0316 A6EB0E06 		sub	r6, r6, lr
 1544              	.LVL113:
 206:../../libdaisy/src/hid/disp/display.h ****             }
 1545              		.loc 5 206 20 view .LVU365
 1546 031a 013B     		subs	r3, r3, #1
 1547              	.LVL114:
 1548              	.L117:
 209:../../libdaisy/src/hid/disp/display.h ****             {
 1549              		.loc 5 209 13 view .LVU366
 1550 031c 07B1     		cbz	r7, .L118
 212:../../libdaisy/src/hid/disp/display.h ****             }
 1551              		.loc 5 212 20 view .LVU367
 1552 031e 4444     		add	r4, r4, r8
 1553              	.LVL115:
 1554              	.L118:
 199:../../libdaisy/src/hid/disp/display.h ****         {
 1555              		.loc 5 199 26 is_stmt 1 view .LVU368
 1556 0320 9942     		cmp	r1, r3
 1557 0322 DED1     		bne	.L113
 199:../../libdaisy/src/hid/disp/display.h ****         {
 1558              		.loc 5 199 26 is_stmt 0 view .LVU369
 1559 0324 A242     		cmp	r2, r4
 1560 0326 DCD1     		bne	.L113
ARM GAS  C:\Users\VINCIU~1\AppData\Local\Temp\cchCBePv.s 			page 48


 1561              	.LBE409:
 1562              	.LBE408:
 1563              	.LBE461:
 241:../../libdaisy/src/hid/disp/display.h **** 
 1564              		.loc 5 241 5 view .LVU370
 1565 0328 07B0     		add	sp, sp, #28
 1566              		.cfi_remember_state
 1567              		.cfi_def_cfa_offset 36
 1568              		@ sp needed
 1569 032a BDE8F08F 		pop	{r4, r5, r6, r7, r8, r9, r10, fp, pc}
 1570              	.LVL116:
 1571              	.L78:
 1572              		.cfi_restore_state
 1573              	.LBB462:
 1574              	.LBB428:
 1575              	.LBB345:
 1576              	.LBB341:
 1577              		.loc 1 41 10 is_stmt 1 view .LVU371
 1578              	.LBB330:
 239:../../libdaisy/src/dev/oled_ssd130x.h ****     {
 1579              		.loc 6 239 10 view .LVU372
 1580              	.LBB326:
 241:../../libdaisy/src/dev/oled_ssd130x.h ****             return;
 1581              		.loc 6 241 28 is_stmt 0 view .LVU373
 1582 032e 3F2A     		cmp	r2, #63
 1583              	.LBE326:
 1584              	.LBE330:
 1585              	.LBE341:
 189:../../libdaisy/src/hid/disp/display.h ****         int_fast16_t signY  = ((y1 < y2) ? 1 : -1);
 1586              		.loc 5 189 42 view .LVU374
 1587 0330 4FF0010A 		mov	r10, #1
 1588              	.LBB342:
 1589              	.LBB331:
 1590              	.LBB327:
 241:../../libdaisy/src/dev/oled_ssd130x.h ****             return;
 1591              		.loc 6 241 28 view .LVU375
 1592 0334 94BF     		ite	ls
 1593 0336 0026     		movls	r6, #0
 1594 0338 0126     		movhi	r6, #1
 241:../../libdaisy/src/dev/oled_ssd130x.h ****             return;
 1595              		.loc 6 241 14 view .LVU376
 1596 033a 7F2B     		cmp	r3, #127
 241:../../libdaisy/src/dev/oled_ssd130x.h ****             return;
 1597              		.loc 6 241 28 view .LVU377
 1598 033c 0296     		str	r6, [sp, #8]
 241:../../libdaisy/src/dev/oled_ssd130x.h ****             return;
 1599              		.loc 6 241 14 view .LVU378
 1600 033e 94BF     		ite	ls
 1601 0340 0027     		movls	r7, #0
 1602 0342 0127     		movhi	r7, #1
 1603 0344 0097     		str	r7, [sp]
 241:../../libdaisy/src/dev/oled_ssd130x.h ****             return;
 1604              		.loc 6 241 9 view .LVU379
 1605 0346 002E     		cmp	r6, #0
 1606 0348 7FF4C8AE 		bne	.L82
 1607 034c 002F     		cmp	r7, #0
 1608 034e 3FF4AEAE 		beq	.L120
ARM GAS  C:\Users\VINCIU~1\AppData\Local\Temp\cchCBePv.s 			page 49


 1609 0352 C3E6     		b	.L82
 1610              	.LVL117:
 1611              	.L107:
 241:../../libdaisy/src/dev/oled_ssd130x.h ****             return;
 1612              		.loc 6 241 9 view .LVU380
 1613              	.LBE327:
 1614              	.LBE331:
 1615              	.LBE342:
 1616              	.LBE345:
 1617              	.LBE428:
 1618              	.LBB429:
 1619              	.LBB406:
 1620              	.LBB404:
 1621              	.LBB403:
 1622              	.LBB402:
 1623              	.LBB400:
 1624              	.LBI400:
 239:../../libdaisy/src/dev/oled_ssd130x.h ****     {
 1625              		.loc 6 239 10 is_stmt 1 view .LVU381
 1626              	.LBB401:
 1627              		.loc 6 246 49 is_stmt 0 view .LVU382
 1628 0354 08FA0BFB 		lsl	fp, r8, fp
 1629              		.loc 6 246 42 view .LVU383
 1630 0358 9CF81480 		ldrb	r8, [ip, #20]	@ zero_extendqisi2
 1631 035c 28EA0B08 		bic	r8, r8, fp
 1632 0360 8CF81480 		strb	r8, [ip, #20]
 1633 0364 8AE7     		b	.L106
 1634              	.LVL118:
 1635              	.L116:
 1636              		.loc 6 246 42 view .LVU384
 1637              	.LBE401:
 1638              	.LBE400:
 1639              	.LBE402:
 1640              	.LBE403:
 1641              	.LBE404:
 1642              	.LBE406:
 1643              	.LBE429:
 1644              	.LBB430:
 1645              	.LBB426:
 1646              	.LBB424:
 1647              	.LBB423:
 1648              	.LBB422:
 1649              	.LBB420:
 1650              	.LBI420:
 239:../../libdaisy/src/dev/oled_ssd130x.h ****     {
 1651              		.loc 6 239 10 is_stmt 1 view .LVU385
 1652              	.LBB421:
 1653              		.loc 6 246 49 is_stmt 0 view .LVU386
 1654 0366 09FA0AFA 		lsl	r10, r9, r10
 1655              		.loc 6 246 42 view .LVU387
 1656 036a 97F81490 		ldrb	r9, [r7, #20]	@ zero_extendqisi2
 1657 036e 29EA0A09 		bic	r9, r9, r10
 1658 0372 87F81490 		strb	r9, [r7, #20]
 1659 0376 C9E7     		b	.L115
 1660              	.LVL119:
 1661              	.L86:
 1662              		.loc 6 246 42 view .LVU388
ARM GAS  C:\Users\VINCIU~1\AppData\Local\Temp\cchCBePv.s 			page 50


 1663              	.LBE421:
 1664              	.LBE420:
 1665              	.LBE422:
 1666              	.LBE423:
 1667              	.LBE424:
 1668              	.LBE426:
 1669              	.LBE430:
 1670              	.LBB431:
 1671              	.LBB346:
 1672              	.LBB343:
 1673              	.LBB340:
 1674              	.LBB339:
 1675              	.LBB337:
 1676              	.LBI337:
 239:../../libdaisy/src/dev/oled_ssd130x.h ****     {
 1677              		.loc 6 239 10 is_stmt 1 view .LVU389
 1678              	.LBB338:
 1679              		.loc 6 246 49 is_stmt 0 view .LVU390
 1680 0378 09FA0BFB 		lsl	fp, r9, fp
 1681              		.loc 6 246 42 view .LVU391
 1682 037c 97F81490 		ldrb	r9, [r7, #20]	@ zero_extendqisi2
 1683 0380 29EA0B09 		bic	r9, r9, fp
 1684 0384 87F81490 		strb	r9, [r7, #20]
 1685 0388 C5E6     		b	.L85
 1686              	.LVL120:
 1687              	.L97:
 1688              		.loc 6 246 42 view .LVU392
 1689              	.LBE338:
 1690              	.LBE337:
 1691              	.LBE339:
 1692              	.LBE340:
 1693              	.LBE343:
 1694              	.LBE346:
 1695              	.LBE431:
 1696              	.LBB432:
 1697              	.LBB382:
 1698              	.LBB379:
 1699              	.LBB378:
 1700              	.LBB377:
 1701              	.LBB375:
 1702              	.LBI375:
 239:../../libdaisy/src/dev/oled_ssd130x.h ****     {
 1703              		.loc 6 239 10 is_stmt 1 view .LVU393
 1704              	.LBB376:
 1705              		.loc 6 246 49 is_stmt 0 view .LVU394
 1706 038a 0AFA0BFB 		lsl	fp, r10, fp
 1707              		.loc 6 246 42 view .LVU395
 1708 038e 9EF814A0 		ldrb	r10, [lr, #20]	@ zero_extendqisi2
 1709 0392 2AEA0B0A 		bic	r10, r10, fp
 1710 0396 8EF814A0 		strb	r10, [lr, #20]
 1711 039a 18E7     		b	.L96
 1712              	.LVL121:
 1713              	.L89:
 1714              		.loc 6 246 42 view .LVU396
 1715              	.LBE376:
 1716              	.LBE375:
 1717              	.LBE377:
ARM GAS  C:\Users\VINCIU~1\AppData\Local\Temp\cchCBePv.s 			page 51


 1718              	.LBE378:
 1719              	.LBE379:
 1720              	.LBB380:
 1721              	.LBB366:
 1722              	.LBB360:
 241:../../libdaisy/src/dev/oled_ssd130x.h ****             return;
 1723              		.loc 6 241 9 view .LVU397
 1724 039c 97BB     		cbnz	r7, .L128
 1725 039e 8EBB     		cbnz	r6, .L128
 1726              	.LBE360:
 1727              	.LBE366:
 1728              	.LBE380:
 190:../../libdaisy/src/hid/disp/display.h ****         int_fast16_t error  = deltaX - deltaY;
 1729              		.loc 5 190 42 view .LVU398
 1730 03a0 0126     		movs	r6, #1
 1731 03a2 0096     		str	r6, [sp]
 1732              	.LBB381:
 1733              	.LBB367:
 1734              	.LBB361:
 244:../../libdaisy/src/dev/oled_ssd130x.h ****         else
 1735              		.loc 6 244 28 view .LVU399
 1736 03a4 E608     		lsrs	r6, r4, #3
 244:../../libdaisy/src/dev/oled_ssd130x.h ****         else
 1737              		.loc 6 244 42 view .LVU400
 1738 03a6 03EBC616 		add	r6, r3, r6, lsl #7
 1739 03aa 0644     		add	r6, r6, r0
 243:../../libdaisy/src/dev/oled_ssd130x.h ****             buffer_[x + (y / 8) * width] |= (1 << (y % 8));
 1740              		.loc 6 243 9 view .LVU401
 1741 03ac 002D     		cmp	r5, #0
 1742 03ae 7FF4E2AE 		bne	.L163
 1743              	.LVL122:
 1744              	.L91:
 1745              	.LBB354:
 1746              	.LBI354:
 239:../../libdaisy/src/dev/oled_ssd130x.h ****     {
 1747              		.loc 6 239 10 is_stmt 1 view .LVU402
 1748              	.LBB355:
 1749              		.loc 6 246 49 is_stmt 0 view .LVU403
 1750 03b2 0127     		movs	r7, #1
 1751              		.loc 6 246 55 view .LVU404
 1752 03b4 04F0070C 		and	ip, r4, #7
 1753              		.loc 6 246 42 view .LVU405
 1754 03b8 0395     		str	r5, [sp, #12]
 1755              		.loc 6 246 49 view .LVU406
 1756 03ba 07FA0CFC 		lsl	ip, r7, ip
 1757              		.loc 6 246 42 view .LVU407
 1758 03be 377D     		ldrb	r7, [r6, #20]	@ zero_extendqisi2
 1759 03c0 27EA0C07 		bic	r7, r7, ip
 1760 03c4 3775     		strb	r7, [r6, #20]
 1761 03c6 E3E6     		b	.L90
 1762              	.LVL123:
 1763              	.L112:
 1764              		.loc 6 246 42 view .LVU408
 1765              	.LBE355:
 1766              	.LBE354:
 1767              	.LBE361:
 1768              	.LBE367:
ARM GAS  C:\Users\VINCIU~1\AppData\Local\Temp\cchCBePv.s 			page 52


 1769              	.LBE381:
 1770              	.LBE382:
 1771              	.LBE432:
 1772              	.LBB433:
 1773              	.LBB427:
 1774              	.LBB425:
 1775              	.LBB416:
 1776              	.LBB415:
 1777              	.LBB413:
 1778              	.LBI413:
 239:../../libdaisy/src/dev/oled_ssd130x.h ****     {
 1779              		.loc 6 239 10 is_stmt 1 view .LVU409
 1780              	.LBB414:
 1781              		.loc 6 246 49 is_stmt 0 view .LVU410
 1782 03c8 06FA07F7 		lsl	r7, r6, r7
 1783              		.loc 6 246 42 view .LVU411
 1784 03cc 1E7D     		ldrb	r6, [r3, #20]	@ zero_extendqisi2
 1785 03ce 26EA0706 		bic	r6, r6, r7
 1786 03d2 1E75     		strb	r6, [r3, #20]
 1787 03d4 7FE7     		b	.L111
 1788              	.LVL124:
 1789              	.L102:
 1790              		.loc 6 246 42 view .LVU412
 1791              	.LBE414:
 1792              	.LBE413:
 1793              	.LBE415:
 1794              	.LBE416:
 1795              	.LBE425:
 1796              	.LBE427:
 1797              	.LBE433:
 1798              	.LBB434:
 1799              	.LBB407:
 1800              	.LBB405:
 1801              	.LBB395:
 1802              	.LBB393:
 1803              	.LBB390:
 1804              	.LBI390:
 239:../../libdaisy/src/dev/oled_ssd130x.h ****     {
 1805              		.loc 6 239 10 is_stmt 1 view .LVU413
 1806              	.LBB391:
 1807              		.loc 6 246 49 is_stmt 0 view .LVU414
 1808 03d6 0127     		movs	r7, #1
 1809              		.loc 6 246 55 view .LVU415
 1810 03d8 04F0070C 		and	ip, r4, #7
 1811              		.loc 6 246 49 view .LVU416
 1812 03dc 07FA0CFC 		lsl	ip, r7, ip
 1813              		.loc 6 246 42 view .LVU417
 1814 03e0 377D     		ldrb	r7, [r6, #20]	@ zero_extendqisi2
 1815 03e2 27EA0C07 		bic	r7, r7, ip
 1816 03e6 3775     		strb	r7, [r6, #20]
 1817 03e8 2DE7     		b	.L101
 1818              	.LVL125:
 1819              	.L80:
 1820              		.loc 6 246 42 view .LVU418
 1821              	.LBE391:
 1822              	.LBE390:
 1823              	.LBE393:
ARM GAS  C:\Users\VINCIU~1\AppData\Local\Temp\cchCBePv.s 			page 53


 1824              	.LBE395:
 1825              	.LBE405:
 1826              	.LBE407:
 1827              	.LBE434:
 1828              	.LBB435:
 1829              	.LBB347:
 1830              	.LBB344:
 1831              	.LBB332:
 1832              	.LBB328:
 1833              	.LBB323:
 1834              	.LBI323:
 239:../../libdaisy/src/dev/oled_ssd130x.h ****     {
 1835              		.loc 6 239 10 is_stmt 1 view .LVU419
 1836              	.LBB324:
 1837              		.loc 6 246 49 is_stmt 0 view .LVU420
 1838 03ea 07FA0CFC 		lsl	ip, r7, ip
 1839              		.loc 6 246 42 view .LVU421
 1840 03ee 377D     		ldrb	r7, [r6, #20]	@ zero_extendqisi2
 1841 03f0 0295     		str	r5, [sp, #8]
 1842 03f2 27EA0C07 		bic	r7, r7, ip
 1843 03f6 0095     		str	r5, [sp]
 1844 03f8 3775     		strb	r7, [r6, #20]
 1845 03fa 6CE6     		b	.L79
 1846              	.LVL126:
 1847              	.L124:
 1848              		.loc 6 246 42 view .LVU422
 1849              	.LBE324:
 1850              	.LBE323:
 1851              	.LBE328:
 1852              	.LBE332:
 1853              	.LBE344:
 1854              	.LBE347:
 1855              	.LBE435:
 1856              	.LBB436:
 1857              	.LBB383:
 190:../../libdaisy/src/hid/disp/display.h ****         int_fast16_t error  = deltaX - deltaY;
 1858              		.loc 5 190 42 view .LVU423
 1859 03fc 4FF0FF36 		mov	r6, #-1
 1860 0400 0096     		str	r6, [sp]
 1861 0402 C5E6     		b	.L90
 1862              	.LVL127:
 1863              	.L128:
 190:../../libdaisy/src/hid/disp/display.h ****         int_fast16_t error  = deltaX - deltaY;
 1864              		.loc 5 190 42 view .LVU424
 1865 0404 0126     		movs	r6, #1
 1866 0406 0096     		str	r6, [sp]
 1867 0408 C5E6     		b	.L93
 1868              	.LVL128:
 1869              	.L161:
 190:../../libdaisy/src/hid/disp/display.h ****         int_fast16_t error  = deltaX - deltaY;
 1870              		.loc 5 190 42 view .LVU425
 1871              	.LBE383:
 1872              	.LBE436:
 1873              	.LBB437:
 1874              	.LBB348:
 199:../../libdaisy/src/hid/disp/display.h ****         {
 1875              		.loc 5 199 19 view .LVU426
ARM GAS  C:\Users\VINCIU~1\AppData\Local\Temp\cchCBePv.s 			page 54


 1876 040a 0126     		movs	r6, #1
 1877 040c 0496     		str	r6, [sp, #16]
 1878 040e 90E6     		b	.L81
 1879              	.LVL129:
 1880              	.L162:
 199:../../libdaisy/src/hid/disp/display.h ****         {
 1881              		.loc 5 199 19 view .LVU427
 1882              	.LBE348:
 1883              	.LBE437:
 1884              	.LBB438:
 1885              	.LBB384:
 199:../../libdaisy/src/hid/disp/display.h ****         {
 1886              		.loc 5 199 33 view .LVU428
 1887 0410 0126     		movs	r6, #1
 1888 0412 0196     		str	r6, [sp, #4]
 1889 0414 EDE6     		b	.L92
 1890              	.LBE384:
 1891              	.LBE438:
 1892              	.LBE462:
 1893              		.cfi_endproc
 1894              	.LFE4340:
 1896 0416 00BF     		.section	.rodata._ZN5Menus5Menu1E23OledDisplayExtravaganzaPN7daisysp10OscillatorE.str1.4,"aMS",%pr
 1897              		.align	2
 1898              	.LC1:
 1899 0000 00       		.ascii	"\000"
 1900 0001 000000   		.align	2
 1901              	.LC2:
 1902 0004 4F736300 		.ascii	"Osc\000"
 1903              		.align	2
 1904              	.LC3:
 1905 0008 53656D69 		.ascii	"Semi_%dst\000"
 1905      5F256473 
 1905      7400
 1906 0012 0000     		.align	2
 1907              	.LC4:
 1908 0014 46696E65 		.ascii	"Fine_%d%%\000"
 1908      5F256425 
 1908      2500
 1909              		.section	.text._ZN5Menus5Menu1E23OledDisplayExtravaganzaPN7daisysp10OscillatorE,"ax",%progbits
 1910              		.align	1
 1911              		.p2align 2,,3
 1912              		.global	_ZN5Menus5Menu1E23OledDisplayExtravaganzaPN7daisysp10OscillatorE
 1913              		.syntax unified
 1914              		.thumb
 1915              		.thumb_func
 1916              		.fpu fpv5-d16
 1918              	_ZN5Menus5Menu1E23OledDisplayExtravaganzaPN7daisysp10OscillatorE:
 1919              	.LVL130:
 1920              	.LFB4039:
  63:Menus.cpp     **** 
  64:Menus.cpp     **** void Menus::Menu1(OledDisplayExtravaganza screen, daisysp::Oscillator osc[])
  65:Menus.cpp     **** 
  66:Menus.cpp     **** {
 1921              		.loc 2 66 1 is_stmt 1 view -0
 1922              		.cfi_startproc
 1923              		@ args = 0, pretend = 0, frame = 8
 1924              		@ frame_needed = 0, uses_anonymous_args = 0
ARM GAS  C:\Users\VINCIU~1\AppData\Local\Temp\cchCBePv.s 			page 55


 1925              		.loc 2 66 1 is_stmt 0 view .LVU430
 1926 0000 2DE9F043 		push	{r4, r5, r6, r7, r8, r9, lr}
 1927              		.cfi_def_cfa_offset 28
 1928              		.cfi_offset 4, -28
 1929              		.cfi_offset 5, -24
 1930              		.cfi_offset 6, -20
 1931              		.cfi_offset 7, -16
 1932              		.cfi_offset 8, -12
 1933              		.cfi_offset 9, -8
 1934              		.cfi_offset 14, -4
  67:Menus.cpp     ****     screen.Fill(!on);
 1935              		.loc 2 67 18 view .LVU431
 1936 0004 90F84C81 		ldrb	r8, [r0, #332]	@ zero_extendqisi2
 1937 0008 01F11405 		add	r5, r1, #20
  66:Menus.cpp     ****     screen.Fill(!on);
 1938              		.loc 2 66 1 view .LVU432
 1939 000c 0C46     		mov	r4, r1
 1940 000e 0646     		mov	r6, r0
 1941              		.loc 2 67 5 is_stmt 1 view .LVU433
 1942              	.LVL131:
 1943              	.LBB661:
 1944              	.LBI661:
  33:../../libdaisy/src/hid/disp/oled_display.h **** 
 1945              		.loc 1 33 10 view .LVU434
 1946              	.LBB662:
 1947              	.LBI662:
 247:../../libdaisy/src/dev/oled_ssd130x.h ****     }
 248:../../libdaisy/src/dev/oled_ssd130x.h **** 
 249:../../libdaisy/src/dev/oled_ssd130x.h ****     void Fill(bool on)
 1948              		.loc 6 249 10 view .LVU435
 1949              	.LBB663:
 250:../../libdaisy/src/dev/oled_ssd130x.h ****     {
 251:../../libdaisy/src/dev/oled_ssd130x.h ****         for(size_t i = 0; i < sizeof(buffer_); i++)
 1950              		.loc 6 251 29 view .LVU436
 252:../../libdaisy/src/dev/oled_ssd130x.h ****         {
 253:../../libdaisy/src/dev/oled_ssd130x.h ****             buffer_[i] = on ? 0xff : 0x00;
 1951              		.loc 6 253 24 is_stmt 0 view .LVU437
 1952 0010 88F00101 		eor	r1, r8, #1
 1953              	.LVL132:
 1954              		.loc 6 253 24 view .LVU438
 1955              	.LBE663:
 1956              	.LBE662:
 1957              	.LBE661:
  66:Menus.cpp     ****     screen.Fill(!on);
 1958              		.loc 2 66 1 view .LVU439
 1959 0014 87B0     		sub	sp, sp, #28
 1960              		.cfi_def_cfa_offset 56
  66:Menus.cpp     ****     screen.Fill(!on);
 1961              		.loc 2 66 1 view .LVU440
 1962 0016 1746     		mov	r7, r2
 1963              	.LBB666:
 1964              	.LBB665:
 1965              	.LBB664:
 1966              		.loc 6 253 24 view .LVU441
 1967 0018 2846     		mov	r0, r5
 1968              	.LVL133:
 1969              		.loc 6 253 24 view .LVU442
ARM GAS  C:\Users\VINCIU~1\AppData\Local\Temp\cchCBePv.s 			page 56


 1970 001a 4942     		rsbs	r1, r1, #0
 1971 001c 4FF48062 		mov	r2, #1024
 1972              	.LVL134:
 1973              		.loc 6 253 24 view .LVU443
 1974 0020 C9B2     		uxtb	r1, r1
 1975 0022 FFF7FEFF 		bl	memset
 1976              	.LVL135:
 1977              		.loc 6 253 24 view .LVU444
 1978              	.LBE664:
 1979              	.LBE665:
 1980              	.LBE666:
  68:Menus.cpp     **** 
  69:Menus.cpp     ****     if(this->buttonLeft.RisingEdge())
 1981              		.loc 2 69 5 is_stmt 1 view .LVU445
 1982              	.LBB667:
 1983              	.LBI667:
  41:../../libdaisy/src/hid/switch.h ****     ~Switch() {}
  42:../../libdaisy/src/hid/switch.h **** 
  43:../../libdaisy/src/hid/switch.h ****     /** 
  44:../../libdaisy/src/hid/switch.h ****     Initializes the switch object with a given port/pin combo.
  45:../../libdaisy/src/hid/switch.h ****     \param pin port/pin object to tell the switch which hardware pin to use.
  46:../../libdaisy/src/hid/switch.h ****     \param update_rate the rate at which the Debounce() function will be called. (used for timing).
  47:../../libdaisy/src/hid/switch.h ****     \param t switch type -- Default: TYPE_MOMENTARY
  48:../../libdaisy/src/hid/switch.h ****     \param pol switch polarity -- Default: POLARITY_INVERTED
  49:../../libdaisy/src/hid/switch.h ****     \param pu switch pull up/down -- Default: PULL_UP
  50:../../libdaisy/src/hid/switch.h ****     */
  51:../../libdaisy/src/hid/switch.h ****     void
  52:../../libdaisy/src/hid/switch.h ****     Init(dsy_gpio_pin pin, float update_rate, Type t, Polarity pol, Pull pu);
  53:../../libdaisy/src/hid/switch.h **** 
  54:../../libdaisy/src/hid/switch.h ****     /**
  55:../../libdaisy/src/hid/switch.h ****        Simplified Init.
  56:../../libdaisy/src/hid/switch.h ****        \param pin port/pin object to tell the switch which hardware pin to use.
  57:../../libdaisy/src/hid/switch.h ****        \param update_rate the rate at which the Debounce() function will be called. (used for timin
  58:../../libdaisy/src/hid/switch.h ****     */
  59:../../libdaisy/src/hid/switch.h ****     void Init(dsy_gpio_pin pin, float update_rate);
  60:../../libdaisy/src/hid/switch.h **** 
  61:../../libdaisy/src/hid/switch.h ****     /** 
  62:../../libdaisy/src/hid/switch.h ****     Called at update_rate to debounce and handle timing for the switch.
  63:../../libdaisy/src/hid/switch.h ****     In order for events not to be missed, its important that the Edge/Pressed checks
  64:../../libdaisy/src/hid/switch.h ****     be made at the same rate as the debounce function is being called.
  65:../../libdaisy/src/hid/switch.h ****     */
  66:../../libdaisy/src/hid/switch.h ****     void Debounce();
  67:../../libdaisy/src/hid/switch.h **** 
  68:../../libdaisy/src/hid/switch.h ****     /** \return true if a button was just pressed. */
  69:../../libdaisy/src/hid/switch.h ****     inline bool RisingEdge() const { return state_ == 0x7f; }
 1984              		.loc 4 69 17 view .LVU446
 1985              	.LBB668:
 1986              		.loc 4 69 38 view .LVU447
 1987              		.loc 4 69 38 is_stmt 0 view .LVU448
 1988              	.LBE668:
 1989              	.LBE667:
 1990              		.loc 2 69 5 view .LVU449
 1991 0026 96F85130 		ldrb	r3, [r6, #81]	@ zero_extendqisi2
 1992 002a 7F2B     		cmp	r3, #127
 1993 002c 00F05F82 		beq	.L267
  70:Menus.cpp     **** 
  71:Menus.cpp     ****     {
ARM GAS  C:\Users\VINCIU~1\AppData\Local\Temp\cchCBePv.s 			page 57


  72:Menus.cpp     ****         menuState = menuState - 1;
  73:Menus.cpp     ****         if(menuState < 0)
  74:Menus.cpp     ****         {
  75:Menus.cpp     ****             menuState = 4;
  76:Menus.cpp     ****         }
  77:Menus.cpp     ****     }
  78:Menus.cpp     ****     if(this->buttonRight.RisingEdge())
 1994              		.loc 2 78 5 is_stmt 1 view .LVU450
 1995              	.LVL136:
 1996              	.LBB669:
 1997              	.LBI669:
 1998              		.loc 4 69 17 view .LVU451
 1999              	.LBB670:
 2000              		.loc 4 69 38 view .LVU452
 2001              		.loc 4 69 38 is_stmt 0 view .LVU453
 2002              	.LBE670:
 2003              	.LBE669:
 2004              		.loc 2 78 5 view .LVU454
 2005 0030 96F86130 		ldrb	r3, [r6, #97]	@ zero_extendqisi2
 2006 0034 7F2B     		cmp	r3, #127
 2007 0036 00F06382 		beq	.L268
 2008              	.L168:
  79:Menus.cpp     **** 
  80:Menus.cpp     ****     {
  81:Menus.cpp     ****         menuState = menuState + 1;
  82:Menus.cpp     ****         if(menuState > 4)
  83:Menus.cpp     ****         {
  84:Menus.cpp     ****             menuState = 0;
  85:Menus.cpp     ****         }
  86:Menus.cpp     ****     }
  87:Menus.cpp     **** 
  88:Menus.cpp     ****     screen.drawHorizontalToggle(46, 13, 8, on, this->OscSelector, "");
 2009              		.loc 2 88 5 is_stmt 1 view .LVU455
 2010              		.loc 2 88 32 is_stmt 0 view .LVU456
 2011 003a 4146     		mov	r1, r8
 2012 003c B2EE001A 		vmov.f32	s2, #8.0e+0
 2013 0040 F2EE0A0A 		vmov.f32	s1, #1.3e+1
 2014 0044 9FEDD40A 		vldr.32	s0, .L288
 2015 0048 D44B     		ldr	r3, .L288+4
 2016 004a 2046     		mov	r0, r4
 2017 004c 96F87420 		ldrb	r2, [r6, #116]	@ zero_extendqisi2
 2018 0050 FFF7FEFF 		bl	_ZN23OledDisplayExtravaganza20drawHorizontalToggleEfffbbPKc
 2019              	.LVL137:
  89:Menus.cpp     **** 
  90:Menus.cpp     ****     if(this->OscSelector == true)
 2020              		.loc 2 90 5 is_stmt 1 view .LVU457
 2021 0054 96F87480 		ldrb	r8, [r6, #116]	@ zero_extendqisi2
 2022 0058 B8F1000F 		cmp	r8, #0
 2023 005c 00F0BF81 		beq	.L170
  91:Menus.cpp     ****     {
  92:Menus.cpp     ****         screen.drawSlider(70, 7, 50, 3, on, this->drawSliderSemi);
 2024              		.loc 2 92 9 view .LVU458
 2025              		.loc 2 92 26 is_stmt 0 view .LVU459
 2026 0060 96F84C31 		ldrb	r3, [r6, #332]	@ zero_extendqisi2
 2027 0064 F0EE081A 		vmov.f32	s3, #3.0e+0
 2028 0068 F1EE0C0A 		vmov.f32	s1, #7.0e+0
 2029 006c D6ED1E2A 		vldr.32	s5, [r6, #120]
ARM GAS  C:\Users\VINCIU~1\AppData\Local\Temp\cchCBePv.s 			page 58


 2030 0070 02EE103A 		vmov	s4, r3	@ int
 2031 0074 2046     		mov	r0, r4
 2032 0076 9FEDD11A 		vldr.32	s2, .L288+36
  93:Menus.cpp     ****         screen.drawSlider(70, 40, 50, 3, on, drawSliderFine);
  94:Menus.cpp     ****         screen.drawVerticalToggle(13, 51, 8, on, this->toggleOsc, "");
  95:Menus.cpp     ****         screen.WaveIcons(35, 42, 55, this->selectedWave, on);
  96:Menus.cpp     ****         screen.SetCursor(70, 17);
  97:Menus.cpp     ****         screen.WriteString(this->buff, Font_6x8, true);
 2033              		.loc 2 97 27 view .LVU460
 2034 007a 4FF00109 		mov	r9, #1
  92:Menus.cpp     ****         screen.drawSlider(70, 40, 50, 3, on, drawSliderFine);
 2035              		.loc 2 92 26 view .LVU461
 2036 007e B8EE422A 		vcvt.f32.u32	s4, s4
 2037 0082 9FEDCF0A 		vldr.32	s0, .L288+40
 2038 0086 FFF7FEFF 		bl	_ZN23OledDisplayExtravaganza10drawSliderEffffff
 2039              	.LVL138:
  93:Menus.cpp     ****         screen.drawSlider(70, 40, 50, 3, on, drawSliderFine);
 2040              		.loc 2 93 9 is_stmt 1 view .LVU462
  93:Menus.cpp     ****         screen.drawSlider(70, 40, 50, 3, on, drawSliderFine);
 2041              		.loc 2 93 26 is_stmt 0 view .LVU463
 2042 008a 96F84C31 		ldrb	r3, [r6, #332]	@ zero_extendqisi2
 2043 008e F0EE081A 		vmov.f32	s3, #3.0e+0
 2044 0092 D6ED1F2A 		vldr.32	s5, [r6, #124]
 2045 0096 02EE103A 		vmov	s4, r3	@ int
 2046 009a 2046     		mov	r0, r4
 2047 009c 9FEDC71A 		vldr.32	s2, .L288+36
 2048 00a0 B8EE422A 		vcvt.f32.u32	s4, s4
 2049 00a4 DFEDC70A 		vldr.32	s1, .L288+44
 2050 00a8 9FEDC50A 		vldr.32	s0, .L288+40
 2051 00ac FFF7FEFF 		bl	_ZN23OledDisplayExtravaganza10drawSliderEffffff
 2052              	.LVL139:
  94:Menus.cpp     ****         screen.WaveIcons(35, 42, 55, this->selectedWave, on);
 2053              		.loc 2 94 9 is_stmt 1 view .LVU464
  94:Menus.cpp     ****         screen.WaveIcons(35, 42, 55, this->selectedWave, on);
 2054              		.loc 2 94 34 is_stmt 0 view .LVU465
 2055 00b0 B2EE001A 		vmov.f32	s2, #8.0e+0
 2056 00b4 B2EE0A0A 		vmov.f32	s0, #1.3e+1
 2057 00b8 DFEDC30A 		vldr.32	s1, .L288+48
 2058 00bc 2046     		mov	r0, r4
 2059 00be B74B     		ldr	r3, .L288+4
 2060 00c0 96F89820 		ldrb	r2, [r6, #152]	@ zero_extendqisi2
 2061 00c4 96F84C11 		ldrb	r1, [r6, #332]	@ zero_extendqisi2
 2062 00c8 FFF7FEFF 		bl	_ZN23OledDisplayExtravaganza18drawVerticalToggleEfffbbPKc
 2063              	.LVL140:
  95:Menus.cpp     ****         screen.SetCursor(70, 17);
 2064              		.loc 2 95 9 is_stmt 1 view .LVU466
  95:Menus.cpp     ****         screen.SetCursor(70, 17);
 2065              		.loc 2 95 25 is_stmt 0 view .LVU467
 2066 00cc 96F84C31 		ldrb	r3, [r6, #332]	@ zero_extendqisi2
 2067 00d0 2046     		mov	r0, r4
 2068 00d2 2A22     		movs	r2, #42
 2069 00d4 0193     		str	r3, [sp, #4]
 2070 00d6 2321     		movs	r1, #35
 2071 00d8 D6F89C30 		ldr	r3, [r6, #156]
 2072              		.loc 2 97 27 view .LVU468
 2073 00dc DFF8D482 		ldr	r8, .L288+28
  95:Menus.cpp     ****         screen.SetCursor(70, 17);
ARM GAS  C:\Users\VINCIU~1\AppData\Local\Temp\cchCBePv.s 			page 59


 2074              		.loc 2 95 25 view .LVU469
 2075 00e0 0093     		str	r3, [sp]
 2076 00e2 3723     		movs	r3, #55
 2077 00e4 FFF7FEFF 		bl	_ZN23OledDisplayExtravaganza9WaveIconsEiiiib
 2078              	.LVL141:
  96:Menus.cpp     ****         screen.WriteString(this->buff, Font_6x8, true);
 2079              		.loc 2 96 9 is_stmt 1 view .LVU470
 2080              	.LBB673:
 2081              	.LBI673:
 131:../../libdaisy/src/hid/disp/display.h ****     {
 2082              		.loc 5 131 10 view .LVU471
 2083              	.LBB674:
 133:../../libdaisy/src/hid/disp/display.h ****         currentY_ = (y >= Height()) ? Height() - 1 : y;
 2084              		.loc 5 133 9 view .LVU472
 134:../../libdaisy/src/hid/disp/display.h ****     }
 2085              		.loc 5 134 9 view .LVU473
 133:../../libdaisy/src/hid/disp/display.h ****         currentY_ = (y >= Height()) ? Height() - 1 : y;
 2086              		.loc 5 133 19 is_stmt 0 view .LVU474
 2087 00e8 AD4B     		ldr	r3, .L288+8
 2088              	.LBE674:
 2089              	.LBE673:
 2090              		.loc 2 97 27 view .LVU475
 2091 00ea 06F1A401 		add	r1, r6, #164
 2092 00ee 2046     		mov	r0, r4
 2093              	.LBB676:
 2094              	.LBB675:
 133:../../libdaisy/src/hid/disp/display.h ****         currentY_ = (y >= Height()) ? Height() - 1 : y;
 2095              		.loc 5 133 19 view .LVU476
 2096 00f0 6360     		str	r3, [r4, #4]
 2097              	.LVL142:
 133:../../libdaisy/src/hid/disp/display.h ****         currentY_ = (y >= Height()) ? Height() - 1 : y;
 2098              		.loc 5 133 19 view .LVU477
 2099              	.LBE675:
 2100              	.LBE676:
 2101              		.loc 2 97 9 is_stmt 1 view .LVU478
 2102              		.loc 2 97 27 is_stmt 0 view .LVU479
 2103 00f2 CDF80090 		str	r9, [sp]
 2104 00f6 98E80C00 		ldm	r8, {r2, r3}
 2105 00fa FFF7FEFF 		bl	_ZN5daisy25OneBitGraphicsDisplayImplINS_11OledDisplayINS_13SSD130xDriverILj128ELj64ENS_24SSD130
 2106              	.LVL143:
  98:Menus.cpp     ****         screen.SetCursor(70, 50);
 2107              		.loc 2 98 9 is_stmt 1 view .LVU480
 2108              	.LBB677:
 2109              	.LBI677:
 131:../../libdaisy/src/hid/disp/display.h ****     {
 2110              		.loc 5 131 10 view .LVU481
 2111              	.LBB678:
 133:../../libdaisy/src/hid/disp/display.h ****         currentY_ = (y >= Height()) ? Height() - 1 : y;
 2112              		.loc 5 133 9 view .LVU482
 134:../../libdaisy/src/hid/disp/display.h ****     }
 2113              		.loc 5 134 9 view .LVU483
 133:../../libdaisy/src/hid/disp/display.h ****         currentY_ = (y >= Height()) ? Height() - 1 : y;
 2114              		.loc 5 133 19 is_stmt 0 view .LVU484
 2115 00fe A94B     		ldr	r3, .L288+12
 2116              	.LBE678:
 2117              	.LBE677:
  99:Menus.cpp     ****         screen.WriteString(this->buffFine, Font_6x8, true);
ARM GAS  C:\Users\VINCIU~1\AppData\Local\Temp\cchCBePv.s 			page 60


 2118              		.loc 2 99 27 view .LVU485
 2119 0100 CDF80090 		str	r9, [sp]
 2120 0104 06F1D401 		add	r1, r6, #212
 2121              	.LBB680:
 2122              	.LBB679:
 133:../../libdaisy/src/hid/disp/display.h ****         currentY_ = (y >= Height()) ? Height() - 1 : y;
 2123              		.loc 5 133 19 view .LVU486
 2124 0108 6360     		str	r3, [r4, #4]
 2125              	.LVL144:
 133:../../libdaisy/src/hid/disp/display.h ****         currentY_ = (y >= Height()) ? Height() - 1 : y;
 2126              		.loc 5 133 19 view .LVU487
 2127              	.LBE679:
 2128              	.LBE680:
 2129              		.loc 2 99 9 is_stmt 1 view .LVU488
 2130              		.loc 2 99 27 is_stmt 0 view .LVU489
 2131 010a 2046     		mov	r0, r4
 2132 010c 98E80C00 		ldm	r8, {r2, r3}
 2133 0110 FFF7FEFF 		bl	_ZN5daisy25OneBitGraphicsDisplayImplINS_11OledDisplayINS_13SSD130xDriverILj128ELj64ENS_24SSD130
 2134              	.LVL145:
 2135              	.L171:
 100:Menus.cpp     ****     }
 101:Menus.cpp     ****     else
 102:Menus.cpp     ****     {
 103:Menus.cpp     ****         screen.drawSlider(70, 7, 50, 3, false, this->drawSliderSemi2);
 104:Menus.cpp     ****         screen.drawSlider(70, 40, 50, 3, false, drawSliderFine2);
 105:Menus.cpp     ****         screen.drawVerticalToggle(13, 51, 8, false, this->toggleOsc2, "");
 106:Menus.cpp     ****         screen.WaveIcons(35, 42, 55, this->selectedWave2, false);
 107:Menus.cpp     ****         screen.SetCursor(70, 17);
 108:Menus.cpp     ****         screen.WriteString(this->buff2, Font_6x8, false);
 109:Menus.cpp     ****         screen.SetCursor(70, 50);
 110:Menus.cpp     ****         screen.WriteString(this->buffFine2, Font_6x8, false);
 111:Menus.cpp     ****     }
 112:Menus.cpp     **** 
 113:Menus.cpp     **** 
 114:Menus.cpp     ****     screen.SetCursor(4, 8);
 2136              		.loc 2 114 5 is_stmt 1 view .LVU490
 2137              	.LBB681:
 2138              	.LBI681:
 131:../../libdaisy/src/hid/disp/display.h ****     {
 2139              		.loc 5 131 10 view .LVU491
 2140              	.LBB682:
 133:../../libdaisy/src/hid/disp/display.h ****         currentY_ = (y >= Height()) ? Height() - 1 : y;
 2141              		.loc 5 133 9 view .LVU492
 134:../../libdaisy/src/hid/disp/display.h ****     }
 2142              		.loc 5 134 9 view .LVU493
 133:../../libdaisy/src/hid/disp/display.h ****         currentY_ = (y >= Height()) ? Height() - 1 : y;
 2143              		.loc 5 133 19 is_stmt 0 view .LVU494
 2144 0114 A44B     		ldr	r3, .L288+16
 2145              	.LBE682:
 2146              	.LBE681:
 115:Menus.cpp     ****     screen.WriteString("Osc", Font_7x10, on);
 2147              		.loc 2 115 23 view .LVU495
 2148 0116 2046     		mov	r0, r4
 2149 0118 96F84C21 		ldrb	r2, [r6, #332]	@ zero_extendqisi2
 2150              	.LBB684:
 2151              	.LBB683:
 133:../../libdaisy/src/hid/disp/display.h ****         currentY_ = (y >= Height()) ? Height() - 1 : y;
ARM GAS  C:\Users\VINCIU~1\AppData\Local\Temp\cchCBePv.s 			page 61


 2152              		.loc 5 133 19 view .LVU496
 2153 011c 6360     		str	r3, [r4, #4]
 2154              	.LVL146:
 133:../../libdaisy/src/hid/disp/display.h ****         currentY_ = (y >= Height()) ? Height() - 1 : y;
 2155              		.loc 5 133 19 view .LVU497
 2156              	.LBE683:
 2157              	.LBE684:
 2158              		.loc 2 115 5 is_stmt 1 view .LVU498
 2159              		.loc 2 115 23 is_stmt 0 view .LVU499
 2160 011e A34B     		ldr	r3, .L288+20
 2161 0120 0092     		str	r2, [sp]
 2162 0122 A349     		ldr	r1, .L288+24
 2163 0124 0CCB     		ldm	r3, {r2, r3}
 2164 0126 FFF7FEFF 		bl	_ZN5daisy25OneBitGraphicsDisplayImplINS_11OledDisplayINS_13SSD130xDriverILj128ELj64ENS_24SSD130
 2165              	.LVL147:
 116:Menus.cpp     **** 
 117:Menus.cpp     **** 
 118:Menus.cpp     ****     for(int i = 0; i < screen.Width(); i++)
 2166              		.loc 2 118 5 is_stmt 1 view .LVU500
 2167              	.LBB685:
 2168              		.loc 2 118 22 view .LVU501
 119:Menus.cpp     ****     {
 120:Menus.cpp     ****         screen.DrawPixel(i * 3, (screen.Height() / 2) - 3, on);
 2169              		.loc 2 120 25 is_stmt 0 view .LVU502
 2170 012a 96F84C01 		ldrb	r0, [r6, #332]	@ zero_extendqisi2
 2171 012e A446     		mov	ip, r4
 2172 0130 0023     		movs	r3, #0
 2173              	.LVL148:
 2174              	.L176:
 2175              		.loc 2 120 9 is_stmt 1 discriminator 2 view .LVU503
 2176              	.LBB686:
 2177              	.LBI686:
 2178              		.loc 1 41 10 discriminator 2 view .LVU504
 2179              	.LBB687:
 2180              	.LBI687:
 239:../../libdaisy/src/dev/oled_ssd130x.h ****     {
 2181              		.loc 6 239 10 discriminator 2 view .LVU505
 2182              	.LBB688:
 241:../../libdaisy/src/dev/oled_ssd130x.h ****             return;
 2183              		.loc 6 241 9 is_stmt 0 discriminator 2 view .LVU506
 2184 0132 7F2B     		cmp	r3, #127
 2185 0134 0DD8     		bhi	.L172
 2186              	.LVL149:
 2187              	.L269:
 2188              	.LBB689:
 2189              	.LBI689:
 239:../../libdaisy/src/dev/oled_ssd130x.h ****     {
 2190              		.loc 6 239 10 is_stmt 1 view .LVU507
 239:../../libdaisy/src/dev/oled_ssd130x.h ****     {
 2191              		.loc 6 239 10 is_stmt 0 view .LVU508
 2192              	.LBE689:
 244:../../libdaisy/src/dev/oled_ssd130x.h ****         else
 2193              		.loc 6 244 42 view .LVU509
 2194 0136 9CF89421 		ldrb	r2, [ip, #404]	@ zero_extendqisi2
 243:../../libdaisy/src/dev/oled_ssd130x.h ****             buffer_[x + (y / 8) * width] |= (1 << (y % 8));
 2195              		.loc 6 243 9 view .LVU510
 2196 013a 0028     		cmp	r0, #0
ARM GAS  C:\Users\VINCIU~1\AppData\Local\Temp\cchCBePv.s 			page 62


 2197 013c 00F01D81 		beq	.L173
 244:../../libdaisy/src/dev/oled_ssd130x.h ****         else
 2198              		.loc 6 244 42 view .LVU511
 2199 0140 42F02002 		orr	r2, r2, #32
 2200 0144 8CF89421 		strb	r2, [ip, #404]
 2201              	.L174:
 2202              	.LVL150:
 244:../../libdaisy/src/dev/oled_ssd130x.h ****         else
 2203              		.loc 6 244 42 view .LVU512
 2204              	.LBE688:
 2205              	.LBE687:
 2206              	.LBE686:
 118:Menus.cpp     ****     {
 2207              		.loc 2 118 5 is_stmt 1 view .LVU513
 118:Menus.cpp     ****     {
 2208              		.loc 2 118 22 view .LVU514
 2209 0148 0333     		adds	r3, r3, #3
 2210 014a 0CF1030C 		add	ip, ip, #3
 2211              		.loc 2 120 9 view .LVU515
 2212              	.LVL151:
 2213              	.LBB696:
 2214              		.loc 1 41 10 view .LVU516
 2215              	.LBB694:
 239:../../libdaisy/src/dev/oled_ssd130x.h ****     {
 2216              		.loc 6 239 10 view .LVU517
 2217              	.LBB692:
 241:../../libdaisy/src/dev/oled_ssd130x.h ****             return;
 2218              		.loc 6 241 9 is_stmt 0 view .LVU518
 2219 014e 7F2B     		cmp	r3, #127
 2220 0150 F1D9     		bls	.L269
 2221              	.LVL152:
 2222              	.L172:
 241:../../libdaisy/src/dev/oled_ssd130x.h ****             return;
 2223              		.loc 6 241 9 view .LVU519
 2224              	.LBE692:
 2225              	.LBE694:
 2226              	.LBE696:
 118:Menus.cpp     ****     {
 2227              		.loc 2 118 5 is_stmt 1 view .LVU520
 118:Menus.cpp     ****     {
 2228              		.loc 2 118 22 view .LVU521
 2229 0152 0333     		adds	r3, r3, #3
 2230 0154 0CF1030C 		add	ip, ip, #3
 2231 0158 B3F5C07F 		cmp	r3, #384
 2232 015c E9D1     		bne	.L176
 2233 015e 0023     		movs	r3, #0
 2234              	.L175:
 2235              	.LBE685:
 2236              	.LBB698:
 121:Menus.cpp     ****     }
 122:Menus.cpp     ****     for(int i = 0; i < screen.Height(); i++)
 123:Menus.cpp     ****     {
 124:Menus.cpp     ****         screen.DrawPixel(60, i * 2, on);
 2237              		.loc 2 124 9 discriminator 2 view .LVU522
 2238              	.LVL153:
 2239              	.LBB699:
 2240              	.LBI699:
ARM GAS  C:\Users\VINCIU~1\AppData\Local\Temp\cchCBePv.s 			page 63


 2241              		.loc 1 41 10 discriminator 2 view .LVU523
 2242              	.LBB700:
 2243              	.LBI700:
 239:../../libdaisy/src/dev/oled_ssd130x.h ****     {
 2244              		.loc 6 239 10 discriminator 2 view .LVU524
 2245              	.LBB701:
 241:../../libdaisy/src/dev/oled_ssd130x.h ****             return;
 2246              		.loc 6 241 9 is_stmt 0 discriminator 2 view .LVU525
 2247 0160 3F2B     		cmp	r3, #63
 2248 0162 15D8     		bhi	.L177
 2249              	.LVL154:
 2250              	.L270:
 2251              	.LBB702:
 2252              	.LBI702:
 239:../../libdaisy/src/dev/oled_ssd130x.h ****     {
 2253              		.loc 6 239 10 is_stmt 1 view .LVU526
 239:../../libdaisy/src/dev/oled_ssd130x.h ****     {
 2254              		.loc 6 239 10 is_stmt 0 view .LVU527
 2255              	.LBE702:
 244:../../libdaisy/src/dev/oled_ssd130x.h ****         else
 2256              		.loc 6 244 28 view .LVU528
 2257 0164 4FEAD30C 		lsr	ip, r3, #3
 244:../../libdaisy/src/dev/oled_ssd130x.h ****         else
 2258              		.loc 6 244 48 view .LVU529
 2259 0168 0121     		movs	r1, #1
 244:../../libdaisy/src/dev/oled_ssd130x.h ****         else
 2260              		.loc 6 244 54 view .LVU530
 2261 016a 03F0070E 		and	lr, r3, #7
 244:../../libdaisy/src/dev/oled_ssd130x.h ****         else
 2262              		.loc 6 244 42 view .LVU531
 2263 016e 04EBCC1C 		add	ip, r4, ip, lsl #7
 2264              	.LBB706:
 2265              	.LBB703:
 246:../../libdaisy/src/dev/oled_ssd130x.h ****     }
 2266              		.loc 6 246 49 view .LVU532
 2267 0172 8846     		mov	r8, r1
 2268              	.LBE703:
 2269              	.LBE706:
 244:../../libdaisy/src/dev/oled_ssd130x.h ****         else
 2270              		.loc 6 244 48 view .LVU533
 2271 0174 01FA0EF1 		lsl	r1, r1, lr
 2272              	.LBB707:
 2273              	.LBB704:
 246:../../libdaisy/src/dev/oled_ssd130x.h ****     }
 2274              		.loc 6 246 42 view .LVU534
 2275 0178 6246     		mov	r2, ip
 2276              	.LBE704:
 2277              	.LBE707:
 243:../../libdaisy/src/dev/oled_ssd130x.h ****             buffer_[x + (y / 8) * width] |= (1 << (y % 8));
 2278              		.loc 6 243 9 view .LVU535
 2279 017a 0028     		cmp	r0, #0
 2280 017c 00F00281 		beq	.L178
 244:../../libdaisy/src/dev/oled_ssd130x.h ****         else
 2281              		.loc 6 244 42 view .LVU536
 2282 0180 9CF85020 		ldrb	r2, [ip, #80]	@ zero_extendqisi2
 2283 0184 1143     		orrs	r1, r1, r2
 2284 0186 8CF85010 		strb	r1, [ip, #80]
ARM GAS  C:\Users\VINCIU~1\AppData\Local\Temp\cchCBePv.s 			page 64


 2285              	.L179:
 2286              	.LVL155:
 244:../../libdaisy/src/dev/oled_ssd130x.h ****         else
 2287              		.loc 6 244 42 view .LVU537
 2288              	.LBE701:
 2289              	.LBE700:
 2290              	.LBE699:
 122:Menus.cpp     ****     {
 2291              		.loc 2 122 5 is_stmt 1 view .LVU538
 122:Menus.cpp     ****     {
 2292              		.loc 2 122 22 view .LVU539
 2293 018a 0233     		adds	r3, r3, #2
 2294              		.loc 2 124 9 view .LVU540
 2295              	.LVL156:
 2296              	.LBB713:
 2297              		.loc 1 41 10 view .LVU541
 2298              	.LBB711:
 239:../../libdaisy/src/dev/oled_ssd130x.h ****     {
 2299              		.loc 6 239 10 view .LVU542
 2300              	.LBB709:
 241:../../libdaisy/src/dev/oled_ssd130x.h ****             return;
 2301              		.loc 6 241 9 is_stmt 0 view .LVU543
 2302 018c 3F2B     		cmp	r3, #63
 2303 018e E9D9     		bls	.L270
 2304              	.LVL157:
 2305              	.L177:
 241:../../libdaisy/src/dev/oled_ssd130x.h ****             return;
 2306              		.loc 6 241 9 view .LVU544
 2307              	.LBE709:
 2308              	.LBE711:
 2309              	.LBE713:
 122:Menus.cpp     ****     {
 2310              		.loc 2 122 5 is_stmt 1 view .LVU545
 122:Menus.cpp     ****     {
 2311              		.loc 2 122 22 view .LVU546
 2312 0190 0233     		adds	r3, r3, #2
 2313 0192 802B     		cmp	r3, #128
 2314 0194 E4D1     		bne	.L175
 2315 0196 1E23     		movs	r3, #30
 2316              	.L180:
 2317              	.LBE698:
 2318              	.LBB715:
 125:Menus.cpp     ****     }
 126:Menus.cpp     ****     for(int i = screen.Height() / 4 - 1; i < screen.Height(); i++)
 127:Menus.cpp     ****     {
 128:Menus.cpp     ****         screen.DrawPixel(29, i * 2, on);
 2319              		.loc 2 128 9 discriminator 2 view .LVU547
 2320              	.LVL158:
 2321              	.LBB716:
 2322              	.LBI716:
 2323              		.loc 1 41 10 discriminator 2 view .LVU548
 2324              	.LBB717:
 2325              	.LBI717:
 239:../../libdaisy/src/dev/oled_ssd130x.h ****     {
 2326              		.loc 6 239 10 discriminator 2 view .LVU549
 2327              	.LBB718:
 241:../../libdaisy/src/dev/oled_ssd130x.h ****             return;
ARM GAS  C:\Users\VINCIU~1\AppData\Local\Temp\cchCBePv.s 			page 65


 2328              		.loc 6 241 9 is_stmt 0 discriminator 2 view .LVU550
 2329 0198 3F2B     		cmp	r3, #63
 2330 019a 14D8     		bhi	.L181
 2331              	.LVL159:
 2332              	.L271:
 2333              	.LBB719:
 2334              	.LBI719:
 239:../../libdaisy/src/dev/oled_ssd130x.h ****     {
 2335              		.loc 6 239 10 is_stmt 1 view .LVU551
 239:../../libdaisy/src/dev/oled_ssd130x.h ****     {
 2336              		.loc 6 239 10 is_stmt 0 view .LVU552
 2337              	.LBE719:
 244:../../libdaisy/src/dev/oled_ssd130x.h ****         else
 2338              		.loc 6 244 48 view .LVU553
 2339 019c 0122     		movs	r2, #1
 244:../../libdaisy/src/dev/oled_ssd130x.h ****         else
 2340              		.loc 6 244 28 view .LVU554
 2341 019e 4FEAD30C 		lsr	ip, r3, #3
 244:../../libdaisy/src/dev/oled_ssd130x.h ****         else
 2342              		.loc 6 244 54 view .LVU555
 2343 01a2 03F0070E 		and	lr, r3, #7
 2344              	.LBB722:
 2345              	.LBB720:
 246:../../libdaisy/src/dev/oled_ssd130x.h ****     }
 2346              		.loc 6 246 49 view .LVU556
 2347 01a6 9046     		mov	r8, r2
 2348              	.LBE720:
 2349              	.LBE722:
 244:../../libdaisy/src/dev/oled_ssd130x.h ****         else
 2350              		.loc 6 244 42 view .LVU557
 2351 01a8 04EBCC1C 		add	ip, r4, ip, lsl #7
 244:../../libdaisy/src/dev/oled_ssd130x.h ****         else
 2352              		.loc 6 244 48 view .LVU558
 2353 01ac 02FA0EF2 		lsl	r2, r2, lr
 243:../../libdaisy/src/dev/oled_ssd130x.h ****             buffer_[x + (y / 8) * width] |= (1 << (y % 8));
 2354              		.loc 6 243 9 view .LVU559
 2355 01b0 0028     		cmp	r0, #0
 2356 01b2 00F00B81 		beq	.L182
 244:../../libdaisy/src/dev/oled_ssd130x.h ****         else
 2357              		.loc 6 244 42 view .LVU560
 2358 01b6 9CF83110 		ldrb	r1, [ip, #49]	@ zero_extendqisi2
 2359 01ba 0A43     		orrs	r2, r2, r1
 2360 01bc 8CF83120 		strb	r2, [ip, #49]
 2361              	.L183:
 2362              	.LVL160:
 244:../../libdaisy/src/dev/oled_ssd130x.h ****         else
 2363              		.loc 6 244 42 view .LVU561
 2364              	.LBE718:
 2365              	.LBE717:
 2366              	.LBE716:
 126:Menus.cpp     ****     {
 2367              		.loc 2 126 5 is_stmt 1 view .LVU562
 126:Menus.cpp     ****     {
 2368              		.loc 2 126 44 view .LVU563
 2369 01c0 0233     		adds	r3, r3, #2
 2370              		.loc 2 128 9 view .LVU564
 2371              	.LVL161:
ARM GAS  C:\Users\VINCIU~1\AppData\Local\Temp\cchCBePv.s 			page 66


 2372              	.LBB728:
 2373              		.loc 1 41 10 view .LVU565
 2374              	.LBB726:
 239:../../libdaisy/src/dev/oled_ssd130x.h ****     {
 2375              		.loc 6 239 10 view .LVU566
 2376              	.LBB724:
 241:../../libdaisy/src/dev/oled_ssd130x.h ****             return;
 2377              		.loc 6 241 9 is_stmt 0 view .LVU567
 2378 01c2 3F2B     		cmp	r3, #63
 2379 01c4 EAD9     		bls	.L271
 2380              	.LVL162:
 2381              	.L181:
 241:../../libdaisy/src/dev/oled_ssd130x.h ****             return;
 2382              		.loc 6 241 9 view .LVU568
 2383              	.LBE724:
 2384              	.LBE726:
 2385              	.LBE728:
 126:Menus.cpp     ****     {
 2386              		.loc 2 126 5 is_stmt 1 view .LVU569
 126:Menus.cpp     ****     {
 2387              		.loc 2 126 44 view .LVU570
 2388 01c6 0233     		adds	r3, r3, #2
 2389 01c8 802B     		cmp	r3, #128
 2390 01ca E5D1     		bne	.L180
 2391              	.LBE715:
 129:Menus.cpp     ****     }
 130:Menus.cpp     **** 
 131:Menus.cpp     ****     if(menuState == 0)
 2392              		.loc 2 131 5 view .LVU571
 2393              	.LBB730:
 2394              		.loc 2 131 8 is_stmt 0 view .LVU572
 2395 01cc F16E     		ldr	r1, [r6, #108]
 2396              		.loc 2 131 5 view .LVU573
 2397 01ce 0029     		cmp	r1, #0
 2398 01d0 40F05481 		bne	.L185
 132:Menus.cpp     ****     {
 133:Menus.cpp     ****         
 134:Menus.cpp     ****             this->OscSelector = OscSelect(this->analogRead);
 2399              		.loc 2 134 13 is_stmt 1 view .LVU574
 2400              	.LVL163:
 2401              	.LBB731:
 2402              	.LBI731:
  49:Menus.cpp     **** {
 2403              		.loc 2 49 6 view .LVU575
 2404              	.LBB732:
  51:Menus.cpp     ****     if(select >= 0.5)
 2405              		.loc 2 51 5 view .LVU576
  52:Menus.cpp     ****     {
 2406              		.loc 2 52 5 view .LVU577
 2407 01d4 F6EE007A 		vmov.f32	s15, #5.0e-1
 2408 01d8 96ED007A 		vldr.32	s14, [r6]
 2409              	.LBE732:
 2410              	.LBE731:
 2411              	.LBB735:
 2412              	.LBB736:
 2413              	.LBB737:
 2414              	.LBB738:
ARM GAS  C:\Users\VINCIU~1\AppData\Local\Temp\cchCBePv.s 			page 67


 2415              	.LBB739:
 2416              	.LBB740:
 244:../../libdaisy/src/dev/oled_ssd130x.h ****         else
 2417              		.loc 6 244 42 is_stmt 0 view .LVU578
 2418 01dc 94F85030 		ldrb	r3, [r4, #80]	@ zero_extendqisi2
 2419              	.LBE740:
 2420              	.LBE739:
 2421              	.LBE738:
 2422              	.LBE737:
 2423              	.LBE736:
 2424              	.LBE735:
 2425              	.LBB883:
 2426              	.LBB733:
  52:Menus.cpp     ****     {
 2427              		.loc 2 52 5 view .LVU579
 2428 01e0 B4EEE77A 		vcmpe.f32	s14, s15
 2429 01e4 F1EE10FA 		vmrs	APSR_nzcv, FPSCR
 2430 01e8 80F27881 		bge	.L272
  59:Menus.cpp     ****         return state;
 2431              		.loc 2 59 9 is_stmt 1 view .LVU580
 2432              	.LVL164:
  60:Menus.cpp     ****     }
 2433              		.loc 2 60 9 view .LVU581
  60:Menus.cpp     ****     }
 2434              		.loc 2 60 9 is_stmt 0 view .LVU582
 2435              	.LBE733:
 2436              	.LBE883:
 2437              	.LBB884:
 2438              	.LBB770:
 2439              	.LBB766:
 2440              	.LBB753:
 2441              	.LBB749:
 2442              	.LBB745:
 2443              	.LBB741:
 2444              	.LBB742:
 246:../../libdaisy/src/dev/oled_ssd130x.h ****     }
 2445              		.loc 6 246 42 view .LVU583
 2446 01ec 23F00103 		bic	r3, r3, #1
 2447              	.LBE742:
 2448              	.LBE741:
 2449              	.LBE745:
 2450              	.LBE749:
 2451              	.LBE753:
 2452              	.LBE766:
 2453              	.LBE770:
 2454              	.LBE884:
 2455              		.loc 2 134 31 view .LVU584
 2456 01f0 86F87410 		strb	r1, [r6, #116]
 135:Menus.cpp     ****             on                = this->OscSelector;
 2457              		.loc 2 135 13 is_stmt 1 view .LVU585
 2458              		.loc 2 135 31 is_stmt 0 view .LVU586
 2459 01f4 86F84C11 		strb	r1, [r6, #332]
 136:Menus.cpp     ****         
 137:Menus.cpp     ****         screen.DrawRect(0, 0, 60, screen.Height() / 2 - 3, on, false);
 2460              		.loc 2 137 9 is_stmt 1 view .LVU587
 2461              	.LVL165:
 2462              	.LBB885:
ARM GAS  C:\Users\VINCIU~1\AppData\Local\Temp\cchCBePv.s 			page 68


 2463              	.LBI735:
 217:../../libdaisy/src/hid/disp/display.h ****                   uint_fast8_t y1,
 2464              		.loc 5 217 10 view .LVU588
 2465              	.LBB771:
 2466              	.LBI736:
 181:../../libdaisy/src/hid/disp/display.h ****                   uint_fast8_t y1,
 2467              		.loc 5 181 10 view .LVU589
 2468              	.LBB767:
 2469              	.LBB754:
 2470              	.LBI738:
 2471              		.loc 1 41 10 view .LVU590
 2472              	.LBB750:
 2473              	.LBI739:
 239:../../libdaisy/src/dev/oled_ssd130x.h ****     {
 2474              		.loc 6 239 10 view .LVU591
 2475              	.LBB746:
 2476              	.LBB744:
 2477              	.LBI741:
 239:../../libdaisy/src/dev/oled_ssd130x.h ****     {
 2478              		.loc 6 239 10 view .LVU592
 2479              	.LBB743:
 246:../../libdaisy/src/dev/oled_ssd130x.h ****     }
 2480              		.loc 6 246 42 is_stmt 0 view .LVU593
 2481 01f8 84F85030 		strb	r3, [r4, #80]
 2482              	.LVL166:
 2483              	.L188:
 246:../../libdaisy/src/dev/oled_ssd130x.h ****     }
 2484              		.loc 6 246 42 view .LVU594
 2485              	.LBE743:
 2486              	.LBE744:
 2487              	.LBE746:
 2488              	.LBE750:
 2489              	.LBE754:
 199:../../libdaisy/src/hid/disp/display.h ****         {
 2490              		.loc 5 199 26 is_stmt 1 view .LVU595
 2491 01fc 04F11303 		add	r3, r4, #19
 2492 0200 04F14F00 		add	r0, r4, #79
 2493 0204 05E0     		b	.L191
 2494              	.LVL167:
 2495              	.L274:
 2496              	.LBB755:
 2497              	.LBB756:
 2498              	.LBB757:
 244:../../libdaisy/src/dev/oled_ssd130x.h ****         else
 2499              		.loc 6 244 42 is_stmt 0 view .LVU596
 2500 0206 42F00102 		orr	r2, r2, #1
 2501 020a 03F8012F 		strb	r2, [r3, #1]!
 2502              	.LVL168:
 244:../../libdaisy/src/dev/oled_ssd130x.h ****         else
 2503              		.loc 6 244 42 view .LVU597
 2504              	.LBE757:
 2505              	.LBE756:
 2506              	.LBE755:
 199:../../libdaisy/src/hid/disp/display.h ****         {
 2507              		.loc 5 199 26 is_stmt 1 view .LVU598
 2508 020e 8342     		cmp	r3, r0
 2509 0210 08D0     		beq	.L273
ARM GAS  C:\Users\VINCIU~1\AppData\Local\Temp\cchCBePv.s 			page 69


 2510              	.LVL169:
 2511              	.L191:
 2512              	.LBB763:
 2513              	.LBI755:
 2514              		.loc 1 41 10 view .LVU599
 2515              	.LBB762:
 2516              	.LBI756:
 239:../../libdaisy/src/dev/oled_ssd130x.h ****     {
 2517              		.loc 6 239 10 view .LVU600
 2518              	.LBB761:
 2519              	.LBB758:
 2520              	.LBI758:
 239:../../libdaisy/src/dev/oled_ssd130x.h ****     {
 2521              		.loc 6 239 10 view .LVU601
 239:../../libdaisy/src/dev/oled_ssd130x.h ****     {
 2522              		.loc 6 239 10 is_stmt 0 view .LVU602
 2523              	.LBE758:
 244:../../libdaisy/src/dev/oled_ssd130x.h ****         else
 2524              		.loc 6 244 42 view .LVU603
 2525 0212 5A78     		ldrb	r2, [r3, #1]	@ zero_extendqisi2
 243:../../libdaisy/src/dev/oled_ssd130x.h ****             buffer_[x + (y / 8) * width] |= (1 << (y % 8));
 2526              		.loc 6 243 9 view .LVU604
 2527 0214 0029     		cmp	r1, #0
 2528 0216 F6D1     		bne	.L274
 2529              	.LBB760:
 2530              	.LBB759:
 246:../../libdaisy/src/dev/oled_ssd130x.h ****     }
 2531              		.loc 6 246 42 view .LVU605
 2532 0218 02F0FE02 		and	r2, r2, #254
 2533 021c 03F8012F 		strb	r2, [r3, #1]!
 2534              	.LVL170:
 246:../../libdaisy/src/dev/oled_ssd130x.h ****     }
 2535              		.loc 6 246 42 view .LVU606
 2536              	.LBE759:
 2537              	.LBE760:
 2538              	.LBE761:
 2539              	.LBE762:
 2540              	.LBE763:
 199:../../libdaisy/src/hid/disp/display.h ****         {
 2541              		.loc 5 199 26 is_stmt 1 view .LVU607
 2542 0220 8342     		cmp	r3, r0
 2543 0222 F6D1     		bne	.L191
 2544              	.LVL171:
 2545              	.L273:
 199:../../libdaisy/src/hid/disp/display.h ****         {
 2546              		.loc 5 199 26 is_stmt 0 view .LVU608
 2547              	.LBE767:
 2548              	.LBE771:
 2549              	.LBB772:
 2550              	.LBI772:
 181:../../libdaisy/src/hid/disp/display.h ****                   uint_fast8_t y1,
 2551              		.loc 5 181 10 is_stmt 1 view .LVU609
 2552              	.LBB773:
 2553              	.LBB774:
 2554              	.LBI774:
 2555              		.loc 1 41 10 view .LVU610
 2556              	.LBB775:
ARM GAS  C:\Users\VINCIU~1\AppData\Local\Temp\cchCBePv.s 			page 70


 2557              	.LBI775:
 239:../../libdaisy/src/dev/oled_ssd130x.h ****     {
 2558              		.loc 6 239 10 view .LVU611
 2559              	.LBB776:
 244:../../libdaisy/src/dev/oled_ssd130x.h ****         else
 2560              		.loc 6 244 42 is_stmt 0 view .LVU612
 2561 0224 94F8D021 		ldrb	r2, [r4, #464]	@ zero_extendqisi2
 243:../../libdaisy/src/dev/oled_ssd130x.h ****             buffer_[x + (y / 8) * width] |= (1 << (y % 8));
 2562              		.loc 6 243 9 view .LVU613
 2563 0228 0029     		cmp	r1, #0
 2564 022a 00F0D981 		beq	.L192
 2565              	.LVL172:
 244:../../libdaisy/src/dev/oled_ssd130x.h ****         else
 2566              		.loc 6 244 42 view .LVU614
 2567 022e 42F02002 		orr	r2, r2, #32
 2568              	.LVL173:
 2569              	.L193:
 244:../../libdaisy/src/dev/oled_ssd130x.h ****         else
 2570              		.loc 6 244 42 view .LVU615
 2571              	.LBE776:
 2572              	.LBE775:
 2573              	.LBE774:
 2574              	.LBE773:
 2575              	.LBE772:
 2576              	.LBE885:
 2577              	.LBB886:
 2578              	.LBB734:
  60:Menus.cpp     ****     }
 2579              		.loc 2 60 16 view .LVU616
 2580 0232 0023     		movs	r3, #0
 2581 0234 84F8D021 		strb	r2, [r4, #464]
 2582              	.LVL174:
  60:Menus.cpp     ****     }
 2583              		.loc 2 60 16 view .LVU617
 2584              	.LBE734:
 2585              	.LBE886:
 2586              	.LBB887:
 2587              	.LBB813:
 2588              	.LBB811:
 199:../../libdaisy/src/hid/disp/display.h ****         {
 2589              		.loc 5 199 26 is_stmt 1 view .LVU618
 2590 0238 07E0     		b	.L196
 2591              	.LVL175:
 2592              	.L276:
 2593              	.LBB781:
 2594              	.LBB782:
 2595              	.LBB783:
 244:../../libdaisy/src/dev/oled_ssd130x.h ****         else
 2596              		.loc 6 244 42 is_stmt 0 view .LVU619
 2597 023a 90F85020 		ldrb	r2, [r0, #80]	@ zero_extendqisi2
 2598              	.LBE783:
 2599              	.LBE782:
 2600              	.LBE781:
 212:../../libdaisy/src/hid/disp/display.h ****             }
 2601              		.loc 5 212 20 view .LVU620
 2602 023e 0133     		adds	r3, r3, #1
 2603              	.LVL176:
ARM GAS  C:\Users\VINCIU~1\AppData\Local\Temp\cchCBePv.s 			page 71


 2604              	.LBB805:
 2605              	.LBB800:
 2606              	.LBB795:
 244:../../libdaisy/src/dev/oled_ssd130x.h ****         else
 2607              		.loc 6 244 42 view .LVU621
 2608 0240 1643     		orrs	r6, r6, r2
 2609              	.LBE795:
 2610              	.LBE800:
 2611              	.LBE805:
 199:../../libdaisy/src/hid/disp/display.h ****         {
 2612              		.loc 5 199 26 view .LVU622
 2613 0242 1D2B     		cmp	r3, #29
 2614              	.LBB806:
 2615              	.LBB801:
 2616              	.LBB796:
 244:../../libdaisy/src/dev/oled_ssd130x.h ****         else
 2617              		.loc 6 244 42 view .LVU623
 2618 0244 80F85060 		strb	r6, [r0, #80]
 2619              	.LVL177:
 244:../../libdaisy/src/dev/oled_ssd130x.h ****         else
 2620              		.loc 6 244 42 view .LVU624
 2621              	.LBE796:
 2622              	.LBE801:
 2623              	.LBE806:
 199:../../libdaisy/src/hid/disp/display.h ****         {
 2624              		.loc 5 199 26 is_stmt 1 view .LVU625
 2625 0248 16D0     		beq	.L275
 2626              	.LVL178:
 2627              	.L196:
 2628              	.LBB807:
 2629              	.LBI781:
 2630              		.loc 1 41 10 view .LVU626
 2631              	.LBB802:
 2632              	.LBI782:
 239:../../libdaisy/src/dev/oled_ssd130x.h ****     {
 2633              		.loc 6 239 10 view .LVU627
 2634              	.LBB797:
 2635              	.LBB784:
 2636              	.LBI784:
 239:../../libdaisy/src/dev/oled_ssd130x.h ****     {
 2637              		.loc 6 239 10 view .LVU628
 239:../../libdaisy/src/dev/oled_ssd130x.h ****     {
 2638              		.loc 6 239 10 is_stmt 0 view .LVU629
 2639              	.LBE784:
 244:../../libdaisy/src/dev/oled_ssd130x.h ****         else
 2640              		.loc 6 244 28 view .LVU630
 2641 024a D808     		lsrs	r0, r3, #3
 244:../../libdaisy/src/dev/oled_ssd130x.h ****         else
 2642              		.loc 6 244 48 view .LVU631
 2643 024c 0126     		movs	r6, #1
 244:../../libdaisy/src/dev/oled_ssd130x.h ****         else
 2644              		.loc 6 244 54 view .LVU632
 2645 024e 03F0070C 		and	ip, r3, #7
 244:../../libdaisy/src/dev/oled_ssd130x.h ****         else
 2646              		.loc 6 244 42 view .LVU633
 2647 0252 04EBC010 		add	r0, r4, r0, lsl #7
 2648              	.LBB790:
ARM GAS  C:\Users\VINCIU~1\AppData\Local\Temp\cchCBePv.s 			page 72


 2649              	.LBB785:
 246:../../libdaisy/src/dev/oled_ssd130x.h ****     }
 2650              		.loc 6 246 49 view .LVU634
 2651 0256 3746     		mov	r7, r6
 2652              	.LBE785:
 2653              	.LBE790:
 244:../../libdaisy/src/dev/oled_ssd130x.h ****         else
 2654              		.loc 6 244 48 view .LVU635
 2655 0258 06FA0CF6 		lsl	r6, r6, ip
 2656              	.LBB791:
 2657              	.LBB786:
 246:../../libdaisy/src/dev/oled_ssd130x.h ****     }
 2658              		.loc 6 246 42 view .LVU636
 2659 025c 0246     		mov	r2, r0
 2660              	.LBE786:
 2661              	.LBE791:
 243:../../libdaisy/src/dev/oled_ssd130x.h ****             buffer_[x + (y / 8) * width] |= (1 << (y % 8));
 2662              		.loc 6 243 9 view .LVU637
 2663 025e 0029     		cmp	r1, #0
 2664 0260 EBD1     		bne	.L276
 2665              	.LBB792:
 2666              	.LBB787:
 246:../../libdaisy/src/dev/oled_ssd130x.h ****     }
 2667              		.loc 6 246 42 view .LVU638
 2668 0262 90F85000 		ldrb	r0, [r0, #80]	@ zero_extendqisi2
 246:../../libdaisy/src/dev/oled_ssd130x.h ****     }
 2669              		.loc 6 246 49 view .LVU639
 2670 0266 07FA0CF7 		lsl	r7, r7, ip
 2671              	.LBE787:
 2672              	.LBE792:
 2673              	.LBE797:
 2674              	.LBE802:
 2675              	.LBE807:
 212:../../libdaisy/src/hid/disp/display.h ****             }
 2676              		.loc 5 212 20 view .LVU640
 2677 026a 0133     		adds	r3, r3, #1
 2678              	.LVL179:
 2679              	.LBB808:
 2680              	.LBB803:
 2681              	.LBB798:
 2682              	.LBB793:
 2683              	.LBB788:
 246:../../libdaisy/src/dev/oled_ssd130x.h ****     }
 2684              		.loc 6 246 42 view .LVU641
 2685 026c 20EA0707 		bic	r7, r0, r7
 2686              	.LBE788:
 2687              	.LBE793:
 2688              	.LBE798:
 2689              	.LBE803:
 2690              	.LBE808:
 199:../../libdaisy/src/hid/disp/display.h ****         {
 2691              		.loc 5 199 26 view .LVU642
 2692 0270 1D2B     		cmp	r3, #29
 2693              	.LBB809:
 2694              	.LBB804:
 2695              	.LBB799:
 2696              	.LBB794:
ARM GAS  C:\Users\VINCIU~1\AppData\Local\Temp\cchCBePv.s 			page 73


 2697              	.LBB789:
 246:../../libdaisy/src/dev/oled_ssd130x.h ****     }
 2698              		.loc 6 246 42 view .LVU643
 2699 0272 82F85070 		strb	r7, [r2, #80]
 2700              	.LVL180:
 246:../../libdaisy/src/dev/oled_ssd130x.h ****     }
 2701              		.loc 6 246 42 view .LVU644
 2702              	.LBE789:
 2703              	.LBE794:
 2704              	.LBE799:
 2705              	.LBE804:
 2706              	.LBE809:
 199:../../libdaisy/src/hid/disp/display.h ****         {
 2707              		.loc 5 199 26 is_stmt 1 view .LVU645
 2708 0276 E8D1     		bne	.L196
 2709              	.L275:
 2710              	.LVL181:
 199:../../libdaisy/src/hid/disp/display.h ****         {
 2711              		.loc 5 199 26 is_stmt 0 view .LVU646
 2712              	.LBE811:
 2713              	.LBE813:
 2714              	.LBB814:
 2715              	.LBI814:
 181:../../libdaisy/src/hid/disp/display.h ****                   uint_fast8_t y1,
 2716              		.loc 5 181 10 is_stmt 1 view .LVU647
 2717              	.LBB815:
 2718              	.LBB816:
 2719              	.LBI816:
 2720              		.loc 1 41 10 view .LVU648
 2721              	.LBB817:
 2722              	.LBI817:
 239:../../libdaisy/src/dev/oled_ssd130x.h ****     {
 2723              		.loc 6 239 10 view .LVU649
 2724              	.LBB818:
 244:../../libdaisy/src/dev/oled_ssd130x.h ****         else
 2725              		.loc 6 244 42 is_stmt 0 view .LVU650
 2726 0278 94F89401 		ldrb	r0, [r4, #404]	@ zero_extendqisi2
 243:../../libdaisy/src/dev/oled_ssd130x.h ****             buffer_[x + (y / 8) * width] |= (1 << (y % 8));
 2727              		.loc 6 243 9 view .LVU651
 2728 027c 0029     		cmp	r1, #0
 2729 027e 00F0A981 		beq	.L197
 2730              	.LVL182:
 244:../../libdaisy/src/dev/oled_ssd130x.h ****         else
 2731              		.loc 6 244 42 view .LVU652
 2732 0282 40F02007 		orr	r7, r0, #32
 2733              	.LVL183:
 2734              	.L198:
 244:../../libdaisy/src/dev/oled_ssd130x.h ****         else
 2735              		.loc 6 244 42 view .LVU653
 2736 0286 04F5E872 		add	r2, r4, #464
 2737 028a 04F5CA76 		add	r6, r4, #404
 2738 028e 84F89471 		strb	r7, [r4, #404]
 2739              	.LVL184:
 244:../../libdaisy/src/dev/oled_ssd130x.h ****         else
 2740              		.loc 6 244 42 view .LVU654
 2741              	.LBE818:
 2742              	.LBE817:
ARM GAS  C:\Users\VINCIU~1\AppData\Local\Temp\cchCBePv.s 			page 74


 2743              	.LBE816:
 199:../../libdaisy/src/hid/disp/display.h ****         {
 2744              		.loc 5 199 26 is_stmt 1 view .LVU655
 2745 0292 05E0     		b	.L201
 2746              	.LVL185:
 2747              	.L278:
 2748              	.LBB823:
 2749              	.LBB824:
 2750              	.LBB825:
 244:../../libdaisy/src/dev/oled_ssd130x.h ****         else
 2751              		.loc 6 244 42 is_stmt 0 view .LVU656
 2752 0294 40F02000 		orr	r0, r0, #32
 2753              	.LBE825:
 2754              	.LBE824:
 2755              	.LBE823:
 199:../../libdaisy/src/hid/disp/display.h ****         {
 2756              		.loc 5 199 26 view .LVU657
 2757 0298 013A     		subs	r2, r2, #1
 2758              	.LVL186:
 2759              	.LBB837:
 2760              	.LBB834:
 2761              	.LBB831:
 244:../../libdaisy/src/dev/oled_ssd130x.h ****         else
 2762              		.loc 6 244 42 view .LVU658
 2763 029a 5070     		strb	r0, [r2, #1]
 2764              	.LVL187:
 244:../../libdaisy/src/dev/oled_ssd130x.h ****         else
 2765              		.loc 6 244 42 view .LVU659
 2766              	.LBE831:
 2767              	.LBE834:
 2768              	.LBE837:
 199:../../libdaisy/src/hid/disp/display.h ****         {
 2769              		.loc 5 199 26 is_stmt 1 view .LVU660
 2770 029c 9642     		cmp	r6, r2
 2771 029e 08D0     		beq	.L277
 2772              	.LVL188:
 2773              	.L201:
 2774              	.LBB838:
 2775              	.LBI823:
 2776              		.loc 1 41 10 view .LVU661
 2777              	.LBB835:
 2778              	.LBI824:
 239:../../libdaisy/src/dev/oled_ssd130x.h ****     {
 2779              		.loc 6 239 10 view .LVU662
 2780              	.LBB832:
 2781              	.LBB826:
 2782              	.LBI826:
 239:../../libdaisy/src/dev/oled_ssd130x.h ****     {
 2783              		.loc 6 239 10 view .LVU663
 239:../../libdaisy/src/dev/oled_ssd130x.h ****     {
 2784              		.loc 6 239 10 is_stmt 0 view .LVU664
 2785              	.LBE826:
 244:../../libdaisy/src/dev/oled_ssd130x.h ****         else
 2786              		.loc 6 244 42 view .LVU665
 2787 02a0 1078     		ldrb	r0, [r2]	@ zero_extendqisi2
 243:../../libdaisy/src/dev/oled_ssd130x.h ****             buffer_[x + (y / 8) * width] |= (1 << (y % 8));
 2788              		.loc 6 243 9 view .LVU666
ARM GAS  C:\Users\VINCIU~1\AppData\Local\Temp\cchCBePv.s 			page 75


 2789 02a2 0029     		cmp	r1, #0
 2790 02a4 F6D1     		bne	.L278
 2791              	.LBB829:
 2792              	.LBB827:
 246:../../libdaisy/src/dev/oled_ssd130x.h ****     }
 2793              		.loc 6 246 42 view .LVU667
 2794 02a6 20F02000 		bic	r0, r0, #32
 2795              	.LBE827:
 2796              	.LBE829:
 2797              	.LBE832:
 2798              	.LBE835:
 2799              	.LBE838:
 199:../../libdaisy/src/hid/disp/display.h ****         {
 2800              		.loc 5 199 26 view .LVU668
 2801 02aa 013A     		subs	r2, r2, #1
 2802              	.LVL189:
 2803              	.LBB839:
 2804              	.LBB836:
 2805              	.LBB833:
 2806              	.LBB830:
 2807              	.LBB828:
 246:../../libdaisy/src/dev/oled_ssd130x.h ****     }
 2808              		.loc 6 246 42 view .LVU669
 2809 02ac 5070     		strb	r0, [r2, #1]
 2810              	.LVL190:
 246:../../libdaisy/src/dev/oled_ssd130x.h ****     }
 2811              		.loc 6 246 42 view .LVU670
 2812              	.LBE828:
 2813              	.LBE830:
 2814              	.LBE833:
 2815              	.LBE836:
 2816              	.LBE839:
 199:../../libdaisy/src/hid/disp/display.h ****         {
 2817              		.loc 5 199 26 is_stmt 1 view .LVU671
 2818 02ae 9642     		cmp	r6, r2
 2819 02b0 F6D1     		bne	.L201
 2820              	.L277:
 2821              	.LVL191:
 199:../../libdaisy/src/hid/disp/display.h ****         {
 2822              		.loc 5 199 26 is_stmt 0 view .LVU672
 2823              	.LBE815:
 2824              	.LBE814:
 2825              	.LBB842:
 2826              	.LBI842:
 181:../../libdaisy/src/hid/disp/display.h ****                   uint_fast8_t y1,
 2827              		.loc 5 181 10 is_stmt 1 view .LVU673
 2828              	.LBB843:
 2829              	.LBB844:
 2830              	.LBI844:
 2831              		.loc 1 41 10 view .LVU674
 2832              	.LBB845:
 2833              	.LBI845:
 239:../../libdaisy/src/dev/oled_ssd130x.h ****     {
 2834              		.loc 6 239 10 view .LVU675
 2835              	.LBB846:
 244:../../libdaisy/src/dev/oled_ssd130x.h ****         else
 2836              		.loc 6 244 42 is_stmt 0 view .LVU676
ARM GAS  C:\Users\VINCIU~1\AppData\Local\Temp\cchCBePv.s 			page 76


 2837 02b2 227D     		ldrb	r2, [r4, #20]	@ zero_extendqisi2
 243:../../libdaisy/src/dev/oled_ssd130x.h ****             buffer_[x + (y / 8) * width] |= (1 << (y % 8));
 2838              		.loc 6 243 9 view .LVU677
 2839 02b4 0029     		cmp	r1, #0
 2840 02b6 00F09081 		beq	.L202
 2841              	.LVL192:
 244:../../libdaisy/src/dev/oled_ssd130x.h ****         else
 2842              		.loc 6 244 42 view .LVU678
 2843 02ba 42F00102 		orr	r2, r2, #1
 2844              	.LVL193:
 2845              	.L203:
 244:../../libdaisy/src/dev/oled_ssd130x.h ****         else
 2846              		.loc 6 244 42 view .LVU679
 2847 02be 2275     		strb	r2, [r4, #20]
 2848              	.LVL194:
 244:../../libdaisy/src/dev/oled_ssd130x.h ****         else
 2849              		.loc 6 244 42 view .LVU680
 2850              	.LBE846:
 2851              	.LBE845:
 2852              	.LBE844:
 199:../../libdaisy/src/hid/disp/display.h ****         {
 2853              		.loc 5 199 26 is_stmt 1 view .LVU681
 2854 02c0 0322     		movs	r2, #3
 2855 02c2 09E0     		b	.L208
 2856              	.LVL195:
 2857              	.L279:
 199:../../libdaisy/src/hid/disp/display.h ****         {
 2858              		.loc 5 199 26 view .LVU682
 2859              	.LBB851:
 2860              	.LBB852:
 2861              	.LBB853:
 244:../../libdaisy/src/dev/oled_ssd130x.h ****         else
 2862              		.loc 6 244 42 is_stmt 0 view .LVU683
 2863 02c4 3E43     		orrs	r6, r6, r7
 2864              	.LBE853:
 2865              	.LBE852:
 2866              	.LBE851:
 199:../../libdaisy/src/hid/disp/display.h ****         {
 2867              		.loc 5 199 26 view .LVU684
 2868 02c6 013B     		subs	r3, r3, #1
 2869              	.LVL196:
 2870              	.LBB872:
 2871              	.LBB867:
 2872              	.LBB862:
 244:../../libdaisy/src/dev/oled_ssd130x.h ****         else
 2873              		.loc 6 244 42 view .LVU685
 2874 02c8 8EF81460 		strb	r6, [lr, #20]
 244:../../libdaisy/src/dev/oled_ssd130x.h ****         else
 2875              		.loc 6 244 28 view .LVU686
 2876 02cc 4FEAD302 		lsr	r2, r3, #3
 2877              	.LBE862:
 2878              	.LBE867:
 2879              	.LBE872:
 199:../../libdaisy/src/hid/disp/display.h ****         {
 2880              		.loc 5 199 26 view .LVU687
 2881 02d0 13D0     		beq	.L207
 2882              	.LVL197:
ARM GAS  C:\Users\VINCIU~1\AppData\Local\Temp\cchCBePv.s 			page 77


 2883              	.L280:
 2884              	.LBB873:
 2885              	.LBB868:
 2886              	.LBB863:
 244:../../libdaisy/src/dev/oled_ssd130x.h ****         else
 2887              		.loc 6 244 42 view .LVU688
 2888 02d2 04EBC210 		add	r0, r4, r2, lsl #7
 2889 02d6 077D     		ldrb	r7, [r0, #20]	@ zero_extendqisi2
 2890              	.LVL198:
 2891              	.L208:
 244:../../libdaisy/src/dev/oled_ssd130x.h ****         else
 2892              		.loc 6 244 42 view .LVU689
 2893              	.LBE863:
 2894              	.LBE868:
 2895              	.LBI851:
 2896              		.loc 1 41 10 is_stmt 1 view .LVU690
 2897              	.LBB869:
 2898              	.LBI852:
 239:../../libdaisy/src/dev/oled_ssd130x.h ****     {
 2899              		.loc 6 239 10 view .LVU691
 2900              	.LBB864:
 2901              	.LBB854:
 2902              	.LBI854:
 239:../../libdaisy/src/dev/oled_ssd130x.h ****     {
 2903              		.loc 6 239 10 view .LVU692
 2904              	.LBB855:
 246:../../libdaisy/src/dev/oled_ssd130x.h ****     }
 2905              		.loc 6 246 55 is_stmt 0 view .LVU693
 2906 02d8 03F0070C 		and	ip, r3, #7
 2907              	.LBE855:
 2908              	.LBE854:
 244:../../libdaisy/src/dev/oled_ssd130x.h ****         else
 2909              		.loc 6 244 48 view .LVU694
 2910 02dc 0126     		movs	r6, #1
 2911              	.LBB859:
 2912              	.LBB856:
 246:../../libdaisy/src/dev/oled_ssd130x.h ****     }
 2913              		.loc 6 246 42 view .LVU695
 2914 02de 04EBC21E 		add	lr, r4, r2, lsl #7
 2915              	.LBE856:
 2916              	.LBE859:
 244:../../libdaisy/src/dev/oled_ssd130x.h ****         else
 2917              		.loc 6 244 48 view .LVU696
 2918 02e2 06FA0CF6 		lsl	r6, r6, ip
 243:../../libdaisy/src/dev/oled_ssd130x.h ****             buffer_[x + (y / 8) * width] |= (1 << (y % 8));
 2919              		.loc 6 243 9 view .LVU697
 2920 02e6 0029     		cmp	r1, #0
 2921 02e8 ECD1     		bne	.L279
 2922              	.LBB860:
 2923              	.LBB857:
 246:../../libdaisy/src/dev/oled_ssd130x.h ****     }
 2924              		.loc 6 246 42 view .LVU698
 2925 02ea 27EA0600 		bic	r0, r7, r6
 2926              	.LBE857:
 2927              	.LBE860:
 2928              	.LBE864:
 2929              	.LBE869:
ARM GAS  C:\Users\VINCIU~1\AppData\Local\Temp\cchCBePv.s 			page 78


 2930              	.LBE873:
 199:../../libdaisy/src/hid/disp/display.h ****         {
 2931              		.loc 5 199 26 view .LVU699
 2932 02ee 013B     		subs	r3, r3, #1
 2933              	.LVL199:
 2934              	.LBB874:
 2935              	.LBB870:
 2936              	.LBB865:
 2937              	.LBB861:
 2938              	.LBB858:
 246:../../libdaisy/src/dev/oled_ssd130x.h ****     }
 2939              		.loc 6 246 42 view .LVU700
 2940 02f0 8EF81400 		strb	r0, [lr, #20]
 2941              	.LVL200:
 246:../../libdaisy/src/dev/oled_ssd130x.h ****     }
 2942              		.loc 6 246 42 view .LVU701
 2943              	.LBE858:
 2944              	.LBE861:
 2945              	.LBE865:
 2946              	.LBE870:
 2947              	.LBE874:
 199:../../libdaisy/src/hid/disp/display.h ****         {
 2948              		.loc 5 199 26 is_stmt 1 view .LVU702
 2949              	.LBB875:
 2950              	.LBB871:
 2951              	.LBB866:
 244:../../libdaisy/src/dev/oled_ssd130x.h ****         else
 2952              		.loc 6 244 28 is_stmt 0 view .LVU703
 2953 02f4 4FEAD302 		lsr	r2, r3, #3
 2954              	.LBE866:
 2955              	.LBE871:
 2956              	.LBE875:
 199:../../libdaisy/src/hid/disp/display.h ****         {
 2957              		.loc 5 199 26 view .LVU704
 2958 02f8 EBD1     		bne	.L280
 2959              	.LVL201:
 2960              	.L207:
 199:../../libdaisy/src/hid/disp/display.h ****         {
 2961              		.loc 5 199 26 view .LVU705
 2962              	.LBE843:
 2963              	.LBE842:
 2964              	.LBE887:
 2965              	.LBE730:
 2966              	.LBB958:
 2967              	.LBB959:
 2968              	.LBB960:
 2969              	.LBB961:
 2970              	.LBB962:
 111:../../libdaisy/src/dev/oled_ssd130x.h ****         spi_.BlockingTransmit(&cmd, 1);
 2971              		.loc 6 111 24 view .LVU706
 2972 02fa 04F10807 		add	r7, r4, #8
 112:../../libdaisy/src/dev/oled_ssd130x.h ****     };
 2973              		.loc 6 112 30 view .LVU707
 2974 02fe B026     		movs	r6, #176
 111:../../libdaisy/src/dev/oled_ssd130x.h ****         spi_.BlockingTransmit(&cmd, 1);
 2975              		.loc 6 111 24 view .LVU708
 2976 0300 1034     		adds	r4, r4, #16
ARM GAS  C:\Users\VINCIU~1\AppData\Local\Temp\cchCBePv.s 			page 79


 2977              	.LVL202:
 2978              	.L240:
 111:../../libdaisy/src/dev/oled_ssd130x.h ****         spi_.BlockingTransmit(&cmd, 1);
 2979              		.loc 6 111 24 view .LVU709
 2980 0302 4FF00008 		mov	r8, #0
 111:../../libdaisy/src/dev/oled_ssd130x.h ****         spi_.BlockingTransmit(&cmd, 1);
 2981              		.loc 6 111 23 view .LVU710
 2982 0306 2046     		mov	r0, r4
 2983 0308 8DF81760 		strb	r6, [sp, #23]
 2984              	.LVL203:
 111:../../libdaisy/src/dev/oled_ssd130x.h ****         spi_.BlockingTransmit(&cmd, 1);
 2985              		.loc 6 111 23 view .LVU711
 2986              	.LBE962:
 2987              	.LBI961:
 109:../../libdaisy/src/dev/oled_ssd130x.h ****     {
 2988              		.loc 6 109 10 is_stmt 1 view .LVU712
 2989              	.LBB963:
 111:../../libdaisy/src/dev/oled_ssd130x.h ****         spi_.BlockingTransmit(&cmd, 1);
 2990              		.loc 6 111 9 view .LVU713
 2991              	.LBE963:
 2992              	.LBE961:
 254:../../libdaisy/src/dev/oled_ssd130x.h ****         }
 255:../../libdaisy/src/dev/oled_ssd130x.h ****     };
 256:../../libdaisy/src/dev/oled_ssd130x.h **** 
 257:../../libdaisy/src/dev/oled_ssd130x.h ****     /**
 258:../../libdaisy/src/dev/oled_ssd130x.h ****      * Update the display 
 259:../../libdaisy/src/dev/oled_ssd130x.h ****     */
 260:../../libdaisy/src/dev/oled_ssd130x.h ****     void Update()
 261:../../libdaisy/src/dev/oled_ssd130x.h ****     {
 262:../../libdaisy/src/dev/oled_ssd130x.h ****         uint8_t i;
 263:../../libdaisy/src/dev/oled_ssd130x.h ****         uint8_t high_column_addr;
 264:../../libdaisy/src/dev/oled_ssd130x.h ****         switch(height)
 265:../../libdaisy/src/dev/oled_ssd130x.h ****         {
 266:../../libdaisy/src/dev/oled_ssd130x.h ****             case 32: high_column_addr = 0x12; break;
 267:../../libdaisy/src/dev/oled_ssd130x.h **** 
 268:../../libdaisy/src/dev/oled_ssd130x.h ****             default: high_column_addr = 0x10; break;
 269:../../libdaisy/src/dev/oled_ssd130x.h ****         }
 270:../../libdaisy/src/dev/oled_ssd130x.h ****         for(i = 0; i < (height / 8); i++)
 2993              		.loc 6 270 22 is_stmt 0 view .LVU714
 2994 030c 0136     		adds	r6, r6, #1
 2995              	.LVL204:
 2996              	.LBB966:
 2997              	.LBB964:
 111:../../libdaisy/src/dev/oled_ssd130x.h ****         spi_.BlockingTransmit(&cmd, 1);
 2998              		.loc 6 111 23 view .LVU715
 2999 030e 4146     		mov	r1, r8
 3000 0310 FFF7FEFF 		bl	dsy_gpio_write
 3001              	.LVL205:
 112:../../libdaisy/src/dev/oled_ssd130x.h ****     };
 3002              		.loc 6 112 9 is_stmt 1 view .LVU716
 112:../../libdaisy/src/dev/oled_ssd130x.h ****     };
 3003              		.loc 6 112 30 is_stmt 0 view .LVU717
 3004 0314 6423     		movs	r3, #100
 3005 0316 0122     		movs	r2, #1
 3006 0318 0DF11701 		add	r1, sp, #23
 3007 031c 3846     		mov	r0, r7
 3008              	.LBE964:
ARM GAS  C:\Users\VINCIU~1\AppData\Local\Temp\cchCBePv.s 			page 80


 3009              	.LBE966:
 3010              		.loc 6 270 22 view .LVU718
 3011 031e F6B2     		uxtb	r6, r6
 3012              	.LBB967:
 3013              	.LBB965:
 112:../../libdaisy/src/dev/oled_ssd130x.h ****     };
 3014              		.loc 6 112 30 view .LVU719
 3015 0320 FFF7FEFF 		bl	_ZN5daisy9SpiHandle16BlockingTransmitEPhjm
 3016              	.LVL206:
 112:../../libdaisy/src/dev/oled_ssd130x.h ****     };
 3017              		.loc 6 112 30 view .LVU720
 3018              	.LBE965:
 3019              	.LBE967:
 3020              	.LBB968:
 3021              	.LBB969:
 111:../../libdaisy/src/dev/oled_ssd130x.h ****         spi_.BlockingTransmit(&cmd, 1);
 3022              		.loc 6 111 23 view .LVU721
 3023 0324 4146     		mov	r1, r8
 3024 0326 2046     		mov	r0, r4
 3025 0328 8DF81780 		strb	r8, [sp, #23]
 3026              	.LVL207:
 111:../../libdaisy/src/dev/oled_ssd130x.h ****         spi_.BlockingTransmit(&cmd, 1);
 3027              		.loc 6 111 23 view .LVU722
 3028              	.LBE969:
 3029              	.LBI968:
 109:../../libdaisy/src/dev/oled_ssd130x.h ****     {
 3030              		.loc 6 109 10 is_stmt 1 view .LVU723
 3031              	.LBB970:
 111:../../libdaisy/src/dev/oled_ssd130x.h ****         spi_.BlockingTransmit(&cmd, 1);
 3032              		.loc 6 111 9 view .LVU724
 111:../../libdaisy/src/dev/oled_ssd130x.h ****         spi_.BlockingTransmit(&cmd, 1);
 3033              		.loc 6 111 23 is_stmt 0 view .LVU725
 3034 032c FFF7FEFF 		bl	dsy_gpio_write
 3035              	.LVL208:
 112:../../libdaisy/src/dev/oled_ssd130x.h ****     };
 3036              		.loc 6 112 9 is_stmt 1 view .LVU726
 112:../../libdaisy/src/dev/oled_ssd130x.h ****     };
 3037              		.loc 6 112 30 is_stmt 0 view .LVU727
 3038 0330 0122     		movs	r2, #1
 3039 0332 6423     		movs	r3, #100
 3040 0334 0DF11701 		add	r1, sp, #23
 3041 0338 3846     		mov	r0, r7
 3042 033a FFF7FEFF 		bl	_ZN5daisy9SpiHandle16BlockingTransmitEPhjm
 3043              	.LVL209:
 112:../../libdaisy/src/dev/oled_ssd130x.h ****     };
 3044              		.loc 6 112 30 view .LVU728
 3045 033e 1023     		movs	r3, #16
 3046              	.LBE970:
 3047              	.LBE968:
 3048              	.LBB971:
 3049              	.LBB972:
 111:../../libdaisy/src/dev/oled_ssd130x.h ****         spi_.BlockingTransmit(&cmd, 1);
 3050              		.loc 6 111 23 view .LVU729
 3051 0340 4146     		mov	r1, r8
 3052 0342 2046     		mov	r0, r4
 3053 0344 8DF81730 		strb	r3, [sp, #23]
 3054              	.LVL210:
ARM GAS  C:\Users\VINCIU~1\AppData\Local\Temp\cchCBePv.s 			page 81


 111:../../libdaisy/src/dev/oled_ssd130x.h ****         spi_.BlockingTransmit(&cmd, 1);
 3055              		.loc 6 111 23 view .LVU730
 3056              	.LBE972:
 3057              	.LBI971:
 109:../../libdaisy/src/dev/oled_ssd130x.h ****     {
 3058              		.loc 6 109 10 is_stmt 1 view .LVU731
 3059              	.LBB973:
 111:../../libdaisy/src/dev/oled_ssd130x.h ****         spi_.BlockingTransmit(&cmd, 1);
 3060              		.loc 6 111 9 view .LVU732
 111:../../libdaisy/src/dev/oled_ssd130x.h ****         spi_.BlockingTransmit(&cmd, 1);
 3061              		.loc 6 111 23 is_stmt 0 view .LVU733
 3062 0348 FFF7FEFF 		bl	dsy_gpio_write
 3063              	.LVL211:
 112:../../libdaisy/src/dev/oled_ssd130x.h ****     };
 3064              		.loc 6 112 9 is_stmt 1 view .LVU734
 112:../../libdaisy/src/dev/oled_ssd130x.h ****     };
 3065              		.loc 6 112 30 is_stmt 0 view .LVU735
 3066 034c 6423     		movs	r3, #100
 3067 034e 0122     		movs	r2, #1
 3068 0350 0DF11701 		add	r1, sp, #23
 3069 0354 3846     		mov	r0, r7
 3070 0356 FFF7FEFF 		bl	_ZN5daisy9SpiHandle16BlockingTransmitEPhjm
 3071              	.LVL212:
 112:../../libdaisy/src/dev/oled_ssd130x.h ****     };
 3072              		.loc 6 112 30 view .LVU736
 3073              	.LBE973:
 3074              	.LBE971:
 3075              	.LBB974:
 3076              	.LBI974:
 115:../../libdaisy/src/dev/oled_ssd130x.h ****     {
 3077              		.loc 6 115 10 is_stmt 1 view .LVU737
 3078              	.LBB975:
 117:../../libdaisy/src/dev/oled_ssd130x.h ****         spi_.BlockingTransmit(buff, size);
 3079              		.loc 6 117 9 view .LVU738
 117:../../libdaisy/src/dev/oled_ssd130x.h ****         spi_.BlockingTransmit(buff, size);
 3080              		.loc 6 117 23 is_stmt 0 view .LVU739
 3081 035a 0121     		movs	r1, #1
 3082 035c 2046     		mov	r0, r4
 3083 035e FFF7FEFF 		bl	dsy_gpio_write
 3084              	.LVL213:
 118:../../libdaisy/src/dev/oled_ssd130x.h ****     };
 3085              		.loc 6 118 9 is_stmt 1 view .LVU740
 118:../../libdaisy/src/dev/oled_ssd130x.h ****     };
 3086              		.loc 6 118 30 is_stmt 0 view .LVU741
 3087 0362 8022     		movs	r2, #128
 3088 0364 2946     		mov	r1, r5
 3089 0366 6423     		movs	r3, #100
 3090 0368 3846     		mov	r0, r7
 3091              	.LBE975:
 3092              	.LBE974:
 3093              		.loc 6 270 22 view .LVU742
 3094 036a 1544     		add	r5, r5, r2
 3095              	.LVL214:
 3096              	.LBB977:
 3097              	.LBB976:
 118:../../libdaisy/src/dev/oled_ssd130x.h ****     };
 3098              		.loc 6 118 30 view .LVU743
ARM GAS  C:\Users\VINCIU~1\AppData\Local\Temp\cchCBePv.s 			page 82


 3099 036c FFF7FEFF 		bl	_ZN5daisy9SpiHandle16BlockingTransmitEPhjm
 3100              	.LVL215:
 118:../../libdaisy/src/dev/oled_ssd130x.h ****     };
 3101              		.loc 6 118 30 view .LVU744
 3102              	.LBE976:
 3103              	.LBE977:
 3104              		.loc 6 270 9 is_stmt 1 view .LVU745
 3105              		.loc 6 270 22 view .LVU746
 3106 0370 B82E     		cmp	r6, #184
 3107 0372 C6D1     		bne	.L240
 3108              	.LBE960:
 3109              	.LBE959:
 3110              	.LBE958:
 138:Menus.cpp     ****     }
 139:Menus.cpp     ****     else if(menuState == 1)
 140:Menus.cpp     ****     {
 141:Menus.cpp     ****        
 142:Menus.cpp     ****             if(this->OscSelector == true)
 143:Menus.cpp     ****             {
 144:Menus.cpp     ****                 this->noteSemiAdd    = this->analogRead * 40;
 145:Menus.cpp     ****                 this->drawSliderSemi = this->analogRead;
 146:Menus.cpp     ****                 sprintf(this->buff, "Semi_%dst", this->noteSemiAdd);
 147:Menus.cpp     ****             }
 148:Menus.cpp     ****             else
 149:Menus.cpp     ****             {
 150:Menus.cpp     ****                 this->noteSemiAdd2    = this->analogRead * 40;
 151:Menus.cpp     ****                 this->drawSliderSemi2 = this->analogRead;
 152:Menus.cpp     ****                 sprintf(this->buff2, "Semi_%dst", this->noteSemiAdd2);
 153:Menus.cpp     ****             }
 154:Menus.cpp     ****         
 155:Menus.cpp     **** 
 156:Menus.cpp     ****         screen.DrawRect(
 157:Menus.cpp     ****             60, 0, screen.Width() - 1, screen.Height() / 2 - 3, on, false);
 158:Menus.cpp     ****     }
 159:Menus.cpp     ****     else if(menuState == 2)
 160:Menus.cpp     ****     {
 161:Menus.cpp     ****         
 162:Menus.cpp     ****             if(this->OscSelector == true)
 163:Menus.cpp     ****             {
 164:Menus.cpp     ****                 this->toggleOsc = !OscSelect(this->analogRead);
 165:Menus.cpp     ****                 if(OscSelect(this->analogRead))
 166:Menus.cpp     ****                 {
 167:Menus.cpp     ****                     synthOn = 1;
 168:Menus.cpp     ****                 }
 169:Menus.cpp     ****                 else
 170:Menus.cpp     ****                 {
 171:Menus.cpp     ****                     synthOn = 0;
 172:Menus.cpp     ****                 }
 173:Menus.cpp     ****             }
 174:Menus.cpp     ****             else
 175:Menus.cpp     ****             {
 176:Menus.cpp     ****                 this->toggleOsc2 = !OscSelect(this->analogRead);
 177:Menus.cpp     ****                 if(OscSelect(this->analogRead))
 178:Menus.cpp     ****                 {
 179:Menus.cpp     ****                     synthOn2 = 1;
 180:Menus.cpp     ****                 }
 181:Menus.cpp     ****                 else
ARM GAS  C:\Users\VINCIU~1\AppData\Local\Temp\cchCBePv.s 			page 83


 182:Menus.cpp     ****                 {
 183:Menus.cpp     ****                     synthOn2 = 0;
 184:Menus.cpp     ****                 }
 185:Menus.cpp     ****             }
 186:Menus.cpp     ****         
 187:Menus.cpp     ****         screen.DrawRect(
 188:Menus.cpp     ****             0, screen.Height() / 2 - 3, 29, screen.Height() - 1, on, false);
 189:Menus.cpp     ****     }
 190:Menus.cpp     ****     else if(menuState == 3)
 191:Menus.cpp     ****     {
 192:Menus.cpp     ****         
 193:Menus.cpp     ****             int setWave;
 194:Menus.cpp     ****             selectedWave = WaveSelect(this->analogRead);
 195:Menus.cpp     ****             setWave      = selectedWave;
 196:Menus.cpp     ****             if(setWave == 0)
 197:Menus.cpp     ****             {
 198:Menus.cpp     ****                 for(int i = 0; i < 2; i++)
 199:Menus.cpp     ****                 {
 200:Menus.cpp     ****                     if(this->OscSelector == true)
 201:Menus.cpp     ****                     {
 202:Menus.cpp     ****                         selectedWave = setWave;
 203:Menus.cpp     ****                         osc[0].SetWaveform(osc[0].WAVE_SIN);
 204:Menus.cpp     ****                     }
 205:Menus.cpp     ****                     else
 206:Menus.cpp     ****                     {
 207:Menus.cpp     ****                         selectedWave2 = setWave;
 208:Menus.cpp     ****                         osc[1].SetWaveform(osc[1].WAVE_SIN);
 209:Menus.cpp     ****                     }
 210:Menus.cpp     ****                 }
 211:Menus.cpp     ****             }
 212:Menus.cpp     ****             else if(setWave == 1)
 213:Menus.cpp     ****             {
 214:Menus.cpp     ****                 if(OscSelector == true)
 215:Menus.cpp     ****                 {
 216:Menus.cpp     ****                     selectedWave = setWave;
 217:Menus.cpp     ****                     osc[0].SetWaveform(osc[0].WAVE_TRI);
 218:Menus.cpp     ****                 }
 219:Menus.cpp     ****                 else
 220:Menus.cpp     ****                 {
 221:Menus.cpp     ****                     selectedWave2 = setWave;
 222:Menus.cpp     ****                     osc[1].SetWaveform(osc[1].WAVE_TRI);
 223:Menus.cpp     ****                 }
 224:Menus.cpp     ****             }
 225:Menus.cpp     ****             else if(setWave == 2)
 226:Menus.cpp     ****             {
 227:Menus.cpp     ****                 if(this->OscSelector == true)
 228:Menus.cpp     ****                 {
 229:Menus.cpp     ****                     selectedWave = setWave;
 230:Menus.cpp     ****                     osc[0].SetWaveform(osc[0].WAVE_SQUARE);
 231:Menus.cpp     ****                 }
 232:Menus.cpp     ****                 else
 233:Menus.cpp     ****                 {
 234:Menus.cpp     ****                     selectedWave2 = setWave;
 235:Menus.cpp     ****                     osc[1].SetWaveform(osc[1].WAVE_SQUARE);
 236:Menus.cpp     ****                 }
 237:Menus.cpp     ****             }
 238:Menus.cpp     ****             else if(setWave == 3)
ARM GAS  C:\Users\VINCIU~1\AppData\Local\Temp\cchCBePv.s 			page 84


 239:Menus.cpp     ****             {
 240:Menus.cpp     ****                 if(OscSelector == true)
 241:Menus.cpp     ****                 {
 242:Menus.cpp     ****                     selectedWave = setWave;
 243:Menus.cpp     ****                     osc[0].SetWaveform(osc[0].WAVE_SAW);
 244:Menus.cpp     ****                 }
 245:Menus.cpp     ****                 else
 246:Menus.cpp     ****                 {
 247:Menus.cpp     ****                     selectedWave2 = setWave;
 248:Menus.cpp     ****                     osc[1].SetWaveform(osc[1].WAVE_SAW);
 249:Menus.cpp     ****                 }
 250:Menus.cpp     ****             }
 251:Menus.cpp     ****         
 252:Menus.cpp     ****         screen.DrawRect(
 253:Menus.cpp     ****             29, screen.Height() / 2 - 3, 60, screen.Height() - 1, on, false);
 254:Menus.cpp     ****     }
 255:Menus.cpp     ****     else if(menuState == 4)
 256:Menus.cpp     ****     {
 257:Menus.cpp     ****         
 258:Menus.cpp     ****             if(this->OscSelector == true)
 259:Menus.cpp     ****             {
 260:Menus.cpp     ****                 drawSliderFine = this->analogRead;
 261:Menus.cpp     ****                 freqFine       = this->analogRead;
 262:Menus.cpp     ****                 sprintf(this->buffFine, "Fine_%d%%", (int)(freqFine * 100));
 263:Menus.cpp     ****             }
 264:Menus.cpp     ****             else
 265:Menus.cpp     ****             {
 266:Menus.cpp     ****                 drawSliderFine2 = this->analogRead;
 267:Menus.cpp     ****                 freqFine2       = this->analogRead;
 268:Menus.cpp     ****                 sprintf(this->buffFine2, "Fine_%d%%", (int)(freqFine2 * 100));
 269:Menus.cpp     ****             }
 270:Menus.cpp     ****         
 271:Menus.cpp     ****         screen.DrawRect(60,
 272:Menus.cpp     ****                         screen.Height() / 2 - 3,
 273:Menus.cpp     ****                         screen.Width() - 1,
 274:Menus.cpp     ****                         screen.Height() - 1,
 275:Menus.cpp     ****                         on,
 276:Menus.cpp     ****                         false);
 277:Menus.cpp     ****     }
 278:Menus.cpp     ****     //noteCross            = noteCross + (this->drawSliderSemi * 100);
 279:Menus.cpp     ****     screen.Update();
 280:Menus.cpp     **** }
 3111              		.loc 2 280 1 is_stmt 0 view .LVU747
 3112 0374 07B0     		add	sp, sp, #28
 3113              		.cfi_remember_state
 3114              		.cfi_def_cfa_offset 28
 3115              		@ sp needed
 3116 0376 BDE8F083 		pop	{r4, r5, r6, r7, r8, r9, pc}
 3117              	.LVL216:
 3118              	.L173:
 3119              		.cfi_restore_state
 3120              	.LBB978:
 3121              	.LBB697:
 3122              	.LBB695:
 3123              	.LBB693:
 3124              	.LBB691:
 3125              	.LBB690:
ARM GAS  C:\Users\VINCIU~1\AppData\Local\Temp\cchCBePv.s 			page 85


 246:../../libdaisy/src/dev/oled_ssd130x.h ****     }
 3126              		.loc 6 246 42 view .LVU748
 3127 037a 22F02002 		bic	r2, r2, #32
 3128 037e 8CF89421 		strb	r2, [ip, #404]
 3129 0382 E1E6     		b	.L174
 3130              	.LVL217:
 3131              	.L178:
 246:../../libdaisy/src/dev/oled_ssd130x.h ****     }
 3132              		.loc 6 246 42 view .LVU749
 3133              	.LBE690:
 3134              	.LBE691:
 3135              	.LBE693:
 3136              	.LBE695:
 3137              	.LBE697:
 3138              	.LBE978:
 3139              	.LBB979:
 3140              	.LBB714:
 3141              	.LBB712:
 3142              	.LBB710:
 3143              	.LBB708:
 3144              	.LBB705:
 3145 0384 9CF85010 		ldrb	r1, [ip, #80]	@ zero_extendqisi2
 246:../../libdaisy/src/dev/oled_ssd130x.h ****     }
 3146              		.loc 6 246 49 view .LVU750
 3147 0388 08FA0EF8 		lsl	r8, r8, lr
 246:../../libdaisy/src/dev/oled_ssd130x.h ****     }
 3148              		.loc 6 246 42 view .LVU751
 3149 038c 21EA0808 		bic	r8, r1, r8
 3150 0390 8CF85080 		strb	r8, [ip, #80]
 3151 0394 F9E6     		b	.L179
 3152              	.L289:
 3153 0396 00BF     		.align	2
 3154              	.L288:
 3155 0398 00003842 		.word	1110966272
 3156 039c 00000000 		.word	.LC1
 3157 03a0 46001100 		.word	1114182
 3158 03a4 46003200 		.word	3276870
 3159 03a8 04000800 		.word	524292
 3160 03ac 00000000 		.word	Font_7x10
 3161 03b0 04000000 		.word	.LC2
 3162 03b4 00000000 		.word	Font_6x8
 3163 03b8 00000000 		.word	0
 3164 03bc 00004842 		.word	1112014848
 3165 03c0 00008C42 		.word	1116471296
 3166 03c4 00002042 		.word	1109393408
 3167 03c8 00004C42 		.word	1112276992
 3168              	.LVL218:
 3169              	.L182:
 246:../../libdaisy/src/dev/oled_ssd130x.h ****     }
 3170              		.loc 6 246 42 view .LVU752
 3171              	.LBE705:
 3172              	.LBE708:
 3173              	.LBE710:
 3174              	.LBE712:
 3175              	.LBE714:
 3176              	.LBE979:
 3177              	.LBB980:
ARM GAS  C:\Users\VINCIU~1\AppData\Local\Temp\cchCBePv.s 			page 86


 3178              	.LBB729:
 3179              	.LBB727:
 3180              	.LBB725:
 3181              	.LBB723:
 3182              	.LBB721:
 3183 03cc 9CF83120 		ldrb	r2, [ip, #49]	@ zero_extendqisi2
 246:../../libdaisy/src/dev/oled_ssd130x.h ****     }
 3184              		.loc 6 246 49 view .LVU753
 3185 03d0 08FA0EF8 		lsl	r8, r8, lr
 246:../../libdaisy/src/dev/oled_ssd130x.h ****     }
 3186              		.loc 6 246 42 view .LVU754
 3187 03d4 22EA0808 		bic	r8, r2, r8
 3188 03d8 8CF83180 		strb	r8, [ip, #49]
 3189 03dc F0E6     		b	.L183
 3190              	.LVL219:
 3191              	.L170:
 246:../../libdaisy/src/dev/oled_ssd130x.h ****     }
 3192              		.loc 6 246 42 view .LVU755
 3193              	.LBE721:
 3194              	.LBE723:
 3195              	.LBE725:
 3196              	.LBE727:
 3197              	.LBE729:
 3198              	.LBE980:
 103:Menus.cpp     ****         screen.drawSlider(70, 40, 50, 3, false, drawSliderFine2);
 3199              		.loc 2 103 9 is_stmt 1 view .LVU756
 103:Menus.cpp     ****         screen.drawSlider(70, 40, 50, 3, false, drawSliderFine2);
 3200              		.loc 2 103 26 is_stmt 0 view .LVU757
 3201 03de D6ED202A 		vldr.32	s5, [r6, #128]
 3202 03e2 2046     		mov	r0, r4
 3203 03e4 F0EE081A 		vmov.f32	s3, #3.0e+0
 3204 03e8 1FED0D2A 		vldr.32	s4, .L288+32
 3205 03ec F1EE0C0A 		vmov.f32	s1, #7.0e+0
 3206 03f0 1FED0E1A 		vldr.32	s2, .L288+36
 3207 03f4 1FED0E0A 		vldr.32	s0, .L288+40
 3208 03f8 FFF7FEFF 		bl	_ZN23OledDisplayExtravaganza10drawSliderEffffff
 3209              	.LVL220:
 104:Menus.cpp     ****         screen.drawVerticalToggle(13, 51, 8, false, this->toggleOsc2, "");
 3210              		.loc 2 104 9 is_stmt 1 view .LVU758
 104:Menus.cpp     ****         screen.drawVerticalToggle(13, 51, 8, false, this->toggleOsc2, "");
 3211              		.loc 2 104 26 is_stmt 0 view .LVU759
 3212 03fc F0EE081A 		vmov.f32	s3, #3.0e+0
 3213 0400 D6ED212A 		vldr.32	s5, [r6, #132]
 3214 0404 2046     		mov	r0, r4
 3215 0406 1FED142A 		vldr.32	s4, .L288+32
 3216 040a 1FED141A 		vldr.32	s2, .L288+36
 3217 040e 5FED130A 		vldr.32	s1, .L288+44
 3218 0412 1FED150A 		vldr.32	s0, .L288+40
 3219 0416 FFF7FEFF 		bl	_ZN23OledDisplayExtravaganza10drawSliderEffffff
 3220              	.LVL221:
 105:Menus.cpp     ****         screen.WaveIcons(35, 42, 55, this->selectedWave2, false);
 3221              		.loc 2 105 9 is_stmt 1 view .LVU760
 105:Menus.cpp     ****         screen.WaveIcons(35, 42, 55, this->selectedWave2, false);
 3222              		.loc 2 105 34 is_stmt 0 view .LVU761
 3223 041a B2EE001A 		vmov.f32	s2, #8.0e+0
 3224 041e B2EE0A0A 		vmov.f32	s0, #1.3e+1
 3225 0422 5FED170A 		vldr.32	s1, .L288+48
ARM GAS  C:\Users\VINCIU~1\AppData\Local\Temp\cchCBePv.s 			page 87


 3226 0426 96F89920 		ldrb	r2, [r6, #153]	@ zero_extendqisi2
 3227 042a 4146     		mov	r1, r8
 3228 042c 2046     		mov	r0, r4
 3229 042e B24B     		ldr	r3, .L290
 3230 0430 FFF7FEFF 		bl	_ZN23OledDisplayExtravaganza18drawVerticalToggleEfffbbPKc
 3231              	.LVL222:
 106:Menus.cpp     ****         screen.SetCursor(70, 17);
 3232              		.loc 2 106 9 is_stmt 1 view .LVU762
 106:Menus.cpp     ****         screen.SetCursor(70, 17);
 3233              		.loc 2 106 25 is_stmt 0 view .LVU763
 3234 0434 CDF80480 		str	r8, [sp, #4]
 3235 0438 D6F8A030 		ldr	r3, [r6, #160]
 3236 043c 2046     		mov	r0, r4
 3237 043e 2A22     		movs	r2, #42
 3238 0440 2321     		movs	r1, #35
 3239 0442 0093     		str	r3, [sp]
 3240 0444 3723     		movs	r3, #55
 3241 0446 FFF7FEFF 		bl	_ZN23OledDisplayExtravaganza9WaveIconsEiiiib
 3242              	.LVL223:
 107:Menus.cpp     ****         screen.WriteString(this->buff2, Font_6x8, false);
 3243              		.loc 2 107 9 is_stmt 1 view .LVU764
 3244              	.LBB981:
 3245              	.LBI981:
 131:../../libdaisy/src/hid/disp/display.h ****     {
 3246              		.loc 5 131 10 view .LVU765
 3247              	.LBB982:
 133:../../libdaisy/src/hid/disp/display.h ****         currentY_ = (y >= Height()) ? Height() - 1 : y;
 3248              		.loc 5 133 9 view .LVU766
 134:../../libdaisy/src/hid/disp/display.h ****     }
 3249              		.loc 5 134 9 view .LVU767
 3250              	.LBE982:
 3251              	.LBE981:
 108:Menus.cpp     ****         screen.SetCursor(70, 50);
 3252              		.loc 2 108 27 is_stmt 0 view .LVU768
 3253 044a DFF8C892 		ldr	r9, .L290+28
 3254              	.LBB985:
 3255              	.LBB983:
 133:../../libdaisy/src/hid/disp/display.h ****         currentY_ = (y >= Height()) ? Height() - 1 : y;
 3256              		.loc 5 133 19 view .LVU769
 3257 044e AB4B     		ldr	r3, .L290+4
 3258              	.LBE983:
 3259              	.LBE985:
 108:Menus.cpp     ****         screen.SetCursor(70, 50);
 3260              		.loc 2 108 27 view .LVU770
 3261 0450 06F1BC01 		add	r1, r6, #188
 3262 0454 CDF80080 		str	r8, [sp]
 3263 0458 2046     		mov	r0, r4
 3264              	.LBB986:
 3265              	.LBB984:
 133:../../libdaisy/src/hid/disp/display.h ****         currentY_ = (y >= Height()) ? Height() - 1 : y;
 3266              		.loc 5 133 19 view .LVU771
 3267 045a 6360     		str	r3, [r4, #4]
 3268              	.LVL224:
 133:../../libdaisy/src/hid/disp/display.h ****         currentY_ = (y >= Height()) ? Height() - 1 : y;
 3269              		.loc 5 133 19 view .LVU772
 3270              	.LBE984:
 3271              	.LBE986:
ARM GAS  C:\Users\VINCIU~1\AppData\Local\Temp\cchCBePv.s 			page 88


 108:Menus.cpp     ****         screen.SetCursor(70, 50);
 3272              		.loc 2 108 9 is_stmt 1 view .LVU773
 108:Menus.cpp     ****         screen.SetCursor(70, 50);
 3273              		.loc 2 108 27 is_stmt 0 view .LVU774
 3274 045c 99E80C00 		ldm	r9, {r2, r3}
 3275 0460 FFF7FEFF 		bl	_ZN5daisy25OneBitGraphicsDisplayImplINS_11OledDisplayINS_13SSD130xDriverILj128ELj64ENS_24SSD130
 3276              	.LVL225:
 109:Menus.cpp     ****         screen.WriteString(this->buffFine2, Font_6x8, false);
 3277              		.loc 2 109 9 is_stmt 1 view .LVU775
 3278              	.LBB987:
 3279              	.LBI987:
 131:../../libdaisy/src/hid/disp/display.h ****     {
 3280              		.loc 5 131 10 view .LVU776
 3281              	.LBB988:
 133:../../libdaisy/src/hid/disp/display.h ****         currentY_ = (y >= Height()) ? Height() - 1 : y;
 3282              		.loc 5 133 9 view .LVU777
 134:../../libdaisy/src/hid/disp/display.h ****     }
 3283              		.loc 5 134 9 view .LVU778
 133:../../libdaisy/src/hid/disp/display.h ****         currentY_ = (y >= Height()) ? Height() - 1 : y;
 3284              		.loc 5 133 19 is_stmt 0 view .LVU779
 3285 0464 A64B     		ldr	r3, .L290+8
 3286              	.LBE988:
 3287              	.LBE987:
 110:Menus.cpp     ****     }
 3288              		.loc 2 110 27 view .LVU780
 3289 0466 CDF80080 		str	r8, [sp]
 3290 046a 06F1EC01 		add	r1, r6, #236
 3291              	.LBB990:
 3292              	.LBB989:
 133:../../libdaisy/src/hid/disp/display.h ****         currentY_ = (y >= Height()) ? Height() - 1 : y;
 3293              		.loc 5 133 19 view .LVU781
 3294 046e 6360     		str	r3, [r4, #4]
 3295              	.LVL226:
 133:../../libdaisy/src/hid/disp/display.h ****         currentY_ = (y >= Height()) ? Height() - 1 : y;
 3296              		.loc 5 133 19 view .LVU782
 3297              	.LBE989:
 3298              	.LBE990:
 110:Menus.cpp     ****     }
 3299              		.loc 2 110 9 is_stmt 1 view .LVU783
 110:Menus.cpp     ****     }
 3300              		.loc 2 110 27 is_stmt 0 view .LVU784
 3301 0470 2046     		mov	r0, r4
 3302 0472 99E80C00 		ldm	r9, {r2, r3}
 3303 0476 FFF7FEFF 		bl	_ZN5daisy25OneBitGraphicsDisplayImplINS_11OledDisplayINS_13SSD130xDriverILj128ELj64ENS_24SSD130
 3304              	.LVL227:
 3305 047a 4BE6     		b	.L171
 3306              	.L185:
 139:Menus.cpp     ****     {
 3307              		.loc 2 139 10 is_stmt 1 view .LVU785
 3308              	.LBB991:
 3309              	.LBB888:
 3310 047c 0129     		cmp	r1, #1
 3311 047e 48D0     		beq	.L281
 3312              	.LBE888:
 3313              	.LBE991:
 159:Menus.cpp     ****     {
 3314              		.loc 2 159 10 view .LVU786
ARM GAS  C:\Users\VINCIU~1\AppData\Local\Temp\cchCBePv.s 			page 89


 3315              	.LBB992:
 3316              	.LBB950:
 3317              	.LBB889:
 3318 0480 0229     		cmp	r1, #2
 3319 0482 00F0B880 		beq	.L282
 3320              	.LBE889:
 3321              	.LBE950:
 3322              	.LBE992:
 190:Menus.cpp     ****     {
 3323              		.loc 2 190 10 view .LVU787
 3324              	.LBB993:
 3325              	.LBB951:
 3326              	.LBB945:
 3327              	.LBB890:
 3328 0486 0329     		cmp	r1, #3
 3329 0488 68D0     		beq	.L283
 255:Menus.cpp     ****     {
 3330              		.loc 2 255 10 view .LVU788
 3331 048a 0429     		cmp	r1, #4
 3332 048c 7FF435AF 		bne	.L207
 258:Menus.cpp     ****             {
 3333              		.loc 2 258 13 view .LVU789
 3334 0490 96F87430 		ldrb	r3, [r6, #116]	@ zero_extendqisi2
 260:Menus.cpp     ****                 freqFine       = this->analogRead;
 3335              		.loc 2 260 40 is_stmt 0 view .LVU790
 3336 0494 96ED007A 		vldr.32	s14, [r6]
 262:Menus.cpp     ****             }
 3337              		.loc 2 262 69 view .LVU791
 3338 0498 DFED9A7A 		vldr.32	s15, .L290+12
 262:Menus.cpp     ****             }
 3339              		.loc 2 262 24 view .LVU792
 3340 049c 9A49     		ldr	r1, .L290+16
 258:Menus.cpp     ****             {
 3341              		.loc 2 258 13 view .LVU793
 3342 049e 002B     		cmp	r3, #0
 3343 04a0 00F0FA80 		beq	.L238
 260:Menus.cpp     ****                 freqFine       = this->analogRead;
 3344              		.loc 2 260 17 is_stmt 1 view .LVU794
 262:Menus.cpp     ****             }
 3345              		.loc 2 262 69 is_stmt 0 view .LVU795
 3346 04a4 67EE277A 		vmul.f32	s15, s14, s15
 262:Menus.cpp     ****             }
 3347              		.loc 2 262 24 view .LVU796
 3348 04a8 06F1D400 		add	r0, r6, #212
 260:Menus.cpp     ****                 freqFine       = this->analogRead;
 3349              		.loc 2 260 32 view .LVU797
 3350 04ac 86ED1F7A 		vstr.32	s14, [r6, #124]
 261:Menus.cpp     ****                 sprintf(this->buffFine, "Fine_%d%%", (int)(freqFine * 100));
 3351              		.loc 2 261 17 is_stmt 1 view .LVU798
 261:Menus.cpp     ****                 sprintf(this->buffFine, "Fine_%d%%", (int)(freqFine * 100));
 3352              		.loc 2 261 32 is_stmt 0 view .LVU799
 3353 04b0 86ED517A 		vstr.32	s14, [r6, #324]
 262:Menus.cpp     ****             }
 3354              		.loc 2 262 17 is_stmt 1 view .LVU800
 262:Menus.cpp     ****             }
 3355              		.loc 2 262 24 is_stmt 0 view .LVU801
 3356 04b4 FDEEE77A 		vcvt.s32.f32	s15, s15
ARM GAS  C:\Users\VINCIU~1\AppData\Local\Temp\cchCBePv.s 			page 90


 3357 04b8 17EE902A 		vmov	r2, s15	@ int
 3358 04bc FFF7FEFF 		bl	sprintf
 3359              	.LVL228:
 3360              	.L239:
 271:Menus.cpp     ****                         screen.Height() / 2 - 3,
 3361              		.loc 2 271 9 is_stmt 1 view .LVU802
 271:Menus.cpp     ****                         screen.Height() / 2 - 3,
 3362              		.loc 2 271 24 is_stmt 0 view .LVU803
 3363 04c0 96F84C31 		ldrb	r3, [r6, #332]	@ zero_extendqisi2
 3364 04c4 0022     		movs	r2, #0
 3365 04c6 3F21     		movs	r1, #63
 3366 04c8 2046     		mov	r0, r4
 3367 04ca CDE90132 		strd	r3, r2, [sp, #4]
 3368 04ce 0091     		str	r1, [sp]
 3369 04d0 7F23     		movs	r3, #127
 3370 04d2 1D22     		movs	r2, #29
 3371 04d4 3C21     		movs	r1, #60
 3372 04d6 FFF7FEFF 		bl	_ZN5daisy25OneBitGraphicsDisplayImplINS_11OledDisplayINS_13SSD130xDriverILj128ELj64ENS_24SSD130
 3373              	.LVL229:
 3374 04da 0EE7     		b	.L207
 3375              	.LVL230:
 3376              	.L272:
 271:Menus.cpp     ****                         screen.Height() / 2 - 3,
 3377              		.loc 2 271 24 view .LVU804
 3378              	.LBE890:
 3379              	.LBE945:
 3380              	.LBE951:
 134:Menus.cpp     ****             on                = this->OscSelector;
 3381              		.loc 2 134 31 view .LVU805
 3382 04dc 0121     		movs	r1, #1
 3383              	.LBB952:
 3384              	.LBB878:
 3385              	.LBB768:
 3386              	.LBB764:
 3387              	.LBB751:
 3388              	.LBB747:
 244:../../libdaisy/src/dev/oled_ssd130x.h ****         else
 3389              		.loc 6 244 42 view .LVU806
 3390 04de 0B43     		orrs	r3, r3, r1
 3391              	.LBE747:
 3392              	.LBE751:
 3393              	.LBE764:
 3394              	.LBE768:
 3395              	.LBE878:
 3396              	.LBE952:
 134:Menus.cpp     ****             on                = this->OscSelector;
 3397              		.loc 2 134 31 view .LVU807
 3398 04e0 86F87410 		strb	r1, [r6, #116]
 135:Menus.cpp     ****         
 3399              		.loc 2 135 13 is_stmt 1 view .LVU808
 135:Menus.cpp     ****         
 3400              		.loc 2 135 31 is_stmt 0 view .LVU809
 3401 04e4 86F84C11 		strb	r1, [r6, #332]
 137:Menus.cpp     ****     }
 3402              		.loc 2 137 9 is_stmt 1 view .LVU810
 3403              	.LVL231:
 3404              	.LBB953:
ARM GAS  C:\Users\VINCIU~1\AppData\Local\Temp\cchCBePv.s 			page 91


 217:../../libdaisy/src/hid/disp/display.h ****                   uint_fast8_t y1,
 3405              		.loc 5 217 10 view .LVU811
 3406              	.LBB879:
 181:../../libdaisy/src/hid/disp/display.h ****                   uint_fast8_t y1,
 3407              		.loc 5 181 10 view .LVU812
 3408              	.LBB769:
 3409              	.LBB765:
 3410              		.loc 1 41 10 view .LVU813
 3411              	.LBB752:
 239:../../libdaisy/src/dev/oled_ssd130x.h ****     {
 3412              		.loc 6 239 10 view .LVU814
 3413              	.LBB748:
 244:../../libdaisy/src/dev/oled_ssd130x.h ****         else
 3414              		.loc 6 244 42 is_stmt 0 view .LVU815
 3415 04e8 84F85030 		strb	r3, [r4, #80]
 3416 04ec 86E6     		b	.L188
 3417              	.LVL232:
 3418              	.L267:
 244:../../libdaisy/src/dev/oled_ssd130x.h ****         else
 3419              		.loc 6 244 42 view .LVU816
 3420              	.LBE748:
 3421              	.LBE752:
 3422              	.LBE765:
 3423              	.LBE769:
 3424              	.LBE879:
 3425              	.LBE953:
 3426              	.LBE993:
  72:Menus.cpp     ****         if(menuState < 0)
 3427              		.loc 2 72 9 is_stmt 1 view .LVU817
  73:Menus.cpp     ****         {
 3428              		.loc 2 73 9 view .LVU818
  72:Menus.cpp     ****         if(menuState < 0)
 3429              		.loc 2 72 31 is_stmt 0 view .LVU819
 3430 04ee F36E     		ldr	r3, [r6, #108]
  73:Menus.cpp     ****         {
 3431              		.loc 2 73 9 view .LVU820
 3432 04f0 013B     		subs	r3, r3, #1
 3433 04f2 78D4     		bmi	.L166
  72:Menus.cpp     ****         if(menuState < 0)
 3434              		.loc 2 72 19 view .LVU821
 3435 04f4 F366     		str	r3, [r6, #108]
  78:Menus.cpp     **** 
 3436              		.loc 2 78 5 is_stmt 1 view .LVU822
 3437              	.LVL233:
 3438              	.LBB994:
 3439              		.loc 4 69 17 view .LVU823
 3440              	.LBB671:
 3441              		.loc 4 69 38 view .LVU824
 3442              		.loc 4 69 38 is_stmt 0 view .LVU825
 3443              	.LBE671:
 3444              	.LBE994:
  78:Menus.cpp     **** 
 3445              		.loc 2 78 5 view .LVU826
 3446 04f6 96F86130 		ldrb	r3, [r6, #97]	@ zero_extendqisi2
 3447 04fa 7F2B     		cmp	r3, #127
 3448 04fc 7FF49DAD 		bne	.L168
 3449              	.L268:
ARM GAS  C:\Users\VINCIU~1\AppData\Local\Temp\cchCBePv.s 			page 92


  81:Menus.cpp     ****         if(menuState > 4)
 3450              		.loc 2 81 9 is_stmt 1 view .LVU827
  81:Menus.cpp     ****         if(menuState > 4)
 3451              		.loc 2 81 31 is_stmt 0 view .LVU828
 3452 0500 F36E     		ldr	r3, [r6, #108]
 3453 0502 0133     		adds	r3, r3, #1
  82:Menus.cpp     ****         {
 3454              		.loc 2 82 9 view .LVU829
 3455 0504 042B     		cmp	r3, #4
  81:Menus.cpp     ****         if(menuState > 4)
 3456              		.loc 2 81 19 view .LVU830
 3457 0506 F366     		str	r3, [r6, #108]
  82:Menus.cpp     ****         {
 3458              		.loc 2 82 9 is_stmt 1 view .LVU831
 3459 0508 7FF797AD 		ble	.L168
 3460              	.L167:
  84:Menus.cpp     ****         }
 3461              		.loc 2 84 13 view .LVU832
  84:Menus.cpp     ****         }
 3462              		.loc 2 84 23 is_stmt 0 view .LVU833
 3463 050c 0023     		movs	r3, #0
 3464 050e F366     		str	r3, [r6, #108]
 3465 0510 93E5     		b	.L168
 3466              	.L281:
 3467              	.LBB995:
 3468              	.LBB954:
 142:Menus.cpp     ****             {
 3469              		.loc 2 142 13 is_stmt 1 view .LVU834
 144:Menus.cpp     ****                 this->drawSliderSemi = this->analogRead;
 3470              		.loc 2 144 46 is_stmt 0 view .LVU835
 3471 0512 96ED007A 		vldr.32	s14, [r6]
 144:Menus.cpp     ****                 this->drawSliderSemi = this->analogRead;
 3472              		.loc 2 144 57 view .LVU836
 3473 0516 DFED7D7A 		vldr.32	s15, .L290+20
 142:Menus.cpp     ****             {
 3474              		.loc 2 142 13 view .LVU837
 3475 051a 96F87430 		ldrb	r3, [r6, #116]	@ zero_extendqisi2
 144:Menus.cpp     ****                 this->drawSliderSemi = this->analogRead;
 3476              		.loc 2 144 57 view .LVU838
 3477 051e 67EE277A 		vmul.f32	s15, s14, s15
 142:Menus.cpp     ****             {
 3478              		.loc 2 142 13 view .LVU839
 3479 0522 002B     		cmp	r3, #0
 3480 0524 00F08780 		beq	.L210
 144:Menus.cpp     ****                 this->drawSliderSemi = this->analogRead;
 3481              		.loc 2 144 17 is_stmt 1 view .LVU840
 144:Menus.cpp     ****                 this->drawSliderSemi = this->analogRead;
 3482              		.loc 2 144 38 is_stmt 0 view .LVU841
 3483 0528 FDEEE77A 		vcvt.s32.f32	s15, s15
 146:Menus.cpp     ****             }
 3484              		.loc 2 146 24 view .LVU842
 3485 052c 7849     		ldr	r1, .L290+24
 3486 052e 06F1A400 		add	r0, r6, #164
 145:Menus.cpp     ****                 sprintf(this->buff, "Semi_%dst", this->noteSemiAdd);
 3487              		.loc 2 145 38 view .LVU843
 3488 0532 86ED1E7A 		vstr.32	s14, [r6, #120]
 144:Menus.cpp     ****                 this->drawSliderSemi = this->analogRead;
ARM GAS  C:\Users\VINCIU~1\AppData\Local\Temp\cchCBePv.s 			page 93


 3489              		.loc 2 144 38 view .LVU844
 3490 0536 17EE902A 		vmov	r2, s15	@ int
 3491 053a C6ED4D7A 		vstr.32	s15, [r6, #308]	@ int
 145:Menus.cpp     ****                 sprintf(this->buff, "Semi_%dst", this->noteSemiAdd);
 3492              		.loc 2 145 17 is_stmt 1 view .LVU845
 146:Menus.cpp     ****             }
 3493              		.loc 2 146 17 view .LVU846
 146:Menus.cpp     ****             }
 3494              		.loc 2 146 24 is_stmt 0 view .LVU847
 3495 053e FFF7FEFF 		bl	sprintf
 3496              	.LVL234:
 3497              	.L211:
 156:Menus.cpp     ****             60, 0, screen.Width() - 1, screen.Height() / 2 - 3, on, false);
 3498              		.loc 2 156 9 is_stmt 1 view .LVU848
 156:Menus.cpp     ****             60, 0, screen.Width() - 1, screen.Height() / 2 - 3, on, false);
 3499              		.loc 2 156 24 is_stmt 0 view .LVU849
 3500 0542 96F84C11 		ldrb	r1, [r6, #332]	@ zero_extendqisi2
 3501 0546 0022     		movs	r2, #0
 3502 0548 1D23     		movs	r3, #29
 3503 054a 2046     		mov	r0, r4
 3504 054c CDE90112 		strd	r1, r2, [sp, #4]
 3505 0550 0093     		str	r3, [sp]
 3506 0552 3C21     		movs	r1, #60
 3507 0554 7F23     		movs	r3, #127
 3508 0556 FFF7FEFF 		bl	_ZN5daisy25OneBitGraphicsDisplayImplINS_11OledDisplayINS_13SSD130xDriverILj128ELj64ENS_24SSD130
 3509              	.LVL235:
 3510 055a CEE6     		b	.L207
 3511              	.L283:
 3512              	.LBB946:
 3513              	.LBB926:
 3514              	.LBB891:
 193:Menus.cpp     ****             selectedWave = WaveSelect(this->analogRead);
 3515              		.loc 2 193 13 is_stmt 1 view .LVU850
 194:Menus.cpp     ****             setWave      = selectedWave;
 3516              		.loc 2 194 13 view .LVU851
 194:Menus.cpp     ****             setWave      = selectedWave;
 3517              		.loc 2 194 38 is_stmt 0 view .LVU852
 3518 055c D6ED007A 		vldr.32	s15, [r6]
 3519              	.LVL236:
 3520              	.LBB892:
 3521              	.LBI892:
  24:Menus.cpp     **** {
 3522              		.loc 2 24 5 is_stmt 1 view .LVU853
 3523              	.LBB893:
  26:Menus.cpp     ****     if(select >= 0 && select < 0.25)
 3524              		.loc 2 26 5 view .LVU854
  27:Menus.cpp     ****     {
 3525              		.loc 2 27 5 view .LVU855
 3526 0560 F5EEC07A 		vcmpe.f32	s15, #0
 3527 0564 F1EE10FA 		vmrs	APSR_nzcv, FPSCR
 3528 0568 0EDB     		blt	.L219
  27:Menus.cpp     ****     {
 3529              		.loc 2 27 20 is_stmt 0 view .LVU856
 3530 056a B5EE007A 		vmov.f32	s14, #2.5e-1
 3531 056e F4EEC77A 		vcmpe.f32	s15, s14
 3532 0572 F1EE10FA 		vmrs	APSR_nzcv, FPSCR
 3533 0576 77D4     		bmi	.L221
ARM GAS  C:\Users\VINCIU~1\AppData\Local\Temp\cchCBePv.s 			page 94


  32:Menus.cpp     ****     {
 3534              		.loc 2 32 25 view .LVU857
 3535 0578 B6EE007A 		vmov.f32	s14, #5.0e-1
 3536 057c F4EEC77A 		vcmpe.f32	s15, s14
 3537 0580 F1EE10FA 		vmrs	APSR_nzcv, FPSCR
 3538 0584 00F1A280 		bmi	.L222
 3539              	.L219:
  37:Menus.cpp     ****     {
 3540              		.loc 2 37 10 is_stmt 1 view .LVU858
 3541 0588 B6EE007A 		vmov.f32	s14, #5.0e-1
 3542 058c F4EEC77A 		vcmpe.f32	s15, s14
 3543 0590 F1EE10FA 		vmrs	APSR_nzcv, FPSCR
 3544 0594 77DB     		blt	.L223
  37:Menus.cpp     ****     {
 3545              		.loc 2 37 27 is_stmt 0 view .LVU859
 3546 0596 B6EE087A 		vmov.f32	s14, #7.5e-1
 3547 059a F4EEC77A 		vcmpe.f32	s15, s14
 3548 059e F1EE10FA 		vmrs	APSR_nzcv, FPSCR
 3549 05a2 70D5     		bpl	.L223
 3550              	.LVL237:
  37:Menus.cpp     ****     {
 3551              		.loc 2 37 27 view .LVU860
 3552              	.LBE893:
 3553              	.LBE892:
 194:Menus.cpp     ****             setWave      = selectedWave;
 3554              		.loc 2 194 26 view .LVU861
 3555 05a4 0223     		movs	r3, #2
 3556              	.LBB894:
 227:Menus.cpp     ****                 {
 3557              		.loc 2 227 17 view .LVU862
 3558 05a6 96F87420 		ldrb	r2, [r6, #116]	@ zero_extendqisi2
 3559              	.LBE894:
 194:Menus.cpp     ****             setWave      = selectedWave;
 3560              		.loc 2 194 26 view .LVU863
 3561 05aa C6F89C30 		str	r3, [r6, #156]
 195:Menus.cpp     ****             if(setWave == 0)
 3562              		.loc 2 195 13 is_stmt 1 view .LVU864
 3563              	.LVL238:
 196:Menus.cpp     ****             {
 3564              		.loc 2 196 13 view .LVU865
 3565              	.LBB916:
 212:Menus.cpp     ****             {
 3566              		.loc 2 212 18 view .LVU866
 227:Menus.cpp     ****                 {
 3567              		.loc 2 227 17 view .LVU867
 3568 05ae 002A     		cmp	r2, #0
 3569 05b0 00F09680 		beq	.L284
 229:Menus.cpp     ****                     osc[0].SetWaveform(osc[0].WAVE_SQUARE);
 3570              		.loc 2 229 21 view .LVU868
 230:Menus.cpp     ****                 }
 3571              		.loc 2 230 21 view .LVU869
 3572              	.LVL239:
 3573              	.LBB895:
 3574              	.LBI895:
 3575              		.file 7 "../../DaisySP/Source/Synthesis/oscillator.h"
   1:../../DaisySP/Source/Synthesis/oscillator.h **** #pragma once
   2:../../DaisySP/Source/Synthesis/oscillator.h **** #ifndef DSY_OSCILLATOR_H
ARM GAS  C:\Users\VINCIU~1\AppData\Local\Temp\cchCBePv.s 			page 95


   3:../../DaisySP/Source/Synthesis/oscillator.h **** #define DSY_OSCILLATOR_H
   4:../../DaisySP/Source/Synthesis/oscillator.h **** #include <stdint.h>
   5:../../DaisySP/Source/Synthesis/oscillator.h **** #include "Utility/dsp.h"
   6:../../DaisySP/Source/Synthesis/oscillator.h **** #ifdef __cplusplus
   7:../../DaisySP/Source/Synthesis/oscillator.h **** 
   8:../../DaisySP/Source/Synthesis/oscillator.h **** namespace daisysp
   9:../../DaisySP/Source/Synthesis/oscillator.h **** {
  10:../../DaisySP/Source/Synthesis/oscillator.h **** /** Synthesis of several waveforms, including polyBLEP bandlimited waveforms.
  11:../../DaisySP/Source/Synthesis/oscillator.h **** */
  12:../../DaisySP/Source/Synthesis/oscillator.h **** class Oscillator
  13:../../DaisySP/Source/Synthesis/oscillator.h **** {
  14:../../DaisySP/Source/Synthesis/oscillator.h ****   public:
  15:../../DaisySP/Source/Synthesis/oscillator.h ****     Oscillator() {}
  16:../../DaisySP/Source/Synthesis/oscillator.h ****     ~Oscillator() {}
  17:../../DaisySP/Source/Synthesis/oscillator.h ****     /** Choices for output waveforms, POLYBLEP are appropriately labeled. Others are naive forms.
  18:../../DaisySP/Source/Synthesis/oscillator.h ****     */
  19:../../DaisySP/Source/Synthesis/oscillator.h ****     enum
  20:../../DaisySP/Source/Synthesis/oscillator.h ****     {
  21:../../DaisySP/Source/Synthesis/oscillator.h ****         WAVE_SIN,
  22:../../DaisySP/Source/Synthesis/oscillator.h ****         WAVE_TRI,
  23:../../DaisySP/Source/Synthesis/oscillator.h ****         WAVE_SAW,
  24:../../DaisySP/Source/Synthesis/oscillator.h ****         WAVE_RAMP,
  25:../../DaisySP/Source/Synthesis/oscillator.h ****         WAVE_SQUARE,
  26:../../DaisySP/Source/Synthesis/oscillator.h ****         WAVE_POLYBLEP_TRI,
  27:../../DaisySP/Source/Synthesis/oscillator.h ****         WAVE_POLYBLEP_SAW,
  28:../../DaisySP/Source/Synthesis/oscillator.h ****         WAVE_POLYBLEP_SQUARE,
  29:../../DaisySP/Source/Synthesis/oscillator.h ****         WAVE_LAST,
  30:../../DaisySP/Source/Synthesis/oscillator.h ****     };
  31:../../DaisySP/Source/Synthesis/oscillator.h **** 
  32:../../DaisySP/Source/Synthesis/oscillator.h **** 
  33:../../DaisySP/Source/Synthesis/oscillator.h ****     /** Initializes the Oscillator
  34:../../DaisySP/Source/Synthesis/oscillator.h **** 
  35:../../DaisySP/Source/Synthesis/oscillator.h ****         \param sample_rate - sample rate of the audio engine being run, and the frequency that the 
  36:../../DaisySP/Source/Synthesis/oscillator.h **** 
  37:../../DaisySP/Source/Synthesis/oscillator.h ****         Defaults:
  38:../../DaisySP/Source/Synthesis/oscillator.h ****         - freq_ = 100 Hz
  39:../../DaisySP/Source/Synthesis/oscillator.h ****         - amp_ = 0.5
  40:../../DaisySP/Source/Synthesis/oscillator.h ****         - waveform_ = sine wave.
  41:../../DaisySP/Source/Synthesis/oscillator.h ****     */
  42:../../DaisySP/Source/Synthesis/oscillator.h ****     void Init(float sample_rate)
  43:../../DaisySP/Source/Synthesis/oscillator.h ****     {
  44:../../DaisySP/Source/Synthesis/oscillator.h ****         sr_        = sample_rate;
  45:../../DaisySP/Source/Synthesis/oscillator.h ****         sr_recip_  = 1.0f / sample_rate;
  46:../../DaisySP/Source/Synthesis/oscillator.h ****         freq_      = 100.0f;
  47:../../DaisySP/Source/Synthesis/oscillator.h ****         amp_       = 0.5f;
  48:../../DaisySP/Source/Synthesis/oscillator.h ****         phase_     = 0.0f;
  49:../../DaisySP/Source/Synthesis/oscillator.h ****         phase_inc_ = CalcPhaseInc(freq_);
  50:../../DaisySP/Source/Synthesis/oscillator.h ****         waveform_  = WAVE_SIN;
  51:../../DaisySP/Source/Synthesis/oscillator.h ****         eoc_       = true;
  52:../../DaisySP/Source/Synthesis/oscillator.h ****         eor_       = true;
  53:../../DaisySP/Source/Synthesis/oscillator.h ****     }
  54:../../DaisySP/Source/Synthesis/oscillator.h **** 
  55:../../DaisySP/Source/Synthesis/oscillator.h **** 
  56:../../DaisySP/Source/Synthesis/oscillator.h ****     /** Changes the frequency of the Oscillator, and recalculates phase increment.
  57:../../DaisySP/Source/Synthesis/oscillator.h ****     */
  58:../../DaisySP/Source/Synthesis/oscillator.h ****     inline void SetFreq(const float f)
  59:../../DaisySP/Source/Synthesis/oscillator.h ****     {
ARM GAS  C:\Users\VINCIU~1\AppData\Local\Temp\cchCBePv.s 			page 96


  60:../../DaisySP/Source/Synthesis/oscillator.h ****         freq_      = f;
  61:../../DaisySP/Source/Synthesis/oscillator.h ****         phase_inc_ = CalcPhaseInc(f);
  62:../../DaisySP/Source/Synthesis/oscillator.h ****     }
  63:../../DaisySP/Source/Synthesis/oscillator.h **** 
  64:../../DaisySP/Source/Synthesis/oscillator.h **** 
  65:../../DaisySP/Source/Synthesis/oscillator.h ****     /** Sets the amplitude of the waveform.
  66:../../DaisySP/Source/Synthesis/oscillator.h ****     */
  67:../../DaisySP/Source/Synthesis/oscillator.h ****     inline void SetAmp(const float a) { amp_ = a; }
  68:../../DaisySP/Source/Synthesis/oscillator.h ****     /** Sets the waveform to be synthesized by the Process() function.
  69:../../DaisySP/Source/Synthesis/oscillator.h ****     */
  70:../../DaisySP/Source/Synthesis/oscillator.h ****     inline void SetWaveform(const uint8_t wf)
 3576              		.loc 7 70 17 view .LVU870
 3577              	.LBB896:
  71:../../DaisySP/Source/Synthesis/oscillator.h ****     {
  72:../../DaisySP/Source/Synthesis/oscillator.h ****         waveform_ = wf < WAVE_LAST ? wf : WAVE_SIN;
 3578              		.loc 7 72 9 view .LVU871
 3579              		.loc 7 72 19 is_stmt 0 view .LVU872
 3580 05b4 0423     		movs	r3, #4
 3581 05b6 3B70     		strb	r3, [r7]
 3582              	.LVL240:
 3583              	.L236:
 3584              		.loc 7 72 19 view .LVU873
 3585              	.LBE896:
 3586              	.LBE895:
 3587              	.LBE916:
 252:Menus.cpp     ****             29, screen.Height() / 2 - 3, 60, screen.Height() - 1, on, false);
 3588              		.loc 2 252 9 is_stmt 1 view .LVU874
 252:Menus.cpp     ****             29, screen.Height() / 2 - 3, 60, screen.Height() - 1, on, false);
 3589              		.loc 2 252 24 is_stmt 0 view .LVU875
 3590 05b8 96F84C31 		ldrb	r3, [r6, #332]	@ zero_extendqisi2
 3591 05bc 0022     		movs	r2, #0
 3592 05be 3F21     		movs	r1, #63
 3593 05c0 2046     		mov	r0, r4
 3594 05c2 CDE90132 		strd	r3, r2, [sp, #4]
 3595 05c6 1D22     		movs	r2, #29
 3596 05c8 0091     		str	r1, [sp]
 3597 05ca 3C23     		movs	r3, #60
 3598 05cc 1146     		mov	r1, r2
 3599 05ce FFF7FEFF 		bl	_ZN5daisy25OneBitGraphicsDisplayImplINS_11OledDisplayINS_13SSD130xDriverILj128ELj64ENS_24SSD130
 3600              	.LVL241:
 3601              	.LBE891:
 3602 05d2 92E6     		b	.L207
 3603              	.LVL242:
 3604              	.L197:
 252:Menus.cpp     ****             29, screen.Height() / 2 - 3, 60, screen.Height() - 1, on, false);
 3605              		.loc 2 252 24 view .LVU876
 3606              	.LBE926:
 3607              	.LBE946:
 3608              	.LBE954:
 3609              	.LBB955:
 3610              	.LBB880:
 3611              	.LBB841:
 3612              	.LBB840:
 3613              	.LBB822:
 3614              	.LBB821:
 3615              	.LBB819:
 3616              	.LBI819:
ARM GAS  C:\Users\VINCIU~1\AppData\Local\Temp\cchCBePv.s 			page 97


 239:../../libdaisy/src/dev/oled_ssd130x.h ****     {
 3617              		.loc 6 239 10 is_stmt 1 view .LVU877
 3618              	.LBB820:
 246:../../libdaisy/src/dev/oled_ssd130x.h ****     }
 3619              		.loc 6 246 42 is_stmt 0 view .LVU878
 3620 05d4 00F0DF07 		and	r7, r0, #223
 3621 05d8 55E6     		b	.L198
 3622              	.LVL243:
 3623              	.L202:
 246:../../libdaisy/src/dev/oled_ssd130x.h ****     }
 3624              		.loc 6 246 42 view .LVU879
 3625              	.LBE820:
 3626              	.LBE819:
 3627              	.LBE821:
 3628              	.LBE822:
 3629              	.LBE840:
 3630              	.LBE841:
 3631              	.LBE880:
 3632              	.LBB881:
 3633              	.LBB877:
 3634              	.LBB876:
 3635              	.LBB850:
 3636              	.LBB849:
 3637              	.LBB847:
 3638              	.LBI847:
 239:../../libdaisy/src/dev/oled_ssd130x.h ****     {
 3639              		.loc 6 239 10 is_stmt 1 view .LVU880
 3640              	.LBB848:
 246:../../libdaisy/src/dev/oled_ssd130x.h ****     }
 3641              		.loc 6 246 42 is_stmt 0 view .LVU881
 3642 05da 02F0FE02 		and	r2, r2, #254
 3643 05de 6EE6     		b	.L203
 3644              	.LVL244:
 3645              	.L192:
 246:../../libdaisy/src/dev/oled_ssd130x.h ****     }
 3646              		.loc 6 246 42 view .LVU882
 3647              	.LBE848:
 3648              	.LBE847:
 3649              	.LBE849:
 3650              	.LBE850:
 3651              	.LBE876:
 3652              	.LBE877:
 3653              	.LBE881:
 3654              	.LBB882:
 3655              	.LBB812:
 3656              	.LBB810:
 3657              	.LBB780:
 3658              	.LBB779:
 3659              	.LBB777:
 3660              	.LBI777:
 239:../../libdaisy/src/dev/oled_ssd130x.h ****     {
 3661              		.loc 6 239 10 is_stmt 1 view .LVU883
 3662              	.LBB778:
 246:../../libdaisy/src/dev/oled_ssd130x.h ****     }
 3663              		.loc 6 246 42 is_stmt 0 view .LVU884
 3664 05e0 02F0DF02 		and	r2, r2, #223
 3665 05e4 25E6     		b	.L193
ARM GAS  C:\Users\VINCIU~1\AppData\Local\Temp\cchCBePv.s 			page 98


 3666              	.LVL245:
 3667              	.L166:
 246:../../libdaisy/src/dev/oled_ssd130x.h ****     }
 3668              		.loc 6 246 42 view .LVU885
 3669              	.LBE778:
 3670              	.LBE777:
 3671              	.LBE779:
 3672              	.LBE780:
 3673              	.LBE810:
 3674              	.LBE812:
 3675              	.LBE882:
 3676              	.LBE955:
 3677              	.LBE995:
  75:Menus.cpp     ****         }
 3678              		.loc 2 75 13 is_stmt 1 view .LVU886
  75:Menus.cpp     ****         }
 3679              		.loc 2 75 23 is_stmt 0 view .LVU887
 3680 05e6 0423     		movs	r3, #4
 3681 05e8 F366     		str	r3, [r6, #108]
  78:Menus.cpp     **** 
 3682              		.loc 2 78 5 is_stmt 1 view .LVU888
 3683              	.LVL246:
 3684              	.LBB996:
 3685              		.loc 4 69 17 view .LVU889
 3686              	.LBB672:
 3687              		.loc 4 69 38 view .LVU890
 3688              		.loc 4 69 38 is_stmt 0 view .LVU891
 3689              	.LBE672:
 3690              	.LBE996:
  78:Menus.cpp     **** 
 3691              		.loc 2 78 5 view .LVU892
 3692 05ea 96F86130 		ldrb	r3, [r6, #97]	@ zero_extendqisi2
 3693 05ee 7F2B     		cmp	r3, #127
 3694 05f0 7FF423AD 		bne	.L168
 3695 05f4 8AE7     		b	.L167
 3696              	.L282:
 3697              	.LBB997:
 3698              	.LBB956:
 3699              	.LBB947:
 162:Menus.cpp     ****             {
 3700              		.loc 2 162 13 is_stmt 1 view .LVU893
 3701              	.LBB927:
 3702              	.LBB928:
  52:Menus.cpp     ****     {
 3703              		.loc 2 52 5 is_stmt 0 view .LVU894
 3704 05f6 F6EE007A 		vmov.f32	s15, #5.0e-1
 3705              	.LBE928:
 3706              	.LBE927:
 164:Menus.cpp     ****                 if(OscSelect(this->analogRead))
 3707              		.loc 2 164 45 view .LVU895
 3708 05fa 96ED007A 		vldr.32	s14, [r6]
 3709              	.LVL247:
 3710              	.LBB932:
 3711              	.LBI927:
  49:Menus.cpp     **** {
 3712              		.loc 2 49 6 is_stmt 1 view .LVU896
 3713              	.LBB929:
ARM GAS  C:\Users\VINCIU~1\AppData\Local\Temp\cchCBePv.s 			page 99


  51:Menus.cpp     ****     if(select >= 0.5)
 3714              		.loc 2 51 5 view .LVU897
  52:Menus.cpp     ****     {
 3715              		.loc 2 52 5 view .LVU898
  52:Menus.cpp     ****     {
 3716              		.loc 2 52 5 is_stmt 0 view .LVU899
 3717              	.LBE929:
 3718              	.LBE932:
 162:Menus.cpp     ****             {
 3719              		.loc 2 162 13 view .LVU900
 3720 05fe 96F87430 		ldrb	r3, [r6, #116]	@ zero_extendqisi2
 3721              	.LBB933:
 3722              	.LBB930:
  52:Menus.cpp     ****     {
 3723              		.loc 2 52 5 view .LVU901
 3724 0602 B4EEE77A 		vcmpe.f32	s14, s15
 3725              	.LBE930:
 3726              	.LBE933:
 162:Menus.cpp     ****             {
 3727              		.loc 2 162 13 view .LVU902
 3728 0606 23B3     		cbz	r3, .L213
 164:Menus.cpp     ****                 if(OscSelect(this->analogRead))
 3729              		.loc 2 164 17 is_stmt 1 view .LVU903
 3730              	.LBB934:
 3731              	.LBB931:
  52:Menus.cpp     ****     {
 3732              		.loc 2 52 5 is_stmt 0 view .LVU904
 3733 0608 F1EE10FA 		vmrs	APSR_nzcv, FPSCR
 3734              	.LBE931:
 3735              	.LBE934:
 164:Menus.cpp     ****                 if(OscSelect(this->analogRead))
 3736              		.loc 2 164 35 view .LVU905
 3737 060c B4BF     		ite	lt
 3738 060e 0123     		movlt	r3, #1
 3739 0610 0023     		movge	r3, #0
 164:Menus.cpp     ****                 if(OscSelect(this->analogRead))
 3740              		.loc 2 164 33 view .LVU906
 3741 0612 86F89830 		strb	r3, [r6, #152]
 165:Menus.cpp     ****                 {
 3742              		.loc 2 165 17 is_stmt 1 view .LVU907
 3743              	.LVL248:
 3744              	.LBB935:
 3745              	.LBI935:
  49:Menus.cpp     **** {
 3746              		.loc 2 49 6 view .LVU908
 3747              	.LBB936:
  51:Menus.cpp     ****     if(select >= 0.5)
 3748              		.loc 2 51 5 view .LVU909
  52:Menus.cpp     ****     {
 3749              		.loc 2 52 5 view .LVU910
  52:Menus.cpp     ****     {
 3750              		.loc 2 52 5 is_stmt 0 view .LVU911
 3751              	.LBE936:
 3752              	.LBE935:
 167:Menus.cpp     ****                 }
 3753              		.loc 2 167 21 is_stmt 1 view .LVU912
 167:Menus.cpp     ****                 }
ARM GAS  C:\Users\VINCIU~1\AppData\Local\Temp\cchCBePv.s 			page 100


 3754              		.loc 2 167 29 is_stmt 0 view .LVU913
 3755 0616 ACBF     		ite	ge
 3756 0618 0123     		movge	r3, #1
 3757              	.LBB938:
 3758              	.LBB937:
  59:Menus.cpp     ****         return state;
 3759              		.loc 2 59 9 is_stmt 1 view .LVU914
 3760              	.LVL249:
  60:Menus.cpp     ****     }
 3761              		.loc 2 60 9 view .LVU915
  60:Menus.cpp     ****     }
 3762              		.loc 2 60 9 is_stmt 0 view .LVU916
 3763              	.LBE937:
 3764              	.LBE938:
 171:Menus.cpp     ****                 }
 3765              		.loc 2 171 21 is_stmt 1 view .LVU917
 171:Menus.cpp     ****                 }
 3766              		.loc 2 171 29 is_stmt 0 view .LVU918
 3767 061a 0023     		movlt	r3, #0
 3768 061c C6F83C31 		str	r3, [r6, #316]
 3769              	.L216:
 187:Menus.cpp     ****             0, screen.Height() / 2 - 3, 29, screen.Height() - 1, on, false);
 3770              		.loc 2 187 9 is_stmt 1 view .LVU919
 187:Menus.cpp     ****             0, screen.Height() / 2 - 3, 29, screen.Height() - 1, on, false);
 3771              		.loc 2 187 24 is_stmt 0 view .LVU920
 3772 0620 3F23     		movs	r3, #63
 3773 0622 0021     		movs	r1, #0
 3774 0624 0093     		str	r3, [sp]
 3775 0626 1D23     		movs	r3, #29
 3776 0628 CDE90101 		strd	r0, r1, [sp, #4]
 3777 062c 1A46     		mov	r2, r3
 3778 062e 2046     		mov	r0, r4
 3779 0630 FFF7FEFF 		bl	_ZN5daisy25OneBitGraphicsDisplayImplINS_11OledDisplayINS_13SSD130xDriverILj128ELj64ENS_24SSD130
 3780              	.LVL250:
 3781 0634 61E6     		b	.L207
 3782              	.L210:
 187:Menus.cpp     ****             0, screen.Height() / 2 - 3, 29, screen.Height() - 1, on, false);
 3783              		.loc 2 187 24 view .LVU921
 3784              	.LBE947:
 150:Menus.cpp     ****                 this->drawSliderSemi2 = this->analogRead;
 3785              		.loc 2 150 17 is_stmt 1 view .LVU922
 150:Menus.cpp     ****                 this->drawSliderSemi2 = this->analogRead;
 3786              		.loc 2 150 39 is_stmt 0 view .LVU923
 3787 0636 FDEEE77A 		vcvt.s32.f32	s15, s15
 152:Menus.cpp     ****             }
 3788              		.loc 2 152 24 view .LVU924
 3789 063a 3549     		ldr	r1, .L290+24
 3790 063c 06F1BC00 		add	r0, r6, #188
 151:Menus.cpp     ****                 sprintf(this->buff2, "Semi_%dst", this->noteSemiAdd2);
 3791              		.loc 2 151 39 view .LVU925
 3792 0640 86ED207A 		vstr.32	s14, [r6, #128]
 150:Menus.cpp     ****                 this->drawSliderSemi2 = this->analogRead;
 3793              		.loc 2 150 39 view .LVU926
 3794 0644 17EE902A 		vmov	r2, s15	@ int
 3795 0648 C6ED4E7A 		vstr.32	s15, [r6, #312]	@ int
 151:Menus.cpp     ****                 sprintf(this->buff2, "Semi_%dst", this->noteSemiAdd2);
 3796              		.loc 2 151 17 is_stmt 1 view .LVU927
ARM GAS  C:\Users\VINCIU~1\AppData\Local\Temp\cchCBePv.s 			page 101


 152:Menus.cpp     ****             }
 3797              		.loc 2 152 17 view .LVU928
 152:Menus.cpp     ****             }
 3798              		.loc 2 152 24 is_stmt 0 view .LVU929
 3799 064c FFF7FEFF 		bl	sprintf
 3800              	.LVL251:
 3801 0650 77E7     		b	.L211
 3802              	.L213:
 3803              	.LBB948:
 176:Menus.cpp     ****                 if(OscSelect(this->analogRead))
 3804              		.loc 2 176 17 is_stmt 1 view .LVU930
 3805              	.LBB939:
 3806              	.LBB940:
  52:Menus.cpp     ****     {
 3807              		.loc 2 52 5 is_stmt 0 view .LVU931
 3808 0652 F1EE10FA 		vmrs	APSR_nzcv, FPSCR
 3809              	.LBE940:
 3810              	.LBE939:
 176:Menus.cpp     ****                 if(OscSelect(this->analogRead))
 3811              		.loc 2 176 36 view .LVU932
 3812 0656 B2BF     		itee	lt
 3813 0658 0122     		movlt	r2, #1
 3814 065a 0022     		movge	r2, #0
 179:Menus.cpp     ****                 }
 3815              		.loc 2 179 30 view .LVU933
 3816 065c 0123     		movge	r3, #1
 176:Menus.cpp     ****                 if(OscSelect(this->analogRead))
 3817              		.loc 2 176 34 view .LVU934
 3818 065e 86F89920 		strb	r2, [r6, #153]
 177:Menus.cpp     ****                 {
 3819              		.loc 2 177 17 is_stmt 1 view .LVU935
 3820              	.LVL252:
 3821              	.LBB941:
 3822              	.LBI941:
  49:Menus.cpp     **** {
 3823              		.loc 2 49 6 view .LVU936
 3824              	.LBB942:
  51:Menus.cpp     ****     if(select >= 0.5)
 3825              		.loc 2 51 5 view .LVU937
  52:Menus.cpp     ****     {
 3826              		.loc 2 52 5 view .LVU938
  59:Menus.cpp     ****         return state;
 3827              		.loc 2 59 9 view .LVU939
  60:Menus.cpp     ****     }
 3828              		.loc 2 60 9 view .LVU940
  60:Menus.cpp     ****     }
 3829              		.loc 2 60 9 is_stmt 0 view .LVU941
 3830              	.LBE942:
 3831              	.LBE941:
 183:Menus.cpp     ****                 }
 3832              		.loc 2 183 21 is_stmt 1 view .LVU942
 179:Menus.cpp     ****                 }
 3833              		.loc 2 179 21 view .LVU943
 179:Menus.cpp     ****                 }
 3834              		.loc 2 179 30 is_stmt 0 view .LVU944
 3835 0662 C6F84031 		str	r3, [r6, #320]
 3836 0666 DBE7     		b	.L216
ARM GAS  C:\Users\VINCIU~1\AppData\Local\Temp\cchCBePv.s 			page 102


 3837              	.LVL253:
 3838              	.L221:
 3839              	.LBB943:
 3840              	.LBB923:
 194:Menus.cpp     ****             setWave      = selectedWave;
 3841              		.loc 2 194 26 view .LVU945
 3842 0668 0022     		movs	r2, #0
 3843              	.LBB917:
 3844              	.LBB897:
 200:Menus.cpp     ****                     {
 3845              		.loc 2 200 21 view .LVU946
 3846 066a 96F87430 		ldrb	r3, [r6, #116]	@ zero_extendqisi2
 3847              	.LBE897:
 3848              	.LBE917:
 194:Menus.cpp     ****             setWave      = selectedWave;
 3849              		.loc 2 194 26 view .LVU947
 3850 066e C6F89C20 		str	r2, [r6, #156]
 195:Menus.cpp     ****             if(setWave == 0)
 3851              		.loc 2 195 13 is_stmt 1 view .LVU948
 3852              	.LVL254:
 196:Menus.cpp     ****             {
 3853              		.loc 2 196 13 view .LVU949
 3854              	.LBB918:
 3855              	.LBB904:
 198:Menus.cpp     ****                 {
 3856              		.loc 2 198 34 view .LVU950
 200:Menus.cpp     ****                     {
 3857              		.loc 2 200 21 view .LVU951
 3858 0672 33B3     		cbz	r3, .L285
 202:Menus.cpp     ****                         osc[0].SetWaveform(osc[0].WAVE_SIN);
 3859              		.loc 2 202 25 view .LVU952
 203:Menus.cpp     ****                     }
 3860              		.loc 2 203 25 view .LVU953
 3861              	.LVL255:
 3862              	.LBB898:
 3863              	.LBI898:
  70:../../DaisySP/Source/Synthesis/oscillator.h ****     {
 3864              		.loc 7 70 17 view .LVU954
 3865              	.LBB899:
 3866              		.loc 7 72 9 view .LVU955
 3867              		.loc 7 72 19 is_stmt 0 view .LVU956
 3868 0674 3A70     		strb	r2, [r7]
 3869              	.LVL256:
 3870              	.L234:
 3871              		.loc 7 72 19 view .LVU957
 3872              	.LBE899:
 3873              	.LBE898:
 198:Menus.cpp     ****                 {
 3874              		.loc 2 198 17 is_stmt 1 view .LVU958
 198:Menus.cpp     ****                 {
 3875              		.loc 2 198 34 view .LVU959
 200:Menus.cpp     ****                     {
 3876              		.loc 2 200 21 view .LVU960
 3877 0676 96F87430 		ldrb	r3, [r6, #116]	@ zero_extendqisi2
 3878 067a EBB1     		cbz	r3, .L266
 202:Menus.cpp     ****                         osc[0].SetWaveform(osc[0].WAVE_SIN);
 3879              		.loc 2 202 25 view .LVU961
ARM GAS  C:\Users\VINCIU~1\AppData\Local\Temp\cchCBePv.s 			page 103


 202:Menus.cpp     ****                         osc[0].SetWaveform(osc[0].WAVE_SIN);
 3880              		.loc 2 202 38 is_stmt 0 view .LVU962
 3881 067c 0023     		movs	r3, #0
 3882 067e C6F89C30 		str	r3, [r6, #156]
 203:Menus.cpp     ****                     }
 3883              		.loc 2 203 25 is_stmt 1 view .LVU963
 3884              	.LVL257:
 3885              	.LBB901:
  70:../../DaisySP/Source/Synthesis/oscillator.h ****     {
 3886              		.loc 7 70 17 view .LVU964
 3887              	.LBB900:
 3888              		.loc 7 72 9 view .LVU965
 3889              		.loc 7 72 19 is_stmt 0 view .LVU966
 3890 0682 3B70     		strb	r3, [r7]
 3891 0684 98E7     		b	.L236
 3892              	.LVL258:
 3893              	.L223:
 3894              		.loc 7 72 19 view .LVU967
 3895              	.LBE900:
 3896              	.LBE901:
 3897              	.LBE904:
 3898              	.LBE918:
 3899              	.LBE923:
 3900              	.LBE943:
 3901              	.LBE948:
 3902              	.LBE956:
 3903              	.LBE997:
  42:Menus.cpp     ****     {
 3904              		.loc 2 42 10 is_stmt 1 view .LVU968
 3905              	.LBB998:
 3906              	.LBB957:
 3907              	.LBB949:
 3908              	.LBB944:
 3909              	.LBB924:
 194:Menus.cpp     ****             setWave      = selectedWave;
 3910              		.loc 2 194 26 is_stmt 0 view .LVU969
 3911 0686 0323     		movs	r3, #3
 3912              	.LBB919:
 240:Menus.cpp     ****                 {
 3913              		.loc 2 240 17 view .LVU970
 3914 0688 96F87420 		ldrb	r2, [r6, #116]	@ zero_extendqisi2
 3915              	.LBE919:
 194:Menus.cpp     ****             setWave      = selectedWave;
 3916              		.loc 2 194 26 view .LVU971
 3917 068c C6F89C30 		str	r3, [r6, #156]
 195:Menus.cpp     ****             if(setWave == 0)
 3918              		.loc 2 195 13 is_stmt 1 view .LVU972
 3919              	.LVL259:
 196:Menus.cpp     ****             {
 3920              		.loc 2 196 13 view .LVU973
 3921              	.LBB920:
 212:Menus.cpp     ****             {
 3922              		.loc 2 212 18 view .LVU974
 225:Menus.cpp     ****             {
 3923              		.loc 2 225 18 view .LVU975
 240:Menus.cpp     ****                 {
 3924              		.loc 2 240 17 view .LVU976
ARM GAS  C:\Users\VINCIU~1\AppData\Local\Temp\cchCBePv.s 			page 104


 3925 0690 62B3     		cbz	r2, .L286
 242:Menus.cpp     ****                     osc[0].SetWaveform(osc[0].WAVE_SAW);
 3926              		.loc 2 242 21 view .LVU977
 243:Menus.cpp     ****                 }
 3927              		.loc 2 243 21 view .LVU978
 3928              	.LVL260:
 3929              	.LBB905:
 3930              	.LBI905:
  70:../../DaisySP/Source/Synthesis/oscillator.h ****     {
 3931              		.loc 7 70 17 view .LVU979
 3932              	.LBB906:
 3933              		.loc 7 72 9 view .LVU980
 3934              		.loc 7 72 19 is_stmt 0 view .LVU981
 3935 0692 0223     		movs	r3, #2
 3936 0694 3B70     		strb	r3, [r7]
  73:../../DaisySP/Source/Synthesis/oscillator.h ****     }
 3937              		.loc 7 73 5 view .LVU982
 3938 0696 8FE7     		b	.L236
 3939              	.LVL261:
 3940              	.L238:
 3941              		.loc 7 73 5 view .LVU983
 3942              	.LBE906:
 3943              	.LBE905:
 3944              	.LBE920:
 3945              	.LBE924:
 266:Menus.cpp     ****                 freqFine2       = this->analogRead;
 3946              		.loc 2 266 17 is_stmt 1 view .LVU984
 268:Menus.cpp     ****             }
 3947              		.loc 2 268 71 is_stmt 0 view .LVU985
 3948 0698 67EE277A 		vmul.f32	s15, s14, s15
 268:Menus.cpp     ****             }
 3949              		.loc 2 268 24 view .LVU986
 3950 069c 06F1EC00 		add	r0, r6, #236
 266:Menus.cpp     ****                 freqFine2       = this->analogRead;
 3951              		.loc 2 266 33 view .LVU987
 3952 06a0 86ED217A 		vstr.32	s14, [r6, #132]
 267:Menus.cpp     ****                 sprintf(this->buffFine2, "Fine_%d%%", (int)(freqFine2 * 100));
 3953              		.loc 2 267 17 is_stmt 1 view .LVU988
 267:Menus.cpp     ****                 sprintf(this->buffFine2, "Fine_%d%%", (int)(freqFine2 * 100));
 3954              		.loc 2 267 33 is_stmt 0 view .LVU989
 3955 06a4 86ED527A 		vstr.32	s14, [r6, #328]
 268:Menus.cpp     ****             }
 3956              		.loc 2 268 17 is_stmt 1 view .LVU990
 268:Menus.cpp     ****             }
 3957              		.loc 2 268 24 is_stmt 0 view .LVU991
 3958 06a8 FDEEE77A 		vcvt.s32.f32	s15, s15
 3959 06ac 17EE902A 		vmov	r2, s15	@ int
 3960 06b0 FFF7FEFF 		bl	sprintf
 3961              	.LVL262:
 3962 06b4 04E7     		b	.L239
 3963              	.LVL263:
 3964              	.L287:
 3965              	.LBB925:
 3966              	.LBB921:
 221:Menus.cpp     ****                     osc[1].SetWaveform(osc[1].WAVE_TRI);
 3967              		.loc 2 221 21 is_stmt 1 view .LVU992
 221:Menus.cpp     ****                     osc[1].SetWaveform(osc[1].WAVE_TRI);
ARM GAS  C:\Users\VINCIU~1\AppData\Local\Temp\cchCBePv.s 			page 105


 3968              		.loc 2 221 35 is_stmt 0 view .LVU993
 3969 06b6 0123     		movs	r3, #1
 3970              	.LVL264:
 3971              	.L266:
 221:Menus.cpp     ****                     osc[1].SetWaveform(osc[1].WAVE_TRI);
 3972              		.loc 2 221 35 view .LVU994
 3973 06b8 C6F8A030 		str	r3, [r6, #160]
 222:Menus.cpp     ****                 }
 3974              		.loc 2 222 21 is_stmt 1 view .LVU995
 3975              	.LVL265:
 3976              	.LBB907:
 3977              	.LBI907:
  70:../../DaisySP/Source/Synthesis/oscillator.h ****     {
 3978              		.loc 7 70 17 view .LVU996
 3979              	.LBB908:
  72:../../DaisySP/Source/Synthesis/oscillator.h ****     }
 3980              		.loc 7 72 9 view .LVU997
  72:../../DaisySP/Source/Synthesis/oscillator.h ****     }
 3981              		.loc 7 72 19 is_stmt 0 view .LVU998
 3982 06bc 87F82830 		strb	r3, [r7, #40]
 3983              		.loc 7 73 5 view .LVU999
 3984 06c0 7AE7     		b	.L236
 3985              	.LVL266:
 3986              	.L285:
 3987              		.loc 7 73 5 view .LVU1000
 3988              	.LBE908:
 3989              	.LBE907:
 3990              	.LBB909:
 207:Menus.cpp     ****                         osc[1].SetWaveform(osc[1].WAVE_SIN);
 3991              		.loc 2 207 25 is_stmt 1 view .LVU1001
 207:Menus.cpp     ****                         osc[1].SetWaveform(osc[1].WAVE_SIN);
 3992              		.loc 2 207 39 is_stmt 0 view .LVU1002
 3993 06c2 C6F8A030 		str	r3, [r6, #160]
 208:Menus.cpp     ****                     }
 3994              		.loc 2 208 25 is_stmt 1 view .LVU1003
 3995              	.LVL267:
 3996              	.LBB902:
 3997              	.LBI902:
  70:../../DaisySP/Source/Synthesis/oscillator.h ****     {
 3998              		.loc 7 70 17 view .LVU1004
 3999              	.LBB903:
  72:../../DaisySP/Source/Synthesis/oscillator.h ****     }
 4000              		.loc 7 72 9 view .LVU1005
  72:../../DaisySP/Source/Synthesis/oscillator.h ****     }
 4001              		.loc 7 72 19 is_stmt 0 view .LVU1006
 4002 06c6 87F82830 		strb	r3, [r7, #40]
 4003 06ca D4E7     		b	.L234
 4004              	.LVL268:
 4005              	.L222:
  72:../../DaisySP/Source/Synthesis/oscillator.h ****     }
 4006              		.loc 7 72 19 view .LVU1007
 4007              	.LBE903:
 4008              	.LBE902:
 4009              	.LBE909:
 4010              	.LBE921:
 194:Menus.cpp     ****             setWave      = selectedWave;
 4011              		.loc 2 194 26 view .LVU1008
ARM GAS  C:\Users\VINCIU~1\AppData\Local\Temp\cchCBePv.s 			page 106


 4012 06cc 0123     		movs	r3, #1
 4013 06ce C6F89C30 		str	r3, [r6, #156]
 195:Menus.cpp     ****             if(setWave == 0)
 4014              		.loc 2 195 13 is_stmt 1 view .LVU1009
 4015              	.LVL269:
 196:Menus.cpp     ****             {
 4016              		.loc 2 196 13 view .LVU1010
 4017              	.LBB922:
 212:Menus.cpp     ****             {
 4018              		.loc 2 212 18 view .LVU1011
 214:Menus.cpp     ****                 {
 4019              		.loc 2 214 17 view .LVU1012
 4020 06d2 96F87430 		ldrb	r3, [r6, #116]	@ zero_extendqisi2
 4021 06d6 002B     		cmp	r3, #0
 4022 06d8 EDD0     		beq	.L287
 216:Menus.cpp     ****                     osc[0].SetWaveform(osc[0].WAVE_TRI);
 4023              		.loc 2 216 21 view .LVU1013
 217:Menus.cpp     ****                 }
 4024              		.loc 2 217 21 view .LVU1014
 4025              	.LVL270:
 4026              	.LBB910:
 4027              	.LBI910:
  70:../../DaisySP/Source/Synthesis/oscillator.h ****     {
 4028              		.loc 7 70 17 view .LVU1015
 4029              	.LBB911:
  72:../../DaisySP/Source/Synthesis/oscillator.h ****     }
 4030              		.loc 7 72 9 view .LVU1016
  72:../../DaisySP/Source/Synthesis/oscillator.h ****     }
 4031              		.loc 7 72 19 is_stmt 0 view .LVU1017
 4032 06da 0123     		movs	r3, #1
 4033 06dc 3B70     		strb	r3, [r7]
 4034              		.loc 7 73 5 view .LVU1018
 4035 06de 6BE7     		b	.L236
 4036              	.LVL271:
 4037              	.L284:
 4038              		.loc 7 73 5 view .LVU1019
 4039              	.LBE911:
 4040              	.LBE910:
 234:Menus.cpp     ****                     osc[1].SetWaveform(osc[1].WAVE_SQUARE);
 4041              		.loc 2 234 21 is_stmt 1 view .LVU1020
 234:Menus.cpp     ****                     osc[1].SetWaveform(osc[1].WAVE_SQUARE);
 4042              		.loc 2 234 35 is_stmt 0 view .LVU1021
 4043 06e0 C6F8A030 		str	r3, [r6, #160]
 235:Menus.cpp     ****                 }
 4044              		.loc 2 235 21 is_stmt 1 view .LVU1022
 4045              	.LVL272:
 4046              	.LBB912:
 4047              	.LBI912:
  70:../../DaisySP/Source/Synthesis/oscillator.h ****     {
 4048              		.loc 7 70 17 view .LVU1023
 4049              	.LBB913:
  72:../../DaisySP/Source/Synthesis/oscillator.h ****     }
 4050              		.loc 7 72 9 view .LVU1024
  72:../../DaisySP/Source/Synthesis/oscillator.h ****     }
 4051              		.loc 7 72 19 is_stmt 0 view .LVU1025
 4052 06e4 0423     		movs	r3, #4
 4053 06e6 87F82830 		strb	r3, [r7, #40]
ARM GAS  C:\Users\VINCIU~1\AppData\Local\Temp\cchCBePv.s 			page 107


 4054              		.loc 7 73 5 view .LVU1026
 4055 06ea 65E7     		b	.L236
 4056              	.LVL273:
 4057              	.L286:
 4058              		.loc 7 73 5 view .LVU1027
 4059              	.LBE913:
 4060              	.LBE912:
 247:Menus.cpp     ****                     osc[1].SetWaveform(osc[1].WAVE_SAW);
 4061              		.loc 2 247 21 is_stmt 1 view .LVU1028
 247:Menus.cpp     ****                     osc[1].SetWaveform(osc[1].WAVE_SAW);
 4062              		.loc 2 247 35 is_stmt 0 view .LVU1029
 4063 06ec C6F8A030 		str	r3, [r6, #160]
 248:Menus.cpp     ****                 }
 4064              		.loc 2 248 21 is_stmt 1 view .LVU1030
 4065              	.LVL274:
 4066              	.LBB914:
 4067              	.LBI914:
  70:../../DaisySP/Source/Synthesis/oscillator.h ****     {
 4068              		.loc 7 70 17 view .LVU1031
 4069              	.LBB915:
  72:../../DaisySP/Source/Synthesis/oscillator.h ****     }
 4070              		.loc 7 72 9 view .LVU1032
  72:../../DaisySP/Source/Synthesis/oscillator.h ****     }
 4071              		.loc 7 72 19 is_stmt 0 view .LVU1033
 4072 06f0 0223     		movs	r3, #2
 4073 06f2 87F82830 		strb	r3, [r7, #40]
 4074              		.loc 7 73 5 view .LVU1034
 4075 06f6 5FE7     		b	.L236
 4076              	.L291:
 4077              		.align	2
 4078              	.L290:
 4079 06f8 00000000 		.word	.LC1
 4080 06fc 46001100 		.word	1114182
 4081 0700 46003200 		.word	3276870
 4082 0704 0000C842 		.word	1120403456
 4083 0708 14000000 		.word	.LC4
 4084 070c 00002042 		.word	1109393408
 4085 0710 08000000 		.word	.LC3
 4086 0714 00000000 		.word	Font_6x8
 4087              	.LBE915:
 4088              	.LBE914:
 4089              	.LBE922:
 4090              	.LBE925:
 4091              	.LBE944:
 4092              	.LBE949:
 4093              	.LBE957:
 4094              	.LBE998:
 4095              		.cfi_endproc
 4096              	.LFE4039:
 4098              		.section	.rodata._ZN5Menus5Menu2E23OledDisplayExtravaganzaPN7daisysp10OscillatorE.str1.4,"aMS",%pr
 4099              		.align	2
 4100              	.LC5:
 4101 0000 496E6974 		.ascii	"Init_%d%%\000"
 4101      5F256425 
 4101      2500
 4102 000a 0000     		.align	2
 4103              	.LC6:
ARM GAS  C:\Users\VINCIU~1\AppData\Local\Temp\cchCBePv.s 			page 108


 4104 000c 54696D65 		.ascii	"Time_%d%%\000"
 4104      5F256425 
 4104      2500
 4105              		.section	.text._ZN5Menus5Menu2E23OledDisplayExtravaganzaPN7daisysp10OscillatorE,"ax",%progbits
 4106              		.align	1
 4107              		.p2align 2,,3
 4108              		.global	_ZN5Menus5Menu2E23OledDisplayExtravaganzaPN7daisysp10OscillatorE
 4109              		.syntax unified
 4110              		.thumb
 4111              		.thumb_func
 4112              		.fpu fpv5-d16
 4114              	_ZN5Menus5Menu2E23OledDisplayExtravaganzaPN7daisysp10OscillatorE:
 4115              	.LVL275:
 4116              	.LFB4040:
 281:Menus.cpp     **** 
 282:Menus.cpp     **** void Menus::Menu2(OledDisplayExtravaganza screen, daisysp::Oscillator osc[])
 283:Menus.cpp     **** {
 4117              		.loc 2 283 1 is_stmt 1 view -0
 4118              		.cfi_startproc
 4119              		@ args = 0, pretend = 0, frame = 24
 4120              		@ frame_needed = 0, uses_anonymous_args = 0
 4121              		.loc 2 283 1 is_stmt 0 view .LVU1036
 4122 0000 2DE9F04F 		push	{r4, r5, r6, r7, r8, r9, r10, fp, lr}
 4123              		.cfi_def_cfa_offset 36
 4124              		.cfi_offset 4, -36
 4125              		.cfi_offset 5, -32
 4126              		.cfi_offset 6, -28
 4127              		.cfi_offset 7, -24
 4128              		.cfi_offset 8, -20
 4129              		.cfi_offset 9, -16
 4130              		.cfi_offset 10, -12
 4131              		.cfi_offset 11, -8
 4132              		.cfi_offset 14, -4
 4133 0004 0C46     		mov	r4, r1
 4134 0006 0646     		mov	r6, r0
 284:Menus.cpp     ****     screen.Fill(false);
 4135              		.loc 2 284 5 is_stmt 1 view .LVU1037
 4136              	.LVL276:
 4137              	.LBB1136:
 4138              	.LBI1136:
  33:../../libdaisy/src/hid/disp/oled_display.h **** 
 4139              		.loc 1 33 10 view .LVU1038
 4140              	.LBB1137:
 4141              	.LBI1137:
 249:../../libdaisy/src/dev/oled_ssd130x.h ****     {
 4142              		.loc 6 249 10 view .LVU1039
 4143              	.LBB1138:
 251:../../libdaisy/src/dev/oled_ssd130x.h ****         {
 4144              		.loc 6 251 29 view .LVU1040
 253:../../libdaisy/src/dev/oled_ssd130x.h ****         }
 4145              		.loc 6 253 24 is_stmt 0 view .LVU1041
 4146 0008 4FF48062 		mov	r2, #1024
 4147              	.LVL277:
 253:../../libdaisy/src/dev/oled_ssd130x.h ****         }
 4148              		.loc 6 253 24 view .LVU1042
 4149              	.LBE1138:
 4150              	.LBE1137:
ARM GAS  C:\Users\VINCIU~1\AppData\Local\Temp\cchCBePv.s 			page 109


 4151              	.LBE1136:
 283:Menus.cpp     ****     screen.Fill(false);
 4152              		.loc 2 283 1 view .LVU1043
 4153 000c 8BB0     		sub	sp, sp, #44
 4154              		.cfi_def_cfa_offset 80
 4155              	.LBB1141:
 4156              	.LBB1140:
 4157              	.LBB1139:
 253:../../libdaisy/src/dev/oled_ssd130x.h ****         }
 4158              		.loc 6 253 24 view .LVU1044
 4159 000e 0021     		movs	r1, #0
 4160              	.LVL278:
 253:../../libdaisy/src/dev/oled_ssd130x.h ****         }
 4161              		.loc 6 253 24 view .LVU1045
 4162 0010 04F11400 		add	r0, r4, #20
 4163              	.LVL279:
 253:../../libdaisy/src/dev/oled_ssd130x.h ****         }
 4164              		.loc 6 253 24 view .LVU1046
 4165 0014 FFF7FEFF 		bl	memset
 4166              	.LVL280:
 253:../../libdaisy/src/dev/oled_ssd130x.h ****         }
 4167              		.loc 6 253 24 view .LVU1047
 4168              	.LBE1139:
 4169              	.LBE1140:
 4170              	.LBE1141:
 285:Menus.cpp     **** 
 286:Menus.cpp     ****     if(abs(this->analogRead - this->analogLastRead) > 0.001)
 4171              		.loc 2 286 5 is_stmt 1 view .LVU1048
 4172              		.loc 2 286 18 is_stmt 0 view .LVU1049
 4173 0018 D6ED004A 		vldr.32	s9, [r6]
 4174              	.LVL281:
 4175              	.LBB1142:
 4176              	.LBI1142:
 4177              		.file 8 "c:\\users\\vin\355cius\\documents\\daisytoolchain-0.3.1\\windows\\arm-none-eabi\\include\
   1:c:\users\vincius\documents\daisytoolchain-0.3.1\windows\arm-none-eabi\include\c++\10.2.1\bits\std_abs.h **** // -*- C++ -*- C library enhancements header.
   2:c:\users\vincius\documents\daisytoolchain-0.3.1\windows\arm-none-eabi\include\c++\10.2.1\bits\std_abs.h **** 
   3:c:\users\vincius\documents\daisytoolchain-0.3.1\windows\arm-none-eabi\include\c++\10.2.1\bits\std_abs.h **** // Copyright (C) 2016-2020 Free Software Foundation, Inc.
   4:c:\users\vincius\documents\daisytoolchain-0.3.1\windows\arm-none-eabi\include\c++\10.2.1\bits\std_abs.h **** //
   5:c:\users\vincius\documents\daisytoolchain-0.3.1\windows\arm-none-eabi\include\c++\10.2.1\bits\std_abs.h **** // This file is part of the GNU ISO C++ Library.  This library is free
   6:c:\users\vincius\documents\daisytoolchain-0.3.1\windows\arm-none-eabi\include\c++\10.2.1\bits\std_abs.h **** // software; you can redistribute it and/or modify it under the
   7:c:\users\vincius\documents\daisytoolchain-0.3.1\windows\arm-none-eabi\include\c++\10.2.1\bits\std_abs.h **** // terms of the GNU General Public License as published by the
   8:c:\users\vincius\documents\daisytoolchain-0.3.1\windows\arm-none-eabi\include\c++\10.2.1\bits\std_abs.h **** // Free Software Foundation; either version 3, or (at your option)
   9:c:\users\vincius\documents\daisytoolchain-0.3.1\windows\arm-none-eabi\include\c++\10.2.1\bits\std_abs.h **** // any later version.
  10:c:\users\vincius\documents\daisytoolchain-0.3.1\windows\arm-none-eabi\include\c++\10.2.1\bits\std_abs.h **** 
  11:c:\users\vincius\documents\daisytoolchain-0.3.1\windows\arm-none-eabi\include\c++\10.2.1\bits\std_abs.h **** // This library is distributed in the hope that it will be useful,
  12:c:\users\vincius\documents\daisytoolchain-0.3.1\windows\arm-none-eabi\include\c++\10.2.1\bits\std_abs.h **** // but WITHOUT ANY WARRANTY; without even the implied warranty of
  13:c:\users\vincius\documents\daisytoolchain-0.3.1\windows\arm-none-eabi\include\c++\10.2.1\bits\std_abs.h **** // MERCHANTABILITY or FITNESS FOR A PARTICULAR PURPOSE.  See the
  14:c:\users\vincius\documents\daisytoolchain-0.3.1\windows\arm-none-eabi\include\c++\10.2.1\bits\std_abs.h **** // GNU General Public License for more details.
  15:c:\users\vincius\documents\daisytoolchain-0.3.1\windows\arm-none-eabi\include\c++\10.2.1\bits\std_abs.h **** 
  16:c:\users\vincius\documents\daisytoolchain-0.3.1\windows\arm-none-eabi\include\c++\10.2.1\bits\std_abs.h **** // Under Section 7 of GPL version 3, you are granted additional
  17:c:\users\vincius\documents\daisytoolchain-0.3.1\windows\arm-none-eabi\include\c++\10.2.1\bits\std_abs.h **** // permissions described in the GCC Runtime Library Exception, version
  18:c:\users\vincius\documents\daisytoolchain-0.3.1\windows\arm-none-eabi\include\c++\10.2.1\bits\std_abs.h **** // 3.1, as published by the Free Software Foundation.
  19:c:\users\vincius\documents\daisytoolchain-0.3.1\windows\arm-none-eabi\include\c++\10.2.1\bits\std_abs.h **** 
  20:c:\users\vincius\documents\daisytoolchain-0.3.1\windows\arm-none-eabi\include\c++\10.2.1\bits\std_abs.h **** // You should have received a copy of the GNU General Public License and
  21:c:\users\vincius\documents\daisytoolchain-0.3.1\windows\arm-none-eabi\include\c++\10.2.1\bits\std_abs.h **** // a copy of the GCC Runtime Library Exception along with this program;
  22:c:\users\vincius\documents\daisytoolchain-0.3.1\windows\arm-none-eabi\include\c++\10.2.1\bits\std_abs.h **** // see the files COPYING3 and COPYING.RUNTIME respectively.  If not, see
  23:c:\users\vincius\documents\daisytoolchain-0.3.1\windows\arm-none-eabi\include\c++\10.2.1\bits\std_abs.h **** // <http://www.gnu.org/licenses/>.
ARM GAS  C:\Users\VINCIU~1\AppData\Local\Temp\cchCBePv.s 			page 110


  24:c:\users\vincius\documents\daisytoolchain-0.3.1\windows\arm-none-eabi\include\c++\10.2.1\bits\std_abs.h **** 
  25:c:\users\vincius\documents\daisytoolchain-0.3.1\windows\arm-none-eabi\include\c++\10.2.1\bits\std_abs.h **** /** @file include/bits/std_abs.h
  26:c:\users\vincius\documents\daisytoolchain-0.3.1\windows\arm-none-eabi\include\c++\10.2.1\bits\std_abs.h ****  *  This is an internal header file, included by other library headers.
  27:c:\users\vincius\documents\daisytoolchain-0.3.1\windows\arm-none-eabi\include\c++\10.2.1\bits\std_abs.h ****  *  Do not attempt to use it directly. @headername{cmath, cstdlib}
  28:c:\users\vincius\documents\daisytoolchain-0.3.1\windows\arm-none-eabi\include\c++\10.2.1\bits\std_abs.h ****  */
  29:c:\users\vincius\documents\daisytoolchain-0.3.1\windows\arm-none-eabi\include\c++\10.2.1\bits\std_abs.h **** 
  30:c:\users\vincius\documents\daisytoolchain-0.3.1\windows\arm-none-eabi\include\c++\10.2.1\bits\std_abs.h **** #ifndef _GLIBCXX_BITS_STD_ABS_H
  31:c:\users\vincius\documents\daisytoolchain-0.3.1\windows\arm-none-eabi\include\c++\10.2.1\bits\std_abs.h **** #define _GLIBCXX_BITS_STD_ABS_H
  32:c:\users\vincius\documents\daisytoolchain-0.3.1\windows\arm-none-eabi\include\c++\10.2.1\bits\std_abs.h **** 
  33:c:\users\vincius\documents\daisytoolchain-0.3.1\windows\arm-none-eabi\include\c++\10.2.1\bits\std_abs.h **** #pragma GCC system_header
  34:c:\users\vincius\documents\daisytoolchain-0.3.1\windows\arm-none-eabi\include\c++\10.2.1\bits\std_abs.h **** 
  35:c:\users\vincius\documents\daisytoolchain-0.3.1\windows\arm-none-eabi\include\c++\10.2.1\bits\std_abs.h **** #include <bits/c++config.h>
  36:c:\users\vincius\documents\daisytoolchain-0.3.1\windows\arm-none-eabi\include\c++\10.2.1\bits\std_abs.h **** 
  37:c:\users\vincius\documents\daisytoolchain-0.3.1\windows\arm-none-eabi\include\c++\10.2.1\bits\std_abs.h **** #define _GLIBCXX_INCLUDE_NEXT_C_HEADERS
  38:c:\users\vincius\documents\daisytoolchain-0.3.1\windows\arm-none-eabi\include\c++\10.2.1\bits\std_abs.h **** #include_next <stdlib.h>
  39:c:\users\vincius\documents\daisytoolchain-0.3.1\windows\arm-none-eabi\include\c++\10.2.1\bits\std_abs.h **** #ifdef __CORRECT_ISO_CPP_MATH_H_PROTO
  40:c:\users\vincius\documents\daisytoolchain-0.3.1\windows\arm-none-eabi\include\c++\10.2.1\bits\std_abs.h **** # include_next <math.h>
  41:c:\users\vincius\documents\daisytoolchain-0.3.1\windows\arm-none-eabi\include\c++\10.2.1\bits\std_abs.h **** #endif
  42:c:\users\vincius\documents\daisytoolchain-0.3.1\windows\arm-none-eabi\include\c++\10.2.1\bits\std_abs.h **** #undef _GLIBCXX_INCLUDE_NEXT_C_HEADERS
  43:c:\users\vincius\documents\daisytoolchain-0.3.1\windows\arm-none-eabi\include\c++\10.2.1\bits\std_abs.h **** 
  44:c:\users\vincius\documents\daisytoolchain-0.3.1\windows\arm-none-eabi\include\c++\10.2.1\bits\std_abs.h **** #undef abs
  45:c:\users\vincius\documents\daisytoolchain-0.3.1\windows\arm-none-eabi\include\c++\10.2.1\bits\std_abs.h **** 
  46:c:\users\vincius\documents\daisytoolchain-0.3.1\windows\arm-none-eabi\include\c++\10.2.1\bits\std_abs.h **** extern "C++"
  47:c:\users\vincius\documents\daisytoolchain-0.3.1\windows\arm-none-eabi\include\c++\10.2.1\bits\std_abs.h **** {
  48:c:\users\vincius\documents\daisytoolchain-0.3.1\windows\arm-none-eabi\include\c++\10.2.1\bits\std_abs.h **** namespace std _GLIBCXX_VISIBILITY(default)
  49:c:\users\vincius\documents\daisytoolchain-0.3.1\windows\arm-none-eabi\include\c++\10.2.1\bits\std_abs.h **** {
  50:c:\users\vincius\documents\daisytoolchain-0.3.1\windows\arm-none-eabi\include\c++\10.2.1\bits\std_abs.h **** _GLIBCXX_BEGIN_NAMESPACE_VERSION
  51:c:\users\vincius\documents\daisytoolchain-0.3.1\windows\arm-none-eabi\include\c++\10.2.1\bits\std_abs.h **** 
  52:c:\users\vincius\documents\daisytoolchain-0.3.1\windows\arm-none-eabi\include\c++\10.2.1\bits\std_abs.h ****   using ::abs;
  53:c:\users\vincius\documents\daisytoolchain-0.3.1\windows\arm-none-eabi\include\c++\10.2.1\bits\std_abs.h **** 
  54:c:\users\vincius\documents\daisytoolchain-0.3.1\windows\arm-none-eabi\include\c++\10.2.1\bits\std_abs.h **** #ifndef __CORRECT_ISO_CPP_STDLIB_H_PROTO
  55:c:\users\vincius\documents\daisytoolchain-0.3.1\windows\arm-none-eabi\include\c++\10.2.1\bits\std_abs.h ****   inline long
  56:c:\users\vincius\documents\daisytoolchain-0.3.1\windows\arm-none-eabi\include\c++\10.2.1\bits\std_abs.h ****   abs(long __i) { return __builtin_labs(__i); }
  57:c:\users\vincius\documents\daisytoolchain-0.3.1\windows\arm-none-eabi\include\c++\10.2.1\bits\std_abs.h **** #endif
  58:c:\users\vincius\documents\daisytoolchain-0.3.1\windows\arm-none-eabi\include\c++\10.2.1\bits\std_abs.h **** 
  59:c:\users\vincius\documents\daisytoolchain-0.3.1\windows\arm-none-eabi\include\c++\10.2.1\bits\std_abs.h **** #ifdef _GLIBCXX_USE_LONG_LONG
  60:c:\users\vincius\documents\daisytoolchain-0.3.1\windows\arm-none-eabi\include\c++\10.2.1\bits\std_abs.h ****   inline long long
  61:c:\users\vincius\documents\daisytoolchain-0.3.1\windows\arm-none-eabi\include\c++\10.2.1\bits\std_abs.h ****   abs(long long __x) { return __builtin_llabs (__x); }
  62:c:\users\vincius\documents\daisytoolchain-0.3.1\windows\arm-none-eabi\include\c++\10.2.1\bits\std_abs.h **** #endif
  63:c:\users\vincius\documents\daisytoolchain-0.3.1\windows\arm-none-eabi\include\c++\10.2.1\bits\std_abs.h **** 
  64:c:\users\vincius\documents\daisytoolchain-0.3.1\windows\arm-none-eabi\include\c++\10.2.1\bits\std_abs.h **** // _GLIBCXX_RESOLVE_LIB_DEFECTS
  65:c:\users\vincius\documents\daisytoolchain-0.3.1\windows\arm-none-eabi\include\c++\10.2.1\bits\std_abs.h **** // 2192. Validity and return type of std::abs(0u) is unclear
  66:c:\users\vincius\documents\daisytoolchain-0.3.1\windows\arm-none-eabi\include\c++\10.2.1\bits\std_abs.h **** // 2294. <cstdlib> should declare abs(double)
  67:c:\users\vincius\documents\daisytoolchain-0.3.1\windows\arm-none-eabi\include\c++\10.2.1\bits\std_abs.h **** // 2735. std::abs(short), std::abs(signed char) and others should return int
  68:c:\users\vincius\documents\daisytoolchain-0.3.1\windows\arm-none-eabi\include\c++\10.2.1\bits\std_abs.h **** 
  69:c:\users\vincius\documents\daisytoolchain-0.3.1\windows\arm-none-eabi\include\c++\10.2.1\bits\std_abs.h **** #ifndef __CORRECT_ISO_CPP_MATH_H_PROTO
  70:c:\users\vincius\documents\daisytoolchain-0.3.1\windows\arm-none-eabi\include\c++\10.2.1\bits\std_abs.h ****   inline _GLIBCXX_CONSTEXPR double
  71:c:\users\vincius\documents\daisytoolchain-0.3.1\windows\arm-none-eabi\include\c++\10.2.1\bits\std_abs.h ****   abs(double __x)
  72:c:\users\vincius\documents\daisytoolchain-0.3.1\windows\arm-none-eabi\include\c++\10.2.1\bits\std_abs.h ****   { return __builtin_fabs(__x); }
  73:c:\users\vincius\documents\daisytoolchain-0.3.1\windows\arm-none-eabi\include\c++\10.2.1\bits\std_abs.h **** 
  74:c:\users\vincius\documents\daisytoolchain-0.3.1\windows\arm-none-eabi\include\c++\10.2.1\bits\std_abs.h ****   inline _GLIBCXX_CONSTEXPR float
  75:c:\users\vincius\documents\daisytoolchain-0.3.1\windows\arm-none-eabi\include\c++\10.2.1\bits\std_abs.h ****   abs(float __x)
 4178              		.loc 8 75 3 is_stmt 1 view .LVU1050
 4179              	.LBB1143:
  76:c:\users\vincius\documents\daisytoolchain-0.3.1\windows\arm-none-eabi\include\c++\10.2.1\bits\std_abs.h ****   { return __builtin_fabsf(__x); }
 4180              		.loc 8 76 5 view .LVU1051
 4181              		.loc 8 76 5 is_stmt 0 view .LVU1052
ARM GAS  C:\Users\VINCIU~1\AppData\Local\Temp\cchCBePv.s 			page 111


 4182              	.LBE1143:
 4183              	.LBE1142:
 4184              		.loc 2 286 11 view .LVU1053
 4185 001c 96ED017A 		vldr.32	s14, [r6, #4]
 287:Menus.cpp     ****     {
 288:Menus.cpp     ****         this->updateValue = true;
 289:Menus.cpp     ****     }
 290:Menus.cpp     ****     else
 291:Menus.cpp     ****     {
 292:Menus.cpp     ****         this->updateValue = false;
 293:Menus.cpp     ****     }
 294:Menus.cpp     ****     float glideInit;
 295:Menus.cpp     ****     float margin = 10;
 296:Menus.cpp     ****     float offset = (screen.Height() / 4);
 297:Menus.cpp     ****     glideInit    = (offset + (this->analogRead * screen.Height() * 0.625));
 4186              		.loc 2 297 28 view .LVU1054
 4187 0020 B6EE042B 		vmov.f64	d2, #6.25e-1
 4188              		.loc 2 297 48 view .LVU1055
 4189 0024 9FEDD06A 		vldr.32	s12, .L353+8
 4190              		.loc 2 297 28 view .LVU1056
 4191 0028 B3EE005B 		vmov.f64	d5, #1.6e+1
 286:Menus.cpp     ****     {
 4192              		.loc 2 286 11 view .LVU1057
 4193 002c 34EEC77A 		vsub.f32	s14, s9, s14
 298:Menus.cpp     ****     if(this->buttonLeft.RisingEdge())
 4194              		.loc 2 298 5 view .LVU1058
 4195 0030 96F85130 		ldrb	r3, [r6, #81]	@ zero_extendqisi2
 297:Menus.cpp     ****     if(this->buttonLeft.RisingEdge())
 4196              		.loc 2 297 48 view .LVU1059
 4197 0034 24EE866A 		vmul.f32	s12, s9, s12
 4198              	.LBB1145:
 4199              	.LBB1144:
 4200              		.loc 8 76 31 view .LVU1060
 4201 0038 B0EEC77A 		vabs.f32	s14, s14
 4202              	.LBE1144:
 4203              	.LBE1145:
 297:Menus.cpp     ****     if(this->buttonLeft.RisingEdge())
 4204              		.loc 2 297 48 view .LVU1061
 4205 003c B7EEC66A 		vcvt.f64.f32	d6, s12
 286:Menus.cpp     ****     {
 4206              		.loc 2 286 5 view .LVU1062
 4207 0040 9FEDC73B 		vldr.64	d3, .L353
 286:Menus.cpp     ****     {
 4208              		.loc 2 286 11 view .LVU1063
 4209 0044 B7EEC77A 		vcvt.f64.f32	d7, s14
 297:Menus.cpp     ****     if(this->buttonLeft.RisingEdge())
 4210              		.loc 2 297 28 view .LVU1064
 4211 0048 A6EE025B 		vfma.f64	d5, d6, d2
 286:Menus.cpp     ****     {
 4212              		.loc 2 286 5 view .LVU1065
 4213 004c B4EEC37B 		vcmpe.f64	d7, d3
 4214 0050 F1EE10FA 		vmrs	APSR_nzcv, FPSCR
 4215 0054 CCBF     		ite	gt
 4216 0056 0122     		movgt	r2, #1
 4217 0058 0022     		movle	r2, #0
 4218              		.loc 2 298 5 view .LVU1066
 4219 005a 7F2B     		cmp	r3, #127
ARM GAS  C:\Users\VINCIU~1\AppData\Local\Temp\cchCBePv.s 			page 112


 297:Menus.cpp     ****     if(this->buttonLeft.RisingEdge())
 4220              		.loc 2 297 18 view .LVU1067
 4221 005c B7EEC55B 		vcvt.f32.f64	s10, d5
 299:Menus.cpp     **** 
 300:Menus.cpp     ****     {
 301:Menus.cpp     ****         this->menuStateGlide = this->menuStateGlide - 1;
 4222              		.loc 2 301 53 view .LVU1068
 4223 0060 336F     		ldr	r3, [r6, #112]
 286:Menus.cpp     ****     {
 4224              		.loc 2 286 5 view .LVU1069
 4225 0062 3272     		strb	r2, [r6, #8]
 294:Menus.cpp     ****     float margin = 10;
 4226              		.loc 2 294 5 is_stmt 1 view .LVU1070
 295:Menus.cpp     ****     float offset = (screen.Height() / 4);
 4227              		.loc 2 295 5 view .LVU1071
 4228              	.LVL282:
 296:Menus.cpp     ****     glideInit    = (offset + (this->analogRead * screen.Height() * 0.625));
 4229              		.loc 2 296 5 view .LVU1072
 297:Menus.cpp     ****     if(this->buttonLeft.RisingEdge())
 4230              		.loc 2 297 5 view .LVU1073
 298:Menus.cpp     **** 
 4231              		.loc 2 298 5 view .LVU1074
 4232              	.LBB1146:
 4233              	.LBI1146:
 4234              		.loc 4 69 17 view .LVU1075
 4235              	.LBB1147:
 4236              		.loc 4 69 38 view .LVU1076
 4237              		.loc 4 69 38 is_stmt 0 view .LVU1077
 4238              	.LBE1147:
 4239              	.LBE1146:
 298:Menus.cpp     **** 
 4240              		.loc 2 298 5 view .LVU1078
 4241 0064 00F07781 		beq	.L350
 4242              	.L295:
 302:Menus.cpp     ****         if(this->menuStateGlide < 0)
 303:Menus.cpp     ****         {
 304:Menus.cpp     ****             this->menuStateGlide = 1;
 305:Menus.cpp     ****         }
 306:Menus.cpp     ****     }
 307:Menus.cpp     ****     if(this->buttonRight.RisingEdge())
 4243              		.loc 2 307 5 is_stmt 1 view .LVU1079
 4244              	.LVL283:
 4245              	.LBB1148:
 4246              	.LBI1148:
 4247              		.loc 4 69 17 view .LVU1080
 4248              	.LBB1149:
 4249              		.loc 4 69 38 view .LVU1081
 4250              		.loc 4 69 38 is_stmt 0 view .LVU1082
 4251              	.LBE1149:
 4252              	.LBE1148:
 4253              		.loc 2 307 5 view .LVU1083
 4254 0068 96F86120 		ldrb	r2, [r6, #97]	@ zero_extendqisi2
 4255 006c 7F2A     		cmp	r2, #127
 4256 006e 4CD0     		beq	.L351
 4257              	.L298:
 308:Menus.cpp     **** 
 309:Menus.cpp     ****     {
ARM GAS  C:\Users\VINCIU~1\AppData\Local\Temp\cchCBePv.s 			page 113


 310:Menus.cpp     ****         this->menuStateGlide = this->menuStateGlide + 1;
 311:Menus.cpp     ****         if(this->menuStateGlide > 1)
 312:Menus.cpp     ****         {
 313:Menus.cpp     ****             this->menuStateGlide = 0;
 314:Menus.cpp     ****         }
 315:Menus.cpp     ****     }
 316:Menus.cpp     ****     if(this->menuStateGlide == 0)
 4258              		.loc 2 316 5 is_stmt 1 view .LVU1084
 4259 0070 002B     		cmp	r3, #0
 4260 0072 50D0     		beq	.L297
 317:Menus.cpp     ****     {
 318:Menus.cpp     ****         if(this->updateValue)
 319:Menus.cpp     ****         {
 320:Menus.cpp     ****             circleGlidePosition = ((screen.Height()) + margin) - glideInit;
 321:Menus.cpp     ****             sprintf(this->buffPitchGlide,
 322:Menus.cpp     ****                     "Init_%d%%",
 323:Menus.cpp     ****                     (int)(((glideInit - offset) / 40) * 200) - 100);
 324:Menus.cpp     ****             this->glideInit = (this->analogRead * 24) - 12;
 325:Menus.cpp     ****         }
 326:Menus.cpp     ****         screen.DrawRect(0, 0, 66, 13, true, false);
 327:Menus.cpp     ****     }
 328:Menus.cpp     ****     else if(this->menuStateGlide == 1)
 4261              		.loc 2 328 10 view .LVU1085
 4262 0074 012B     		cmp	r3, #1
 4263 0076 00F0C581 		beq	.L296
 321:Menus.cpp     ****                     "Init_%d%%",
 4264              		.loc 2 321 27 is_stmt 0 view .LVU1086
 4265 007a 06F58275 		add	r5, r6, #260
 4266              	.LVL284:
 4267              	.L349:
 329:Menus.cpp     ****     {
 330:Menus.cpp     ****         if(this->updateValue)
 331:Menus.cpp     ****         {
 332:Menus.cpp     ****             circleGlideTimePosition
 333:Menus.cpp     ****                 = ((this->analogRead * screen.Width() * 0.8) + margin);
 334:Menus.cpp     ****             this->glideTime = this->analogRead * 2;
 335:Menus.cpp     ****             sprintf(this->buffPitchTime,
 4268              		.loc 2 335 27 view .LVU1087
 4269 007e 06F58E77 		add	r7, r6, #284
 4270              	.L307:
 336:Menus.cpp     ****                     "Time_%d%%",
 337:Menus.cpp     ****                     (int)(((glideInit - offset) / 40) * 100) - 0);
 338:Menus.cpp     ****         }
 339:Menus.cpp     ****         screen.DrawRect(67, 0, screen.Width() - 2, 13, true, false);
 340:Menus.cpp     ****     }
 341:Menus.cpp     **** 
 342:Menus.cpp     ****     screen.SetCursor(6, 4);
 4271              		.loc 2 342 5 is_stmt 1 view .LVU1088
 4272              	.LVL285:
 4273              	.LBB1151:
 4274              	.LBI1151:
 131:../../libdaisy/src/hid/disp/display.h ****     {
 4275              		.loc 5 131 10 view .LVU1089
 4276              	.LBB1152:
 133:../../libdaisy/src/hid/disp/display.h ****         currentY_ = (y >= Height()) ? Height() - 1 : y;
 4277              		.loc 5 133 9 view .LVU1090
 134:../../libdaisy/src/hid/disp/display.h ****     }
ARM GAS  C:\Users\VINCIU~1\AppData\Local\Temp\cchCBePv.s 			page 114


 4278              		.loc 5 134 9 view .LVU1091
 4279              	.LBE1152:
 4280              	.LBE1151:
 343:Menus.cpp     ****     screen.WriteString(buffPitchGlide, Font_6x8, true);
 4281              		.loc 2 343 23 is_stmt 0 view .LVU1092
 4282 0082 2946     		mov	r1, r5
 4283              	.LBB1155:
 4284              	.LBB1153:
 133:../../libdaisy/src/hid/disp/display.h ****         currentY_ = (y >= Height()) ? Height() - 1 : y;
 4285              		.loc 5 133 19 view .LVU1093
 4286 0084 B94B     		ldr	r3, .L353+12
 4287              	.LBE1153:
 4288              	.LBE1155:
 4289              		.loc 2 343 23 view .LVU1094
 4290 0086 BA4D     		ldr	r5, .L353+16
 4291 0088 4FF00109 		mov	r9, #1
 4292              	.LBB1156:
 4293              	.LBB1154:
 133:../../libdaisy/src/hid/disp/display.h ****         currentY_ = (y >= Height()) ? Height() - 1 : y;
 4294              		.loc 5 133 19 view .LVU1095
 4295 008c 6360     		str	r3, [r4, #4]
 4296              	.LVL286:
 133:../../libdaisy/src/hid/disp/display.h ****         currentY_ = (y >= Height()) ? Height() - 1 : y;
 4297              		.loc 5 133 19 view .LVU1096
 4298              	.LBE1154:
 4299              	.LBE1156:
 4300              		.loc 2 343 5 is_stmt 1 view .LVU1097
 4301              		.loc 2 343 23 is_stmt 0 view .LVU1098
 4302 008e 2046     		mov	r0, r4
 4303 0090 CDF80090 		str	r9, [sp]
 4304 0094 95E80C00 		ldm	r5, {r2, r3}
 4305 0098 FFF7FEFF 		bl	_ZN5daisy25OneBitGraphicsDisplayImplINS_11OledDisplayINS_13SSD130xDriverILj128ELj64ENS_24SSD130
 4306              	.LVL287:
 344:Menus.cpp     ****     screen.SetCursor(73, 4);
 4307              		.loc 2 344 5 is_stmt 1 view .LVU1099
 4308              	.LBB1157:
 4309              	.LBI1157:
 131:../../libdaisy/src/hid/disp/display.h ****     {
 4310              		.loc 5 131 10 view .LVU1100
 4311              	.LBB1158:
 133:../../libdaisy/src/hid/disp/display.h ****         currentY_ = (y >= Height()) ? Height() - 1 : y;
 4312              		.loc 5 133 9 view .LVU1101
 134:../../libdaisy/src/hid/disp/display.h ****     }
 4313              		.loc 5 134 9 view .LVU1102
 133:../../libdaisy/src/hid/disp/display.h ****         currentY_ = (y >= Height()) ? Height() - 1 : y;
 4314              		.loc 5 133 19 is_stmt 0 view .LVU1103
 4315 009c B54B     		ldr	r3, .L353+20
 4316              	.LBE1158:
 4317              	.LBE1157:
 345:Menus.cpp     ****     screen.WriteString(buffPitchTime, Font_6x8, true);
 4318              		.loc 2 345 23 view .LVU1104
 4319 009e CDF80090 		str	r9, [sp]
 4320 00a2 3946     		mov	r1, r7
 4321              	.LBB1160:
 4322              	.LBB1159:
 133:../../libdaisy/src/hid/disp/display.h ****         currentY_ = (y >= Height()) ? Height() - 1 : y;
 4323              		.loc 5 133 19 view .LVU1105
ARM GAS  C:\Users\VINCIU~1\AppData\Local\Temp\cchCBePv.s 			page 115


 4324 00a4 6360     		str	r3, [r4, #4]
 4325              	.LVL288:
 133:../../libdaisy/src/hid/disp/display.h ****         currentY_ = (y >= Height()) ? Height() - 1 : y;
 4326              		.loc 5 133 19 view .LVU1106
 4327              	.LBE1159:
 4328              	.LBE1160:
 4329              		.loc 2 345 5 is_stmt 1 view .LVU1107
 4330              		.loc 2 345 23 is_stmt 0 view .LVU1108
 4331 00a6 2046     		mov	r0, r4
 4332 00a8 95E80C00 		ldm	r5, {r2, r3}
 4333 00ac FFF7FEFF 		bl	_ZN5daisy25OneBitGraphicsDisplayImplINS_11OledDisplayINS_13SSD130xDriverILj128ELj64ENS_24SSD130
 4334              	.LVL289:
 346:Menus.cpp     ****     screen.DrawLine(margin,
 4335              		.loc 2 346 5 is_stmt 1 view .LVU1109
 4336              		.loc 2 346 20 is_stmt 0 view .LVU1110
 4337 00b0 96ED227A 		vldr.32	s14, [r6, #136]
 4338 00b4 D6ED237A 		vldr.32	s15, [r6, #140]
 4339 00b8 BCEEC77A 		vcvt.u32.f32	s14, s14
 4340 00bc FCEEE77A 		vcvt.u32.f32	s15, s15
 4341              	.LBB1161:
 4342              	.LBB1162:
 188:../../libdaisy/src/hid/disp/display.h ****         int_fast16_t signX  = ((x1 < x2) ? 1 : -1);
 4343              		.loc 5 188 52 view .LVU1111
 4344 00c0 17EE103A 		vmov	r3, s14	@ int
 4345              	.LBE1162:
 4346              	.LBE1161:
 4347              		.loc 2 346 20 view .LVU1112
 4348 00c4 8DED057A 		vstr.32	s14, [sp, #20]	@ int
 4349 00c8 17EE908A 		vmov	r8, s15	@ int
 4350              	.LVL290:
 4351              	.LBB1201:
 4352              	.LBI1161:
 181:../../libdaisy/src/hid/disp/display.h ****                   uint_fast8_t y1,
 4353              		.loc 5 181 10 is_stmt 1 view .LVU1113
 4354              	.LBB1197:
 188:../../libdaisy/src/hid/disp/display.h ****         int_fast16_t signX  = ((x1 < x2) ? 1 : -1);
 4355              		.loc 5 188 52 is_stmt 0 view .LVU1114
 4356 00cc C3F1200A 		rsb	r10, r3, #32
 187:../../libdaisy/src/hid/disp/display.h ****         int_fast16_t deltaY = abs((int_fast16_t)y2 - (int_fast16_t)y1);
 4357              		.loc 5 187 52 view .LVU1115
 4358 00d0 A8F10A07 		sub	r7, r8, #10
 188:../../libdaisy/src/hid/disp/display.h ****         int_fast16_t signX  = ((x1 < x2) ? 1 : -1);
 4359              		.loc 5 188 22 view .LVU1116
 4360 00d4 BAF1000F 		cmp	r10, #0
 4361 00d8 B8BF     		it	lt
 4362 00da CAF1000A 		rsblt	r10, r10, #0
 187:../../libdaisy/src/hid/disp/display.h ****         int_fast16_t deltaY = abs((int_fast16_t)y2 - (int_fast16_t)y1);
 4363              		.loc 5 187 22 view .LVU1117
 4364 00de 002F     		cmp	r7, #0
 4365 00e0 B8BF     		it	lt
 4366 00e2 7F42     		rsblt	r7, r7, #0
 4367              	.LVL291:
 189:../../libdaisy/src/hid/disp/display.h ****         int_fast16_t signY  = ((y1 < y2) ? 1 : -1);
 4368              		.loc 5 189 42 view .LVU1118
 4369 00e4 B8F10A0F 		cmp	r8, #10
 4370 00e8 70D9     		bls	.L311
 4371              	.LVL292:
ARM GAS  C:\Users\VINCIU~1\AppData\Local\Temp\cchCBePv.s 			page 116


 190:../../libdaisy/src/hid/disp/display.h ****         int_fast16_t error  = deltaX - deltaY;
 4372              		.loc 5 190 42 view .LVU1119
 4373 00ea 1F2B     		cmp	r3, #31
 191:../../libdaisy/src/hid/disp/display.h ****         int_fast16_t error2;
 4374              		.loc 5 191 22 view .LVU1120
 4375 00ec A7EB0A01 		sub	r1, r7, r10
 4376              	.LVL293:
 4377              	.LBB1163:
 4378              	.LBI1163:
 4379              		.loc 1 41 10 is_stmt 1 view .LVU1121
 4380              	.LBB1164:
  42:../../libdaisy/src/hid/disp/oled_display.h ****     {
  43:../../libdaisy/src/hid/disp/oled_display.h ****         driver_.DrawPixel(x, y, on);
 4381              		.loc 1 43 26 is_stmt 0 view .LVU1122
 4382 00f0 04F10805 		add	r5, r4, #8
 4383              	.LBE1164:
 4384              	.LBE1163:
 190:../../libdaisy/src/hid/disp/display.h ****         int_fast16_t error  = deltaX - deltaY;
 4385              		.loc 5 190 42 view .LVU1123
 4386 00f4 40F24681 		bls	.L312
 4387              	.LVL294:
 4388              	.LBB1184:
 4389              	.LBB1177:
 4390              	.LBB1165:
 4391              	.LBI1165:
 239:../../libdaisy/src/dev/oled_ssd130x.h ****     {
 4392              		.loc 6 239 10 is_stmt 1 view .LVU1124
 4393              	.LBB1166:
 241:../../libdaisy/src/dev/oled_ssd130x.h ****             return;
 4394              		.loc 6 241 9 is_stmt 0 view .LVU1125
 4395 00f8 B8F17F0F 		cmp	r8, #127
 4396              	.LBE1166:
 4397              	.LBE1165:
 4398              	.LBE1177:
 4399              	.LBE1184:
 189:../../libdaisy/src/hid/disp/display.h ****         int_fast16_t signY  = ((y1 < y2) ? 1 : -1);
 4400              		.loc 5 189 42 view .LVU1126
 4401 00fc CDF81890 		str	r9, [sp, #24]
 4402              	.LBB1185:
 4403              	.LBB1178:
 4404              	.LBB1171:
 4405              	.LBB1167:
 241:../../libdaisy/src/dev/oled_ssd130x.h ****             return;
 4406              		.loc 6 241 9 view .LVU1127
 4407 0100 6FD9     		bls	.L330
 4408              	.LBE1167:
 4409              	.LBE1171:
 4410              	.LBE1178:
 4411              	.LBE1185:
 190:../../libdaisy/src/hid/disp/display.h ****         int_fast16_t error  = deltaX - deltaY;
 4412              		.loc 5 190 42 view .LVU1128
 4413 0102 4FF0FF33 		mov	r3, #-1
 4414              	.LVL295:
 190:../../libdaisy/src/hid/disp/display.h ****         int_fast16_t error  = deltaX - deltaY;
 4415              		.loc 5 190 42 view .LVU1129
 4416 0106 0793     		str	r3, [sp, #28]
 4417 0108 7BE0     		b	.L313
ARM GAS  C:\Users\VINCIU~1\AppData\Local\Temp\cchCBePv.s 			page 117


 4418              	.LVL296:
 4419              	.L351:
 190:../../libdaisy/src/hid/disp/display.h ****         int_fast16_t error  = deltaX - deltaY;
 4420              		.loc 5 190 42 view .LVU1130
 4421              	.LBE1197:
 4422              	.LBE1201:
 310:Menus.cpp     ****         if(this->menuStateGlide > 1)
 4423              		.loc 2 310 9 is_stmt 1 view .LVU1131
 310:Menus.cpp     ****         if(this->menuStateGlide > 1)
 4424              		.loc 2 310 53 is_stmt 0 view .LVU1132
 4425 010a 0133     		adds	r3, r3, #1
 311:Menus.cpp     ****         {
 4426              		.loc 2 311 9 view .LVU1133
 4427 010c 012B     		cmp	r3, #1
 310:Menus.cpp     ****         if(this->menuStateGlide > 1)
 4428              		.loc 2 310 30 view .LVU1134
 4429 010e 3367     		str	r3, [r6, #112]
 311:Menus.cpp     ****         {
 4430              		.loc 2 311 9 is_stmt 1 view .LVU1135
 4431 0110 AEDD     		ble	.L298
 4432              	.L299:
 313:Menus.cpp     ****         }
 4433              		.loc 2 313 13 view .LVU1136
 313:Menus.cpp     ****         }
 4434              		.loc 2 313 34 is_stmt 0 view .LVU1137
 4435 0112 0023     		movs	r3, #0
 4436 0114 3367     		str	r3, [r6, #112]
 316:Menus.cpp     ****     {
 4437              		.loc 2 316 5 is_stmt 1 view .LVU1138
 4438              	.L297:
 318:Menus.cpp     ****         {
 4439              		.loc 2 318 9 view .LVU1139
 4440 0116 9FED926B 		vldr.64	d6, .L353
 4441 011a B4EEC67B 		vcmpe.f64	d7, d6
 4442 011e F1EE10FA 		vmrs	APSR_nzcv, FPSCR
 4443 0122 00F34081 		bgt	.L301
 321:Menus.cpp     ****                     "Init_%d%%",
 4444              		.loc 2 321 27 is_stmt 0 view .LVU1140
 4445 0126 06F58275 		add	r5, r6, #260
 4446              	.LVL297:
 4447              	.L302:
 326:Menus.cpp     ****     }
 4448              		.loc 2 326 9 is_stmt 1 view .LVU1141
 4449              	.LBB1202:
 4450              	.LBI1202:
 217:../../libdaisy/src/hid/disp/display.h ****                   uint_fast8_t y1,
 4451              		.loc 5 217 10 view .LVU1142
 4452              	.LBB1203:
 4453              	.LBI1203:
 181:../../libdaisy/src/hid/disp/display.h ****                   uint_fast8_t y1,
 4454              		.loc 5 181 10 view .LVU1143
 4455              	.LBB1204:
 4456              	.LBB1205:
 4457              	.LBI1205:
  41:../../libdaisy/src/hid/disp/oled_display.h ****     {
 4458              		.loc 1 41 10 view .LVU1144
 4459              	.LBB1206:
ARM GAS  C:\Users\VINCIU~1\AppData\Local\Temp\cchCBePv.s 			page 118


 4460              	.LBI1206:
 239:../../libdaisy/src/dev/oled_ssd130x.h ****     {
 4461              		.loc 6 239 10 view .LVU1145
 4462              	.LBB1207:
 244:../../libdaisy/src/dev/oled_ssd130x.h ****         else
 4463              		.loc 6 244 42 is_stmt 0 view .LVU1146
 4464 012a 94F85620 		ldrb	r2, [r4, #86]	@ zero_extendqisi2
 4465 012e 04F11303 		add	r3, r4, #19
 4466 0132 04F15501 		add	r1, r4, #85
 4467 0136 42F00102 		orr	r2, r2, #1
 4468 013a 84F85620 		strb	r2, [r4, #86]
 4469              	.LVL298:
 244:../../libdaisy/src/dev/oled_ssd130x.h ****         else
 4470              		.loc 6 244 42 view .LVU1147
 4471              	.LBE1207:
 4472              	.LBE1206:
 4473              	.LBE1205:
 199:../../libdaisy/src/hid/disp/display.h ****         {
 4474              		.loc 5 199 26 is_stmt 1 view .LVU1148
 4475              	.L303:
 4476              	.LBB1208:
 4477              	.LBI1208:
  41:../../libdaisy/src/hid/disp/oled_display.h ****     {
 4478              		.loc 1 41 10 view .LVU1149
 4479              	.LBB1209:
 4480              	.LBI1209:
 239:../../libdaisy/src/dev/oled_ssd130x.h ****     {
 4481              		.loc 6 239 10 view .LVU1150
 4482              	.LBB1210:
 244:../../libdaisy/src/dev/oled_ssd130x.h ****         else
 4483              		.loc 6 244 42 is_stmt 0 view .LVU1151
 4484 013e 13F8012F 		ldrb	r2, [r3, #1]!	@ zero_extendqisi2
 244:../../libdaisy/src/dev/oled_ssd130x.h ****         else
 4485              		.loc 6 244 42 view .LVU1152
 4486 0142 42F00102 		orr	r2, r2, #1
 4487              	.LBE1210:
 4488              	.LBE1209:
 4489              	.LBE1208:
 199:../../libdaisy/src/hid/disp/display.h ****         {
 4490              		.loc 5 199 26 view .LVU1153
 4491 0146 9942     		cmp	r1, r3
 4492              	.LBB1213:
 4493              	.LBB1212:
 4494              	.LBB1211:
 244:../../libdaisy/src/dev/oled_ssd130x.h ****         else
 4495              		.loc 6 244 42 view .LVU1154
 4496 0148 1A70     		strb	r2, [r3]
 4497              	.LVL299:
 244:../../libdaisy/src/dev/oled_ssd130x.h ****         else
 4498              		.loc 6 244 42 view .LVU1155
 4499              	.LBE1211:
 4500              	.LBE1212:
 4501              	.LBE1213:
 199:../../libdaisy/src/hid/disp/display.h ****         {
 4502              		.loc 5 199 26 is_stmt 1 view .LVU1156
 4503 014a F8D1     		bne	.L303
 4504              	.LVL300:
ARM GAS  C:\Users\VINCIU~1\AppData\Local\Temp\cchCBePv.s 			page 119


 199:../../libdaisy/src/hid/disp/display.h ****         {
 4505              		.loc 5 199 26 is_stmt 0 view .LVU1157
 4506              	.LBE1204:
 4507              	.LBE1203:
 4508              	.LBB1214:
 4509              	.LBI1214:
 181:../../libdaisy/src/hid/disp/display.h ****                   uint_fast8_t y1,
 4510              		.loc 5 181 10 is_stmt 1 view .LVU1158
 4511              	.LBB1215:
 4512              	.LBB1216:
 4513              	.LBI1216:
  41:../../libdaisy/src/hid/disp/oled_display.h ****     {
 4514              		.loc 1 41 10 view .LVU1159
 4515              	.LBB1217:
 4516              	.LBI1217:
 239:../../libdaisy/src/dev/oled_ssd130x.h ****     {
 4517              		.loc 6 239 10 view .LVU1160
 4518              	.LBB1218:
 244:../../libdaisy/src/dev/oled_ssd130x.h ****         else
 4519              		.loc 6 244 42 is_stmt 0 view .LVU1161
 4520 014c 94F8D620 		ldrb	r2, [r4, #214]	@ zero_extendqisi2
 4521 0150 0023     		movs	r3, #0
 4522 0152 42F02002 		orr	r2, r2, #32
 4523 0156 84F8D620 		strb	r2, [r4, #214]
 4524              	.LVL301:
 244:../../libdaisy/src/dev/oled_ssd130x.h ****         else
 4525              		.loc 6 244 42 view .LVU1162
 4526              	.LBE1218:
 4527              	.LBE1217:
 4528              	.LBE1216:
 199:../../libdaisy/src/hid/disp/display.h ****         {
 4529              		.loc 5 199 26 is_stmt 1 view .LVU1163
 4530              	.L304:
 4531              	.LBB1219:
 4532              	.LBI1219:
  41:../../libdaisy/src/hid/disp/oled_display.h ****     {
 4533              		.loc 1 41 10 view .LVU1164
 4534              	.LBB1220:
 4535              	.LBI1220:
 239:../../libdaisy/src/dev/oled_ssd130x.h ****     {
 4536              		.loc 6 239 10 view .LVU1165
 4537              	.LBB1221:
 244:../../libdaisy/src/dev/oled_ssd130x.h ****         else
 4538              		.loc 6 244 28 is_stmt 0 view .LVU1166
 4539 015a D908     		lsrs	r1, r3, #3
 244:../../libdaisy/src/dev/oled_ssd130x.h ****         else
 4540              		.loc 6 244 54 view .LVU1167
 4541 015c 03F00700 		and	r0, r3, #7
 244:../../libdaisy/src/dev/oled_ssd130x.h ****         else
 4542              		.loc 6 244 48 view .LVU1168
 4543 0160 0122     		movs	r2, #1
 244:../../libdaisy/src/dev/oled_ssd130x.h ****         else
 4544              		.loc 6 244 42 view .LVU1169
 4545 0162 04EBC111 		add	r1, r4, r1, lsl #7
 4546              	.LBE1221:
 4547              	.LBE1220:
 4548              	.LBE1219:
ARM GAS  C:\Users\VINCIU~1\AppData\Local\Temp\cchCBePv.s 			page 120


 212:../../libdaisy/src/hid/disp/display.h ****             }
 4549              		.loc 5 212 20 view .LVU1170
 4550 0166 1344     		add	r3, r3, r2
 4551              	.LVL302:
 4552              	.LBB1226:
 4553              	.LBB1224:
 4554              	.LBB1222:
 244:../../libdaisy/src/dev/oled_ssd130x.h ****         else
 4555              		.loc 6 244 48 view .LVU1171
 4556 0168 8240     		lsls	r2, r2, r0
 244:../../libdaisy/src/dev/oled_ssd130x.h ****         else
 4557              		.loc 6 244 42 view .LVU1172
 4558 016a 91F85600 		ldrb	r0, [r1, #86]	@ zero_extendqisi2
 4559              	.LBE1222:
 4560              	.LBE1224:
 4561              	.LBE1226:
 199:../../libdaisy/src/hid/disp/display.h ****         {
 4562              		.loc 5 199 26 view .LVU1173
 4563 016e 0D2B     		cmp	r3, #13
 4564              	.LBB1227:
 4565              	.LBB1225:
 4566              	.LBB1223:
 244:../../libdaisy/src/dev/oled_ssd130x.h ****         else
 4567              		.loc 6 244 42 view .LVU1174
 4568 0170 42EA0002 		orr	r2, r2, r0
 4569 0174 81F85620 		strb	r2, [r1, #86]
 4570              	.LVL303:
 244:../../libdaisy/src/dev/oled_ssd130x.h ****         else
 4571              		.loc 6 244 42 view .LVU1175
 4572              	.LBE1223:
 4573              	.LBE1225:
 4574              	.LBE1227:
 199:../../libdaisy/src/hid/disp/display.h ****         {
 4575              		.loc 5 199 26 is_stmt 1 view .LVU1176
 4576 0178 EFD1     		bne	.L304
 4577              	.LVL304:
 199:../../libdaisy/src/hid/disp/display.h ****         {
 4578              		.loc 5 199 26 is_stmt 0 view .LVU1177
 4579              	.LBE1215:
 4580              	.LBE1214:
 4581              	.LBB1228:
 4582              	.LBI1228:
 181:../../libdaisy/src/hid/disp/display.h ****                   uint_fast8_t y1,
 4583              		.loc 5 181 10 is_stmt 1 view .LVU1178
 4584              	.LBB1229:
 4585              	.LBB1230:
 4586              	.LBI1230:
  41:../../libdaisy/src/hid/disp/oled_display.h ****     {
 4587              		.loc 1 41 10 view .LVU1179
 4588              	.LBB1231:
 4589              	.LBI1231:
 239:../../libdaisy/src/dev/oled_ssd130x.h ****     {
 4590              		.loc 6 239 10 view .LVU1180
 4591              	.LBB1232:
 244:../../libdaisy/src/dev/oled_ssd130x.h ****         else
 4592              		.loc 6 244 42 is_stmt 0 view .LVU1181
 4593 017a 94F89420 		ldrb	r2, [r4, #148]	@ zero_extendqisi2
ARM GAS  C:\Users\VINCIU~1\AppData\Local\Temp\cchCBePv.s 			page 121


 4594 017e 04F1D701 		add	r1, r4, #215
 4595 0182 04F19507 		add	r7, r4, #149
 4596 0186 42F02002 		orr	r2, r2, #32
 4597 018a 84F89420 		strb	r2, [r4, #148]
 4598              	.LVL305:
 244:../../libdaisy/src/dev/oled_ssd130x.h ****         else
 4599              		.loc 6 244 42 view .LVU1182
 4600              	.LBE1232:
 4601              	.LBE1231:
 4602              	.LBE1230:
 199:../../libdaisy/src/hid/disp/display.h ****         {
 4603              		.loc 5 199 26 is_stmt 1 view .LVU1183
 4604              	.L305:
 4605              	.LBB1233:
 4606              	.LBI1233:
  41:../../libdaisy/src/hid/disp/oled_display.h ****     {
 4607              		.loc 1 41 10 view .LVU1184
 4608              	.LBB1234:
 4609              	.LBI1234:
 239:../../libdaisy/src/dev/oled_ssd130x.h ****     {
 4610              		.loc 6 239 10 view .LVU1185
 4611              	.LBB1235:
 244:../../libdaisy/src/dev/oled_ssd130x.h ****         else
 4612              		.loc 6 244 42 is_stmt 0 view .LVU1186
 4613 018e 11F8010D 		ldrb	r0, [r1, #-1]!	@ zero_extendqisi2
 244:../../libdaisy/src/dev/oled_ssd130x.h ****         else
 4614              		.loc 6 244 42 view .LVU1187
 4615 0192 40F02000 		orr	r0, r0, #32
 4616              	.LBE1235:
 4617              	.LBE1234:
 4618              	.LBE1233:
 199:../../libdaisy/src/hid/disp/display.h ****         {
 4619              		.loc 5 199 26 view .LVU1188
 4620 0196 8F42     		cmp	r7, r1
 4621              	.LBB1238:
 4622              	.LBB1237:
 4623              	.LBB1236:
 244:../../libdaisy/src/dev/oled_ssd130x.h ****         else
 4624              		.loc 6 244 42 view .LVU1189
 4625 0198 0870     		strb	r0, [r1]
 4626              	.LVL306:
 244:../../libdaisy/src/dev/oled_ssd130x.h ****         else
 4627              		.loc 6 244 42 view .LVU1190
 4628              	.LBE1236:
 4629              	.LBE1237:
 4630              	.LBE1238:
 199:../../libdaisy/src/hid/disp/display.h ****         {
 4631              		.loc 5 199 26 is_stmt 1 view .LVU1191
 4632 019a F8D1     		bne	.L305
 4633              	.LVL307:
 199:../../libdaisy/src/hid/disp/display.h ****         {
 4634              		.loc 5 199 26 is_stmt 0 view .LVU1192
 4635              	.LBE1229:
 4636              	.LBE1228:
 4637              	.LBB1239:
 4638              	.LBI1239:
 181:../../libdaisy/src/hid/disp/display.h ****                   uint_fast8_t y1,
ARM GAS  C:\Users\VINCIU~1\AppData\Local\Temp\cchCBePv.s 			page 122


 4639              		.loc 5 181 10 is_stmt 1 view .LVU1193
 4640              	.LBB1240:
 4641              	.LBB1241:
 4642              	.LBI1241:
  41:../../libdaisy/src/hid/disp/oled_display.h ****     {
 4643              		.loc 1 41 10 view .LVU1194
 4644              	.LBB1242:
 4645              	.LBI1242:
 239:../../libdaisy/src/dev/oled_ssd130x.h ****     {
 4646              		.loc 6 239 10 view .LVU1195
 4647              	.LBB1243:
 244:../../libdaisy/src/dev/oled_ssd130x.h ****         else
 4648              		.loc 6 244 42 is_stmt 0 view .LVU1196
 4649 019c 217D     		ldrb	r1, [r4, #20]	@ zero_extendqisi2
 4650 019e 0120     		movs	r0, #1
 4651 01a0 41F00101 		orr	r1, r1, #1
 4652 01a4 2175     		strb	r1, [r4, #20]
 4653              	.LVL308:
 244:../../libdaisy/src/dev/oled_ssd130x.h ****         else
 4654              		.loc 6 244 42 view .LVU1197
 4655              	.LBE1243:
 4656              	.LBE1242:
 4657              	.LBE1241:
 199:../../libdaisy/src/hid/disp/display.h ****         {
 4658              		.loc 5 199 26 is_stmt 1 view .LVU1198
 4659 01a6 02E0     		b	.L308
 4660              	.LVL309:
 4661              	.L306:
 4662              	.LBB1244:
 4663              	.LBB1245:
 4664              	.LBB1246:
 244:../../libdaisy/src/dev/oled_ssd130x.h ****         else
 4665              		.loc 6 244 42 is_stmt 0 view .LVU1199
 4666 01a8 04EBC012 		add	r2, r4, r0, lsl #7
 4667 01ac 127D     		ldrb	r2, [r2, #20]	@ zero_extendqisi2
 4668              	.LVL310:
 4669              	.L308:
 244:../../libdaisy/src/dev/oled_ssd130x.h ****         else
 4670              		.loc 6 244 42 view .LVU1200
 4671              	.LBE1246:
 4672              	.LBE1245:
 4673              	.LBI1244:
  41:../../libdaisy/src/hid/disp/oled_display.h ****     {
 4674              		.loc 1 41 10 is_stmt 1 view .LVU1201
 4675              	.LBB1250:
 4676              	.LBI1245:
 239:../../libdaisy/src/dev/oled_ssd130x.h ****     {
 4677              		.loc 6 239 10 view .LVU1202
 4678              	.LBB1247:
 244:../../libdaisy/src/dev/oled_ssd130x.h ****         else
 4679              		.loc 6 244 54 is_stmt 0 view .LVU1203
 4680 01ae 03F00707 		and	r7, r3, #7
 244:../../libdaisy/src/dev/oled_ssd130x.h ****         else
 4681              		.loc 6 244 48 view .LVU1204
 4682 01b2 0121     		movs	r1, #1
 244:../../libdaisy/src/dev/oled_ssd130x.h ****         else
 4683              		.loc 6 244 42 view .LVU1205
ARM GAS  C:\Users\VINCIU~1\AppData\Local\Temp\cchCBePv.s 			page 123


 4684 01b4 04EBC010 		add	r0, r4, r0, lsl #7
 4685              	.LBE1247:
 4686              	.LBE1250:
 4687              	.LBE1244:
 199:../../libdaisy/src/hid/disp/display.h ****         {
 4688              		.loc 5 199 26 view .LVU1206
 4689 01b8 013B     		subs	r3, r3, #1
 4690              	.LVL311:
 4691              	.LBB1253:
 4692              	.LBB1251:
 4693              	.LBB1248:
 244:../../libdaisy/src/dev/oled_ssd130x.h ****         else
 4694              		.loc 6 244 48 view .LVU1207
 4695 01ba 01FA07F1 		lsl	r1, r1, r7
 244:../../libdaisy/src/dev/oled_ssd130x.h ****         else
 4696              		.loc 6 244 42 view .LVU1208
 4697 01be 42EA0102 		orr	r2, r2, r1
 4698 01c2 0275     		strb	r2, [r0, #20]
 4699              	.LVL312:
 244:../../libdaisy/src/dev/oled_ssd130x.h ****         else
 4700              		.loc 6 244 42 view .LVU1209
 4701              	.LBE1248:
 4702              	.LBE1251:
 4703              	.LBE1253:
 199:../../libdaisy/src/hid/disp/display.h ****         {
 4704              		.loc 5 199 26 is_stmt 1 view .LVU1210
 4705              	.LBB1254:
 4706              	.LBB1252:
 4707              	.LBB1249:
 244:../../libdaisy/src/dev/oled_ssd130x.h ****         else
 4708              		.loc 6 244 28 is_stmt 0 view .LVU1211
 4709 01c4 4FEAD300 		lsr	r0, r3, #3
 4710              	.LBE1249:
 4711              	.LBE1252:
 4712              	.LBE1254:
 199:../../libdaisy/src/hid/disp/display.h ****         {
 4713              		.loc 5 199 26 view .LVU1212
 4714 01c8 EED1     		bne	.L306
 4715 01ca 58E7     		b	.L349
 4716              	.LVL313:
 4717              	.L311:
 199:../../libdaisy/src/hid/disp/display.h ****         {
 4718              		.loc 5 199 26 view .LVU1213
 4719              	.LBE1240:
 4720              	.LBE1239:
 4721              	.LBE1202:
 4722              	.LBB1255:
 4723              	.LBB1198:
 190:../../libdaisy/src/hid/disp/display.h ****         int_fast16_t error  = deltaX - deltaY;
 4724              		.loc 5 190 42 view .LVU1214
 4725 01cc 059B     		ldr	r3, [sp, #20]
 4726              	.LVL314:
 190:../../libdaisy/src/hid/disp/display.h ****         int_fast16_t error  = deltaX - deltaY;
 4727              		.loc 5 190 42 view .LVU1215
 4728 01ce 1F2B     		cmp	r3, #31
 4729 01d0 40F2DF80 		bls	.L329
 4730              	.LVL315:
ARM GAS  C:\Users\VINCIU~1\AppData\Local\Temp\cchCBePv.s 			page 124


 189:../../libdaisy/src/hid/disp/display.h ****         int_fast16_t signY  = ((y1 < y2) ? 1 : -1);
 4731              		.loc 5 189 42 view .LVU1216
 4732 01d4 4FF0FF33 		mov	r3, #-1
 191:../../libdaisy/src/hid/disp/display.h ****         int_fast16_t error2;
 4733              		.loc 5 191 22 view .LVU1217
 4734 01d8 A7EB0A01 		sub	r1, r7, r10
 4735              	.LVL316:
 4736              	.LBB1186:
  41:../../libdaisy/src/hid/disp/oled_display.h ****     {
 4737              		.loc 1 41 10 is_stmt 1 view .LVU1218
 4738              	.LBB1179:
 4739              		.loc 1 43 26 is_stmt 0 view .LVU1219
 4740 01dc 04F10805 		add	r5, r4, #8
 4741              	.LVL317:
 4742              	.LBB1172:
 239:../../libdaisy/src/dev/oled_ssd130x.h ****     {
 4743              		.loc 6 239 10 is_stmt 1 view .LVU1220
 4744              	.LBE1172:
 4745              	.LBE1179:
 4746              	.LBE1186:
 189:../../libdaisy/src/hid/disp/display.h ****         int_fast16_t signY  = ((y1 < y2) ? 1 : -1);
 4747              		.loc 5 189 42 is_stmt 0 view .LVU1221
 4748 01e0 0693     		str	r3, [sp, #24]
 4749              	.LVL318:
 4750              	.L330:
 190:../../libdaisy/src/hid/disp/display.h ****         int_fast16_t error  = deltaX - deltaY;
 4751              		.loc 5 190 42 view .LVU1222
 4752 01e2 4FF0FF33 		mov	r3, #-1
 4753 01e6 0793     		str	r3, [sp, #28]
 4754              	.LVL319:
 4755              	.L327:
 4756              	.LBB1187:
 4757              	.LBB1180:
 4758              	.LBB1173:
 4759              	.LBB1168:
 244:../../libdaisy/src/dev/oled_ssd130x.h ****         else
 4760              		.loc 6 244 42 view .LVU1223
 4761 01e8 08F50073 		add	r3, r8, #512
 4762 01ec 2344     		add	r3, r3, r4
 4763 01ee 1A7D     		ldrb	r2, [r3, #20]	@ zero_extendqisi2
 4764 01f0 42F00102 		orr	r2, r2, #1
 4765 01f4 1A75     		strb	r2, [r3, #20]
 4766              	.LVL320:
 244:../../libdaisy/src/dev/oled_ssd130x.h ****         else
 4767              		.loc 6 244 42 view .LVU1224
 4768              	.LBE1168:
 4769              	.LBE1173:
 4770              	.LBE1180:
 4771              	.LBE1187:
 199:../../libdaisy/src/hid/disp/display.h ****         {
 4772              		.loc 5 199 26 is_stmt 1 view .LVU1225
 4773 01f6 059B     		ldr	r3, [sp, #20]
 4774 01f8 202B     		cmp	r3, #32
 4775 01fa 02D1     		bne	.L313
 199:../../libdaisy/src/hid/disp/display.h ****         {
 4776              		.loc 5 199 26 is_stmt 0 view .LVU1226
 4777 01fc B8F10A0F 		cmp	r8, #10
ARM GAS  C:\Users\VINCIU~1\AppData\Local\Temp\cchCBePv.s 			page 125


 4778 0200 2AD0     		beq	.L314
 4779              	.L313:
 4780              	.LVL321:
 203:../../libdaisy/src/hid/disp/display.h ****             {
 4781              		.loc 5 203 23 view .LVU1227
 4782 0202 CAF10009 		rsb	r9, r10, #0
 4783              	.LBE1198:
 4784              	.LBE1255:
 4785              		.loc 2 346 20 view .LVU1228
 4786 0206 059A     		ldr	r2, [sp, #20]
 4787              	.LBB1256:
 4788              	.LBB1199:
 203:../../libdaisy/src/hid/disp/display.h ****             {
 4789              		.loc 5 203 23 view .LVU1229
 4790 0208 4FF00A0C 		mov	ip, #10
 4791              	.L317:
 4792              	.LVL322:
 4793              	.LBB1188:
 4794              	.LBI1188:
  41:../../libdaisy/src/hid/disp/oled_display.h ****     {
 4795              		.loc 1 41 10 is_stmt 1 view .LVU1230
 4796              	.LBB1189:
 4797              	.LBI1189:
 239:../../libdaisy/src/dev/oled_ssd130x.h ****     {
 4798              		.loc 6 239 10 view .LVU1231
 4799              	.LBB1190:
 244:../../libdaisy/src/dev/oled_ssd130x.h ****         else
 4800              		.loc 6 244 48 is_stmt 0 view .LVU1232
 4801 020c 4FF0010B 		mov	fp, #1
 244:../../libdaisy/src/dev/oled_ssd130x.h ****         else
 4802              		.loc 6 244 28 view .LVU1233
 4803 0210 D308     		lsrs	r3, r2, #3
 244:../../libdaisy/src/dev/oled_ssd130x.h ****         else
 4804              		.loc 6 244 54 view .LVU1234
 4805 0212 02F00700 		and	r0, r2, #7
 241:../../libdaisy/src/dev/oled_ssd130x.h ****             return;
 4806              		.loc 6 241 9 view .LVU1235
 4807 0216 BCF17F0F 		cmp	ip, #127
 244:../../libdaisy/src/dev/oled_ssd130x.h ****         else
 4808              		.loc 6 244 42 view .LVU1236
 4809 021a 0CEBC313 		add	r3, ip, r3, lsl #7
 4810              	.LBE1190:
 4811              	.LBE1189:
 4812              	.LBE1188:
 202:../../libdaisy/src/hid/disp/display.h ****             if(error2 > -deltaY)
 4813              		.loc 5 202 20 view .LVU1237
 4814 021e 01FA0BFE 		lsl	lr, r1, fp
 4815              	.LVL323:
 4816              	.LBB1193:
 4817              	.LBB1192:
 4818              	.LBB1191:
 244:../../libdaisy/src/dev/oled_ssd130x.h ****         else
 4819              		.loc 6 244 48 view .LVU1238
 4820 0222 0BFA00F0 		lsl	r0, fp, r0
 241:../../libdaisy/src/dev/oled_ssd130x.h ****             return;
 4821              		.loc 6 241 9 view .LVU1239
 4822 0226 07D8     		bhi	.L318
ARM GAS  C:\Users\VINCIU~1\AppData\Local\Temp\cchCBePv.s 			page 126


 4823 0228 3F2A     		cmp	r2, #63
 244:../../libdaisy/src/dev/oled_ssd130x.h ****         else
 4824              		.loc 6 244 42 view .LVU1240
 4825 022a 2344     		add	r3, r3, r4
 241:../../libdaisy/src/dev/oled_ssd130x.h ****             return;
 4826              		.loc 6 241 9 view .LVU1241
 4827 022c 04D8     		bhi	.L318
 244:../../libdaisy/src/dev/oled_ssd130x.h ****         else
 4828              		.loc 6 244 42 view .LVU1242
 4829 022e 93F814B0 		ldrb	fp, [r3, #20]	@ zero_extendqisi2
 4830 0232 40EA0B00 		orr	r0, r0, fp
 4831 0236 1875     		strb	r0, [r3, #20]
 4832              	.L318:
 244:../../libdaisy/src/dev/oled_ssd130x.h ****         else
 4833              		.loc 6 244 42 view .LVU1243
 4834              	.LBE1191:
 4835              	.LBE1192:
 4836              	.LBE1193:
 203:../../libdaisy/src/hid/disp/display.h ****             {
 4837              		.loc 5 203 13 view .LVU1244
 4838 0238 B9EB410F 		cmp	r9, r1, lsl #1
 4839 023c 03DA     		bge	.L319
 206:../../libdaisy/src/hid/disp/display.h ****             }
 4840              		.loc 5 206 20 view .LVU1245
 4841 023e 069B     		ldr	r3, [sp, #24]
 205:../../libdaisy/src/hid/disp/display.h ****                 x1 += signX;
 4842              		.loc 5 205 23 view .LVU1246
 4843 0240 A1EB0A01 		sub	r1, r1, r10
 4844              	.LVL324:
 206:../../libdaisy/src/hid/disp/display.h ****             }
 4845              		.loc 5 206 20 view .LVU1247
 4846 0244 9C44     		add	ip, ip, r3
 4847              	.LVL325:
 4848              	.L319:
 209:../../libdaisy/src/hid/disp/display.h ****             {
 4849              		.loc 5 209 13 view .LVU1248
 4850 0246 7745     		cmp	r7, lr
 4851 0248 02DD     		ble	.L320
 212:../../libdaisy/src/hid/disp/display.h ****             }
 4852              		.loc 5 212 20 view .LVU1249
 4853 024a 079B     		ldr	r3, [sp, #28]
 211:../../libdaisy/src/hid/disp/display.h ****                 y1 += signY;
 4854              		.loc 5 211 23 view .LVU1250
 4855 024c 3944     		add	r1, r1, r7
 4856              	.LVL326:
 212:../../libdaisy/src/hid/disp/display.h ****             }
 4857              		.loc 5 212 20 view .LVU1251
 4858 024e 1A44     		add	r2, r2, r3
 4859              	.LVL327:
 4860              	.L320:
 199:../../libdaisy/src/hid/disp/display.h ****         {
 4861              		.loc 5 199 26 is_stmt 1 view .LVU1252
 4862 0250 E045     		cmp	r8, ip
 4863 0252 DBD1     		bne	.L317
 199:../../libdaisy/src/hid/disp/display.h ****         {
 4864              		.loc 5 199 26 is_stmt 0 view .LVU1253
 4865 0254 202A     		cmp	r2, #32
ARM GAS  C:\Users\VINCIU~1\AppData\Local\Temp\cchCBePv.s 			page 127


 4866 0256 D9D1     		bne	.L317
 4867              	.LVL328:
 4868              	.L314:
 199:../../libdaisy/src/hid/disp/display.h ****         {
 4869              		.loc 5 199 26 view .LVU1254
 4870              	.LBE1199:
 4871              	.LBE1256:
 347:Menus.cpp     ****                     circleGlidePosition,
 348:Menus.cpp     ****                     circleGlideTimePosition,
 349:Menus.cpp     ****                     screen.Height() / 2,
 350:Menus.cpp     ****                     true);
 351:Menus.cpp     ****     screen.DrawCircle(margin, circleGlidePosition, 3, true);
 4872              		.loc 2 351 5 is_stmt 1 view .LVU1255
 4873              	.LBB1257:
 4874              	.LBI1257:
 100:../../libdaisy/src/hid/disp/display.h ****     {
 4875              		.loc 5 100 5 view .LVU1256
 4876              	.LBB1258:
 102:../../libdaisy/src/hid/disp/display.h ****     };
 4877              		.loc 5 102 9 view .LVU1257
 102:../../libdaisy/src/hid/disp/display.h ****     };
 4878              		.loc 5 102 41 is_stmt 0 view .LVU1258
 4879 0258 2368     		ldr	r3, [r4]
 102:../../libdaisy/src/hid/disp/display.h ****     };
 4880              		.loc 5 102 16 view .LVU1259
 4881 025a 0027     		movs	r7, #0
 4882 025c 4FF4B478 		mov	r8, #360
 4883 0260 4FF00109 		mov	r9, #1
 4884 0264 059A     		ldr	r2, [sp, #20]
 4885 0266 0A21     		movs	r1, #10
 4886 0268 2046     		mov	r0, r4
 4887 026a 8DE88003 		stm	sp, {r7, r8, r9}
 4888 026e D3F820A0 		ldr	r10, [r3, #32]
 4889 0272 0323     		movs	r3, #3
 4890 0274 D047     		blx	r10
 4891              	.LVL329:
 102:../../libdaisy/src/hid/disp/display.h ****     };
 4892              		.loc 5 102 16 view .LVU1260
 4893              	.LBE1258:
 4894              	.LBE1257:
 352:Menus.cpp     ****     screen.DrawCircle(circleGlideTimePosition, screen.Height() / 2, 3, true);
 4895              		.loc 2 352 5 is_stmt 1 view .LVU1261
 4896              	.LBB1259:
 4897              	.LBI1259:
 100:../../libdaisy/src/hid/disp/display.h ****     {
 4898              		.loc 5 100 5 view .LVU1262
 4899              	.LBB1260:
 102:../../libdaisy/src/hid/disp/display.h ****     };
 4900              		.loc 5 102 9 view .LVU1263
 102:../../libdaisy/src/hid/disp/display.h ****     };
 4901              		.loc 5 102 16 is_stmt 0 view .LVU1264
 4902 0276 CDF80890 		str	r9, [sp, #8]
 4903              	.LVL330:
 102:../../libdaisy/src/hid/disp/display.h ****     };
 4904              		.loc 5 102 16 view .LVU1265
 4905              	.LBE1260:
 4906              	.LBE1259:
ARM GAS  C:\Users\VINCIU~1\AppData\Local\Temp\cchCBePv.s 			page 128


 4907              		.loc 2 352 22 view .LVU1266
 4908 027a D6ED237A 		vldr.32	s15, [r6, #140]
 4909              	.LBB1262:
 4910              	.LBB1261:
 102:../../libdaisy/src/hid/disp/display.h ****     };
 4911              		.loc 5 102 16 view .LVU1267
 4912 027e 2022     		movs	r2, #32
 4913 0280 2046     		mov	r0, r4
 4914 0282 FCEEE77A 		vcvt.u32.f32	s15, s15
 4915 0286 CDE90078 		strd	r7, r8, [sp]
 102:../../libdaisy/src/hid/disp/display.h ****     };
 4916              		.loc 5 102 41 view .LVU1268
 4917 028a 2368     		ldr	r3, [r4]
 102:../../libdaisy/src/hid/disp/display.h ****     };
 4918              		.loc 5 102 16 view .LVU1269
 4919 028c 17EE901A 		vmov	r1, s15	@ int
 4920 0290 D3F82080 		ldr	r8, [r3, #32]
 4921 0294 0323     		movs	r3, #3
 4922 0296 C047     		blx	r8
 4923              	.LVL331:
 102:../../libdaisy/src/hid/disp/display.h ****     };
 4924              		.loc 5 102 16 view .LVU1270
 4925              	.LBE1261:
 4926              	.LBE1262:
 353:Menus.cpp     ****     for(int i = 0; i < screen.Width(); i++)
 4927              		.loc 2 353 5 is_stmt 1 view .LVU1271
 4928              	.LBB1263:
 4929              		.loc 2 353 22 view .LVU1272
 354:Menus.cpp     ****     {
 355:Menus.cpp     ****         screen.DrawPixel(i * 3, (screen.Height() / 2), on);
 4930              		.loc 2 355 25 is_stmt 0 view .LVU1273
 4931 0298 96F84C11 		ldrb	r1, [r6, #332]	@ zero_extendqisi2
 4932 029c 3B46     		mov	r3, r7
 4933              	.LVL332:
 4934              	.L325:
 4935              		.loc 2 355 9 is_stmt 1 discriminator 2 view .LVU1274
 4936              	.LBB1264:
 4937              	.LBI1264:
  41:../../libdaisy/src/hid/disp/oled_display.h ****     {
 4938              		.loc 1 41 10 discriminator 2 view .LVU1275
 4939              	.LBB1265:
 4940              	.LBI1265:
 239:../../libdaisy/src/dev/oled_ssd130x.h ****     {
 4941              		.loc 6 239 10 discriminator 2 view .LVU1276
 4942              	.LBB1266:
 241:../../libdaisy/src/dev/oled_ssd130x.h ****             return;
 4943              		.loc 6 241 9 is_stmt 0 discriminator 2 view .LVU1277
 4944 029e 7F2B     		cmp	r3, #127
 4945 02a0 0BD8     		bhi	.L321
 4946              	.L352:
 4947              	.LVL333:
 4948              	.LBB1267:
 4949              	.LBI1267:
 239:../../libdaisy/src/dev/oled_ssd130x.h ****     {
 4950              		.loc 6 239 10 is_stmt 1 view .LVU1278
 239:../../libdaisy/src/dev/oled_ssd130x.h ****     {
 4951              		.loc 6 239 10 is_stmt 0 view .LVU1279
ARM GAS  C:\Users\VINCIU~1\AppData\Local\Temp\cchCBePv.s 			page 129


 4952              	.LBE1267:
 244:../../libdaisy/src/dev/oled_ssd130x.h ****         else
 4953              		.loc 6 244 42 view .LVU1280
 4954 02a2 94F81422 		ldrb	r2, [r4, #532]	@ zero_extendqisi2
 243:../../libdaisy/src/dev/oled_ssd130x.h ****             buffer_[x + (y / 8) * width] |= (1 << (y % 8));
 4955              		.loc 6 243 9 view .LVU1281
 4956 02a6 0029     		cmp	r1, #0
 4957 02a8 50D0     		beq	.L322
 244:../../libdaisy/src/dev/oled_ssd130x.h ****         else
 4958              		.loc 6 244 42 view .LVU1282
 4959 02aa 42F00102 		orr	r2, r2, #1
 4960 02ae 84F81422 		strb	r2, [r4, #532]
 4961              	.L323:
 4962              	.LVL334:
 244:../../libdaisy/src/dev/oled_ssd130x.h ****         else
 4963              		.loc 6 244 42 view .LVU1283
 4964              	.LBE1266:
 4965              	.LBE1265:
 4966              	.LBE1264:
 353:Menus.cpp     ****     {
 4967              		.loc 2 353 5 is_stmt 1 view .LVU1284
 353:Menus.cpp     ****     {
 4968              		.loc 2 353 22 view .LVU1285
 4969 02b2 0333     		adds	r3, r3, #3
 4970 02b4 0334     		adds	r4, r4, #3
 4971              		.loc 2 355 9 view .LVU1286
 4972              	.LVL335:
 4973              	.LBB1274:
  41:../../libdaisy/src/hid/disp/oled_display.h ****     {
 4974              		.loc 1 41 10 view .LVU1287
 4975              	.LBB1272:
 239:../../libdaisy/src/dev/oled_ssd130x.h ****     {
 4976              		.loc 6 239 10 view .LVU1288
 4977              	.LBB1270:
 241:../../libdaisy/src/dev/oled_ssd130x.h ****             return;
 4978              		.loc 6 241 9 is_stmt 0 view .LVU1289
 4979 02b6 7F2B     		cmp	r3, #127
 4980 02b8 F3D9     		bls	.L352
 4981              	.L321:
 4982              	.LVL336:
 241:../../libdaisy/src/dev/oled_ssd130x.h ****             return;
 4983              		.loc 6 241 9 view .LVU1290
 4984              	.LBE1270:
 4985              	.LBE1272:
 4986              	.LBE1274:
 353:Menus.cpp     ****     {
 4987              		.loc 2 353 5 is_stmt 1 view .LVU1291
 353:Menus.cpp     ****     {
 4988              		.loc 2 353 22 view .LVU1292
 4989 02ba 0333     		adds	r3, r3, #3
 4990 02bc 0334     		adds	r4, r4, #3
 4991 02be B3F5C07F 		cmp	r3, #384
 4992 02c2 ECD1     		bne	.L325
 4993              	.LBE1263:
 356:Menus.cpp     ****     }
 357:Menus.cpp     ****     this->analogLastRead = this->analogRead;
 4994              		.loc 2 357 5 view .LVU1293
ARM GAS  C:\Users\VINCIU~1\AppData\Local\Temp\cchCBePv.s 			page 130


 4995              		.loc 2 357 26 is_stmt 0 view .LVU1294
 4996 02c4 3368     		ldr	r3, [r6]	@ float
 4997              	.LBB1276:
 4998              	.LBB1277:
 4999              	.LBB1278:
 5000              	.LBB1279:
 5001              	.LBB1280:
 111:../../libdaisy/src/dev/oled_ssd130x.h ****         spi_.BlockingTransmit(&cmd, 1);
 5002              		.loc 6 111 24 view .LVU1295
 5003 02c6 05F10808 		add	r8, r5, #8
 5004 02ca 05F10C07 		add	r7, r5, #12
 5005 02ce 05F20C49 		addw	r9, r5, #1036
 5006 02d2 B024     		movs	r4, #176
 5007              	.LBE1280:
 5008              	.LBE1279:
 5009              	.LBE1278:
 5010              	.LBE1277:
 5011              	.LBE1276:
 5012              		.loc 2 357 26 view .LVU1296
 5013 02d4 7360     		str	r3, [r6, #4]	@ float
 358:Menus.cpp     **** 
 359:Menus.cpp     ****     screen.Update();
 5014              		.loc 2 359 5 is_stmt 1 view .LVU1297
 5015              	.LVL337:
 5016              	.LBB1300:
 5017              	.LBI1276:
  44:../../libdaisy/src/hid/disp/oled_display.h ****     }
  45:../../libdaisy/src/hid/disp/oled_display.h **** 
  46:../../libdaisy/src/hid/disp/oled_display.h ****     /** 
  47:../../libdaisy/src/hid/disp/oled_display.h ****     Writes the current display buffer to the OLED device using SPI or I2C depending on 
  48:../../libdaisy/src/hid/disp/oled_display.h ****     how the object was initialized.
  49:../../libdaisy/src/hid/disp/oled_display.h ****     */
  50:../../libdaisy/src/hid/disp/oled_display.h ****     void Update() override { driver_.Update(); }
 5018              		.loc 1 50 10 view .LVU1298
 5019              	.LBB1299:
 5020              	.LBI1277:
 260:../../libdaisy/src/dev/oled_ssd130x.h ****     {
 5021              		.loc 6 260 10 view .LVU1299
 5022              	.LBB1298:
 5023              		.loc 6 270 22 view .LVU1300
 5024              	.L326:
 5025              		.loc 6 270 22 is_stmt 0 view .LVU1301
 5026 02d6 0026     		movs	r6, #0
 5027              	.LBB1285:
 5028              	.LBB1281:
 111:../../libdaisy/src/dev/oled_ssd130x.h ****         spi_.BlockingTransmit(&cmd, 1);
 5029              		.loc 6 111 23 view .LVU1302
 5030 02d8 4046     		mov	r0, r8
 5031 02da 8DF82740 		strb	r4, [sp, #39]
 5032              	.LVL338:
 111:../../libdaisy/src/dev/oled_ssd130x.h ****         spi_.BlockingTransmit(&cmd, 1);
 5033              		.loc 6 111 23 view .LVU1303
 5034              	.LBE1281:
 5035              	.LBI1279:
 109:../../libdaisy/src/dev/oled_ssd130x.h ****     {
 5036              		.loc 6 109 10 is_stmt 1 view .LVU1304
 5037              	.LBB1282:
ARM GAS  C:\Users\VINCIU~1\AppData\Local\Temp\cchCBePv.s 			page 131


 111:../../libdaisy/src/dev/oled_ssd130x.h ****         spi_.BlockingTransmit(&cmd, 1);
 5038              		.loc 6 111 9 view .LVU1305
 5039              	.LBE1282:
 5040              	.LBE1285:
 5041              		.loc 6 270 22 is_stmt 0 view .LVU1306
 5042 02de 0134     		adds	r4, r4, #1
 5043              	.LVL339:
 5044              	.LBB1286:
 5045              	.LBB1283:
 111:../../libdaisy/src/dev/oled_ssd130x.h ****         spi_.BlockingTransmit(&cmd, 1);
 5046              		.loc 6 111 23 view .LVU1307
 5047 02e0 3146     		mov	r1, r6
 5048 02e2 FFF7FEFF 		bl	dsy_gpio_write
 5049              	.LVL340:
 112:../../libdaisy/src/dev/oled_ssd130x.h ****     };
 5050              		.loc 6 112 9 is_stmt 1 view .LVU1308
 112:../../libdaisy/src/dev/oled_ssd130x.h ****     };
 5051              		.loc 6 112 30 is_stmt 0 view .LVU1309
 5052 02e6 6423     		movs	r3, #100
 5053 02e8 0122     		movs	r2, #1
 5054 02ea 0DF12701 		add	r1, sp, #39
 5055 02ee 2846     		mov	r0, r5
 5056              	.LBE1283:
 5057              	.LBE1286:
 5058              		.loc 6 270 22 view .LVU1310
 5059 02f0 E4B2     		uxtb	r4, r4
 5060              	.LBB1287:
 5061              	.LBB1284:
 112:../../libdaisy/src/dev/oled_ssd130x.h ****     };
 5062              		.loc 6 112 30 view .LVU1311
 5063 02f2 FFF7FEFF 		bl	_ZN5daisy9SpiHandle16BlockingTransmitEPhjm
 5064              	.LVL341:
 112:../../libdaisy/src/dev/oled_ssd130x.h ****     };
 5065              		.loc 6 112 30 view .LVU1312
 5066              	.LBE1284:
 5067              	.LBE1287:
 5068              	.LBB1288:
 5069              	.LBB1289:
 111:../../libdaisy/src/dev/oled_ssd130x.h ****         spi_.BlockingTransmit(&cmd, 1);
 5070              		.loc 6 111 23 view .LVU1313
 5071 02f6 3146     		mov	r1, r6
 5072 02f8 4046     		mov	r0, r8
 5073 02fa 8DF82760 		strb	r6, [sp, #39]
 5074              	.LVL342:
 111:../../libdaisy/src/dev/oled_ssd130x.h ****         spi_.BlockingTransmit(&cmd, 1);
 5075              		.loc 6 111 23 view .LVU1314
 5076              	.LBE1289:
 5077              	.LBI1288:
 109:../../libdaisy/src/dev/oled_ssd130x.h ****     {
 5078              		.loc 6 109 10 is_stmt 1 view .LVU1315
 5079              	.LBB1290:
 111:../../libdaisy/src/dev/oled_ssd130x.h ****         spi_.BlockingTransmit(&cmd, 1);
 5080              		.loc 6 111 9 view .LVU1316
 111:../../libdaisy/src/dev/oled_ssd130x.h ****         spi_.BlockingTransmit(&cmd, 1);
 5081              		.loc 6 111 23 is_stmt 0 view .LVU1317
 5082 02fe FFF7FEFF 		bl	dsy_gpio_write
 5083              	.LVL343:
ARM GAS  C:\Users\VINCIU~1\AppData\Local\Temp\cchCBePv.s 			page 132


 112:../../libdaisy/src/dev/oled_ssd130x.h ****     };
 5084              		.loc 6 112 9 is_stmt 1 view .LVU1318
 112:../../libdaisy/src/dev/oled_ssd130x.h ****     };
 5085              		.loc 6 112 30 is_stmt 0 view .LVU1319
 5086 0302 0122     		movs	r2, #1
 5087 0304 6423     		movs	r3, #100
 5088 0306 0DF12701 		add	r1, sp, #39
 5089 030a 2846     		mov	r0, r5
 5090 030c FFF7FEFF 		bl	_ZN5daisy9SpiHandle16BlockingTransmitEPhjm
 5091              	.LVL344:
 112:../../libdaisy/src/dev/oled_ssd130x.h ****     };
 5092              		.loc 6 112 30 view .LVU1320
 5093 0310 1023     		movs	r3, #16
 5094              	.LBE1290:
 5095              	.LBE1288:
 5096              	.LBB1291:
 5097              	.LBB1292:
 111:../../libdaisy/src/dev/oled_ssd130x.h ****         spi_.BlockingTransmit(&cmd, 1);
 5098              		.loc 6 111 23 view .LVU1321
 5099 0312 3146     		mov	r1, r6
 5100 0314 4046     		mov	r0, r8
 5101 0316 8DF82730 		strb	r3, [sp, #39]
 5102              	.LVL345:
 111:../../libdaisy/src/dev/oled_ssd130x.h ****         spi_.BlockingTransmit(&cmd, 1);
 5103              		.loc 6 111 23 view .LVU1322
 5104              	.LBE1292:
 5105              	.LBI1291:
 109:../../libdaisy/src/dev/oled_ssd130x.h ****     {
 5106              		.loc 6 109 10 is_stmt 1 view .LVU1323
 5107              	.LBB1293:
 111:../../libdaisy/src/dev/oled_ssd130x.h ****         spi_.BlockingTransmit(&cmd, 1);
 5108              		.loc 6 111 9 view .LVU1324
 111:../../libdaisy/src/dev/oled_ssd130x.h ****         spi_.BlockingTransmit(&cmd, 1);
 5109              		.loc 6 111 23 is_stmt 0 view .LVU1325
 5110 031a FFF7FEFF 		bl	dsy_gpio_write
 5111              	.LVL346:
 112:../../libdaisy/src/dev/oled_ssd130x.h ****     };
 5112              		.loc 6 112 9 is_stmt 1 view .LVU1326
 112:../../libdaisy/src/dev/oled_ssd130x.h ****     };
 5113              		.loc 6 112 30 is_stmt 0 view .LVU1327
 5114 031e 6423     		movs	r3, #100
 5115 0320 0122     		movs	r2, #1
 5116 0322 0DF12701 		add	r1, sp, #39
 5117 0326 2846     		mov	r0, r5
 5118 0328 FFF7FEFF 		bl	_ZN5daisy9SpiHandle16BlockingTransmitEPhjm
 5119              	.LVL347:
 112:../../libdaisy/src/dev/oled_ssd130x.h ****     };
 5120              		.loc 6 112 30 view .LVU1328
 5121              	.LBE1293:
 5122              	.LBE1291:
 5123              	.LBB1294:
 5124              	.LBI1294:
 115:../../libdaisy/src/dev/oled_ssd130x.h ****     {
 5125              		.loc 6 115 10 is_stmt 1 view .LVU1329
 5126              	.LBB1295:
 117:../../libdaisy/src/dev/oled_ssd130x.h ****         spi_.BlockingTransmit(buff, size);
 5127              		.loc 6 117 9 view .LVU1330
ARM GAS  C:\Users\VINCIU~1\AppData\Local\Temp\cchCBePv.s 			page 133


 117:../../libdaisy/src/dev/oled_ssd130x.h ****         spi_.BlockingTransmit(buff, size);
 5128              		.loc 6 117 23 is_stmt 0 view .LVU1331
 5129 032c 0121     		movs	r1, #1
 5130 032e 4046     		mov	r0, r8
 5131 0330 FFF7FEFF 		bl	dsy_gpio_write
 5132              	.LVL348:
 118:../../libdaisy/src/dev/oled_ssd130x.h ****     };
 5133              		.loc 6 118 9 is_stmt 1 view .LVU1332
 118:../../libdaisy/src/dev/oled_ssd130x.h ****     };
 5134              		.loc 6 118 30 is_stmt 0 view .LVU1333
 5135 0334 8022     		movs	r2, #128
 5136 0336 3946     		mov	r1, r7
 5137 0338 6423     		movs	r3, #100
 5138              	.LBE1295:
 5139              	.LBE1294:
 5140              		.loc 6 270 22 view .LVU1334
 5141 033a 1744     		add	r7, r7, r2
 5142              	.LVL349:
 5143              	.LBB1297:
 5144              	.LBB1296:
 118:../../libdaisy/src/dev/oled_ssd130x.h ****     };
 5145              		.loc 6 118 30 view .LVU1335
 5146 033c 2846     		mov	r0, r5
 5147 033e FFF7FEFF 		bl	_ZN5daisy9SpiHandle16BlockingTransmitEPhjm
 5148              	.LVL350:
 118:../../libdaisy/src/dev/oled_ssd130x.h ****     };
 5149              		.loc 6 118 30 view .LVU1336
 5150              	.LBE1296:
 5151              	.LBE1297:
 5152              		.loc 6 270 9 is_stmt 1 view .LVU1337
 5153              		.loc 6 270 22 view .LVU1338
 5154 0342 4F45     		cmp	r7, r9
 5155 0344 C7D1     		bne	.L326
 5156              	.LBE1298:
 5157              	.LBE1299:
 5158              	.LBE1300:
 360:Menus.cpp     **** }...
 5159              		.loc 2 360 1 is_stmt 0 view .LVU1339
 5160 0346 0BB0     		add	sp, sp, #44
 5161              		.cfi_remember_state
 5162              		.cfi_def_cfa_offset 36
 5163              		@ sp needed
 5164 0348 BDE8F08F 		pop	{r4, r5, r6, r7, r8, r9, r10, fp, pc}
 5165              	.LVL351:
 5166              	.L322:
 5167              		.cfi_restore_state
 5168              	.LBB1301:
 5169              	.LBB1275:
 5170              	.LBB1273:
 5171              	.LBB1271:
 5172              	.LBB1269:
 5173              	.LBB1268:
 246:../../libdaisy/src/dev/oled_ssd130x.h ****     }
 5174              		.loc 6 246 42 view .LVU1340
 5175 034c 22F00102 		bic	r2, r2, #1
 5176 0350 84F81422 		strb	r2, [r4, #532]
 5177 0354 ADE7     		b	.L323
ARM GAS  C:\Users\VINCIU~1\AppData\Local\Temp\cchCBePv.s 			page 134


 5178              	.LVL352:
 5179              	.L350:
 246:../../libdaisy/src/dev/oled_ssd130x.h ****     }
 5180              		.loc 6 246 42 view .LVU1341
 5181              	.LBE1268:
 5182              	.LBE1269:
 5183              	.LBE1271:
 5184              	.LBE1273:
 5185              	.LBE1275:
 5186              	.LBE1301:
 301:Menus.cpp     ****         this->menuStateGlide = this->menuStateGlide - 1;
 5187              		.loc 2 301 9 is_stmt 1 view .LVU1342
 302:Menus.cpp     ****         if(this->menuStateGlide < 0)
 5188              		.loc 2 302 9 view .LVU1343
 5189 0356 013B     		subs	r3, r3, #1
 5190 0358 4DD4     		bmi	.L294
 301:Menus.cpp     ****         this->menuStateGlide = this->menuStateGlide - 1;
 5191              		.loc 2 301 30 is_stmt 0 view .LVU1344
 5192 035a 3367     		str	r3, [r6, #112]
 5193 035c 84E6     		b	.L295
 5194              	.L354:
 5195 035e 00BF     		.align	3
 5196              	.L353:
 5197 0360 FCA9F1D2 		.word	-755914244
 5198 0364 4D62503F 		.word	1062232653
 5199 0368 00008042 		.word	1115684864
 5200 036c 06000400 		.word	262150
 5201 0370 00000000 		.word	Font_6x8
 5202 0374 49000400 		.word	262217
 5203 0378 00002042 		.word	1109393408
 5204 037c 00009442 		.word	1116995584
 5205 0380 00004843 		.word	1128792064
 5206              	.LVL353:
 5207              	.L312:
 5208              	.LBB1302:
 5209              	.LBB1200:
 5210              	.LBB1194:
 5211              	.LBB1181:
 5212              	.LBB1174:
 239:../../libdaisy/src/dev/oled_ssd130x.h ****     {
 5213              		.loc 6 239 10 is_stmt 1 view .LVU1345
 5214              	.LBB1169:
 241:../../libdaisy/src/dev/oled_ssd130x.h ****             return;
 5215              		.loc 6 241 9 is_stmt 0 view .LVU1346
 5216 0384 B8F17F0F 		cmp	r8, #127
 5217              	.LBE1169:
 5218              	.LBE1174:
 5219              	.LBE1181:
 5220              	.LBE1194:
 190:../../libdaisy/src/hid/disp/display.h ****         int_fast16_t error  = deltaX - deltaY;
 5221              		.loc 5 190 42 view .LVU1347
 5222 0388 CDE90699 		strd	r9, r9, [sp, #24]
 5223              	.LBB1195:
 5224              	.LBB1182:
 5225              	.LBB1175:
 5226              	.LBB1170:
 241:../../libdaisy/src/dev/oled_ssd130x.h ****             return;
ARM GAS  C:\Users\VINCIU~1\AppData\Local\Temp\cchCBePv.s 			page 135


 5227              		.loc 6 241 9 view .LVU1348
 5228 038c 3FF639AF 		bhi	.L313
 5229 0390 2AE7     		b	.L327
 5230              	.LVL354:
 5231              	.L329:
 241:../../libdaisy/src/dev/oled_ssd130x.h ****             return;
 5232              		.loc 6 241 9 view .LVU1349
 5233              	.LBE1170:
 5234              	.LBE1175:
 5235              	.LBE1182:
 5236              	.LBE1195:
 189:../../libdaisy/src/hid/disp/display.h ****         int_fast16_t signY  = ((y1 < y2) ? 1 : -1);
 5237              		.loc 5 189 42 view .LVU1350
 5238 0392 4FF0FF33 		mov	r3, #-1
 191:../../libdaisy/src/hid/disp/display.h ****         int_fast16_t error2;
 5239              		.loc 5 191 22 view .LVU1351
 5240 0396 A7EB0A01 		sub	r1, r7, r10
 5241              	.LVL355:
 5242              	.LBB1196:
  41:../../libdaisy/src/hid/disp/oled_display.h ****     {
 5243              		.loc 1 41 10 is_stmt 1 view .LVU1352
 5244              	.LBB1183:
  43:../../libdaisy/src/hid/disp/oled_display.h ****     }
 5245              		.loc 1 43 26 is_stmt 0 view .LVU1353
 5246 039a 04F10805 		add	r5, r4, #8
 5247              	.LVL356:
 5248              	.LBB1176:
 239:../../libdaisy/src/dev/oled_ssd130x.h ****     {
 5249              		.loc 6 239 10 is_stmt 1 view .LVU1354
 5250              	.LBE1176:
 5251              	.LBE1183:
 5252              	.LBE1196:
 190:../../libdaisy/src/hid/disp/display.h ****         int_fast16_t error  = deltaX - deltaY;
 5253              		.loc 5 190 42 is_stmt 0 view .LVU1355
 5254 039e CDF81C90 		str	r9, [sp, #28]
 189:../../libdaisy/src/hid/disp/display.h ****         int_fast16_t signY  = ((y1 < y2) ? 1 : -1);
 5255              		.loc 5 189 42 view .LVU1356
 5256 03a2 0693     		str	r3, [sp, #24]
 5257 03a4 20E7     		b	.L327
 5258              	.LVL357:
 5259              	.L301:
 189:../../libdaisy/src/hid/disp/display.h ****         int_fast16_t signY  = ((y1 < y2) ? 1 : -1);
 5260              		.loc 5 189 42 view .LVU1357
 5261              	.LBE1200:
 5262              	.LBE1302:
 320:Menus.cpp     ****             circleGlidePosition = ((screen.Height()) + margin) - glideInit;
 5263              		.loc 2 320 13 is_stmt 1 view .LVU1358
 323:Menus.cpp     ****                     (int)(((glideInit - offset) / 40) * 200) - 100);
 5264              		.loc 2 323 39 is_stmt 0 view .LVU1359
 5265 03a6 B3EE007A 		vmov.f32	s14, #1.6e+1
 323:Menus.cpp     ****                     (int)(((glideInit - offset) / 40) * 200) - 100);
 5266              		.loc 2 323 49 view .LVU1360
 5267 03aa 1FED0D6A 		vldr.32	s12, .L353+24
 320:Menus.cpp     ****             circleGlidePosition = ((screen.Height()) + margin) - glideInit;
 5268              		.loc 2 320 64 view .LVU1361
 5269 03ae 5FED0D7A 		vldr.32	s15, .L353+28
 321:Menus.cpp     ****             sprintf(this->buffPitchGlide,
ARM GAS  C:\Users\VINCIU~1\AppData\Local\Temp\cchCBePv.s 			page 136


 5270              		.loc 2 321 27 view .LVU1362
 5271 03b2 06F58275 		add	r5, r6, #260
 323:Menus.cpp     ****                     (int)(((glideInit - offset) / 40) * 200) - 100);
 5272              		.loc 2 323 55 view .LVU1363
 5273 03b6 5FED0E6A 		vldr.32	s13, .L353+32
 323:Menus.cpp     ****                     (int)(((glideInit - offset) / 40) * 200) - 100);
 5274              		.loc 2 323 39 view .LVU1364
 5275 03ba 35EE477A 		vsub.f32	s14, s10, s14
 321:Menus.cpp     ****             sprintf(this->buffPitchGlide,
 5276              		.loc 2 321 20 view .LVU1365
 5277 03be 3649     		ldr	r1, .L355+16
 320:Menus.cpp     ****             circleGlidePosition = ((screen.Height()) + margin) - glideInit;
 5278              		.loc 2 320 64 view .LVU1366
 5279 03c0 37EEC55A 		vsub.f32	s10, s15, s10
 5280              	.LVL358:
 321:Menus.cpp     ****             sprintf(this->buffPitchGlide,
 5281              		.loc 2 321 20 view .LVU1367
 5282 03c4 2846     		mov	r0, r5
 323:Menus.cpp     ****                     (int)(((glideInit - offset) / 40) * 200) - 100);
 5283              		.loc 2 323 49 view .LVU1368
 5284 03c6 C7EE067A 		vdiv.f32	s15, s14, s12
 320:Menus.cpp     ****             circleGlidePosition = ((screen.Height()) + margin) - glideInit;
 5285              		.loc 2 320 33 view .LVU1369
 5286 03ca 86ED225A 		vstr.32	s10, [r6, #136]
 321:Menus.cpp     ****             sprintf(this->buffPitchGlide,
 5287              		.loc 2 321 13 is_stmt 1 view .LVU1370
 323:Menus.cpp     ****                     (int)(((glideInit - offset) / 40) * 200) - 100);
 5288              		.loc 2 323 55 is_stmt 0 view .LVU1371
 5289 03ce 67EEA67A 		vmul.f32	s15, s15, s13
 323:Menus.cpp     ****                     (int)(((glideInit - offset) / 40) * 200) - 100);
 5290              		.loc 2 323 21 view .LVU1372
 5291 03d2 FDEEE77A 		vcvt.s32.f32	s15, s15
 5292 03d6 17EE902A 		vmov	r2, s15	@ int
 321:Menus.cpp     ****             sprintf(this->buffPitchGlide,
 5293              		.loc 2 321 20 view .LVU1373
 5294 03da 643A     		subs	r2, r2, #100
 5295 03dc FFF7FEFF 		bl	sprintf
 5296              	.LVL359:
 324:Menus.cpp     ****             this->glideInit = (this->analogRead * 24) - 12;
 5297              		.loc 2 324 13 is_stmt 1 view .LVU1374
 324:Menus.cpp     ****             this->glideInit = (this->analogRead * 24) - 12;
 5298              		.loc 2 324 55 is_stmt 0 view .LVU1375
 5299 03e0 B3EE087A 		vmov.f32	s14, #2.4e+1
 5300 03e4 FAEE087A 		vmov.f32	s15, #-1.2e+1
 5301 03e8 D6ED006A 		vldr.32	s13, [r6]
 5302 03ec E6EE877A 		vfma.f32	s15, s13, s14
 324:Menus.cpp     ****             this->glideInit = (this->analogRead * 24) - 12;
 5303              		.loc 2 324 29 view .LVU1376
 5304 03f0 C6ED247A 		vstr.32	s15, [r6, #144]
 5305 03f4 99E6     		b	.L302
 5306              	.LVL360:
 5307              	.L294:
 304:Menus.cpp     ****             this->menuStateGlide = 1;
 5308              		.loc 2 304 13 is_stmt 1 view .LVU1377
 307:Menus.cpp     ****     if(this->buttonRight.RisingEdge())
 5309              		.loc 2 307 5 is_stmt 0 view .LVU1378
 5310 03f6 96F86130 		ldrb	r3, [r6, #97]	@ zero_extendqisi2
ARM GAS  C:\Users\VINCIU~1\AppData\Local\Temp\cchCBePv.s 			page 137


 304:Menus.cpp     ****             this->menuStateGlide = 1;
 5311              		.loc 2 304 34 view .LVU1379
 5312 03fa 0122     		movs	r2, #1
 307:Menus.cpp     ****     if(this->buttonRight.RisingEdge())
 5313              		.loc 2 307 5 view .LVU1380
 5314 03fc 7F2B     		cmp	r3, #127
 304:Menus.cpp     ****             this->menuStateGlide = 1;
 5315              		.loc 2 304 34 view .LVU1381
 5316 03fe 3267     		str	r2, [r6, #112]
 307:Menus.cpp     ****     if(this->buttonRight.RisingEdge())
 5317              		.loc 2 307 5 is_stmt 1 view .LVU1382
 5318              	.LVL361:
 5319              	.LBB1303:
 5320              		.loc 4 69 17 view .LVU1383
 5321              	.LBB1150:
 5322              		.loc 4 69 38 view .LVU1384
 5323              		.loc 4 69 38 is_stmt 0 view .LVU1385
 5324              	.LBE1150:
 5325              	.LBE1303:
 307:Menus.cpp     ****     if(this->buttonRight.RisingEdge())
 5326              		.loc 2 307 5 view .LVU1386
 5327 0400 3FF487AE 		beq	.L299
 5328              	.L296:
 330:Menus.cpp     ****         if(this->updateValue)
 5329              		.loc 2 330 9 is_stmt 1 view .LVU1387
 5330 0404 9FED206B 		vldr.64	d6, .L355
 5331 0408 B4EEC67B 		vcmpe.f64	d7, d6
 5332 040c F1EE10FA 		vmrs	APSR_nzcv, FPSCR
 5333 0410 0FDC     		bgt	.L309
 335:Menus.cpp     ****             sprintf(this->buffPitchTime,
 5334              		.loc 2 335 27 is_stmt 0 view .LVU1388
 5335 0412 06F58E77 		add	r7, r6, #284
 5336              	.LVL362:
 5337              	.L310:
 339:Menus.cpp     ****         screen.DrawRect(67, 0, screen.Width() - 2, 13, true, false);
 5338              		.loc 2 339 9 is_stmt 1 view .LVU1389
 339:Menus.cpp     ****         screen.DrawRect(67, 0, screen.Width() - 2, 13, true, false);
 5339              		.loc 2 339 24 is_stmt 0 view .LVU1390
 5340 0416 0123     		movs	r3, #1
 5341 0418 0022     		movs	r2, #0
 5342 041a 4321     		movs	r1, #67
 5343 041c 2046     		mov	r0, r4
 321:Menus.cpp     ****             sprintf(this->buffPitchGlide,
 5344              		.loc 2 321 27 view .LVU1391
 5345 041e 06F58275 		add	r5, r6, #260
 339:Menus.cpp     ****         screen.DrawRect(67, 0, screen.Width() - 2, 13, true, false);
 5346              		.loc 2 339 24 view .LVU1392
 5347 0422 CDE90132 		strd	r3, r2, [sp, #4]
 5348 0426 0D23     		movs	r3, #13
 5349 0428 0093     		str	r3, [sp]
 5350 042a 7E23     		movs	r3, #126
 5351 042c FFF7FEFF 		bl	_ZN5daisy25OneBitGraphicsDisplayImplINS_11OledDisplayINS_13SSD130xDriverILj128ELj64ENS_24SSD130
 5352              	.LVL363:
 5353 0430 27E6     		b	.L307
 5354              	.LVL364:
 5355              	.L309:
 332:Menus.cpp     ****             circleGlideTimePosition
ARM GAS  C:\Users\VINCIU~1\AppData\Local\Temp\cchCBePv.s 			page 138


 5356              		.loc 2 332 13 is_stmt 1 view .LVU1393
 337:Menus.cpp     ****                     (int)(((glideInit - offset) / 40) * 100) - 0);
 5357              		.loc 2 337 39 is_stmt 0 view .LVU1394
 5358 0432 F3EE006A 		vmov.f32	s13, #1.6e+1
 337:Menus.cpp     ****                     (int)(((glideInit - offset) / 40) * 100) - 0);
 5359              		.loc 2 337 49 view .LVU1395
 5360 0436 DFED192A 		vldr.32	s5, .L355+20
 333:Menus.cpp     ****                 = ((this->analogRead * screen.Width() * 0.8) + margin);
 5361              		.loc 2 333 38 view .LVU1396
 5362 043a 9FED196A 		vldr.32	s12, .L355+24
 333:Menus.cpp     ****                 = ((this->analogRead * screen.Width() * 0.8) + margin);
 5363              		.loc 2 333 62 view .LVU1397
 5364 043e B2EE047B 		vmov.f64	d7, #1.0e+1
 337:Menus.cpp     ****                     (int)(((glideInit - offset) / 40) * 100) - 0);
 5365              		.loc 2 337 55 view .LVU1398
 5366 0442 9FED184A 		vldr.32	s8, .L355+28
 335:Menus.cpp     ****             sprintf(this->buffPitchTime,
 5367              		.loc 2 335 27 view .LVU1399
 5368 0446 06F58E77 		add	r7, r6, #284
 337:Menus.cpp     ****                     (int)(((glideInit - offset) / 40) * 100) - 0);
 5369              		.loc 2 337 39 view .LVU1400
 5370 044a 35EE665A 		vsub.f32	s10, s10, s13
 5371              	.LVL365:
 335:Menus.cpp     ****             sprintf(this->buffPitchTime,
 5372              		.loc 2 335 20 view .LVU1401
 5373 044e 1649     		ldr	r1, .L355+32
 333:Menus.cpp     ****                 = ((this->analogRead * screen.Width() * 0.8) + margin);
 5374              		.loc 2 333 38 view .LVU1402
 5375 0450 24EE866A 		vmul.f32	s12, s9, s12
 335:Menus.cpp     ****             sprintf(this->buffPitchTime,
 5376              		.loc 2 335 20 view .LVU1403
 5377 0454 3846     		mov	r0, r7
 334:Menus.cpp     ****             this->glideTime = this->analogRead * 2;
 5378              		.loc 2 334 48 view .LVU1404
 5379 0456 74EEA44A 		vadd.f32	s9, s9, s9
 5380              	.LVL366:
 337:Menus.cpp     ****                     (int)(((glideInit - offset) / 40) * 100) - 0);
 5381              		.loc 2 337 49 view .LVU1405
 5382 045a C5EE225A 		vdiv.f32	s11, s10, s5
 334:Menus.cpp     ****             this->glideTime = this->analogRead * 2;
 5383              		.loc 2 334 29 view .LVU1406
 5384 045e C6ED254A 		vstr.32	s9, [r6, #148]
 333:Menus.cpp     ****                 = ((this->analogRead * screen.Width() * 0.8) + margin);
 5385              		.loc 2 333 38 view .LVU1407
 5386 0462 B7EEC66A 		vcvt.f64.f32	d6, s12
 333:Menus.cpp     ****                 = ((this->analogRead * screen.Width() * 0.8) + margin);
 5387              		.loc 2 333 62 view .LVU1408
 5388 0466 9FED0A3B 		vldr.64	d3, .L355+8
 5389 046a A6EE037B 		vfma.f64	d7, d6, d3
 5390 046e B7EEC77B 		vcvt.f32.f64	s14, d7
 337:Menus.cpp     ****                     (int)(((glideInit - offset) / 40) * 100) - 0);
 5391              		.loc 2 337 55 view .LVU1409
 5392 0472 65EE847A 		vmul.f32	s15, s11, s8
 333:Menus.cpp     ****                 = ((this->analogRead * screen.Width() * 0.8) + margin);
 5393              		.loc 2 333 62 view .LVU1410
 5394 0476 86ED237A 		vstr.32	s14, [r6, #140]
 334:Menus.cpp     ****             this->glideTime = this->analogRead * 2;
ARM GAS  C:\Users\VINCIU~1\AppData\Local\Temp\cchCBePv.s 			page 139


 5395              		.loc 2 334 13 is_stmt 1 view .LVU1411
 335:Menus.cpp     ****             sprintf(this->buffPitchTime,
 5396              		.loc 2 335 13 view .LVU1412
 335:Menus.cpp     ****             sprintf(this->buffPitchTime,
 5397              		.loc 2 335 20 is_stmt 0 view .LVU1413
 5398 047a FDEEE77A 		vcvt.s32.f32	s15, s15
 5399 047e 17EE902A 		vmov	r2, s15	@ int
 5400 0482 FFF7FEFF 		bl	sprintf
 5401              	.LVL367:
 335:Menus.cpp     ****             sprintf(this->buffPitchTime,
 5402              		.loc 2 335 20 view .LVU1414
 5403 0486 C6E7     		b	.L310
 5404              	.L356:
 5405              		.align	3
 5406              	.L355:
 5407 0488 FCA9F1D2 		.word	-755914244
 5408 048c 4D62503F 		.word	1062232653
 5409 0490 9A999999 		.word	-1717986918
 5410 0494 9999E93F 		.word	1072273817
 5411 0498 00000000 		.word	.LC5
 5412 049c 00002042 		.word	1109393408
 5413 04a0 00000043 		.word	1124073472
 5414 04a4 0000C842 		.word	1120403456
 5415 04a8 0C000000 		.word	.LC6
 5416              		.cfi_endproc
 5417              	.LFE4040:
 5419              		.text
 5420              	.Letext0:
 5421              		.file 9 "c:\\users\\vin\355cius\\documents\\daisytoolchain-0.3.1\\windows\\arm-none-eabi\\include\
 5422              		.file 10 "c:\\users\\vin\355cius\\documents\\daisytoolchain-0.3.1\\windows\\arm-none-eabi\\include
 5423              		.file 11 "c:\\users\\vin\355cius\\documents\\daisytoolchain-0.3.1\\windows\\arm-none-eabi\\include
 5424              		.file 12 "c:\\users\\vin\355cius\\documents\\daisytoolchain-0.3.1\\windows\\lib\\gcc\\arm-none-eab
 5425              		.file 13 "c:\\users\\vin\355cius\\documents\\daisytoolchain-0.3.1\\windows\\arm-none-eabi\\include
 5426              		.file 14 "c:\\users\\vin\355cius\\documents\\daisytoolchain-0.3.1\\windows\\arm-none-eabi\\include
 5427              		.file 15 "c:\\users\\vin\355cius\\documents\\daisytoolchain-0.3.1\\windows\\arm-none-eabi\\include
 5428              		.file 16 "c:\\users\\vin\355cius\\documents\\daisytoolchain-0.3.1\\windows\\arm-none-eabi\\include
 5429              		.file 17 "c:\\users\\vin\355cius\\documents\\daisytoolchain-0.3.1\\windows\\arm-none-eabi\\include
 5430              		.file 18 "c:\\users\\vin\355cius\\documents\\daisytoolchain-0.3.1\\windows\\arm-none-eabi\\include
 5431              		.file 19 "c:\\users\\vin\355cius\\documents\\daisytoolchain-0.3.1\\windows\\arm-none-eabi\\include
 5432              		.file 20 "c:\\users\\vin\355cius\\documents\\daisytoolchain-0.3.1\\windows\\arm-none-eabi\\include
 5433              		.file 21 "c:\\users\\vin\355cius\\documents\\daisytoolchain-0.3.1\\windows\\arm-none-eabi\\include
 5434              		.file 22 "c:\\users\\vin\355cius\\documents\\daisytoolchain-0.3.1\\windows\\arm-none-eabi\\include
 5435              		.file 23 "c:\\users\\vin\355cius\\documents\\daisytoolchain-0.3.1\\windows\\arm-none-eabi\\include
 5436              		.file 24 "c:\\users\\vin\355cius\\documents\\daisytoolchain-0.3.1\\windows\\arm-none-eabi\\include
 5437              		.file 25 "c:\\users\\vin\355cius\\documents\\daisytoolchain-0.3.1\\windows\\arm-none-eabi\\include
 5438              		.file 26 "c:\\users\\vin\355cius\\documents\\daisytoolchain-0.3.1\\windows\\arm-none-eabi\\include
 5439              		.file 27 "c:\\users\\vin\355cius\\documents\\daisytoolchain-0.3.1\\windows\\arm-none-eabi\\include
 5440              		.file 28 "c:\\users\\vin\355cius\\documents\\daisytoolchain-0.3.1\\windows\\arm-none-eabi\\include
 5441              		.file 29 "c:\\users\\vin\355cius\\documents\\daisytoolchain-0.3.1\\windows\\arm-none-eabi\\include
 5442              		.file 30 "c:\\users\\vin\355cius\\documents\\daisytoolchain-0.3.1\\windows\\arm-none-eabi\\include
 5443              		.file 31 "c:\\users\\vin\355cius\\documents\\daisytoolchain-0.3.1\\windows\\arm-none-eabi\\include
 5444              		.file 32 "c:\\users\\vin\355cius\\documents\\daisytoolchain-0.3.1\\windows\\arm-none-eabi\\include
 5445              		.file 33 "c:\\users\\vin\355cius\\documents\\daisytoolchain-0.3.1\\windows\\arm-none-eabi\\include
 5446              		.file 34 "c:\\users\\vin\355cius\\documents\\daisytoolchain-0.3.1\\windows\\arm-none-eabi\\include
 5447              		.file 35 "c:\\users\\vin\355cius\\documents\\daisytoolchain-0.3.1\\windows\\arm-none-eabi\\include
 5448              		.file 36 "c:\\users\\vin\355cius\\documents\\daisytoolchain-0.3.1\\windows\\arm-none-eabi\\include
 5449              		.file 37 "../../libdaisy/src/daisy_core.h"
ARM GAS  C:\Users\VINCIU~1\AppData\Local\Temp\cchCBePv.s 			page 140


 5450              		.file 38 "../../libdaisy/src/per/tim.h"
 5451              		.file 39 "../../libdaisy/src/per/spi.h"
 5452              		.file 40 "../../libdaisy/src/util/wav_format.h"
 5453              		.file 41 "../../libdaisy/src/per/gpio.h"
 5454              		.file 42 "c:\\users\\vin\355cius\\documents\\daisytoolchain-0.3.1\\windows\\lib\\gcc\\arm-none-eab
 5455              		.file 43 "c:\\users\\vin\355cius\\documents\\daisytoolchain-0.3.1\\windows\\arm-none-eabi\\include
 5456              		.file 44 "../../libdaisy/src/util/oled_fonts.h"
 5457              		.file 45 "../../DaisySP/Source/Control/adenv.h"
 5458              		.file 46 "../../DaisySP/Source/Utility/dsp.h"
 5459              		.file 47 "c:\\users\\vin\355cius\\documents\\daisytoolchain-0.3.1\\windows\\arm-none-eabi\\include
 5460              		.file 48 "c:\\users\\vin\355cius\\documents\\daisytoolchain-0.3.1\\windows\\arm-none-eabi\\include
 5461              		.file 49 "c:\\users\\vin\355cius\\documents\\daisytoolchain-0.3.1\\windows\\arm-none-eabi\\include
 5462              		.file 50 "Menus.h"
 5463              		.file 51 "OledDisplayExtravaganza.h"
 5464              		.file 52 "../../libdaisy/src/dev/sr_595.h"
 5465              		.file 53 "<built-in>"
ARM GAS  C:\Users\VINCIU~1\AppData\Local\Temp\cchCBePv.s 			page 141


DEFINED SYMBOLS
                            *ABS*:00000000 Menus.cpp
C:\Users\VINCIU~1\AppData\Local\Temp\cchCBePv.s:17     .text._ZNK5daisy11OledDisplayINS_13SSD130xDriverILj128ELj64ENS_24SSD130x4WireSpiTransportEEEE5WidthEv:00000000 $t
C:\Users\VINCIU~1\AppData\Local\Temp\cchCBePv.s:26     .text._ZNK5daisy11OledDisplayINS_13SSD130xDriverILj128ELj64ENS_24SSD130x4WireSpiTransportEEEE5WidthEv:00000000 _ZNK5daisy11OledDisplayINS_13SSD130xDriverILj128ELj64ENS_24SSD130x4WireSpiTransportEEEE5WidthEv
C:\Users\VINCIU~1\AppData\Local\Temp\cchCBePv.s:44     .text._ZNK5daisy11OledDisplayINS_13SSD130xDriverILj128ELj64ENS_24SSD130x4WireSpiTransportEEEE6HeightEv:00000000 $t
C:\Users\VINCIU~1\AppData\Local\Temp\cchCBePv.s:52     .text._ZNK5daisy11OledDisplayINS_13SSD130xDriverILj128ELj64ENS_24SSD130x4WireSpiTransportEEEE6HeightEv:00000000 _ZNK5daisy11OledDisplayINS_13SSD130xDriverILj128ELj64ENS_24SSD130x4WireSpiTransportEEEE6HeightEv
C:\Users\VINCIU~1\AppData\Local\Temp\cchCBePv.s:69     .rodata._ZN5MenusC2Ev.str1.4:00000000 $d
C:\Users\VINCIU~1\AppData\Local\Temp\cchCBePv.s:73     .text._ZN5MenusC2Ev:00000000 $t
C:\Users\VINCIU~1\AppData\Local\Temp\cchCBePv.s:81     .text._ZN5MenusC2Ev:00000000 _ZN5MenusC2Ev
C:\Users\VINCIU~1\AppData\Local\Temp\cchCBePv.s:191    .text._ZN5MenusC2Ev:00000048 $d
C:\Users\VINCIU~1\AppData\Local\Temp\cchCBePv.s:81     .text._ZN5MenusC2Ev:00000000 _ZN5MenusC1Ev
C:\Users\VINCIU~1\AppData\Local\Temp\cchCBePv.s:198    .text._ZN5Menus10WaveSelectEf:00000000 $t
C:\Users\VINCIU~1\AppData\Local\Temp\cchCBePv.s:206    .text._ZN5Menus10WaveSelectEf:00000000 _ZN5Menus10WaveSelectEf
C:\Users\VINCIU~1\AppData\Local\Temp\cchCBePv.s:270    .text._ZN5Menus9OscSelectEf:00000000 $t
C:\Users\VINCIU~1\AppData\Local\Temp\cchCBePv.s:278    .text._ZN5Menus9OscSelectEf:00000000 _ZN5Menus9OscSelectEf
C:\Users\VINCIU~1\AppData\Local\Temp\cchCBePv.s:302    .text._ZN5daisy25OneBitGraphicsDisplayImplINS_11OledDisplayINS_13SSD130xDriverILj128ELj64ENS_24SSD130x4WireSpiTransportEEEEEE11WriteStringEPKc7FontDefb:00000000 $t
C:\Users\VINCIU~1\AppData\Local\Temp\cchCBePv.s:310    .text._ZN5daisy25OneBitGraphicsDisplayImplINS_11OledDisplayINS_13SSD130xDriverILj128ELj64ENS_24SSD130x4WireSpiTransportEEEEEE11WriteStringEPKc7FontDefb:00000000 _ZN5daisy25OneBitGraphicsDisplayImplINS_11OledDisplayINS_13SSD130xDriverILj128ELj64ENS_24SSD130x4WireSpiTransportEEEEEE11WriteStringEPKc7FontDefb
C:\Users\VINCIU~1\AppData\Local\Temp\cchCBePv.s:769    .text._ZN5daisy25OneBitGraphicsDisplayImplINS_11OledDisplayINS_13SSD130xDriverILj128ELj64ENS_24SSD130x4WireSpiTransportEEEEEE11WriteStringEPKc7FontDefb:000001b8 $d
C:\Users\VINCIU~1\AppData\Local\Temp\cchCBePv.s:779    .text._ZN5daisy25OneBitGraphicsDisplayImplINS_11OledDisplayINS_13SSD130xDriverILj128ELj64ENS_24SSD130x4WireSpiTransportEEEEEE8DrawRectEjjjjbb:00000000 $t
C:\Users\VINCIU~1\AppData\Local\Temp\cchCBePv.s:787    .text._ZN5daisy25OneBitGraphicsDisplayImplINS_11OledDisplayINS_13SSD130xDriverILj128ELj64ENS_24SSD130x4WireSpiTransportEEEEEE8DrawRectEjjjjbb:00000000 _ZN5daisy25OneBitGraphicsDisplayImplINS_11OledDisplayINS_13SSD130xDriverILj128ELj64ENS_24SSD130x4WireSpiTransportEEEEEE8DrawRectEjjjjbb
C:\Users\VINCIU~1\AppData\Local\Temp\cchCBePv.s:1897   .rodata._ZN5Menus5Menu1E23OledDisplayExtravaganzaPN7daisysp10OscillatorE.str1.4:00000000 $d
C:\Users\VINCIU~1\AppData\Local\Temp\cchCBePv.s:1910   .text._ZN5Menus5Menu1E23OledDisplayExtravaganzaPN7daisysp10OscillatorE:00000000 $t
C:\Users\VINCIU~1\AppData\Local\Temp\cchCBePv.s:1918   .text._ZN5Menus5Menu1E23OledDisplayExtravaganzaPN7daisysp10OscillatorE:00000000 _ZN5Menus5Menu1E23OledDisplayExtravaganzaPN7daisysp10OscillatorE
C:\Users\VINCIU~1\AppData\Local\Temp\cchCBePv.s:3155   .text._ZN5Menus5Menu1E23OledDisplayExtravaganzaPN7daisysp10OscillatorE:00000398 $d
C:\Users\VINCIU~1\AppData\Local\Temp\cchCBePv.s:3183   .text._ZN5Menus5Menu1E23OledDisplayExtravaganzaPN7daisysp10OscillatorE:000003cc $t
C:\Users\VINCIU~1\AppData\Local\Temp\cchCBePv.s:4079   .text._ZN5Menus5Menu1E23OledDisplayExtravaganzaPN7daisysp10OscillatorE:000006f8 $d
C:\Users\VINCIU~1\AppData\Local\Temp\cchCBePv.s:4099   .rodata._ZN5Menus5Menu2E23OledDisplayExtravaganzaPN7daisysp10OscillatorE.str1.4:00000000 $d
C:\Users\VINCIU~1\AppData\Local\Temp\cchCBePv.s:4106   .text._ZN5Menus5Menu2E23OledDisplayExtravaganzaPN7daisysp10OscillatorE:00000000 $t
C:\Users\VINCIU~1\AppData\Local\Temp\cchCBePv.s:4114   .text._ZN5Menus5Menu2E23OledDisplayExtravaganzaPN7daisysp10OscillatorE:00000000 _ZN5Menus5Menu2E23OledDisplayExtravaganzaPN7daisysp10OscillatorE
C:\Users\VINCIU~1\AppData\Local\Temp\cchCBePv.s:5197   .text._ZN5Menus5Menu2E23OledDisplayExtravaganzaPN7daisysp10OscillatorE:00000360 $d
C:\Users\VINCIU~1\AppData\Local\Temp\cchCBePv.s:5216   .text._ZN5Menus5Menu2E23OledDisplayExtravaganzaPN7daisysp10OscillatorE:00000384 $t
C:\Users\VINCIU~1\AppData\Local\Temp\cchCBePv.s:5407   .text._ZN5Menus5Menu2E23OledDisplayExtravaganzaPN7daisysp10OscillatorE:00000488 $d

UNDEFINED SYMBOLS
sprintf
memset
_ZN23OledDisplayExtravaganza20drawHorizontalToggleEfffbbPKc
_ZN23OledDisplayExtravaganza10drawSliderEffffff
_ZN23OledDisplayExtravaganza18drawVerticalToggleEfffbbPKc
_ZN23OledDisplayExtravaganza9WaveIconsEiiiib
dsy_gpio_write
_ZN5daisy9SpiHandle16BlockingTransmitEPhjm
Font_7x10
Font_6x8
