ARM GAS  C:\Users\VINCIU~1\AppData\Local\Temp\ccA1pwKF.s 			page 1


   1              		.cpu cortex-m7
   2              		.eabi_attribute 28, 1
   3              		.eabi_attribute 20, 1
   4              		.eabi_attribute 21, 1
   5              		.eabi_attribute 23, 3
   6              		.eabi_attribute 24, 1
   7              		.eabi_attribute 25, 1
   8              		.eabi_attribute 26, 1
   9              		.eabi_attribute 30, 2
  10              		.eabi_attribute 34, 1
  11              		.eabi_attribute 18, 4
  12              		.file	"Menus.cpp"
  13              		.text
  14              	.Ltext0:
  15              		.cfi_sections	.debug_frame
  16              		.section	.text._ZNK5daisy11OledDisplayINS_13SSD130xDriverILj128ELj64ENS_24SSD130x4WireSpiTransport
  17              		.align	1
  18              		.p2align 2,,3
  19              		.weak	_ZNK5daisy11OledDisplayINS_13SSD130xDriverILj128ELj64ENS_24SSD130x4WireSpiTransportEEEE5Widt
  20              		.arch armv7e-m
  21              		.syntax unified
  22              		.thumb
  23              		.thumb_func
  24              		.fpu fpv5-d16
  26              	_ZNK5daisy11OledDisplayINS_13SSD130xDriverILj128ELj64ENS_24SSD130x4WireSpiTransportEEEE5WidthEv:
  27              	.LVL0:
  28              	.LFB4338:
  29              		.file 1 "../../libdaisy/src/hid/disp/oled_display.h"
   1:../../libdaisy/src/hid/disp/oled_display.h **** #pragma once
   2:../../libdaisy/src/hid/disp/oled_display.h **** #ifndef DSY_OLED_DISPLAY_H
   3:../../libdaisy/src/hid/disp/oled_display.h **** #define DSY_OLED_DISPLAY_H /**< Macro */
   4:../../libdaisy/src/hid/disp/oled_display.h **** 
   5:../../libdaisy/src/hid/disp/oled_display.h **** #include "display.h"
   6:../../libdaisy/src/hid/disp/oled_display.h **** 
   7:../../libdaisy/src/hid/disp/oled_display.h **** namespace daisy
   8:../../libdaisy/src/hid/disp/oled_display.h **** {
   9:../../libdaisy/src/hid/disp/oled_display.h **** /** 
  10:../../libdaisy/src/hid/disp/oled_display.h ****  * This class is for drawing to a monochrome OLED display. 
  11:../../libdaisy/src/hid/disp/oled_display.h **** */
  12:../../libdaisy/src/hid/disp/oled_display.h **** template <typename DisplayDriver>
  13:../../libdaisy/src/hid/disp/oled_display.h **** class OledDisplay : public OneBitGraphicsDisplayImpl<OledDisplay<DisplayDriver>>
  14:../../libdaisy/src/hid/disp/oled_display.h **** {
  15:../../libdaisy/src/hid/disp/oled_display.h ****   public:
  16:../../libdaisy/src/hid/disp/oled_display.h ****     OledDisplay() {}
  17:../../libdaisy/src/hid/disp/oled_display.h ****     virtual ~OledDisplay() {}
  18:../../libdaisy/src/hid/disp/oled_display.h **** 
  19:../../libdaisy/src/hid/disp/oled_display.h ****     struct Config
  20:../../libdaisy/src/hid/disp/oled_display.h ****     {
  21:../../libdaisy/src/hid/disp/oled_display.h ****         typename DisplayDriver::Config driver_config;
  22:../../libdaisy/src/hid/disp/oled_display.h ****     };
  23:../../libdaisy/src/hid/disp/oled_display.h **** 
  24:../../libdaisy/src/hid/disp/oled_display.h ****     void Init(Config config) { driver_.Init(config.driver_config); }
  25:../../libdaisy/src/hid/disp/oled_display.h **** 
  26:../../libdaisy/src/hid/disp/oled_display.h ****     uint16_t Height() const override { return driver_.Height(); }
  27:../../libdaisy/src/hid/disp/oled_display.h ****     uint16_t Width() const override { return driver_.Width(); }
  30              		.loc 1 27 14 view -0
  31              		.cfi_startproc
ARM GAS  C:\Users\VINCIU~1\AppData\Local\Temp\ccA1pwKF.s 			page 2


  32              		@ args = 0, pretend = 0, frame = 0
  33              		@ frame_needed = 0, uses_anonymous_args = 0
  34              		@ link register save eliminated.
  35              		.loc 1 27 63 is_stmt 0 view .LVU1
  36 0000 8020     		movs	r0, #128
  37              	.LVL1:
  38              		.loc 1 27 63 view .LVU2
  39 0002 7047     		bx	lr
  40              		.cfi_endproc
  41              	.LFE4338:
  43              		.section	.text._ZNK5daisy11OledDisplayINS_13SSD130xDriverILj128ELj64ENS_24SSD130x4WireSpiTransport
  44              		.align	1
  45              		.p2align 2,,3
  46              		.weak	_ZNK5daisy11OledDisplayINS_13SSD130xDriverILj128ELj64ENS_24SSD130x4WireSpiTransportEEEE6Heig
  47              		.syntax unified
  48              		.thumb
  49              		.thumb_func
  50              		.fpu fpv5-d16
  52              	_ZNK5daisy11OledDisplayINS_13SSD130xDriverILj128ELj64ENS_24SSD130x4WireSpiTransportEEEE6HeightEv:
  53              	.LVL2:
  54              	.LFB4339:
  26:../../libdaisy/src/hid/disp/oled_display.h ****     uint16_t Width() const override { return driver_.Width(); }
  55              		.loc 1 26 14 is_stmt 1 view -0
  56              		.cfi_startproc
  57              		@ args = 0, pretend = 0, frame = 0
  58              		@ frame_needed = 0, uses_anonymous_args = 0
  59              		@ link register save eliminated.
  26:../../libdaisy/src/hid/disp/oled_display.h ****     uint16_t Width() const override { return driver_.Width(); }
  60              		.loc 1 26 65 is_stmt 0 view .LVU4
  61 0000 4020     		movs	r0, #64
  62              	.LVL3:
  26:../../libdaisy/src/hid/disp/oled_display.h ****     uint16_t Width() const override { return driver_.Width(); }
  63              		.loc 1 26 65 view .LVU5
  64 0002 7047     		bx	lr
  65              		.cfi_endproc
  66              	.LFE4339:
  68              		.section	.rodata._ZN5MenusC2Ev.str1.4,"aMS",%progbits,1
  69              		.align	2
  70              	.LC0:
  71 0000 54696D65 		.ascii	"Time_0%%\000"
  71      5F302525 
  71      00
  72              		.section	.text._ZN5MenusC2Ev,"ax",%progbits
  73              		.align	1
  74              		.p2align 2,,3
  75              		.global	_ZN5MenusC2Ev
  76              		.syntax unified
  77              		.thumb
  78              		.thumb_func
  79              		.fpu fpv5-d16
  81              	_ZN5MenusC2Ev:
  82              	.LVL4:
  83              	.LFB4035:
  84              		.file 2 "Menus.cpp"
   1:Menus.cpp     **** #include "Menus.h"
   2:Menus.cpp     **** 
   3:Menus.cpp     **** 
ARM GAS  C:\Users\VINCIU~1\AppData\Local\Temp\ccA1pwKF.s 			page 3


   4:Menus.cpp     **** Menus::Menus()
  85              		.loc 2 4 1 is_stmt 1 view -0
  86              		.cfi_startproc
  87              		@ args = 0, pretend = 0, frame = 0
  88              		@ frame_needed = 0, uses_anonymous_args = 0
  89              	.LBB272:
   5:Menus.cpp     **** {
   6:Menus.cpp     ****     this->on                      = true;
  90              		.loc 2 6 35 is_stmt 0 view .LVU7
  91 0000 0123     		movs	r3, #1
   7:Menus.cpp     ****     this->analogRead              = 0;
   8:Menus.cpp     ****     this->analogLastRead          = 0;
   9:Menus.cpp     ****     this->updateValue             = false;
  10:Menus.cpp     ****     this->menuState               = 0;
  11:Menus.cpp     ****     this->menuStateGlide          = 0;
  12:Menus.cpp     ****     this->menuStateEnv            = 0;
  13:Menus.cpp     ****     this->OscSelector             = true;
  14:Menus.cpp     ****     this->synthOn                 = 1;
  15:Menus.cpp     ****     this->synthOn2                = 1;
  16:Menus.cpp     ****     this->freqFine2               = 0;
  17:Menus.cpp     ****     this->freqFine                = 0;
  18:Menus.cpp     ****     this->analogRead              = 0;
  19:Menus.cpp     ****     this->glideTime               = 1;
  20:Menus.cpp     ****     this->circleGlideTimePosition = 10;
  92              		.loc 2 20 35 view .LVU8
  93 0002 DFF868C0 		ldr	ip, .L6+4
  19:Menus.cpp     ****     this->circleGlideTimePosition = 10;
  94              		.loc 2 19 35 view .LVU9
  95 0006 4FF07E51 		mov	r1, #1065353216
  21:Menus.cpp     ****     this->state                   = 1;
  22:Menus.cpp     ****     this->stateWave               = 0;
  23:Menus.cpp     ****     this->toggleState             = 1;
  24:Menus.cpp     ****     this->toggleState2            = 1;
  25:Menus.cpp     ****     this->setWave                 = 0;
  26:Menus.cpp     ****     this->setWave2                = 0;
  27:Menus.cpp     ****     this->attackTime              = 0.1f;
  28:Menus.cpp     ****     this->attackTime              = 0.5f;
  96              		.loc 2 28 35 view .LVU10
  97 000a 4FF07C52 		mov	r2, #1056964608
  98              	.LBE272:
   4:Menus.cpp     **** {
  99              		.loc 2 4 1 view .LVU11
 100 000e 10B5     		push	{r4, lr}
 101              		.cfi_def_cfa_offset 8
 102              		.cfi_offset 4, -8
 103              		.cfi_offset 14, -4
   4:Menus.cpp     **** {
 104              		.loc 2 4 1 view .LVU12
 105 0010 0446     		mov	r4, r0
 106              	.LVL5:
 107              	.LBB279:
 108              	.LBB273:
 109              	.LBI273:
 110              		.file 3 "../../libdaisy/src/hid/encoder.h"
   1:../../libdaisy/src/hid/encoder.h **** #pragma once
   2:../../libdaisy/src/hid/encoder.h **** #ifndef DSY_ENCODER_H
   3:../../libdaisy/src/hid/encoder.h **** #define DSY_ENCODER_H
ARM GAS  C:\Users\VINCIU~1\AppData\Local\Temp\ccA1pwKF.s 			page 4


   4:../../libdaisy/src/hid/encoder.h **** #include "daisy_core.h"
   5:../../libdaisy/src/hid/encoder.h **** #include "per/gpio.h"
   6:../../libdaisy/src/hid/encoder.h **** #include "hid/switch.h"
   7:../../libdaisy/src/hid/encoder.h **** 
   8:../../libdaisy/src/hid/encoder.h **** namespace daisy
   9:../../libdaisy/src/hid/encoder.h **** {
  10:../../libdaisy/src/hid/encoder.h **** /** 
  11:../../libdaisy/src/hid/encoder.h ****     @brief Generic Class for handling Quadrature Encoders \n 
  12:../../libdaisy/src/hid/encoder.h ****     Inspired/influenced by Mutable Instruments (pichenettes) Encoder classes
  13:../../libdaisy/src/hid/encoder.h ****     @author Stephen Hensley
  14:../../libdaisy/src/hid/encoder.h ****     @date December 2019
  15:../../libdaisy/src/hid/encoder.h ****     @ingroup controls
  16:../../libdaisy/src/hid/encoder.h **** */
  17:../../libdaisy/src/hid/encoder.h **** class Encoder
  18:../../libdaisy/src/hid/encoder.h **** {
  19:../../libdaisy/src/hid/encoder.h ****   public:
  20:../../libdaisy/src/hid/encoder.h ****     Encoder() {}
 111              		.loc 3 20 5 is_stmt 1 view .LVU13
 112              	.LBB274:
 113              	.LBI274:
 114              		.file 4 "../../libdaisy/src/hid/switch.h"
   1:../../libdaisy/src/hid/switch.h **** #pragma once
   2:../../libdaisy/src/hid/switch.h **** #ifndef DSY_SWITCH_H
   3:../../libdaisy/src/hid/switch.h **** #define DSY_SWITCH_H
   4:../../libdaisy/src/hid/switch.h **** #include "daisy_core.h"
   5:../../libdaisy/src/hid/switch.h **** #include "per/gpio.h"
   6:../../libdaisy/src/hid/switch.h **** 
   7:../../libdaisy/src/hid/switch.h **** namespace daisy
   8:../../libdaisy/src/hid/switch.h **** {
   9:../../libdaisy/src/hid/switch.h **** /** 
  10:../../libdaisy/src/hid/switch.h ****     Generic Class for handling momentary/latching switches \n 
  11:../../libdaisy/src/hid/switch.h ****     Inspired/influenced by Mutable Instruments (pichenettes) Switch classes
  12:../../libdaisy/src/hid/switch.h ****     @author Stephen Hensley
  13:../../libdaisy/src/hid/switch.h ****     @date December 2019
  14:../../libdaisy/src/hid/switch.h ****     @ingroup controls
  15:../../libdaisy/src/hid/switch.h **** */
  16:../../libdaisy/src/hid/switch.h **** class Switch
  17:../../libdaisy/src/hid/switch.h **** {
  18:../../libdaisy/src/hid/switch.h ****   public:
  19:../../libdaisy/src/hid/switch.h ****     /** Specifies the expected behavior of the switch */
  20:../../libdaisy/src/hid/switch.h ****     enum Type
  21:../../libdaisy/src/hid/switch.h ****     {
  22:../../libdaisy/src/hid/switch.h ****         TYPE_TOGGLE,    /**< & */
  23:../../libdaisy/src/hid/switch.h ****         TYPE_MOMENTARY, /**< & */
  24:../../libdaisy/src/hid/switch.h ****     };
  25:../../libdaisy/src/hid/switch.h ****     /** Specifies whether the pressed is HIGH or LOW. */
  26:../../libdaisy/src/hid/switch.h ****     enum Polarity
  27:../../libdaisy/src/hid/switch.h ****     {
  28:../../libdaisy/src/hid/switch.h ****         POLARITY_NORMAL,   /**< & */
  29:../../libdaisy/src/hid/switch.h ****         POLARITY_INVERTED, /**< & */
  30:../../libdaisy/src/hid/switch.h ****     };
  31:../../libdaisy/src/hid/switch.h **** 
  32:../../libdaisy/src/hid/switch.h ****     /** Specifies whether to use built-in Pull Up/Down resistors to hold button at a given state wh
  33:../../libdaisy/src/hid/switch.h ****     enum Pull
  34:../../libdaisy/src/hid/switch.h ****     {
  35:../../libdaisy/src/hid/switch.h ****         PULL_UP,   /**< & */
  36:../../libdaisy/src/hid/switch.h ****         PULL_DOWN, /**< & */
ARM GAS  C:\Users\VINCIU~1\AppData\Local\Temp\ccA1pwKF.s 			page 5


  37:../../libdaisy/src/hid/switch.h ****         PULL_NONE, /**< & */
  38:../../libdaisy/src/hid/switch.h ****     };
  39:../../libdaisy/src/hid/switch.h **** 
  40:../../libdaisy/src/hid/switch.h ****     Switch() {}
 115              		.loc 4 40 5 view .LVU14
 116              		.loc 4 40 5 is_stmt 0 view .LVU15
 117              	.LBE274:
 118              	.LBE273:
 119              	.LBB275:
 120              	.LBI275:
 121              		.loc 3 20 5 is_stmt 1 view .LVU16
 122              	.LBB276:
 123              	.LBI276:
 124              		.loc 4 40 5 view .LVU17
 125              		.loc 4 40 5 is_stmt 0 view .LVU18
 126              	.LBE276:
 127              	.LBE275:
 128              	.LBB277:
 129              	.LBI277:
 130              		.loc 4 40 5 is_stmt 1 view .LVU19
 131              		.loc 4 40 5 is_stmt 0 view .LVU20
 132              	.LBE277:
 133              	.LBB278:
 134              	.LBI278:
 135              		.loc 4 40 5 is_stmt 1 view .LVU21
 136              		.loc 4 40 5 is_stmt 0 view .LVU22
 137              	.LBE278:
   6:Menus.cpp     ****     this->analogRead              = 0;
 138              		.loc 2 6 5 is_stmt 1 view .LVU23
   6:Menus.cpp     ****     this->analogRead              = 0;
 139              		.loc 2 6 35 is_stmt 0 view .LVU24
 140 0012 80F8BC31 		strb	r3, [r0, #444]
   7:Menus.cpp     ****     this->analogLastRead          = 0;
 141              		.loc 2 7 5 is_stmt 1 view .LVU25
  13:Menus.cpp     ****     this->synthOn                 = 1;
 142              		.loc 2 13 35 is_stmt 0 view .LVU26
 143 0016 80F87430 		strb	r3, [r0, #116]
  21:Menus.cpp     ****     this->stateWave               = 0;
 144              		.loc 2 21 35 view .LVU27
 145 001a C0F88031 		str	r3, [r0, #384]
  19:Menus.cpp     ****     this->circleGlideTimePosition = 10;
 146              		.loc 2 19 35 view .LVU28
 147 001e C0F89410 		str	r1, [r0, #148]	@ float
  20:Menus.cpp     ****     this->state                   = 1;
 148              		.loc 2 20 35 view .LVU29
 149 0022 C0F88CC0 		str	ip, [r0, #140]	@ float
  29:Menus.cpp     ****     this->attackTimeScaleDraw     = 0.5f;
  30:Menus.cpp     ****     sprintf(this->buffPitchTime, "Time_0%%");
 150              		.loc 2 30 12 view .LVU30
 151 0026 1049     		ldr	r1, .L6
  15:Menus.cpp     ****     this->freqFine2               = 0;
 152              		.loc 2 15 35 view .LVU31
 153 0028 C0E95B33 		strd	r3, r3, [r0, #364]
  24:Menus.cpp     ****     this->setWave                 = 0;
 154              		.loc 2 24 35 view .LVU32
 155 002c C0E96233 		strd	r3, r3, [r0, #392]
   9:Menus.cpp     ****     this->menuState               = 0;
ARM GAS  C:\Users\VINCIU~1\AppData\Local\Temp\ccA1pwKF.s 			page 6


 156              		.loc 2 9 35 view .LVU33
 157 0030 0023     		movs	r3, #0
  28:Menus.cpp     ****     this->attackTimeScaleDraw     = 0.5f;
 158              		.loc 2 28 35 view .LVU34
 159 0032 C4F89821 		str	r2, [r4, #408]	@ float
  29:Menus.cpp     ****     sprintf(this->buffPitchTime, "Time_0%%");
 160              		.loc 2 29 35 view .LVU35
 161 0036 C4F8A021 		str	r2, [r4, #416]	@ float
 162              		.loc 2 30 12 view .LVU36
 163 003a 00F58E70 		add	r0, r0, #284
 164              	.LVL6:
   9:Menus.cpp     ****     this->menuState               = 0;
 165              		.loc 2 9 35 view .LVU37
 166 003e 2372     		strb	r3, [r4, #8]
  12:Menus.cpp     ****     this->OscSelector             = true;
 167              		.loc 2 12 35 view .LVU38
 168 0040 C4F8A431 		str	r3, [r4, #420]
  22:Menus.cpp     ****     this->toggleState             = 1;
 169              		.loc 2 22 35 view .LVU39
 170 0044 C4F88431 		str	r3, [r4, #388]
  11:Menus.cpp     ****     this->menuStateEnv            = 0;
 171              		.loc 2 11 35 view .LVU40
 172 0048 C4E91B33 		strd	r3, r3, [r4, #108]
  26:Menus.cpp     ****     this->attackTime              = 0.1f;
 173              		.loc 2 26 35 view .LVU41
 174 004c C4E96433 		strd	r3, r3, [r4, #400]
   7:Menus.cpp     ****     this->analogLastRead          = 0;
 175              		.loc 2 7 35 view .LVU42
 176 0050 0023     		movs	r3, #0
 177 0052 2360     		str	r3, [r4]	@ float
   8:Menus.cpp     ****     this->updateValue             = false;
 178              		.loc 2 8 5 is_stmt 1 view .LVU43
   8:Menus.cpp     ****     this->updateValue             = false;
 179              		.loc 2 8 35 is_stmt 0 view .LVU44
 180 0054 6360     		str	r3, [r4, #4]	@ float
   9:Menus.cpp     ****     this->menuState               = 0;
 181              		.loc 2 9 5 is_stmt 1 view .LVU45
  10:Menus.cpp     ****     this->menuStateGlide          = 0;
 182              		.loc 2 10 5 view .LVU46
  11:Menus.cpp     ****     this->menuStateEnv            = 0;
 183              		.loc 2 11 5 view .LVU47
  12:Menus.cpp     ****     this->OscSelector             = true;
 184              		.loc 2 12 5 view .LVU48
  13:Menus.cpp     ****     this->synthOn                 = 1;
 185              		.loc 2 13 5 view .LVU49
  14:Menus.cpp     ****     this->synthOn2                = 1;
 186              		.loc 2 14 5 view .LVU50
  15:Menus.cpp     ****     this->freqFine2               = 0;
 187              		.loc 2 15 5 view .LVU51
  16:Menus.cpp     ****     this->freqFine                = 0;
 188              		.loc 2 16 5 view .LVU52
  16:Menus.cpp     ****     this->freqFine                = 0;
 189              		.loc 2 16 35 is_stmt 0 view .LVU53
 190 0056 C4F87831 		str	r3, [r4, #376]	@ float
  17:Menus.cpp     ****     this->analogRead              = 0;
 191              		.loc 2 17 5 is_stmt 1 view .LVU54
  17:Menus.cpp     ****     this->analogRead              = 0;
ARM GAS  C:\Users\VINCIU~1\AppData\Local\Temp\ccA1pwKF.s 			page 7


 192              		.loc 2 17 35 is_stmt 0 view .LVU55
 193 005a C4F87431 		str	r3, [r4, #372]	@ float
  18:Menus.cpp     ****     this->glideTime               = 1;
 194              		.loc 2 18 5 is_stmt 1 view .LVU56
  19:Menus.cpp     ****     this->circleGlideTimePosition = 10;
 195              		.loc 2 19 5 view .LVU57
  20:Menus.cpp     ****     this->state                   = 1;
 196              		.loc 2 20 5 view .LVU58
  21:Menus.cpp     ****     this->stateWave               = 0;
 197              		.loc 2 21 5 view .LVU59
  22:Menus.cpp     ****     this->toggleState             = 1;
 198              		.loc 2 22 5 view .LVU60
  23:Menus.cpp     ****     this->toggleState2            = 1;
 199              		.loc 2 23 5 view .LVU61
  24:Menus.cpp     ****     this->setWave                 = 0;
 200              		.loc 2 24 5 view .LVU62
  25:Menus.cpp     ****     this->setWave2                = 0;
 201              		.loc 2 25 5 view .LVU63
  26:Menus.cpp     ****     this->attackTime              = 0.1f;
 202              		.loc 2 26 5 view .LVU64
  27:Menus.cpp     ****     this->attackTime              = 0.5f;
 203              		.loc 2 27 5 view .LVU65
  28:Menus.cpp     ****     this->attackTimeScaleDraw     = 0.5f;
 204              		.loc 2 28 5 view .LVU66
  29:Menus.cpp     ****     sprintf(this->buffPitchTime, "Time_0%%");
 205              		.loc 2 29 5 view .LVU67
 206              		.loc 2 30 5 view .LVU68
 207              		.loc 2 30 12 is_stmt 0 view .LVU69
 208 005e FFF7FEFF 		bl	sprintf
 209              	.LVL7:
 210              	.LBE279:
  31:Menus.cpp     **** }
 211              		.loc 2 31 1 view .LVU70
 212 0062 2046     		mov	r0, r4
 213 0064 10BD     		pop	{r4, pc}
 214              	.LVL8:
 215              	.L7:
 216              		.loc 2 31 1 view .LVU71
 217 0066 00BF     		.align	2
 218              	.L6:
 219 0068 00000000 		.word	.LC0
 220 006c 00002041 		.word	1092616192
 221              		.cfi_endproc
 222              	.LFE4035:
 224              		.global	_ZN5MenusC1Ev
 225              		.thumb_set _ZN5MenusC1Ev,_ZN5MenusC2Ev
 226              		.section	.text._ZN5Menus10WaveSelectEf,"ax",%progbits
 227              		.align	1
 228              		.p2align 2,,3
 229              		.global	_ZN5Menus10WaveSelectEf
 230              		.syntax unified
 231              		.thumb
 232              		.thumb_func
 233              		.fpu fpv5-d16
 235              	_ZN5Menus10WaveSelectEf:
 236              	.LVL9:
 237              	.LFB4037:
ARM GAS  C:\Users\VINCIU~1\AppData\Local\Temp\ccA1pwKF.s 			page 8


  32:Menus.cpp     **** 
  33:Menus.cpp     **** int Menus::WaveSelect(float select)
  34:Menus.cpp     **** {
 238              		.loc 2 34 1 is_stmt 1 view -0
 239              		.cfi_startproc
 240              		@ args = 0, pretend = 0, frame = 0
 241              		@ frame_needed = 0, uses_anonymous_args = 0
 242              		@ link register save eliminated.
  35:Menus.cpp     ****     this->stateWave += this->encoderRight.Increment();
 243              		.loc 2 35 5 view .LVU73
 244              		.loc 2 35 21 is_stmt 0 view .LVU74
 245 0000 D0F88431 		ldr	r3, [r0, #388]
  34:Menus.cpp     ****     this->stateWave += this->encoderRight.Increment();
 246              		.loc 2 34 1 view .LVU75
 247 0004 0246     		mov	r2, r0
 248              	.LVL10:
 249              	.LBB280:
 250              	.LBI280:
  21:../../libdaisy/src/hid/encoder.h ****     ~Encoder() {}
  22:../../libdaisy/src/hid/encoder.h **** 
  23:../../libdaisy/src/hid/encoder.h ****     /** Initializes the encoder with the specified hardware pins.
  24:../../libdaisy/src/hid/encoder.h **** */
  25:../../libdaisy/src/hid/encoder.h ****     //
  26:../../libdaisy/src/hid/encoder.h ****     /** Update rate should be the rate at which Debounce() gets called
  27:../../libdaisy/src/hid/encoder.h **** in Hertz.
  28:../../libdaisy/src/hid/encoder.h **** */
  29:../../libdaisy/src/hid/encoder.h ****     //
  30:../../libdaisy/src/hid/encoder.h ****     void
  31:../../libdaisy/src/hid/encoder.h ****     Init(dsy_gpio_pin a, dsy_gpio_pin b, dsy_gpio_pin click, float update_rate);
  32:../../libdaisy/src/hid/encoder.h ****     /** Called at update_rate to debounce and handle timing for the switch.
  33:../../libdaisy/src/hid/encoder.h **** */
  34:../../libdaisy/src/hid/encoder.h ****     //
  35:../../libdaisy/src/hid/encoder.h ****     /** In order for events not to be missed, its important that the Edge/Pressed checks
  36:../../libdaisy/src/hid/encoder.h **** be made at the same rate as the debounce function is being called.
  37:../../libdaisy/src/hid/encoder.h **** */
  38:../../libdaisy/src/hid/encoder.h ****     void Debounce();
  39:../../libdaisy/src/hid/encoder.h ****     /** Returns +1 if the encoder was turned clockwise, -1 if it was turned counter-clockwise, or 0
  40:../../libdaisy/src/hid/encoder.h **** */
  41:../../libdaisy/src/hid/encoder.h ****     inline int32_t Increment() const { return inc_; }
 251              		.loc 3 41 20 is_stmt 1 view .LVU76
 252              	.LBB281:
 253              		.loc 3 41 40 view .LVU77
 254              		.loc 3 41 40 is_stmt 0 view .LVU78
 255              	.LBE281:
 256              	.LBE280:
 257              		.loc 2 35 21 view .LVU79
 258 0006 806C     		ldr	r0, [r0, #72]
 259              	.LVL11:
 260              		.loc 2 35 21 view .LVU80
 261 0008 1844     		add	r0, r0, r3
  36:Menus.cpp     ****     int state;
 262              		.loc 2 36 5 is_stmt 1 view .LVU81
  37:Menus.cpp     ****     if(this->stateWave > 3)
 263              		.loc 2 37 5 view .LVU82
 264 000a 0328     		cmp	r0, #3
 265 000c 04DD     		ble	.L9
  38:Menus.cpp     ****     {
ARM GAS  C:\Users\VINCIU~1\AppData\Local\Temp\ccA1pwKF.s 			page 9


  39:Menus.cpp     ****         this->stateWave = 3;
 266              		.loc 2 39 9 view .LVU83
 267              		.loc 2 39 25 is_stmt 0 view .LVU84
 268 000e 0323     		movs	r3, #3
  40:Menus.cpp     ****     }
  41:Menus.cpp     ****     if(this->stateWave < 0)
  42:Menus.cpp     ****     {
  43:Menus.cpp     ****         this->stateWave = 0;
  44:Menus.cpp     ****     }
  45:Menus.cpp     **** 
  46:Menus.cpp     ****     if(this->stateWave == 0)
  47:Menus.cpp     ****     {
  48:Menus.cpp     ****         state = 0;
  49:Menus.cpp     ****         return state;
  50:Menus.cpp     ****     }
  51:Menus.cpp     ****     else if(this->stateWave == 1)
  52:Menus.cpp     ****     {
  53:Menus.cpp     ****         state = 1;
  54:Menus.cpp     ****         return state;
  55:Menus.cpp     ****     }
  56:Menus.cpp     ****     else if(this->stateWave == 2)
  57:Menus.cpp     ****     {
  58:Menus.cpp     ****         state = 2;
  59:Menus.cpp     ****         return state;
  60:Menus.cpp     ****     }
  61:Menus.cpp     ****     else if(this->stateWave == 3)
  62:Menus.cpp     ****     {
  63:Menus.cpp     ****         state = 3;
  64:Menus.cpp     ****         return state;
 269              		.loc 2 64 16 view .LVU85
 270 0010 1846     		mov	r0, r3
  39:Menus.cpp     ****     }
 271              		.loc 2 39 25 view .LVU86
 272 0012 C2F88431 		str	r3, [r2, #388]
  41:Menus.cpp     ****     {
 273              		.loc 2 41 5 is_stmt 1 view .LVU87
  46:Menus.cpp     ****     {
 274              		.loc 2 46 5 view .LVU88
  51:Menus.cpp     ****     {
 275              		.loc 2 51 10 view .LVU89
 276 0016 7047     		bx	lr
 277              	.L9:
  41:Menus.cpp     ****     {
 278              		.loc 2 41 5 view .LVU90
 279 0018 0028     		cmp	r0, #0
 280 001a 04DA     		bge	.L11
  43:Menus.cpp     ****     }
 281              		.loc 2 43 9 view .LVU91
  43:Menus.cpp     ****     }
 282              		.loc 2 43 25 is_stmt 0 view .LVU92
 283 001c 0023     		movs	r3, #0
  49:Menus.cpp     ****     }
 284              		.loc 2 49 16 view .LVU93
 285 001e 1846     		mov	r0, r3
  43:Menus.cpp     ****     }
 286              		.loc 2 43 25 view .LVU94
 287 0020 C2F88431 		str	r3, [r2, #388]
ARM GAS  C:\Users\VINCIU~1\AppData\Local\Temp\ccA1pwKF.s 			page 10


  46:Menus.cpp     ****     {
 288              		.loc 2 46 5 is_stmt 1 view .LVU95
 289 0024 7047     		bx	lr
 290              	.L11:
  35:Menus.cpp     ****     int state;
 291              		.loc 2 35 21 is_stmt 0 view .LVU96
 292 0026 C2F88401 		str	r0, [r2, #388]
  46:Menus.cpp     ****     {
 293              		.loc 2 46 5 is_stmt 1 view .LVU97
 294 002a 04D0     		beq	.L8
  51:Menus.cpp     ****     {
 295              		.loc 2 51 10 view .LVU98
 296 002c 0128     		cmp	r0, #1
 297 002e 02D0     		beq	.L8
  56:Menus.cpp     ****     {
 298              		.loc 2 56 10 view .LVU99
 299              		.loc 2 64 16 is_stmt 0 view .LVU100
 300 0030 0228     		cmp	r0, #2
 301 0032 18BF     		it	ne
 302 0034 0320     		movne	r0, #3
 303              	.L8:
  65:Menus.cpp     ****     }
  66:Menus.cpp     **** }
 304              		.loc 2 66 1 view .LVU101
 305 0036 7047     		bx	lr
 306              		.cfi_endproc
 307              	.LFE4037:
 309              		.section	.text._ZN5Menus9OscSelectEf,"ax",%progbits
 310              		.align	1
 311              		.p2align 2,,3
 312              		.global	_ZN5Menus9OscSelectEf
 313              		.syntax unified
 314              		.thumb
 315              		.thumb_func
 316              		.fpu fpv5-d16
 318              	_ZN5Menus9OscSelectEf:
 319              	.LVL12:
 320              	.LFB4038:
  67:Menus.cpp     **** 
  68:Menus.cpp     **** bool Menus::OscSelect(float select)
  69:Menus.cpp     **** {
 321              		.loc 2 69 1 is_stmt 1 view -0
 322              		.cfi_startproc
 323              		@ args = 0, pretend = 0, frame = 0
 324              		@ frame_needed = 0, uses_anonymous_args = 0
 325              		@ link register save eliminated.
  70:Menus.cpp     ****     this->state += this->encoderRight.Increment();
 326              		.loc 2 70 5 view .LVU103
 327              		.loc 2 70 17 is_stmt 0 view .LVU104
 328 0000 D0F88021 		ldr	r2, [r0, #384]
  69:Menus.cpp     ****     this->state += this->encoderRight.Increment();
 329              		.loc 2 69 1 view .LVU105
 330 0004 0346     		mov	r3, r0
 331              	.LVL13:
 332              	.LBB282:
 333              	.LBI282:
 334              		.loc 3 41 20 is_stmt 1 view .LVU106
ARM GAS  C:\Users\VINCIU~1\AppData\Local\Temp\ccA1pwKF.s 			page 11


 335              	.LBB283:
 336              		.loc 3 41 40 view .LVU107
 337              		.loc 3 41 40 is_stmt 0 view .LVU108
 338              	.LBE283:
 339              	.LBE282:
 340              		.loc 2 70 17 view .LVU109
 341 0006 816C     		ldr	r1, [r0, #72]
 342 0008 0A44     		add	r2, r2, r1
  71:Menus.cpp     ****     if(this->state > 1)
 343              		.loc 2 71 5 is_stmt 1 view .LVU110
 344 000a 012A     		cmp	r2, #1
 345 000c 04DD     		ble	.L21
 346              	.L17:
  72:Menus.cpp     ****     {
  73:Menus.cpp     ****         this->state = 1;
  74:Menus.cpp     ****     }
  75:Menus.cpp     ****     if(this->state < 0)
  76:Menus.cpp     ****     {
  77:Menus.cpp     ****         this->state = 0;
  78:Menus.cpp     ****     }
  79:Menus.cpp     **** 
  80:Menus.cpp     **** 
  81:Menus.cpp     ****     if(this->state == 1)
  82:Menus.cpp     ****     {
  83:Menus.cpp     ****         state = true;
 347              		.loc 2 83 15 is_stmt 0 view .LVU111
 348 000e 0122     		movs	r2, #1
  84:Menus.cpp     ****         return state;
 349              		.loc 2 84 16 view .LVU112
 350 0010 1046     		mov	r0, r2
 351              	.LVL14:
 352              		.loc 2 84 16 view .LVU113
 353 0012 C3F88021 		str	r2, [r3, #384]
  85:Menus.cpp     ****     }
  86:Menus.cpp     ****     else
  87:Menus.cpp     ****     {
  88:Menus.cpp     ****         state = false;
  89:Menus.cpp     ****         return state;
  90:Menus.cpp     ****     }
  91:Menus.cpp     **** }
 354              		.loc 2 91 1 view .LVU114
 355 0016 7047     		bx	lr
 356              	.LVL15:
 357              	.L21:
  75:Menus.cpp     ****     {
 358              		.loc 2 75 5 is_stmt 1 view .LVU115
 359 0018 002A     		cmp	r2, #0
 360 001a 04DA     		bge	.L22
 361              	.L20:
  88:Menus.cpp     ****         return state;
 362              		.loc 2 88 15 is_stmt 0 view .LVU116
 363 001c 0022     		movs	r2, #0
  89:Menus.cpp     ****     }
 364              		.loc 2 89 16 view .LVU117
 365 001e 1046     		mov	r0, r2
 366              	.LVL16:
  89:Menus.cpp     ****     }
ARM GAS  C:\Users\VINCIU~1\AppData\Local\Temp\ccA1pwKF.s 			page 12


 367              		.loc 2 89 16 view .LVU118
 368 0020 C3F88021 		str	r2, [r3, #384]
 369              		.loc 2 91 1 view .LVU119
 370 0024 7047     		bx	lr
 371              	.LVL17:
 372              	.L22:
  81:Menus.cpp     ****     {
 373              		.loc 2 81 5 view .LVU120
 374 0026 012A     		cmp	r2, #1
  70:Menus.cpp     ****     if(this->state > 1)
 375              		.loc 2 70 17 view .LVU121
 376 0028 C0F88021 		str	r2, [r0, #384]
  81:Menus.cpp     ****     {
 377              		.loc 2 81 5 is_stmt 1 view .LVU122
 378 002c EFD0     		beq	.L17
 379 002e F5E7     		b	.L20
 380              		.cfi_endproc
 381              	.LFE4038:
 383              		.section	.text._ZN5daisy25OneBitGraphicsDisplayImplINS_11OledDisplayINS_13SSD130xDriverILj128ELj64
 384              		.align	1
 385              		.p2align 2,,3
 386              		.weak	_ZN5daisy25OneBitGraphicsDisplayImplINS_11OledDisplayINS_13SSD130xDriverILj128ELj64ENS_24SSD
 387              		.syntax unified
 388              		.thumb
 389              		.thumb_func
 390              		.fpu fpv5-d16
 392              	_ZN5daisy25OneBitGraphicsDisplayImplINS_11OledDisplayINS_13SSD130xDriverILj128ELj64ENS_24SSD130x4Wi
 393              	.LVL18:
 394              	.LFB4337:
 395              		.file 5 "../../libdaisy/src/hid/disp/display.h"
   1:../../libdaisy/src/hid/disp/display.h **** #pragma once
   2:../../libdaisy/src/hid/disp/display.h **** #ifndef DSY_DISPLAY_H
   3:../../libdaisy/src/hid/disp/display.h **** #define DSY_DISPLAY_H /**< Macro */
   4:../../libdaisy/src/hid/disp/display.h **** #include <cmath>
   5:../../libdaisy/src/hid/disp/display.h **** #include "util/oled_fonts.h"
   6:../../libdaisy/src/hid/disp/display.h **** #include "daisy_core.h"
   7:../../libdaisy/src/hid/disp/display.h **** 
   8:../../libdaisy/src/hid/disp/display.h **** #ifndef deg2rad
   9:../../libdaisy/src/hid/disp/display.h **** #define deg2rad(deg) ((deg)*3.141592 / 180.0)
  10:../../libdaisy/src/hid/disp/display.h **** #endif
  11:../../libdaisy/src/hid/disp/display.h **** 
  12:../../libdaisy/src/hid/disp/display.h **** namespace daisy
  13:../../libdaisy/src/hid/disp/display.h **** {
  14:../../libdaisy/src/hid/disp/display.h **** /** 
  15:../../libdaisy/src/hid/disp/display.h ****  * This interface is used as a base class for all types of 1bit-per-pixel
  16:../../libdaisy/src/hid/disp/display.h ****  * graphics displays.
  17:../../libdaisy/src/hid/disp/display.h **** */
  18:../../libdaisy/src/hid/disp/display.h **** class OneBitGraphicsDisplay
  19:../../libdaisy/src/hid/disp/display.h **** {
  20:../../libdaisy/src/hid/disp/display.h ****   public:
  21:../../libdaisy/src/hid/disp/display.h ****     OneBitGraphicsDisplay() {}
  22:../../libdaisy/src/hid/disp/display.h ****     virtual ~OneBitGraphicsDisplay() {}
  23:../../libdaisy/src/hid/disp/display.h **** 
  24:../../libdaisy/src/hid/disp/display.h ****     virtual uint16_t Height() const = 0;
  25:../../libdaisy/src/hid/disp/display.h ****     virtual uint16_t Width() const  = 0;
  26:../../libdaisy/src/hid/disp/display.h **** 
  27:../../libdaisy/src/hid/disp/display.h ****     size_t CurrentX() { return currentX_; };
ARM GAS  C:\Users\VINCIU~1\AppData\Local\Temp\ccA1pwKF.s 			page 13


  28:../../libdaisy/src/hid/disp/display.h ****     size_t CurrentY() { return currentY_; };
  29:../../libdaisy/src/hid/disp/display.h **** 
  30:../../libdaisy/src/hid/disp/display.h ****     /** 
  31:../../libdaisy/src/hid/disp/display.h ****     Fills the entire display with either on/off.
  32:../../libdaisy/src/hid/disp/display.h ****     \param on Sets on or off.
  33:../../libdaisy/src/hid/disp/display.h ****     */
  34:../../libdaisy/src/hid/disp/display.h ****     virtual void Fill(bool on) = 0;
  35:../../libdaisy/src/hid/disp/display.h **** 
  36:../../libdaisy/src/hid/disp/display.h ****     /**
  37:../../libdaisy/src/hid/disp/display.h ****     Sets the pixel at the specified coordinate to be on/off.
  38:../../libdaisy/src/hid/disp/display.h ****     \param x   x Coordinate
  39:../../libdaisy/src/hid/disp/display.h ****     \param y   y coordinate
  40:../../libdaisy/src/hid/disp/display.h ****     \param on  on or off
  41:../../libdaisy/src/hid/disp/display.h ****     */
  42:../../libdaisy/src/hid/disp/display.h ****     virtual void DrawPixel(uint_fast8_t x, uint_fast8_t y, bool on) = 0;
  43:../../libdaisy/src/hid/disp/display.h **** 
  44:../../libdaisy/src/hid/disp/display.h ****     /**
  45:../../libdaisy/src/hid/disp/display.h ****     Draws a line from (x1, y1) to (y1, y2)
  46:../../libdaisy/src/hid/disp/display.h ****     \param x1  x Coordinate of the starting point
  47:../../libdaisy/src/hid/disp/display.h ****     \param y1  y Coordinate of the starting point
  48:../../libdaisy/src/hid/disp/display.h ****     \param x2  x Coordinate of the ending point
  49:../../libdaisy/src/hid/disp/display.h ****     \param y2  y Coordinate of the ending point
  50:../../libdaisy/src/hid/disp/display.h ****     \param on  on or off
  51:../../libdaisy/src/hid/disp/display.h ****     */
  52:../../libdaisy/src/hid/disp/display.h ****     virtual void DrawLine(uint_fast8_t x1,
  53:../../libdaisy/src/hid/disp/display.h ****                           uint_fast8_t y1,
  54:../../libdaisy/src/hid/disp/display.h ****                           uint_fast8_t x2,
  55:../../libdaisy/src/hid/disp/display.h ****                           uint_fast8_t y2,
  56:../../libdaisy/src/hid/disp/display.h ****                           bool         on)
  57:../../libdaisy/src/hid/disp/display.h ****         = 0;
  58:../../libdaisy/src/hid/disp/display.h **** 
  59:../../libdaisy/src/hid/disp/display.h ****     /**
  60:../../libdaisy/src/hid/disp/display.h ****     Draws a rectangle based on two coordinates.
  61:../../libdaisy/src/hid/disp/display.h ****     \param x1 x Coordinate of the first point
  62:../../libdaisy/src/hid/disp/display.h ****     \param y1 y Coordinate of the first point
  63:../../libdaisy/src/hid/disp/display.h ****     \param x2 x Coordinate of the second point
  64:../../libdaisy/src/hid/disp/display.h ****     \param y2 y Coordinate of the second point
  65:../../libdaisy/src/hid/disp/display.h ****     \param on on or off
  66:../../libdaisy/src/hid/disp/display.h ****     */
  67:../../libdaisy/src/hid/disp/display.h ****     virtual void DrawRect(uint_fast8_t x1,
  68:../../libdaisy/src/hid/disp/display.h ****                           uint_fast8_t y1,
  69:../../libdaisy/src/hid/disp/display.h ****                           uint_fast8_t x2,
  70:../../libdaisy/src/hid/disp/display.h ****                           uint_fast8_t y2,
  71:../../libdaisy/src/hid/disp/display.h ****                           bool         on,
  72:../../libdaisy/src/hid/disp/display.h ****                           bool         fill = false)
  73:../../libdaisy/src/hid/disp/display.h ****         = 0;
  74:../../libdaisy/src/hid/disp/display.h **** 
  75:../../libdaisy/src/hid/disp/display.h ****     /**
  76:../../libdaisy/src/hid/disp/display.h ****     Draws an arc around the specified coordinate
  77:../../libdaisy/src/hid/disp/display.h ****     \param x           x Coordinate of the center of the arc
  78:../../libdaisy/src/hid/disp/display.h ****     \param y           y Coordinate of the center of the arc
  79:../../libdaisy/src/hid/disp/display.h ****     \param radius      radius of the arc
  80:../../libdaisy/src/hid/disp/display.h ****     \param start_angle angle where to start the arc
  81:../../libdaisy/src/hid/disp/display.h ****     \param sweep       total angle of the arc
  82:../../libdaisy/src/hid/disp/display.h ****     \param on  on or off
  83:../../libdaisy/src/hid/disp/display.h ****     */
  84:../../libdaisy/src/hid/disp/display.h ****     virtual void DrawArc(uint_fast8_t x,
ARM GAS  C:\Users\VINCIU~1\AppData\Local\Temp\ccA1pwKF.s 			page 14


  85:../../libdaisy/src/hid/disp/display.h ****                          uint_fast8_t y,
  86:../../libdaisy/src/hid/disp/display.h ****                          uint_fast8_t radius,
  87:../../libdaisy/src/hid/disp/display.h ****                          int_fast16_t start_angle,
  88:../../libdaisy/src/hid/disp/display.h ****                          int_fast16_t sweep,
  89:../../libdaisy/src/hid/disp/display.h ****                          bool         on)
  90:../../libdaisy/src/hid/disp/display.h ****         = 0;
  91:../../libdaisy/src/hid/disp/display.h **** 
  92:../../libdaisy/src/hid/disp/display.h ****     /**
  93:../../libdaisy/src/hid/disp/display.h ****     Draws a circle around the specified coordinate
  94:../../libdaisy/src/hid/disp/display.h ****     \param x           x Coordinate of the center of the circle
  95:../../libdaisy/src/hid/disp/display.h ****     \param y           y Coordinate of the center of the circle
  96:../../libdaisy/src/hid/disp/display.h ****     \param radius      radius of the circle
  97:../../libdaisy/src/hid/disp/display.h ****     \param on  on or off
  98:../../libdaisy/src/hid/disp/display.h ****     */
  99:../../libdaisy/src/hid/disp/display.h ****     void
 100:../../libdaisy/src/hid/disp/display.h ****     DrawCircle(uint_fast8_t x, uint_fast8_t y, uint_fast8_t radius, bool on)
 101:../../libdaisy/src/hid/disp/display.h ****     {
 102:../../libdaisy/src/hid/disp/display.h ****         DrawArc(x, y, radius, 0, 360, on);
 103:../../libdaisy/src/hid/disp/display.h ****     };
 104:../../libdaisy/src/hid/disp/display.h **** 
 105:../../libdaisy/src/hid/disp/display.h ****     /** 
 106:../../libdaisy/src/hid/disp/display.h ****     Writes the character with the specific FontDef
 107:../../libdaisy/src/hid/disp/display.h ****     to the display buffer at the current Cursor position.
 108:../../libdaisy/src/hid/disp/display.h ****     \param ch character to be written
 109:../../libdaisy/src/hid/disp/display.h ****     \param font font to be written in
 110:../../libdaisy/src/hid/disp/display.h ****     \param on    on or off
 111:../../libdaisy/src/hid/disp/display.h ****     \return &
 112:../../libdaisy/src/hid/disp/display.h ****     */
 113:../../libdaisy/src/hid/disp/display.h ****     virtual char WriteChar(char ch, FontDef font, bool on) = 0;
 114:../../libdaisy/src/hid/disp/display.h **** 
 115:../../libdaisy/src/hid/disp/display.h ****     /** 
 116:../../libdaisy/src/hid/disp/display.h ****     Similar to WriteChar, except it will handle an entire String.
 117:../../libdaisy/src/hid/disp/display.h ****     Wrapping does not happen automatically, so the width
 118:../../libdaisy/src/hid/disp/display.h ****     of the string must be kept within the dimensions of the screen.
 119:../../libdaisy/src/hid/disp/display.h ****     \param str string to be written
 120:../../libdaisy/src/hid/disp/display.h ****     \param font font to use
 121:../../libdaisy/src/hid/disp/display.h ****     \param on  on or off
 122:../../libdaisy/src/hid/disp/display.h ****     \return &
 123:../../libdaisy/src/hid/disp/display.h ****     */
 124:../../libdaisy/src/hid/disp/display.h ****     virtual char WriteString(const char* str, FontDef font, bool on) = 0;
 125:../../libdaisy/src/hid/disp/display.h **** 
 126:../../libdaisy/src/hid/disp/display.h ****     /** 
 127:../../libdaisy/src/hid/disp/display.h ****     Moves the 'Cursor' position used for WriteChar, and WriteStr to the specified coordinate.
 128:../../libdaisy/src/hid/disp/display.h ****     \param x x pos
 129:../../libdaisy/src/hid/disp/display.h ****     \param y y pos
 130:../../libdaisy/src/hid/disp/display.h ****     */
 131:../../libdaisy/src/hid/disp/display.h ****     void SetCursor(uint16_t x, uint16_t y)
 132:../../libdaisy/src/hid/disp/display.h ****     {
 133:../../libdaisy/src/hid/disp/display.h ****         currentX_ = (x >= Width()) ? Width() - 1 : x;
 134:../../libdaisy/src/hid/disp/display.h ****         currentY_ = (y >= Height()) ? Height() - 1 : y;
 135:../../libdaisy/src/hid/disp/display.h ****     }
 136:../../libdaisy/src/hid/disp/display.h **** 
 137:../../libdaisy/src/hid/disp/display.h ****     /** 
 138:../../libdaisy/src/hid/disp/display.h ****     Writes the current display buffer to the OLED device using SPI or I2C depending on 
 139:../../libdaisy/src/hid/disp/display.h ****     how the object was initialized.
 140:../../libdaisy/src/hid/disp/display.h ****     */
 141:../../libdaisy/src/hid/disp/display.h ****     virtual void Update() = 0;
ARM GAS  C:\Users\VINCIU~1\AppData\Local\Temp\ccA1pwKF.s 			page 15


 142:../../libdaisy/src/hid/disp/display.h **** 
 143:../../libdaisy/src/hid/disp/display.h ****   protected:
 144:../../libdaisy/src/hid/disp/display.h ****     uint16_t currentX_;
 145:../../libdaisy/src/hid/disp/display.h ****     uint16_t currentY_;
 146:../../libdaisy/src/hid/disp/display.h **** };
 147:../../libdaisy/src/hid/disp/display.h **** 
 148:../../libdaisy/src/hid/disp/display.h **** /** This class is intended as a intermediary class for your actual implementation of the OneBitGrap
 149:../../libdaisy/src/hid/disp/display.h ****  *  interface. It uses the CRTP design pattern where the template argument is the child class. It p
 150:../../libdaisy/src/hid/disp/display.h ****  *  implementations for most of the functions, except DrawPixel(), Update() and Fill(), which you'l
 151:../../libdaisy/src/hid/disp/display.h ****  *  to provide in your child class.
 152:../../libdaisy/src/hid/disp/display.h ****  *  The main goal of this class is to provide common drawing functions without relying on massive a
 153:../../libdaisy/src/hid/disp/display.h ****  *  virtual function calls that would result in a performance loss. To achieve this, any drawing fu
 154:../../libdaisy/src/hid/disp/display.h ****  *  is implemented here and internally calls other drawing functions (e.g. DrawRect() which interna
 155:../../libdaisy/src/hid/disp/display.h ****  *  DrawPixel() and DrawLine()) makes these calls via the qualified name of these functions to expl
 156:../../libdaisy/src/hid/disp/display.h ****  *  suppress the virtual dispatch mechanism like this:
 157:../../libdaisy/src/hid/disp/display.h ****  * 
 158:../../libdaisy/src/hid/disp/display.h ****  *      ChildType::DrawPixel(...); // no virtual function call; direct call into the child class fu
 159:../../libdaisy/src/hid/disp/display.h ****  *  
 160:../../libdaisy/src/hid/disp/display.h ****  *  To create a custom OneBitGraphicsDisplay implementation, you can 
 161:../../libdaisy/src/hid/disp/display.h ****  *  A) inherit from OneBitGraphicsDisplay directly and provide all the drawing functions yourself
 162:../../libdaisy/src/hid/disp/display.h ****  *  B) Inherit from OneBitGraphicsDisplayImpl and only provide DrawPixel(), Fill() and Update()
 163:../../libdaisy/src/hid/disp/display.h ****  *     like this:
 164:../../libdaisy/src/hid/disp/display.h ****  *  
 165:../../libdaisy/src/hid/disp/display.h ****  *      class MyDisplayClass : public OneBitGraphicsDisplayImpl<MyDisplayClass> 
 166:../../libdaisy/src/hid/disp/display.h ****  *      {
 167:../../libdaisy/src/hid/disp/display.h ****  *      public:
 168:../../libdaisy/src/hid/disp/display.h ****  *          void Fill() override { ... };
 169:../../libdaisy/src/hid/disp/display.h ****  *          void DrawPixel(uint_fast8_t x, uint_fast8_t y, bool on) override { ... };
 170:../../libdaisy/src/hid/disp/display.h ****  *          void Update() override { ... }
 171:../../libdaisy/src/hid/disp/display.h ****  *      };
 172:../../libdaisy/src/hid/disp/display.h ****  *  
 173:../../libdaisy/src/hid/disp/display.h ****  */
 174:../../libdaisy/src/hid/disp/display.h **** template <class ChildType>
 175:../../libdaisy/src/hid/disp/display.h **** class OneBitGraphicsDisplayImpl : public OneBitGraphicsDisplay
 176:../../libdaisy/src/hid/disp/display.h **** {
 177:../../libdaisy/src/hid/disp/display.h ****   public:
 178:../../libdaisy/src/hid/disp/display.h ****     OneBitGraphicsDisplayImpl() {}
 179:../../libdaisy/src/hid/disp/display.h ****     virtual ~OneBitGraphicsDisplayImpl() {}
 180:../../libdaisy/src/hid/disp/display.h **** 
 181:../../libdaisy/src/hid/disp/display.h ****     void DrawLine(uint_fast8_t x1,
 182:../../libdaisy/src/hid/disp/display.h ****                   uint_fast8_t y1,
 183:../../libdaisy/src/hid/disp/display.h ****                   uint_fast8_t x2,
 184:../../libdaisy/src/hid/disp/display.h ****                   uint_fast8_t y2,
 185:../../libdaisy/src/hid/disp/display.h ****                   bool         on) override
 186:../../libdaisy/src/hid/disp/display.h ****     {
 187:../../libdaisy/src/hid/disp/display.h ****         int_fast16_t deltaX = abs((int_fast16_t)x2 - (int_fast16_t)x1);
 188:../../libdaisy/src/hid/disp/display.h ****         int_fast16_t deltaY = abs((int_fast16_t)y2 - (int_fast16_t)y1);
 189:../../libdaisy/src/hid/disp/display.h ****         int_fast16_t signX  = ((x1 < x2) ? 1 : -1);
 190:../../libdaisy/src/hid/disp/display.h ****         int_fast16_t signY  = ((y1 < y2) ? 1 : -1);
 191:../../libdaisy/src/hid/disp/display.h ****         int_fast16_t error  = deltaX - deltaY;
 192:../../libdaisy/src/hid/disp/display.h ****         int_fast16_t error2;
 193:../../libdaisy/src/hid/disp/display.h **** 
 194:../../libdaisy/src/hid/disp/display.h ****         // If we write "ChildType::DrawPixel(x2, y2, on);", we end up with
 195:../../libdaisy/src/hid/disp/display.h ****         // all sorts of weird compiler errors when the Child class is a template
 196:../../libdaisy/src/hid/disp/display.h ****         // class. The only way around this is to use this very verbose syntax:
 197:../../libdaisy/src/hid/disp/display.h ****         ((ChildType*)(this))->ChildType::DrawPixel(x2, y2, on);
 198:../../libdaisy/src/hid/disp/display.h **** 
ARM GAS  C:\Users\VINCIU~1\AppData\Local\Temp\ccA1pwKF.s 			page 16


 199:../../libdaisy/src/hid/disp/display.h ****         while((x1 != x2) || (y1 != y2))
 200:../../libdaisy/src/hid/disp/display.h ****         {
 201:../../libdaisy/src/hid/disp/display.h ****             ((ChildType*)(this))->ChildType::DrawPixel(x1, y1, on);
 202:../../libdaisy/src/hid/disp/display.h ****             error2 = error * 2;
 203:../../libdaisy/src/hid/disp/display.h ****             if(error2 > -deltaY)
 204:../../libdaisy/src/hid/disp/display.h ****             {
 205:../../libdaisy/src/hid/disp/display.h ****                 error -= deltaY;
 206:../../libdaisy/src/hid/disp/display.h ****                 x1 += signX;
 207:../../libdaisy/src/hid/disp/display.h ****             }
 208:../../libdaisy/src/hid/disp/display.h **** 
 209:../../libdaisy/src/hid/disp/display.h ****             if(error2 < deltaX)
 210:../../libdaisy/src/hid/disp/display.h ****             {
 211:../../libdaisy/src/hid/disp/display.h ****                 error += deltaX;
 212:../../libdaisy/src/hid/disp/display.h ****                 y1 += signY;
 213:../../libdaisy/src/hid/disp/display.h ****             }
 214:../../libdaisy/src/hid/disp/display.h ****         }
 215:../../libdaisy/src/hid/disp/display.h ****     }
 216:../../libdaisy/src/hid/disp/display.h **** 
 217:../../libdaisy/src/hid/disp/display.h ****     void DrawRect(uint_fast8_t x1,
 218:../../libdaisy/src/hid/disp/display.h ****                   uint_fast8_t y1,
 219:../../libdaisy/src/hid/disp/display.h ****                   uint_fast8_t x2,
 220:../../libdaisy/src/hid/disp/display.h ****                   uint_fast8_t y2,
 221:../../libdaisy/src/hid/disp/display.h ****                   bool         on,
 222:../../libdaisy/src/hid/disp/display.h ****                   bool         fill = false) override
 223:../../libdaisy/src/hid/disp/display.h ****     {
 224:../../libdaisy/src/hid/disp/display.h ****         if(fill)
 225:../../libdaisy/src/hid/disp/display.h ****         {
 226:../../libdaisy/src/hid/disp/display.h ****             for(uint_fast8_t x = x1; x <= x2; x++)
 227:../../libdaisy/src/hid/disp/display.h ****             {
 228:../../libdaisy/src/hid/disp/display.h ****                 for(uint_fast8_t y = y1; y <= y2; y++)
 229:../../libdaisy/src/hid/disp/display.h ****                 {
 230:../../libdaisy/src/hid/disp/display.h ****                     ((ChildType*)(this))->ChildType::DrawPixel(x, y, on);
 231:../../libdaisy/src/hid/disp/display.h ****                 }
 232:../../libdaisy/src/hid/disp/display.h ****             }
 233:../../libdaisy/src/hid/disp/display.h ****         }
 234:../../libdaisy/src/hid/disp/display.h ****         else
 235:../../libdaisy/src/hid/disp/display.h ****         {
 236:../../libdaisy/src/hid/disp/display.h ****             ((ChildType*)(this))->ChildType::DrawLine(x1, y1, x2, y1, on);
 237:../../libdaisy/src/hid/disp/display.h ****             ((ChildType*)(this))->ChildType::DrawLine(x2, y1, x2, y2, on);
 238:../../libdaisy/src/hid/disp/display.h ****             ((ChildType*)(this))->ChildType::DrawLine(x2, y2, x1, y2, on);
 239:../../libdaisy/src/hid/disp/display.h ****             ((ChildType*)(this))->ChildType::DrawLine(x1, y2, x1, y1, on);
 240:../../libdaisy/src/hid/disp/display.h ****         }
 241:../../libdaisy/src/hid/disp/display.h ****     }
 242:../../libdaisy/src/hid/disp/display.h **** 
 243:../../libdaisy/src/hid/disp/display.h ****     void DrawArc(uint_fast8_t x,
 244:../../libdaisy/src/hid/disp/display.h ****                  uint_fast8_t y,
 245:../../libdaisy/src/hid/disp/display.h ****                  uint_fast8_t radius,
 246:../../libdaisy/src/hid/disp/display.h ****                  int_fast16_t start_angle,
 247:../../libdaisy/src/hid/disp/display.h ****                  int_fast16_t sweep,
 248:../../libdaisy/src/hid/disp/display.h ****                  bool         on) override
 249:../../libdaisy/src/hid/disp/display.h ****     {
 250:../../libdaisy/src/hid/disp/display.h ****         // Values to calculate the circle
 251:../../libdaisy/src/hid/disp/display.h ****         int_fast16_t t_x, t_y, err, e2;
 252:../../libdaisy/src/hid/disp/display.h **** 
 253:../../libdaisy/src/hid/disp/display.h ****         // Temporary values to speed up comparisons
 254:../../libdaisy/src/hid/disp/display.h ****         float t_sxy, t_syx, t_sxny, t_synx;
 255:../../libdaisy/src/hid/disp/display.h ****         float t_exy, t_eyx, t_exny, t_eynx;
ARM GAS  C:\Users\VINCIU~1\AppData\Local\Temp\ccA1pwKF.s 			page 17


 256:../../libdaisy/src/hid/disp/display.h **** 
 257:../../libdaisy/src/hid/disp/display.h ****         float start_angle_rad, end_angle_rad;
 258:../../libdaisy/src/hid/disp/display.h ****         float start_x, start_y, end_x, end_y;
 259:../../libdaisy/src/hid/disp/display.h **** 
 260:../../libdaisy/src/hid/disp/display.h ****         bool d1, d2, d3, d4;
 261:../../libdaisy/src/hid/disp/display.h **** 
 262:../../libdaisy/src/hid/disp/display.h ****         d1 = d2 = d3 = d4 = true;
 263:../../libdaisy/src/hid/disp/display.h **** 
 264:../../libdaisy/src/hid/disp/display.h ****         bool circle = false;
 265:../../libdaisy/src/hid/disp/display.h **** 
 266:../../libdaisy/src/hid/disp/display.h ****         if(sweep < 0)
 267:../../libdaisy/src/hid/disp/display.h ****         {
 268:../../libdaisy/src/hid/disp/display.h ****             start_angle += sweep;
 269:../../libdaisy/src/hid/disp/display.h ****             sweep = -sweep;
 270:../../libdaisy/src/hid/disp/display.h ****         }
 271:../../libdaisy/src/hid/disp/display.h **** 
 272:../../libdaisy/src/hid/disp/display.h ****         start_angle_rad = deg2rad(start_angle);
 273:../../libdaisy/src/hid/disp/display.h ****         end_angle_rad   = deg2rad(start_angle + sweep);
 274:../../libdaisy/src/hid/disp/display.h **** 
 275:../../libdaisy/src/hid/disp/display.h ****         start_x = cos(start_angle_rad) * radius;
 276:../../libdaisy/src/hid/disp/display.h ****         start_y = -sin(start_angle_rad) * radius;
 277:../../libdaisy/src/hid/disp/display.h ****         end_x   = cos(end_angle_rad) * radius;
 278:../../libdaisy/src/hid/disp/display.h ****         end_y   = -sin(end_angle_rad) * radius;
 279:../../libdaisy/src/hid/disp/display.h **** 
 280:../../libdaisy/src/hid/disp/display.h ****         // Check if start and endpoint are very near
 281:../../libdaisy/src/hid/disp/display.h ****         if((end_x - start_x) * (end_x - start_x)
 282:../../libdaisy/src/hid/disp/display.h ****                + (end_y - start_y) * (end_y - start_y)
 283:../../libdaisy/src/hid/disp/display.h ****            < 2.0f)
 284:../../libdaisy/src/hid/disp/display.h ****         {
 285:../../libdaisy/src/hid/disp/display.h ****             if(sweep > 180)
 286:../../libdaisy/src/hid/disp/display.h ****                 circle = true;
 287:../../libdaisy/src/hid/disp/display.h ****             else
 288:../../libdaisy/src/hid/disp/display.h ****                 // Nothing to draw
 289:../../libdaisy/src/hid/disp/display.h ****                 return;
 290:../../libdaisy/src/hid/disp/display.h ****         }
 291:../../libdaisy/src/hid/disp/display.h **** 
 292:../../libdaisy/src/hid/disp/display.h ****         t_x = -radius;
 293:../../libdaisy/src/hid/disp/display.h ****         t_y = 0;
 294:../../libdaisy/src/hid/disp/display.h ****         err = 2 - 2 * radius;
 295:../../libdaisy/src/hid/disp/display.h **** 
 296:../../libdaisy/src/hid/disp/display.h ****         do
 297:../../libdaisy/src/hid/disp/display.h ****         {
 298:../../libdaisy/src/hid/disp/display.h ****             if(!circle)
 299:../../libdaisy/src/hid/disp/display.h ****             {
 300:../../libdaisy/src/hid/disp/display.h ****                 t_sxy  = start_x * t_y;
 301:../../libdaisy/src/hid/disp/display.h ****                 t_syx  = start_y * t_x;
 302:../../libdaisy/src/hid/disp/display.h ****                 t_sxny = start_x * -t_y;
 303:../../libdaisy/src/hid/disp/display.h ****                 t_synx = start_y * -t_x;
 304:../../libdaisy/src/hid/disp/display.h ****                 t_exy  = end_x * t_y;
 305:../../libdaisy/src/hid/disp/display.h ****                 t_eyx  = end_y * t_x;
 306:../../libdaisy/src/hid/disp/display.h ****                 t_exny = end_x * -t_y;
 307:../../libdaisy/src/hid/disp/display.h ****                 t_eynx = end_y * -t_x;
 308:../../libdaisy/src/hid/disp/display.h **** 
 309:../../libdaisy/src/hid/disp/display.h ****                 if(sweep > 180)
 310:../../libdaisy/src/hid/disp/display.h ****                 {
 311:../../libdaisy/src/hid/disp/display.h ****                     d1 = (t_sxy - t_synx < 0 || t_exy - t_eynx > 0);
 312:../../libdaisy/src/hid/disp/display.h ****                     d2 = (t_sxy - t_syx < 0 || t_exy - t_eyx > 0);
ARM GAS  C:\Users\VINCIU~1\AppData\Local\Temp\ccA1pwKF.s 			page 18


 313:../../libdaisy/src/hid/disp/display.h ****                     d3 = (t_sxny - t_syx < 0 || t_exny - t_eyx > 0);
 314:../../libdaisy/src/hid/disp/display.h ****                     d4 = (t_sxny - t_synx < 0 || t_exny - t_eynx > 0);
 315:../../libdaisy/src/hid/disp/display.h ****                 }
 316:../../libdaisy/src/hid/disp/display.h ****                 else
 317:../../libdaisy/src/hid/disp/display.h ****                 {
 318:../../libdaisy/src/hid/disp/display.h ****                     d1 = (t_sxy - t_synx < 0 && t_exy - t_eynx > 0);
 319:../../libdaisy/src/hid/disp/display.h ****                     d2 = (t_sxy - t_syx < 0 && t_exy - t_eyx > 0);
 320:../../libdaisy/src/hid/disp/display.h ****                     d3 = (t_sxny - t_syx < 0 && t_exny - t_eyx > 0);
 321:../../libdaisy/src/hid/disp/display.h ****                     d4 = (t_sxny - t_synx < 0 && t_exny - t_eynx > 0);
 322:../../libdaisy/src/hid/disp/display.h ****                 }
 323:../../libdaisy/src/hid/disp/display.h ****             }
 324:../../libdaisy/src/hid/disp/display.h **** 
 325:../../libdaisy/src/hid/disp/display.h ****             if(d1)
 326:../../libdaisy/src/hid/disp/display.h ****                 ((ChildType*)(this))
 327:../../libdaisy/src/hid/disp/display.h ****                     ->ChildType::DrawPixel(x - t_x, y + t_y, on);
 328:../../libdaisy/src/hid/disp/display.h ****             if(d2)
 329:../../libdaisy/src/hid/disp/display.h ****                 ((ChildType*)(this))
 330:../../libdaisy/src/hid/disp/display.h ****                     ->ChildType::DrawPixel(x + t_x, y + t_y, on);
 331:../../libdaisy/src/hid/disp/display.h ****             if(d3)
 332:../../libdaisy/src/hid/disp/display.h ****                 ((ChildType*)(this))
 333:../../libdaisy/src/hid/disp/display.h ****                     ->ChildType::DrawPixel(x + t_x, y - t_y, on);
 334:../../libdaisy/src/hid/disp/display.h ****             if(d4)
 335:../../libdaisy/src/hid/disp/display.h ****                 ((ChildType*)(this))
 336:../../libdaisy/src/hid/disp/display.h ****                     ->ChildType::DrawPixel(x - t_x, y - t_y, on);
 337:../../libdaisy/src/hid/disp/display.h **** 
 338:../../libdaisy/src/hid/disp/display.h ****             e2 = err;
 339:../../libdaisy/src/hid/disp/display.h ****             if(e2 <= t_y)
 340:../../libdaisy/src/hid/disp/display.h ****             {
 341:../../libdaisy/src/hid/disp/display.h ****                 t_y++;
 342:../../libdaisy/src/hid/disp/display.h ****                 err = err + (t_y * 2 + 1);
 343:../../libdaisy/src/hid/disp/display.h ****                 if(-t_x == t_y && e2 <= t_x)
 344:../../libdaisy/src/hid/disp/display.h ****                 {
 345:../../libdaisy/src/hid/disp/display.h ****                     e2 = 0;
 346:../../libdaisy/src/hid/disp/display.h ****                 }
 347:../../libdaisy/src/hid/disp/display.h ****             }
 348:../../libdaisy/src/hid/disp/display.h ****             if(e2 > t_x)
 349:../../libdaisy/src/hid/disp/display.h ****             {
 350:../../libdaisy/src/hid/disp/display.h ****                 t_x++;
 351:../../libdaisy/src/hid/disp/display.h ****                 err = err + (t_x * 2 + 1);
 352:../../libdaisy/src/hid/disp/display.h ****             }
 353:../../libdaisy/src/hid/disp/display.h ****         } while(t_x <= 0);
 354:../../libdaisy/src/hid/disp/display.h ****     }
 355:../../libdaisy/src/hid/disp/display.h **** 
 356:../../libdaisy/src/hid/disp/display.h ****     char WriteChar(char ch, FontDef font, bool on) override
 357:../../libdaisy/src/hid/disp/display.h ****     {
 358:../../libdaisy/src/hid/disp/display.h ****         uint32_t i, b, j;
 359:../../libdaisy/src/hid/disp/display.h **** 
 360:../../libdaisy/src/hid/disp/display.h ****         // Check if character is valid
 361:../../libdaisy/src/hid/disp/display.h ****         if(ch < 32 || ch > 126)
 362:../../libdaisy/src/hid/disp/display.h ****             return 0;
 363:../../libdaisy/src/hid/disp/display.h **** 
 364:../../libdaisy/src/hid/disp/display.h ****         // Check remaining space on current line
 365:../../libdaisy/src/hid/disp/display.h ****         if(Width() < (currentX_ + font.FontWidth)
 366:../../libdaisy/src/hid/disp/display.h ****            || Height() < (currentY_ + font.FontHeight))
 367:../../libdaisy/src/hid/disp/display.h ****         {
 368:../../libdaisy/src/hid/disp/display.h ****             // Not enough space on current line
 369:../../libdaisy/src/hid/disp/display.h ****             return 0;
ARM GAS  C:\Users\VINCIU~1\AppData\Local\Temp\ccA1pwKF.s 			page 19


 370:../../libdaisy/src/hid/disp/display.h ****         }
 371:../../libdaisy/src/hid/disp/display.h **** 
 372:../../libdaisy/src/hid/disp/display.h ****         // Use the font to write
 373:../../libdaisy/src/hid/disp/display.h ****         for(i = 0; i < font.FontHeight; i++)
 374:../../libdaisy/src/hid/disp/display.h ****         {
 375:../../libdaisy/src/hid/disp/display.h ****             b = font.data[(ch - 32) * font.FontHeight + i];
 376:../../libdaisy/src/hid/disp/display.h ****             for(j = 0; j < font.FontWidth; j++)
 377:../../libdaisy/src/hid/disp/display.h ****             {
 378:../../libdaisy/src/hid/disp/display.h ****                 if((b << j) & 0x8000)
 379:../../libdaisy/src/hid/disp/display.h ****                 {
 380:../../libdaisy/src/hid/disp/display.h ****                     ((ChildType*)(this))
 381:../../libdaisy/src/hid/disp/display.h ****                         ->ChildType::DrawPixel(
 382:../../libdaisy/src/hid/disp/display.h ****                             currentX_ + j, (currentY_ + i), on);
 383:../../libdaisy/src/hid/disp/display.h ****                 }
 384:../../libdaisy/src/hid/disp/display.h ****                 else
 385:../../libdaisy/src/hid/disp/display.h ****                 {
 386:../../libdaisy/src/hid/disp/display.h ****                     ((ChildType*)(this))
 387:../../libdaisy/src/hid/disp/display.h ****                         ->ChildType::DrawPixel(
 388:../../libdaisy/src/hid/disp/display.h ****                             currentX_ + j, (currentY_ + i), !on);
 389:../../libdaisy/src/hid/disp/display.h ****                 }
 390:../../libdaisy/src/hid/disp/display.h ****             }
 391:../../libdaisy/src/hid/disp/display.h ****         }
 392:../../libdaisy/src/hid/disp/display.h **** 
 393:../../libdaisy/src/hid/disp/display.h ****         // The current space is now taken
 394:../../libdaisy/src/hid/disp/display.h ****         SetCursor(currentX_ + font.FontWidth, currentY_);
 395:../../libdaisy/src/hid/disp/display.h **** 
 396:../../libdaisy/src/hid/disp/display.h ****         // Return written char for validation
 397:../../libdaisy/src/hid/disp/display.h ****         return ch;
 398:../../libdaisy/src/hid/disp/display.h ****     }
 399:../../libdaisy/src/hid/disp/display.h **** 
 400:../../libdaisy/src/hid/disp/display.h ****     char WriteString(const char* str, FontDef font, bool on) override
 396              		.loc 5 400 10 view -0
 397              		.cfi_startproc
 398              		@ args = 4, pretend = 0, frame = 32
 399              		@ frame_needed = 0, uses_anonymous_args = 0
 400              		.loc 5 400 10 is_stmt 0 view .LVU124
 401 0000 2DE9F04F 		push	{r4, r5, r6, r7, r8, r9, r10, fp, lr}
 402              		.cfi_def_cfa_offset 36
 403              		.cfi_offset 4, -36
 404              		.cfi_offset 5, -32
 405              		.cfi_offset 6, -28
 406              		.cfi_offset 7, -24
 407              		.cfi_offset 8, -20
 408              		.cfi_offset 9, -16
 409              		.cfi_offset 10, -12
 410              		.cfi_offset 11, -8
 411              		.cfi_offset 14, -4
 412 0004 89B0     		sub	sp, sp, #36
 413              		.cfi_def_cfa_offset 72
 414              		.loc 5 400 10 view .LVU125
 415 0006 08AC     		add	r4, sp, #32
 416 0008 9DF84870 		ldrb	r7, [sp, #72]	@ zero_extendqisi2
 417 000c 0191     		str	r1, [sp, #4]
 418 000e 04E90C00 		stmdb	r4, {r2, r3}
 401:../../libdaisy/src/hid/disp/display.h ****     {
 402:../../libdaisy/src/hid/disp/display.h ****         // Write until null-byte
 403:../../libdaisy/src/hid/disp/display.h ****         while(*str)
ARM GAS  C:\Users\VINCIU~1\AppData\Local\Temp\ccA1pwKF.s 			page 20


 419              		.loc 5 403 9 is_stmt 1 view .LVU126
 420 0012 0B78     		ldrb	r3, [r1]	@ zero_extendqisi2
 421 0014 002B     		cmp	r3, #0
 422 0016 00F0AB80 		beq	.L47
 423 001a 1A46     		mov	r2, r3
 424 001c 9DF81880 		ldrb	r8, [sp, #24]	@ zero_extendqisi2
 425 0020 9DF81930 		ldrb	r3, [sp, #25]	@ zero_extendqisi2
 426 0024 0646     		mov	r6, r0
 427 0026 4546     		mov	r5, r8
 428 0028 9046     		mov	r8, r2
 429 002a 0393     		str	r3, [sp, #12]
 430 002c 079B     		ldr	r3, [sp, #28]
 431 002e 0593     		str	r3, [sp, #20]
 432              	.LVL19:
 433              	.L48:
 434              	.LBB312:
 435              	.LBI312:
 356:../../libdaisy/src/hid/disp/display.h ****     {
 436              		.loc 5 356 10 view .LVU127
 437              	.LBB313:
 361:../../libdaisy/src/hid/disp/display.h ****             return 0;
 438              		.loc 5 361 20 is_stmt 0 view .LVU128
 439 0030 A8F12004 		sub	r4, r8, #32
 361:../../libdaisy/src/hid/disp/display.h ****             return 0;
 440              		.loc 5 361 9 view .LVU129
 441 0034 E3B2     		uxtb	r3, r4
 442 0036 5E2B     		cmp	r3, #94
 443 0038 00F29E80 		bhi	.L29
 365:../../libdaisy/src/hid/disp/display.h ****            || Height() < (currentY_ + font.FontHeight))
 444              		.loc 5 365 17 view .LVU130
 445 003c 3368     		ldr	r3, [r6]
 446 003e 5E4A     		ldr	r2, .L69
 447 0040 DB68     		ldr	r3, [r3, #12]
 448 0042 9342     		cmp	r3, r2
 449 0044 40F09B80 		bne	.L62
 450 0048 8020     		movs	r0, #128
 451              	.L28:
 365:../../libdaisy/src/hid/disp/display.h ****            || Height() < (currentY_ + font.FontHeight))
 452              		.loc 5 365 23 view .LVU131
 453 004a B388     		ldrh	r3, [r6, #4]
 365:../../libdaisy/src/hid/disp/display.h ****            || Height() < (currentY_ + font.FontHeight))
 454              		.loc 5 365 33 view .LVU132
 455 004c 2B44     		add	r3, r3, r5
 366:../../libdaisy/src/hid/disp/display.h ****         {
 456              		.loc 5 366 12 view .LVU133
 457 004e 8342     		cmp	r3, r0
 458 0050 00F39280 		bgt	.L29
 366:../../libdaisy/src/hid/disp/display.h ****         {
 459              		.loc 5 366 21 view .LVU134
 460 0054 3368     		ldr	r3, [r6]
 461 0056 594A     		ldr	r2, .L69+4
 462 0058 9B68     		ldr	r3, [r3, #8]
 463 005a 9342     		cmp	r3, r2
 464 005c 40F09280 		bne	.L63
 465 0060 4020     		movs	r0, #64
 466              	.L30:
 366:../../libdaisy/src/hid/disp/display.h ****         {
ARM GAS  C:\Users\VINCIU~1\AppData\Local\Temp\ccA1pwKF.s 			page 21


 467              		.loc 5 366 27 view .LVU135
 468 0062 F188     		ldrh	r1, [r6, #6]
 366:../../libdaisy/src/hid/disp/display.h ****         {
 469              		.loc 5 366 37 view .LVU136
 470 0064 039A     		ldr	r2, [sp, #12]
 366:../../libdaisy/src/hid/disp/display.h ****         {
 471              		.loc 5 366 27 view .LVU137
 472 0066 0291     		str	r1, [sp, #8]
 366:../../libdaisy/src/hid/disp/display.h ****         {
 473              		.loc 5 366 37 view .LVU138
 474 0068 8B18     		adds	r3, r1, r2
 366:../../libdaisy/src/hid/disp/display.h ****         {
 475              		.loc 5 366 12 view .LVU139
 476 006a 8342     		cmp	r3, r0
 477 006c 00F38480 		bgt	.L29
 478              	.LVL20:
 373:../../libdaisy/src/hid/disp/display.h ****         {
 479              		.loc 5 373 22 is_stmt 1 view .LVU140
 480 0070 002A     		cmp	r2, #0
 481 0072 00F09180 		beq	.L31
 375:../../libdaisy/src/hid/disp/display.h ****             for(j = 0; j < font.FontWidth; j++)
 482              		.loc 5 375 37 is_stmt 0 view .LVU141
 483 0076 02FB04F4 		mul	r4, r2, r4
 484 007a 6FF00049 		mvn	r9, #-2147483648
 485 007e 059B     		ldr	r3, [sp, #20]
 486 0080 A144     		add	r9, r9, r4
 487 0082 1444     		add	r4, r4, r2
 394:../../libdaisy/src/hid/disp/display.h **** 
 488              		.loc 5 394 19 view .LVU142
 489 0084 B6F804B0 		ldrh	fp, [r6, #4]
 490 0088 03EB4909 		add	r9, r3, r9, lsl #1
 491 008c 023B     		subs	r3, r3, #2
 492 008e CDF81080 		str	r8, [sp, #16]
 493 0092 03EB4403 		add	r3, r3, r4, lsl #1
 494 0096 0C46     		mov	r4, r1
 495 0098 9A46     		mov	r10, r3
 496              	.LVL21:
 497              	.L34:
 375:../../libdaisy/src/hid/disp/display.h ****             for(j = 0; j < font.FontWidth; j++)
 498              		.loc 5 375 15 view .LVU143
 499 009a 39F802CF 		ldrh	ip, [r9, #2]!
 500              	.LVL22:
 376:../../libdaisy/src/hid/disp/display.h ****             {
 501              		.loc 5 376 26 is_stmt 1 view .LVU144
 502 009e A5B3     		cbz	r5, .L39
 503              	.LBB314:
 504              	.LBB315:
 505              	.LBB316:
 506              	.LBB317:
 507              	.LBB318:
 508              		.file 6 "../../libdaisy/src/dev/oled_ssd130x.h"
   1:../../libdaisy/src/dev/oled_ssd130x.h **** #pragma once
   2:../../libdaisy/src/dev/oled_ssd130x.h **** #ifndef SA_OLED_SSD130X_H
   3:../../libdaisy/src/dev/oled_ssd130x.h **** #define SA_OLED_SSD130X_H /**< & */
   4:../../libdaisy/src/dev/oled_ssd130x.h **** 
   5:../../libdaisy/src/dev/oled_ssd130x.h **** #include "per/i2c.h"
   6:../../libdaisy/src/dev/oled_ssd130x.h **** #include "per/spi.h"
ARM GAS  C:\Users\VINCIU~1\AppData\Local\Temp\ccA1pwKF.s 			page 22


   7:../../libdaisy/src/dev/oled_ssd130x.h **** #include "per/gpio.h"
   8:../../libdaisy/src/dev/oled_ssd130x.h **** #include "sys/system.h"
   9:../../libdaisy/src/dev/oled_ssd130x.h **** 
  10:../../libdaisy/src/dev/oled_ssd130x.h **** namespace daisy
  11:../../libdaisy/src/dev/oled_ssd130x.h **** {
  12:../../libdaisy/src/dev/oled_ssd130x.h **** /**
  13:../../libdaisy/src/dev/oled_ssd130x.h ****  * I2C Transport for SSD1306 / SSD1309 OLED display devices
  14:../../libdaisy/src/dev/oled_ssd130x.h ****  */
  15:../../libdaisy/src/dev/oled_ssd130x.h **** class SSD130xI2CTransport
  16:../../libdaisy/src/dev/oled_ssd130x.h **** {
  17:../../libdaisy/src/dev/oled_ssd130x.h ****   public:
  18:../../libdaisy/src/dev/oled_ssd130x.h ****     struct Config
  19:../../libdaisy/src/dev/oled_ssd130x.h ****     {
  20:../../libdaisy/src/dev/oled_ssd130x.h ****         I2CHandle::Config i2c_config;
  21:../../libdaisy/src/dev/oled_ssd130x.h ****         uint8_t           i2c_address;
  22:../../libdaisy/src/dev/oled_ssd130x.h ****         void              Defaults()
  23:../../libdaisy/src/dev/oled_ssd130x.h ****         {
  24:../../libdaisy/src/dev/oled_ssd130x.h ****             i2c_config.periph         = I2CHandle::Config::Peripheral::I2C_1;
  25:../../libdaisy/src/dev/oled_ssd130x.h ****             i2c_config.speed          = I2CHandle::Config::Speed::I2C_1MHZ;
  26:../../libdaisy/src/dev/oled_ssd130x.h ****             i2c_config.mode           = I2CHandle::Config::Mode::I2C_MASTER;
  27:../../libdaisy/src/dev/oled_ssd130x.h ****             i2c_config.pin_config.scl = {DSY_GPIOB, 8};
  28:../../libdaisy/src/dev/oled_ssd130x.h ****             i2c_config.pin_config.sda = {DSY_GPIOB, 9};
  29:../../libdaisy/src/dev/oled_ssd130x.h ****             i2c_address               = 0x3C;
  30:../../libdaisy/src/dev/oled_ssd130x.h ****         }
  31:../../libdaisy/src/dev/oled_ssd130x.h ****     };
  32:../../libdaisy/src/dev/oled_ssd130x.h ****     void Init(const Config& config)
  33:../../libdaisy/src/dev/oled_ssd130x.h ****     {
  34:../../libdaisy/src/dev/oled_ssd130x.h ****         i2c_address_ = config.i2c_address;
  35:../../libdaisy/src/dev/oled_ssd130x.h ****         i2c_.Init(config.i2c_config);
  36:../../libdaisy/src/dev/oled_ssd130x.h ****     };
  37:../../libdaisy/src/dev/oled_ssd130x.h ****     void SendCommand(uint8_t cmd)
  38:../../libdaisy/src/dev/oled_ssd130x.h ****     {
  39:../../libdaisy/src/dev/oled_ssd130x.h ****         uint8_t buf[2] = {0X00, cmd};
  40:../../libdaisy/src/dev/oled_ssd130x.h ****         i2c_.TransmitBlocking(i2c_address_, buf, 2, 1000);
  41:../../libdaisy/src/dev/oled_ssd130x.h ****     };
  42:../../libdaisy/src/dev/oled_ssd130x.h **** 
  43:../../libdaisy/src/dev/oled_ssd130x.h ****     void SendData(uint8_t* buff, size_t size)
  44:../../libdaisy/src/dev/oled_ssd130x.h ****     {
  45:../../libdaisy/src/dev/oled_ssd130x.h ****         for(size_t i = 0; i < size; i++)
  46:../../libdaisy/src/dev/oled_ssd130x.h ****         {
  47:../../libdaisy/src/dev/oled_ssd130x.h ****             uint8_t buf[2] = {0X40, buff[i]};
  48:../../libdaisy/src/dev/oled_ssd130x.h ****             i2c_.TransmitBlocking(i2c_address_, buf, 2, 1000);
  49:../../libdaisy/src/dev/oled_ssd130x.h ****         }
  50:../../libdaisy/src/dev/oled_ssd130x.h ****     };
  51:../../libdaisy/src/dev/oled_ssd130x.h **** 
  52:../../libdaisy/src/dev/oled_ssd130x.h ****   private:
  53:../../libdaisy/src/dev/oled_ssd130x.h ****     daisy::I2CHandle i2c_;
  54:../../libdaisy/src/dev/oled_ssd130x.h ****     uint8_t          i2c_address_;
  55:../../libdaisy/src/dev/oled_ssd130x.h **** };
  56:../../libdaisy/src/dev/oled_ssd130x.h **** 
  57:../../libdaisy/src/dev/oled_ssd130x.h **** /**
  58:../../libdaisy/src/dev/oled_ssd130x.h ****  * 4 Wire SPI Transport for SSD1306 / SSD1309 OLED display devices
  59:../../libdaisy/src/dev/oled_ssd130x.h ****  */
  60:../../libdaisy/src/dev/oled_ssd130x.h **** class SSD130x4WireSpiTransport
  61:../../libdaisy/src/dev/oled_ssd130x.h **** {
  62:../../libdaisy/src/dev/oled_ssd130x.h ****   public:
  63:../../libdaisy/src/dev/oled_ssd130x.h ****     struct Config
ARM GAS  C:\Users\VINCIU~1\AppData\Local\Temp\ccA1pwKF.s 			page 23


  64:../../libdaisy/src/dev/oled_ssd130x.h ****     {
  65:../../libdaisy/src/dev/oled_ssd130x.h ****         struct
  66:../../libdaisy/src/dev/oled_ssd130x.h ****         {
  67:../../libdaisy/src/dev/oled_ssd130x.h ****             dsy_gpio_pin dc;    /**< & */
  68:../../libdaisy/src/dev/oled_ssd130x.h ****             dsy_gpio_pin reset; /**< & */
  69:../../libdaisy/src/dev/oled_ssd130x.h ****         } pin_config;
  70:../../libdaisy/src/dev/oled_ssd130x.h ****         void Defaults()
  71:../../libdaisy/src/dev/oled_ssd130x.h ****         {
  72:../../libdaisy/src/dev/oled_ssd130x.h ****             pin_config.dc    = {DSY_GPIOB, 4};
  73:../../libdaisy/src/dev/oled_ssd130x.h ****             pin_config.reset = {DSY_GPIOB, 15};
  74:../../libdaisy/src/dev/oled_ssd130x.h ****         }
  75:../../libdaisy/src/dev/oled_ssd130x.h ****     };
  76:../../libdaisy/src/dev/oled_ssd130x.h ****     void Init(const Config& config)
  77:../../libdaisy/src/dev/oled_ssd130x.h ****     {
  78:../../libdaisy/src/dev/oled_ssd130x.h ****         // Initialize both GPIO
  79:../../libdaisy/src/dev/oled_ssd130x.h ****         pin_dc_.mode = DSY_GPIO_MODE_OUTPUT_PP;
  80:../../libdaisy/src/dev/oled_ssd130x.h ****         pin_dc_.pin  = config.pin_config.dc;
  81:../../libdaisy/src/dev/oled_ssd130x.h ****         dsy_gpio_init(&pin_dc_);
  82:../../libdaisy/src/dev/oled_ssd130x.h ****         pin_reset_.mode = DSY_GPIO_MODE_OUTPUT_PP;
  83:../../libdaisy/src/dev/oled_ssd130x.h ****         pin_reset_.pin  = config.pin_config.reset;
  84:../../libdaisy/src/dev/oled_ssd130x.h ****         dsy_gpio_init(&pin_reset_);
  85:../../libdaisy/src/dev/oled_ssd130x.h ****         // Initialize SPI
  86:../../libdaisy/src/dev/oled_ssd130x.h ****         SpiHandle::Config spi_config;
  87:../../libdaisy/src/dev/oled_ssd130x.h ****         spi_config.periph    = SpiHandle::Config::Peripheral::SPI_1;
  88:../../libdaisy/src/dev/oled_ssd130x.h ****         spi_config.mode      = SpiHandle::Config::Mode::MASTER;
  89:../../libdaisy/src/dev/oled_ssd130x.h ****         spi_config.direction = SpiHandle::Config::Direction::TWO_LINES_TX_ONLY;
  90:../../libdaisy/src/dev/oled_ssd130x.h ****         spi_config.datasize  = 8;
  91:../../libdaisy/src/dev/oled_ssd130x.h ****         spi_config.clock_polarity = SpiHandle::Config::ClockPolarity::LOW;
  92:../../libdaisy/src/dev/oled_ssd130x.h ****         spi_config.clock_phase    = SpiHandle::Config::ClockPhase::ONE_EDGE;
  93:../../libdaisy/src/dev/oled_ssd130x.h ****         spi_config.nss            = SpiHandle::Config::NSS::HARD_OUTPUT;
  94:../../libdaisy/src/dev/oled_ssd130x.h ****         spi_config.baud_prescaler = SpiHandle::Config::BaudPrescaler::PS_8;
  95:../../libdaisy/src/dev/oled_ssd130x.h **** 
  96:../../libdaisy/src/dev/oled_ssd130x.h ****         spi_config.pin_config.sclk = {DSY_GPIOG, 11};
  97:../../libdaisy/src/dev/oled_ssd130x.h ****         spi_config.pin_config.miso = {DSY_GPIOX, 0};
  98:../../libdaisy/src/dev/oled_ssd130x.h ****         spi_config.pin_config.mosi = {DSY_GPIOB, 5};
  99:../../libdaisy/src/dev/oled_ssd130x.h ****         spi_config.pin_config.nss  = {DSY_GPIOG, 10};
 100:../../libdaisy/src/dev/oled_ssd130x.h **** 
 101:../../libdaisy/src/dev/oled_ssd130x.h ****         spi_.Init(spi_config);
 102:../../libdaisy/src/dev/oled_ssd130x.h **** 
 103:../../libdaisy/src/dev/oled_ssd130x.h ****         // Reset and Configure OLED.
 104:../../libdaisy/src/dev/oled_ssd130x.h ****         dsy_gpio_write(&pin_reset_, 0);
 105:../../libdaisy/src/dev/oled_ssd130x.h ****         System::Delay(10);
 106:../../libdaisy/src/dev/oled_ssd130x.h ****         dsy_gpio_write(&pin_reset_, 1);
 107:../../libdaisy/src/dev/oled_ssd130x.h ****         System::Delay(10);
 108:../../libdaisy/src/dev/oled_ssd130x.h ****     };
 109:../../libdaisy/src/dev/oled_ssd130x.h ****     void SendCommand(uint8_t cmd)
 110:../../libdaisy/src/dev/oled_ssd130x.h ****     {
 111:../../libdaisy/src/dev/oled_ssd130x.h ****         dsy_gpio_write(&pin_dc_, 0);
 112:../../libdaisy/src/dev/oled_ssd130x.h ****         spi_.BlockingTransmit(&cmd, 1);
 113:../../libdaisy/src/dev/oled_ssd130x.h ****     };
 114:../../libdaisy/src/dev/oled_ssd130x.h **** 
 115:../../libdaisy/src/dev/oled_ssd130x.h ****     void SendData(uint8_t* buff, size_t size)
 116:../../libdaisy/src/dev/oled_ssd130x.h ****     {
 117:../../libdaisy/src/dev/oled_ssd130x.h ****         dsy_gpio_write(&pin_dc_, 1);
 118:../../libdaisy/src/dev/oled_ssd130x.h ****         spi_.BlockingTransmit(buff, size);
 119:../../libdaisy/src/dev/oled_ssd130x.h ****     };
 120:../../libdaisy/src/dev/oled_ssd130x.h **** 
ARM GAS  C:\Users\VINCIU~1\AppData\Local\Temp\ccA1pwKF.s 			page 24


 121:../../libdaisy/src/dev/oled_ssd130x.h ****   private:
 122:../../libdaisy/src/dev/oled_ssd130x.h ****     SpiHandle spi_;
 123:../../libdaisy/src/dev/oled_ssd130x.h ****     dsy_gpio  pin_reset_;
 124:../../libdaisy/src/dev/oled_ssd130x.h ****     dsy_gpio  pin_dc_;
 125:../../libdaisy/src/dev/oled_ssd130x.h **** };
 126:../../libdaisy/src/dev/oled_ssd130x.h **** 
 127:../../libdaisy/src/dev/oled_ssd130x.h **** 
 128:../../libdaisy/src/dev/oled_ssd130x.h **** /**
 129:../../libdaisy/src/dev/oled_ssd130x.h ****  * A driver implementation for the SSD1306/SSD1309
 130:../../libdaisy/src/dev/oled_ssd130x.h ****  */
 131:../../libdaisy/src/dev/oled_ssd130x.h **** template <size_t width, size_t height, typename Transport>
 132:../../libdaisy/src/dev/oled_ssd130x.h **** class SSD130xDriver
 133:../../libdaisy/src/dev/oled_ssd130x.h **** {
 134:../../libdaisy/src/dev/oled_ssd130x.h ****   public:
 135:../../libdaisy/src/dev/oled_ssd130x.h ****     struct Config
 136:../../libdaisy/src/dev/oled_ssd130x.h ****     {
 137:../../libdaisy/src/dev/oled_ssd130x.h ****         typename Transport::Config transport_config;
 138:../../libdaisy/src/dev/oled_ssd130x.h ****     };
 139:../../libdaisy/src/dev/oled_ssd130x.h **** 
 140:../../libdaisy/src/dev/oled_ssd130x.h ****     void Init(Config config)
 141:../../libdaisy/src/dev/oled_ssd130x.h ****     {
 142:../../libdaisy/src/dev/oled_ssd130x.h ****         transport_.Init(config.transport_config);
 143:../../libdaisy/src/dev/oled_ssd130x.h **** 
 144:../../libdaisy/src/dev/oled_ssd130x.h ****         // Init routine...
 145:../../libdaisy/src/dev/oled_ssd130x.h **** 
 146:../../libdaisy/src/dev/oled_ssd130x.h ****         // Display Off
 147:../../libdaisy/src/dev/oled_ssd130x.h ****         transport_.SendCommand(0xaE);
 148:../../libdaisy/src/dev/oled_ssd130x.h ****         // Dimension dependent commands...
 149:../../libdaisy/src/dev/oled_ssd130x.h ****         switch(height)
 150:../../libdaisy/src/dev/oled_ssd130x.h ****         {
 151:../../libdaisy/src/dev/oled_ssd130x.h ****             case 16:
 152:../../libdaisy/src/dev/oled_ssd130x.h ****                 // Display Clock Divide Ratio
 153:../../libdaisy/src/dev/oled_ssd130x.h ****                 transport_.SendCommand(0xD5);
 154:../../libdaisy/src/dev/oled_ssd130x.h ****                 transport_.SendCommand(0x60);
 155:../../libdaisy/src/dev/oled_ssd130x.h ****                 // Multiplex Ratio
 156:../../libdaisy/src/dev/oled_ssd130x.h ****                 transport_.SendCommand(0xA8);
 157:../../libdaisy/src/dev/oled_ssd130x.h ****                 transport_.SendCommand(0x0F);
 158:../../libdaisy/src/dev/oled_ssd130x.h ****                 // COM Pins
 159:../../libdaisy/src/dev/oled_ssd130x.h ****                 transport_.SendCommand(0xDA);
 160:../../libdaisy/src/dev/oled_ssd130x.h ****                 transport_.SendCommand(0x02);
 161:../../libdaisy/src/dev/oled_ssd130x.h ****                 break;
 162:../../libdaisy/src/dev/oled_ssd130x.h ****             case 32:
 163:../../libdaisy/src/dev/oled_ssd130x.h ****                 // Display Clock Divide Ratio
 164:../../libdaisy/src/dev/oled_ssd130x.h ****                 transport_.SendCommand(0xD5);
 165:../../libdaisy/src/dev/oled_ssd130x.h ****                 transport_.SendCommand(0x80);
 166:../../libdaisy/src/dev/oled_ssd130x.h ****                 // Multiplex Ratio
 167:../../libdaisy/src/dev/oled_ssd130x.h ****                 transport_.SendCommand(0xA8);
 168:../../libdaisy/src/dev/oled_ssd130x.h ****                 transport_.SendCommand(0x1F);
 169:../../libdaisy/src/dev/oled_ssd130x.h ****                 // COM Pins
 170:../../libdaisy/src/dev/oled_ssd130x.h ****                 transport_.SendCommand(0xDA);
 171:../../libdaisy/src/dev/oled_ssd130x.h ****                 if(width == 64)
 172:../../libdaisy/src/dev/oled_ssd130x.h ****                 {
 173:../../libdaisy/src/dev/oled_ssd130x.h ****                     transport_.SendCommand(0x12);
 174:../../libdaisy/src/dev/oled_ssd130x.h ****                 }
 175:../../libdaisy/src/dev/oled_ssd130x.h ****                 else
 176:../../libdaisy/src/dev/oled_ssd130x.h ****                 {
 177:../../libdaisy/src/dev/oled_ssd130x.h ****                     transport_.SendCommand(0x02);
ARM GAS  C:\Users\VINCIU~1\AppData\Local\Temp\ccA1pwKF.s 			page 25


 178:../../libdaisy/src/dev/oled_ssd130x.h ****                 }
 179:../../libdaisy/src/dev/oled_ssd130x.h **** 
 180:../../libdaisy/src/dev/oled_ssd130x.h ****                 break;
 181:../../libdaisy/src/dev/oled_ssd130x.h ****             case 48:
 182:../../libdaisy/src/dev/oled_ssd130x.h ****                 // Display Clock Divide Ratio
 183:../../libdaisy/src/dev/oled_ssd130x.h ****                 transport_.SendCommand(0xD5);
 184:../../libdaisy/src/dev/oled_ssd130x.h ****                 transport_.SendCommand(0x80);
 185:../../libdaisy/src/dev/oled_ssd130x.h ****                 // Multiplex Ratio
 186:../../libdaisy/src/dev/oled_ssd130x.h ****                 transport_.SendCommand(0xA8);
 187:../../libdaisy/src/dev/oled_ssd130x.h ****                 transport_.SendCommand(0x2F);
 188:../../libdaisy/src/dev/oled_ssd130x.h ****                 // COM Pins
 189:../../libdaisy/src/dev/oled_ssd130x.h ****                 transport_.SendCommand(0xDA);
 190:../../libdaisy/src/dev/oled_ssd130x.h ****                 transport_.SendCommand(0x12);
 191:../../libdaisy/src/dev/oled_ssd130x.h ****                 break;
 192:../../libdaisy/src/dev/oled_ssd130x.h ****             default: // 128
 193:../../libdaisy/src/dev/oled_ssd130x.h ****                 // Display Clock Divide Ratio
 194:../../libdaisy/src/dev/oled_ssd130x.h ****                 transport_.SendCommand(0xD5);
 195:../../libdaisy/src/dev/oled_ssd130x.h ****                 transport_.SendCommand(0x80);
 196:../../libdaisy/src/dev/oled_ssd130x.h ****                 // Multiplex Ratio
 197:../../libdaisy/src/dev/oled_ssd130x.h ****                 transport_.SendCommand(0xA8);
 198:../../libdaisy/src/dev/oled_ssd130x.h ****                 transport_.SendCommand(0x3F);
 199:../../libdaisy/src/dev/oled_ssd130x.h ****                 // COM Pins
 200:../../libdaisy/src/dev/oled_ssd130x.h ****                 transport_.SendCommand(0xDA);
 201:../../libdaisy/src/dev/oled_ssd130x.h ****                 transport_.SendCommand(0x12);
 202:../../libdaisy/src/dev/oled_ssd130x.h ****                 break;
 203:../../libdaisy/src/dev/oled_ssd130x.h ****         }
 204:../../libdaisy/src/dev/oled_ssd130x.h **** 
 205:../../libdaisy/src/dev/oled_ssd130x.h ****         // Display Offset
 206:../../libdaisy/src/dev/oled_ssd130x.h ****         transport_.SendCommand(0xD3);
 207:../../libdaisy/src/dev/oled_ssd130x.h ****         transport_.SendCommand(0x00);
 208:../../libdaisy/src/dev/oled_ssd130x.h ****         // Start Line Address
 209:../../libdaisy/src/dev/oled_ssd130x.h ****         transport_.SendCommand(0x40);
 210:../../libdaisy/src/dev/oled_ssd130x.h ****         // Normal Display
 211:../../libdaisy/src/dev/oled_ssd130x.h ****         transport_.SendCommand(0xA6);
 212:../../libdaisy/src/dev/oled_ssd130x.h ****         // All On Resume
 213:../../libdaisy/src/dev/oled_ssd130x.h ****         transport_.SendCommand(0xA4);
 214:../../libdaisy/src/dev/oled_ssd130x.h ****         // Charge Pump
 215:../../libdaisy/src/dev/oled_ssd130x.h ****         transport_.SendCommand(0x8D);
 216:../../libdaisy/src/dev/oled_ssd130x.h ****         transport_.SendCommand(0x14);
 217:../../libdaisy/src/dev/oled_ssd130x.h ****         // Set Segment Remap
 218:../../libdaisy/src/dev/oled_ssd130x.h ****         transport_.SendCommand(0xA1);
 219:../../libdaisy/src/dev/oled_ssd130x.h ****         // COM Output Scan Direction
 220:../../libdaisy/src/dev/oled_ssd130x.h ****         transport_.SendCommand(0xC8);
 221:../../libdaisy/src/dev/oled_ssd130x.h ****         // Contrast Control
 222:../../libdaisy/src/dev/oled_ssd130x.h ****         transport_.SendCommand(0x81);
 223:../../libdaisy/src/dev/oled_ssd130x.h ****         transport_.SendCommand(0x8F);
 224:../../libdaisy/src/dev/oled_ssd130x.h ****         // Pre Charge
 225:../../libdaisy/src/dev/oled_ssd130x.h ****         transport_.SendCommand(0xD9);
 226:../../libdaisy/src/dev/oled_ssd130x.h ****         transport_.SendCommand(0x25);
 227:../../libdaisy/src/dev/oled_ssd130x.h ****         // VCOM Detect
 228:../../libdaisy/src/dev/oled_ssd130x.h ****         transport_.SendCommand(0xDB);
 229:../../libdaisy/src/dev/oled_ssd130x.h ****         transport_.SendCommand(0x34);
 230:../../libdaisy/src/dev/oled_ssd130x.h **** 
 231:../../libdaisy/src/dev/oled_ssd130x.h **** 
 232:../../libdaisy/src/dev/oled_ssd130x.h ****         // Display On
 233:../../libdaisy/src/dev/oled_ssd130x.h ****         transport_.SendCommand(0xAF); //--turn on oled panel
 234:../../libdaisy/src/dev/oled_ssd130x.h ****     };
ARM GAS  C:\Users\VINCIU~1\AppData\Local\Temp\ccA1pwKF.s 			page 26


 235:../../libdaisy/src/dev/oled_ssd130x.h **** 
 236:../../libdaisy/src/dev/oled_ssd130x.h ****     size_t Width() const { return width; };
 237:../../libdaisy/src/dev/oled_ssd130x.h ****     size_t Height() const { return height; };
 238:../../libdaisy/src/dev/oled_ssd130x.h **** 
 239:../../libdaisy/src/dev/oled_ssd130x.h ****     void DrawPixel(uint_fast8_t x, uint_fast8_t y, bool on)
 240:../../libdaisy/src/dev/oled_ssd130x.h ****     {
 241:../../libdaisy/src/dev/oled_ssd130x.h ****         if(x >= width || y >= height)
 242:../../libdaisy/src/dev/oled_ssd130x.h ****             return;
 243:../../libdaisy/src/dev/oled_ssd130x.h ****         if(on)
 244:../../libdaisy/src/dev/oled_ssd130x.h ****             buffer_[x + (y / 8) * width] |= (1 << (y % 8));
 245:../../libdaisy/src/dev/oled_ssd130x.h ****         else
 246:../../libdaisy/src/dev/oled_ssd130x.h ****             buffer_[x + (y / 8) * width] &= ~(1 << (y % 8));
 509              		.loc 6 246 55 is_stmt 0 view .LVU145
 510 00a0 04F00703 		and	r3, r4, #7
 511              		.loc 6 246 49 view .LVU146
 512 00a4 4FF0010E 		mov	lr, #1
 513              		.loc 6 246 28 view .LVU147
 514 00a8 E208     		lsrs	r2, r4, #3
 515 00aa 5946     		mov	r1, fp
 516              		.loc 6 246 49 view .LVU148
 517 00ac 0EFA03FE 		lsl	lr, lr, r3
 518 00b0 0BF11403 		add	r3, fp, #20
 519              		.loc 6 246 42 view .LVU149
 520 00b4 4FFA8EFE 		sxtb	lr, lr
 521 00b8 03EBC212 		add	r2, r3, r2, lsl #7
 522              	.LBE318:
 523              	.LBE317:
 524              	.LBE316:
 525              	.LBE315:
 526              	.LBE314:
 376:../../libdaisy/src/hid/disp/display.h ****             {
 527              		.loc 5 376 19 view .LVU150
 528 00bc 0023     		movs	r3, #0
 529              	.LBB336:
 530              	.LBB331:
 531              	.LBB326:
 532              	.LBB322:
 533              	.LBB319:
 534              		.loc 6 246 42 view .LVU151
 535 00be 6FEA0E08 		mvn	r8, lr
 536 00c2 3244     		add	r2, r2, r6
 537 00c4 0DE0     		b	.L40
 538              	.LVL23:
 539              	.L64:
 540              		.loc 6 246 42 view .LVU152
 541              	.LBE319:
 542              	.LBE322:
 543              	.LBE326:
 544              	.LBE331:
 545              	.LBE336:
 546              	.LBB337:
 547              	.LBI337:
  28:../../libdaisy/src/hid/disp/oled_display.h **** 
  29:../../libdaisy/src/hid/disp/oled_display.h ****     /** 
  30:../../libdaisy/src/hid/disp/oled_display.h ****     Fills the entire display with either on/off.
  31:../../libdaisy/src/hid/disp/oled_display.h ****     \param on Sets on or off.
  32:../../libdaisy/src/hid/disp/oled_display.h ****     */
ARM GAS  C:\Users\VINCIU~1\AppData\Local\Temp\ccA1pwKF.s 			page 27


  33:../../libdaisy/src/hid/disp/oled_display.h ****     void Fill(bool on) override { driver_.Fill(on); }
  34:../../libdaisy/src/hid/disp/oled_display.h **** 
  35:../../libdaisy/src/hid/disp/oled_display.h ****     /**
  36:../../libdaisy/src/hid/disp/oled_display.h ****     Sets the pixel at the specified coordinate to be on/off.
  37:../../libdaisy/src/hid/disp/oled_display.h ****     \param x   x Coordinate
  38:../../libdaisy/src/hid/disp/oled_display.h ****     \param y   y coordinate
  39:../../libdaisy/src/hid/disp/oled_display.h ****     \param on  on or off
  40:../../libdaisy/src/hid/disp/oled_display.h ****     */
  41:../../libdaisy/src/hid/disp/oled_display.h ****     void DrawPixel(uint_fast8_t x, uint_fast8_t y, bool on) override
 548              		.loc 1 41 10 is_stmt 1 view .LVU153
 549              	.LBB338:
 550              	.LBI338:
 239:../../libdaisy/src/dev/oled_ssd130x.h ****     {
 551              		.loc 6 239 10 view .LVU154
 552              	.LBB339:
 241:../../libdaisy/src/dev/oled_ssd130x.h ****             return;
 553              		.loc 6 241 9 is_stmt 0 view .LVU155
 554 00c6 7F29     		cmp	r1, #127
 555 00c8 06D8     		bhi	.L36
 556 00ca 3F2C     		cmp	r4, #63
 557 00cc 04D8     		bhi	.L36
 244:../../libdaisy/src/dev/oled_ssd130x.h ****         else
 558              		.loc 6 244 42 view .LVU156
 559 00ce 1078     		ldrb	r0, [r2]	@ zero_extendqisi2
 243:../../libdaisy/src/dev/oled_ssd130x.h ****             buffer_[x + (y / 8) * width] |= (1 << (y % 8));
 560              		.loc 6 243 9 view .LVU157
 561 00d0 97B1     		cbz	r7, .L38
 562              	.L61:
 243:../../libdaisy/src/dev/oled_ssd130x.h ****             buffer_[x + (y / 8) * width] |= (1 << (y % 8));
 563              		.loc 6 243 9 view .LVU158
 564              	.LBE339:
 565              	.LBE338:
 566              	.LBE337:
 567              	.LBB340:
 568              	.LBB332:
 569              	.LBB327:
 244:../../libdaisy/src/dev/oled_ssd130x.h ****         else
 570              		.loc 6 244 42 view .LVU159
 571 00d2 4EEA0000 		orr	r0, lr, r0
 572 00d6 1070     		strb	r0, [r2]
 573              	.L36:
 574              	.LBE327:
 575              	.LBE332:
 576              	.LBE340:
 376:../../libdaisy/src/hid/disp/display.h ****             {
 577              		.loc 5 376 13 is_stmt 1 view .LVU160
 578 00d8 0133     		adds	r3, r3, #1
 579              	.LVL24:
 376:../../libdaisy/src/hid/disp/display.h ****             {
 580              		.loc 5 376 26 view .LVU161
 581 00da 0132     		adds	r2, r2, #1
 582 00dc 0131     		adds	r1, r1, #1
 583 00de AB42     		cmp	r3, r5
 584 00e0 13D0     		beq	.L39
 585              	.LVL25:
 586              	.L40:
 378:../../libdaisy/src/hid/disp/display.h ****                 {
ARM GAS  C:\Users\VINCIU~1\AppData\Local\Temp\ccA1pwKF.s 			page 28


 587              		.loc 5 378 23 is_stmt 0 view .LVU162
 588 00e2 0CFA03F0 		lsl	r0, ip, r3
 378:../../libdaisy/src/hid/disp/display.h ****                 {
 589              		.loc 5 378 17 view .LVU163
 590 00e6 0004     		lsls	r0, r0, #16
 591 00e8 EDD4     		bmi	.L64
 592              	.LVL26:
 593              	.LBB341:
 594              	.LBI314:
 595              		.loc 1 41 10 is_stmt 1 view .LVU164
 596              	.LBB333:
 597              	.LBI315:
 239:../../libdaisy/src/dev/oled_ssd130x.h ****     {
 598              		.loc 6 239 10 view .LVU165
 599              	.LBB328:
 241:../../libdaisy/src/dev/oled_ssd130x.h ****             return;
 600              		.loc 6 241 9 is_stmt 0 view .LVU166
 601 00ea 7F29     		cmp	r1, #127
 602 00ec F4D8     		bhi	.L36
 603 00ee 3F2C     		cmp	r4, #63
 604 00f0 F2D8     		bhi	.L36
 244:../../libdaisy/src/dev/oled_ssd130x.h ****         else
 605              		.loc 6 244 42 view .LVU167
 606 00f2 1078     		ldrb	r0, [r2]	@ zero_extendqisi2
 243:../../libdaisy/src/dev/oled_ssd130x.h ****             buffer_[x + (y / 8) * width] |= (1 << (y % 8));
 607              		.loc 6 243 9 view .LVU168
 608 00f4 002F     		cmp	r7, #0
 609 00f6 ECD0     		beq	.L61
 610              	.L38:
 611              	.LVL27:
 612              	.LBB323:
 613              	.LBI317:
 239:../../libdaisy/src/dev/oled_ssd130x.h ****     {
 614              		.loc 6 239 10 is_stmt 1 view .LVU169
 239:../../libdaisy/src/dev/oled_ssd130x.h ****     {
 615              		.loc 6 239 10 is_stmt 0 view .LVU170
 616              	.LBE323:
 617              	.LBE328:
 618              	.LBE333:
 619              	.LBE341:
 376:../../libdaisy/src/hid/disp/display.h ****             {
 620              		.loc 5 376 13 view .LVU171
 621 00f8 0133     		adds	r3, r3, #1
 622              	.LVL28:
 623              	.LBB342:
 624              	.LBB334:
 625              	.LBB329:
 626              	.LBB324:
 627              	.LBB320:
 628              		.loc 6 246 42 view .LVU172
 629 00fa 08EA0000 		and	r0, r8, r0
 630              	.LBE320:
 631              	.LBE324:
 632              	.LBE329:
 633              	.LBE334:
 634              	.LBE342:
 376:../../libdaisy/src/hid/disp/display.h ****             {
ARM GAS  C:\Users\VINCIU~1\AppData\Local\Temp\ccA1pwKF.s 			page 29


 635              		.loc 5 376 26 view .LVU173
 636 00fe 0132     		adds	r2, r2, #1
 637 0100 0131     		adds	r1, r1, #1
 638 0102 AB42     		cmp	r3, r5
 639              	.LBB343:
 640              	.LBB335:
 641              	.LBB330:
 642              	.LBB325:
 643              	.LBB321:
 644              		.loc 6 246 42 view .LVU174
 645 0104 02F8010C 		strb	r0, [r2, #-1]
 646              		.loc 6 246 42 view .LVU175
 647              	.LBE321:
 648              	.LBE325:
 649              	.LBE330:
 650              	.LBE335:
 651              	.LBE343:
 376:../../libdaisy/src/hid/disp/display.h ****             {
 652              		.loc 5 376 13 is_stmt 1 view .LVU176
 653              	.LVL29:
 376:../../libdaisy/src/hid/disp/display.h ****             {
 654              		.loc 5 376 26 view .LVU177
 655 0108 EBD1     		bne	.L40
 656              	.LVL30:
 657              	.L39:
 373:../../libdaisy/src/hid/disp/display.h ****         {
 658              		.loc 5 373 9 view .LVU178
 373:../../libdaisy/src/hid/disp/display.h ****         {
 659              		.loc 5 373 22 view .LVU179
 660 010a D145     		cmp	r9, r10
 661 010c 04F10104 		add	r4, r4, #1
 662 0110 C3D1     		bne	.L34
 663 0112 DDF81080 		ldr	r8, [sp, #16]
 664              	.LVL31:
 665              	.L33:
 666              	.LBB344:
 667              	.LBB345:
 133:../../libdaisy/src/hid/disp/display.h ****         currentY_ = (y >= Height()) ? Height() - 1 : y;
 668              		.loc 5 133 33 is_stmt 0 view .LVU180
 669 0116 3268     		ldr	r2, [r6]
 670              	.LBE345:
 671              	.LBE344:
 394:../../libdaisy/src/hid/disp/display.h **** 
 672              		.loc 5 394 18 view .LVU181
 673 0118 0BEB0504 		add	r4, fp, r5
 674 011c 2649     		ldr	r1, .L69
 675              	.LBB350:
 676              	.LBB346:
 133:../../libdaisy/src/hid/disp/display.h ****         currentY_ = (y >= Height()) ? Height() - 1 : y;
 677              		.loc 5 133 33 view .LVU182
 678 011e D368     		ldr	r3, [r2, #12]
 679              	.LBE346:
 680              	.LBE350:
 394:../../libdaisy/src/hid/disp/display.h **** 
 681              		.loc 5 394 18 view .LVU183
 682 0120 A4B2     		uxth	r4, r4
 683              	.LVL32:
ARM GAS  C:\Users\VINCIU~1\AppData\Local\Temp\ccA1pwKF.s 			page 30


 684              	.LBB351:
 685              	.LBI344:
 131:../../libdaisy/src/hid/disp/display.h ****     {
 686              		.loc 5 131 10 is_stmt 1 view .LVU184
 687              	.LBB347:
 133:../../libdaisy/src/hid/disp/display.h ****         currentY_ = (y >= Height()) ? Height() - 1 : y;
 688              		.loc 5 133 9 view .LVU185
 689 0122 8B42     		cmp	r3, r1
 690 0124 34D1     		bne	.L65
 133:../../libdaisy/src/hid/disp/display.h ****         currentY_ = (y >= Height()) ? Height() - 1 : y;
 691              		.loc 5 133 33 is_stmt 0 view .LVU186
 692 0126 8020     		movs	r0, #128
 693              	.L41:
 133:../../libdaisy/src/hid/disp/display.h ****         currentY_ = (y >= Height()) ? Height() - 1 : y;
 694              		.loc 5 133 19 view .LVU187
 695 0128 8442     		cmp	r4, r0
 696 012a 04D3     		bcc	.L42
 133:../../libdaisy/src/hid/disp/display.h ****         currentY_ = (y >= Height()) ? Height() - 1 : y;
 697              		.loc 5 133 44 view .LVU188
 698 012c D368     		ldr	r3, [r2, #12]
 699 012e 2249     		ldr	r1, .L69
 700 0130 8B42     		cmp	r3, r1
 701 0132 3AD1     		bne	.L66
 702 0134 7F24     		movs	r4, #127
 703              	.LVL33:
 704              	.L42:
 134:../../libdaisy/src/hid/disp/display.h ****     }
 705              		.loc 5 134 34 view .LVU189
 706 0136 9368     		ldr	r3, [r2, #8]
 707 0138 204A     		ldr	r2, .L69+4
 133:../../libdaisy/src/hid/disp/display.h ****         currentY_ = (y >= Height()) ? Height() - 1 : y;
 708              		.loc 5 133 19 view .LVU190
 709 013a B480     		strh	r4, [r6, #4]	@ movhi
 134:../../libdaisy/src/hid/disp/display.h ****     }
 710              		.loc 5 134 9 is_stmt 1 view .LVU191
 711 013c 9342     		cmp	r3, r2
 712 013e 24D1     		bne	.L67
 134:../../libdaisy/src/hid/disp/display.h ****     }
 713              		.loc 5 134 34 is_stmt 0 view .LVU192
 714 0140 4020     		movs	r0, #64
 715              	.L44:
 134:../../libdaisy/src/hid/disp/display.h ****     }
 716              		.loc 5 134 19 view .LVU193
 717 0142 029B     		ldr	r3, [sp, #8]
 718 0144 8342     		cmp	r3, r0
 719 0146 06D3     		bcc	.L45
 134:../../libdaisy/src/hid/disp/display.h ****     }
 720              		.loc 5 134 46 view .LVU194
 721 0148 3368     		ldr	r3, [r6]
 722 014a 1C4A     		ldr	r2, .L69+4
 723 014c 9B68     		ldr	r3, [r3, #8]
 724 014e 9342     		cmp	r3, r2
 725 0150 25D1     		bne	.L68
 726 0152 3F23     		movs	r3, #63
 727 0154 0293     		str	r3, [sp, #8]
 728              	.LVL34:
 729              	.L45:
ARM GAS  C:\Users\VINCIU~1\AppData\Local\Temp\ccA1pwKF.s 			page 31


 134:../../libdaisy/src/hid/disp/display.h ****     }
 730              		.loc 5 134 19 view .LVU195
 731 0156 029B     		ldr	r3, [sp, #8]
 732 0158 F380     		strh	r3, [r6, #6]	@ movhi
 733              	.LVL35:
 734              	.L27:
 134:../../libdaisy/src/hid/disp/display.h ****     }
 735              		.loc 5 134 19 view .LVU196
 736              	.LBE347:
 737              	.LBE351:
 738              	.LBE313:
 739              	.LBE312:
 404:../../libdaisy/src/hid/disp/display.h ****         {
 405:../../libdaisy/src/hid/disp/display.h ****             if(((ChildType*)(this))->ChildType::WriteChar(*str, font, on)
 406:../../libdaisy/src/hid/disp/display.h ****                != *str)
 740              		.loc 5 406 16 view .LVU197
 741 015a 019B     		ldr	r3, [sp, #4]
 742 015c 1878     		ldrb	r0, [r3]	@ zero_extendqisi2
 405:../../libdaisy/src/hid/disp/display.h ****                != *str)
 743              		.loc 5 405 13 view .LVU198
 744 015e 4045     		cmp	r0, r8
 745 0160 07D1     		bne	.L25
 746              	.LVL36:
 403:../../libdaisy/src/hid/disp/display.h ****         {
 747              		.loc 5 403 9 is_stmt 1 view .LVU199
 748 0162 13F8018F 		ldrb	r8, [r3, #1]!	@ zero_extendqisi2
 749              	.LVL37:
 403:../../libdaisy/src/hid/disp/display.h ****         {
 750              		.loc 5 403 9 is_stmt 0 view .LVU200
 751 0166 0193     		str	r3, [sp, #4]
 752 0168 B8F1000F 		cmp	r8, #0
 753 016c 7FF460AF 		bne	.L48
 754              	.LVL38:
 755              	.L47:
 756              	.LBB356:
 757              	.LBB354:
 362:../../libdaisy/src/hid/disp/display.h **** 
 758              		.loc 5 362 20 view .LVU201
 759 0170 0020     		movs	r0, #0
 760              	.L25:
 761              	.LBE354:
 762              	.LBE356:
 407:../../libdaisy/src/hid/disp/display.h ****             {
 408:../../libdaisy/src/hid/disp/display.h ****                 // Char could not be written
 409:../../libdaisy/src/hid/disp/display.h ****                 return *str;
 410:../../libdaisy/src/hid/disp/display.h ****             }
 411:../../libdaisy/src/hid/disp/display.h **** 
 412:../../libdaisy/src/hid/disp/display.h ****             // Next char
 413:../../libdaisy/src/hid/disp/display.h ****             str++;
 414:../../libdaisy/src/hid/disp/display.h ****         }
 415:../../libdaisy/src/hid/disp/display.h **** 
 416:../../libdaisy/src/hid/disp/display.h ****         // Everything ok
 417:../../libdaisy/src/hid/disp/display.h ****         return *str;
 418:../../libdaisy/src/hid/disp/display.h ****     }
 763              		.loc 5 418 5 view .LVU202
 764 0172 09B0     		add	sp, sp, #36
 765              		.cfi_remember_state
ARM GAS  C:\Users\VINCIU~1\AppData\Local\Temp\ccA1pwKF.s 			page 32


 766              		.cfi_def_cfa_offset 36
 767              		@ sp needed
 768 0174 BDE8F08F 		pop	{r4, r5, r6, r7, r8, r9, r10, fp, pc}
 769              	.LVL39:
 770              	.L29:
 771              		.cfi_restore_state
 772              	.LBB357:
 773              	.LBB355:
 362:../../libdaisy/src/hid/disp/display.h **** 
 774              		.loc 5 362 20 view .LVU203
 775 0178 4FF00008 		mov	r8, #0
 776              	.LVL40:
 362:../../libdaisy/src/hid/disp/display.h **** 
 777              		.loc 5 362 20 view .LVU204
 778 017c EDE7     		b	.L27
 779              	.LVL41:
 780              	.L62:
 365:../../libdaisy/src/hid/disp/display.h ****            || Height() < (currentY_ + font.FontHeight))
 781              		.loc 5 365 17 view .LVU205
 782 017e 3046     		mov	r0, r6
 783 0180 9847     		blx	r3
 784              	.LVL42:
 785 0182 62E7     		b	.L28
 786              	.L63:
 366:../../libdaisy/src/hid/disp/display.h ****         {
 787              		.loc 5 366 21 view .LVU206
 788 0184 3046     		mov	r0, r6
 789 0186 9847     		blx	r3
 790              	.LVL43:
 791 0188 6BE7     		b	.L30
 792              	.LVL44:
 793              	.L67:
 794              	.LBB352:
 795              	.LBB348:
 134:../../libdaisy/src/hid/disp/display.h ****     }
 796              		.loc 5 134 33 view .LVU207
 797 018a 3046     		mov	r0, r6
 798 018c 9847     		blx	r3
 799              	.LVL45:
 800 018e D8E7     		b	.L44
 801              	.LVL46:
 802              	.L65:
 133:../../libdaisy/src/hid/disp/display.h ****         currentY_ = (y >= Height()) ? Height() - 1 : y;
 803              		.loc 5 133 32 view .LVU208
 804 0190 3046     		mov	r0, r6
 805 0192 9847     		blx	r3
 806              	.LVL47:
 133:../../libdaisy/src/hid/disp/display.h ****         currentY_ = (y >= Height()) ? Height() - 1 : y;
 807              		.loc 5 133 44 view .LVU209
 808 0194 3268     		ldr	r2, [r6]
 809 0196 C7E7     		b	.L41
 810              	.LVL48:
 811              	.L31:
 133:../../libdaisy/src/hid/disp/display.h ****         currentY_ = (y >= Height()) ? Height() - 1 : y;
 812              		.loc 5 133 44 view .LVU210
 813              	.LBE348:
 814              	.LBE352:
ARM GAS  C:\Users\VINCIU~1\AppData\Local\Temp\ccA1pwKF.s 			page 33


 394:../../libdaisy/src/hid/disp/display.h **** 
 815              		.loc 5 394 19 view .LVU211
 816 0198 B6F804B0 		ldrh	fp, [r6, #4]
 817 019c BBE7     		b	.L33
 818              	.LVL49:
 819              	.L68:
 820              	.LBB353:
 821              	.LBB349:
 134:../../libdaisy/src/hid/disp/display.h ****     }
 822              		.loc 5 134 45 view .LVU212
 823 019e 3046     		mov	r0, r6
 824 01a0 9847     		blx	r3
 825              	.LVL50:
 134:../../libdaisy/src/hid/disp/display.h ****     }
 826              		.loc 5 134 19 view .LVU213
 827 01a2 0138     		subs	r0, r0, #1
 828 01a4 83B2     		uxth	r3, r0
 829 01a6 0293     		str	r3, [sp, #8]
 830              	.LVL51:
 134:../../libdaisy/src/hid/disp/display.h ****     }
 831              		.loc 5 134 19 view .LVU214
 832 01a8 D5E7     		b	.L45
 833              	.LVL52:
 834              	.L66:
 133:../../libdaisy/src/hid/disp/display.h ****         currentY_ = (y >= Height()) ? Height() - 1 : y;
 835              		.loc 5 133 43 view .LVU215
 836 01aa 3046     		mov	r0, r6
 837 01ac 9847     		blx	r3
 838              	.LVL53:
 133:../../libdaisy/src/hid/disp/display.h ****         currentY_ = (y >= Height()) ? Height() - 1 : y;
 839              		.loc 5 133 19 view .LVU216
 840 01ae 0138     		subs	r0, r0, #1
 134:../../libdaisy/src/hid/disp/display.h ****     }
 841              		.loc 5 134 34 view .LVU217
 842 01b0 3268     		ldr	r2, [r6]
 133:../../libdaisy/src/hid/disp/display.h ****         currentY_ = (y >= Height()) ? Height() - 1 : y;
 843              		.loc 5 133 19 view .LVU218
 844 01b2 84B2     		uxth	r4, r0
 845              	.LVL54:
 133:../../libdaisy/src/hid/disp/display.h ****         currentY_ = (y >= Height()) ? Height() - 1 : y;
 846              		.loc 5 133 19 view .LVU219
 847 01b4 BFE7     		b	.L42
 848              	.L70:
 849 01b6 00BF     		.align	2
 850              	.L69:
 851 01b8 00000000 		.word	_ZNK5daisy11OledDisplayINS_13SSD130xDriverILj128ELj64ENS_24SSD130x4WireSpiTransportEEEE5Widt
 852 01bc 00000000 		.word	_ZNK5daisy11OledDisplayINS_13SSD130xDriverILj128ELj64ENS_24SSD130x4WireSpiTransportEEEE6Heig
 853              	.LBE349:
 854              	.LBE353:
 855              	.LBE355:
 856              	.LBE357:
 857              		.cfi_endproc
 858              	.LFE4337:
 860              		.section	.rodata._ZN5Menus5Menu2E23OledDisplayExtravaganzaPN7daisysp10OscillatorE.str1.4,"aMS",%pr
 861              		.align	2
 862              	.LC1:
 863 0000 496E6974 		.ascii	"Init_%d%%\000"
ARM GAS  C:\Users\VINCIU~1\AppData\Local\Temp\ccA1pwKF.s 			page 34


 863      5F256425 
 863      2500
 864 000a 0000     		.align	2
 865              	.LC2:
 866 000c 54696D65 		.ascii	"Time_%d%%\000"
 866      5F256425 
 866      2500
 867              		.section	.text._ZN5Menus5Menu2E23OledDisplayExtravaganzaPN7daisysp10OscillatorE,"ax",%progbits
 868              		.align	1
 869              		.p2align 2,,3
 870              		.global	_ZN5Menus5Menu2E23OledDisplayExtravaganzaPN7daisysp10OscillatorE
 871              		.syntax unified
 872              		.thumb
 873              		.thumb_func
 874              		.fpu fpv5-d16
 876              	_ZN5Menus5Menu2E23OledDisplayExtravaganzaPN7daisysp10OscillatorE:
 877              	.LVL55:
 878              	.LFB4040:
  92:Menus.cpp     **** 
  93:Menus.cpp     **** void Menus::Menu1(OledDisplayExtravaganza screen, daisysp::Oscillator osc[])
  94:Menus.cpp     **** 
  95:Menus.cpp     **** {
  96:Menus.cpp     ****     screen.Fill(!on);
  97:Menus.cpp     ****     if(this->buttonLeft.RisingEdge())
  98:Menus.cpp     **** 
  99:Menus.cpp     ****     {
 100:Menus.cpp     ****         menuState = menuState - 1;
 101:Menus.cpp     ****         if(menuState < 0)
 102:Menus.cpp     ****         {
 103:Menus.cpp     ****             menuState = 3;
 104:Menus.cpp     ****         }
 105:Menus.cpp     ****     }
 106:Menus.cpp     ****     if(this->buttonRight.RisingEdge())
 107:Menus.cpp     **** 
 108:Menus.cpp     ****     {
 109:Menus.cpp     ****         menuState = menuState + 1;
 110:Menus.cpp     ****         if(menuState > 3)
 111:Menus.cpp     ****         {
 112:Menus.cpp     ****             menuState = 0;
 113:Menus.cpp     ****         }
 114:Menus.cpp     ****     }
 115:Menus.cpp     **** 
 116:Menus.cpp     ****     screen.drawHorizontalToggle(46, 13, 8, on, this->OscSelector, "");
 117:Menus.cpp     **** 
 118:Menus.cpp     ****     if(this->OscSelector == true)
 119:Menus.cpp     ****     {
 120:Menus.cpp     ****         screen.drawSlider(70, 7, 50, 3, on, ((this->drawSliderSemi)) / 40);
 121:Menus.cpp     ****         screen.drawSlider(70, 40, 50, 3, on, drawSliderFine);
 122:Menus.cpp     ****         screen.drawVerticalToggle(13, 51, 8, on, this->toggleOsc, "");
 123:Menus.cpp     ****         screen.WaveIcons(35, 42, 55, this->selectedWave, on);
 124:Menus.cpp     ****         screen.SetCursor(70, 17);
 125:Menus.cpp     ****         screen.WriteString(this->buff, Font_6x8, true);
 126:Menus.cpp     ****         screen.SetCursor(70, 50);
 127:Menus.cpp     ****         screen.WriteString(this->buffFine, Font_6x8, true);
 128:Menus.cpp     ****     }
 129:Menus.cpp     ****     else
 130:Menus.cpp     ****     {
ARM GAS  C:\Users\VINCIU~1\AppData\Local\Temp\ccA1pwKF.s 			page 35


 131:Menus.cpp     ****         screen.drawSlider(70, 7, 50, 3, false, (this->drawSliderSemi2) / 40);
 132:Menus.cpp     ****         screen.drawSlider(70, 40, 50, 3, false, drawSliderFine2);
 133:Menus.cpp     ****         screen.drawVerticalToggle(13, 51, 8, false, this->toggleOsc2, "");
 134:Menus.cpp     ****         screen.WaveIcons(35, 42, 55, this->selectedWave2, false);
 135:Menus.cpp     ****         screen.SetCursor(70, 17);
 136:Menus.cpp     ****         screen.WriteString(this->buff2, Font_6x8, false);
 137:Menus.cpp     ****         screen.SetCursor(70, 50);
 138:Menus.cpp     ****         screen.WriteString(this->buffFine2, Font_6x8, false);
 139:Menus.cpp     ****     }
 140:Menus.cpp     **** 
 141:Menus.cpp     **** 
 142:Menus.cpp     ****     screen.SetCursor(4, 8);
 143:Menus.cpp     ****     screen.WriteString("Osc", Font_7x10, on);
 144:Menus.cpp     **** 
 145:Menus.cpp     **** 
 146:Menus.cpp     ****     for(int i = 0; i < screen.Width(); i++)
 147:Menus.cpp     ****     {
 148:Menus.cpp     ****         screen.DrawPixel(i * 3, (screen.Height() / 2) - 3, on);
 149:Menus.cpp     ****     }
 150:Menus.cpp     ****     for(int i = 0; i < screen.Height(); i++)
 151:Menus.cpp     ****     {
 152:Menus.cpp     ****         screen.DrawPixel(60, i * 2, on);
 153:Menus.cpp     ****     }
 154:Menus.cpp     ****     for(int i = screen.Height() / 4 - 1; i < screen.Height(); i++)
 155:Menus.cpp     ****     {
 156:Menus.cpp     ****         screen.DrawPixel(29, i * 2, on);
 157:Menus.cpp     ****     }
 158:Menus.cpp     **** 
 159:Menus.cpp     ****     if(encoderLeft.RisingEdge())
 160:Menus.cpp     ****     {
 161:Menus.cpp     ****         this->OscSelector = !this->OscSelector;
 162:Menus.cpp     ****         on                = this->OscSelector;
 163:Menus.cpp     ****     }
 164:Menus.cpp     ****     else if(menuState == 0)
 165:Menus.cpp     ****     {
 166:Menus.cpp     ****         if(this->OscSelector == true)
 167:Menus.cpp     ****         {
 168:Menus.cpp     ****             if(this->noteSemiAdd > 32)
 169:Menus.cpp     ****             {
 170:Menus.cpp     ****                 this->noteSemiAdd = 32;
 171:Menus.cpp     ****             }
 172:Menus.cpp     ****             if(this->noteSemiAdd < 0)
 173:Menus.cpp     ****             {
 174:Menus.cpp     ****                 this->noteSemiAdd = 0;
 175:Menus.cpp     ****             }
 176:Menus.cpp     ****             if(this->drawSliderSemi >= 40)
 177:Menus.cpp     ****             {
 178:Menus.cpp     ****                 this->drawSliderSemi = 40;
 179:Menus.cpp     ****             }
 180:Menus.cpp     ****             if(this->drawSliderSemi < 0)
 181:Menus.cpp     ****             {
 182:Menus.cpp     ****                 this->drawSliderSemi = 0;
 183:Menus.cpp     ****             }
 184:Menus.cpp     ****             this->noteSemiAdd += this->encoderRight.Increment();
 185:Menus.cpp     ****             this->drawSliderSemi
 186:Menus.cpp     ****                 += (((float)this->encoderRight.Increment()) / 32) * 40;
 187:Menus.cpp     ****             sprintf(this->buff, "Semi_%dst", this->noteSemiAdd);
ARM GAS  C:\Users\VINCIU~1\AppData\Local\Temp\ccA1pwKF.s 			page 36


 188:Menus.cpp     ****         }
 189:Menus.cpp     ****         else
 190:Menus.cpp     ****         {
 191:Menus.cpp     ****             if(this->noteSemiAdd2 > 32)
 192:Menus.cpp     ****             {
 193:Menus.cpp     ****                 this->noteSemiAdd2 = 32;
 194:Menus.cpp     ****             }
 195:Menus.cpp     ****             if(this->noteSemiAdd2 < 0)
 196:Menus.cpp     ****             {
 197:Menus.cpp     ****                 this->noteSemiAdd2 = 0;
 198:Menus.cpp     ****             }
 199:Menus.cpp     ****             if(this->drawSliderSemi2 >= 40)
 200:Menus.cpp     ****             {
 201:Menus.cpp     ****                 this->drawSliderSemi2 = 40;
 202:Menus.cpp     ****             }
 203:Menus.cpp     ****             if(this->drawSliderSemi2 < 0)
 204:Menus.cpp     ****             {
 205:Menus.cpp     ****                 this->drawSliderSemi2 = 0;
 206:Menus.cpp     ****             }
 207:Menus.cpp     ****             this->noteSemiAdd2 += (float)this->encoderRight.Increment();
 208:Menus.cpp     ****             this->drawSliderSemi2
 209:Menus.cpp     ****                 += (((float)this->encoderRight.Increment()) / 32) * 40;
 210:Menus.cpp     ****             sprintf(this->buff2, "Semi_%dst", this->noteSemiAdd2);
 211:Menus.cpp     ****         }
 212:Menus.cpp     **** 
 213:Menus.cpp     **** 
 214:Menus.cpp     ****         screen.DrawRect(
 215:Menus.cpp     ****             60, 0, screen.Width() - 1, screen.Height() / 2 - 3, on, false);
 216:Menus.cpp     ****     }
 217:Menus.cpp     ****     else if(menuState == 1)
 218:Menus.cpp     ****     {
 219:Menus.cpp     ****         if(this->OscSelector == true)
 220:Menus.cpp     **** 
 221:Menus.cpp     ****         {
 222:Menus.cpp     ****             if(this->encoderRight.Increment() == 1)
 223:Menus.cpp     ****             {
 224:Menus.cpp     ****                 synthOn         = 1;
 225:Menus.cpp     ****                 this->toggleOsc = false;
 226:Menus.cpp     ****             }
 227:Menus.cpp     ****             if(this->encoderRight.Increment() == -1)
 228:Menus.cpp     ****             {
 229:Menus.cpp     ****                 synthOn         = 0;
 230:Menus.cpp     ****                 this->toggleOsc = true;
 231:Menus.cpp     ****             }
 232:Menus.cpp     ****         }
 233:Menus.cpp     ****         else
 234:Menus.cpp     ****         {
 235:Menus.cpp     ****             if(this->encoderRight.Increment() == 1)
 236:Menus.cpp     ****             {
 237:Menus.cpp     ****                 synthOn2         = 1;
 238:Menus.cpp     ****                 this->toggleOsc2 = false;
 239:Menus.cpp     ****             }
 240:Menus.cpp     ****             if(this->encoderRight.Increment() == -1)
 241:Menus.cpp     ****             {
 242:Menus.cpp     ****                 synthOn2         = 0;
 243:Menus.cpp     ****                 this->toggleOsc2 = true;
 244:Menus.cpp     ****             }
ARM GAS  C:\Users\VINCIU~1\AppData\Local\Temp\ccA1pwKF.s 			page 37


 245:Menus.cpp     ****         }
 246:Menus.cpp     **** 
 247:Menus.cpp     ****         screen.DrawRect(
 248:Menus.cpp     ****             0, screen.Height() / 2 - 3, 29, screen.Height() - 1, on, false);
 249:Menus.cpp     ****     }
 250:Menus.cpp     ****     else if(menuState == 2)
 251:Menus.cpp     ****     {
 252:Menus.cpp     ****         if(this->OscSelector == true)
 253:Menus.cpp     ****         {
 254:Menus.cpp     ****             this->setWave += this->encoderRight.Increment();
 255:Menus.cpp     ****             if(setWave > 3)
 256:Menus.cpp     ****             {
 257:Menus.cpp     ****                 this->setWave = 3;
 258:Menus.cpp     ****             }
 259:Menus.cpp     ****             if(this->setWave < 0)
 260:Menus.cpp     ****             {
 261:Menus.cpp     ****                 this->setWave = 0;
 262:Menus.cpp     ****             }
 263:Menus.cpp     ****             if(this->setWave == 0)
 264:Menus.cpp     ****             {
 265:Menus.cpp     ****                 for(int i = 0; i < 2; i++)
 266:Menus.cpp     ****                 {
 267:Menus.cpp     ****                     selectedWave = setWave;
 268:Menus.cpp     ****                     osc[0].SetWaveform(osc[0].WAVE_SIN);
 269:Menus.cpp     ****                 }
 270:Menus.cpp     ****             }
 271:Menus.cpp     ****             else if(setWave == 1)
 272:Menus.cpp     ****             {
 273:Menus.cpp     ****                 for(int i = 0; i < 2; i++)
 274:Menus.cpp     ****                 {
 275:Menus.cpp     ****                     selectedWave = setWave;
 276:Menus.cpp     ****                     osc[0].SetWaveform(osc[0].WAVE_TRI);
 277:Menus.cpp     ****                 }
 278:Menus.cpp     ****             }
 279:Menus.cpp     ****             else if(setWave == 2)
 280:Menus.cpp     ****             {
 281:Menus.cpp     ****                 for(int i = 0; i < 2; i++)
 282:Menus.cpp     ****                 {
 283:Menus.cpp     ****                     selectedWave = setWave;
 284:Menus.cpp     ****                     osc[0].SetWaveform(osc[0].WAVE_SQUARE);
 285:Menus.cpp     ****                 }
 286:Menus.cpp     ****             }
 287:Menus.cpp     ****             else if(setWave == 3)
 288:Menus.cpp     ****             {
 289:Menus.cpp     ****                 for(int i = 0; i < 2; i++)
 290:Menus.cpp     ****                 {
 291:Menus.cpp     ****                     selectedWave = setWave;
 292:Menus.cpp     ****                     osc[0].SetWaveform(osc[0].WAVE_SAW);
 293:Menus.cpp     ****                 }
 294:Menus.cpp     ****             }
 295:Menus.cpp     ****         }
 296:Menus.cpp     ****         {
 297:Menus.cpp     ****             if(this->OscSelector == false)
 298:Menus.cpp     ****             {
 299:Menus.cpp     ****                 if(setWave2 > 3)
 300:Menus.cpp     ****                 {
 301:Menus.cpp     ****                     this->setWave2 = 3;
ARM GAS  C:\Users\VINCIU~1\AppData\Local\Temp\ccA1pwKF.s 			page 38


 302:Menus.cpp     ****                 }
 303:Menus.cpp     ****                 if(this->setWave2 < 0)
 304:Menus.cpp     ****                 {
 305:Menus.cpp     ****                     this->setWave2 = 0;
 306:Menus.cpp     ****                 }
 307:Menus.cpp     ****                 this->setWave2 += this->encoderRight.Increment();
 308:Menus.cpp     ****                 if(setWave2 > 3)
 309:Menus.cpp     ****                 {
 310:Menus.cpp     ****                     this->setWave2 = 3;
 311:Menus.cpp     ****                 }
 312:Menus.cpp     ****                 if(this->setWave2 < 0)
 313:Menus.cpp     ****                 {
 314:Menus.cpp     ****                     this->setWave2 = 0;
 315:Menus.cpp     ****                 }
 316:Menus.cpp     ****                 if(this->setWave2 == 0)
 317:Menus.cpp     ****                 {
 318:Menus.cpp     ****                     for(int i = 0; i < 2; i++)
 319:Menus.cpp     ****                     {
 320:Menus.cpp     ****                         selectedWave2 = setWave2;
 321:Menus.cpp     ****                         osc[1].SetWaveform(osc[1].WAVE_SIN);
 322:Menus.cpp     ****                     }
 323:Menus.cpp     ****                 }
 324:Menus.cpp     ****                 else if(setWave2 == 1)
 325:Menus.cpp     ****                 {
 326:Menus.cpp     ****                     for(int i = 0; i < 2; i++)
 327:Menus.cpp     ****                     {
 328:Menus.cpp     ****                         selectedWave2 = setWave2;
 329:Menus.cpp     ****                         osc[1].SetWaveform(osc[1].WAVE_TRI);
 330:Menus.cpp     ****                     }
 331:Menus.cpp     ****                 }
 332:Menus.cpp     ****                 else if(setWave2 == 2)
 333:Menus.cpp     ****                 {
 334:Menus.cpp     ****                     for(int i = 0; i < 2; i++)
 335:Menus.cpp     ****                     {
 336:Menus.cpp     ****                         selectedWave2 = setWave2;
 337:Menus.cpp     ****                         osc[1].SetWaveform(osc[1].WAVE_SQUARE);
 338:Menus.cpp     ****                     }
 339:Menus.cpp     ****                 }
 340:Menus.cpp     ****                 else if(setWave2 == 3)
 341:Menus.cpp     ****                 {
 342:Menus.cpp     ****                     for(int i = 0; i < 2; i++)
 343:Menus.cpp     ****                     {
 344:Menus.cpp     ****                         selectedWave2 = setWave2;
 345:Menus.cpp     ****                         osc[1].SetWaveform(osc[1].WAVE_SAW);
 346:Menus.cpp     ****                     }
 347:Menus.cpp     ****                 }
 348:Menus.cpp     ****             }
 349:Menus.cpp     **** 
 350:Menus.cpp     **** 
 351:Menus.cpp     ****             screen.DrawRect(29,
 352:Menus.cpp     ****                             screen.Height() / 2 - 3,
 353:Menus.cpp     ****                             60,
 354:Menus.cpp     ****                             screen.Height() - 1,
 355:Menus.cpp     ****                             on,
 356:Menus.cpp     ****                             false);
 357:Menus.cpp     ****         }
 358:Menus.cpp     ****     }
ARM GAS  C:\Users\VINCIU~1\AppData\Local\Temp\ccA1pwKF.s 			page 39


 359:Menus.cpp     ****     else if(menuState == 3)
 360:Menus.cpp     ****     {
 361:Menus.cpp     ****         /*  this->noteSemiAdd
 362:Menus.cpp     ****                 += (((float)this->encoderRight.Increment()) / 32) * 40;
 363:Menus.cpp     ****             this->drawSliderSemi
 364:Menus.cpp     ****                 += ((float)this->encoderRight.Increment()) / 32; */
 365:Menus.cpp     **** 
 366:Menus.cpp     **** 
 367:Menus.cpp     ****         if(this->OscSelector == true)
 368:Menus.cpp     ****         {
 369:Menus.cpp     ****             if(this->freqFine >= 1)
 370:Menus.cpp     ****             {
 371:Menus.cpp     ****                 this->freqFine = 1;
 372:Menus.cpp     ****             }
 373:Menus.cpp     ****             if(this->freqFine < 0)
 374:Menus.cpp     ****             {
 375:Menus.cpp     ****                 this->freqFine = 0;
 376:Menus.cpp     ****             }
 377:Menus.cpp     ****             if(this->drawSliderFine >= 1)
 378:Menus.cpp     ****             {
 379:Menus.cpp     ****                 this->drawSliderFine = 1;
 380:Menus.cpp     ****             }
 381:Menus.cpp     ****             if(this->drawSliderFine < 0)
 382:Menus.cpp     ****             {
 383:Menus.cpp     ****                 this->drawSliderFine = 0;
 384:Menus.cpp     ****             }
 385:Menus.cpp     **** 
 386:Menus.cpp     ****             this->freqFine += (((float)this->encoderRight.Increment()) / 32);
 387:Menus.cpp     ****             this->drawSliderFine
 388:Menus.cpp     ****                 += (((float)this->encoderRight.Increment()) / 32);
 389:Menus.cpp     ****             sprintf(this->buffFine, "Fine_%d%%", (int)(freqFine * 100));
 390:Menus.cpp     ****         }
 391:Menus.cpp     ****         else
 392:Menus.cpp     ****         {
 393:Menus.cpp     ****             if(this->freqFine2 > 1)
 394:Menus.cpp     ****             {
 395:Menus.cpp     ****                 this->freqFine2 = 1;
 396:Menus.cpp     ****             }
 397:Menus.cpp     ****             if(this->freqFine2 < 0)
 398:Menus.cpp     ****             {
 399:Menus.cpp     ****                 this->freqFine2 = 0;
 400:Menus.cpp     ****             }
 401:Menus.cpp     ****             if(this->drawSliderFine2 >= 1)
 402:Menus.cpp     ****             {
 403:Menus.cpp     ****                 this->drawSliderFine2 = 1;
 404:Menus.cpp     ****             }
 405:Menus.cpp     ****             if(this->drawSliderFine2 < 0)
 406:Menus.cpp     ****             {
 407:Menus.cpp     ****                 this->drawSliderFine2 = 0;
 408:Menus.cpp     ****             }
 409:Menus.cpp     **** 
 410:Menus.cpp     ****             this->freqFine2 += (((float)this->encoderRight.Increment()) / 32);
 411:Menus.cpp     ****             this->drawSliderFine2
 412:Menus.cpp     ****                 += (((float)this->encoderRight.Increment()) / 32);
 413:Menus.cpp     ****             sprintf(this->buffFine2, "Fine_%d%%", (int)(freqFine2 * 100));
 414:Menus.cpp     ****         }
 415:Menus.cpp     **** 
ARM GAS  C:\Users\VINCIU~1\AppData\Local\Temp\ccA1pwKF.s 			page 40


 416:Menus.cpp     ****         screen.DrawRect(60,
 417:Menus.cpp     ****                         screen.Height() / 2 - 3,
 418:Menus.cpp     ****                         screen.Width() - 1,
 419:Menus.cpp     ****                         screen.Height() - 1,
 420:Menus.cpp     ****                         on,
 421:Menus.cpp     ****                         false);
 422:Menus.cpp     ****     }
 423:Menus.cpp     ****     //noteCross            = noteCross + (this->drawSliderSemi * 100);
 424:Menus.cpp     ****     screen.Update();
 425:Menus.cpp     **** }
 426:Menus.cpp     **** 
 427:Menus.cpp     **** void Menus::Menu2(OledDisplayExtravaganza screen, daisysp::Oscillator osc[])
 428:Menus.cpp     **** {
 879              		.loc 2 428 1 is_stmt 1 view -0
 880              		.cfi_startproc
 881              		@ args = 0, pretend = 0, frame = 24
 882              		@ frame_needed = 0, uses_anonymous_args = 0
 883              		.loc 2 428 1 is_stmt 0 view .LVU221
 884 0000 2DE9F04F 		push	{r4, r5, r6, r7, r8, r9, r10, fp, lr}
 885              		.cfi_def_cfa_offset 36
 886              		.cfi_offset 4, -36
 887              		.cfi_offset 5, -32
 888              		.cfi_offset 6, -28
 889              		.cfi_offset 7, -24
 890              		.cfi_offset 8, -20
 891              		.cfi_offset 9, -16
 892              		.cfi_offset 10, -12
 893              		.cfi_offset 11, -8
 894              		.cfi_offset 14, -4
 895 0004 0C46     		mov	r4, r1
 896 0006 0646     		mov	r6, r0
 429:Menus.cpp     ****     screen.Fill(false);
 897              		.loc 2 429 5 is_stmt 1 view .LVU222
 898              	.LVL56:
 899              	.LBB570:
 900              	.LBI570:
  33:../../libdaisy/src/hid/disp/oled_display.h **** 
 901              		.loc 1 33 10 view .LVU223
 902              	.LBB571:
 903              	.LBI571:
 247:../../libdaisy/src/dev/oled_ssd130x.h ****     }
 248:../../libdaisy/src/dev/oled_ssd130x.h **** 
 249:../../libdaisy/src/dev/oled_ssd130x.h ****     void Fill(bool on)
 904              		.loc 6 249 10 view .LVU224
 905              	.LBB572:
 250:../../libdaisy/src/dev/oled_ssd130x.h ****     {
 251:../../libdaisy/src/dev/oled_ssd130x.h ****         for(size_t i = 0; i < sizeof(buffer_); i++)
 906              		.loc 6 251 29 view .LVU225
 252:../../libdaisy/src/dev/oled_ssd130x.h ****         {
 253:../../libdaisy/src/dev/oled_ssd130x.h ****             buffer_[i] = on ? 0xff : 0x00;
 907              		.loc 6 253 24 is_stmt 0 view .LVU226
 908 0008 4FF48062 		mov	r2, #1024
 909              	.LVL57:
 910              		.loc 6 253 24 view .LVU227
 911              	.LBE572:
 912              	.LBE571:
 913              	.LBE570:
ARM GAS  C:\Users\VINCIU~1\AppData\Local\Temp\ccA1pwKF.s 			page 41


 428:Menus.cpp     ****     screen.Fill(false);
 914              		.loc 2 428 1 view .LVU228
 915 000c 8BB0     		sub	sp, sp, #44
 916              		.cfi_def_cfa_offset 80
 917              	.LBB575:
 918              	.LBB574:
 919              	.LBB573:
 920              		.loc 6 253 24 view .LVU229
 921 000e 0021     		movs	r1, #0
 922              	.LVL58:
 923              		.loc 6 253 24 view .LVU230
 924 0010 04F11400 		add	r0, r4, #20
 925              	.LVL59:
 926              		.loc 6 253 24 view .LVU231
 927 0014 FFF7FEFF 		bl	memset
 928              	.LVL60:
 929              		.loc 6 253 24 view .LVU232
 930              	.LBE573:
 931              	.LBE574:
 932              	.LBE575:
 933              	.LBB576:
 430:Menus.cpp     ****     float margin = 10;
 431:Menus.cpp     ****     float glideInit;
 432:Menus.cpp     ****     float offset = (screen.Height() / 4);
 433:Menus.cpp     ****     glideInit    = (offset + (this->analogRead * screen.Height() * 0.625));
 434:Menus.cpp     ****     for(int i = 0; i < screen.Width(); i++)
 435:Menus.cpp     ****     {
 436:Menus.cpp     ****         screen.DrawPixel(i * 3, (screen.Height() / 2), on);
 934              		.loc 2 436 25 view .LVU233
 935 0018 96F8BC01 		ldrb	r0, [r6, #444]	@ zero_extendqisi2
 936 001c 2246     		mov	r2, r4
 937 001e 0023     		movs	r3, #0
 938              	.LVL61:
 939              	.L76:
 940              		.loc 2 436 9 is_stmt 1 discriminator 2 view .LVU234
 941              	.LBB577:
 942              	.LBI577:
 943              		.loc 1 41 10 discriminator 2 view .LVU235
 944              	.LBB578:
 945              	.LBI578:
 239:../../libdaisy/src/dev/oled_ssd130x.h ****     {
 946              		.loc 6 239 10 discriminator 2 view .LVU236
 947              	.LBB579:
 241:../../libdaisy/src/dev/oled_ssd130x.h ****             return;
 948              		.loc 6 241 9 is_stmt 0 discriminator 2 view .LVU237
 949 0020 7F2B     		cmp	r3, #127
 950 0022 0CD8     		bhi	.L72
 951              	.L155:
 952              	.LVL62:
 953              	.LBB580:
 954              	.LBI580:
 239:../../libdaisy/src/dev/oled_ssd130x.h ****     {
 955              		.loc 6 239 10 is_stmt 1 view .LVU238
 239:../../libdaisy/src/dev/oled_ssd130x.h ****     {
 956              		.loc 6 239 10 is_stmt 0 view .LVU239
 957              	.LBE580:
 244:../../libdaisy/src/dev/oled_ssd130x.h ****         else
ARM GAS  C:\Users\VINCIU~1\AppData\Local\Temp\ccA1pwKF.s 			page 42


 958              		.loc 6 244 42 view .LVU240
 959 0024 92F81412 		ldrb	r1, [r2, #532]	@ zero_extendqisi2
 243:../../libdaisy/src/dev/oled_ssd130x.h ****             buffer_[x + (y / 8) * width] |= (1 << (y % 8));
 960              		.loc 6 243 9 view .LVU241
 961 0028 0028     		cmp	r0, #0
 962 002a 00F0D780 		beq	.L73
 244:../../libdaisy/src/dev/oled_ssd130x.h ****         else
 963              		.loc 6 244 42 view .LVU242
 964 002e 41F00101 		orr	r1, r1, #1
 965 0032 82F81412 		strb	r1, [r2, #532]
 966              	.L74:
 967              	.LVL63:
 244:../../libdaisy/src/dev/oled_ssd130x.h ****         else
 968              		.loc 6 244 42 view .LVU243
 969              	.LBE579:
 970              	.LBE578:
 971              	.LBE577:
 434:Menus.cpp     ****     {
 972              		.loc 2 434 5 is_stmt 1 view .LVU244
 434:Menus.cpp     ****     {
 973              		.loc 2 434 22 view .LVU245
 974 0036 0333     		adds	r3, r3, #3
 975 0038 0332     		adds	r2, r2, #3
 976              		.loc 2 436 9 view .LVU246
 977              	.LVL64:
 978              	.LBB587:
 979              		.loc 1 41 10 view .LVU247
 980              	.LBB585:
 239:../../libdaisy/src/dev/oled_ssd130x.h ****     {
 981              		.loc 6 239 10 view .LVU248
 982              	.LBB583:
 241:../../libdaisy/src/dev/oled_ssd130x.h ****             return;
 983              		.loc 6 241 9 is_stmt 0 view .LVU249
 984 003a 7F2B     		cmp	r3, #127
 985 003c F2D9     		bls	.L155
 986              	.L72:
 987              	.LVL65:
 241:../../libdaisy/src/dev/oled_ssd130x.h ****             return;
 988              		.loc 6 241 9 view .LVU250
 989              	.LBE583:
 990              	.LBE585:
 991              	.LBE587:
 434:Menus.cpp     ****     {
 992              		.loc 2 434 5 is_stmt 1 view .LVU251
 434:Menus.cpp     ****     {
 993              		.loc 2 434 22 view .LVU252
 994 003e 0333     		adds	r3, r3, #3
 995 0040 0332     		adds	r2, r2, #3
 996 0042 B3F5C07F 		cmp	r3, #384
 997 0046 EBD1     		bne	.L76
 998              	.LBE576:
 437:Menus.cpp     ****     }
 438:Menus.cpp     ****     if(this->buttonLeft.RisingEdge())
 999              		.loc 2 438 5 view .LVU253
 1000              	.LVL66:
 1001              	.LBB589:
 1002              	.LBI589:
ARM GAS  C:\Users\VINCIU~1\AppData\Local\Temp\ccA1pwKF.s 			page 43


  41:../../libdaisy/src/hid/switch.h ****     ~Switch() {}
  42:../../libdaisy/src/hid/switch.h **** 
  43:../../libdaisy/src/hid/switch.h ****     /** 
  44:../../libdaisy/src/hid/switch.h ****     Initializes the switch object with a given port/pin combo.
  45:../../libdaisy/src/hid/switch.h ****     \param pin port/pin object to tell the switch which hardware pin to use.
  46:../../libdaisy/src/hid/switch.h ****     \param update_rate the rate at which the Debounce() function will be called. (used for timing).
  47:../../libdaisy/src/hid/switch.h ****     \param t switch type -- Default: TYPE_MOMENTARY
  48:../../libdaisy/src/hid/switch.h ****     \param pol switch polarity -- Default: POLARITY_INVERTED
  49:../../libdaisy/src/hid/switch.h ****     \param pu switch pull up/down -- Default: PULL_UP
  50:../../libdaisy/src/hid/switch.h ****     */
  51:../../libdaisy/src/hid/switch.h ****     void
  52:../../libdaisy/src/hid/switch.h ****     Init(dsy_gpio_pin pin, float update_rate, Type t, Polarity pol, Pull pu);
  53:../../libdaisy/src/hid/switch.h **** 
  54:../../libdaisy/src/hid/switch.h ****     /**
  55:../../libdaisy/src/hid/switch.h ****        Simplified Init.
  56:../../libdaisy/src/hid/switch.h ****        \param pin port/pin object to tell the switch which hardware pin to use.
  57:../../libdaisy/src/hid/switch.h ****        \param update_rate the rate at which the Debounce() function will be called. (used for timin
  58:../../libdaisy/src/hid/switch.h ****     */
  59:../../libdaisy/src/hid/switch.h ****     void Init(dsy_gpio_pin pin, float update_rate);
  60:../../libdaisy/src/hid/switch.h **** 
  61:../../libdaisy/src/hid/switch.h ****     /** 
  62:../../libdaisy/src/hid/switch.h ****     Called at update_rate to debounce and handle timing for the switch.
  63:../../libdaisy/src/hid/switch.h ****     In order for events not to be missed, its important that the Edge/Pressed checks
  64:../../libdaisy/src/hid/switch.h ****     be made at the same rate as the debounce function is being called.
  65:../../libdaisy/src/hid/switch.h ****     */
  66:../../libdaisy/src/hid/switch.h ****     void Debounce();
  67:../../libdaisy/src/hid/switch.h **** 
  68:../../libdaisy/src/hid/switch.h ****     /** \return true if a button was just pressed. */
  69:../../libdaisy/src/hid/switch.h ****     inline bool RisingEdge() const { return state_ == 0x7f; }
 1003              		.loc 4 69 17 view .LVU254
 1004              	.LBB590:
 1005              		.loc 4 69 38 view .LVU255
 1006              		.loc 4 69 38 is_stmt 0 view .LVU256
 1007              	.LBE590:
 1008              	.LBE589:
 1009              		.loc 2 438 5 view .LVU257
 1010 0048 96F85130 		ldrb	r3, [r6, #81]	@ zero_extendqisi2
 1011 004c 7F2B     		cmp	r3, #127
 439:Menus.cpp     **** 
 440:Menus.cpp     ****     {
 441:Menus.cpp     ****         this->menuStateGlide = this->menuStateGlide - 1;
 1012              		.loc 2 441 53 view .LVU258
 1013 004e 336F     		ldr	r3, [r6, #112]
 438:Menus.cpp     **** 
 1014              		.loc 2 438 5 view .LVU259
 1015 0050 00F07F81 		beq	.L156
 1016              	.L79:
 442:Menus.cpp     ****         if(this->menuStateGlide < 0)
 443:Menus.cpp     ****         {
 444:Menus.cpp     ****             this->menuStateGlide = 1;
 445:Menus.cpp     ****         }
 446:Menus.cpp     ****     }
 447:Menus.cpp     ****     if(this->buttonRight.RisingEdge())
 1017              		.loc 2 447 5 is_stmt 1 view .LVU260
 1018              	.LVL67:
 1019              	.LBB591:
 1020              	.LBI591:
ARM GAS  C:\Users\VINCIU~1\AppData\Local\Temp\ccA1pwKF.s 			page 44


 1021              		.loc 4 69 17 view .LVU261
 1022              	.LBB592:
 1023              		.loc 4 69 38 view .LVU262
 1024              		.loc 4 69 38 is_stmt 0 view .LVU263
 1025              	.LBE592:
 1026              	.LBE591:
 1027              		.loc 2 447 5 view .LVU264
 1028 0054 96F86120 		ldrb	r2, [r6, #97]	@ zero_extendqisi2
 1029 0058 7F2A     		cmp	r2, #127
 1030 005a 4ED0     		beq	.L157
 1031              	.L82:
 448:Menus.cpp     **** 
 449:Menus.cpp     ****     {
 450:Menus.cpp     ****         this->menuStateGlide = this->menuStateGlide + 1;
 451:Menus.cpp     ****         if(this->menuStateGlide > 1)
 452:Menus.cpp     ****         {
 453:Menus.cpp     ****             this->menuStateGlide = 0;
 454:Menus.cpp     ****         }
 455:Menus.cpp     ****     }
 456:Menus.cpp     ****     if(this->menuStateGlide == 0)
 1032              		.loc 2 456 5 is_stmt 1 view .LVU265
 1033              	.LBB594:
 1034 005c 002B     		cmp	r3, #0
 1035 005e 52D0     		beq	.L81
 457:Menus.cpp     ****     {
 458:Menus.cpp     ****         if(this->glideInit > 100)
 459:Menus.cpp     ****         {
 460:Menus.cpp     ****             this->glideInit = 100;
 461:Menus.cpp     ****         }
 462:Menus.cpp     ****         if(this->glideInit < -100)
 463:Menus.cpp     ****         {
 464:Menus.cpp     ****             this->glideInit = -100;
 465:Menus.cpp     ****         }
 466:Menus.cpp     **** 
 467:Menus.cpp     ****         int glideScale;
 468:Menus.cpp     ****         glideScale = screen.Height() - ((this->glideInit + 212) * 0.15);
 469:Menus.cpp     ****         this->glideInit += this->encoderRight.Increment();
 470:Menus.cpp     ****         circleGlidePosition = glideScale;
 471:Menus.cpp     **** 
 472:Menus.cpp     ****         sprintf(this->buffPitchGlide, "Init_%d%%", this->glideInit);
 473:Menus.cpp     **** 
 474:Menus.cpp     **** 
 475:Menus.cpp     ****         //(this->analogRead * 24) - 12;
 476:Menus.cpp     **** 
 477:Menus.cpp     ****         screen.DrawRect(0, 0, 66, 13, true, false);
 478:Menus.cpp     ****     }
 479:Menus.cpp     ****     else if(this->menuStateGlide == 1)
 1036              		.loc 2 479 10 view .LVU266
 1037 0060 012B     		cmp	r3, #1
 1038 0062 00F09681 		beq	.L80
 1039 0066 06F58E77 		add	r7, r6, #284
 1040              	.L101:
 1041              	.LBB595:
 472:Menus.cpp     **** 
 1042              		.loc 2 472 23 is_stmt 0 view .LVU267
 1043 006a 06F58275 		add	r5, r6, #260
 1044              	.L91:
ARM GAS  C:\Users\VINCIU~1\AppData\Local\Temp\ccA1pwKF.s 			page 45


 472:Menus.cpp     **** 
 1045              		.loc 2 472 23 view .LVU268
 1046              	.LBE595:
 1047              	.LBE594:
 480:Menus.cpp     ****     {
 481:Menus.cpp     ****         if(this->glideTime >= 100)
 482:Menus.cpp     ****         {
 483:Menus.cpp     ****             this->glideTime = 100;
 484:Menus.cpp     ****         }
 485:Menus.cpp     ****         if(this->glideTime <= 0)
 486:Menus.cpp     ****         {
 487:Menus.cpp     ****             this->glideTime = 0;
 488:Menus.cpp     ****         }
 489:Menus.cpp     ****         if(circleGlidePosition >= 100)
 490:Menus.cpp     ****         {
 491:Menus.cpp     ****             circleGlidePosition = 100;
 492:Menus.cpp     ****         }
 493:Menus.cpp     ****         if(circleGlidePosition <= 0)
 494:Menus.cpp     ****         {
 495:Menus.cpp     ****             circleGlidePosition = 0;
 496:Menus.cpp     ****         }
 497:Menus.cpp     ****         if(circleGlideTimePosition >= 100)
 498:Menus.cpp     ****         {
 499:Menus.cpp     ****             circleGlideTimePosition = 100;
 500:Menus.cpp     ****         }
 501:Menus.cpp     ****         if(circleGlideTimePosition <= 10)
 502:Menus.cpp     ****         {
 503:Menus.cpp     ****             circleGlideTimePosition = 10;
 504:Menus.cpp     ****         }
 505:Menus.cpp     ****         circleGlideTimePosition += this->encoderRight.Increment();
 506:Menus.cpp     ****         ;
 507:Menus.cpp     ****         this->glideTime += this->encoderRight.Increment();
 508:Menus.cpp     ****         sprintf(this->buffPitchTime, "Time_%d%%", (int)this->glideTime);
 509:Menus.cpp     ****         screen.DrawRect(67, 0, screen.Width() - 2, 13, true, false);
 510:Menus.cpp     ****     }
 511:Menus.cpp     **** 
 512:Menus.cpp     ****     screen.SetCursor(6, 4);
 1048              		.loc 2 512 5 is_stmt 1 view .LVU269
 1049              	.LVL68:
 1050              	.LBB704:
 1051              	.LBI704:
 131:../../libdaisy/src/hid/disp/display.h ****     {
 1052              		.loc 5 131 10 view .LVU270
 1053              	.LBB705:
 133:../../libdaisy/src/hid/disp/display.h ****         currentY_ = (y >= Height()) ? Height() - 1 : y;
 1054              		.loc 5 133 9 view .LVU271
 134:../../libdaisy/src/hid/disp/display.h ****     }
 1055              		.loc 5 134 9 view .LVU272
 1056              	.LBE705:
 1057              	.LBE704:
 513:Menus.cpp     ****     screen.WriteString(buffPitchGlide, Font_6x8, true);
 1058              		.loc 2 513 23 is_stmt 0 view .LVU273
 1059 006e 2946     		mov	r1, r5
 1060              	.LBB708:
 1061              	.LBB706:
 133:../../libdaisy/src/hid/disp/display.h ****         currentY_ = (y >= Height()) ? Height() - 1 : y;
 1062              		.loc 5 133 19 view .LVU274
ARM GAS  C:\Users\VINCIU~1\AppData\Local\Temp\ccA1pwKF.s 			page 46


 1063 0070 BD4B     		ldr	r3, .L161
 1064              	.LBE706:
 1065              	.LBE708:
 1066              		.loc 2 513 23 view .LVU275
 1067 0072 BE4D     		ldr	r5, .L161+4
 1068 0074 4FF00109 		mov	r9, #1
 1069              	.LBB709:
 1070              	.LBB707:
 133:../../libdaisy/src/hid/disp/display.h ****         currentY_ = (y >= Height()) ? Height() - 1 : y;
 1071              		.loc 5 133 19 view .LVU276
 1072 0078 6360     		str	r3, [r4, #4]
 1073              	.LVL69:
 133:../../libdaisy/src/hid/disp/display.h ****         currentY_ = (y >= Height()) ? Height() - 1 : y;
 1074              		.loc 5 133 19 view .LVU277
 1075              	.LBE707:
 1076              	.LBE709:
 1077              		.loc 2 513 5 is_stmt 1 view .LVU278
 1078              		.loc 2 513 23 is_stmt 0 view .LVU279
 1079 007a 2046     		mov	r0, r4
 1080 007c CDF80090 		str	r9, [sp]
 1081 0080 95E80C00 		ldm	r5, {r2, r3}
 1082 0084 FFF7FEFF 		bl	_ZN5daisy25OneBitGraphicsDisplayImplINS_11OledDisplayINS_13SSD130xDriverILj128ELj64ENS_24SSD130
 1083              	.LVL70:
 514:Menus.cpp     ****     screen.SetCursor(73, 4);
 1084              		.loc 2 514 5 is_stmt 1 view .LVU280
 1085              	.LBB710:
 1086              	.LBI710:
 131:../../libdaisy/src/hid/disp/display.h ****     {
 1087              		.loc 5 131 10 view .LVU281
 1088              	.LBB711:
 133:../../libdaisy/src/hid/disp/display.h ****         currentY_ = (y >= Height()) ? Height() - 1 : y;
 1089              		.loc 5 133 9 view .LVU282
 134:../../libdaisy/src/hid/disp/display.h ****     }
 1090              		.loc 5 134 9 view .LVU283
 133:../../libdaisy/src/hid/disp/display.h ****         currentY_ = (y >= Height()) ? Height() - 1 : y;
 1091              		.loc 5 133 19 is_stmt 0 view .LVU284
 1092 0088 B94B     		ldr	r3, .L161+8
 1093              	.LBE711:
 1094              	.LBE710:
 515:Menus.cpp     ****     screen.WriteString(buffPitchTime, Font_6x8, true);
 1095              		.loc 2 515 23 view .LVU285
 1096 008a CDF80090 		str	r9, [sp]
 1097 008e 3946     		mov	r1, r7
 1098              	.LBB713:
 1099              	.LBB712:
 133:../../libdaisy/src/hid/disp/display.h ****         currentY_ = (y >= Height()) ? Height() - 1 : y;
 1100              		.loc 5 133 19 view .LVU286
 1101 0090 6360     		str	r3, [r4, #4]
 1102              	.LVL71:
 133:../../libdaisy/src/hid/disp/display.h ****         currentY_ = (y >= Height()) ? Height() - 1 : y;
 1103              		.loc 5 133 19 view .LVU287
 1104              	.LBE712:
 1105              	.LBE713:
 1106              		.loc 2 515 5 is_stmt 1 view .LVU288
 1107              		.loc 2 515 23 is_stmt 0 view .LVU289
 1108 0092 2046     		mov	r0, r4
 1109 0094 95E80C00 		ldm	r5, {r2, r3}
ARM GAS  C:\Users\VINCIU~1\AppData\Local\Temp\ccA1pwKF.s 			page 47


 1110 0098 FFF7FEFF 		bl	_ZN5daisy25OneBitGraphicsDisplayImplINS_11OledDisplayINS_13SSD130xDriverILj128ELj64ENS_24SSD130
 1111              	.LVL72:
 516:Menus.cpp     ****     screen.DrawLine(margin,
 1112              		.loc 2 516 5 is_stmt 1 view .LVU290
 1113              		.loc 2 516 20 is_stmt 0 view .LVU291
 1114 009c 96ED227A 		vldr.32	s14, [r6, #136]
 1115 00a0 D6ED237A 		vldr.32	s15, [r6, #140]
 1116 00a4 BCEEC77A 		vcvt.u32.f32	s14, s14
 1117 00a8 FCEEE77A 		vcvt.u32.f32	s15, s15
 1118              	.LBB714:
 1119              	.LBB715:
 188:../../libdaisy/src/hid/disp/display.h ****         int_fast16_t signX  = ((x1 < x2) ? 1 : -1);
 1120              		.loc 5 188 52 view .LVU292
 1121 00ac 17EE103A 		vmov	r3, s14	@ int
 1122              	.LBE715:
 1123              	.LBE714:
 1124              		.loc 2 516 20 view .LVU293
 1125 00b0 8DED057A 		vstr.32	s14, [sp, #20]	@ int
 1126 00b4 17EE908A 		vmov	r8, s15	@ int
 1127              	.LVL73:
 1128              	.LBB755:
 1129              	.LBI714:
 181:../../libdaisy/src/hid/disp/display.h ****                   uint_fast8_t y1,
 1130              		.loc 5 181 10 is_stmt 1 view .LVU294
 1131              	.LBB750:
 188:../../libdaisy/src/hid/disp/display.h ****         int_fast16_t signX  = ((x1 < x2) ? 1 : -1);
 1132              		.loc 5 188 52 is_stmt 0 view .LVU295
 1133 00b8 C3F1200A 		rsb	r10, r3, #32
 187:../../libdaisy/src/hid/disp/display.h ****         int_fast16_t deltaY = abs((int_fast16_t)y2 - (int_fast16_t)y1);
 1134              		.loc 5 187 52 view .LVU296
 1135 00bc A8F10A07 		sub	r7, r8, #10
 188:../../libdaisy/src/hid/disp/display.h ****         int_fast16_t signX  = ((x1 < x2) ? 1 : -1);
 1136              		.loc 5 188 22 view .LVU297
 1137 00c0 BAF1000F 		cmp	r10, #0
 1138 00c4 B8BF     		it	lt
 1139 00c6 CAF1000A 		rsblt	r10, r10, #0
 187:../../libdaisy/src/hid/disp/display.h ****         int_fast16_t deltaY = abs((int_fast16_t)y2 - (int_fast16_t)y1);
 1140              		.loc 5 187 22 view .LVU298
 1141 00ca 002F     		cmp	r7, #0
 1142 00cc B8BF     		it	lt
 1143 00ce 7F42     		rsblt	r7, r7, #0
 1144              	.LVL74:
 189:../../libdaisy/src/hid/disp/display.h ****         int_fast16_t signY  = ((y1 < y2) ? 1 : -1);
 1145              		.loc 5 189 42 view .LVU299
 1146 00d0 B8F10A0F 		cmp	r8, #10
 1147 00d4 40F22F81 		bls	.L103
 1148              	.LVL75:
 190:../../libdaisy/src/hid/disp/display.h ****         int_fast16_t error  = deltaX - deltaY;
 1149              		.loc 5 190 42 view .LVU300
 1150 00d8 1F2B     		cmp	r3, #31
 191:../../libdaisy/src/hid/disp/display.h ****         int_fast16_t error2;
 1151              		.loc 5 191 22 view .LVU301
 1152 00da A7EB0A01 		sub	r1, r7, r10
 1153              	.LVL76:
 1154              	.LBB716:
 1155              	.LBI716:
 1156              		.loc 1 41 10 is_stmt 1 view .LVU302
ARM GAS  C:\Users\VINCIU~1\AppData\Local\Temp\ccA1pwKF.s 			page 48


 1157              	.LBB717:
  42:../../libdaisy/src/hid/disp/oled_display.h ****     {
  43:../../libdaisy/src/hid/disp/oled_display.h ****         driver_.DrawPixel(x, y, on);
 1158              		.loc 1 43 26 is_stmt 0 view .LVU303
 1159 00de 04F10805 		add	r5, r4, #8
 1160              	.LBE717:
 1161              	.LBE716:
 190:../../libdaisy/src/hid/disp/display.h ****         int_fast16_t error  = deltaX - deltaY;
 1162              		.loc 5 190 42 view .LVU304
 1163 00e2 40F23A81 		bls	.L104
 1164              	.LVL77:
 1165              	.LBB737:
 1166              	.LBB730:
 1167              	.LBB718:
 1168              	.LBI718:
 239:../../libdaisy/src/dev/oled_ssd130x.h ****     {
 1169              		.loc 6 239 10 is_stmt 1 view .LVU305
 1170              	.LBB719:
 241:../../libdaisy/src/dev/oled_ssd130x.h ****             return;
 1171              		.loc 6 241 9 is_stmt 0 view .LVU306
 1172 00e6 B8F17F0F 		cmp	r8, #127
 1173              	.LBE719:
 1174              	.LBE718:
 1175              	.LBE730:
 1176              	.LBE737:
 189:../../libdaisy/src/hid/disp/display.h ****         int_fast16_t signY  = ((y1 < y2) ? 1 : -1);
 1177              		.loc 5 189 42 view .LVU307
 1178 00ea CDF81C90 		str	r9, [sp, #28]
 1179              	.LBB738:
 1180              	.LBB731:
 1181              	.LBB724:
 1182              	.LBB720:
 241:../../libdaisy/src/dev/oled_ssd130x.h ****             return;
 1183              		.loc 6 241 9 view .LVU308
 1184 00ee 40F28580 		bls	.L118
 1185              	.LBE720:
 1186              	.LBE724:
 1187              	.LBE731:
 1188              	.LBE738:
 190:../../libdaisy/src/hid/disp/display.h ****         int_fast16_t error  = deltaX - deltaY;
 1189              		.loc 5 190 42 view .LVU309
 1190 00f2 4FF0FF33 		mov	r3, #-1
 1191              	.LVL78:
 190:../../libdaisy/src/hid/disp/display.h ****         int_fast16_t error  = deltaX - deltaY;
 1192              		.loc 5 190 42 view .LVU310
 1193 00f6 0693     		str	r3, [sp, #24]
 1194 00f8 90E0     		b	.L105
 1195              	.LVL79:
 1196              	.L157:
 190:../../libdaisy/src/hid/disp/display.h ****         int_fast16_t error  = deltaX - deltaY;
 1197              		.loc 5 190 42 view .LVU311
 1198              	.LBE750:
 1199              	.LBE755:
 450:Menus.cpp     ****         if(this->menuStateGlide > 1)
 1200              		.loc 2 450 9 is_stmt 1 view .LVU312
 450:Menus.cpp     ****         if(this->menuStateGlide > 1)
 1201              		.loc 2 450 53 is_stmt 0 view .LVU313
ARM GAS  C:\Users\VINCIU~1\AppData\Local\Temp\ccA1pwKF.s 			page 49


 1202 00fa 0133     		adds	r3, r3, #1
 451:Menus.cpp     ****         {
 1203              		.loc 2 451 9 view .LVU314
 1204 00fc 012B     		cmp	r3, #1
 450:Menus.cpp     ****         if(this->menuStateGlide > 1)
 1205              		.loc 2 450 30 view .LVU315
 1206 00fe 3367     		str	r3, [r6, #112]
 451:Menus.cpp     ****         {
 1207              		.loc 2 451 9 is_stmt 1 view .LVU316
 1208 0100 ACDD     		ble	.L82
 1209              	.L83:
 453:Menus.cpp     ****         }
 1210              		.loc 2 453 13 view .LVU317
 453:Menus.cpp     ****         }
 1211              		.loc 2 453 34 is_stmt 0 view .LVU318
 1212 0102 0023     		movs	r3, #0
 1213 0104 3367     		str	r3, [r6, #112]
 456:Menus.cpp     ****     {
 1214              		.loc 2 456 5 is_stmt 1 view .LVU319
 1215              	.L81:
 1216              	.LBB756:
 1217              	.LBB651:
 458:Menus.cpp     ****         {
 1218              		.loc 2 458 9 view .LVU320
 458:Menus.cpp     ****         {
 1219              		.loc 2 458 18 is_stmt 0 view .LVU321
 1220 0106 D6F89030 		ldr	r3, [r6, #144]
 458:Menus.cpp     ****         {
 1221              		.loc 2 458 9 view .LVU322
 1222 010a 642B     		cmp	r3, #100
 1223 010c 6BDC     		bgt	.L119
 462:Menus.cpp     ****         {
 1224              		.loc 2 462 9 is_stmt 1 view .LVU323
 1225 010e 13F1640F 		cmn	r3, #100
 1226 0112 80F2E181 		bge	.L158
 1227 0116 DFED977A 		vldr.32	s15, .L161+12
 1228 011a 6FF06303 		mvn	r3, #99
 1229              	.L85:
 467:Menus.cpp     ****         glideScale = screen.Height() - ((this->glideInit + 212) * 0.15);
 1230              		.loc 2 467 9 view .LVU324
 468:Menus.cpp     ****         this->glideInit += this->encoderRight.Increment();
 1231              		.loc 2 468 9 view .LVU325
 1232              	.LVL80:
 469:Menus.cpp     ****         circleGlidePosition = glideScale;
 1233              		.loc 2 469 9 view .LVU326
 1234              	.LBB596:
 1235              	.LBI596:
 1236              		.loc 3 41 20 view .LVU327
 1237              	.LBB597:
 1238              		.loc 3 41 40 view .LVU328
 1239              		.loc 3 41 40 is_stmt 0 view .LVU329
 1240              	.LBE597:
 1241              	.LBE596:
 469:Menus.cpp     ****         circleGlidePosition = glideScale;
 1242              		.loc 2 469 25 view .LVU330
 1243 011e B26C     		ldr	r2, [r6, #72]
 472:Menus.cpp     **** 
ARM GAS  C:\Users\VINCIU~1\AppData\Local\Temp\ccA1pwKF.s 			page 50


 1244              		.loc 2 472 23 view .LVU331
 1245 0120 06F58275 		add	r5, r6, #260
 472:Menus.cpp     **** 
 1246              		.loc 2 472 16 view .LVU332
 1247 0124 9449     		ldr	r1, .L161+16
 469:Menus.cpp     ****         circleGlidePosition = glideScale;
 1248              		.loc 2 469 25 view .LVU333
 1249 0126 1A44     		add	r2, r2, r3
 472:Menus.cpp     **** 
 1250              		.loc 2 472 16 view .LVU334
 1251 0128 2846     		mov	r0, r5
 470:Menus.cpp     **** 
 1252              		.loc 2 470 29 view .LVU335
 1253 012a C6ED227A 		vstr.32	s15, [r6, #136]
 469:Menus.cpp     ****         circleGlidePosition = glideScale;
 1254              		.loc 2 469 25 view .LVU336
 1255 012e C6F89020 		str	r2, [r6, #144]
 1256              	.LVL81:
 470:Menus.cpp     **** 
 1257              		.loc 2 470 9 is_stmt 1 view .LVU337
 472:Menus.cpp     **** 
 1258              		.loc 2 472 9 view .LVU338
 472:Menus.cpp     **** 
 1259              		.loc 2 472 16 is_stmt 0 view .LVU339
 1260 0132 FFF7FEFF 		bl	sprintf
 1261              	.LVL82:
 477:Menus.cpp     ****     }
 1262              		.loc 2 477 9 is_stmt 1 view .LVU340
 1263              	.LBB598:
 1264              	.LBI598:
 217:../../libdaisy/src/hid/disp/display.h ****                   uint_fast8_t y1,
 1265              		.loc 5 217 10 view .LVU341
 1266              	.LBB599:
 1267              	.LBI599:
 181:../../libdaisy/src/hid/disp/display.h ****                   uint_fast8_t y1,
 1268              		.loc 5 181 10 view .LVU342
 1269              	.LBB600:
 1270              	.LBB601:
 1271              	.LBI601:
  41:../../libdaisy/src/hid/disp/oled_display.h ****     {
 1272              		.loc 1 41 10 view .LVU343
 1273              	.LBB602:
 1274              	.LBI602:
 239:../../libdaisy/src/dev/oled_ssd130x.h ****     {
 1275              		.loc 6 239 10 view .LVU344
 1276              	.LBB603:
 244:../../libdaisy/src/dev/oled_ssd130x.h ****         else
 1277              		.loc 6 244 42 is_stmt 0 view .LVU345
 1278 0136 94F85620 		ldrb	r2, [r4, #86]	@ zero_extendqisi2
 1279 013a 04F11303 		add	r3, r4, #19
 1280 013e 04F15501 		add	r1, r4, #85
 1281 0142 42F00102 		orr	r2, r2, #1
 1282 0146 84F85620 		strb	r2, [r4, #86]
 1283              	.LVL83:
 244:../../libdaisy/src/dev/oled_ssd130x.h ****         else
 1284              		.loc 6 244 42 view .LVU346
 1285              	.LBE603:
ARM GAS  C:\Users\VINCIU~1\AppData\Local\Temp\ccA1pwKF.s 			page 51


 1286              	.LBE602:
 1287              	.LBE601:
 199:../../libdaisy/src/hid/disp/display.h ****         {
 1288              		.loc 5 199 26 is_stmt 1 view .LVU347
 1289              	.L86:
 1290              	.LBB604:
 1291              	.LBI604:
  41:../../libdaisy/src/hid/disp/oled_display.h ****     {
 1292              		.loc 1 41 10 view .LVU348
 1293              	.LBB605:
 1294              	.LBI605:
 239:../../libdaisy/src/dev/oled_ssd130x.h ****     {
 1295              		.loc 6 239 10 view .LVU349
 1296              	.LBB606:
 244:../../libdaisy/src/dev/oled_ssd130x.h ****         else
 1297              		.loc 6 244 42 is_stmt 0 view .LVU350
 1298 014a 13F8012F 		ldrb	r2, [r3, #1]!	@ zero_extendqisi2
 244:../../libdaisy/src/dev/oled_ssd130x.h ****         else
 1299              		.loc 6 244 42 view .LVU351
 1300 014e 42F00102 		orr	r2, r2, #1
 1301              	.LBE606:
 1302              	.LBE605:
 1303              	.LBE604:
 199:../../libdaisy/src/hid/disp/display.h ****         {
 1304              		.loc 5 199 26 view .LVU352
 1305 0152 9942     		cmp	r1, r3
 1306              	.LBB609:
 1307              	.LBB608:
 1308              	.LBB607:
 244:../../libdaisy/src/dev/oled_ssd130x.h ****         else
 1309              		.loc 6 244 42 view .LVU353
 1310 0154 1A70     		strb	r2, [r3]
 1311              	.LVL84:
 244:../../libdaisy/src/dev/oled_ssd130x.h ****         else
 1312              		.loc 6 244 42 view .LVU354
 1313              	.LBE607:
 1314              	.LBE608:
 1315              	.LBE609:
 199:../../libdaisy/src/hid/disp/display.h ****         {
 1316              		.loc 5 199 26 is_stmt 1 view .LVU355
 1317 0156 F8D1     		bne	.L86
 1318              	.LVL85:
 199:../../libdaisy/src/hid/disp/display.h ****         {
 1319              		.loc 5 199 26 is_stmt 0 view .LVU356
 1320              	.LBE600:
 1321              	.LBE599:
 1322              	.LBB610:
 1323              	.LBI610:
 181:../../libdaisy/src/hid/disp/display.h ****                   uint_fast8_t y1,
 1324              		.loc 5 181 10 is_stmt 1 view .LVU357
 1325              	.LBB611:
 1326              	.LBB612:
 1327              	.LBI612:
  41:../../libdaisy/src/hid/disp/oled_display.h ****     {
 1328              		.loc 1 41 10 view .LVU358
 1329              	.LBB613:
 1330              	.LBI613:
ARM GAS  C:\Users\VINCIU~1\AppData\Local\Temp\ccA1pwKF.s 			page 52


 239:../../libdaisy/src/dev/oled_ssd130x.h ****     {
 1331              		.loc 6 239 10 view .LVU359
 1332              	.LBB614:
 244:../../libdaisy/src/dev/oled_ssd130x.h ****         else
 1333              		.loc 6 244 42 is_stmt 0 view .LVU360
 1334 0158 94F8D620 		ldrb	r2, [r4, #214]	@ zero_extendqisi2
 1335 015c 0023     		movs	r3, #0
 1336 015e 42F02002 		orr	r2, r2, #32
 1337 0162 84F8D620 		strb	r2, [r4, #214]
 1338              	.LVL86:
 244:../../libdaisy/src/dev/oled_ssd130x.h ****         else
 1339              		.loc 6 244 42 view .LVU361
 1340              	.LBE614:
 1341              	.LBE613:
 1342              	.LBE612:
 199:../../libdaisy/src/hid/disp/display.h ****         {
 1343              		.loc 5 199 26 is_stmt 1 view .LVU362
 1344              	.L87:
 1345              	.LBB615:
 1346              	.LBI615:
  41:../../libdaisy/src/hid/disp/oled_display.h ****     {
 1347              		.loc 1 41 10 view .LVU363
 1348              	.LBB616:
 1349              	.LBI616:
 239:../../libdaisy/src/dev/oled_ssd130x.h ****     {
 1350              		.loc 6 239 10 view .LVU364
 1351              	.LBB617:
 244:../../libdaisy/src/dev/oled_ssd130x.h ****         else
 1352              		.loc 6 244 28 is_stmt 0 view .LVU365
 1353 0166 D908     		lsrs	r1, r3, #3
 244:../../libdaisy/src/dev/oled_ssd130x.h ****         else
 1354              		.loc 6 244 54 view .LVU366
 1355 0168 03F00700 		and	r0, r3, #7
 244:../../libdaisy/src/dev/oled_ssd130x.h ****         else
 1356              		.loc 6 244 48 view .LVU367
 1357 016c 0122     		movs	r2, #1
 244:../../libdaisy/src/dev/oled_ssd130x.h ****         else
 1358              		.loc 6 244 42 view .LVU368
 1359 016e 04EBC111 		add	r1, r4, r1, lsl #7
 1360              	.LBE617:
 1361              	.LBE616:
 1362              	.LBE615:
 212:../../libdaisy/src/hid/disp/display.h ****             }
 1363              		.loc 5 212 20 view .LVU369
 1364 0172 1344     		add	r3, r3, r2
 1365              	.LVL87:
 1366              	.LBB622:
 1367              	.LBB620:
 1368              	.LBB618:
 244:../../libdaisy/src/dev/oled_ssd130x.h ****         else
 1369              		.loc 6 244 48 view .LVU370
 1370 0174 8240     		lsls	r2, r2, r0
 244:../../libdaisy/src/dev/oled_ssd130x.h ****         else
 1371              		.loc 6 244 42 view .LVU371
 1372 0176 91F85600 		ldrb	r0, [r1, #86]	@ zero_extendqisi2
 1373              	.LBE618:
 1374              	.LBE620:
ARM GAS  C:\Users\VINCIU~1\AppData\Local\Temp\ccA1pwKF.s 			page 53


 1375              	.LBE622:
 199:../../libdaisy/src/hid/disp/display.h ****         {
 1376              		.loc 5 199 26 view .LVU372
 1377 017a 0D2B     		cmp	r3, #13
 1378              	.LBB623:
 1379              	.LBB621:
 1380              	.LBB619:
 244:../../libdaisy/src/dev/oled_ssd130x.h ****         else
 1381              		.loc 6 244 42 view .LVU373
 1382 017c 42EA0002 		orr	r2, r2, r0
 1383 0180 81F85620 		strb	r2, [r1, #86]
 1384              	.LVL88:
 244:../../libdaisy/src/dev/oled_ssd130x.h ****         else
 1385              		.loc 6 244 42 view .LVU374
 1386              	.LBE619:
 1387              	.LBE621:
 1388              	.LBE623:
 199:../../libdaisy/src/hid/disp/display.h ****         {
 1389              		.loc 5 199 26 is_stmt 1 view .LVU375
 1390 0184 EFD1     		bne	.L87
 1391              	.LVL89:
 199:../../libdaisy/src/hid/disp/display.h ****         {
 1392              		.loc 5 199 26 is_stmt 0 view .LVU376
 1393              	.LBE611:
 1394              	.LBE610:
 1395              	.LBB624:
 1396              	.LBI624:
 181:../../libdaisy/src/hid/disp/display.h ****                   uint_fast8_t y1,
 1397              		.loc 5 181 10 is_stmt 1 view .LVU377
 1398              	.LBB625:
 1399              	.LBB626:
 1400              	.LBI626:
  41:../../libdaisy/src/hid/disp/oled_display.h ****     {
 1401              		.loc 1 41 10 view .LVU378
 1402              	.LBB627:
 1403              	.LBI627:
 239:../../libdaisy/src/dev/oled_ssd130x.h ****     {
 1404              		.loc 6 239 10 view .LVU379
 1405              	.LBB628:
 244:../../libdaisy/src/dev/oled_ssd130x.h ****         else
 1406              		.loc 6 244 42 is_stmt 0 view .LVU380
 1407 0186 94F89420 		ldrb	r2, [r4, #148]	@ zero_extendqisi2
 1408 018a 04F1D701 		add	r1, r4, #215
 1409 018e 04F19507 		add	r7, r4, #149
 1410 0192 42F02002 		orr	r2, r2, #32
 1411 0196 84F89420 		strb	r2, [r4, #148]
 1412              	.LVL90:
 244:../../libdaisy/src/dev/oled_ssd130x.h ****         else
 1413              		.loc 6 244 42 view .LVU381
 1414              	.LBE628:
 1415              	.LBE627:
 1416              	.LBE626:
 199:../../libdaisy/src/hid/disp/display.h ****         {
 1417              		.loc 5 199 26 is_stmt 1 view .LVU382
 1418              	.L88:
 1419              	.LBB629:
 1420              	.LBI629:
ARM GAS  C:\Users\VINCIU~1\AppData\Local\Temp\ccA1pwKF.s 			page 54


  41:../../libdaisy/src/hid/disp/oled_display.h ****     {
 1421              		.loc 1 41 10 view .LVU383
 1422              	.LBB630:
 1423              	.LBI630:
 239:../../libdaisy/src/dev/oled_ssd130x.h ****     {
 1424              		.loc 6 239 10 view .LVU384
 1425              	.LBB631:
 244:../../libdaisy/src/dev/oled_ssd130x.h ****         else
 1426              		.loc 6 244 42 is_stmt 0 view .LVU385
 1427 019a 11F8010D 		ldrb	r0, [r1, #-1]!	@ zero_extendqisi2
 244:../../libdaisy/src/dev/oled_ssd130x.h ****         else
 1428              		.loc 6 244 42 view .LVU386
 1429 019e 40F02000 		orr	r0, r0, #32
 1430              	.LBE631:
 1431              	.LBE630:
 1432              	.LBE629:
 199:../../libdaisy/src/hid/disp/display.h ****         {
 1433              		.loc 5 199 26 view .LVU387
 1434 01a2 8F42     		cmp	r7, r1
 1435              	.LBB634:
 1436              	.LBB633:
 1437              	.LBB632:
 244:../../libdaisy/src/dev/oled_ssd130x.h ****         else
 1438              		.loc 6 244 42 view .LVU388
 1439 01a4 0870     		strb	r0, [r1]
 1440              	.LVL91:
 244:../../libdaisy/src/dev/oled_ssd130x.h ****         else
 1441              		.loc 6 244 42 view .LVU389
 1442              	.LBE632:
 1443              	.LBE633:
 1444              	.LBE634:
 199:../../libdaisy/src/hid/disp/display.h ****         {
 1445              		.loc 5 199 26 is_stmt 1 view .LVU390
 1446 01a6 F8D1     		bne	.L88
 1447              	.LVL92:
 199:../../libdaisy/src/hid/disp/display.h ****         {
 1448              		.loc 5 199 26 is_stmt 0 view .LVU391
 1449              	.LBE625:
 1450              	.LBE624:
 1451              	.LBB635:
 1452              	.LBI635:
 181:../../libdaisy/src/hid/disp/display.h ****                   uint_fast8_t y1,
 1453              		.loc 5 181 10 is_stmt 1 view .LVU392
 1454              	.LBB636:
 1455              	.LBB637:
 1456              	.LBI637:
  41:../../libdaisy/src/hid/disp/oled_display.h ****     {
 1457              		.loc 1 41 10 view .LVU393
 1458              	.LBB638:
 1459              	.LBI638:
 239:../../libdaisy/src/dev/oled_ssd130x.h ****     {
 1460              		.loc 6 239 10 view .LVU394
 1461              	.LBB639:
 244:../../libdaisy/src/dev/oled_ssd130x.h ****         else
 1462              		.loc 6 244 42 is_stmt 0 view .LVU395
 1463 01a8 217D     		ldrb	r1, [r4, #20]	@ zero_extendqisi2
 1464 01aa 0120     		movs	r0, #1
ARM GAS  C:\Users\VINCIU~1\AppData\Local\Temp\ccA1pwKF.s 			page 55


 1465 01ac 41F00101 		orr	r1, r1, #1
 1466 01b0 2175     		strb	r1, [r4, #20]
 1467              	.LVL93:
 244:../../libdaisy/src/dev/oled_ssd130x.h ****         else
 1468              		.loc 6 244 42 view .LVU396
 1469              	.LBE639:
 1470              	.LBE638:
 1471              	.LBE637:
 199:../../libdaisy/src/hid/disp/display.h ****         {
 1472              		.loc 5 199 26 is_stmt 1 view .LVU397
 1473 01b2 02E0     		b	.L90
 1474              	.LVL94:
 1475              	.L159:
 1476              	.LBB640:
 1477              	.LBB641:
 1478              	.LBB642:
 244:../../libdaisy/src/dev/oled_ssd130x.h ****         else
 1479              		.loc 6 244 42 is_stmt 0 view .LVU398
 1480 01b4 04EBC012 		add	r2, r4, r0, lsl #7
 1481 01b8 127D     		ldrb	r2, [r2, #20]	@ zero_extendqisi2
 1482              	.LVL95:
 1483              	.L90:
 244:../../libdaisy/src/dev/oled_ssd130x.h ****         else
 1484              		.loc 6 244 42 view .LVU399
 1485              	.LBE642:
 1486              	.LBE641:
 1487              	.LBI640:
  41:../../libdaisy/src/hid/disp/oled_display.h ****     {
 1488              		.loc 1 41 10 is_stmt 1 view .LVU400
 1489              	.LBB646:
 1490              	.LBI641:
 239:../../libdaisy/src/dev/oled_ssd130x.h ****     {
 1491              		.loc 6 239 10 view .LVU401
 1492              	.LBB643:
 244:../../libdaisy/src/dev/oled_ssd130x.h ****         else
 1493              		.loc 6 244 54 is_stmt 0 view .LVU402
 1494 01ba 03F00707 		and	r7, r3, #7
 244:../../libdaisy/src/dev/oled_ssd130x.h ****         else
 1495              		.loc 6 244 48 view .LVU403
 1496 01be 0121     		movs	r1, #1
 244:../../libdaisy/src/dev/oled_ssd130x.h ****         else
 1497              		.loc 6 244 42 view .LVU404
 1498 01c0 04EBC010 		add	r0, r4, r0, lsl #7
 1499              	.LBE643:
 1500              	.LBE646:
 1501              	.LBE640:
 199:../../libdaisy/src/hid/disp/display.h ****         {
 1502              		.loc 5 199 26 view .LVU405
 1503 01c4 013B     		subs	r3, r3, #1
 1504              	.LVL96:
 1505              	.LBB649:
 1506              	.LBB647:
 1507              	.LBB644:
 244:../../libdaisy/src/dev/oled_ssd130x.h ****         else
 1508              		.loc 6 244 48 view .LVU406
 1509 01c6 01FA07F1 		lsl	r1, r1, r7
 244:../../libdaisy/src/dev/oled_ssd130x.h ****         else
ARM GAS  C:\Users\VINCIU~1\AppData\Local\Temp\ccA1pwKF.s 			page 56


 1510              		.loc 6 244 42 view .LVU407
 1511 01ca 42EA0102 		orr	r2, r2, r1
 1512 01ce 0275     		strb	r2, [r0, #20]
 1513              	.LVL97:
 244:../../libdaisy/src/dev/oled_ssd130x.h ****         else
 1514              		.loc 6 244 42 view .LVU408
 1515              	.LBE644:
 1516              	.LBE647:
 1517              	.LBE649:
 199:../../libdaisy/src/hid/disp/display.h ****         {
 1518              		.loc 5 199 26 is_stmt 1 view .LVU409
 1519              	.LBB650:
 1520              	.LBB648:
 1521              	.LBB645:
 244:../../libdaisy/src/dev/oled_ssd130x.h ****         else
 1522              		.loc 6 244 28 is_stmt 0 view .LVU410
 1523 01d0 4FEAD300 		lsr	r0, r3, #3
 1524              	.LBE645:
 1525              	.LBE648:
 1526              	.LBE650:
 199:../../libdaisy/src/hid/disp/display.h ****         {
 1527              		.loc 5 199 26 view .LVU411
 1528 01d4 EED1     		bne	.L159
 1529              	.LBE636:
 1530              	.LBE635:
 1531              	.LBE598:
 1532              	.LBE651:
 508:Menus.cpp     ****         screen.DrawRect(67, 0, screen.Width() - 2, 13, true, false);
 1533              		.loc 2 508 23 view .LVU412
 1534 01d6 06F58E77 		add	r7, r6, #284
 1535 01da 48E7     		b	.L91
 1536              	.LVL98:
 1537              	.L73:
 508:Menus.cpp     ****         screen.DrawRect(67, 0, screen.Width() - 2, 13, true, false);
 1538              		.loc 2 508 23 view .LVU413
 1539              	.LBE756:
 1540              	.LBB757:
 1541              	.LBB588:
 1542              	.LBB586:
 1543              	.LBB584:
 1544              	.LBB582:
 1545              	.LBB581:
 246:../../libdaisy/src/dev/oled_ssd130x.h ****     }
 1546              		.loc 6 246 42 view .LVU414
 1547 01dc 21F00101 		bic	r1, r1, #1
 1548 01e0 82F81412 		strb	r1, [r2, #532]
 1549 01e4 27E7     		b	.L74
 1550              	.LVL99:
 1551              	.L119:
 246:../../libdaisy/src/dev/oled_ssd130x.h ****     }
 1552              		.loc 6 246 42 view .LVU415
 1553              	.LBE581:
 1554              	.LBE582:
 1555              	.LBE584:
 1556              	.LBE586:
 1557              	.LBE588:
 1558              	.LBE757:
ARM GAS  C:\Users\VINCIU~1\AppData\Local\Temp\ccA1pwKF.s 			page 57


 1559              	.LBB758:
 1560              	.LBB652:
 1561 01e6 F3EE017A 		vmov.f32	s15, #1.7e+1
 1562 01ea 6423     		movs	r3, #100
 1563 01ec 97E7     		b	.L85
 1564              	.LVL100:
 1565              	.L160:
 246:../../libdaisy/src/dev/oled_ssd130x.h ****     }
 1566              		.loc 6 246 42 view .LVU416
 1567              	.LBE652:
 1568              	.LBE758:
 1569              	.LBB759:
 1570              	.LBB751:
 189:../../libdaisy/src/hid/disp/display.h ****         int_fast16_t signY  = ((y1 < y2) ? 1 : -1);
 1571              		.loc 5 189 42 view .LVU417
 1572 01ee 4FF0FF33 		mov	r3, #-1
 191:../../libdaisy/src/hid/disp/display.h ****         int_fast16_t error2;
 1573              		.loc 5 191 22 view .LVU418
 1574 01f2 A7EB0A01 		sub	r1, r7, r10
 1575              	.LVL101:
 1576              	.LBB739:
  41:../../libdaisy/src/hid/disp/oled_display.h ****     {
 1577              		.loc 1 41 10 is_stmt 1 view .LVU419
 1578              	.LBB732:
 1579              		.loc 1 43 26 is_stmt 0 view .LVU420
 1580 01f6 04F10805 		add	r5, r4, #8
 1581              	.LVL102:
 1582              	.LBB725:
 239:../../libdaisy/src/dev/oled_ssd130x.h ****     {
 1583              		.loc 6 239 10 is_stmt 1 view .LVU421
 1584              	.LBE725:
 1585              	.LBE732:
 1586              	.LBE739:
 189:../../libdaisy/src/hid/disp/display.h ****         int_fast16_t signY  = ((y1 < y2) ? 1 : -1);
 1587              		.loc 5 189 42 is_stmt 0 view .LVU422
 1588 01fa 0793     		str	r3, [sp, #28]
 1589              	.LVL103:
 1590              	.L118:
 190:../../libdaisy/src/hid/disp/display.h ****         int_fast16_t error  = deltaX - deltaY;
 1591              		.loc 5 190 42 view .LVU423
 1592 01fc 4FF0FF33 		mov	r3, #-1
 1593 0200 0693     		str	r3, [sp, #24]
 1594              	.LVL104:
 1595              	.L114:
 1596              	.LBB740:
 1597              	.LBB733:
 1598              	.LBB726:
 1599              	.LBB721:
 244:../../libdaisy/src/dev/oled_ssd130x.h ****         else
 1600              		.loc 6 244 42 view .LVU424
 1601 0202 08F50073 		add	r3, r8, #512
 1602 0206 2344     		add	r3, r3, r4
 1603 0208 1A7D     		ldrb	r2, [r3, #20]	@ zero_extendqisi2
 1604 020a 42F00102 		orr	r2, r2, #1
 1605 020e 1A75     		strb	r2, [r3, #20]
 1606              	.LVL105:
 244:../../libdaisy/src/dev/oled_ssd130x.h ****         else
ARM GAS  C:\Users\VINCIU~1\AppData\Local\Temp\ccA1pwKF.s 			page 58


 1607              		.loc 6 244 42 view .LVU425
 1608              	.LBE721:
 1609              	.LBE726:
 1610              	.LBE733:
 1611              	.LBE740:
 199:../../libdaisy/src/hid/disp/display.h ****         {
 1612              		.loc 5 199 26 is_stmt 1 view .LVU426
 1613 0210 059B     		ldr	r3, [sp, #20]
 1614 0212 202B     		cmp	r3, #32
 1615 0214 02D1     		bne	.L105
 199:../../libdaisy/src/hid/disp/display.h ****         {
 1616              		.loc 5 199 26 is_stmt 0 view .LVU427
 1617 0216 B8F10A0F 		cmp	r8, #10
 1618 021a 2AD0     		beq	.L106
 1619              	.L105:
 1620              	.LVL106:
 203:../../libdaisy/src/hid/disp/display.h ****             {
 1621              		.loc 5 203 23 view .LVU428
 1622 021c CAF10009 		rsb	r9, r10, #0
 1623              	.LBE751:
 1624              	.LBE759:
 1625              		.loc 2 516 20 view .LVU429
 1626 0220 059A     		ldr	r2, [sp, #20]
 1627              	.LBB760:
 1628              	.LBB752:
 203:../../libdaisy/src/hid/disp/display.h ****             {
 1629              		.loc 5 203 23 view .LVU430
 1630 0222 4FF00A0C 		mov	ip, #10
 1631              	.L109:
 1632              	.LVL107:
 1633              	.LBB741:
 1634              	.LBI741:
  41:../../libdaisy/src/hid/disp/oled_display.h ****     {
 1635              		.loc 1 41 10 is_stmt 1 view .LVU431
 1636              	.LBB742:
 1637              	.LBI742:
 239:../../libdaisy/src/dev/oled_ssd130x.h ****     {
 1638              		.loc 6 239 10 view .LVU432
 1639              	.LBB743:
 244:../../libdaisy/src/dev/oled_ssd130x.h ****         else
 1640              		.loc 6 244 48 is_stmt 0 view .LVU433
 1641 0226 4FF0010B 		mov	fp, #1
 244:../../libdaisy/src/dev/oled_ssd130x.h ****         else
 1642              		.loc 6 244 28 view .LVU434
 1643 022a D308     		lsrs	r3, r2, #3
 244:../../libdaisy/src/dev/oled_ssd130x.h ****         else
 1644              		.loc 6 244 54 view .LVU435
 1645 022c 02F00700 		and	r0, r2, #7
 241:../../libdaisy/src/dev/oled_ssd130x.h ****             return;
 1646              		.loc 6 241 9 view .LVU436
 1647 0230 BCF17F0F 		cmp	ip, #127
 244:../../libdaisy/src/dev/oled_ssd130x.h ****         else
 1648              		.loc 6 244 42 view .LVU437
 1649 0234 0CEBC313 		add	r3, ip, r3, lsl #7
 1650              	.LBE743:
 1651              	.LBE742:
 1652              	.LBE741:
ARM GAS  C:\Users\VINCIU~1\AppData\Local\Temp\ccA1pwKF.s 			page 59


 202:../../libdaisy/src/hid/disp/display.h ****             if(error2 > -deltaY)
 1653              		.loc 5 202 20 view .LVU438
 1654 0238 01FA0BFE 		lsl	lr, r1, fp
 1655              	.LVL108:
 1656              	.LBB746:
 1657              	.LBB745:
 1658              	.LBB744:
 244:../../libdaisy/src/dev/oled_ssd130x.h ****         else
 1659              		.loc 6 244 48 view .LVU439
 1660 023c 0BFA00F0 		lsl	r0, fp, r0
 241:../../libdaisy/src/dev/oled_ssd130x.h ****             return;
 1661              		.loc 6 241 9 view .LVU440
 1662 0240 07D8     		bhi	.L110
 1663 0242 3F2A     		cmp	r2, #63
 244:../../libdaisy/src/dev/oled_ssd130x.h ****         else
 1664              		.loc 6 244 42 view .LVU441
 1665 0244 2344     		add	r3, r3, r4
 241:../../libdaisy/src/dev/oled_ssd130x.h ****             return;
 1666              		.loc 6 241 9 view .LVU442
 1667 0246 04D8     		bhi	.L110
 244:../../libdaisy/src/dev/oled_ssd130x.h ****         else
 1668              		.loc 6 244 42 view .LVU443
 1669 0248 93F814B0 		ldrb	fp, [r3, #20]	@ zero_extendqisi2
 1670 024c 40EA0B00 		orr	r0, r0, fp
 1671 0250 1875     		strb	r0, [r3, #20]
 1672              	.L110:
 244:../../libdaisy/src/dev/oled_ssd130x.h ****         else
 1673              		.loc 6 244 42 view .LVU444
 1674              	.LBE744:
 1675              	.LBE745:
 1676              	.LBE746:
 203:../../libdaisy/src/hid/disp/display.h ****             {
 1677              		.loc 5 203 13 view .LVU445
 1678 0252 B9EB410F 		cmp	r9, r1, lsl #1
 1679 0256 03DA     		bge	.L111
 206:../../libdaisy/src/hid/disp/display.h ****             }
 1680              		.loc 5 206 20 view .LVU446
 1681 0258 079B     		ldr	r3, [sp, #28]
 205:../../libdaisy/src/hid/disp/display.h ****                 x1 += signX;
 1682              		.loc 5 205 23 view .LVU447
 1683 025a A1EB0A01 		sub	r1, r1, r10
 1684              	.LVL109:
 206:../../libdaisy/src/hid/disp/display.h ****             }
 1685              		.loc 5 206 20 view .LVU448
 1686 025e 9C44     		add	ip, ip, r3
 1687              	.LVL110:
 1688              	.L111:
 209:../../libdaisy/src/hid/disp/display.h ****             {
 1689              		.loc 5 209 13 view .LVU449
 1690 0260 7745     		cmp	r7, lr
 1691 0262 02DD     		ble	.L112
 212:../../libdaisy/src/hid/disp/display.h ****             }
 1692              		.loc 5 212 20 view .LVU450
 1693 0264 069B     		ldr	r3, [sp, #24]
 211:../../libdaisy/src/hid/disp/display.h ****                 y1 += signY;
 1694              		.loc 5 211 23 view .LVU451
 1695 0266 3944     		add	r1, r1, r7
ARM GAS  C:\Users\VINCIU~1\AppData\Local\Temp\ccA1pwKF.s 			page 60


 1696              	.LVL111:
 212:../../libdaisy/src/hid/disp/display.h ****             }
 1697              		.loc 5 212 20 view .LVU452
 1698 0268 1A44     		add	r2, r2, r3
 1699              	.LVL112:
 1700              	.L112:
 199:../../libdaisy/src/hid/disp/display.h ****         {
 1701              		.loc 5 199 26 is_stmt 1 view .LVU453
 1702 026a E045     		cmp	r8, ip
 1703 026c DBD1     		bne	.L109
 199:../../libdaisy/src/hid/disp/display.h ****         {
 1704              		.loc 5 199 26 is_stmt 0 view .LVU454
 1705 026e 202A     		cmp	r2, #32
 1706 0270 D9D1     		bne	.L109
 1707              	.LVL113:
 1708              	.L106:
 199:../../libdaisy/src/hid/disp/display.h ****         {
 1709              		.loc 5 199 26 view .LVU455
 1710              	.LBE752:
 1711              	.LBE760:
 517:Menus.cpp     ****                     circleGlidePosition,
 518:Menus.cpp     ****                     circleGlideTimePosition,
 519:Menus.cpp     ****                     screen.Height() / 2,
 520:Menus.cpp     ****                     true);
 521:Menus.cpp     ****     screen.DrawCircle(margin, circleGlidePosition, 3, true);
 1712              		.loc 2 521 5 is_stmt 1 view .LVU456
 1713              	.LBB761:
 1714              	.LBI761:
 100:../../libdaisy/src/hid/disp/display.h ****     {
 1715              		.loc 5 100 5 view .LVU457
 1716              	.LBB762:
 102:../../libdaisy/src/hid/disp/display.h ****     };
 1717              		.loc 5 102 9 view .LVU458
 102:../../libdaisy/src/hid/disp/display.h ****     };
 1718              		.loc 5 102 41 is_stmt 0 view .LVU459
 1719 0272 2368     		ldr	r3, [r4]
 102:../../libdaisy/src/hid/disp/display.h ****     };
 1720              		.loc 5 102 16 view .LVU460
 1721 0274 4FF00109 		mov	r9, #1
 1722 0278 0027     		movs	r7, #0
 1723 027a 4FF4B478 		mov	r8, #360
 1724 027e 2046     		mov	r0, r4
 1725 0280 059A     		ldr	r2, [sp, #20]
 1726 0282 0097     		str	r7, [sp]
 1727 0284 0A21     		movs	r1, #10
 1728 0286 CDE90189 		strd	r8, r9, [sp, #4]
 1729 028a D3F820A0 		ldr	r10, [r3, #32]
 1730 028e 0323     		movs	r3, #3
 1731 0290 D047     		blx	r10
 1732              	.LVL114:
 102:../../libdaisy/src/hid/disp/display.h ****     };
 1733              		.loc 5 102 16 view .LVU461
 1734              	.LBE762:
 1735              	.LBE761:
 522:Menus.cpp     ****     screen.DrawCircle(circleGlideTimePosition, screen.Height() / 2, 3, true);
 1736              		.loc 2 522 5 is_stmt 1 view .LVU462
 1737              	.LBB763:
ARM GAS  C:\Users\VINCIU~1\AppData\Local\Temp\ccA1pwKF.s 			page 61


 1738              	.LBI763:
 100:../../libdaisy/src/hid/disp/display.h ****     {
 1739              		.loc 5 100 5 view .LVU463
 1740              	.LBB764:
 102:../../libdaisy/src/hid/disp/display.h ****     };
 1741              		.loc 5 102 9 view .LVU464
 1742              	.LBE764:
 1743              	.LBE763:
 1744              		.loc 2 522 22 is_stmt 0 view .LVU465
 1745 0292 D6ED237A 		vldr.32	s15, [r6, #140]
 1746              	.LBB767:
 1747              	.LBB765:
 102:../../libdaisy/src/hid/disp/display.h ****     };
 1748              		.loc 5 102 16 view .LVU466
 1749 0296 0097     		str	r7, [sp]
 1750              	.LVL115:
 102:../../libdaisy/src/hid/disp/display.h ****     };
 1751              		.loc 5 102 16 view .LVU467
 1752 0298 2046     		mov	r0, r4
 1753 029a FCEEE77A 		vcvt.u32.f32	s15, s15
 1754              	.LVL116:
 102:../../libdaisy/src/hid/disp/display.h ****     };
 1755              		.loc 5 102 16 view .LVU468
 1756 029e 0323     		movs	r3, #3
 1757 02a0 2022     		movs	r2, #32
 1758              	.LBE765:
 1759              	.LBE767:
 1760              	.LBB768:
 1761              	.LBB769:
 1762              	.LBB770:
 1763              	.LBB771:
 1764              	.LBB772:
 111:../../libdaisy/src/dev/oled_ssd130x.h ****         spi_.BlockingTransmit(&cmd, 1);
 1765              		.loc 6 111 24 view .LVU469
 1766 02a2 05F10807 		add	r7, r5, #8
 1767              	.LBE772:
 1768              	.LBE771:
 1769              	.LBE770:
 1770              	.LBE769:
 1771              	.LBE768:
 1772              	.LBB792:
 1773              	.LBB766:
 102:../../libdaisy/src/hid/disp/display.h ****     };
 1774              		.loc 5 102 16 view .LVU470
 1775 02a6 CDE90189 		strd	r8, r9, [sp, #4]
 102:../../libdaisy/src/hid/disp/display.h ****     };
 1776              		.loc 5 102 41 view .LVU471
 1777 02aa 2668     		ldr	r6, [r4]
 1778              	.LVL117:
 102:../../libdaisy/src/hid/disp/display.h ****     };
 1779              		.loc 5 102 16 view .LVU472
 1780 02ac 17EE901A 		vmov	r1, s15	@ int
 1781 02b0 05F20C49 		addw	r9, r5, #1036
 1782 02b4 346A     		ldr	r4, [r6, #32]
 1783              	.LVL118:
 102:../../libdaisy/src/hid/disp/display.h ****     };
 1784              		.loc 5 102 16 view .LVU473
ARM GAS  C:\Users\VINCIU~1\AppData\Local\Temp\ccA1pwKF.s 			page 62


 1785 02b6 05F10C06 		add	r6, r5, #12
 1786 02ba A047     		blx	r4
 1787              	.LVL119:
 102:../../libdaisy/src/hid/disp/display.h ****     };
 1788              		.loc 5 102 16 view .LVU474
 1789              	.LBE766:
 1790              	.LBE792:
 523:Menus.cpp     **** 
 524:Menus.cpp     **** 
 525:Menus.cpp     ****     screen.Update();
 1791              		.loc 2 525 5 is_stmt 1 view .LVU475
 1792              	.LBB793:
 1793              	.LBI768:
  44:../../libdaisy/src/hid/disp/oled_display.h ****     }
  45:../../libdaisy/src/hid/disp/oled_display.h **** 
  46:../../libdaisy/src/hid/disp/oled_display.h ****     /** 
  47:../../libdaisy/src/hid/disp/oled_display.h ****     Writes the current display buffer to the OLED device using SPI or I2C depending on 
  48:../../libdaisy/src/hid/disp/oled_display.h ****     how the object was initialized.
  49:../../libdaisy/src/hid/disp/oled_display.h ****     */
  50:../../libdaisy/src/hid/disp/oled_display.h ****     void Update() override { driver_.Update(); }
 1794              		.loc 1 50 10 view .LVU476
 1795              	.LBB791:
 1796              	.LBI769:
 254:../../libdaisy/src/dev/oled_ssd130x.h ****         }
 255:../../libdaisy/src/dev/oled_ssd130x.h ****     };
 256:../../libdaisy/src/dev/oled_ssd130x.h **** 
 257:../../libdaisy/src/dev/oled_ssd130x.h ****     /**
 258:../../libdaisy/src/dev/oled_ssd130x.h ****      * Update the display 
 259:../../libdaisy/src/dev/oled_ssd130x.h ****     */
 260:../../libdaisy/src/dev/oled_ssd130x.h ****     void Update()
 1797              		.loc 6 260 10 view .LVU477
 1798              	.LBB790:
 261:../../libdaisy/src/dev/oled_ssd130x.h ****     {
 262:../../libdaisy/src/dev/oled_ssd130x.h ****         uint8_t i;
 263:../../libdaisy/src/dev/oled_ssd130x.h ****         uint8_t high_column_addr;
 264:../../libdaisy/src/dev/oled_ssd130x.h ****         switch(height)
 265:../../libdaisy/src/dev/oled_ssd130x.h ****         {
 266:../../libdaisy/src/dev/oled_ssd130x.h ****             case 32: high_column_addr = 0x12; break;
 267:../../libdaisy/src/dev/oled_ssd130x.h **** 
 268:../../libdaisy/src/dev/oled_ssd130x.h ****             default: high_column_addr = 0x10; break;
 269:../../libdaisy/src/dev/oled_ssd130x.h ****         }
 270:../../libdaisy/src/dev/oled_ssd130x.h ****         for(i = 0; i < (height / 8); i++)
 1799              		.loc 6 270 22 view .LVU478
 1800              	.LBB777:
 1801              	.LBB773:
 111:../../libdaisy/src/dev/oled_ssd130x.h ****         spi_.BlockingTransmit(&cmd, 1);
 1802              		.loc 6 111 24 is_stmt 0 view .LVU479
 1803 02bc B024     		movs	r4, #176
 1804              	.LVL120:
 1805              	.L113:
 111:../../libdaisy/src/dev/oled_ssd130x.h ****         spi_.BlockingTransmit(&cmd, 1);
 1806              		.loc 6 111 24 view .LVU480
 1807 02be 4FF00008 		mov	r8, #0
 111:../../libdaisy/src/dev/oled_ssd130x.h ****         spi_.BlockingTransmit(&cmd, 1);
 1808              		.loc 6 111 23 view .LVU481
 1809 02c2 3846     		mov	r0, r7
 1810 02c4 8DF82740 		strb	r4, [sp, #39]
ARM GAS  C:\Users\VINCIU~1\AppData\Local\Temp\ccA1pwKF.s 			page 63


 1811              	.LVL121:
 111:../../libdaisy/src/dev/oled_ssd130x.h ****         spi_.BlockingTransmit(&cmd, 1);
 1812              		.loc 6 111 23 view .LVU482
 1813              	.LBE773:
 1814              	.LBI771:
 109:../../libdaisy/src/dev/oled_ssd130x.h ****     {
 1815              		.loc 6 109 10 is_stmt 1 view .LVU483
 1816              	.LBB774:
 111:../../libdaisy/src/dev/oled_ssd130x.h ****         spi_.BlockingTransmit(&cmd, 1);
 1817              		.loc 6 111 9 view .LVU484
 1818              	.LBE774:
 1819              	.LBE777:
 1820              		.loc 6 270 22 is_stmt 0 view .LVU485
 1821 02c8 0134     		adds	r4, r4, #1
 1822              	.LVL122:
 1823              	.LBB778:
 1824              	.LBB775:
 111:../../libdaisy/src/dev/oled_ssd130x.h ****         spi_.BlockingTransmit(&cmd, 1);
 1825              		.loc 6 111 23 view .LVU486
 1826 02ca 4146     		mov	r1, r8
 1827 02cc FFF7FEFF 		bl	dsy_gpio_write
 1828              	.LVL123:
 112:../../libdaisy/src/dev/oled_ssd130x.h ****     };
 1829              		.loc 6 112 9 is_stmt 1 view .LVU487
 112:../../libdaisy/src/dev/oled_ssd130x.h ****     };
 1830              		.loc 6 112 30 is_stmt 0 view .LVU488
 1831 02d0 6423     		movs	r3, #100
 1832 02d2 0122     		movs	r2, #1
 1833 02d4 0DF12701 		add	r1, sp, #39
 1834 02d8 2846     		mov	r0, r5
 1835              	.LBE775:
 1836              	.LBE778:
 1837              		.loc 6 270 22 view .LVU489
 1838 02da E4B2     		uxtb	r4, r4
 1839              	.LBB779:
 1840              	.LBB776:
 112:../../libdaisy/src/dev/oled_ssd130x.h ****     };
 1841              		.loc 6 112 30 view .LVU490
 1842 02dc FFF7FEFF 		bl	_ZN5daisy9SpiHandle16BlockingTransmitEPhjm
 1843              	.LVL124:
 112:../../libdaisy/src/dev/oled_ssd130x.h ****     };
 1844              		.loc 6 112 30 view .LVU491
 1845              	.LBE776:
 1846              	.LBE779:
 1847              	.LBB780:
 1848              	.LBB781:
 111:../../libdaisy/src/dev/oled_ssd130x.h ****         spi_.BlockingTransmit(&cmd, 1);
 1849              		.loc 6 111 23 view .LVU492
 1850 02e0 4146     		mov	r1, r8
 1851 02e2 3846     		mov	r0, r7
 1852 02e4 8DF82780 		strb	r8, [sp, #39]
 1853              	.LVL125:
 111:../../libdaisy/src/dev/oled_ssd130x.h ****         spi_.BlockingTransmit(&cmd, 1);
 1854              		.loc 6 111 23 view .LVU493
 1855              	.LBE781:
 1856              	.LBI780:
 109:../../libdaisy/src/dev/oled_ssd130x.h ****     {
ARM GAS  C:\Users\VINCIU~1\AppData\Local\Temp\ccA1pwKF.s 			page 64


 1857              		.loc 6 109 10 is_stmt 1 view .LVU494
 1858              	.LBB782:
 111:../../libdaisy/src/dev/oled_ssd130x.h ****         spi_.BlockingTransmit(&cmd, 1);
 1859              		.loc 6 111 9 view .LVU495
 111:../../libdaisy/src/dev/oled_ssd130x.h ****         spi_.BlockingTransmit(&cmd, 1);
 1860              		.loc 6 111 23 is_stmt 0 view .LVU496
 1861 02e8 FFF7FEFF 		bl	dsy_gpio_write
 1862              	.LVL126:
 112:../../libdaisy/src/dev/oled_ssd130x.h ****     };
 1863              		.loc 6 112 9 is_stmt 1 view .LVU497
 112:../../libdaisy/src/dev/oled_ssd130x.h ****     };
 1864              		.loc 6 112 30 is_stmt 0 view .LVU498
 1865 02ec 0122     		movs	r2, #1
 1866 02ee 6423     		movs	r3, #100
 1867 02f0 0DF12701 		add	r1, sp, #39
 1868 02f4 2846     		mov	r0, r5
 1869 02f6 FFF7FEFF 		bl	_ZN5daisy9SpiHandle16BlockingTransmitEPhjm
 1870              	.LVL127:
 112:../../libdaisy/src/dev/oled_ssd130x.h ****     };
 1871              		.loc 6 112 30 view .LVU499
 1872 02fa 1023     		movs	r3, #16
 1873              	.LBE782:
 1874              	.LBE780:
 1875              	.LBB783:
 1876              	.LBB784:
 111:../../libdaisy/src/dev/oled_ssd130x.h ****         spi_.BlockingTransmit(&cmd, 1);
 1877              		.loc 6 111 23 view .LVU500
 1878 02fc 4146     		mov	r1, r8
 1879 02fe 3846     		mov	r0, r7
 1880 0300 8DF82730 		strb	r3, [sp, #39]
 1881              	.LVL128:
 111:../../libdaisy/src/dev/oled_ssd130x.h ****         spi_.BlockingTransmit(&cmd, 1);
 1882              		.loc 6 111 23 view .LVU501
 1883              	.LBE784:
 1884              	.LBI783:
 109:../../libdaisy/src/dev/oled_ssd130x.h ****     {
 1885              		.loc 6 109 10 is_stmt 1 view .LVU502
 1886              	.LBB785:
 111:../../libdaisy/src/dev/oled_ssd130x.h ****         spi_.BlockingTransmit(&cmd, 1);
 1887              		.loc 6 111 9 view .LVU503
 111:../../libdaisy/src/dev/oled_ssd130x.h ****         spi_.BlockingTransmit(&cmd, 1);
 1888              		.loc 6 111 23 is_stmt 0 view .LVU504
 1889 0304 FFF7FEFF 		bl	dsy_gpio_write
 1890              	.LVL129:
 112:../../libdaisy/src/dev/oled_ssd130x.h ****     };
 1891              		.loc 6 112 9 is_stmt 1 view .LVU505
 112:../../libdaisy/src/dev/oled_ssd130x.h ****     };
 1892              		.loc 6 112 30 is_stmt 0 view .LVU506
 1893 0308 6423     		movs	r3, #100
 1894 030a 0122     		movs	r2, #1
 1895 030c 0DF12701 		add	r1, sp, #39
 1896 0310 2846     		mov	r0, r5
 1897 0312 FFF7FEFF 		bl	_ZN5daisy9SpiHandle16BlockingTransmitEPhjm
 1898              	.LVL130:
 112:../../libdaisy/src/dev/oled_ssd130x.h ****     };
 1899              		.loc 6 112 30 view .LVU507
 1900              	.LBE785:
ARM GAS  C:\Users\VINCIU~1\AppData\Local\Temp\ccA1pwKF.s 			page 65


 1901              	.LBE783:
 1902              	.LBB786:
 1903              	.LBI786:
 115:../../libdaisy/src/dev/oled_ssd130x.h ****     {
 1904              		.loc 6 115 10 is_stmt 1 view .LVU508
 1905              	.LBB787:
 117:../../libdaisy/src/dev/oled_ssd130x.h ****         spi_.BlockingTransmit(buff, size);
 1906              		.loc 6 117 9 view .LVU509
 117:../../libdaisy/src/dev/oled_ssd130x.h ****         spi_.BlockingTransmit(buff, size);
 1907              		.loc 6 117 23 is_stmt 0 view .LVU510
 1908 0316 0121     		movs	r1, #1
 1909 0318 3846     		mov	r0, r7
 1910 031a FFF7FEFF 		bl	dsy_gpio_write
 1911              	.LVL131:
 118:../../libdaisy/src/dev/oled_ssd130x.h ****     };
 1912              		.loc 6 118 9 is_stmt 1 view .LVU511
 118:../../libdaisy/src/dev/oled_ssd130x.h ****     };
 1913              		.loc 6 118 30 is_stmt 0 view .LVU512
 1914 031e 8022     		movs	r2, #128
 1915 0320 3146     		mov	r1, r6
 1916 0322 6423     		movs	r3, #100
 1917              	.LBE787:
 1918              	.LBE786:
 1919              		.loc 6 270 22 view .LVU513
 1920 0324 1644     		add	r6, r6, r2
 1921              	.LVL132:
 1922              	.LBB789:
 1923              	.LBB788:
 118:../../libdaisy/src/dev/oled_ssd130x.h ****     };
 1924              		.loc 6 118 30 view .LVU514
 1925 0326 2846     		mov	r0, r5
 1926 0328 FFF7FEFF 		bl	_ZN5daisy9SpiHandle16BlockingTransmitEPhjm
 1927              	.LVL133:
 118:../../libdaisy/src/dev/oled_ssd130x.h ****     };
 1928              		.loc 6 118 30 view .LVU515
 1929              	.LBE788:
 1930              	.LBE789:
 1931              		.loc 6 270 9 is_stmt 1 view .LVU516
 1932              		.loc 6 270 22 view .LVU517
 1933 032c 4E45     		cmp	r6, r9
 1934 032e C6D1     		bne	.L113
 1935              	.LBE790:
 1936              	.LBE791:
 1937              	.LBE793:
 526:Menus.cpp     **** }
 1938              		.loc 2 526 1 is_stmt 0 view .LVU518
 1939 0330 0BB0     		add	sp, sp, #44
 1940              		.cfi_remember_state
 1941              		.cfi_def_cfa_offset 36
 1942              		@ sp needed
 1943 0332 BDE8F08F 		pop	{r4, r5, r6, r7, r8, r9, r10, fp, pc}
 1944              	.LVL134:
 1945              	.L103:
 1946              		.cfi_restore_state
 1947              	.LBB794:
 1948              	.LBB753:
 190:../../libdaisy/src/hid/disp/display.h ****         int_fast16_t error  = deltaX - deltaY;
ARM GAS  C:\Users\VINCIU~1\AppData\Local\Temp\ccA1pwKF.s 			page 66


 1949              		.loc 5 190 42 view .LVU519
 1950 0336 059B     		ldr	r3, [sp, #20]
 1951              	.LVL135:
 190:../../libdaisy/src/hid/disp/display.h ****         int_fast16_t error  = deltaX - deltaY;
 1952              		.loc 5 190 42 view .LVU520
 1953 0338 1F2B     		cmp	r3, #31
 1954 033a 3FF658AF 		bhi	.L160
 1955              	.LVL136:
 189:../../libdaisy/src/hid/disp/display.h ****         int_fast16_t signY  = ((y1 < y2) ? 1 : -1);
 1956              		.loc 5 189 42 view .LVU521
 1957 033e 4FF0FF33 		mov	r3, #-1
 191:../../libdaisy/src/hid/disp/display.h ****         int_fast16_t error2;
 1958              		.loc 5 191 22 view .LVU522
 1959 0342 A7EB0A01 		sub	r1, r7, r10
 1960              	.LVL137:
 1961              	.LBB747:
  41:../../libdaisy/src/hid/disp/oled_display.h ****     {
 1962              		.loc 1 41 10 is_stmt 1 view .LVU523
 1963              	.LBB734:
  43:../../libdaisy/src/hid/disp/oled_display.h ****     }
 1964              		.loc 1 43 26 is_stmt 0 view .LVU524
 1965 0346 04F10805 		add	r5, r4, #8
 1966              	.LVL138:
 1967              	.LBB727:
 239:../../libdaisy/src/dev/oled_ssd130x.h ****     {
 1968              		.loc 6 239 10 is_stmt 1 view .LVU525
 1969              	.LBE727:
 1970              	.LBE734:
 1971              	.LBE747:
 190:../../libdaisy/src/hid/disp/display.h ****         int_fast16_t error  = deltaX - deltaY;
 1972              		.loc 5 190 42 is_stmt 0 view .LVU526
 1973 034a CDF81890 		str	r9, [sp, #24]
 189:../../libdaisy/src/hid/disp/display.h ****         int_fast16_t signY  = ((y1 < y2) ? 1 : -1);
 1974              		.loc 5 189 42 view .LVU527
 1975 034e 0793     		str	r3, [sp, #28]
 1976 0350 57E7     		b	.L114
 1977              	.LVL139:
 1978              	.L156:
 189:../../libdaisy/src/hid/disp/display.h ****         int_fast16_t signY  = ((y1 < y2) ? 1 : -1);
 1979              		.loc 5 189 42 view .LVU528
 1980              	.LBE753:
 1981              	.LBE794:
 441:Menus.cpp     ****         if(this->menuStateGlide < 0)
 1982              		.loc 2 441 9 is_stmt 1 view .LVU529
 442:Menus.cpp     ****         {
 1983              		.loc 2 442 9 view .LVU530
 1984 0352 013B     		subs	r3, r3, #1
 1985 0354 16D4     		bmi	.L78
 441:Menus.cpp     ****         if(this->menuStateGlide < 0)
 1986              		.loc 2 441 30 is_stmt 0 view .LVU531
 1987 0356 3367     		str	r3, [r6, #112]
 1988 0358 7CE6     		b	.L79
 1989              	.LVL140:
 1990              	.L104:
 1991              	.LBB795:
 1992              	.LBB754:
 1993              	.LBB748:
ARM GAS  C:\Users\VINCIU~1\AppData\Local\Temp\ccA1pwKF.s 			page 67


 1994              	.LBB735:
 1995              	.LBB728:
 239:../../libdaisy/src/dev/oled_ssd130x.h ****     {
 1996              		.loc 6 239 10 is_stmt 1 view .LVU532
 1997              	.LBB722:
 241:../../libdaisy/src/dev/oled_ssd130x.h ****             return;
 1998              		.loc 6 241 9 is_stmt 0 view .LVU533
 1999 035a B8F17F0F 		cmp	r8, #127
 2000              	.LBE722:
 2001              	.LBE728:
 2002              	.LBE735:
 2003              	.LBE748:
 190:../../libdaisy/src/hid/disp/display.h ****         int_fast16_t error  = deltaX - deltaY;
 2004              		.loc 5 190 42 view .LVU534
 2005 035e CDE90699 		strd	r9, r9, [sp, #24]
 2006              	.LBB749:
 2007              	.LBB736:
 2008              	.LBB729:
 2009              	.LBB723:
 241:../../libdaisy/src/dev/oled_ssd130x.h ****             return;
 2010              		.loc 6 241 9 view .LVU535
 2011 0362 3FF65BAF 		bhi	.L105
 2012 0366 4CE7     		b	.L114
 2013              	.L162:
 2014              		.align	2
 2015              	.L161:
 2016 0368 06000400 		.word	262150
 2017 036c 00000000 		.word	Font_6x8
 2018 0370 49000400 		.word	262217
 2019 0374 00003C42 		.word	1111228416
 2020 0378 00000000 		.word	.LC1
 2021 037c 00000000 		.word	0
 2022 0380 0000C842 		.word	1120403456
 2023              	.LVL141:
 2024              	.L78:
 241:../../libdaisy/src/dev/oled_ssd130x.h ****             return;
 2025              		.loc 6 241 9 view .LVU536
 2026              	.LBE723:
 2027              	.LBE729:
 2028              	.LBE736:
 2029              	.LBE749:
 2030              	.LBE754:
 2031              	.LBE795:
 444:Menus.cpp     ****         }
 2032              		.loc 2 444 13 is_stmt 1 view .LVU537
 447:Menus.cpp     **** 
 2033              		.loc 2 447 5 is_stmt 0 view .LVU538
 2034 0384 96F86130 		ldrb	r3, [r6, #97]	@ zero_extendqisi2
 444:Menus.cpp     ****         }
 2035              		.loc 2 444 34 view .LVU539
 2036 0388 0122     		movs	r2, #1
 447:Menus.cpp     **** 
 2037              		.loc 2 447 5 view .LVU540
 2038 038a 7F2B     		cmp	r3, #127
 444:Menus.cpp     ****         }
 2039              		.loc 2 444 34 view .LVU541
 2040 038c 3267     		str	r2, [r6, #112]
ARM GAS  C:\Users\VINCIU~1\AppData\Local\Temp\ccA1pwKF.s 			page 68


 447:Menus.cpp     **** 
 2041              		.loc 2 447 5 is_stmt 1 view .LVU542
 2042              	.LVL142:
 2043              	.LBB796:
 2044              		.loc 4 69 17 view .LVU543
 2045              	.LBB593:
 2046              		.loc 4 69 38 view .LVU544
 2047              		.loc 4 69 38 is_stmt 0 view .LVU545
 2048              	.LBE593:
 2049              	.LBE796:
 447:Menus.cpp     **** 
 2050              		.loc 2 447 5 view .LVU546
 2051 038e 3FF4B8AE 		beq	.L83
 2052              	.L80:
 2053              	.LBB797:
 481:Menus.cpp     ****         {
 2054              		.loc 2 481 9 is_stmt 1 view .LVU547
 481:Menus.cpp     ****         {
 2055              		.loc 2 481 18 is_stmt 0 view .LVU548
 2056 0392 D6ED257A 		vldr.32	s15, [r6, #148]
 481:Menus.cpp     ****         {
 2057              		.loc 2 481 9 view .LVU549
 2058 0396 1FED067A 		vldr.32	s14, .L161+24
 2059 039a F4EEC77A 		vcmpe.f32	s15, s14
 2060 039e F1EE10FA 		vmrs	APSR_nzcv, FPSCR
 2061 03a2 80F29680 		bge	.L121
 485:Menus.cpp     ****         {
 2062              		.loc 2 485 9 is_stmt 1 view .LVU550
 2063 03a6 F5EEC07A 		vcmpe.f32	s15, #0
 2064 03aa F1EE10FA 		vmrs	APSR_nzcv, FPSCR
 2065 03ae 01D8     		bhi	.L92
 2066 03b0 5FED0E7A 		vldr.32	s15, .L161+20
 2067              	.L92:
 489:Menus.cpp     ****         {
 2068              		.loc 2 489 9 view .LVU551
 489:Menus.cpp     ****         {
 2069              		.loc 2 489 12 is_stmt 0 view .LVU552
 2070 03b4 96ED227A 		vldr.32	s14, [r6, #136]
 489:Menus.cpp     ****         {
 2071              		.loc 2 489 9 view .LVU553
 2072 03b8 5FED0F6A 		vldr.32	s13, .L161+24
 2073 03bc B4EEE67A 		vcmpe.f32	s14, s13
 2074 03c0 F1EE10FA 		vmrs	APSR_nzcv, FPSCR
 2075 03c4 7CDB     		blt	.L151
 491:Menus.cpp     ****         }
 2076              		.loc 2 491 13 is_stmt 1 view .LVU554
 491:Menus.cpp     ****         }
 2077              		.loc 2 491 33 is_stmt 0 view .LVU555
 2078 03c6 C6ED226A 		vstr.32	s13, [r6, #136]
 493:Menus.cpp     ****         {
 2079              		.loc 2 493 9 is_stmt 1 view .LVU556
 2080              	.L95:
 497:Menus.cpp     ****         {
 2081              		.loc 2 497 9 view .LVU557
 497:Menus.cpp     ****         {
 2082              		.loc 2 497 12 is_stmt 0 view .LVU558
 2083 03ca D6ED236A 		vldr.32	s13, [r6, #140]
ARM GAS  C:\Users\VINCIU~1\AppData\Local\Temp\ccA1pwKF.s 			page 69


 497:Menus.cpp     ****         {
 2084              		.loc 2 497 9 view .LVU559
 2085 03ce 1FED147A 		vldr.32	s14, .L161+24
 2086 03d2 F4EEC76A 		vcmpe.f32	s13, s14
 2087 03d6 F1EE10FA 		vmrs	APSR_nzcv, FPSCR
 2088 03da 6EDA     		bge	.L123
 501:Menus.cpp     ****         {
 2089              		.loc 2 501 9 is_stmt 1 view .LVU560
 2090 03dc B2EE047A 		vmov.f32	s14, #1.0e+1
 2091 03e0 F4EE476A 		vcmp.f32	s13, s14
 2092 03e4 F1EE10FA 		vmrs	APSR_nzcv, FPSCR
 2093 03e8 98BF     		it	ls
 2094 03ea F0EE476A 		vmovls.f32	s13, s14
 2095              	.L97:
 505:Menus.cpp     ****         ;
 2096              		.loc 2 505 9 view .LVU561
 2097              	.LVL143:
 2098              	.LBB653:
 2099              	.LBI653:
 2100              		.loc 3 41 20 view .LVU562
 2101              	.LBB654:
 2102              		.loc 3 41 40 view .LVU563
 2103              		.loc 3 41 40 is_stmt 0 view .LVU564
 2104              	.LBE654:
 2105              	.LBE653:
 505:Menus.cpp     ****         ;
 2106              		.loc 2 505 33 view .LVU565
 2107 03ee 96ED127A 		vldr.32	s14, [r6, #72]	@ int
 508:Menus.cpp     ****         screen.DrawRect(67, 0, screen.Width() - 2, 13, true, false);
 2108              		.loc 2 508 16 view .LVU566
 2109 03f2 06F58E77 		add	r7, r6, #284
 2110 03f6 4649     		ldr	r1, .L163+16
 505:Menus.cpp     ****         ;
 2111              		.loc 2 505 33 view .LVU567
 2112 03f8 B8EEC77A 		vcvt.f32.s32	s14, s14
 508:Menus.cpp     ****         screen.DrawRect(67, 0, screen.Width() - 2, 13, true, false);
 2113              		.loc 2 508 16 view .LVU568
 2114 03fc 3846     		mov	r0, r7
 507:Menus.cpp     ****         sprintf(this->buffPitchTime, "Time_%d%%", (int)this->glideTime);
 2115              		.loc 2 507 25 view .LVU569
 2116 03fe 77EE277A 		vadd.f32	s15, s14, s15
 505:Menus.cpp     ****         ;
 2117              		.loc 2 505 33 view .LVU570
 2118 0402 37EE267A 		vadd.f32	s14, s14, s13
 508:Menus.cpp     ****         screen.DrawRect(67, 0, screen.Width() - 2, 13, true, false);
 2119              		.loc 2 508 16 view .LVU571
 2120 0406 FDEEE76A 		vcvt.s32.f32	s13, s15
 507:Menus.cpp     ****         sprintf(this->buffPitchTime, "Time_%d%%", (int)this->glideTime);
 2121              		.loc 2 507 25 view .LVU572
 2122 040a C6ED257A 		vstr.32	s15, [r6, #148]
 505:Menus.cpp     ****         ;
 2123              		.loc 2 505 33 view .LVU573
 2124 040e 86ED237A 		vstr.32	s14, [r6, #140]
 506:Menus.cpp     ****         this->glideTime += this->encoderRight.Increment();
 2125              		.loc 2 506 9 is_stmt 1 view .LVU574
 507:Menus.cpp     ****         sprintf(this->buffPitchTime, "Time_%d%%", (int)this->glideTime);
 2126              		.loc 2 507 9 view .LVU575
ARM GAS  C:\Users\VINCIU~1\AppData\Local\Temp\ccA1pwKF.s 			page 70


 2127              	.LVL144:
 507:Menus.cpp     ****         sprintf(this->buffPitchTime, "Time_%d%%", (int)this->glideTime);
 2128              		.loc 2 507 9 is_stmt 0 view .LVU576
 2129              	.LBE797:
 2130              		.loc 3 41 40 is_stmt 1 view .LVU577
 2131              	.LBB798:
 508:Menus.cpp     ****         screen.DrawRect(67, 0, screen.Width() - 2, 13, true, false);
 2132              		.loc 2 508 9 view .LVU578
 508:Menus.cpp     ****         screen.DrawRect(67, 0, screen.Width() - 2, 13, true, false);
 2133              		.loc 2 508 16 is_stmt 0 view .LVU579
 2134 0412 16EE902A 		vmov	r2, s13	@ int
 2135 0416 FFF7FEFF 		bl	sprintf
 2136              	.LVL145:
 509:Menus.cpp     ****     }
 2137              		.loc 2 509 9 is_stmt 1 view .LVU580
 2138              	.LBB655:
 2139              	.LBI655:
 217:../../libdaisy/src/hid/disp/display.h ****                   uint_fast8_t y1,
 2140              		.loc 5 217 10 view .LVU581
 2141              	.LBB656:
 2142              	.LBI656:
 181:../../libdaisy/src/hid/disp/display.h ****                   uint_fast8_t y1,
 2143              		.loc 5 181 10 view .LVU582
 2144              	.LBB657:
 2145              	.LBB658:
 2146              	.LBI658:
  41:../../libdaisy/src/hid/disp/oled_display.h ****     {
 2147              		.loc 1 41 10 view .LVU583
 2148              	.LBB659:
 2149              	.LBI659:
 239:../../libdaisy/src/dev/oled_ssd130x.h ****     {
 2150              		.loc 6 239 10 view .LVU584
 2151              	.LBB660:
 244:../../libdaisy/src/dev/oled_ssd130x.h ****         else
 2152              		.loc 6 244 42 is_stmt 0 view .LVU585
 2153 041a 94F89220 		ldrb	r2, [r4, #146]	@ zero_extendqisi2
 2154 041e 04F15603 		add	r3, r4, #86
 2155 0422 04F19101 		add	r1, r4, #145
 2156 0426 42F00102 		orr	r2, r2, #1
 2157 042a 84F89220 		strb	r2, [r4, #146]
 2158              	.LVL146:
 244:../../libdaisy/src/dev/oled_ssd130x.h ****         else
 2159              		.loc 6 244 42 view .LVU586
 2160              	.LBE660:
 2161              	.LBE659:
 2162              	.LBE658:
 199:../../libdaisy/src/hid/disp/display.h ****         {
 2163              		.loc 5 199 26 is_stmt 1 view .LVU587
 2164              	.L98:
 2165              	.LBB661:
 2166              	.LBI661:
  41:../../libdaisy/src/hid/disp/oled_display.h ****     {
 2167              		.loc 1 41 10 view .LVU588
 2168              	.LBB662:
 2169              	.LBI662:
 239:../../libdaisy/src/dev/oled_ssd130x.h ****     {
 2170              		.loc 6 239 10 view .LVU589
ARM GAS  C:\Users\VINCIU~1\AppData\Local\Temp\ccA1pwKF.s 			page 71


 2171              	.LBB663:
 244:../../libdaisy/src/dev/oled_ssd130x.h ****         else
 2172              		.loc 6 244 42 is_stmt 0 view .LVU590
 2173 042e 13F8012F 		ldrb	r2, [r3, #1]!	@ zero_extendqisi2
 244:../../libdaisy/src/dev/oled_ssd130x.h ****         else
 2174              		.loc 6 244 42 view .LVU591
 2175 0432 42F00102 		orr	r2, r2, #1
 2176              	.LBE663:
 2177              	.LBE662:
 2178              	.LBE661:
 199:../../libdaisy/src/hid/disp/display.h ****         {
 2179              		.loc 5 199 26 view .LVU592
 2180 0436 9942     		cmp	r1, r3
 2181              	.LBB666:
 2182              	.LBB665:
 2183              	.LBB664:
 244:../../libdaisy/src/dev/oled_ssd130x.h ****         else
 2184              		.loc 6 244 42 view .LVU593
 2185 0438 1A70     		strb	r2, [r3]
 2186              	.LVL147:
 244:../../libdaisy/src/dev/oled_ssd130x.h ****         else
 2187              		.loc 6 244 42 view .LVU594
 2188              	.LBE664:
 2189              	.LBE665:
 2190              	.LBE666:
 199:../../libdaisy/src/hid/disp/display.h ****         {
 2191              		.loc 5 199 26 is_stmt 1 view .LVU595
 2192 043a F8D1     		bne	.L98
 2193              	.LVL148:
 199:../../libdaisy/src/hid/disp/display.h ****         {
 2194              		.loc 5 199 26 is_stmt 0 view .LVU596
 2195              	.LBE657:
 2196              	.LBE656:
 2197              	.LBB667:
 2198              	.LBI667:
 181:../../libdaisy/src/hid/disp/display.h ****                   uint_fast8_t y1,
 2199              		.loc 5 181 10 is_stmt 1 view .LVU597
 2200              	.LBB668:
 2201              	.LBB669:
 2202              	.LBI669:
  41:../../libdaisy/src/hid/disp/oled_display.h ****     {
 2203              		.loc 1 41 10 view .LVU598
 2204              	.LBB670:
 2205              	.LBI670:
 239:../../libdaisy/src/dev/oled_ssd130x.h ****     {
 2206              		.loc 6 239 10 view .LVU599
 2207              	.LBB671:
 244:../../libdaisy/src/dev/oled_ssd130x.h ****         else
 2208              		.loc 6 244 42 is_stmt 0 view .LVU600
 2209 043c 94F81221 		ldrb	r2, [r4, #274]	@ zero_extendqisi2
 2210 0440 0023     		movs	r3, #0
 2211 0442 42F02002 		orr	r2, r2, #32
 2212 0446 84F81221 		strb	r2, [r4, #274]
 2213              	.LVL149:
 244:../../libdaisy/src/dev/oled_ssd130x.h ****         else
 2214              		.loc 6 244 42 view .LVU601
 2215              	.LBE671:
ARM GAS  C:\Users\VINCIU~1\AppData\Local\Temp\ccA1pwKF.s 			page 72


 2216              	.LBE670:
 2217              	.LBE669:
 199:../../libdaisy/src/hid/disp/display.h ****         {
 2218              		.loc 5 199 26 is_stmt 1 view .LVU602
 2219              	.L99:
 2220              	.LBB672:
 2221              	.LBI672:
  41:../../libdaisy/src/hid/disp/oled_display.h ****     {
 2222              		.loc 1 41 10 view .LVU603
 2223              	.LBB673:
 2224              	.LBI673:
 239:../../libdaisy/src/dev/oled_ssd130x.h ****     {
 2225              		.loc 6 239 10 view .LVU604
 2226              	.LBB674:
 244:../../libdaisy/src/dev/oled_ssd130x.h ****         else
 2227              		.loc 6 244 28 is_stmt 0 view .LVU605
 2228 044a D908     		lsrs	r1, r3, #3
 244:../../libdaisy/src/dev/oled_ssd130x.h ****         else
 2229              		.loc 6 244 54 view .LVU606
 2230 044c 03F00700 		and	r0, r3, #7
 244:../../libdaisy/src/dev/oled_ssd130x.h ****         else
 2231              		.loc 6 244 48 view .LVU607
 2232 0450 0122     		movs	r2, #1
 244:../../libdaisy/src/dev/oled_ssd130x.h ****         else
 2233              		.loc 6 244 42 view .LVU608
 2234 0452 04EBC111 		add	r1, r4, r1, lsl #7
 2235              	.LBE674:
 2236              	.LBE673:
 2237              	.LBE672:
 212:../../libdaisy/src/hid/disp/display.h ****             }
 2238              		.loc 5 212 20 view .LVU609
 2239 0456 1344     		add	r3, r3, r2
 2240              	.LVL150:
 2241              	.LBB679:
 2242              	.LBB677:
 2243              	.LBB675:
 244:../../libdaisy/src/dev/oled_ssd130x.h ****         else
 2244              		.loc 6 244 48 view .LVU610
 2245 0458 8240     		lsls	r2, r2, r0
 244:../../libdaisy/src/dev/oled_ssd130x.h ****         else
 2246              		.loc 6 244 42 view .LVU611
 2247 045a 91F89200 		ldrb	r0, [r1, #146]	@ zero_extendqisi2
 2248              	.LBE675:
 2249              	.LBE677:
 2250              	.LBE679:
 199:../../libdaisy/src/hid/disp/display.h ****         {
 2251              		.loc 5 199 26 view .LVU612
 2252 045e 0D2B     		cmp	r3, #13
 2253              	.LBB680:
 2254              	.LBB678:
 2255              	.LBB676:
 244:../../libdaisy/src/dev/oled_ssd130x.h ****         else
 2256              		.loc 6 244 42 view .LVU613
 2257 0460 42EA0002 		orr	r2, r2, r0
 2258 0464 81F89220 		strb	r2, [r1, #146]
 2259              	.LVL151:
 244:../../libdaisy/src/dev/oled_ssd130x.h ****         else
ARM GAS  C:\Users\VINCIU~1\AppData\Local\Temp\ccA1pwKF.s 			page 73


 2260              		.loc 6 244 42 view .LVU614
 2261              	.LBE676:
 2262              	.LBE678:
 2263              	.LBE680:
 199:../../libdaisy/src/hid/disp/display.h ****         {
 2264              		.loc 5 199 26 is_stmt 1 view .LVU615
 2265 0468 EFD1     		bne	.L99
 2266              	.LVL152:
 199:../../libdaisy/src/hid/disp/display.h ****         {
 2267              		.loc 5 199 26 is_stmt 0 view .LVU616
 2268              	.LBE668:
 2269              	.LBE667:
 2270              	.LBB681:
 2271              	.LBI681:
 181:../../libdaisy/src/hid/disp/display.h ****                   uint_fast8_t y1,
 2272              		.loc 5 181 10 is_stmt 1 view .LVU617
 2273              	.LBB682:
 2274              	.LBB683:
 2275              	.LBI683:
  41:../../libdaisy/src/hid/disp/oled_display.h ****     {
 2276              		.loc 1 41 10 view .LVU618
 2277              	.LBB684:
 2278              	.LBI684:
 239:../../libdaisy/src/dev/oled_ssd130x.h ****     {
 2279              		.loc 6 239 10 view .LVU619
 2280              	.LBB685:
 244:../../libdaisy/src/dev/oled_ssd130x.h ****         else
 2281              		.loc 6 244 42 is_stmt 0 view .LVU620
 2282 046a 94F8D720 		ldrb	r2, [r4, #215]	@ zero_extendqisi2
 2283 046e 04F1D800 		add	r0, r4, #216
 2284 0472 42F02002 		orr	r2, r2, #32
 2285 0476 84F8D720 		strb	r2, [r4, #215]
 2286              	.LVL153:
 244:../../libdaisy/src/dev/oled_ssd130x.h ****         else
 2287              		.loc 6 244 42 view .LVU621
 2288              	.LBE685:
 2289              	.LBE684:
 2290              	.LBE683:
 199:../../libdaisy/src/hid/disp/display.h ****         {
 2291              		.loc 5 199 26 is_stmt 1 view .LVU622
 2292 047a 04F21312 		addw	r2, r4, #275
 2293              	.LVL154:
 2294              	.L100:
 2295              	.LBB686:
 2296              	.LBI686:
  41:../../libdaisy/src/hid/disp/oled_display.h ****     {
 2297              		.loc 1 41 10 view .LVU623
 2298              	.LBB687:
 2299              	.LBI687:
 239:../../libdaisy/src/dev/oled_ssd130x.h ****     {
 2300              		.loc 6 239 10 view .LVU624
 2301              	.LBB688:
 244:../../libdaisy/src/dev/oled_ssd130x.h ****         else
 2302              		.loc 6 244 42 is_stmt 0 view .LVU625
 2303 047e 12F8011D 		ldrb	r1, [r2, #-1]!	@ zero_extendqisi2
 244:../../libdaisy/src/dev/oled_ssd130x.h ****         else
 2304              		.loc 6 244 42 view .LVU626
ARM GAS  C:\Users\VINCIU~1\AppData\Local\Temp\ccA1pwKF.s 			page 74


 2305 0482 41F02001 		orr	r1, r1, #32
 2306              	.LBE688:
 2307              	.LBE687:
 2308              	.LBE686:
 199:../../libdaisy/src/hid/disp/display.h ****         {
 2309              		.loc 5 199 26 view .LVU627
 2310 0486 9042     		cmp	r0, r2
 2311              	.LBB691:
 2312              	.LBB690:
 2313              	.LBB689:
 244:../../libdaisy/src/dev/oled_ssd130x.h ****         else
 2314              		.loc 6 244 42 view .LVU628
 2315 0488 1170     		strb	r1, [r2]
 2316              	.LVL155:
 244:../../libdaisy/src/dev/oled_ssd130x.h ****         else
 2317              		.loc 6 244 42 view .LVU629
 2318              	.LBE689:
 2319              	.LBE690:
 2320              	.LBE691:
 199:../../libdaisy/src/hid/disp/display.h ****         {
 2321              		.loc 5 199 26 is_stmt 1 view .LVU630
 2322 048a F8D1     		bne	.L100
 2323              	.LVL156:
 199:../../libdaisy/src/hid/disp/display.h ****         {
 2324              		.loc 5 199 26 is_stmt 0 view .LVU631
 2325              	.LBE682:
 2326              	.LBE681:
 2327              	.LBB692:
 2328              	.LBI692:
 181:../../libdaisy/src/hid/disp/display.h ****                   uint_fast8_t y1,
 2329              		.loc 5 181 10 is_stmt 1 view .LVU632
 2330              	.LBB693:
 2331              	.LBB694:
 2332              	.LBI694:
  41:../../libdaisy/src/hid/disp/oled_display.h ****     {
 2333              		.loc 1 41 10 view .LVU633
 2334              	.LBB695:
 2335              	.LBI695:
 239:../../libdaisy/src/dev/oled_ssd130x.h ****     {
 2336              		.loc 6 239 10 view .LVU634
 2337              	.LBB696:
 244:../../libdaisy/src/dev/oled_ssd130x.h ****         else
 2338              		.loc 6 244 42 is_stmt 0 view .LVU635
 2339 048c 94F85720 		ldrb	r2, [r4, #87]	@ zero_extendqisi2
 2340 0490 42F00102 		orr	r2, r2, #1
 2341 0494 84F85720 		strb	r2, [r4, #87]
 2342              	.LVL157:
 244:../../libdaisy/src/dev/oled_ssd130x.h ****         else
 2343              		.loc 6 244 42 view .LVU636
 2344              	.LBE696:
 2345              	.LBE695:
 2346              	.LBE694:
 199:../../libdaisy/src/hid/disp/display.h ****         {
 2347              		.loc 5 199 26 is_stmt 1 view .LVU637
 2348              	.L102:
 2349              	.LBB697:
 2350              	.LBI697:
ARM GAS  C:\Users\VINCIU~1\AppData\Local\Temp\ccA1pwKF.s 			page 75


  41:../../libdaisy/src/hid/disp/oled_display.h ****     {
 2351              		.loc 1 41 10 view .LVU638
 2352              	.LBB698:
 2353              	.LBI698:
 239:../../libdaisy/src/dev/oled_ssd130x.h ****     {
 2354              		.loc 6 239 10 view .LVU639
 2355              	.LBB699:
 244:../../libdaisy/src/dev/oled_ssd130x.h ****         else
 2356              		.loc 6 244 28 is_stmt 0 view .LVU640
 2357 0498 D908     		lsrs	r1, r3, #3
 244:../../libdaisy/src/dev/oled_ssd130x.h ****         else
 2358              		.loc 6 244 54 view .LVU641
 2359 049a 03F00700 		and	r0, r3, #7
 244:../../libdaisy/src/dev/oled_ssd130x.h ****         else
 2360              		.loc 6 244 48 view .LVU642
 2361 049e 0122     		movs	r2, #1
 2362              	.LBE699:
 2363              	.LBE698:
 2364              	.LBE697:
 199:../../libdaisy/src/hid/disp/display.h ****         {
 2365              		.loc 5 199 26 view .LVU643
 2366 04a0 013B     		subs	r3, r3, #1
 2367              	.LVL158:
 2368              	.LBB702:
 2369              	.LBB701:
 2370              	.LBB700:
 244:../../libdaisy/src/dev/oled_ssd130x.h ****         else
 2371              		.loc 6 244 42 view .LVU644
 2372 04a2 04EBC111 		add	r1, r4, r1, lsl #7
 244:../../libdaisy/src/dev/oled_ssd130x.h ****         else
 2373              		.loc 6 244 48 view .LVU645
 2374 04a6 02FA00F2 		lsl	r2, r2, r0
 244:../../libdaisy/src/dev/oled_ssd130x.h ****         else
 2375              		.loc 6 244 42 view .LVU646
 2376 04aa 91F85700 		ldrb	r0, [r1, #87]	@ zero_extendqisi2
 2377 04ae 42EA0002 		orr	r2, r2, r0
 2378 04b2 81F85720 		strb	r2, [r1, #87]
 2379              	.LVL159:
 244:../../libdaisy/src/dev/oled_ssd130x.h ****         else
 2380              		.loc 6 244 42 view .LVU647
 2381              	.LBE700:
 2382              	.LBE701:
 2383              	.LBE702:
 199:../../libdaisy/src/hid/disp/display.h ****         {
 2384              		.loc 5 199 26 is_stmt 1 view .LVU648
 2385 04b6 EFD1     		bne	.L102
 2386 04b8 D7E5     		b	.L101
 2387              	.LVL160:
 2388              	.L123:
 199:../../libdaisy/src/hid/disp/display.h ****         {
 2389              		.loc 5 199 26 is_stmt 0 view .LVU649
 2390              	.LBE693:
 2391              	.LBE692:
 2392              	.LBE655:
 2393 04ba F0EE476A 		vmov.f32	s13, s14
 2394 04be 96E7     		b	.L97
 2395              	.L151:
ARM GAS  C:\Users\VINCIU~1\AppData\Local\Temp\ccA1pwKF.s 			page 76


 493:Menus.cpp     ****         {
 2396              		.loc 2 493 9 is_stmt 1 view .LVU650
 2397 04c0 B5EEC07A 		vcmpe.f32	s14, #0
 2398 04c4 0023     		movs	r3, #0
 2399 04c6 F1EE10FA 		vmrs	APSR_nzcv, FPSCR
 495:Menus.cpp     ****         }
 2400              		.loc 2 495 13 view .LVU651
 495:Menus.cpp     ****         }
 2401              		.loc 2 495 33 is_stmt 0 view .LVU652
 2402 04ca 98BF     		it	ls
 2403 04cc C6F88830 		strls	r3, [r6, #136]	@ float
 2404 04d0 7BE7     		b	.L95
 2405              	.L121:
 495:Menus.cpp     ****         }
 2406              		.loc 2 495 33 view .LVU653
 2407 04d2 F0EE477A 		vmov.f32	s15, s14
 2408 04d6 6DE7     		b	.L92
 2409              	.L158:
 2410              	.LBB703:
 468:Menus.cpp     ****         this->glideInit += this->encoderRight.Increment();
 2411              		.loc 2 468 58 view .LVU654
 2412 04d8 03F1D402 		add	r2, r3, #212
 468:Menus.cpp     ****         this->glideInit += this->encoderRight.Increment();
 2413              		.loc 2 468 65 view .LVU655
 2414 04dc 06EE902A 		vmov	s13, r2	@ int
 468:Menus.cpp     ****         this->glideInit += this->encoderRight.Increment();
 2415              		.loc 2 468 38 view .LVU656
 2416 04e0 9FED075B 		vldr.64	d5, .L163
 2417 04e4 9FED087B 		vldr.64	d7, .L163+8
 468:Menus.cpp     ****         this->glideInit += this->encoderRight.Increment();
 2418              		.loc 2 468 65 view .LVU657
 2419 04e8 B8EEE66B 		vcvt.f64.s32	d6, s13
 468:Menus.cpp     ****         this->glideInit += this->encoderRight.Increment();
 2420              		.loc 2 468 38 view .LVU658
 2421 04ec A6EE457B 		vfms.f64	d7, d6, d5
 468:Menus.cpp     ****         this->glideInit += this->encoderRight.Increment();
 2422              		.loc 2 468 20 view .LVU659
 2423 04f0 FDEEC77B 		vcvt.s32.f64	s15, d7
 470:Menus.cpp     **** 
 2424              		.loc 2 470 29 view .LVU660
 2425 04f4 F8EEE77A 		vcvt.f32.s32	s15, s15
 2426 04f8 11E6     		b	.L85
 2427              	.L164:
 2428 04fa 00BFAFF3 		.align	3
 2428      0080
 2429              	.L163:
 2430 0500 33333333 		.word	858993459
 2431 0504 3333C33F 		.word	1069757235
 2432 0508 00000000 		.word	0
 2433 050c 00005040 		.word	1078984704
 2434 0510 0C000000 		.word	.LC2
 2435              	.LBE703:
 2436              	.LBE798:
 2437              		.cfi_endproc
 2438              	.LFE4040:
 2440              		.section	.text._ZN5daisy25OneBitGraphicsDisplayImplINS_11OledDisplayINS_13SSD130xDriverILj128ELj64
 2441              		.align	1
ARM GAS  C:\Users\VINCIU~1\AppData\Local\Temp\ccA1pwKF.s 			page 77


 2442              		.p2align 2,,3
 2443              		.weak	_ZN5daisy25OneBitGraphicsDisplayImplINS_11OledDisplayINS_13SSD130xDriverILj128ELj64ENS_24SSD
 2444              		.syntax unified
 2445              		.thumb
 2446              		.thumb_func
 2447              		.fpu fpv5-d16
 2449              	_ZN5daisy25OneBitGraphicsDisplayImplINS_11OledDisplayINS_13SSD130xDriverILj128ELj64ENS_24SSD130x4Wi
 2450              	.LVL161:
 2451              	.LFB4341:
 217:../../libdaisy/src/hid/disp/display.h ****                   uint_fast8_t y1,
 2452              		.loc 5 217 10 is_stmt 1 view -0
 2453              		.cfi_startproc
 2454              		@ args = 12, pretend = 0, frame = 24
 2455              		@ frame_needed = 0, uses_anonymous_args = 0
 217:../../libdaisy/src/hid/disp/display.h ****                   uint_fast8_t y1,
 2456              		.loc 5 217 10 is_stmt 0 view .LVU662
 2457 0000 2DE9F04F 		push	{r4, r5, r6, r7, r8, r9, r10, fp, lr}
 2458              		.cfi_def_cfa_offset 36
 2459              		.cfi_offset 4, -36
 2460              		.cfi_offset 5, -32
 2461              		.cfi_offset 6, -28
 2462              		.cfi_offset 7, -24
 2463              		.cfi_offset 8, -20
 2464              		.cfi_offset 9, -16
 2465              		.cfi_offset 10, -12
 2466              		.cfi_offset 11, -8
 2467              		.cfi_offset 14, -4
 2468 0004 87B0     		sub	sp, sp, #28
 2469              		.cfi_def_cfa_offset 64
 217:../../libdaisy/src/hid/disp/display.h ****                   uint_fast8_t y1,
 2470              		.loc 5 217 10 view .LVU663
 2471 0006 9DF84850 		ldrb	r5, [sp, #72]	@ zero_extendqisi2
 2472 000a 109C     		ldr	r4, [sp, #64]
 2473 000c 2E46     		mov	r6, r5
 2474 000e 0195     		str	r5, [sp, #4]
 2475 0010 9DF84450 		ldrb	r5, [sp, #68]	@ zero_extendqisi2
 2476              	.LBB870:
 224:../../libdaisy/src/hid/disp/display.h ****         {
 2477              		.loc 5 224 9 view .LVU664
 2478 0014 9EB3     		cbz	r6, .L166
 2479              	.LVL162:
 224:../../libdaisy/src/hid/disp/display.h ****         {
 2480              		.loc 5 224 9 view .LVU665
 2481              	.LBE870:
 2482              	.LBB992:
 2483              	.LBB993:
 226:../../libdaisy/src/hid/disp/display.h ****             {
 2484              		.loc 5 226 40 is_stmt 1 view .LVU666
 2485 0016 9942     		cmp	r1, r3
 2486 0018 2ED8     		bhi	.L165
 2487 001a 9946     		mov	r9, r3
 2488              	.LVL163:
 2489              	.L169:
 2490              	.LBB994:
 228:../../libdaisy/src/hid/disp/display.h ****                 {
 2491              		.loc 5 228 44 view .LVU667
 2492 001c A242     		cmp	r2, r4
ARM GAS  C:\Users\VINCIU~1\AppData\Local\Temp\ccA1pwKF.s 			page 78


 2493 001e 28D8     		bhi	.L172
 2494              	.LBB995:
 2495              	.LBB996:
 2496              	.LBB997:
 241:../../libdaisy/src/dev/oled_ssd130x.h ****             return;
 2497              		.loc 6 241 14 is_stmt 0 view .LVU668
 2498 0020 7F29     		cmp	r1, #127
 2499 0022 1646     		mov	r6, r2
 2500 0024 94BF     		ite	ls
 2501 0026 0023     		movls	r3, #0
 2502 0028 0123     		movhi	r3, #1
 2503 002a 08E0     		b	.L173
 2504              	.LVL164:
 2505              	.L256:
 244:../../libdaisy/src/dev/oled_ssd130x.h ****         else
 2506              		.loc 6 244 42 view .LVU669
 2507 002c 9CF81480 		ldrb	r8, [ip, #20]	@ zero_extendqisi2
 2508 0030 4EEA080E 		orr	lr, lr, r8
 2509 0034 8CF814E0 		strb	lr, [ip, #20]
 2510              	.LVL165:
 2511              	.L170:
 244:../../libdaisy/src/dev/oled_ssd130x.h ****         else
 2512              		.loc 6 244 42 view .LVU670
 2513              	.LBE997:
 2514              	.LBE996:
 2515              	.LBE995:
 228:../../libdaisy/src/hid/disp/display.h ****                 {
 2516              		.loc 5 228 17 is_stmt 1 view .LVU671
 2517 0038 0136     		adds	r6, r6, #1
 2518              	.LVL166:
 228:../../libdaisy/src/hid/disp/display.h ****                 {
 2519              		.loc 5 228 44 view .LVU672
 2520 003a B442     		cmp	r4, r6
 2521 003c 19D3     		bcc	.L172
 2522              	.L173:
 2523              	.LVL167:
 2524              	.LBB1011:
 2525              	.LBI995:
  41:../../libdaisy/src/hid/disp/oled_display.h ****     {
 2526              		.loc 1 41 10 view .LVU673
 2527              	.LBB1008:
 2528              	.LBI996:
 239:../../libdaisy/src/dev/oled_ssd130x.h ****     {
 2529              		.loc 6 239 10 view .LVU674
 2530              	.LBB1005:
 241:../../libdaisy/src/dev/oled_ssd130x.h ****             return;
 2531              		.loc 6 241 9 is_stmt 0 view .LVU675
 2532 003e 3F2E     		cmp	r6, #63
 2533 0040 FAD8     		bhi	.L170
 241:../../libdaisy/src/dev/oled_ssd130x.h ****             return;
 2534              		.loc 6 241 9 view .LVU676
 2535 0042 002B     		cmp	r3, #0
 2536 0044 F8D1     		bne	.L170
 2537              	.LVL168:
 2538              	.LBB998:
 2539              	.LBI998:
 239:../../libdaisy/src/dev/oled_ssd130x.h ****     {
ARM GAS  C:\Users\VINCIU~1\AppData\Local\Temp\ccA1pwKF.s 			page 79


 2540              		.loc 6 239 10 is_stmt 1 view .LVU677
 239:../../libdaisy/src/dev/oled_ssd130x.h ****     {
 2541              		.loc 6 239 10 is_stmt 0 view .LVU678
 2542              	.LBE998:
 244:../../libdaisy/src/dev/oled_ssd130x.h ****         else
 2543              		.loc 6 244 28 view .LVU679
 2544 0046 4FEAD60C 		lsr	ip, r6, #3
 244:../../libdaisy/src/dev/oled_ssd130x.h ****         else
 2545              		.loc 6 244 54 view .LVU680
 2546 004a 06F0070E 		and	lr, r6, #7
 244:../../libdaisy/src/dev/oled_ssd130x.h ****         else
 2547              		.loc 6 244 48 view .LVU681
 2548 004e 4FF00108 		mov	r8, #1
 244:../../libdaisy/src/dev/oled_ssd130x.h ****         else
 2549              		.loc 6 244 42 view .LVU682
 2550 0052 01EBCC1C 		add	ip, r1, ip, lsl #7
 244:../../libdaisy/src/dev/oled_ssd130x.h ****         else
 2551              		.loc 6 244 48 view .LVU683
 2552 0056 08FA0EFE 		lsl	lr, r8, lr
 244:../../libdaisy/src/dev/oled_ssd130x.h ****         else
 2553              		.loc 6 244 42 view .LVU684
 2554 005a 8444     		add	ip, ip, r0
 243:../../libdaisy/src/dev/oled_ssd130x.h ****             buffer_[x + (y / 8) * width] |= (1 << (y % 8));
 2555              		.loc 6 243 9 view .LVU685
 2556 005c 002D     		cmp	r5, #0
 2557 005e E5D1     		bne	.L256
 2558              	.LBB1002:
 2559              	.LBB999:
 246:../../libdaisy/src/dev/oled_ssd130x.h ****     }
 2560              		.loc 6 246 42 view .LVU686
 2561 0060 9CF814B0 		ldrb	fp, [ip, #20]	@ zero_extendqisi2
 2562              	.LBE999:
 2563              	.LBE1002:
 2564              	.LBE1005:
 2565              	.LBE1008:
 2566              	.LBE1011:
 228:../../libdaisy/src/hid/disp/display.h ****                 {
 2567              		.loc 5 228 17 view .LVU687
 2568 0064 0136     		adds	r6, r6, #1
 2569              	.LVL169:
 2570              	.LBB1012:
 2571              	.LBB1009:
 2572              	.LBB1006:
 2573              	.LBB1003:
 2574              	.LBB1000:
 246:../../libdaisy/src/dev/oled_ssd130x.h ****     }
 2575              		.loc 6 246 42 view .LVU688
 2576 0066 2BEA0E0A 		bic	r10, fp, lr
 2577              	.LBE1000:
 2578              	.LBE1003:
 2579              	.LBE1006:
 2580              	.LBE1009:
 2581              	.LBE1012:
 228:../../libdaisy/src/hid/disp/display.h ****                 {
 2582              		.loc 5 228 44 view .LVU689
 2583 006a B442     		cmp	r4, r6
 2584              	.LBB1013:
ARM GAS  C:\Users\VINCIU~1\AppData\Local\Temp\ccA1pwKF.s 			page 80


 2585              	.LBB1010:
 2586              	.LBB1007:
 2587              	.LBB1004:
 2588              	.LBB1001:
 246:../../libdaisy/src/dev/oled_ssd130x.h ****     }
 2589              		.loc 6 246 42 view .LVU690
 2590 006c 8CF814A0 		strb	r10, [ip, #20]
 2591              	.LVL170:
 246:../../libdaisy/src/dev/oled_ssd130x.h ****     }
 2592              		.loc 6 246 42 view .LVU691
 2593              	.LBE1001:
 2594              	.LBE1004:
 2595              	.LBE1007:
 2596              	.LBE1010:
 2597              	.LBE1013:
 228:../../libdaisy/src/hid/disp/display.h ****                 {
 2598              		.loc 5 228 17 is_stmt 1 view .LVU692
 228:../../libdaisy/src/hid/disp/display.h ****                 {
 2599              		.loc 5 228 44 view .LVU693
 2600 0070 E5D2     		bcs	.L173
 2601              	.LVL171:
 2602              	.L172:
 228:../../libdaisy/src/hid/disp/display.h ****                 {
 2603              		.loc 5 228 44 is_stmt 0 view .LVU694
 2604              	.LBE994:
 226:../../libdaisy/src/hid/disp/display.h ****             {
 2605              		.loc 5 226 13 is_stmt 1 view .LVU695
 2606 0072 0131     		adds	r1, r1, #1
 2607              	.LVL172:
 226:../../libdaisy/src/hid/disp/display.h ****             {
 2608              		.loc 5 226 40 view .LVU696
 2609 0074 8945     		cmp	r9, r1
 2610 0076 D1D2     		bcs	.L169
 2611              	.LVL173:
 2612              	.L165:
 226:../../libdaisy/src/hid/disp/display.h ****             {
 2613              		.loc 5 226 40 is_stmt 0 view .LVU697
 2614              	.LBE993:
 2615              	.LBE992:
 241:../../libdaisy/src/hid/disp/display.h **** 
 2616              		.loc 5 241 5 view .LVU698
 2617 0078 07B0     		add	sp, sp, #28
 2618              		.cfi_remember_state
 2619              		.cfi_def_cfa_offset 36
 2620              		@ sp needed
 2621 007a BDE8F08F 		pop	{r4, r5, r6, r7, r8, r9, r10, fp, pc}
 2622              	.LVL174:
 2623              	.L166:
 2624              		.cfi_restore_state
 2625              	.LBB1014:
 2626              	.LBB871:
 2627              	.LBI871:
 181:../../libdaisy/src/hid/disp/display.h ****                   uint_fast8_t y1,
 2628              		.loc 5 181 10 is_stmt 1 view .LVU699
 2629              	.LBB872:
 187:../../libdaisy/src/hid/disp/display.h ****         int_fast16_t deltaY = abs((int_fast16_t)y2 - (int_fast16_t)y1);
 2630              		.loc 5 187 52 is_stmt 0 view .LVU700
ARM GAS  C:\Users\VINCIU~1\AppData\Local\Temp\ccA1pwKF.s 			page 81


 2631 007e A3EB0108 		sub	r8, r3, r1
 187:../../libdaisy/src/hid/disp/display.h ****         int_fast16_t deltaY = abs((int_fast16_t)y2 - (int_fast16_t)y1);
 2632              		.loc 5 187 22 view .LVU701
 2633 0082 B8F1000F 		cmp	r8, #0
 2634 0086 B8BF     		it	lt
 2635 0088 C8F10008 		rsblt	r8, r8, #0
 2636              	.LVL175:
 189:../../libdaisy/src/hid/disp/display.h ****         int_fast16_t signY  = ((y1 < y2) ? 1 : -1);
 2637              		.loc 5 189 42 view .LVU702
 2638 008c 9942     		cmp	r1, r3
 2639 008e C0F04E81 		bcc	.L174
 2640              	.LVL176:
 2641              	.LBB873:
 2642              	.LBI873:
  41:../../libdaisy/src/hid/disp/oled_display.h ****     {
 2643              		.loc 1 41 10 is_stmt 1 view .LVU703
 2644              	.LBB874:
 2645              	.LBI874:
 239:../../libdaisy/src/dev/oled_ssd130x.h ****     {
 2646              		.loc 6 239 10 view .LVU704
 2647              	.LBB875:
 241:../../libdaisy/src/dev/oled_ssd130x.h ****             return;
 2648              		.loc 6 241 14 is_stmt 0 view .LVU705
 2649 0092 7F2B     		cmp	r3, #127
 2650              	.LBE875:
 2651              	.LBE874:
 2652              	.LBE873:
 189:../../libdaisy/src/hid/disp/display.h ****         int_fast16_t signY  = ((y1 < y2) ? 1 : -1);
 2653              		.loc 5 189 42 view .LVU706
 2654 0094 4FF0FF3A 		mov	r10, #-1
 2655              	.LBB886:
 2656              	.LBB882:
 2657              	.LBB878:
 241:../../libdaisy/src/dev/oled_ssd130x.h ****             return;
 2658              		.loc 6 241 14 view .LVU707
 2659 0098 94BF     		ite	ls
 2660 009a 0026     		movls	r6, #0
 2661 009c 0126     		movhi	r6, #1
 241:../../libdaisy/src/dev/oled_ssd130x.h ****             return;
 2662              		.loc 6 241 28 view .LVU708
 2663 009e 3F2A     		cmp	r2, #63
 241:../../libdaisy/src/dev/oled_ssd130x.h ****             return;
 2664              		.loc 6 241 14 view .LVU709
 2665 00a0 0096     		str	r6, [sp]
 241:../../libdaisy/src/dev/oled_ssd130x.h ****             return;
 2666              		.loc 6 241 28 view .LVU710
 2667 00a2 94BF     		ite	ls
 2668 00a4 0027     		movls	r7, #0
 2669 00a6 0127     		movhi	r7, #1
 2670 00a8 0297     		str	r7, [sp, #8]
 241:../../libdaisy/src/dev/oled_ssd130x.h ****             return;
 2671              		.loc 6 241 9 view .LVU711
 2672 00aa A6B9     		cbnz	r6, .L175
 2673 00ac 9FB9     		cbnz	r7, .L175
 2674              	.LVL177:
 2675              	.L216:
 244:../../libdaisy/src/dev/oled_ssd130x.h ****         else
ARM GAS  C:\Users\VINCIU~1\AppData\Local\Temp\ccA1pwKF.s 			page 82


 2676              		.loc 6 244 28 view .LVU712
 2677 00ae D608     		lsrs	r6, r2, #3
 244:../../libdaisy/src/dev/oled_ssd130x.h ****         else
 2678              		.loc 6 244 54 view .LVU713
 2679 00b0 02F0070C 		and	ip, r2, #7
 244:../../libdaisy/src/dev/oled_ssd130x.h ****         else
 2680              		.loc 6 244 48 view .LVU714
 2681 00b4 0127     		movs	r7, #1
 244:../../libdaisy/src/dev/oled_ssd130x.h ****         else
 2682              		.loc 6 244 42 view .LVU715
 2683 00b6 03EBC616 		add	r6, r3, r6, lsl #7
 2684 00ba 0644     		add	r6, r6, r0
 243:../../libdaisy/src/dev/oled_ssd130x.h ****             buffer_[x + (y / 8) * width] |= (1 << (y % 8));
 2685              		.loc 6 243 9 view .LVU716
 2686 00bc 002D     		cmp	r5, #0
 2687 00be 00F09481 		beq	.L176
 244:../../libdaisy/src/dev/oled_ssd130x.h ****         else
 2688              		.loc 6 244 48 view .LVU717
 2689 00c2 07FA0CF7 		lsl	r7, r7, ip
 244:../../libdaisy/src/dev/oled_ssd130x.h ****         else
 2690              		.loc 6 244 42 view .LVU718
 2691 00c6 96F814C0 		ldrb	ip, [r6, #20]	@ zero_extendqisi2
 2692 00ca 47EA0C07 		orr	r7, r7, ip
 2693 00ce 3775     		strb	r7, [r6, #20]
 2694 00d0 0026     		movs	r6, #0
 2695 00d2 0296     		str	r6, [sp, #8]
 2696 00d4 0096     		str	r6, [sp]
 2697              	.L175:
 2698              	.LVL178:
 244:../../libdaisy/src/dev/oled_ssd130x.h ****         else
 2699              		.loc 6 244 42 view .LVU719
 2700              	.LBE878:
 2701              	.LBE882:
 2702              	.LBE886:
 199:../../libdaisy/src/hid/disp/display.h ****         {
 2703              		.loc 5 199 26 is_stmt 1 view .LVU720
 2704 00d6 9942     		cmp	r1, r3
 2705 00d8 00F09781 		beq	.L257
 2706              	.L178:
 2707              	.LVL179:
 187:../../libdaisy/src/hid/disp/display.h ****         int_fast16_t deltaY = abs((int_fast16_t)y2 - (int_fast16_t)y1);
 2708              		.loc 5 187 22 is_stmt 0 view .LVU721
 2709 00dc 4646     		mov	r6, r8
 2710 00de 9446     		mov	ip, r2
 2711 00e0 8E46     		mov	lr, r1
 2712              	.LVL180:
 2713              	.L180:
 2714              	.LBB887:
 2715              	.LBI887:
  41:../../libdaisy/src/hid/disp/oled_display.h ****     {
 2716              		.loc 1 41 10 is_stmt 1 view .LVU722
 2717              	.LBB888:
 2718              	.LBI888:
 239:../../libdaisy/src/dev/oled_ssd130x.h ****     {
 2719              		.loc 6 239 10 view .LVU723
 2720              	.LBB889:
 241:../../libdaisy/src/dev/oled_ssd130x.h ****             return;
ARM GAS  C:\Users\VINCIU~1\AppData\Local\Temp\ccA1pwKF.s 			page 83


 2721              		.loc 6 241 9 is_stmt 0 view .LVU724
 2722 00e2 BEF17F0F 		cmp	lr, #127
 2723 00e6 16D8     		bhi	.L181
 2724 00e8 BCF13F0F 		cmp	ip, #63
 2725 00ec 13D8     		bhi	.L181
 244:../../libdaisy/src/dev/oled_ssd130x.h ****         else
 2726              		.loc 6 244 28 view .LVU725
 2727 00ee 4FEADC07 		lsr	r7, ip, #3
 244:../../libdaisy/src/dev/oled_ssd130x.h ****         else
 2728              		.loc 6 244 54 view .LVU726
 2729 00f2 0CF0070B 		and	fp, ip, #7
 244:../../libdaisy/src/dev/oled_ssd130x.h ****         else
 2730              		.loc 6 244 48 view .LVU727
 2731 00f6 4FF00109 		mov	r9, #1
 244:../../libdaisy/src/dev/oled_ssd130x.h ****         else
 2732              		.loc 6 244 42 view .LVU728
 2733 00fa 0EEBC717 		add	r7, lr, r7, lsl #7
 2734 00fe 0744     		add	r7, r7, r0
 243:../../libdaisy/src/dev/oled_ssd130x.h ****             buffer_[x + (y / 8) * width] |= (1 << (y % 8));
 2735              		.loc 6 243 9 view .LVU729
 2736 0100 002D     		cmp	r5, #0
 2737 0102 00F03981 		beq	.L182
 244:../../libdaisy/src/dev/oled_ssd130x.h ****         else
 2738              		.loc 6 244 48 view .LVU730
 2739 0106 09FA0BF9 		lsl	r9, r9, fp
 244:../../libdaisy/src/dev/oled_ssd130x.h ****         else
 2740              		.loc 6 244 42 view .LVU731
 2741 010a 97F814B0 		ldrb	fp, [r7, #20]	@ zero_extendqisi2
 2742 010e 49EA0B09 		orr	r9, r9, fp
 2743 0112 87F81490 		strb	r9, [r7, #20]
 2744              	.L181:
 2745              	.LVL181:
 244:../../libdaisy/src/dev/oled_ssd130x.h ****         else
 2746              		.loc 6 244 42 view .LVU732
 2747              	.LBE889:
 2748              	.LBE888:
 2749              	.LBE887:
 203:../../libdaisy/src/hid/disp/display.h ****             {
 2750              		.loc 5 203 13 view .LVU733
 2751 0116 7700     		lsls	r7, r6, #1
 2752              	.LVL182:
 206:../../libdaisy/src/hid/disp/display.h ****             }
 2753              		.loc 5 206 20 view .LVU734
 2754 0118 18BF     		it	ne
 2755 011a D644     		addne	lr, lr, r10
 2756              	.LVL183:
 209:../../libdaisy/src/hid/disp/display.h ****             {
 2757              		.loc 5 209 13 view .LVU735
 2758 011c B845     		cmp	r8, r7
 2759 011e 02DD     		ble	.L184
 211:../../libdaisy/src/hid/disp/display.h ****                 y1 += signY;
 2760              		.loc 5 211 23 view .LVU736
 2761 0120 4644     		add	r6, r6, r8
 2762              	.LVL184:
 212:../../libdaisy/src/hid/disp/display.h ****             }
 2763              		.loc 5 212 20 view .LVU737
 2764 0122 0CF1FF3C 		add	ip, ip, #-1
ARM GAS  C:\Users\VINCIU~1\AppData\Local\Temp\ccA1pwKF.s 			page 84


 2765              	.LVL185:
 2766              	.L184:
 199:../../libdaisy/src/hid/disp/display.h ****         {
 2767              		.loc 5 199 26 is_stmt 1 view .LVU738
 2768 0126 7345     		cmp	r3, lr
 2769 0128 DBD1     		bne	.L180
 199:../../libdaisy/src/hid/disp/display.h ****         {
 2770              		.loc 5 199 26 is_stmt 0 view .LVU739
 2771 012a 6245     		cmp	r2, ip
 2772 012c D9D1     		bne	.L180
 2773 012e 0026     		movs	r6, #0
 2774              	.LVL186:
 199:../../libdaisy/src/hid/disp/display.h ****         {
 2775              		.loc 5 199 26 view .LVU740
 2776 0130 0496     		str	r6, [sp, #16]
 2777              	.LVL187:
 2778              	.L177:
 199:../../libdaisy/src/hid/disp/display.h ****         {
 2779              		.loc 5 199 26 view .LVU741
 2780              	.LBE872:
 2781              	.LBE871:
 2782              	.LBB902:
 2783              	.LBI902:
 181:../../libdaisy/src/hid/disp/display.h ****                   uint_fast8_t y1,
 2784              		.loc 5 181 10 is_stmt 1 view .LVU742
 2785              	.LBB903:
 188:../../libdaisy/src/hid/disp/display.h ****         int_fast16_t signX  = ((x1 < x2) ? 1 : -1);
 2786              		.loc 5 188 52 is_stmt 0 view .LVU743
 2787 0132 A4EB0209 		sub	r9, r4, r2
 2788              	.LBB904:
 2789              	.LBB905:
 2790              	.LBB906:
 241:../../libdaisy/src/dev/oled_ssd130x.h ****             return;
 2791              		.loc 6 241 9 view .LVU744
 2792 0136 009F     		ldr	r7, [sp]
 2793              	.LBE906:
 2794              	.LBE905:
 2795              	.LBE904:
 188:../../libdaisy/src/hid/disp/display.h ****         int_fast16_t signX  = ((x1 < x2) ? 1 : -1);
 2796              		.loc 5 188 22 view .LVU745
 2797 0138 B9F1000F 		cmp	r9, #0
 2798 013c B8BF     		it	lt
 2799 013e C9F10009 		rsblt	r9, r9, #0
 2800              	.LVL188:
 2801              	.LBB921:
 2802              	.LBB915:
 2803              	.LBB909:
 241:../../libdaisy/src/dev/oled_ssd130x.h ****             return;
 2804              		.loc 6 241 28 view .LVU746
 2805 0142 3F2C     		cmp	r4, #63
 2806 0144 94BF     		ite	ls
 2807 0146 0026     		movls	r6, #0
 2808 0148 0126     		movhi	r6, #1
 2809              	.LBE909:
 2810              	.LBE915:
 2811              	.LBE921:
 190:../../libdaisy/src/hid/disp/display.h ****         int_fast16_t error  = deltaX - deltaY;
ARM GAS  C:\Users\VINCIU~1\AppData\Local\Temp\ccA1pwKF.s 			page 85


 2812              		.loc 5 190 42 view .LVU747
 2813 014a A242     		cmp	r2, r4
 191:../../libdaisy/src/hid/disp/display.h ****         int_fast16_t error2;
 2814              		.loc 5 191 22 view .LVU748
 2815 014c C9F10008 		rsb	r8, r9, #0
 2816              	.LVL189:
 2817              	.LBB922:
 2818              	.LBI904:
  41:../../libdaisy/src/hid/disp/oled_display.h ****     {
 2819              		.loc 1 41 10 is_stmt 1 view .LVU749
 2820              	.LBB916:
 2821              	.LBI905:
 239:../../libdaisy/src/dev/oled_ssd130x.h ****     {
 2822              		.loc 6 239 10 view .LVU750
 2823              	.LBB910:
 241:../../libdaisy/src/dev/oled_ssd130x.h ****             return;
 2824              		.loc 6 241 28 is_stmt 0 view .LVU751
 2825 0150 0396     		str	r6, [sp, #12]
 2826              	.LBE910:
 2827              	.LBE916:
 2828              	.LBE922:
 190:../../libdaisy/src/hid/disp/display.h ****         int_fast16_t error  = deltaX - deltaY;
 2829              		.loc 5 190 42 view .LVU752
 2830 0152 C0F02381 		bcc	.L185
 2831              	.LVL190:
 2832              	.LBB923:
 2833              	.LBB917:
 2834              	.LBB911:
 241:../../libdaisy/src/dev/oled_ssd130x.h ****             return;
 2835              		.loc 6 241 9 view .LVU753
 2836 0156 002F     		cmp	r7, #0
 2837 0158 40F05081 		bne	.L220
 2838 015c 002E     		cmp	r6, #0
 2839 015e 40F04D81 		bne	.L220
 2840              	.LBE911:
 2841              	.LBE917:
 2842              	.LBE923:
 190:../../libdaisy/src/hid/disp/display.h ****         int_fast16_t error  = deltaX - deltaY;
 2843              		.loc 5 190 42 view .LVU754
 2844 0162 4FF0FF36 		mov	r6, #-1
 2845 0166 0096     		str	r6, [sp]
 2846              	.LBB924:
 2847              	.LBB918:
 2848              	.LBB912:
 244:../../libdaisy/src/dev/oled_ssd130x.h ****         else
 2849              		.loc 6 244 28 view .LVU755
 2850 0168 E608     		lsrs	r6, r4, #3
 244:../../libdaisy/src/dev/oled_ssd130x.h ****         else
 2851              		.loc 6 244 42 view .LVU756
 2852 016a 03EBC616 		add	r6, r3, r6, lsl #7
 2853 016e 0644     		add	r6, r6, r0
 243:../../libdaisy/src/dev/oled_ssd130x.h ****             buffer_[x + (y / 8) * width] |= (1 << (y % 8));
 2854              		.loc 6 243 9 view .LVU757
 2855 0170 002D     		cmp	r5, #0
 2856 0172 00F01E81 		beq	.L187
 2857              	.LVL191:
 2858              	.L259:
ARM GAS  C:\Users\VINCIU~1\AppData\Local\Temp\ccA1pwKF.s 			page 86


 244:../../libdaisy/src/dev/oled_ssd130x.h ****         else
 2859              		.loc 6 244 48 view .LVU758
 2860 0176 4FF0010C 		mov	ip, #1
 244:../../libdaisy/src/dev/oled_ssd130x.h ****         else
 2861              		.loc 6 244 54 view .LVU759
 2862 017a 04F00707 		and	r7, r4, #7
 244:../../libdaisy/src/dev/oled_ssd130x.h ****         else
 2863              		.loc 6 244 48 view .LVU760
 2864 017e 0CFA07F7 		lsl	r7, ip, r7
 244:../../libdaisy/src/dev/oled_ssd130x.h ****         else
 2865              		.loc 6 244 42 view .LVU761
 2866 0182 96F814C0 		ldrb	ip, [r6, #20]	@ zero_extendqisi2
 2867 0186 47EA0C07 		orr	r7, r7, ip
 2868 018a 3775     		strb	r7, [r6, #20]
 2869 018c 0026     		movs	r6, #0
 2870 018e 0396     		str	r6, [sp, #12]
 2871              	.L186:
 2872              	.LVL192:
 244:../../libdaisy/src/dev/oled_ssd130x.h ****         else
 2873              		.loc 6 244 42 view .LVU762
 2874              	.LBE912:
 2875              	.LBE918:
 2876              	.LBE924:
 199:../../libdaisy/src/hid/disp/display.h ****         {
 2877              		.loc 5 199 26 is_stmt 1 view .LVU763
 2878 0190 A242     		cmp	r2, r4
 2879 0192 00F03D81 		beq	.L258
 2880              	.L189:
 2881              	.LVL193:
 190:../../libdaisy/src/hid/disp/display.h ****         int_fast16_t error  = deltaX - deltaY;
 2882              		.loc 5 190 42 is_stmt 0 view .LVU764
 2883 0196 C446     		mov	ip, r8
 2884 0198 1646     		mov	r6, r2
 2885 019a 1F46     		mov	r7, r3
 2886 019c 0592     		str	r2, [sp, #20]
 2887              	.LVL194:
 2888              	.L191:
 2889              	.LBB925:
 2890              	.LBI925:
  41:../../libdaisy/src/hid/disp/oled_display.h ****     {
 2891              		.loc 1 41 10 is_stmt 1 view .LVU765
 2892              	.LBB926:
 2893              	.LBI926:
 239:../../libdaisy/src/dev/oled_ssd130x.h ****     {
 2894              		.loc 6 239 10 view .LVU766
 2895              	.LBB927:
 241:../../libdaisy/src/dev/oled_ssd130x.h ****             return;
 2896              		.loc 6 241 9 is_stmt 0 view .LVU767
 2897 019e 7F2F     		cmp	r7, #127
 2898 01a0 15D8     		bhi	.L192
 2899 01a2 3F2E     		cmp	r6, #63
 2900 01a4 13D8     		bhi	.L192
 244:../../libdaisy/src/dev/oled_ssd130x.h ****         else
 2901              		.loc 6 244 28 view .LVU768
 2902 01a6 4FEAD60E 		lsr	lr, r6, #3
 244:../../libdaisy/src/dev/oled_ssd130x.h ****         else
 2903              		.loc 6 244 54 view .LVU769
ARM GAS  C:\Users\VINCIU~1\AppData\Local\Temp\ccA1pwKF.s 			page 87


 2904 01aa 06F0070B 		and	fp, r6, #7
 244:../../libdaisy/src/dev/oled_ssd130x.h ****         else
 2905              		.loc 6 244 48 view .LVU770
 2906 01ae 4FF0010A 		mov	r10, #1
 244:../../libdaisy/src/dev/oled_ssd130x.h ****         else
 2907              		.loc 6 244 42 view .LVU771
 2908 01b2 07EBCE1E 		add	lr, r7, lr, lsl #7
 2909 01b6 8644     		add	lr, lr, r0
 243:../../libdaisy/src/dev/oled_ssd130x.h ****             buffer_[x + (y / 8) * width] |= (1 << (y % 8));
 2910              		.loc 6 243 9 view .LVU772
 2911 01b8 002D     		cmp	r5, #0
 2912 01ba 00F0E680 		beq	.L193
 244:../../libdaisy/src/dev/oled_ssd130x.h ****         else
 2913              		.loc 6 244 48 view .LVU773
 2914 01be 0AFA0BFA 		lsl	r10, r10, fp
 244:../../libdaisy/src/dev/oled_ssd130x.h ****         else
 2915              		.loc 6 244 42 view .LVU774
 2916 01c2 9EF814B0 		ldrb	fp, [lr, #20]	@ zero_extendqisi2
 2917 01c6 4AEA0B0A 		orr	r10, r10, fp
 2918 01ca 8EF814A0 		strb	r10, [lr, #20]
 2919              	.L192:
 2920              	.LVL195:
 244:../../libdaisy/src/dev/oled_ssd130x.h ****         else
 2921              		.loc 6 244 42 view .LVU775
 2922              	.LBE927:
 2923              	.LBE926:
 2924              	.LBE925:
 203:../../libdaisy/src/hid/disp/display.h ****             {
 2925              		.loc 5 203 13 view .LVU776
 2926 01ce B8EB4C0F 		cmp	r8, ip, lsl #1
 202:../../libdaisy/src/hid/disp/display.h ****             if(error2 > -deltaY)
 2927              		.loc 5 202 20 view .LVU777
 2928 01d2 4FEA4C0E 		lsl	lr, ip, #1
 2929              	.LVL196:
 203:../../libdaisy/src/hid/disp/display.h ****             {
 2930              		.loc 5 203 13 view .LVU778
 2931 01d6 02DA     		bge	.L194
 205:../../libdaisy/src/hid/disp/display.h ****                 x1 += signX;
 2932              		.loc 5 205 23 view .LVU779
 2933 01d8 ACEB090C 		sub	ip, ip, r9
 2934              	.LVL197:
 206:../../libdaisy/src/hid/disp/display.h ****             }
 2935              		.loc 5 206 20 view .LVU780
 2936 01dc 013F     		subs	r7, r7, #1
 2937              	.LVL198:
 2938              	.L194:
 209:../../libdaisy/src/hid/disp/display.h ****             {
 2939              		.loc 5 209 13 view .LVU781
 2940 01de BEF1000F 		cmp	lr, #0
 2941 01e2 01D0     		beq	.L195
 212:../../libdaisy/src/hid/disp/display.h ****             }
 2942              		.loc 5 212 20 view .LVU782
 2943 01e4 009A     		ldr	r2, [sp]
 2944 01e6 1644     		add	r6, r6, r2
 2945              	.LVL199:
 2946              	.L195:
 199:../../libdaisy/src/hid/disp/display.h ****         {
ARM GAS  C:\Users\VINCIU~1\AppData\Local\Temp\ccA1pwKF.s 			page 88


 2947              		.loc 5 199 26 is_stmt 1 view .LVU783
 2948 01e8 BB42     		cmp	r3, r7
 2949 01ea D8D1     		bne	.L191
 199:../../libdaisy/src/hid/disp/display.h ****         {
 2950              		.loc 5 199 26 is_stmt 0 view .LVU784
 2951 01ec B442     		cmp	r4, r6
 2952 01ee D6D1     		bne	.L191
 2953 01f0 059A     		ldr	r2, [sp, #20]
 2954              	.LVL200:
 2955              	.L188:
 199:../../libdaisy/src/hid/disp/display.h ****         {
 2956              		.loc 5 199 26 view .LVU785
 2957              	.LBE903:
 2958              	.LBE902:
 2959              	.LBB938:
 2960              	.LBI938:
 181:../../libdaisy/src/hid/disp/display.h ****                   uint_fast8_t y1,
 2961              		.loc 5 181 10 is_stmt 1 view .LVU786
 2962              	.LBB939:
 187:../../libdaisy/src/hid/disp/display.h ****         int_fast16_t deltaY = abs((int_fast16_t)y2 - (int_fast16_t)y1);
 2963              		.loc 5 187 52 is_stmt 0 view .LVU787
 2964 01f2 A1EB030E 		sub	lr, r1, r3
 187:../../libdaisy/src/hid/disp/display.h ****         int_fast16_t deltaY = abs((int_fast16_t)y2 - (int_fast16_t)y1);
 2965              		.loc 5 187 22 view .LVU788
 2966 01f6 BEF1000F 		cmp	lr, #0
 2967 01fa B8BF     		it	lt
 2968 01fc CEF1000E 		rsblt	lr, lr, #0
 2969              	.LVL201:
 2970              	.LBB940:
 2971              	.LBB941:
 2972              	.LBB942:
 241:../../libdaisy/src/dev/oled_ssd130x.h ****             return;
 2973              		.loc 6 241 14 view .LVU789
 2974 0200 7F29     		cmp	r1, #127
 2975 0202 94BF     		ite	ls
 2976 0204 4FF0000A 		movls	r10, #0
 2977 0208 4FF0010A 		movhi	r10, #1
 2978              	.LBE942:
 2979              	.LBE941:
 2980              	.LBE940:
 189:../../libdaisy/src/hid/disp/display.h ****         int_fast16_t signY  = ((y1 < y2) ? 1 : -1);
 2981              		.loc 5 189 42 view .LVU790
 2982 020c 9942     		cmp	r1, r3
 2983 020e 8CBF     		ite	hi
 2984 0210 4FF00109 		movhi	r9, #1
 2985 0214 4FF0FF39 		movls	r9, #-1
 2986              	.LVL202:
 2987              	.LBB949:
 2988              	.LBI940:
  41:../../libdaisy/src/hid/disp/oled_display.h ****     {
 2989              		.loc 1 41 10 is_stmt 1 view .LVU791
 2990              	.LBB947:
 2991              	.LBI941:
 239:../../libdaisy/src/dev/oled_ssd130x.h ****     {
 2992              		.loc 6 239 10 view .LVU792
 2993              	.LBB945:
 241:../../libdaisy/src/dev/oled_ssd130x.h ****             return;
ARM GAS  C:\Users\VINCIU~1\AppData\Local\Temp\ccA1pwKF.s 			page 89


 2994              		.loc 6 241 9 is_stmt 0 view .LVU793
 2995 0218 BAF1000F 		cmp	r10, #0
 2996 021c 13D1     		bne	.L197
 2997 021e 039E     		ldr	r6, [sp, #12]
 2998 0220 8EB9     		cbnz	r6, .L197
 244:../../libdaisy/src/dev/oled_ssd130x.h ****         else
 2999              		.loc 6 244 28 view .LVU794
 3000 0222 E608     		lsrs	r6, r4, #3
 244:../../libdaisy/src/dev/oled_ssd130x.h ****         else
 3001              		.loc 6 244 42 view .LVU795
 3002 0224 01EBC616 		add	r6, r1, r6, lsl #7
 3003 0228 0644     		add	r6, r6, r0
 243:../../libdaisy/src/dev/oled_ssd130x.h ****             buffer_[x + (y / 8) * width] |= (1 << (y % 8));
 3004              		.loc 6 243 9 view .LVU796
 3005 022a 002D     		cmp	r5, #0
 3006 022c 00F0D380 		beq	.L198
 244:../../libdaisy/src/dev/oled_ssd130x.h ****         else
 3007              		.loc 6 244 48 view .LVU797
 3008 0230 4FF0010C 		mov	ip, #1
 244:../../libdaisy/src/dev/oled_ssd130x.h ****         else
 3009              		.loc 6 244 54 view .LVU798
 3010 0234 04F00707 		and	r7, r4, #7
 244:../../libdaisy/src/dev/oled_ssd130x.h ****         else
 3011              		.loc 6 244 48 view .LVU799
 3012 0238 0CFA07F7 		lsl	r7, ip, r7
 244:../../libdaisy/src/dev/oled_ssd130x.h ****         else
 3013              		.loc 6 244 42 view .LVU800
 3014 023c 96F814C0 		ldrb	ip, [r6, #20]	@ zero_extendqisi2
 3015 0240 47EA0C07 		orr	r7, r7, ip
 3016 0244 3775     		strb	r7, [r6, #20]
 3017              	.L197:
 3018              	.LVL203:
 244:../../libdaisy/src/dev/oled_ssd130x.h ****         else
 3019              		.loc 6 244 42 view .LVU801
 3020              	.LBE945:
 3021              	.LBE947:
 3022              	.LBE949:
 199:../../libdaisy/src/hid/disp/display.h ****         {
 3023              		.loc 5 199 26 is_stmt 1 view .LVU802
 3024 0246 049E     		ldr	r6, [sp, #16]
 3025 0248 26BB     		cbnz	r6, .L199
 187:../../libdaisy/src/hid/disp/display.h ****         int_fast16_t deltaY = abs((int_fast16_t)y2 - (int_fast16_t)y1);
 3026              		.loc 5 187 22 is_stmt 0 view .LVU803
 3027 024a 7746     		mov	r7, lr
 199:../../libdaisy/src/hid/disp/display.h ****         {
 3028              		.loc 5 199 26 view .LVU804
 3029 024c 2646     		mov	r6, r4
 3030              	.LVL204:
 3031              	.L200:
 3032              	.LBB950:
 3033              	.LBI950:
  41:../../libdaisy/src/hid/disp/oled_display.h ****     {
 3034              		.loc 1 41 10 is_stmt 1 view .LVU805
 3035              	.LBB951:
 3036              	.LBI951:
 239:../../libdaisy/src/dev/oled_ssd130x.h ****     {
 3037              		.loc 6 239 10 view .LVU806
ARM GAS  C:\Users\VINCIU~1\AppData\Local\Temp\ccA1pwKF.s 			page 90


 3038              	.LBB952:
 241:../../libdaisy/src/dev/oled_ssd130x.h ****             return;
 3039              		.loc 6 241 9 is_stmt 0 view .LVU807
 3040 024e 7F2B     		cmp	r3, #127
 3041 0250 14D8     		bhi	.L202
 241:../../libdaisy/src/dev/oled_ssd130x.h ****             return;
 3042              		.loc 6 241 9 view .LVU808
 3043 0252 3F2E     		cmp	r6, #63
 3044 0254 12D8     		bhi	.L202
 244:../../libdaisy/src/dev/oled_ssd130x.h ****         else
 3045              		.loc 6 244 28 view .LVU809
 3046 0256 4FEAD60C 		lsr	ip, r6, #3
 244:../../libdaisy/src/dev/oled_ssd130x.h ****         else
 3047              		.loc 6 244 54 view .LVU810
 3048 025a 06F0070B 		and	fp, r6, #7
 244:../../libdaisy/src/dev/oled_ssd130x.h ****         else
 3049              		.loc 6 244 48 view .LVU811
 3050 025e 4FF00108 		mov	r8, #1
 244:../../libdaisy/src/dev/oled_ssd130x.h ****         else
 3051              		.loc 6 244 42 view .LVU812
 3052 0262 03EBCC1C 		add	ip, r3, ip, lsl #7
 3053 0266 8444     		add	ip, ip, r0
 243:../../libdaisy/src/dev/oled_ssd130x.h ****             buffer_[x + (y / 8) * width] |= (1 << (y % 8));
 3054              		.loc 6 243 9 view .LVU813
 3055 0268 002D     		cmp	r5, #0
 3056 026a 73D0     		beq	.L203
 244:../../libdaisy/src/dev/oled_ssd130x.h ****         else
 3057              		.loc 6 244 48 view .LVU814
 3058 026c 08FA0BF8 		lsl	r8, r8, fp
 244:../../libdaisy/src/dev/oled_ssd130x.h ****         else
 3059              		.loc 6 244 42 view .LVU815
 3060 0270 9CF814B0 		ldrb	fp, [ip, #20]	@ zero_extendqisi2
 3061 0274 48EA0B08 		orr	r8, r8, fp
 3062 0278 8CF81480 		strb	r8, [ip, #20]
 3063              	.L202:
 3064              	.LVL205:
 244:../../libdaisy/src/dev/oled_ssd130x.h ****         else
 3065              		.loc 6 244 42 view .LVU816
 3066              	.LBE952:
 3067              	.LBE951:
 3068              	.LBE950:
 203:../../libdaisy/src/hid/disp/display.h ****             {
 3069              		.loc 5 203 13 view .LVU817
 3070 027c 5FEA470C 		lsls	ip, r7, #1
 3071              	.LVL206:
 206:../../libdaisy/src/hid/disp/display.h ****             }
 3072              		.loc 5 206 20 view .LVU818
 3073 0280 18BF     		it	ne
 3074 0282 4B44     		addne	r3, r3, r9
 3075              	.LVL207:
 209:../../libdaisy/src/hid/disp/display.h ****             {
 3076              		.loc 5 209 13 view .LVU819
 3077 0284 E645     		cmp	lr, ip
 3078 0286 01DD     		ble	.L205
 211:../../libdaisy/src/hid/disp/display.h ****                 y1 += signY;
 3079              		.loc 5 211 23 view .LVU820
 3080 0288 7744     		add	r7, r7, lr
ARM GAS  C:\Users\VINCIU~1\AppData\Local\Temp\ccA1pwKF.s 			page 91


 3081              	.LVL208:
 212:../../libdaisy/src/hid/disp/display.h ****             }
 3082              		.loc 5 212 20 view .LVU821
 3083 028a 013E     		subs	r6, r6, #1
 3084              	.LVL209:
 3085              	.L205:
 199:../../libdaisy/src/hid/disp/display.h ****         {
 3086              		.loc 5 199 26 is_stmt 1 view .LVU822
 3087 028c 9942     		cmp	r1, r3
 3088 028e DED1     		bne	.L200
 199:../../libdaisy/src/hid/disp/display.h ****         {
 3089              		.loc 5 199 26 is_stmt 0 view .LVU823
 3090 0290 B442     		cmp	r4, r6
 3091 0292 DCD1     		bne	.L200
 3092              	.LVL210:
 3093              	.L199:
 199:../../libdaisy/src/hid/disp/display.h ****         {
 3094              		.loc 5 199 26 view .LVU824
 3095              	.LBE939:
 3096              	.LBE938:
 3097              	.LBB961:
 3098              	.LBI961:
 181:../../libdaisy/src/hid/disp/display.h ****                   uint_fast8_t y1,
 3099              		.loc 5 181 10 is_stmt 1 view .LVU825
 3100              	.LBB962:
 188:../../libdaisy/src/hid/disp/display.h ****         int_fast16_t signX  = ((x1 < x2) ? 1 : -1);
 3101              		.loc 5 188 52 is_stmt 0 view .LVU826
 3102 0294 A2EB040E 		sub	lr, r2, r4
 188:../../libdaisy/src/hid/disp/display.h ****         int_fast16_t signX  = ((x1 < x2) ? 1 : -1);
 3103              		.loc 5 188 22 view .LVU827
 3104 0298 BEF1000F 		cmp	lr, #0
 3105 029c B8BF     		it	lt
 3106 029e CEF1000E 		rsblt	lr, lr, #0
 3107              	.LVL211:
 190:../../libdaisy/src/hid/disp/display.h ****         int_fast16_t error  = deltaX - deltaY;
 3108              		.loc 5 190 42 view .LVU828
 3109 02a2 A242     		cmp	r2, r4
 3110 02a4 8CBF     		ite	hi
 3111 02a6 4FF00108 		movhi	r8, #1
 3112 02aa 4FF0FF38 		movls	r8, #-1
 3113              	.LVL212:
 191:../../libdaisy/src/hid/disp/display.h ****         int_fast16_t error2;
 3114              		.loc 5 191 22 view .LVU829
 3115 02ae CEF1000C 		rsb	ip, lr, #0
 3116              	.LVL213:
 3117              	.LBB963:
 3118              	.LBI963:
  41:../../libdaisy/src/hid/disp/oled_display.h ****     {
 3119              		.loc 1 41 10 is_stmt 1 view .LVU830
 3120              	.LBB964:
 3121              	.LBI964:
 239:../../libdaisy/src/dev/oled_ssd130x.h ****     {
 3122              		.loc 6 239 10 view .LVU831
 3123              	.LBB965:
 241:../../libdaisy/src/dev/oled_ssd130x.h ****             return;
 3124              		.loc 6 241 9 is_stmt 0 view .LVU832
 3125 02b2 BAF1000F 		cmp	r10, #0
ARM GAS  C:\Users\VINCIU~1\AppData\Local\Temp\ccA1pwKF.s 			page 92


 3126 02b6 0ED1     		bne	.L207
 3127 02b8 029B     		ldr	r3, [sp, #8]
 3128 02ba 63B9     		cbnz	r3, .L207
 244:../../libdaisy/src/dev/oled_ssd130x.h ****         else
 3129              		.loc 6 244 28 view .LVU833
 3130 02bc D308     		lsrs	r3, r2, #3
 244:../../libdaisy/src/dev/oled_ssd130x.h ****         else
 3131              		.loc 6 244 54 view .LVU834
 3132 02be 02F00707 		and	r7, r2, #7
 244:../../libdaisy/src/dev/oled_ssd130x.h ****         else
 3133              		.loc 6 244 48 view .LVU835
 3134 02c2 0126     		movs	r6, #1
 244:../../libdaisy/src/dev/oled_ssd130x.h ****         else
 3135              		.loc 6 244 42 view .LVU836
 3136 02c4 01EBC313 		add	r3, r1, r3, lsl #7
 3137 02c8 0344     		add	r3, r3, r0
 243:../../libdaisy/src/dev/oled_ssd130x.h ****             buffer_[x + (y / 8) * width] |= (1 << (y % 8));
 3138              		.loc 6 243 9 view .LVU837
 3139 02ca 002D     		cmp	r5, #0
 3140 02cc 7CD0     		beq	.L208
 244:../../libdaisy/src/dev/oled_ssd130x.h ****         else
 3141              		.loc 6 244 48 view .LVU838
 3142 02ce BE40     		lsls	r6, r6, r7
 244:../../libdaisy/src/dev/oled_ssd130x.h ****         else
 3143              		.loc 6 244 42 view .LVU839
 3144 02d0 1F7D     		ldrb	r7, [r3, #20]	@ zero_extendqisi2
 3145 02d2 3E43     		orrs	r6, r6, r7
 3146 02d4 1E75     		strb	r6, [r3, #20]
 3147              	.L207:
 3148              	.LVL214:
 244:../../libdaisy/src/dev/oled_ssd130x.h ****         else
 3149              		.loc 6 244 42 view .LVU840
 3150              	.LBE965:
 3151              	.LBE964:
 3152              	.LBE963:
 199:../../libdaisy/src/hid/disp/display.h ****         {
 3153              		.loc 5 199 26 is_stmt 1 view .LVU841
 3154 02d6 019B     		ldr	r3, [sp, #4]
 3155 02d8 002B     		cmp	r3, #0
 3156 02da 7FF4CDAE 		bne	.L165
 3157 02de 6646     		mov	r6, ip
 3158 02e0 0B46     		mov	r3, r1
 3159              	.LVL215:
 3160              	.L209:
 3161              	.LBB970:
 3162              	.LBI970:
  41:../../libdaisy/src/hid/disp/oled_display.h ****     {
 3163              		.loc 1 41 10 view .LVU842
 3164              	.LBB971:
 3165              	.LBI971:
 239:../../libdaisy/src/dev/oled_ssd130x.h ****     {
 3166              		.loc 6 239 10 view .LVU843
 3167              	.LBB972:
 241:../../libdaisy/src/dev/oled_ssd130x.h ****             return;
 3168              		.loc 6 241 9 is_stmt 0 view .LVU844
 3169 02e2 7F2B     		cmp	r3, #127
 3170 02e4 12D8     		bhi	.L211
ARM GAS  C:\Users\VINCIU~1\AppData\Local\Temp\ccA1pwKF.s 			page 93


 241:../../libdaisy/src/dev/oled_ssd130x.h ****             return;
 3171              		.loc 6 241 9 view .LVU845
 3172 02e6 3F2C     		cmp	r4, #63
 3173 02e8 10D8     		bhi	.L211
 244:../../libdaisy/src/dev/oled_ssd130x.h ****         else
 3174              		.loc 6 244 28 view .LVU846
 3175 02ea E708     		lsrs	r7, r4, #3
 244:../../libdaisy/src/dev/oled_ssd130x.h ****         else
 3176              		.loc 6 244 54 view .LVU847
 3177 02ec 04F0070A 		and	r10, r4, #7
 244:../../libdaisy/src/dev/oled_ssd130x.h ****         else
 3178              		.loc 6 244 48 view .LVU848
 3179 02f0 4FF00109 		mov	r9, #1
 244:../../libdaisy/src/dev/oled_ssd130x.h ****         else
 3180              		.loc 6 244 42 view .LVU849
 3181 02f4 03EBC717 		add	r7, r3, r7, lsl #7
 3182 02f8 0744     		add	r7, r7, r0
 243:../../libdaisy/src/dev/oled_ssd130x.h ****             buffer_[x + (y / 8) * width] |= (1 << (y % 8));
 3183              		.loc 6 243 9 view .LVU850
 3184 02fa A5B3     		cbz	r5, .L212
 244:../../libdaisy/src/dev/oled_ssd130x.h ****         else
 3185              		.loc 6 244 48 view .LVU851
 3186 02fc 09FA0AF9 		lsl	r9, r9, r10
 244:../../libdaisy/src/dev/oled_ssd130x.h ****         else
 3187              		.loc 6 244 42 view .LVU852
 3188 0300 97F814A0 		ldrb	r10, [r7, #20]	@ zero_extendqisi2
 3189 0304 49EA0A09 		orr	r9, r9, r10
 3190 0308 87F81490 		strb	r9, [r7, #20]
 3191              	.L211:
 3192              	.LVL216:
 244:../../libdaisy/src/dev/oled_ssd130x.h ****         else
 3193              		.loc 6 244 42 view .LVU853
 3194              	.LBE972:
 3195              	.LBE971:
 3196              	.LBE970:
 203:../../libdaisy/src/hid/disp/display.h ****             {
 3197              		.loc 5 203 13 view .LVU854
 3198 030c BCEB460F 		cmp	ip, r6, lsl #1
 202:../../libdaisy/src/hid/disp/display.h ****             if(error2 > -deltaY)
 3199              		.loc 5 202 20 view .LVU855
 3200 0310 4FEA4607 		lsl	r7, r6, #1
 3201              	.LVL217:
 203:../../libdaisy/src/hid/disp/display.h ****             {
 3202              		.loc 5 203 13 view .LVU856
 3203 0314 02DA     		bge	.L213
 205:../../libdaisy/src/hid/disp/display.h ****                 x1 += signX;
 3204              		.loc 5 205 23 view .LVU857
 3205 0316 A6EB0E06 		sub	r6, r6, lr
 3206              	.LVL218:
 206:../../libdaisy/src/hid/disp/display.h ****             }
 3207              		.loc 5 206 20 view .LVU858
 3208 031a 013B     		subs	r3, r3, #1
 3209              	.LVL219:
 3210              	.L213:
 209:../../libdaisy/src/hid/disp/display.h ****             {
 3211              		.loc 5 209 13 view .LVU859
 3212 031c 07B1     		cbz	r7, .L214
ARM GAS  C:\Users\VINCIU~1\AppData\Local\Temp\ccA1pwKF.s 			page 94


 212:../../libdaisy/src/hid/disp/display.h ****             }
 3213              		.loc 5 212 20 view .LVU860
 3214 031e 4444     		add	r4, r4, r8
 3215              	.LVL220:
 3216              	.L214:
 199:../../libdaisy/src/hid/disp/display.h ****         {
 3217              		.loc 5 199 26 is_stmt 1 view .LVU861
 3218 0320 9942     		cmp	r1, r3
 3219 0322 DED1     		bne	.L209
 199:../../libdaisy/src/hid/disp/display.h ****         {
 3220              		.loc 5 199 26 is_stmt 0 view .LVU862
 3221 0324 A242     		cmp	r2, r4
 3222 0326 DCD1     		bne	.L209
 3223              	.LBE962:
 3224              	.LBE961:
 3225              	.LBE1014:
 241:../../libdaisy/src/hid/disp/display.h **** 
 3226              		.loc 5 241 5 view .LVU863
 3227 0328 07B0     		add	sp, sp, #28
 3228              		.cfi_remember_state
 3229              		.cfi_def_cfa_offset 36
 3230              		@ sp needed
 3231 032a BDE8F08F 		pop	{r4, r5, r6, r7, r8, r9, r10, fp, pc}
 3232              	.LVL221:
 3233              	.L174:
 3234              		.cfi_restore_state
 3235              	.LBB1015:
 3236              	.LBB981:
 3237              	.LBB898:
 3238              	.LBB894:
  41:../../libdaisy/src/hid/disp/oled_display.h ****     {
 3239              		.loc 1 41 10 is_stmt 1 view .LVU864
 3240              	.LBB883:
 239:../../libdaisy/src/dev/oled_ssd130x.h ****     {
 3241              		.loc 6 239 10 view .LVU865
 3242              	.LBB879:
 241:../../libdaisy/src/dev/oled_ssd130x.h ****             return;
 3243              		.loc 6 241 28 is_stmt 0 view .LVU866
 3244 032e 3F2A     		cmp	r2, #63
 3245              	.LBE879:
 3246              	.LBE883:
 3247              	.LBE894:
 189:../../libdaisy/src/hid/disp/display.h ****         int_fast16_t signY  = ((y1 < y2) ? 1 : -1);
 3248              		.loc 5 189 42 view .LVU867
 3249 0330 4FF0010A 		mov	r10, #1
 3250              	.LBB895:
 3251              	.LBB884:
 3252              	.LBB880:
 241:../../libdaisy/src/dev/oled_ssd130x.h ****             return;
 3253              		.loc 6 241 28 view .LVU868
 3254 0334 94BF     		ite	ls
 3255 0336 0026     		movls	r6, #0
 3256 0338 0126     		movhi	r6, #1
 241:../../libdaisy/src/dev/oled_ssd130x.h ****             return;
 3257              		.loc 6 241 14 view .LVU869
 3258 033a 7F2B     		cmp	r3, #127
 241:../../libdaisy/src/dev/oled_ssd130x.h ****             return;
ARM GAS  C:\Users\VINCIU~1\AppData\Local\Temp\ccA1pwKF.s 			page 95


 3259              		.loc 6 241 28 view .LVU870
 3260 033c 0296     		str	r6, [sp, #8]
 241:../../libdaisy/src/dev/oled_ssd130x.h ****             return;
 3261              		.loc 6 241 14 view .LVU871
 3262 033e 94BF     		ite	ls
 3263 0340 0027     		movls	r7, #0
 3264 0342 0127     		movhi	r7, #1
 3265 0344 0097     		str	r7, [sp]
 241:../../libdaisy/src/dev/oled_ssd130x.h ****             return;
 3266              		.loc 6 241 9 view .LVU872
 3267 0346 002E     		cmp	r6, #0
 3268 0348 7FF4C8AE 		bne	.L178
 3269 034c 002F     		cmp	r7, #0
 3270 034e 3FF4AEAE 		beq	.L216
 3271 0352 C3E6     		b	.L178
 3272              	.LVL222:
 3273              	.L203:
 241:../../libdaisy/src/dev/oled_ssd130x.h ****             return;
 3274              		.loc 6 241 9 view .LVU873
 3275              	.LBE880:
 3276              	.LBE884:
 3277              	.LBE895:
 3278              	.LBE898:
 3279              	.LBE981:
 3280              	.LBB982:
 3281              	.LBB959:
 3282              	.LBB957:
 3283              	.LBB956:
 3284              	.LBB955:
 3285              	.LBB953:
 3286              	.LBI953:
 239:../../libdaisy/src/dev/oled_ssd130x.h ****     {
 3287              		.loc 6 239 10 is_stmt 1 view .LVU874
 3288              	.LBB954:
 246:../../libdaisy/src/dev/oled_ssd130x.h ****     }
 3289              		.loc 6 246 49 is_stmt 0 view .LVU875
 3290 0354 08FA0BFB 		lsl	fp, r8, fp
 246:../../libdaisy/src/dev/oled_ssd130x.h ****     }
 3291              		.loc 6 246 42 view .LVU876
 3292 0358 9CF81480 		ldrb	r8, [ip, #20]	@ zero_extendqisi2
 3293 035c 28EA0B08 		bic	r8, r8, fp
 3294 0360 8CF81480 		strb	r8, [ip, #20]
 3295 0364 8AE7     		b	.L202
 3296              	.LVL223:
 3297              	.L212:
 246:../../libdaisy/src/dev/oled_ssd130x.h ****     }
 3298              		.loc 6 246 42 view .LVU877
 3299              	.LBE954:
 3300              	.LBE953:
 3301              	.LBE955:
 3302              	.LBE956:
 3303              	.LBE957:
 3304              	.LBE959:
 3305              	.LBE982:
 3306              	.LBB983:
 3307              	.LBB979:
 3308              	.LBB977:
ARM GAS  C:\Users\VINCIU~1\AppData\Local\Temp\ccA1pwKF.s 			page 96


 3309              	.LBB976:
 3310              	.LBB975:
 3311              	.LBB973:
 3312              	.LBI973:
 239:../../libdaisy/src/dev/oled_ssd130x.h ****     {
 3313              		.loc 6 239 10 is_stmt 1 view .LVU878
 3314              	.LBB974:
 246:../../libdaisy/src/dev/oled_ssd130x.h ****     }
 3315              		.loc 6 246 49 is_stmt 0 view .LVU879
 3316 0366 09FA0AFA 		lsl	r10, r9, r10
 246:../../libdaisy/src/dev/oled_ssd130x.h ****     }
 3317              		.loc 6 246 42 view .LVU880
 3318 036a 97F81490 		ldrb	r9, [r7, #20]	@ zero_extendqisi2
 3319 036e 29EA0A09 		bic	r9, r9, r10
 3320 0372 87F81490 		strb	r9, [r7, #20]
 3321 0376 C9E7     		b	.L211
 3322              	.LVL224:
 3323              	.L182:
 246:../../libdaisy/src/dev/oled_ssd130x.h ****     }
 3324              		.loc 6 246 42 view .LVU881
 3325              	.LBE974:
 3326              	.LBE973:
 3327              	.LBE975:
 3328              	.LBE976:
 3329              	.LBE977:
 3330              	.LBE979:
 3331              	.LBE983:
 3332              	.LBB984:
 3333              	.LBB899:
 3334              	.LBB896:
 3335              	.LBB893:
 3336              	.LBB892:
 3337              	.LBB890:
 3338              	.LBI890:
 239:../../libdaisy/src/dev/oled_ssd130x.h ****     {
 3339              		.loc 6 239 10 is_stmt 1 view .LVU882
 3340              	.LBB891:
 246:../../libdaisy/src/dev/oled_ssd130x.h ****     }
 3341              		.loc 6 246 49 is_stmt 0 view .LVU883
 3342 0378 09FA0BFB 		lsl	fp, r9, fp
 246:../../libdaisy/src/dev/oled_ssd130x.h ****     }
 3343              		.loc 6 246 42 view .LVU884
 3344 037c 97F81490 		ldrb	r9, [r7, #20]	@ zero_extendqisi2
 3345 0380 29EA0B09 		bic	r9, r9, fp
 3346 0384 87F81490 		strb	r9, [r7, #20]
 3347 0388 C5E6     		b	.L181
 3348              	.LVL225:
 3349              	.L193:
 246:../../libdaisy/src/dev/oled_ssd130x.h ****     }
 3350              		.loc 6 246 42 view .LVU885
 3351              	.LBE891:
 3352              	.LBE890:
 3353              	.LBE892:
 3354              	.LBE893:
 3355              	.LBE896:
 3356              	.LBE899:
 3357              	.LBE984:
ARM GAS  C:\Users\VINCIU~1\AppData\Local\Temp\ccA1pwKF.s 			page 97


 3358              	.LBB985:
 3359              	.LBB935:
 3360              	.LBB932:
 3361              	.LBB931:
 3362              	.LBB930:
 3363              	.LBB928:
 3364              	.LBI928:
 239:../../libdaisy/src/dev/oled_ssd130x.h ****     {
 3365              		.loc 6 239 10 is_stmt 1 view .LVU886
 3366              	.LBB929:
 246:../../libdaisy/src/dev/oled_ssd130x.h ****     }
 3367              		.loc 6 246 49 is_stmt 0 view .LVU887
 3368 038a 0AFA0BFB 		lsl	fp, r10, fp
 246:../../libdaisy/src/dev/oled_ssd130x.h ****     }
 3369              		.loc 6 246 42 view .LVU888
 3370 038e 9EF814A0 		ldrb	r10, [lr, #20]	@ zero_extendqisi2
 3371 0392 2AEA0B0A 		bic	r10, r10, fp
 3372 0396 8EF814A0 		strb	r10, [lr, #20]
 3373 039a 18E7     		b	.L192
 3374              	.LVL226:
 3375              	.L185:
 246:../../libdaisy/src/dev/oled_ssd130x.h ****     }
 3376              		.loc 6 246 42 view .LVU889
 3377              	.LBE929:
 3378              	.LBE928:
 3379              	.LBE930:
 3380              	.LBE931:
 3381              	.LBE932:
 3382              	.LBB933:
 3383              	.LBB919:
 3384              	.LBB913:
 241:../../libdaisy/src/dev/oled_ssd130x.h ****             return;
 3385              		.loc 6 241 9 view .LVU890
 3386 039c 97BB     		cbnz	r7, .L224
 3387 039e 8EBB     		cbnz	r6, .L224
 3388              	.LBE913:
 3389              	.LBE919:
 3390              	.LBE933:
 190:../../libdaisy/src/hid/disp/display.h ****         int_fast16_t error  = deltaX - deltaY;
 3391              		.loc 5 190 42 view .LVU891
 3392 03a0 0126     		movs	r6, #1
 3393 03a2 0096     		str	r6, [sp]
 3394              	.LBB934:
 3395              	.LBB920:
 3396              	.LBB914:
 244:../../libdaisy/src/dev/oled_ssd130x.h ****         else
 3397              		.loc 6 244 28 view .LVU892
 3398 03a4 E608     		lsrs	r6, r4, #3
 244:../../libdaisy/src/dev/oled_ssd130x.h ****         else
 3399              		.loc 6 244 42 view .LVU893
 3400 03a6 03EBC616 		add	r6, r3, r6, lsl #7
 3401 03aa 0644     		add	r6, r6, r0
 243:../../libdaisy/src/dev/oled_ssd130x.h ****             buffer_[x + (y / 8) * width] |= (1 << (y % 8));
 3402              		.loc 6 243 9 view .LVU894
 3403 03ac 002D     		cmp	r5, #0
 3404 03ae 7FF4E2AE 		bne	.L259
 3405              	.LVL227:
ARM GAS  C:\Users\VINCIU~1\AppData\Local\Temp\ccA1pwKF.s 			page 98


 3406              	.L187:
 3407              	.LBB907:
 3408              	.LBI907:
 239:../../libdaisy/src/dev/oled_ssd130x.h ****     {
 3409              		.loc 6 239 10 is_stmt 1 view .LVU895
 3410              	.LBB908:
 246:../../libdaisy/src/dev/oled_ssd130x.h ****     }
 3411              		.loc 6 246 49 is_stmt 0 view .LVU896
 3412 03b2 0127     		movs	r7, #1
 246:../../libdaisy/src/dev/oled_ssd130x.h ****     }
 3413              		.loc 6 246 55 view .LVU897
 3414 03b4 04F0070C 		and	ip, r4, #7
 246:../../libdaisy/src/dev/oled_ssd130x.h ****     }
 3415              		.loc 6 246 42 view .LVU898
 3416 03b8 0395     		str	r5, [sp, #12]
 246:../../libdaisy/src/dev/oled_ssd130x.h ****     }
 3417              		.loc 6 246 49 view .LVU899
 3418 03ba 07FA0CFC 		lsl	ip, r7, ip
 246:../../libdaisy/src/dev/oled_ssd130x.h ****     }
 3419              		.loc 6 246 42 view .LVU900
 3420 03be 377D     		ldrb	r7, [r6, #20]	@ zero_extendqisi2
 3421 03c0 27EA0C07 		bic	r7, r7, ip
 3422 03c4 3775     		strb	r7, [r6, #20]
 3423 03c6 E3E6     		b	.L186
 3424              	.LVL228:
 3425              	.L208:
 246:../../libdaisy/src/dev/oled_ssd130x.h ****     }
 3426              		.loc 6 246 42 view .LVU901
 3427              	.LBE908:
 3428              	.LBE907:
 3429              	.LBE914:
 3430              	.LBE920:
 3431              	.LBE934:
 3432              	.LBE935:
 3433              	.LBE985:
 3434              	.LBB986:
 3435              	.LBB980:
 3436              	.LBB978:
 3437              	.LBB969:
 3438              	.LBB968:
 3439              	.LBB966:
 3440              	.LBI966:
 239:../../libdaisy/src/dev/oled_ssd130x.h ****     {
 3441              		.loc 6 239 10 is_stmt 1 view .LVU902
 3442              	.LBB967:
 246:../../libdaisy/src/dev/oled_ssd130x.h ****     }
 3443              		.loc 6 246 49 is_stmt 0 view .LVU903
 3444 03c8 06FA07F7 		lsl	r7, r6, r7
 246:../../libdaisy/src/dev/oled_ssd130x.h ****     }
 3445              		.loc 6 246 42 view .LVU904
 3446 03cc 1E7D     		ldrb	r6, [r3, #20]	@ zero_extendqisi2
 3447 03ce 26EA0706 		bic	r6, r6, r7
 3448 03d2 1E75     		strb	r6, [r3, #20]
 3449 03d4 7FE7     		b	.L207
 3450              	.LVL229:
 3451              	.L198:
 246:../../libdaisy/src/dev/oled_ssd130x.h ****     }
ARM GAS  C:\Users\VINCIU~1\AppData\Local\Temp\ccA1pwKF.s 			page 99


 3452              		.loc 6 246 42 view .LVU905
 3453              	.LBE967:
 3454              	.LBE966:
 3455              	.LBE968:
 3456              	.LBE969:
 3457              	.LBE978:
 3458              	.LBE980:
 3459              	.LBE986:
 3460              	.LBB987:
 3461              	.LBB960:
 3462              	.LBB958:
 3463              	.LBB948:
 3464              	.LBB946:
 3465              	.LBB943:
 3466              	.LBI943:
 239:../../libdaisy/src/dev/oled_ssd130x.h ****     {
 3467              		.loc 6 239 10 is_stmt 1 view .LVU906
 3468              	.LBB944:
 246:../../libdaisy/src/dev/oled_ssd130x.h ****     }
 3469              		.loc 6 246 49 is_stmt 0 view .LVU907
 3470 03d6 0127     		movs	r7, #1
 246:../../libdaisy/src/dev/oled_ssd130x.h ****     }
 3471              		.loc 6 246 55 view .LVU908
 3472 03d8 04F0070C 		and	ip, r4, #7
 246:../../libdaisy/src/dev/oled_ssd130x.h ****     }
 3473              		.loc 6 246 49 view .LVU909
 3474 03dc 07FA0CFC 		lsl	ip, r7, ip
 246:../../libdaisy/src/dev/oled_ssd130x.h ****     }
 3475              		.loc 6 246 42 view .LVU910
 3476 03e0 377D     		ldrb	r7, [r6, #20]	@ zero_extendqisi2
 3477 03e2 27EA0C07 		bic	r7, r7, ip
 3478 03e6 3775     		strb	r7, [r6, #20]
 3479 03e8 2DE7     		b	.L197
 3480              	.LVL230:
 3481              	.L176:
 246:../../libdaisy/src/dev/oled_ssd130x.h ****     }
 3482              		.loc 6 246 42 view .LVU911
 3483              	.LBE944:
 3484              	.LBE943:
 3485              	.LBE946:
 3486              	.LBE948:
 3487              	.LBE958:
 3488              	.LBE960:
 3489              	.LBE987:
 3490              	.LBB988:
 3491              	.LBB900:
 3492              	.LBB897:
 3493              	.LBB885:
 3494              	.LBB881:
 3495              	.LBB876:
 3496              	.LBI876:
 239:../../libdaisy/src/dev/oled_ssd130x.h ****     {
 3497              		.loc 6 239 10 is_stmt 1 view .LVU912
 3498              	.LBB877:
 246:../../libdaisy/src/dev/oled_ssd130x.h ****     }
 3499              		.loc 6 246 49 is_stmt 0 view .LVU913
 3500 03ea 07FA0CFC 		lsl	ip, r7, ip
ARM GAS  C:\Users\VINCIU~1\AppData\Local\Temp\ccA1pwKF.s 			page 100


 246:../../libdaisy/src/dev/oled_ssd130x.h ****     }
 3501              		.loc 6 246 42 view .LVU914
 3502 03ee 377D     		ldrb	r7, [r6, #20]	@ zero_extendqisi2
 3503 03f0 0295     		str	r5, [sp, #8]
 3504 03f2 27EA0C07 		bic	r7, r7, ip
 3505 03f6 0095     		str	r5, [sp]
 3506 03f8 3775     		strb	r7, [r6, #20]
 3507 03fa 6CE6     		b	.L175
 3508              	.LVL231:
 3509              	.L220:
 246:../../libdaisy/src/dev/oled_ssd130x.h ****     }
 3510              		.loc 6 246 42 view .LVU915
 3511              	.LBE877:
 3512              	.LBE876:
 3513              	.LBE881:
 3514              	.LBE885:
 3515              	.LBE897:
 3516              	.LBE900:
 3517              	.LBE988:
 3518              	.LBB989:
 3519              	.LBB936:
 190:../../libdaisy/src/hid/disp/display.h ****         int_fast16_t error  = deltaX - deltaY;
 3520              		.loc 5 190 42 view .LVU916
 3521 03fc 4FF0FF36 		mov	r6, #-1
 3522 0400 0096     		str	r6, [sp]
 3523 0402 C5E6     		b	.L186
 3524              	.LVL232:
 3525              	.L224:
 190:../../libdaisy/src/hid/disp/display.h ****         int_fast16_t error  = deltaX - deltaY;
 3526              		.loc 5 190 42 view .LVU917
 3527 0404 0126     		movs	r6, #1
 3528 0406 0096     		str	r6, [sp]
 3529 0408 C5E6     		b	.L189
 3530              	.LVL233:
 3531              	.L257:
 190:../../libdaisy/src/hid/disp/display.h ****         int_fast16_t error  = deltaX - deltaY;
 3532              		.loc 5 190 42 view .LVU918
 3533              	.LBE936:
 3534              	.LBE989:
 3535              	.LBB990:
 3536              	.LBB901:
 199:../../libdaisy/src/hid/disp/display.h ****         {
 3537              		.loc 5 199 19 view .LVU919
 3538 040a 0126     		movs	r6, #1
 3539 040c 0496     		str	r6, [sp, #16]
 3540 040e 90E6     		b	.L177
 3541              	.LVL234:
 3542              	.L258:
 199:../../libdaisy/src/hid/disp/display.h ****         {
 3543              		.loc 5 199 19 view .LVU920
 3544              	.LBE901:
 3545              	.LBE990:
 3546              	.LBB991:
 3547              	.LBB937:
 199:../../libdaisy/src/hid/disp/display.h ****         {
 3548              		.loc 5 199 33 view .LVU921
 3549 0410 0126     		movs	r6, #1
ARM GAS  C:\Users\VINCIU~1\AppData\Local\Temp\ccA1pwKF.s 			page 101


 3550 0412 0196     		str	r6, [sp, #4]
 3551 0414 EDE6     		b	.L188
 3552              	.LBE937:
 3553              	.LBE991:
 3554              	.LBE1015:
 3555              		.cfi_endproc
 3556              	.LFE4341:
 3558 0416 00BF     		.section	.rodata._ZN5Menus5Menu1E23OledDisplayExtravaganzaPN7daisysp10OscillatorE.str1.4,"aMS",%pr
 3559              		.align	2
 3560              	.LC3:
 3561 0000 00       		.ascii	"\000"
 3562 0001 000000   		.align	2
 3563              	.LC4:
 3564 0004 4F736300 		.ascii	"Osc\000"
 3565              		.align	2
 3566              	.LC5:
 3567 0008 53656D69 		.ascii	"Semi_%dst\000"
 3567      5F256473 
 3567      7400
 3568 0012 0000     		.align	2
 3569              	.LC6:
 3570 0014 46696E65 		.ascii	"Fine_%d%%\000"
 3570      5F256425 
 3570      2500
 3571              		.section	.text._ZN5Menus5Menu1E23OledDisplayExtravaganzaPN7daisysp10OscillatorE,"ax",%progbits
 3572              		.align	1
 3573              		.p2align 2,,3
 3574              		.global	_ZN5Menus5Menu1E23OledDisplayExtravaganzaPN7daisysp10OscillatorE
 3575              		.syntax unified
 3576              		.thumb
 3577              		.thumb_func
 3578              		.fpu fpv5-d16
 3580              	_ZN5Menus5Menu1E23OledDisplayExtravaganzaPN7daisysp10OscillatorE:
 3581              	.LVL235:
 3582              	.LFB4039:
  95:Menus.cpp     ****     screen.Fill(!on);
 3583              		.loc 2 95 1 is_stmt 1 view -0
 3584              		.cfi_startproc
 3585              		@ args = 0, pretend = 0, frame = 8
 3586              		@ frame_needed = 0, uses_anonymous_args = 0
  95:Menus.cpp     ****     screen.Fill(!on);
 3587              		.loc 2 95 1 is_stmt 0 view .LVU923
 3588 0000 2DE9F043 		push	{r4, r5, r6, r7, r8, r9, lr}
 3589              		.cfi_def_cfa_offset 28
 3590              		.cfi_offset 4, -28
 3591              		.cfi_offset 5, -24
 3592              		.cfi_offset 6, -20
 3593              		.cfi_offset 7, -16
 3594              		.cfi_offset 8, -12
 3595              		.cfi_offset 9, -8
 3596              		.cfi_offset 14, -4
  96:Menus.cpp     ****     if(this->buttonLeft.RisingEdge())
 3597              		.loc 2 96 18 view .LVU924
 3598 0004 90F8BC81 		ldrb	r8, [r0, #444]	@ zero_extendqisi2
 3599 0008 01F11406 		add	r6, r1, #20
  95:Menus.cpp     ****     screen.Fill(!on);
 3600              		.loc 2 95 1 view .LVU925
ARM GAS  C:\Users\VINCIU~1\AppData\Local\Temp\ccA1pwKF.s 			page 102


 3601 000c 0C46     		mov	r4, r1
 3602 000e 0546     		mov	r5, r0
  96:Menus.cpp     ****     if(this->buttonLeft.RisingEdge())
 3603              		.loc 2 96 5 is_stmt 1 view .LVU926
 3604              	.LVL236:
 3605              	.LBB1237:
 3606              	.LBI1237:
  33:../../libdaisy/src/hid/disp/oled_display.h **** 
 3607              		.loc 1 33 10 view .LVU927
 3608              	.LBB1238:
 3609              	.LBI1238:
 249:../../libdaisy/src/dev/oled_ssd130x.h ****     {
 3610              		.loc 6 249 10 view .LVU928
 3611              	.LBB1239:
 251:../../libdaisy/src/dev/oled_ssd130x.h ****         {
 3612              		.loc 6 251 29 view .LVU929
 253:../../libdaisy/src/dev/oled_ssd130x.h ****         }
 3613              		.loc 6 253 24 is_stmt 0 view .LVU930
 3614 0010 88F00101 		eor	r1, r8, #1
 3615              	.LVL237:
 253:../../libdaisy/src/dev/oled_ssd130x.h ****         }
 3616              		.loc 6 253 24 view .LVU931
 3617              	.LBE1239:
 3618              	.LBE1238:
 3619              	.LBE1237:
  95:Menus.cpp     ****     screen.Fill(!on);
 3620              		.loc 2 95 1 view .LVU932
 3621 0014 1746     		mov	r7, r2
 3622              	.LBB1246:
 3623              	.LBB1243:
 3624              	.LBB1240:
 253:../../libdaisy/src/dev/oled_ssd130x.h ****         }
 3625              		.loc 6 253 24 view .LVU933
 3626 0016 3046     		mov	r0, r6
 3627              	.LVL238:
 253:../../libdaisy/src/dev/oled_ssd130x.h ****         }
 3628              		.loc 6 253 24 view .LVU934
 3629 0018 4FF48062 		mov	r2, #1024
 3630              	.LVL239:
 253:../../libdaisy/src/dev/oled_ssd130x.h ****         }
 3631              		.loc 6 253 24 view .LVU935
 3632 001c 4942     		rsbs	r1, r1, #0
 3633              	.LBE1240:
 3634              	.LBE1243:
 3635              	.LBE1246:
  95:Menus.cpp     ****     screen.Fill(!on);
 3636              		.loc 2 95 1 view .LVU936
 3637 001e 2DED028B 		vpush.64	{d8}
 3638              		.cfi_def_cfa_offset 36
 3639              		.cfi_offset 80, -36
 3640              		.cfi_offset 81, -32
 3641              	.LBB1247:
 3642              	.LBB1244:
 3643              	.LBB1241:
 253:../../libdaisy/src/dev/oled_ssd130x.h ****         }
 3644              		.loc 6 253 24 view .LVU937
 3645 0022 C9B2     		uxtb	r1, r1
ARM GAS  C:\Users\VINCIU~1\AppData\Local\Temp\ccA1pwKF.s 			page 103


 3646              	.LBE1241:
 3647              	.LBE1244:
 3648              	.LBE1247:
  95:Menus.cpp     ****     screen.Fill(!on);
 3649              		.loc 2 95 1 view .LVU938
 3650 0024 87B0     		sub	sp, sp, #28
 3651              		.cfi_def_cfa_offset 64
 3652              	.LBB1248:
 3653              	.LBB1245:
 3654              	.LBB1242:
 253:../../libdaisy/src/dev/oled_ssd130x.h ****         }
 3655              		.loc 6 253 24 view .LVU939
 3656 0026 FFF7FEFF 		bl	memset
 3657              	.LVL240:
 253:../../libdaisy/src/dev/oled_ssd130x.h ****         }
 3658              		.loc 6 253 24 view .LVU940
 3659              	.LBE1242:
 3660              	.LBE1245:
 3661              	.LBE1248:
  97:Menus.cpp     **** 
 3662              		.loc 2 97 5 is_stmt 1 view .LVU941
 3663              	.LBB1249:
 3664              	.LBI1249:
 3665              		.loc 4 69 17 view .LVU942
 3666              	.LBB1250:
 3667              		.loc 4 69 38 view .LVU943
 3668              		.loc 4 69 38 is_stmt 0 view .LVU944
 3669              	.LBE1250:
 3670              	.LBE1249:
  97:Menus.cpp     **** 
 3671              		.loc 2 97 5 view .LVU945
 3672 002a 95F85130 		ldrb	r3, [r5, #81]	@ zero_extendqisi2
 3673 002e 7F2B     		cmp	r3, #127
 3674 0030 00F0BC82 		beq	.L376
 106:Menus.cpp     **** 
 3675              		.loc 2 106 5 is_stmt 1 view .LVU946
 3676              	.LVL241:
 3677              	.LBB1251:
 3678              	.LBI1251:
 3679              		.loc 4 69 17 view .LVU947
 3680              	.LBB1252:
 3681              		.loc 4 69 38 view .LVU948
 3682              		.loc 4 69 38 is_stmt 0 view .LVU949
 3683              	.LBE1252:
 3684              	.LBE1251:
 106:Menus.cpp     **** 
 3685              		.loc 2 106 5 view .LVU950
 3686 0034 95F86130 		ldrb	r3, [r5, #97]	@ zero_extendqisi2
 3687 0038 7F2B     		cmp	r3, #127
 3688 003a 00F0C082 		beq	.L377
 3689              	.L264:
 116:Menus.cpp     **** 
 3690              		.loc 2 116 5 is_stmt 1 view .LVU951
 116:Menus.cpp     **** 
 3691              		.loc 2 116 32 is_stmt 0 view .LVU952
 3692 003e 4146     		mov	r1, r8
 3693 0040 B2EE001A 		vmov.f32	s2, #8.0e+0
ARM GAS  C:\Users\VINCIU~1\AppData\Local\Temp\ccA1pwKF.s 			page 104


 3694 0044 F2EE0A0A 		vmov.f32	s1, #1.3e+1
 3695 0048 9FEDC30A 		vldr.32	s0, .L401
 3696 004c C34B     		ldr	r3, .L401+4
 3697 004e 2046     		mov	r0, r4
 3698 0050 95F87420 		ldrb	r2, [r5, #116]	@ zero_extendqisi2
 3699 0054 FFF7FEFF 		bl	_ZN23OledDisplayExtravaganza20drawHorizontalToggleEfffbbPKc
 3700              	.LVL242:
 118:Menus.cpp     ****     {
 3701              		.loc 2 118 5 is_stmt 1 view .LVU953
 3702 0058 95F87480 		ldrb	r8, [r5, #116]	@ zero_extendqisi2
 3703 005c B8F1000F 		cmp	r8, #0
 3704 0060 00F02681 		beq	.L266
 120:Menus.cpp     ****         screen.drawSlider(70, 40, 50, 3, on, drawSliderFine);
 3705              		.loc 2 120 9 view .LVU954
 120:Menus.cpp     ****         screen.drawSlider(70, 40, 50, 3, on, drawSliderFine);
 3706              		.loc 2 120 26 is_stmt 0 view .LVU955
 3707 0064 95F8BC31 		ldrb	r3, [r5, #444]	@ zero_extendqisi2
 3708 0068 F0EE081A 		vmov.f32	s3, #3.0e+0
 3709 006c D5ED1E2A 		vldr.32	s5, [r5, #120]
 3710 0070 F1EE0C0A 		vmov.f32	s1, #7.0e+0
 3711 0074 02EE103A 		vmov	s4, r3	@ int
 3712 0078 9FEDC68A 		vldr.32	s16, .L401+60
 3713 007c 2046     		mov	r0, r4
 3714 007e 9FEDB81A 		vldr.32	s2, .L401+8
 3715 0082 C2EE882A 		vdiv.f32	s5, s5, s16
 3716 0086 9FEDB70A 		vldr.32	s0, .L401+12
 125:Menus.cpp     ****         screen.SetCursor(70, 50);
 3717              		.loc 2 125 27 view .LVU956
 3718 008a DFF8FC82 		ldr	r8, .L401+48
 3719 008e 4FF00109 		mov	r9, #1
 120:Menus.cpp     ****         screen.drawSlider(70, 40, 50, 3, on, drawSliderFine);
 3720              		.loc 2 120 26 view .LVU957
 3721 0092 B8EE422A 		vcvt.f32.u32	s4, s4
 3722 0096 FFF7FEFF 		bl	_ZN23OledDisplayExtravaganza10drawSliderEffffff
 3723              	.LVL243:
 121:Menus.cpp     ****         screen.drawVerticalToggle(13, 51, 8, on, this->toggleOsc, "");
 3724              		.loc 2 121 9 is_stmt 1 view .LVU958
 121:Menus.cpp     ****         screen.drawVerticalToggle(13, 51, 8, on, this->toggleOsc, "");
 3725              		.loc 2 121 26 is_stmt 0 view .LVU959
 3726 009a 95F8BC31 		ldrb	r3, [r5, #444]	@ zero_extendqisi2
 3727 009e F0EE081A 		vmov.f32	s3, #3.0e+0
 3728 00a2 D5ED1F2A 		vldr.32	s5, [r5, #124]
 3729 00a6 02EE103A 		vmov	s4, r3	@ int
 3730 00aa F0EE480A 		vmov.f32	s1, s16
 3731 00ae 2046     		mov	r0, r4
 3732 00b0 9FEDAB1A 		vldr.32	s2, .L401+8
 3733 00b4 B8EE422A 		vcvt.f32.u32	s4, s4
 3734 00b8 9FEDAA0A 		vldr.32	s0, .L401+12
 3735 00bc FFF7FEFF 		bl	_ZN23OledDisplayExtravaganza10drawSliderEffffff
 3736              	.LVL244:
 122:Menus.cpp     ****         screen.WaveIcons(35, 42, 55, this->selectedWave, on);
 3737              		.loc 2 122 9 is_stmt 1 view .LVU960
 122:Menus.cpp     ****         screen.WaveIcons(35, 42, 55, this->selectedWave, on);
 3738              		.loc 2 122 34 is_stmt 0 view .LVU961
 3739 00c0 B2EE001A 		vmov.f32	s2, #8.0e+0
 3740 00c4 B2EE0A0A 		vmov.f32	s0, #1.3e+1
 3741 00c8 DFEDA70A 		vldr.32	s1, .L401+16
ARM GAS  C:\Users\VINCIU~1\AppData\Local\Temp\ccA1pwKF.s 			page 105


 3742 00cc 2046     		mov	r0, r4
 3743 00ce A34B     		ldr	r3, .L401+4
 3744 00d0 95F89820 		ldrb	r2, [r5, #152]	@ zero_extendqisi2
 3745 00d4 95F8BC11 		ldrb	r1, [r5, #444]	@ zero_extendqisi2
 3746 00d8 FFF7FEFF 		bl	_ZN23OledDisplayExtravaganza18drawVerticalToggleEfffbbPKc
 3747              	.LVL245:
 123:Menus.cpp     ****         screen.SetCursor(70, 17);
 3748              		.loc 2 123 9 is_stmt 1 view .LVU962
 123:Menus.cpp     ****         screen.SetCursor(70, 17);
 3749              		.loc 2 123 25 is_stmt 0 view .LVU963
 3750 00dc 95F8BC31 		ldrb	r3, [r5, #444]	@ zero_extendqisi2
 3751 00e0 2046     		mov	r0, r4
 3752 00e2 2A22     		movs	r2, #42
 3753 00e4 0193     		str	r3, [sp, #4]
 3754 00e6 2321     		movs	r1, #35
 3755 00e8 D5F89C30 		ldr	r3, [r5, #156]
 3756 00ec 0093     		str	r3, [sp]
 3757 00ee 3723     		movs	r3, #55
 3758 00f0 FFF7FEFF 		bl	_ZN23OledDisplayExtravaganza9WaveIconsEiiiib
 3759              	.LVL246:
 124:Menus.cpp     ****         screen.WriteString(this->buff, Font_6x8, true);
 3760              		.loc 2 124 9 is_stmt 1 view .LVU964
 3761              	.LBB1255:
 3762              	.LBI1255:
 131:../../libdaisy/src/hid/disp/display.h ****     {
 3763              		.loc 5 131 10 view .LVU965
 3764              	.LBB1256:
 133:../../libdaisy/src/hid/disp/display.h ****         currentY_ = (y >= Height()) ? Height() - 1 : y;
 3765              		.loc 5 133 9 view .LVU966
 134:../../libdaisy/src/hid/disp/display.h ****     }
 3766              		.loc 5 134 9 view .LVU967
 133:../../libdaisy/src/hid/disp/display.h ****         currentY_ = (y >= Height()) ? Height() - 1 : y;
 3767              		.loc 5 133 19 is_stmt 0 view .LVU968
 3768 00f4 9D4B     		ldr	r3, .L401+20
 3769              	.LBE1256:
 3770              	.LBE1255:
 125:Menus.cpp     ****         screen.SetCursor(70, 50);
 3771              		.loc 2 125 27 view .LVU969
 3772 00f6 05F1A401 		add	r1, r5, #164
 3773 00fa 2046     		mov	r0, r4
 3774              	.LBB1258:
 3775              	.LBB1257:
 133:../../libdaisy/src/hid/disp/display.h ****         currentY_ = (y >= Height()) ? Height() - 1 : y;
 3776              		.loc 5 133 19 view .LVU970
 3777 00fc 6360     		str	r3, [r4, #4]
 3778              	.LVL247:
 133:../../libdaisy/src/hid/disp/display.h ****         currentY_ = (y >= Height()) ? Height() - 1 : y;
 3779              		.loc 5 133 19 view .LVU971
 3780              	.LBE1257:
 3781              	.LBE1258:
 125:Menus.cpp     ****         screen.SetCursor(70, 50);
 3782              		.loc 2 125 9 is_stmt 1 view .LVU972
 125:Menus.cpp     ****         screen.SetCursor(70, 50);
 3783              		.loc 2 125 27 is_stmt 0 view .LVU973
 3784 00fe CDF80090 		str	r9, [sp]
 3785 0102 98E80C00 		ldm	r8, {r2, r3}
 3786 0106 FFF7FEFF 		bl	_ZN5daisy25OneBitGraphicsDisplayImplINS_11OledDisplayINS_13SSD130xDriverILj128ELj64ENS_24SSD130
ARM GAS  C:\Users\VINCIU~1\AppData\Local\Temp\ccA1pwKF.s 			page 106


 3787              	.LVL248:
 126:Menus.cpp     ****         screen.WriteString(this->buffFine, Font_6x8, true);
 3788              		.loc 2 126 9 is_stmt 1 view .LVU974
 3789              	.LBB1259:
 3790              	.LBI1259:
 131:../../libdaisy/src/hid/disp/display.h ****     {
 3791              		.loc 5 131 10 view .LVU975
 3792              	.LBB1260:
 133:../../libdaisy/src/hid/disp/display.h ****         currentY_ = (y >= Height()) ? Height() - 1 : y;
 3793              		.loc 5 133 9 view .LVU976
 134:../../libdaisy/src/hid/disp/display.h ****     }
 3794              		.loc 5 134 9 view .LVU977
 133:../../libdaisy/src/hid/disp/display.h ****         currentY_ = (y >= Height()) ? Height() - 1 : y;
 3795              		.loc 5 133 19 is_stmt 0 view .LVU978
 3796 010a 994B     		ldr	r3, .L401+24
 3797              	.LBE1260:
 3798              	.LBE1259:
 127:Menus.cpp     ****     }
 3799              		.loc 2 127 27 view .LVU979
 3800 010c CDF80090 		str	r9, [sp]
 3801 0110 05F1D401 		add	r1, r5, #212
 3802              	.LBB1262:
 3803              	.LBB1261:
 133:../../libdaisy/src/hid/disp/display.h ****         currentY_ = (y >= Height()) ? Height() - 1 : y;
 3804              		.loc 5 133 19 view .LVU980
 3805 0114 6360     		str	r3, [r4, #4]
 3806              	.LVL249:
 133:../../libdaisy/src/hid/disp/display.h ****         currentY_ = (y >= Height()) ? Height() - 1 : y;
 3807              		.loc 5 133 19 view .LVU981
 3808              	.LBE1261:
 3809              	.LBE1262:
 127:Menus.cpp     ****     }
 3810              		.loc 2 127 9 is_stmt 1 view .LVU982
 127:Menus.cpp     ****     }
 3811              		.loc 2 127 27 is_stmt 0 view .LVU983
 3812 0116 2046     		mov	r0, r4
 3813 0118 98E80C00 		ldm	r8, {r2, r3}
 3814 011c FFF7FEFF 		bl	_ZN5daisy25OneBitGraphicsDisplayImplINS_11OledDisplayINS_13SSD130xDriverILj128ELj64ENS_24SSD130
 3815              	.LVL250:
 3816              	.L267:
 142:Menus.cpp     ****     screen.WriteString("Osc", Font_7x10, on);
 3817              		.loc 2 142 5 is_stmt 1 view .LVU984
 3818              	.LBB1263:
 3819              	.LBI1263:
 131:../../libdaisy/src/hid/disp/display.h ****     {
 3820              		.loc 5 131 10 view .LVU985
 3821              	.LBB1264:
 133:../../libdaisy/src/hid/disp/display.h ****         currentY_ = (y >= Height()) ? Height() - 1 : y;
 3822              		.loc 5 133 9 view .LVU986
 134:../../libdaisy/src/hid/disp/display.h ****     }
 3823              		.loc 5 134 9 view .LVU987
 133:../../libdaisy/src/hid/disp/display.h ****         currentY_ = (y >= Height()) ? Height() - 1 : y;
 3824              		.loc 5 133 19 is_stmt 0 view .LVU988
 3825 0120 944B     		ldr	r3, .L401+28
 3826              	.LBE1264:
 3827              	.LBE1263:
 143:Menus.cpp     **** 
ARM GAS  C:\Users\VINCIU~1\AppData\Local\Temp\ccA1pwKF.s 			page 107


 3828              		.loc 2 143 23 view .LVU989
 3829 0122 2046     		mov	r0, r4
 3830 0124 95F8BC21 		ldrb	r2, [r5, #444]	@ zero_extendqisi2
 3831              	.LBB1266:
 3832              	.LBB1265:
 133:../../libdaisy/src/hid/disp/display.h ****         currentY_ = (y >= Height()) ? Height() - 1 : y;
 3833              		.loc 5 133 19 view .LVU990
 3834 0128 6360     		str	r3, [r4, #4]
 3835              	.LVL251:
 133:../../libdaisy/src/hid/disp/display.h ****         currentY_ = (y >= Height()) ? Height() - 1 : y;
 3836              		.loc 5 133 19 view .LVU991
 3837              	.LBE1265:
 3838              	.LBE1266:
 143:Menus.cpp     **** 
 3839              		.loc 2 143 5 is_stmt 1 view .LVU992
 143:Menus.cpp     **** 
 3840              		.loc 2 143 23 is_stmt 0 view .LVU993
 3841 012a 934B     		ldr	r3, .L401+32
 3842 012c 0092     		str	r2, [sp]
 3843 012e 9349     		ldr	r1, .L401+36
 3844 0130 0CCB     		ldm	r3, {r2, r3}
 3845 0132 FFF7FEFF 		bl	_ZN5daisy25OneBitGraphicsDisplayImplINS_11OledDisplayINS_13SSD130xDriverILj128ELj64ENS_24SSD130
 3846              	.LVL252:
 146:Menus.cpp     ****     {
 3847              		.loc 2 146 5 is_stmt 1 view .LVU994
 3848              	.LBB1267:
 146:Menus.cpp     ****     {
 3849              		.loc 2 146 22 view .LVU995
 148:Menus.cpp     ****     }
 3850              		.loc 2 148 25 is_stmt 0 view .LVU996
 3851 0136 95F8BC01 		ldrb	r0, [r5, #444]	@ zero_extendqisi2
 3852 013a A446     		mov	ip, r4
 3853 013c 0023     		movs	r3, #0
 3854              	.LVL253:
 3855              	.L272:
 148:Menus.cpp     ****     }
 3856              		.loc 2 148 9 is_stmt 1 discriminator 2 view .LVU997
 3857              	.LBB1268:
 3858              	.LBI1268:
  41:../../libdaisy/src/hid/disp/oled_display.h ****     {
 3859              		.loc 1 41 10 discriminator 2 view .LVU998
 3860              	.LBB1269:
 3861              	.LBI1269:
 239:../../libdaisy/src/dev/oled_ssd130x.h ****     {
 3862              		.loc 6 239 10 discriminator 2 view .LVU999
 3863              	.LBB1270:
 241:../../libdaisy/src/dev/oled_ssd130x.h ****             return;
 3864              		.loc 6 241 9 is_stmt 0 discriminator 2 view .LVU1000
 3865 013e 7F2B     		cmp	r3, #127
 3866 0140 0DD8     		bhi	.L268
 3867              	.LVL254:
 3868              	.L378:
 3869              	.LBB1271:
 3870              	.LBI1271:
 239:../../libdaisy/src/dev/oled_ssd130x.h ****     {
 3871              		.loc 6 239 10 is_stmt 1 view .LVU1001
 239:../../libdaisy/src/dev/oled_ssd130x.h ****     {
ARM GAS  C:\Users\VINCIU~1\AppData\Local\Temp\ccA1pwKF.s 			page 108


 3872              		.loc 6 239 10 is_stmt 0 view .LVU1002
 3873              	.LBE1271:
 244:../../libdaisy/src/dev/oled_ssd130x.h ****         else
 3874              		.loc 6 244 42 view .LVU1003
 3875 0142 9CF89421 		ldrb	r2, [ip, #404]	@ zero_extendqisi2
 243:../../libdaisy/src/dev/oled_ssd130x.h ****             buffer_[x + (y / 8) * width] |= (1 << (y % 8));
 3876              		.loc 6 243 9 view .LVU1004
 3877 0146 0028     		cmp	r0, #0
 3878 0148 00F09B80 		beq	.L269
 244:../../libdaisy/src/dev/oled_ssd130x.h ****         else
 3879              		.loc 6 244 42 view .LVU1005
 3880 014c 42F02002 		orr	r2, r2, #32
 3881 0150 8CF89421 		strb	r2, [ip, #404]
 3882              	.L270:
 3883              	.LVL255:
 244:../../libdaisy/src/dev/oled_ssd130x.h ****         else
 3884              		.loc 6 244 42 view .LVU1006
 3885              	.LBE1270:
 3886              	.LBE1269:
 3887              	.LBE1268:
 146:Menus.cpp     ****     {
 3888              		.loc 2 146 5 is_stmt 1 view .LVU1007
 146:Menus.cpp     ****     {
 3889              		.loc 2 146 22 view .LVU1008
 3890 0154 0333     		adds	r3, r3, #3
 3891 0156 0CF1030C 		add	ip, ip, #3
 148:Menus.cpp     ****     }
 3892              		.loc 2 148 9 view .LVU1009
 3893              	.LVL256:
 3894              	.LBB1278:
  41:../../libdaisy/src/hid/disp/oled_display.h ****     {
 3895              		.loc 1 41 10 view .LVU1010
 3896              	.LBB1276:
 239:../../libdaisy/src/dev/oled_ssd130x.h ****     {
 3897              		.loc 6 239 10 view .LVU1011
 3898              	.LBB1274:
 241:../../libdaisy/src/dev/oled_ssd130x.h ****             return;
 3899              		.loc 6 241 9 is_stmt 0 view .LVU1012
 3900 015a 7F2B     		cmp	r3, #127
 3901 015c F1D9     		bls	.L378
 3902              	.LVL257:
 3903              	.L268:
 241:../../libdaisy/src/dev/oled_ssd130x.h ****             return;
 3904              		.loc 6 241 9 view .LVU1013
 3905              	.LBE1274:
 3906              	.LBE1276:
 3907              	.LBE1278:
 146:Menus.cpp     ****     {
 3908              		.loc 2 146 5 is_stmt 1 view .LVU1014
 146:Menus.cpp     ****     {
 3909              		.loc 2 146 22 view .LVU1015
 3910 015e 0333     		adds	r3, r3, #3
 3911 0160 0CF1030C 		add	ip, ip, #3
 3912 0164 B3F5C07F 		cmp	r3, #384
 3913 0168 E9D1     		bne	.L272
 3914 016a 0023     		movs	r3, #0
 3915              	.L271:
ARM GAS  C:\Users\VINCIU~1\AppData\Local\Temp\ccA1pwKF.s 			page 109


 3916              	.LBE1267:
 3917              	.LBB1280:
 152:Menus.cpp     ****     }
 3918              		.loc 2 152 9 discriminator 2 view .LVU1016
 3919              	.LVL258:
 3920              	.LBB1281:
 3921              	.LBI1281:
  41:../../libdaisy/src/hid/disp/oled_display.h ****     {
 3922              		.loc 1 41 10 discriminator 2 view .LVU1017
 3923              	.LBB1282:
 3924              	.LBI1282:
 239:../../libdaisy/src/dev/oled_ssd130x.h ****     {
 3925              		.loc 6 239 10 discriminator 2 view .LVU1018
 3926              	.LBB1283:
 241:../../libdaisy/src/dev/oled_ssd130x.h ****             return;
 3927              		.loc 6 241 9 is_stmt 0 discriminator 2 view .LVU1019
 3928 016c 3F2B     		cmp	r3, #63
 3929 016e 14D8     		bhi	.L273
 3930              	.LVL259:
 3931              	.L379:
 3932              	.LBB1284:
 3933              	.LBI1284:
 239:../../libdaisy/src/dev/oled_ssd130x.h ****     {
 3934              		.loc 6 239 10 is_stmt 1 view .LVU1020
 239:../../libdaisy/src/dev/oled_ssd130x.h ****     {
 3935              		.loc 6 239 10 is_stmt 0 view .LVU1021
 3936              	.LBE1284:
 244:../../libdaisy/src/dev/oled_ssd130x.h ****         else
 3937              		.loc 6 244 48 view .LVU1022
 3938 0170 0121     		movs	r1, #1
 244:../../libdaisy/src/dev/oled_ssd130x.h ****         else
 3939              		.loc 6 244 28 view .LVU1023
 3940 0172 4FEAD30C 		lsr	ip, r3, #3
 244:../../libdaisy/src/dev/oled_ssd130x.h ****         else
 3941              		.loc 6 244 54 view .LVU1024
 3942 0176 03F0070E 		and	lr, r3, #7
 3943              	.LBB1287:
 3944              	.LBB1285:
 246:../../libdaisy/src/dev/oled_ssd130x.h ****     }
 3945              		.loc 6 246 49 view .LVU1025
 3946 017a 8846     		mov	r8, r1
 3947              	.LBE1285:
 3948              	.LBE1287:
 244:../../libdaisy/src/dev/oled_ssd130x.h ****         else
 3949              		.loc 6 244 42 view .LVU1026
 3950 017c 04EBCC1C 		add	ip, r4, ip, lsl #7
 244:../../libdaisy/src/dev/oled_ssd130x.h ****         else
 3951              		.loc 6 244 48 view .LVU1027
 3952 0180 01FA0EF1 		lsl	r1, r1, lr
 243:../../libdaisy/src/dev/oled_ssd130x.h ****             buffer_[x + (y / 8) * width] |= (1 << (y % 8));
 3953              		.loc 6 243 9 view .LVU1028
 3954 0184 0028     		cmp	r0, #0
 3955 0186 00F08180 		beq	.L274
 244:../../libdaisy/src/dev/oled_ssd130x.h ****         else
 3956              		.loc 6 244 42 view .LVU1029
 3957 018a 9CF85020 		ldrb	r2, [ip, #80]	@ zero_extendqisi2
 3958 018e 1143     		orrs	r1, r1, r2
ARM GAS  C:\Users\VINCIU~1\AppData\Local\Temp\ccA1pwKF.s 			page 110


 3959 0190 8CF85010 		strb	r1, [ip, #80]
 3960              	.L275:
 3961              	.LVL260:
 244:../../libdaisy/src/dev/oled_ssd130x.h ****         else
 3962              		.loc 6 244 42 view .LVU1030
 3963              	.LBE1283:
 3964              	.LBE1282:
 3965              	.LBE1281:
 150:Menus.cpp     ****     {
 3966              		.loc 2 150 5 is_stmt 1 view .LVU1031
 150:Menus.cpp     ****     {
 3967              		.loc 2 150 22 view .LVU1032
 3968 0194 0233     		adds	r3, r3, #2
 152:Menus.cpp     ****     }
 3969              		.loc 2 152 9 view .LVU1033
 3970              	.LVL261:
 3971              	.LBB1293:
  41:../../libdaisy/src/hid/disp/oled_display.h ****     {
 3972              		.loc 1 41 10 view .LVU1034
 3973              	.LBB1291:
 239:../../libdaisy/src/dev/oled_ssd130x.h ****     {
 3974              		.loc 6 239 10 view .LVU1035
 3975              	.LBB1289:
 241:../../libdaisy/src/dev/oled_ssd130x.h ****             return;
 3976              		.loc 6 241 9 is_stmt 0 view .LVU1036
 3977 0196 3F2B     		cmp	r3, #63
 3978 0198 EAD9     		bls	.L379
 3979              	.LVL262:
 3980              	.L273:
 241:../../libdaisy/src/dev/oled_ssd130x.h ****             return;
 3981              		.loc 6 241 9 view .LVU1037
 3982              	.LBE1289:
 3983              	.LBE1291:
 3984              	.LBE1293:
 150:Menus.cpp     ****     {
 3985              		.loc 2 150 5 is_stmt 1 view .LVU1038
 150:Menus.cpp     ****     {
 3986              		.loc 2 150 22 view .LVU1039
 3987 019a 0233     		adds	r3, r3, #2
 3988 019c 802B     		cmp	r3, #128
 3989 019e E5D1     		bne	.L271
 3990 01a0 1E23     		movs	r3, #30
 3991              	.L276:
 3992              	.LBE1280:
 3993              	.LBB1295:
 156:Menus.cpp     ****     }
 3994              		.loc 2 156 9 discriminator 2 view .LVU1040
 3995              	.LVL263:
 3996              	.LBB1296:
 3997              	.LBI1296:
  41:../../libdaisy/src/hid/disp/oled_display.h ****     {
 3998              		.loc 1 41 10 discriminator 2 view .LVU1041
 3999              	.LBB1297:
 4000              	.LBI1297:
 239:../../libdaisy/src/dev/oled_ssd130x.h ****     {
 4001              		.loc 6 239 10 discriminator 2 view .LVU1042
 4002              	.LBB1298:
ARM GAS  C:\Users\VINCIU~1\AppData\Local\Temp\ccA1pwKF.s 			page 111


 241:../../libdaisy/src/dev/oled_ssd130x.h ****             return;
 4003              		.loc 6 241 9 is_stmt 0 discriminator 2 view .LVU1043
 4004 01a2 3F2B     		cmp	r3, #63
 4005 01a4 13D8     		bhi	.L277
 4006              	.LVL264:
 4007              	.L380:
 4008              	.LBB1299:
 4009              	.LBI1299:
 239:../../libdaisy/src/dev/oled_ssd130x.h ****     {
 4010              		.loc 6 239 10 is_stmt 1 view .LVU1044
 239:../../libdaisy/src/dev/oled_ssd130x.h ****     {
 4011              		.loc 6 239 10 is_stmt 0 view .LVU1045
 4012              	.LBE1299:
 244:../../libdaisy/src/dev/oled_ssd130x.h ****         else
 4013              		.loc 6 244 48 view .LVU1046
 4014 01a6 0122     		movs	r2, #1
 244:../../libdaisy/src/dev/oled_ssd130x.h ****         else
 4015              		.loc 6 244 28 view .LVU1047
 4016 01a8 4FEAD30C 		lsr	ip, r3, #3
 244:../../libdaisy/src/dev/oled_ssd130x.h ****         else
 4017              		.loc 6 244 54 view .LVU1048
 4018 01ac 03F0070E 		and	lr, r3, #7
 4019              	.LBB1302:
 4020              	.LBB1300:
 246:../../libdaisy/src/dev/oled_ssd130x.h ****     }
 4021              		.loc 6 246 49 view .LVU1049
 4022 01b0 9046     		mov	r8, r2
 4023              	.LBE1300:
 4024              	.LBE1302:
 244:../../libdaisy/src/dev/oled_ssd130x.h ****         else
 4025              		.loc 6 244 42 view .LVU1050
 4026 01b2 04EBCC1C 		add	ip, r4, ip, lsl #7
 244:../../libdaisy/src/dev/oled_ssd130x.h ****         else
 4027              		.loc 6 244 48 view .LVU1051
 4028 01b6 02FA0EF2 		lsl	r2, r2, lr
 243:../../libdaisy/src/dev/oled_ssd130x.h ****             buffer_[x + (y / 8) * width] |= (1 << (y % 8));
 4029              		.loc 6 243 9 view .LVU1052
 4030 01ba 0028     		cmp	r0, #0
 4031 01bc 6FD0     		beq	.L278
 244:../../libdaisy/src/dev/oled_ssd130x.h ****         else
 4032              		.loc 6 244 42 view .LVU1053
 4033 01be 9CF83110 		ldrb	r1, [ip, #49]	@ zero_extendqisi2
 4034 01c2 0A43     		orrs	r2, r2, r1
 4035 01c4 8CF83120 		strb	r2, [ip, #49]
 4036              	.L279:
 4037              	.LVL265:
 244:../../libdaisy/src/dev/oled_ssd130x.h ****         else
 4038              		.loc 6 244 42 view .LVU1054
 4039              	.LBE1298:
 4040              	.LBE1297:
 4041              	.LBE1296:
 154:Menus.cpp     ****     {
 4042              		.loc 2 154 5 is_stmt 1 view .LVU1055
 154:Menus.cpp     ****     {
 4043              		.loc 2 154 44 view .LVU1056
 4044 01c8 0233     		adds	r3, r3, #2
 156:Menus.cpp     ****     }
ARM GAS  C:\Users\VINCIU~1\AppData\Local\Temp\ccA1pwKF.s 			page 112


 4045              		.loc 2 156 9 view .LVU1057
 4046              	.LVL266:
 4047              	.LBB1308:
  41:../../libdaisy/src/hid/disp/oled_display.h ****     {
 4048              		.loc 1 41 10 view .LVU1058
 4049              	.LBB1306:
 239:../../libdaisy/src/dev/oled_ssd130x.h ****     {
 4050              		.loc 6 239 10 view .LVU1059
 4051              	.LBB1304:
 241:../../libdaisy/src/dev/oled_ssd130x.h ****             return;
 4052              		.loc 6 241 9 is_stmt 0 view .LVU1060
 4053 01ca 3F2B     		cmp	r3, #63
 4054 01cc EBD9     		bls	.L380
 4055              	.LVL267:
 4056              	.L277:
 241:../../libdaisy/src/dev/oled_ssd130x.h ****             return;
 4057              		.loc 6 241 9 view .LVU1061
 4058              	.LBE1304:
 4059              	.LBE1306:
 4060              	.LBE1308:
 154:Menus.cpp     ****     {
 4061              		.loc 2 154 5 is_stmt 1 view .LVU1062
 154:Menus.cpp     ****     {
 4062              		.loc 2 154 44 view .LVU1063
 4063 01ce 0233     		adds	r3, r3, #2
 4064 01d0 802B     		cmp	r3, #128
 4065 01d2 E6D1     		bne	.L276
 4066              	.LBE1295:
 159:Menus.cpp     ****     {
 4067              		.loc 2 159 5 view .LVU1064
 4068              	.LVL268:
 4069              	.LBB1310:
 4070              	.LBB1311:
 4071              	.LBI1311:
  42:../../libdaisy/src/hid/encoder.h ****     /** Returns true if the encoder was just pressed.
  43:../../libdaisy/src/hid/encoder.h **** */
  44:../../libdaisy/src/hid/encoder.h ****     inline bool RisingEdge() const { return sw_.RisingEdge(); }
 4072              		.loc 3 44 17 view .LVU1065
 4073              	.LBE1311:
 4074              	.LBE1310:
 4075              		.loc 3 44 38 view .LVU1066
 4076              	.LBB1579:
 4077              	.LBB1314:
 4078              	.LBB1312:
 4079              	.LBI1312:
 4080              		.loc 4 69 17 view .LVU1067
 4081              	.LBB1313:
 4082              		.loc 4 69 38 view .LVU1068
 4083              		.loc 4 69 38 is_stmt 0 view .LVU1069
 4084              	.LBE1313:
 4085              	.LBE1312:
 4086              	.LBE1314:
 159:Menus.cpp     ****     {
 4087              		.loc 2 159 5 view .LVU1070
 4088 01d4 6B7C     		ldrb	r3, [r5, #17]	@ zero_extendqisi2
 4089 01d6 7F2B     		cmp	r3, #127
 4090 01d8 00F09E81 		beq	.L381
ARM GAS  C:\Users\VINCIU~1\AppData\Local\Temp\ccA1pwKF.s 			page 113


 4091              	.LBE1579:
 164:Menus.cpp     ****     {
 4092              		.loc 2 164 10 is_stmt 1 view .LVU1071
 4093              	.LBB1580:
 4094              	.LBB1315:
 164:Menus.cpp     ****     {
 4095              		.loc 2 164 13 is_stmt 0 view .LVU1072
 4096 01dc EB6E     		ldr	r3, [r5, #108]
 164:Menus.cpp     ****     {
 4097              		.loc 2 164 10 view .LVU1073
 4098 01de 002B     		cmp	r3, #0
 4099 01e0 00F0DA80 		beq	.L382
 4100              	.LBE1315:
 4101              	.LBE1580:
 217:Menus.cpp     ****     {
 4102              		.loc 2 217 10 is_stmt 1 view .LVU1074
 4103              	.LBB1581:
 4104              	.LBB1558:
 4105              	.LBB1316:
 4106 01e4 012B     		cmp	r3, #1
 4107 01e6 00F07282 		beq	.L383
 4108              	.LBE1316:
 4109              	.LBE1558:
 4110              	.LBE1581:
 250:Menus.cpp     ****     {
 4111              		.loc 2 250 10 view .LVU1075
 4112              	.LBB1582:
 4113              	.LBB1559:
 4114              	.LBB1418:
 4115              	.LBB1317:
 4116 01ea 022B     		cmp	r3, #2
 4117 01ec 00F02582 		beq	.L384
 359:Menus.cpp     ****     {
 4118              		.loc 2 359 10 view .LVU1076
 4119 01f0 032B     		cmp	r3, #3
 4120 01f2 40F09981 		bne	.L282
 367:Menus.cpp     ****         {
 4121              		.loc 2 367 9 view .LVU1077
 4122 01f6 95F87430 		ldrb	r3, [r5, #116]	@ zero_extendqisi2
 369:Menus.cpp     ****             {
 4123              		.loc 2 369 13 is_stmt 0 view .LVU1078
 4124 01fa B7EE007A 		vmov.f32	s14, #1.0e+0
 367:Menus.cpp     ****         {
 4125              		.loc 2 367 9 view .LVU1079
 4126 01fe 002B     		cmp	r3, #0
 4127 0200 00F0BB82 		beq	.L331
 369:Menus.cpp     ****             {
 4128              		.loc 2 369 13 is_stmt 1 view .LVU1080
 369:Menus.cpp     ****             {
 4129              		.loc 2 369 22 is_stmt 0 view .LVU1081
 4130 0204 D5ED5D7A 		vldr.32	s15, [r5, #372]
 369:Menus.cpp     ****             {
 4131              		.loc 2 369 13 view .LVU1082
 4132 0208 F4EEC77A 		vcmpe.f32	s15, s14
 4133 020c F1EE10FA 		vmrs	APSR_nzcv, FPSCR
 4134 0210 C0F20183 		blt	.L385
 4135 0214 F0EE477A 		vmov.f32	s15, s14
ARM GAS  C:\Users\VINCIU~1\AppData\Local\Temp\ccA1pwKF.s 			page 114


 4136              	.L332:
 377:Menus.cpp     ****             {
 4137              		.loc 2 377 13 is_stmt 1 view .LVU1083
 4138 0218 F7EE006A 		vmov.f32	s13, #1.0e+0
 377:Menus.cpp     ****             {
 4139              		.loc 2 377 22 is_stmt 0 view .LVU1084
 4140 021c 95ED1F7A 		vldr.32	s14, [r5, #124]
 377:Menus.cpp     ****             {
 4141              		.loc 2 377 13 view .LVU1085
 4142 0220 B4EEE67A 		vcmpe.f32	s14, s13
 4143 0224 F1EE10FA 		vmrs	APSR_nzcv, FPSCR
 4144 0228 C0F2EC82 		blt	.L386
 4145 022c B0EE667A 		vmov.f32	s14, s13
 4146              	.L333:
 386:Menus.cpp     ****             this->drawSliderFine
 4147              		.loc 2 386 13 is_stmt 1 view .LVU1086
 4148              	.LVL269:
 4149              	.LBB1318:
 4150              	.LBI1318:
  41:../../libdaisy/src/hid/encoder.h ****     /** Returns true if the encoder was just pressed.
 4151              		.loc 3 41 20 view .LVU1087
 4152              	.LBB1319:
  41:../../libdaisy/src/hid/encoder.h ****     /** Returns true if the encoder was just pressed.
 4153              		.loc 3 41 40 view .LVU1088
  41:../../libdaisy/src/hid/encoder.h ****     /** Returns true if the encoder was just pressed.
 4154              		.loc 3 41 40 is_stmt 0 view .LVU1089
 4155              	.LBE1319:
 4156              	.LBE1318:
 386:Menus.cpp     ****             this->drawSliderFine
 4157              		.loc 2 386 33 view .LVU1090
 4158 0230 D5ED126A 		vldr.32	s13, [r5, #72]	@ int
 389:Menus.cpp     ****         }
 4159              		.loc 2 389 20 view .LVU1091
 4160 0234 05F1D400 		add	r0, r5, #212
 386:Menus.cpp     ****             this->drawSliderFine
 4161              		.loc 2 386 28 view .LVU1092
 4162 0238 DFED555A 		vldr.32	s11, .L401+56
 386:Menus.cpp     ****             this->drawSliderFine
 4163              		.loc 2 386 33 view .LVU1093
 4164 023c F8EEE66A 		vcvt.f32.s32	s13, s13
 389:Menus.cpp     ****         }
 4165              		.loc 2 389 65 view .LVU1094
 4166 0240 9FED4F6A 		vldr.32	s12, .L401+40
 389:Menus.cpp     ****         }
 4167              		.loc 2 389 20 view .LVU1095
 4168 0244 4F49     		ldr	r1, .L401+44
 386:Menus.cpp     ****             this->drawSliderFine
 4169              		.loc 2 386 28 view .LVU1096
 4170 0246 E6EEA57A 		vfma.f32	s15, s13, s11
 388:Menus.cpp     ****             sprintf(this->buffFine, "Fine_%d%%", (int)(freqFine * 100));
 4171              		.loc 2 388 17 view .LVU1097
 4172 024a A6EEA57A 		vfma.f32	s14, s13, s11
 389:Menus.cpp     ****         }
 4173              		.loc 2 389 65 view .LVU1098
 4174 024e 67EE866A 		vmul.f32	s13, s15, s12
 386:Menus.cpp     ****             this->drawSliderFine
 4175              		.loc 2 386 28 view .LVU1099
ARM GAS  C:\Users\VINCIU~1\AppData\Local\Temp\ccA1pwKF.s 			page 115


 4176 0252 C5ED5D7A 		vstr.32	s15, [r5, #372]
 387:Menus.cpp     ****                 += (((float)this->encoderRight.Increment()) / 32);
 4177              		.loc 2 387 13 is_stmt 1 view .LVU1100
 4178              	.LVL270:
 387:Menus.cpp     ****                 += (((float)this->encoderRight.Increment()) / 32);
 4179              		.loc 2 387 13 is_stmt 0 view .LVU1101
 4180              	.LBE1317:
 4181              	.LBE1418:
 4182              	.LBE1559:
 4183              	.LBE1582:
  41:../../libdaisy/src/hid/encoder.h ****     /** Returns true if the encoder was just pressed.
 4184              		.loc 3 41 40 is_stmt 1 view .LVU1102
 4185              	.LBB1583:
 4186              	.LBB1560:
 4187              	.LBB1419:
 4188              	.LBB1402:
 388:Menus.cpp     ****             sprintf(this->buffFine, "Fine_%d%%", (int)(freqFine * 100));
 4189              		.loc 2 388 17 is_stmt 0 view .LVU1103
 4190 0256 85ED1F7A 		vstr.32	s14, [r5, #124]
 389:Menus.cpp     ****         }
 4191              		.loc 2 389 13 is_stmt 1 view .LVU1104
 389:Menus.cpp     ****         }
 4192              		.loc 2 389 20 is_stmt 0 view .LVU1105
 4193 025a FDEEE67A 		vcvt.s32.f32	s15, s13
 4194 025e 17EE902A 		vmov	r2, s15	@ int
 4195 0262 FFF7FEFF 		bl	sprintf
 4196              	.LVL271:
 4197              	.L334:
 416:Menus.cpp     ****                         screen.Height() / 2 - 3,
 4198              		.loc 2 416 9 is_stmt 1 view .LVU1106
 416:Menus.cpp     ****                         screen.Height() / 2 - 3,
 4199              		.loc 2 416 24 is_stmt 0 view .LVU1107
 4200 0266 95F8BC31 		ldrb	r3, [r5, #444]	@ zero_extendqisi2
 4201 026a 0022     		movs	r2, #0
 4202 026c 3F21     		movs	r1, #63
 4203 026e 2046     		mov	r0, r4
 4204 0270 CDE90132 		strd	r3, r2, [sp, #4]
 4205 0274 0091     		str	r1, [sp]
 4206 0276 7F23     		movs	r3, #127
 4207 0278 1D22     		movs	r2, #29
 4208 027a 3C21     		movs	r1, #60
 4209 027c FFF7FEFF 		bl	_ZN5daisy25OneBitGraphicsDisplayImplINS_11OledDisplayINS_13SSD130xDriverILj128ELj64ENS_24SSD130
 4210              	.LVL272:
 4211 0280 52E1     		b	.L282
 4212              	.LVL273:
 4213              	.L269:
 416:Menus.cpp     ****                         screen.Height() / 2 - 3,
 4214              		.loc 2 416 24 view .LVU1108
 4215              	.LBE1402:
 4216              	.LBE1419:
 4217              	.LBE1560:
 4218              	.LBE1583:
 4219              	.LBB1584:
 4220              	.LBB1279:
 4221              	.LBB1277:
 4222              	.LBB1275:
 4223              	.LBB1273:
ARM GAS  C:\Users\VINCIU~1\AppData\Local\Temp\ccA1pwKF.s 			page 116


 4224              	.LBB1272:
 246:../../libdaisy/src/dev/oled_ssd130x.h ****     }
 4225              		.loc 6 246 42 view .LVU1109
 4226 0282 22F02002 		bic	r2, r2, #32
 4227 0286 8CF89421 		strb	r2, [ip, #404]
 4228 028a 63E7     		b	.L270
 4229              	.LVL274:
 4230              	.L274:
 246:../../libdaisy/src/dev/oled_ssd130x.h ****     }
 4231              		.loc 6 246 42 view .LVU1110
 4232              	.LBE1272:
 4233              	.LBE1273:
 4234              	.LBE1275:
 4235              	.LBE1277:
 4236              	.LBE1279:
 4237              	.LBE1584:
 4238              	.LBB1585:
 4239              	.LBB1294:
 4240              	.LBB1292:
 4241              	.LBB1290:
 4242              	.LBB1288:
 4243              	.LBB1286:
 4244 028c 9CF85010 		ldrb	r1, [ip, #80]	@ zero_extendqisi2
 246:../../libdaisy/src/dev/oled_ssd130x.h ****     }
 4245              		.loc 6 246 49 view .LVU1111
 4246 0290 08FA0EF8 		lsl	r8, r8, lr
 246:../../libdaisy/src/dev/oled_ssd130x.h ****     }
 4247              		.loc 6 246 42 view .LVU1112
 4248 0294 21EA0808 		bic	r8, r1, r8
 4249 0298 8CF85080 		strb	r8, [ip, #80]
 4250 029c 7AE7     		b	.L275
 4251              	.LVL275:
 4252              	.L278:
 246:../../libdaisy/src/dev/oled_ssd130x.h ****     }
 4253              		.loc 6 246 42 view .LVU1113
 4254              	.LBE1286:
 4255              	.LBE1288:
 4256              	.LBE1290:
 4257              	.LBE1292:
 4258              	.LBE1294:
 4259              	.LBE1585:
 4260              	.LBB1586:
 4261              	.LBB1309:
 4262              	.LBB1307:
 4263              	.LBB1305:
 4264              	.LBB1303:
 4265              	.LBB1301:
 4266 029e 9CF83120 		ldrb	r2, [ip, #49]	@ zero_extendqisi2
 246:../../libdaisy/src/dev/oled_ssd130x.h ****     }
 4267              		.loc 6 246 49 view .LVU1114
 4268 02a2 08FA0EF8 		lsl	r8, r8, lr
 246:../../libdaisy/src/dev/oled_ssd130x.h ****     }
 4269              		.loc 6 246 42 view .LVU1115
 4270 02a6 22EA0808 		bic	r8, r2, r8
 4271 02aa 8CF83180 		strb	r8, [ip, #49]
 4272 02ae 8BE7     		b	.L279
 4273              	.LVL276:
ARM GAS  C:\Users\VINCIU~1\AppData\Local\Temp\ccA1pwKF.s 			page 117


 4274              	.L266:
 246:../../libdaisy/src/dev/oled_ssd130x.h ****     }
 4275              		.loc 6 246 42 view .LVU1116
 4276              	.LBE1301:
 4277              	.LBE1303:
 4278              	.LBE1305:
 4279              	.LBE1307:
 4280              	.LBE1309:
 4281              	.LBE1586:
 131:Menus.cpp     ****         screen.drawSlider(70, 40, 50, 3, false, drawSliderFine2);
 4282              		.loc 2 131 9 is_stmt 1 view .LVU1117
 131:Menus.cpp     ****         screen.drawSlider(70, 40, 50, 3, false, drawSliderFine2);
 4283              		.loc 2 131 26 is_stmt 0 view .LVU1118
 4284 02b0 D5ED202A 		vldr.32	s5, [r5, #128]
 4285 02b4 2046     		mov	r0, r4
 4286 02b6 9FED378A 		vldr.32	s16, .L401+60
 4287 02ba F0EE081A 		vmov.f32	s3, #3.0e+0
 4288 02be F1EE0C0A 		vmov.f32	s1, #7.0e+0
 4289 02c2 9FED322A 		vldr.32	s4, .L401+52
 4290 02c6 C2EE882A 		vdiv.f32	s5, s5, s16
 4291 02ca 9FED251A 		vldr.32	s2, .L401+8
 4292 02ce 9FED250A 		vldr.32	s0, .L401+12
 4293 02d2 FFF7FEFF 		bl	_ZN23OledDisplayExtravaganza10drawSliderEffffff
 4294              	.LVL277:
 132:Menus.cpp     ****         screen.drawVerticalToggle(13, 51, 8, false, this->toggleOsc2, "");
 4295              		.loc 2 132 9 is_stmt 1 view .LVU1119
 132:Menus.cpp     ****         screen.drawVerticalToggle(13, 51, 8, false, this->toggleOsc2, "");
 4296              		.loc 2 132 26 is_stmt 0 view .LVU1120
 4297 02d6 D5ED212A 		vldr.32	s5, [r5, #132]
 4298 02da 9FED2C2A 		vldr.32	s4, .L401+52
 4299 02de 2046     		mov	r0, r4
 4300 02e0 9FED1F1A 		vldr.32	s2, .L401+8
 4301 02e4 F0EE081A 		vmov.f32	s3, #3.0e+0
 4302 02e8 9FED1E0A 		vldr.32	s0, .L401+12
 4303 02ec F0EE480A 		vmov.f32	s1, s16
 136:Menus.cpp     ****         screen.SetCursor(70, 50);
 4304              		.loc 2 136 27 view .LVU1121
 4305 02f0 DFF89490 		ldr	r9, .L401+48
 132:Menus.cpp     ****         screen.drawVerticalToggle(13, 51, 8, false, this->toggleOsc2, "");
 4306              		.loc 2 132 26 view .LVU1122
 4307 02f4 FFF7FEFF 		bl	_ZN23OledDisplayExtravaganza10drawSliderEffffff
 4308              	.LVL278:
 133:Menus.cpp     ****         screen.WaveIcons(35, 42, 55, this->selectedWave2, false);
 4309              		.loc 2 133 9 is_stmt 1 view .LVU1123
 133:Menus.cpp     ****         screen.WaveIcons(35, 42, 55, this->selectedWave2, false);
 4310              		.loc 2 133 34 is_stmt 0 view .LVU1124
 4311 02f8 B2EE001A 		vmov.f32	s2, #8.0e+0
 4312 02fc B2EE0A0A 		vmov.f32	s0, #1.3e+1
 4313 0300 DFED190A 		vldr.32	s1, .L401+16
 4314 0304 95F89920 		ldrb	r2, [r5, #153]	@ zero_extendqisi2
 4315 0308 4146     		mov	r1, r8
 4316 030a 2046     		mov	r0, r4
 4317 030c 134B     		ldr	r3, .L401+4
 4318 030e FFF7FEFF 		bl	_ZN23OledDisplayExtravaganza18drawVerticalToggleEfffbbPKc
 4319              	.LVL279:
 134:Menus.cpp     ****         screen.SetCursor(70, 17);
 4320              		.loc 2 134 9 is_stmt 1 view .LVU1125
ARM GAS  C:\Users\VINCIU~1\AppData\Local\Temp\ccA1pwKF.s 			page 118


 134:Menus.cpp     ****         screen.SetCursor(70, 17);
 4321              		.loc 2 134 25 is_stmt 0 view .LVU1126
 4322 0312 CDF80480 		str	r8, [sp, #4]
 4323 0316 D5F8A030 		ldr	r3, [r5, #160]
 4324 031a 2046     		mov	r0, r4
 4325 031c 2A22     		movs	r2, #42
 4326 031e 2321     		movs	r1, #35
 4327 0320 0093     		str	r3, [sp]
 4328 0322 3723     		movs	r3, #55
 4329 0324 FFF7FEFF 		bl	_ZN23OledDisplayExtravaganza9WaveIconsEiiiib
 4330              	.LVL280:
 135:Menus.cpp     ****         screen.WriteString(this->buff2, Font_6x8, false);
 4331              		.loc 2 135 9 is_stmt 1 view .LVU1127
 4332              	.LBB1587:
 4333              	.LBI1587:
 131:../../libdaisy/src/hid/disp/display.h ****     {
 4334              		.loc 5 131 10 view .LVU1128
 4335              	.LBB1588:
 133:../../libdaisy/src/hid/disp/display.h ****         currentY_ = (y >= Height()) ? Height() - 1 : y;
 4336              		.loc 5 133 9 view .LVU1129
 134:../../libdaisy/src/hid/disp/display.h ****     }
 4337              		.loc 5 134 9 view .LVU1130
 133:../../libdaisy/src/hid/disp/display.h ****         currentY_ = (y >= Height()) ? Height() - 1 : y;
 4338              		.loc 5 133 19 is_stmt 0 view .LVU1131
 4339 0328 104B     		ldr	r3, .L401+20
 4340              	.LBE1588:
 4341              	.LBE1587:
 136:Menus.cpp     ****         screen.SetCursor(70, 50);
 4342              		.loc 2 136 27 view .LVU1132
 4343 032a CDF80080 		str	r8, [sp]
 4344 032e 05F1BC01 		add	r1, r5, #188
 4345              	.LBB1590:
 4346              	.LBB1589:
 133:../../libdaisy/src/hid/disp/display.h ****         currentY_ = (y >= Height()) ? Height() - 1 : y;
 4347              		.loc 5 133 19 view .LVU1133
 4348 0332 6360     		str	r3, [r4, #4]
 4349              	.LVL281:
 133:../../libdaisy/src/hid/disp/display.h ****         currentY_ = (y >= Height()) ? Height() - 1 : y;
 4350              		.loc 5 133 19 view .LVU1134
 4351              	.LBE1589:
 4352              	.LBE1590:
 136:Menus.cpp     ****         screen.SetCursor(70, 50);
 4353              		.loc 2 136 9 is_stmt 1 view .LVU1135
 136:Menus.cpp     ****         screen.SetCursor(70, 50);
 4354              		.loc 2 136 27 is_stmt 0 view .LVU1136
 4355 0334 2046     		mov	r0, r4
 4356 0336 99E80C00 		ldm	r9, {r2, r3}
 4357 033a FFF7FEFF 		bl	_ZN5daisy25OneBitGraphicsDisplayImplINS_11OledDisplayINS_13SSD130xDriverILj128ELj64ENS_24SSD130
 4358              	.LVL282:
 137:Menus.cpp     ****         screen.WriteString(this->buffFine2, Font_6x8, false);
 4359              		.loc 2 137 9 is_stmt 1 view .LVU1137
 4360              	.LBB1591:
 4361              	.LBI1591:
 131:../../libdaisy/src/hid/disp/display.h ****     {
 4362              		.loc 5 131 10 view .LVU1138
 4363              	.LBB1592:
 133:../../libdaisy/src/hid/disp/display.h ****         currentY_ = (y >= Height()) ? Height() - 1 : y;
ARM GAS  C:\Users\VINCIU~1\AppData\Local\Temp\ccA1pwKF.s 			page 119


 4364              		.loc 5 133 9 view .LVU1139
 134:../../libdaisy/src/hid/disp/display.h ****     }
 4365              		.loc 5 134 9 view .LVU1140
 133:../../libdaisy/src/hid/disp/display.h ****         currentY_ = (y >= Height()) ? Height() - 1 : y;
 4366              		.loc 5 133 19 is_stmt 0 view .LVU1141
 4367 033e 0C4B     		ldr	r3, .L401+24
 4368              	.LBE1592:
 4369              	.LBE1591:
 138:Menus.cpp     ****     }
 4370              		.loc 2 138 27 view .LVU1142
 4371 0340 CDF80080 		str	r8, [sp]
 4372 0344 05F1EC01 		add	r1, r5, #236
 4373              	.LBB1594:
 4374              	.LBB1593:
 133:../../libdaisy/src/hid/disp/display.h ****         currentY_ = (y >= Height()) ? Height() - 1 : y;
 4375              		.loc 5 133 19 view .LVU1143
 4376 0348 6360     		str	r3, [r4, #4]
 4377              	.LVL283:
 133:../../libdaisy/src/hid/disp/display.h ****         currentY_ = (y >= Height()) ? Height() - 1 : y;
 4378              		.loc 5 133 19 view .LVU1144
 4379              	.LBE1593:
 4380              	.LBE1594:
 138:Menus.cpp     ****     }
 4381              		.loc 2 138 9 is_stmt 1 view .LVU1145
 138:Menus.cpp     ****     }
 4382              		.loc 2 138 27 is_stmt 0 view .LVU1146
 4383 034a 2046     		mov	r0, r4
 4384 034c 99E80C00 		ldm	r9, {r2, r3}
 4385 0350 FFF7FEFF 		bl	_ZN5daisy25OneBitGraphicsDisplayImplINS_11OledDisplayINS_13SSD130xDriverILj128ELj64ENS_24SSD130
 4386              	.LVL284:
 4387 0354 E4E6     		b	.L267
 4388              	.L402:
 4389 0356 00BF     		.align	2
 4390              	.L401:
 4391 0358 00003842 		.word	1110966272
 4392 035c 00000000 		.word	.LC3
 4393 0360 00004842 		.word	1112014848
 4394 0364 00008C42 		.word	1116471296
 4395 0368 00004C42 		.word	1112276992
 4396 036c 46001100 		.word	1114182
 4397 0370 46003200 		.word	3276870
 4398 0374 04000800 		.word	524292
 4399 0378 00000000 		.word	Font_7x10
 4400 037c 04000000 		.word	.LC4
 4401 0380 0000C842 		.word	1120403456
 4402 0384 14000000 		.word	.LC6
 4403 0388 00000000 		.word	Font_6x8
 4404 038c 00000000 		.word	0
 4405 0390 0000003D 		.word	1023410176
 4406 0394 00002042 		.word	1109393408
 4407              	.L382:
 4408              	.LBB1595:
 4409              	.LBB1561:
 166:Menus.cpp     ****         {
 4410              		.loc 2 166 9 is_stmt 1 view .LVU1147
 4411 0398 95F87430 		ldrb	r3, [r5, #116]	@ zero_extendqisi2
 4412 039c 002B     		cmp	r3, #0
ARM GAS  C:\Users\VINCIU~1\AppData\Local\Temp\ccA1pwKF.s 			page 120


 4413 039e 40F01781 		bne	.L387
 191:Menus.cpp     ****             {
 4414              		.loc 2 191 13 view .LVU1148
 191:Menus.cpp     ****             {
 4415              		.loc 2 191 22 is_stmt 0 view .LVU1149
 4416 03a2 D5F86831 		ldr	r3, [r5, #360]
 191:Menus.cpp     ****             {
 4417              		.loc 2 191 13 view .LVU1150
 4418 03a6 202B     		cmp	r3, #32
 4419 03a8 00F3A281 		bgt	.L345
 195:Menus.cpp     ****             {
 4420              		.loc 2 195 13 is_stmt 1 view .LVU1151
 4421 03ac 002B     		cmp	r3, #0
 4422 03ae 80F21482 		bge	.L388
 4423 03b2 5FED0A7A 		vldr.32	s15, .L401+52
 4424              	.L287:
 199:Menus.cpp     ****             {
 4425              		.loc 2 199 13 view .LVU1152
 199:Menus.cpp     ****             {
 4426              		.loc 2 199 22 is_stmt 0 view .LVU1153
 4427 03b6 95ED207A 		vldr.32	s14, [r5, #128]
 199:Menus.cpp     ****             {
 4428              		.loc 2 199 13 view .LVU1154
 4429 03ba 5FED0A6A 		vldr.32	s13, .L401+60
 4430 03be B4EEE67A 		vcmpe.f32	s14, s13
 4431 03c2 F1EE10FA 		vmrs	APSR_nzcv, FPSCR
 4432 03c6 80F29081 		bge	.L347
 203:Menus.cpp     ****             {
 4433              		.loc 2 203 13 is_stmt 1 view .LVU1155
 4434 03ca B5EEC07A 		vcmpe.f32	s14, #0
 4435 03ce F1EE10FA 		vmrs	APSR_nzcv, FPSCR
 4436 03d2 01D5     		bpl	.L288
 4437 03d4 1FED137A 		vldr.32	s14, .L401+52
 4438              	.L288:
 207:Menus.cpp     ****             this->drawSliderSemi2
 4439              		.loc 2 207 13 view .LVU1156
 4440              	.LVL285:
 4441              	.LBB1420:
 4442              	.LBI1420:
  41:../../libdaisy/src/hid/encoder.h ****     /** Returns true if the encoder was just pressed.
 4443              		.loc 3 41 20 view .LVU1157
 4444              	.LBB1421:
  41:../../libdaisy/src/hid/encoder.h ****     /** Returns true if the encoder was just pressed.
 4445              		.loc 3 41 40 view .LVU1158
  41:../../libdaisy/src/hid/encoder.h ****     /** Returns true if the encoder was just pressed.
 4446              		.loc 3 41 40 is_stmt 0 view .LVU1159
 4447              	.LBE1421:
 4448              	.LBE1420:
 207:Menus.cpp     ****             this->drawSliderSemi2
 4449              		.loc 2 207 35 view .LVU1160
 4450 03d8 D5ED126A 		vldr.32	s13, [r5, #72]	@ int
 210:Menus.cpp     ****         }
 4451              		.loc 2 210 20 view .LVU1161
 4452 03dc 05F1BC00 		add	r0, r5, #188
 209:Menus.cpp     ****             sprintf(this->buff2, "Semi_%dst", this->noteSemiAdd2);
 4453              		.loc 2 209 61 view .LVU1162
 4454 03e0 1FED156A 		vldr.32	s12, .L401+56
ARM GAS  C:\Users\VINCIU~1\AppData\Local\Temp\ccA1pwKF.s 			page 121


 207:Menus.cpp     ****             this->drawSliderSemi2
 4455              		.loc 2 207 35 view .LVU1163
 4456 03e4 F8EEE66A 		vcvt.f32.s32	s13, s13
 209:Menus.cpp     ****             sprintf(this->buff2, "Semi_%dst", this->noteSemiAdd2);
 4457              		.loc 2 209 17 view .LVU1164
 4458 03e8 5FED165A 		vldr.32	s11, .L401+60
 210:Menus.cpp     ****         }
 4459              		.loc 2 210 20 view .LVU1165
 4460 03ec C349     		ldr	r1, .L403
 209:Menus.cpp     ****             sprintf(this->buff2, "Semi_%dst", this->noteSemiAdd2);
 4461              		.loc 2 209 61 view .LVU1166
 4462 03ee 26EE866A 		vmul.f32	s12, s13, s12
 207:Menus.cpp     ****             this->drawSliderSemi2
 4463              		.loc 2 207 32 view .LVU1167
 4464 03f2 77EEA67A 		vadd.f32	s15, s15, s13
 209:Menus.cpp     ****             sprintf(this->buff2, "Semi_%dst", this->noteSemiAdd2);
 4465              		.loc 2 209 17 view .LVU1168
 4466 03f6 A6EE257A 		vfma.f32	s14, s12, s11
 207:Menus.cpp     ****             this->drawSliderSemi2
 4467              		.loc 2 207 32 view .LVU1169
 4468 03fa FDEEE77A 		vcvt.s32.f32	s15, s15
 4469 03fe 17EE902A 		vmov	r2, s15	@ int
 4470 0402 C5ED5A7A 		vstr.32	s15, [r5, #360]	@ int
 208:Menus.cpp     ****                 += (((float)this->encoderRight.Increment()) / 32) * 40;
 4471              		.loc 2 208 13 is_stmt 1 view .LVU1170
 4472              	.LVL286:
 208:Menus.cpp     ****                 += (((float)this->encoderRight.Increment()) / 32) * 40;
 4473              		.loc 2 208 13 is_stmt 0 view .LVU1171
 4474              	.LBE1561:
 4475              	.LBE1595:
  41:../../libdaisy/src/hid/encoder.h ****     /** Returns true if the encoder was just pressed.
 4476              		.loc 3 41 40 is_stmt 1 view .LVU1172
 4477              	.LBB1596:
 4478              	.LBB1562:
 209:Menus.cpp     ****             sprintf(this->buff2, "Semi_%dst", this->noteSemiAdd2);
 4479              		.loc 2 209 17 is_stmt 0 view .LVU1173
 4480 0406 85ED207A 		vstr.32	s14, [r5, #128]
 210:Menus.cpp     ****         }
 4481              		.loc 2 210 13 is_stmt 1 view .LVU1174
 210:Menus.cpp     ****         }
 4482              		.loc 2 210 20 is_stmt 0 view .LVU1175
 4483 040a FFF7FEFF 		bl	sprintf
 4484              	.LVL287:
 214:Menus.cpp     ****             60, 0, screen.Width() - 1, screen.Height() / 2 - 3, on, false);
 4485              		.loc 2 214 9 is_stmt 1 view .LVU1176
 214:Menus.cpp     ****             60, 0, screen.Width() - 1, screen.Height() / 2 - 3, on, false);
 4486              		.loc 2 214 24 is_stmt 0 view .LVU1177
 4487 040e 95F8BC01 		ldrb	r0, [r5, #444]	@ zero_extendqisi2
 4488              	.LVL288:
 4489              	.LBB1422:
 4490              	.LBI1422:
 217:../../libdaisy/src/hid/disp/display.h ****                   uint_fast8_t y1,
 4491              		.loc 5 217 10 is_stmt 1 view .LVU1178
 4492              	.LBB1423:
 4493              	.LBI1423:
 181:../../libdaisy/src/hid/disp/display.h ****                   uint_fast8_t y1,
 4494              		.loc 5 181 10 view .LVU1179
ARM GAS  C:\Users\VINCIU~1\AppData\Local\Temp\ccA1pwKF.s 			page 122


 4495              	.LBB1424:
 4496              	.LBB1425:
 4497              	.LBI1425:
  41:../../libdaisy/src/hid/disp/oled_display.h ****     {
 4498              		.loc 1 41 10 view .LVU1180
 4499              	.LBB1426:
 4500              	.LBI1426:
 239:../../libdaisy/src/dev/oled_ssd130x.h ****     {
 4501              		.loc 6 239 10 view .LVU1181
 4502              	.LBB1427:
 244:../../libdaisy/src/dev/oled_ssd130x.h ****         else
 4503              		.loc 6 244 42 is_stmt 0 view .LVU1182
 4504 0412 94F89320 		ldrb	r2, [r4, #147]	@ zero_extendqisi2
 243:../../libdaisy/src/dev/oled_ssd130x.h ****             buffer_[x + (y / 8) * width] |= (1 << (y % 8));
 4505              		.loc 6 243 9 view .LVU1183
 4506 0416 0028     		cmp	r0, #0
 4507 0418 00F00C81 		beq	.L289
 4508              	.LVL289:
 4509              	.L396:
 244:../../libdaisy/src/dev/oled_ssd130x.h ****         else
 4510              		.loc 6 244 42 view .LVU1184
 4511 041c 42F00102 		orr	r2, r2, #1
 4512              	.L290:
 244:../../libdaisy/src/dev/oled_ssd130x.h ****         else
 4513              		.loc 6 244 42 view .LVU1185
 4514 0420 04F14F03 		add	r3, r4, #79
 4515 0424 04F19201 		add	r1, r4, #146
 4516 0428 84F89320 		strb	r2, [r4, #147]
 4517              	.LVL290:
 244:../../libdaisy/src/dev/oled_ssd130x.h ****         else
 4518              		.loc 6 244 42 view .LVU1186
 4519              	.LBE1427:
 4520              	.LBE1426:
 4521              	.LBE1425:
 199:../../libdaisy/src/hid/disp/display.h ****         {
 4522              		.loc 5 199 26 is_stmt 1 view .LVU1187
 4523 042c 05E0     		b	.L293
 4524              	.LVL291:
 4525              	.L390:
 4526              	.LBB1432:
 4527              	.LBB1433:
 4528              	.LBB1434:
 244:../../libdaisy/src/dev/oled_ssd130x.h ****         else
 4529              		.loc 6 244 42 is_stmt 0 view .LVU1188
 4530 042e 42F00102 		orr	r2, r2, #1
 4531 0432 03F8012F 		strb	r2, [r3, #1]!
 4532              	.LVL292:
 244:../../libdaisy/src/dev/oled_ssd130x.h ****         else
 4533              		.loc 6 244 42 view .LVU1189
 4534              	.LBE1434:
 4535              	.LBE1433:
 4536              	.LBE1432:
 199:../../libdaisy/src/hid/disp/display.h ****         {
 4537              		.loc 5 199 26 is_stmt 1 view .LVU1190
 4538 0436 9942     		cmp	r1, r3
 4539 0438 08D0     		beq	.L389
 4540              	.LVL293:
ARM GAS  C:\Users\VINCIU~1\AppData\Local\Temp\ccA1pwKF.s 			page 123


 4541              	.L293:
 4542              	.LBB1440:
 4543              	.LBI1432:
  41:../../libdaisy/src/hid/disp/oled_display.h ****     {
 4544              		.loc 1 41 10 view .LVU1191
 4545              	.LBB1439:
 4546              	.LBI1433:
 239:../../libdaisy/src/dev/oled_ssd130x.h ****     {
 4547              		.loc 6 239 10 view .LVU1192
 4548              	.LBB1438:
 4549              	.LBB1435:
 4550              	.LBI1435:
 239:../../libdaisy/src/dev/oled_ssd130x.h ****     {
 4551              		.loc 6 239 10 view .LVU1193
 239:../../libdaisy/src/dev/oled_ssd130x.h ****     {
 4552              		.loc 6 239 10 is_stmt 0 view .LVU1194
 4553              	.LBE1435:
 244:../../libdaisy/src/dev/oled_ssd130x.h ****         else
 4554              		.loc 6 244 42 view .LVU1195
 4555 043a 5A78     		ldrb	r2, [r3, #1]	@ zero_extendqisi2
 243:../../libdaisy/src/dev/oled_ssd130x.h ****             buffer_[x + (y / 8) * width] |= (1 << (y % 8));
 4556              		.loc 6 243 9 view .LVU1196
 4557 043c 0028     		cmp	r0, #0
 4558 043e F6D1     		bne	.L390
 4559              	.LBB1437:
 4560              	.LBB1436:
 246:../../libdaisy/src/dev/oled_ssd130x.h ****     }
 4561              		.loc 6 246 42 view .LVU1197
 4562 0440 02F0FE02 		and	r2, r2, #254
 4563 0444 03F8012F 		strb	r2, [r3, #1]!
 4564              	.LVL294:
 246:../../libdaisy/src/dev/oled_ssd130x.h ****     }
 4565              		.loc 6 246 42 view .LVU1198
 4566              	.LBE1436:
 4567              	.LBE1437:
 4568              	.LBE1438:
 4569              	.LBE1439:
 4570              	.LBE1440:
 199:../../libdaisy/src/hid/disp/display.h ****         {
 4571              		.loc 5 199 26 is_stmt 1 view .LVU1199
 4572 0448 9942     		cmp	r1, r3
 4573 044a F6D1     		bne	.L293
 4574              	.LVL295:
 4575              	.L389:
 199:../../libdaisy/src/hid/disp/display.h ****         {
 4576              		.loc 5 199 26 is_stmt 0 view .LVU1200
 4577              	.LBE1424:
 4578              	.LBE1423:
 4579              	.LBB1443:
 4580              	.LBI1443:
 181:../../libdaisy/src/hid/disp/display.h ****                   uint_fast8_t y1,
 4581              		.loc 5 181 10 is_stmt 1 view .LVU1201
 4582              	.LBB1444:
 4583              	.LBB1445:
 4584              	.LBI1445:
  41:../../libdaisy/src/hid/disp/oled_display.h ****     {
 4585              		.loc 1 41 10 view .LVU1202
ARM GAS  C:\Users\VINCIU~1\AppData\Local\Temp\ccA1pwKF.s 			page 124


 4586              	.LBB1446:
 4587              	.LBI1446:
 239:../../libdaisy/src/dev/oled_ssd130x.h ****     {
 4588              		.loc 6 239 10 view .LVU1203
 4589              	.LBB1447:
 244:../../libdaisy/src/dev/oled_ssd130x.h ****         else
 4590              		.loc 6 244 42 is_stmt 0 view .LVU1204
 4591 044c 94F81322 		ldrb	r2, [r4, #531]	@ zero_extendqisi2
 243:../../libdaisy/src/dev/oled_ssd130x.h ****             buffer_[x + (y / 8) * width] |= (1 << (y % 8));
 4592              		.loc 6 243 9 view .LVU1205
 4593 0450 0028     		cmp	r0, #0
 4594 0452 00F03981 		beq	.L294
 4595              	.LVL296:
 244:../../libdaisy/src/dev/oled_ssd130x.h ****         else
 4596              		.loc 6 244 42 view .LVU1206
 4597 0456 42F02002 		orr	r2, r2, #32
 4598              	.LVL297:
 4599              	.L295:
 244:../../libdaisy/src/dev/oled_ssd130x.h ****         else
 4600              		.loc 6 244 42 view .LVU1207
 4601              	.LBE1447:
 4602              	.LBE1446:
 4603              	.LBE1445:
 4604              	.LBE1444:
 4605              	.LBE1443:
 4606              	.LBE1422:
 4607 045a 0023     		movs	r3, #0
 4608 045c 84F81322 		strb	r2, [r4, #531]
 4609              	.LVL298:
 4610              	.LBB1537:
 4611              	.LBB1482:
 4612              	.LBB1480:
 199:../../libdaisy/src/hid/disp/display.h ****         {
 4613              		.loc 5 199 26 is_stmt 1 view .LVU1208
 4614 0460 05E0     		b	.L298
 4615              	.LVL299:
 4616              	.L392:
 4617              	.LBB1452:
 4618              	.LBB1453:
 4619              	.LBB1454:
 244:../../libdaisy/src/dev/oled_ssd130x.h ****         else
 4620              		.loc 6 244 42 is_stmt 0 view .LVU1209
 4621 0462 0A7D     		ldrb	r2, [r1, #20]	@ zero_extendqisi2
 4622              	.LBE1454:
 4623              	.LBE1453:
 4624              	.LBE1452:
 212:../../libdaisy/src/hid/disp/display.h ****             }
 4625              		.loc 5 212 20 view .LVU1210
 4626 0464 0133     		adds	r3, r3, #1
 4627              	.LVL300:
 4628              	.LBB1474:
 4629              	.LBB1469:
 4630              	.LBB1464:
 244:../../libdaisy/src/dev/oled_ssd130x.h ****         else
 4631              		.loc 6 244 42 view .LVU1211
 4632 0466 1543     		orrs	r5, r5, r2
 4633              	.LBE1464:
ARM GAS  C:\Users\VINCIU~1\AppData\Local\Temp\ccA1pwKF.s 			page 125


 4634              	.LBE1469:
 4635              	.LBE1474:
 199:../../libdaisy/src/hid/disp/display.h ****         {
 4636              		.loc 5 199 26 view .LVU1212
 4637 0468 1D2B     		cmp	r3, #29
 4638              	.LBB1475:
 4639              	.LBB1470:
 4640              	.LBB1465:
 244:../../libdaisy/src/dev/oled_ssd130x.h ****         else
 4641              		.loc 6 244 42 view .LVU1213
 4642 046a 0D75     		strb	r5, [r1, #20]
 4643              	.LVL301:
 244:../../libdaisy/src/dev/oled_ssd130x.h ****         else
 4644              		.loc 6 244 42 view .LVU1214
 4645              	.LBE1465:
 4646              	.LBE1470:
 4647              	.LBE1475:
 199:../../libdaisy/src/hid/disp/display.h ****         {
 4648              		.loc 5 199 26 is_stmt 1 view .LVU1215
 4649 046c 12D0     		beq	.L391
 4650              	.LVL302:
 4651              	.L298:
 4652              	.LBB1476:
 4653              	.LBI1452:
  41:../../libdaisy/src/hid/disp/oled_display.h ****     {
 4654              		.loc 1 41 10 view .LVU1216
 4655              	.LBB1471:
 4656              	.LBI1453:
 239:../../libdaisy/src/dev/oled_ssd130x.h ****     {
 4657              		.loc 6 239 10 view .LVU1217
 4658              	.LBB1466:
 4659              	.LBB1455:
 4660              	.LBI1455:
 239:../../libdaisy/src/dev/oled_ssd130x.h ****     {
 4661              		.loc 6 239 10 view .LVU1218
 239:../../libdaisy/src/dev/oled_ssd130x.h ****     {
 4662              		.loc 6 239 10 is_stmt 0 view .LVU1219
 4663              	.LBE1455:
 244:../../libdaisy/src/dev/oled_ssd130x.h ****         else
 4664              		.loc 6 244 42 view .LVU1220
 4665 046e 1901     		lsls	r1, r3, #4
 244:../../libdaisy/src/dev/oled_ssd130x.h ****         else
 4666              		.loc 6 244 54 view .LVU1221
 4667 0470 03F00707 		and	r7, r3, #7
 244:../../libdaisy/src/dev/oled_ssd130x.h ****         else
 4668              		.loc 6 244 48 view .LVU1222
 4669 0474 0125     		movs	r5, #1
 244:../../libdaisy/src/dev/oled_ssd130x.h ****         else
 4670              		.loc 6 244 42 view .LVU1223
 4671 0476 41F07F01 		orr	r1, r1, #127
 244:../../libdaisy/src/dev/oled_ssd130x.h ****         else
 4672              		.loc 6 244 48 view .LVU1224
 4673 047a BD40     		lsls	r5, r5, r7
 244:../../libdaisy/src/dev/oled_ssd130x.h ****         else
 4674              		.loc 6 244 42 view .LVU1225
 4675 047c 2144     		add	r1, r1, r4
 4676              	.LBB1460:
ARM GAS  C:\Users\VINCIU~1\AppData\Local\Temp\ccA1pwKF.s 			page 126


 4677              	.LBB1456:
 246:../../libdaisy/src/dev/oled_ssd130x.h ****     }
 4678              		.loc 6 246 42 view .LVU1226
 4679 047e 0A46     		mov	r2, r1
 4680              	.LBE1456:
 4681              	.LBE1460:
 243:../../libdaisy/src/dev/oled_ssd130x.h ****             buffer_[x + (y / 8) * width] |= (1 << (y % 8));
 4682              		.loc 6 243 9 view .LVU1227
 4683 0480 0028     		cmp	r0, #0
 4684 0482 EED1     		bne	.L392
 4685              	.LBB1461:
 4686              	.LBB1457:
 246:../../libdaisy/src/dev/oled_ssd130x.h ****     }
 4687              		.loc 6 246 42 view .LVU1228
 4688 0484 097D     		ldrb	r1, [r1, #20]	@ zero_extendqisi2
 4689              	.LBE1457:
 4690              	.LBE1461:
 4691              	.LBE1466:
 4692              	.LBE1471:
 4693              	.LBE1476:
 212:../../libdaisy/src/hid/disp/display.h ****             }
 4694              		.loc 5 212 20 view .LVU1229
 4695 0486 0133     		adds	r3, r3, #1
 4696              	.LVL303:
 4697              	.LBB1477:
 4698              	.LBB1472:
 4699              	.LBB1467:
 4700              	.LBB1462:
 4701              	.LBB1458:
 246:../../libdaisy/src/dev/oled_ssd130x.h ****     }
 4702              		.loc 6 246 42 view .LVU1230
 4703 0488 21EA050C 		bic	ip, r1, r5
 4704              	.LBE1458:
 4705              	.LBE1462:
 4706              	.LBE1467:
 4707              	.LBE1472:
 4708              	.LBE1477:
 199:../../libdaisy/src/hid/disp/display.h ****         {
 4709              		.loc 5 199 26 view .LVU1231
 4710 048c 1D2B     		cmp	r3, #29
 4711              	.LBB1478:
 4712              	.LBB1473:
 4713              	.LBB1468:
 4714              	.LBB1463:
 4715              	.LBB1459:
 246:../../libdaisy/src/dev/oled_ssd130x.h ****     }
 4716              		.loc 6 246 42 view .LVU1232
 4717 048e 82F814C0 		strb	ip, [r2, #20]
 4718              	.LVL304:
 246:../../libdaisy/src/dev/oled_ssd130x.h ****     }
 4719              		.loc 6 246 42 view .LVU1233
 4720              	.LBE1459:
 4721              	.LBE1463:
 4722              	.LBE1468:
 4723              	.LBE1473:
 4724              	.LBE1478:
 199:../../libdaisy/src/hid/disp/display.h ****         {
ARM GAS  C:\Users\VINCIU~1\AppData\Local\Temp\ccA1pwKF.s 			page 127


 4725              		.loc 5 199 26 is_stmt 1 view .LVU1234
 4726 0492 ECD1     		bne	.L298
 4727              	.L391:
 4728              	.LVL305:
 199:../../libdaisy/src/hid/disp/display.h ****         {
 4729              		.loc 5 199 26 is_stmt 0 view .LVU1235
 4730              	.LBE1480:
 4731              	.LBE1482:
 4732              	.LBB1483:
 4733              	.LBI1483:
 181:../../libdaisy/src/hid/disp/display.h ****                   uint_fast8_t y1,
 4734              		.loc 5 181 10 is_stmt 1 view .LVU1236
 4735              	.LBB1484:
 4736              	.LBB1485:
 4737              	.LBI1485:
  41:../../libdaisy/src/hid/disp/oled_display.h ****     {
 4738              		.loc 1 41 10 view .LVU1237
 4739              	.LBB1486:
 4740              	.LBI1486:
 239:../../libdaisy/src/dev/oled_ssd130x.h ****     {
 4741              		.loc 6 239 10 view .LVU1238
 4742              	.LBB1487:
 244:../../libdaisy/src/dev/oled_ssd130x.h ****         else
 4743              		.loc 6 244 42 is_stmt 0 view .LVU1239
 4744 0494 94F8D021 		ldrb	r2, [r4, #464]	@ zero_extendqisi2
 243:../../libdaisy/src/dev/oled_ssd130x.h ****             buffer_[x + (y / 8) * width] |= (1 << (y % 8));
 4745              		.loc 6 243 9 view .LVU1240
 4746 0498 0028     		cmp	r0, #0
 4747 049a 00F01281 		beq	.L299
 4748              	.LVL306:
 244:../../libdaisy/src/dev/oled_ssd130x.h ****         else
 4749              		.loc 6 244 42 view .LVU1241
 4750 049e 42F02002 		orr	r2, r2, #32
 4751              	.LVL307:
 4752              	.L300:
 244:../../libdaisy/src/dev/oled_ssd130x.h ****         else
 4753              		.loc 6 244 42 view .LVU1242
 4754 04a2 84F8D021 		strb	r2, [r4, #464]
 4755              	.LVL308:
 244:../../libdaisy/src/dev/oled_ssd130x.h ****         else
 4756              		.loc 6 244 42 view .LVU1243
 4757              	.LBE1487:
 4758              	.LBE1486:
 4759              	.LBE1485:
 199:../../libdaisy/src/hid/disp/display.h ****         {
 4760              		.loc 5 199 26 is_stmt 1 view .LVU1244
 4761 04a6 04F5E875 		add	r5, r4, #464
 4762 04aa 04F21322 		addw	r2, r4, #531
 4763 04ae 05E0     		b	.L303
 4764              	.LVL309:
 4765              	.L394:
 4766              	.LBB1492:
 4767              	.LBB1493:
 4768              	.LBB1494:
 244:../../libdaisy/src/dev/oled_ssd130x.h ****         else
 4769              		.loc 6 244 42 is_stmt 0 view .LVU1245
 4770 04b0 41F02001 		orr	r1, r1, #32
ARM GAS  C:\Users\VINCIU~1\AppData\Local\Temp\ccA1pwKF.s 			page 128


 4771              	.LBE1494:
 4772              	.LBE1493:
 4773              	.LBE1492:
 199:../../libdaisy/src/hid/disp/display.h ****         {
 4774              		.loc 5 199 26 view .LVU1246
 4775 04b4 013A     		subs	r2, r2, #1
 4776              	.LVL310:
 4777              	.LBB1506:
 4778              	.LBB1503:
 4779              	.LBB1500:
 244:../../libdaisy/src/dev/oled_ssd130x.h ****         else
 4780              		.loc 6 244 42 view .LVU1247
 4781 04b6 5170     		strb	r1, [r2, #1]
 4782              	.LVL311:
 244:../../libdaisy/src/dev/oled_ssd130x.h ****         else
 4783              		.loc 6 244 42 view .LVU1248
 4784              	.LBE1500:
 4785              	.LBE1503:
 4786              	.LBE1506:
 199:../../libdaisy/src/hid/disp/display.h ****         {
 4787              		.loc 5 199 26 is_stmt 1 view .LVU1249
 4788 04b8 9542     		cmp	r5, r2
 4789 04ba 08D0     		beq	.L393
 4790              	.LVL312:
 4791              	.L303:
 4792              	.LBB1507:
 4793              	.LBI1492:
  41:../../libdaisy/src/hid/disp/oled_display.h ****     {
 4794              		.loc 1 41 10 view .LVU1250
 4795              	.LBB1504:
 4796              	.LBI1493:
 239:../../libdaisy/src/dev/oled_ssd130x.h ****     {
 4797              		.loc 6 239 10 view .LVU1251
 4798              	.LBB1501:
 4799              	.LBB1495:
 4800              	.LBI1495:
 239:../../libdaisy/src/dev/oled_ssd130x.h ****     {
 4801              		.loc 6 239 10 view .LVU1252
 239:../../libdaisy/src/dev/oled_ssd130x.h ****     {
 4802              		.loc 6 239 10 is_stmt 0 view .LVU1253
 4803              	.LBE1495:
 244:../../libdaisy/src/dev/oled_ssd130x.h ****         else
 4804              		.loc 6 244 42 view .LVU1254
 4805 04bc 1178     		ldrb	r1, [r2]	@ zero_extendqisi2
 243:../../libdaisy/src/dev/oled_ssd130x.h ****             buffer_[x + (y / 8) * width] |= (1 << (y % 8));
 4806              		.loc 6 243 9 view .LVU1255
 4807 04be 0028     		cmp	r0, #0
 4808 04c0 F6D1     		bne	.L394
 4809              	.LBB1498:
 4810              	.LBB1496:
 246:../../libdaisy/src/dev/oled_ssd130x.h ****     }
 4811              		.loc 6 246 42 view .LVU1256
 4812 04c2 21F02001 		bic	r1, r1, #32
 4813              	.LBE1496:
 4814              	.LBE1498:
 4815              	.LBE1501:
 4816              	.LBE1504:
ARM GAS  C:\Users\VINCIU~1\AppData\Local\Temp\ccA1pwKF.s 			page 129


 4817              	.LBE1507:
 199:../../libdaisy/src/hid/disp/display.h ****         {
 4818              		.loc 5 199 26 view .LVU1257
 4819 04c6 013A     		subs	r2, r2, #1
 4820              	.LVL313:
 4821              	.LBB1508:
 4822              	.LBB1505:
 4823              	.LBB1502:
 4824              	.LBB1499:
 4825              	.LBB1497:
 246:../../libdaisy/src/dev/oled_ssd130x.h ****     }
 4826              		.loc 6 246 42 view .LVU1258
 4827 04c8 5170     		strb	r1, [r2, #1]
 4828              	.LVL314:
 246:../../libdaisy/src/dev/oled_ssd130x.h ****     }
 4829              		.loc 6 246 42 view .LVU1259
 4830              	.LBE1497:
 4831              	.LBE1499:
 4832              	.LBE1502:
 4833              	.LBE1505:
 4834              	.LBE1508:
 199:../../libdaisy/src/hid/disp/display.h ****         {
 4835              		.loc 5 199 26 is_stmt 1 view .LVU1260
 4836 04ca 9542     		cmp	r5, r2
 4837 04cc F6D1     		bne	.L303
 4838              	.L393:
 4839              	.LVL315:
 199:../../libdaisy/src/hid/disp/display.h ****         {
 4840              		.loc 5 199 26 is_stmt 0 view .LVU1261
 4841              	.LBE1484:
 4842              	.LBE1483:
 4843              	.LBB1511:
 4844              	.LBI1511:
 181:../../libdaisy/src/hid/disp/display.h ****                   uint_fast8_t y1,
 4845              		.loc 5 181 10 is_stmt 1 view .LVU1262
 4846              	.LBB1512:
 4847              	.LBB1513:
 4848              	.LBI1513:
  41:../../libdaisy/src/hid/disp/oled_display.h ****     {
 4849              		.loc 1 41 10 view .LVU1263
 4850              	.LBB1514:
 4851              	.LBI1514:
 239:../../libdaisy/src/dev/oled_ssd130x.h ****     {
 4852              		.loc 6 239 10 view .LVU1264
 4853              	.LBB1515:
 244:../../libdaisy/src/dev/oled_ssd130x.h ****         else
 4854              		.loc 6 244 42 is_stmt 0 view .LVU1265
 4855 04ce 94F85020 		ldrb	r2, [r4, #80]	@ zero_extendqisi2
 243:../../libdaisy/src/dev/oled_ssd130x.h ****             buffer_[x + (y / 8) * width] |= (1 << (y % 8));
 4856              		.loc 6 243 9 view .LVU1266
 4857 04d2 0028     		cmp	r0, #0
 4858 04d4 00F0F280 		beq	.L304
 4859              	.LVL316:
 244:../../libdaisy/src/dev/oled_ssd130x.h ****         else
 4860              		.loc 6 244 42 view .LVU1267
 4861 04d8 42F00102 		orr	r2, r2, #1
 4862              	.LVL317:
ARM GAS  C:\Users\VINCIU~1\AppData\Local\Temp\ccA1pwKF.s 			page 130


 4863              	.L305:
 244:../../libdaisy/src/dev/oled_ssd130x.h ****         else
 4864              		.loc 6 244 42 view .LVU1268
 4865 04dc 84F85020 		strb	r2, [r4, #80]
 4866              	.LVL318:
 244:../../libdaisy/src/dev/oled_ssd130x.h ****         else
 4867              		.loc 6 244 42 view .LVU1269
 4868              	.LBE1515:
 4869              	.LBE1514:
 4870              	.LBE1513:
 199:../../libdaisy/src/hid/disp/display.h ****         {
 4871              		.loc 5 199 26 is_stmt 1 view .LVU1270
 4872 04e0 06E0     		b	.L308
 4873              	.LVL319:
 4874              	.L395:
 4875              	.LBB1520:
 4876              	.LBB1521:
 4877              	.LBB1522:
 244:../../libdaisy/src/dev/oled_ssd130x.h ****         else
 4878              		.loc 6 244 42 is_stmt 0 view .LVU1271
 4879 04e2 95F85020 		ldrb	r2, [r5, #80]	@ zero_extendqisi2
 4880 04e6 1143     		orrs	r1, r1, r2
 4881 04e8 85F85010 		strb	r1, [r5, #80]
 4882              	.L307:
 4883              	.LVL320:
 244:../../libdaisy/src/dev/oled_ssd130x.h ****         else
 4884              		.loc 6 244 42 view .LVU1272
 4885              	.LBE1522:
 4886              	.LBE1521:
 4887              	.LBE1520:
 199:../../libdaisy/src/hid/disp/display.h ****         {
 4888              		.loc 5 199 26 is_stmt 1 view .LVU1273
 4889 04ec 013B     		subs	r3, r3, #1
 4890              	.LVL321:
 199:../../libdaisy/src/hid/disp/display.h ****         {
 4891              		.loc 5 199 26 is_stmt 0 view .LVU1274
 4892 04ee 1BD0     		beq	.L282
 4893              	.LVL322:
 4894              	.L308:
 4895              	.LBB1530:
 4896              	.LBI1520:
  41:../../libdaisy/src/hid/disp/oled_display.h ****     {
 4897              		.loc 1 41 10 is_stmt 1 view .LVU1275
 4898              	.LBB1529:
 4899              	.LBI1521:
 239:../../libdaisy/src/dev/oled_ssd130x.h ****     {
 4900              		.loc 6 239 10 view .LVU1276
 4901              	.LBB1528:
 4902              	.LBB1523:
 4903              	.LBI1523:
 239:../../libdaisy/src/dev/oled_ssd130x.h ****     {
 4904              		.loc 6 239 10 view .LVU1277
 239:../../libdaisy/src/dev/oled_ssd130x.h ****     {
 4905              		.loc 6 239 10 is_stmt 0 view .LVU1278
 4906              	.LBE1523:
 244:../../libdaisy/src/dev/oled_ssd130x.h ****         else
 4907              		.loc 6 244 48 view .LVU1279
ARM GAS  C:\Users\VINCIU~1\AppData\Local\Temp\ccA1pwKF.s 			page 131


 4908 04f0 0121     		movs	r1, #1
 244:../../libdaisy/src/dev/oled_ssd130x.h ****         else
 4909              		.loc 6 244 28 view .LVU1280
 4910 04f2 DD08     		lsrs	r5, r3, #3
 244:../../libdaisy/src/dev/oled_ssd130x.h ****         else
 4911              		.loc 6 244 54 view .LVU1281
 4912 04f4 03F0070C 		and	ip, r3, #7
 4913              	.LBB1526:
 4914              	.LBB1524:
 246:../../libdaisy/src/dev/oled_ssd130x.h ****     }
 4915              		.loc 6 246 49 view .LVU1282
 4916 04f8 0F46     		mov	r7, r1
 4917              	.LBE1524:
 4918              	.LBE1526:
 244:../../libdaisy/src/dev/oled_ssd130x.h ****         else
 4919              		.loc 6 244 42 view .LVU1283
 4920 04fa 04EBC515 		add	r5, r4, r5, lsl #7
 244:../../libdaisy/src/dev/oled_ssd130x.h ****         else
 4921              		.loc 6 244 48 view .LVU1284
 4922 04fe 01FA0CF1 		lsl	r1, r1, ip
 243:../../libdaisy/src/dev/oled_ssd130x.h ****             buffer_[x + (y / 8) * width] |= (1 << (y % 8));
 4923              		.loc 6 243 9 view .LVU1285
 4924 0502 0028     		cmp	r0, #0
 4925 0504 EDD1     		bne	.L395
 4926              	.LBB1527:
 4927              	.LBB1525:
 246:../../libdaisy/src/dev/oled_ssd130x.h ****     }
 4928              		.loc 6 246 42 view .LVU1286
 4929 0506 95F85010 		ldrb	r1, [r5, #80]	@ zero_extendqisi2
 246:../../libdaisy/src/dev/oled_ssd130x.h ****     }
 4930              		.loc 6 246 49 view .LVU1287
 4931 050a 07FA0CF7 		lsl	r7, r7, ip
 246:../../libdaisy/src/dev/oled_ssd130x.h ****     }
 4932              		.loc 6 246 42 view .LVU1288
 4933 050e 21EA0707 		bic	r7, r1, r7
 4934 0512 85F85070 		strb	r7, [r5, #80]
 4935 0516 E9E7     		b	.L307
 4936              	.LVL323:
 4937              	.L381:
 246:../../libdaisy/src/dev/oled_ssd130x.h ****     }
 4938              		.loc 6 246 42 view .LVU1289
 4939              	.LBE1525:
 4940              	.LBE1527:
 4941              	.LBE1528:
 4942              	.LBE1529:
 4943              	.LBE1530:
 4944              	.LBE1512:
 4945              	.LBE1511:
 4946              	.LBE1537:
 4947              	.LBE1562:
 161:Menus.cpp     ****         on                = this->OscSelector;
 4948              		.loc 2 161 9 is_stmt 1 view .LVU1290
 161:Menus.cpp     ****         on                = this->OscSelector;
 4949              		.loc 2 161 29 is_stmt 0 view .LVU1291
 4950 0518 95F87430 		ldrb	r3, [r5, #116]	@ zero_extendqisi2
 4951 051c 83F00103 		eor	r3, r3, #1
 161:Menus.cpp     ****         on                = this->OscSelector;
ARM GAS  C:\Users\VINCIU~1\AppData\Local\Temp\ccA1pwKF.s 			page 132


 4952              		.loc 2 161 27 view .LVU1292
 4953 0520 85F87430 		strb	r3, [r5, #116]
 162:Menus.cpp     ****     }
 4954              		.loc 2 162 9 is_stmt 1 view .LVU1293
 162:Menus.cpp     ****     }
 4955              		.loc 2 162 27 is_stmt 0 view .LVU1294
 4956 0524 85F8BC31 		strb	r3, [r5, #444]
 4957              	.LVL324:
 4958              	.L282:
 162:Menus.cpp     ****     }
 4959              		.loc 2 162 27 view .LVU1295
 4960              	.LBE1596:
 4961              	.LBB1597:
 4962              	.LBB1598:
 4963              	.LBB1599:
 4964              	.LBB1600:
 4965              	.LBB1601:
 111:../../libdaisy/src/dev/oled_ssd130x.h ****         spi_.BlockingTransmit(&cmd, 1);
 4966              		.loc 6 111 24 view .LVU1296
 4967 0528 04F10807 		add	r7, r4, #8
 112:../../libdaisy/src/dev/oled_ssd130x.h ****     };
 4968              		.loc 6 112 30 view .LVU1297
 4969 052c B025     		movs	r5, #176
 111:../../libdaisy/src/dev/oled_ssd130x.h ****         spi_.BlockingTransmit(&cmd, 1);
 4970              		.loc 6 111 24 view .LVU1298
 4971 052e 1034     		adds	r4, r4, #16
 4972              	.LVL325:
 4973              	.L337:
 111:../../libdaisy/src/dev/oled_ssd130x.h ****         spi_.BlockingTransmit(&cmd, 1);
 4974              		.loc 6 111 24 view .LVU1299
 4975 0530 4FF00008 		mov	r8, #0
 111:../../libdaisy/src/dev/oled_ssd130x.h ****         spi_.BlockingTransmit(&cmd, 1);
 4976              		.loc 6 111 23 view .LVU1300
 4977 0534 2046     		mov	r0, r4
 4978 0536 8DF81750 		strb	r5, [sp, #23]
 4979              	.LVL326:
 111:../../libdaisy/src/dev/oled_ssd130x.h ****         spi_.BlockingTransmit(&cmd, 1);
 4980              		.loc 6 111 23 view .LVU1301
 4981              	.LBE1601:
 4982              	.LBI1600:
 109:../../libdaisy/src/dev/oled_ssd130x.h ****     {
 4983              		.loc 6 109 10 is_stmt 1 view .LVU1302
 4984              	.LBB1602:
 111:../../libdaisy/src/dev/oled_ssd130x.h ****         spi_.BlockingTransmit(&cmd, 1);
 4985              		.loc 6 111 9 view .LVU1303
 4986              	.LBE1602:
 4987              	.LBE1600:
 4988              		.loc 6 270 22 is_stmt 0 view .LVU1304
 4989 053a 0135     		adds	r5, r5, #1
 4990              	.LVL327:
 4991              	.LBB1605:
 4992              	.LBB1603:
 111:../../libdaisy/src/dev/oled_ssd130x.h ****         spi_.BlockingTransmit(&cmd, 1);
 4993              		.loc 6 111 23 view .LVU1305
 4994 053c 4146     		mov	r1, r8
 4995 053e FFF7FEFF 		bl	dsy_gpio_write
 4996              	.LVL328:
ARM GAS  C:\Users\VINCIU~1\AppData\Local\Temp\ccA1pwKF.s 			page 133


 112:../../libdaisy/src/dev/oled_ssd130x.h ****     };
 4997              		.loc 6 112 9 is_stmt 1 view .LVU1306
 112:../../libdaisy/src/dev/oled_ssd130x.h ****     };
 4998              		.loc 6 112 30 is_stmt 0 view .LVU1307
 4999 0542 6423     		movs	r3, #100
 5000 0544 0122     		movs	r2, #1
 5001 0546 0DF11701 		add	r1, sp, #23
 5002 054a 3846     		mov	r0, r7
 5003              	.LBE1603:
 5004              	.LBE1605:
 5005              		.loc 6 270 22 view .LVU1308
 5006 054c EDB2     		uxtb	r5, r5
 5007              	.LBB1606:
 5008              	.LBB1604:
 112:../../libdaisy/src/dev/oled_ssd130x.h ****     };
 5009              		.loc 6 112 30 view .LVU1309
 5010 054e FFF7FEFF 		bl	_ZN5daisy9SpiHandle16BlockingTransmitEPhjm
 5011              	.LVL329:
 112:../../libdaisy/src/dev/oled_ssd130x.h ****     };
 5012              		.loc 6 112 30 view .LVU1310
 5013              	.LBE1604:
 5014              	.LBE1606:
 5015              	.LBB1607:
 5016              	.LBB1608:
 111:../../libdaisy/src/dev/oled_ssd130x.h ****         spi_.BlockingTransmit(&cmd, 1);
 5017              		.loc 6 111 23 view .LVU1311
 5018 0552 4146     		mov	r1, r8
 5019 0554 2046     		mov	r0, r4
 5020 0556 8DF81780 		strb	r8, [sp, #23]
 5021              	.LVL330:
 111:../../libdaisy/src/dev/oled_ssd130x.h ****         spi_.BlockingTransmit(&cmd, 1);
 5022              		.loc 6 111 23 view .LVU1312
 5023              	.LBE1608:
 5024              	.LBI1607:
 109:../../libdaisy/src/dev/oled_ssd130x.h ****     {
 5025              		.loc 6 109 10 is_stmt 1 view .LVU1313
 5026              	.LBB1609:
 111:../../libdaisy/src/dev/oled_ssd130x.h ****         spi_.BlockingTransmit(&cmd, 1);
 5027              		.loc 6 111 9 view .LVU1314
 111:../../libdaisy/src/dev/oled_ssd130x.h ****         spi_.BlockingTransmit(&cmd, 1);
 5028              		.loc 6 111 23 is_stmt 0 view .LVU1315
 5029 055a FFF7FEFF 		bl	dsy_gpio_write
 5030              	.LVL331:
 112:../../libdaisy/src/dev/oled_ssd130x.h ****     };
 5031              		.loc 6 112 9 is_stmt 1 view .LVU1316
 112:../../libdaisy/src/dev/oled_ssd130x.h ****     };
 5032              		.loc 6 112 30 is_stmt 0 view .LVU1317
 5033 055e 0122     		movs	r2, #1
 5034 0560 6423     		movs	r3, #100
 5035 0562 0DF11701 		add	r1, sp, #23
 5036 0566 3846     		mov	r0, r7
 5037 0568 FFF7FEFF 		bl	_ZN5daisy9SpiHandle16BlockingTransmitEPhjm
 5038              	.LVL332:
 112:../../libdaisy/src/dev/oled_ssd130x.h ****     };
 5039              		.loc 6 112 30 view .LVU1318
 5040 056c 1023     		movs	r3, #16
 5041              	.LBE1609:
ARM GAS  C:\Users\VINCIU~1\AppData\Local\Temp\ccA1pwKF.s 			page 134


 5042              	.LBE1607:
 5043              	.LBB1610:
 5044              	.LBB1611:
 111:../../libdaisy/src/dev/oled_ssd130x.h ****         spi_.BlockingTransmit(&cmd, 1);
 5045              		.loc 6 111 23 view .LVU1319
 5046 056e 4146     		mov	r1, r8
 5047 0570 2046     		mov	r0, r4
 5048 0572 8DF81730 		strb	r3, [sp, #23]
 5049              	.LVL333:
 111:../../libdaisy/src/dev/oled_ssd130x.h ****         spi_.BlockingTransmit(&cmd, 1);
 5050              		.loc 6 111 23 view .LVU1320
 5051              	.LBE1611:
 5052              	.LBI1610:
 109:../../libdaisy/src/dev/oled_ssd130x.h ****     {
 5053              		.loc 6 109 10 is_stmt 1 view .LVU1321
 5054              	.LBB1612:
 111:../../libdaisy/src/dev/oled_ssd130x.h ****         spi_.BlockingTransmit(&cmd, 1);
 5055              		.loc 6 111 9 view .LVU1322
 111:../../libdaisy/src/dev/oled_ssd130x.h ****         spi_.BlockingTransmit(&cmd, 1);
 5056              		.loc 6 111 23 is_stmt 0 view .LVU1323
 5057 0576 FFF7FEFF 		bl	dsy_gpio_write
 5058              	.LVL334:
 112:../../libdaisy/src/dev/oled_ssd130x.h ****     };
 5059              		.loc 6 112 9 is_stmt 1 view .LVU1324
 112:../../libdaisy/src/dev/oled_ssd130x.h ****     };
 5060              		.loc 6 112 30 is_stmt 0 view .LVU1325
 5061 057a 6423     		movs	r3, #100
 5062 057c 0122     		movs	r2, #1
 5063 057e 0DF11701 		add	r1, sp, #23
 5064 0582 3846     		mov	r0, r7
 5065 0584 FFF7FEFF 		bl	_ZN5daisy9SpiHandle16BlockingTransmitEPhjm
 5066              	.LVL335:
 112:../../libdaisy/src/dev/oled_ssd130x.h ****     };
 5067              		.loc 6 112 30 view .LVU1326
 5068              	.LBE1612:
 5069              	.LBE1610:
 5070              	.LBB1613:
 5071              	.LBI1613:
 115:../../libdaisy/src/dev/oled_ssd130x.h ****     {
 5072              		.loc 6 115 10 is_stmt 1 view .LVU1327
 5073              	.LBB1614:
 117:../../libdaisy/src/dev/oled_ssd130x.h ****         spi_.BlockingTransmit(buff, size);
 5074              		.loc 6 117 9 view .LVU1328
 117:../../libdaisy/src/dev/oled_ssd130x.h ****         spi_.BlockingTransmit(buff, size);
 5075              		.loc 6 117 23 is_stmt 0 view .LVU1329
 5076 0588 0121     		movs	r1, #1
 5077 058a 2046     		mov	r0, r4
 5078 058c FFF7FEFF 		bl	dsy_gpio_write
 5079              	.LVL336:
 118:../../libdaisy/src/dev/oled_ssd130x.h ****     };
 5080              		.loc 6 118 9 is_stmt 1 view .LVU1330
 118:../../libdaisy/src/dev/oled_ssd130x.h ****     };
 5081              		.loc 6 118 30 is_stmt 0 view .LVU1331
 5082 0590 8022     		movs	r2, #128
 5083 0592 3146     		mov	r1, r6
 5084 0594 6423     		movs	r3, #100
 5085 0596 3846     		mov	r0, r7
ARM GAS  C:\Users\VINCIU~1\AppData\Local\Temp\ccA1pwKF.s 			page 135


 5086              	.LBE1614:
 5087              	.LBE1613:
 5088              		.loc 6 270 22 view .LVU1332
 5089 0598 1644     		add	r6, r6, r2
 5090              	.LVL337:
 5091              	.LBB1616:
 5092              	.LBB1615:
 118:../../libdaisy/src/dev/oled_ssd130x.h ****     };
 5093              		.loc 6 118 30 view .LVU1333
 5094 059a FFF7FEFF 		bl	_ZN5daisy9SpiHandle16BlockingTransmitEPhjm
 5095              	.LVL338:
 118:../../libdaisy/src/dev/oled_ssd130x.h ****     };
 5096              		.loc 6 118 30 view .LVU1334
 5097              	.LBE1615:
 5098              	.LBE1616:
 5099              		.loc 6 270 9 is_stmt 1 view .LVU1335
 5100              		.loc 6 270 22 view .LVU1336
 5101 059e B82D     		cmp	r5, #184
 5102 05a0 C6D1     		bne	.L337
 5103              	.LBE1599:
 5104              	.LBE1598:
 5105              	.LBE1597:
 425:Menus.cpp     **** 
 5106              		.loc 2 425 1 is_stmt 0 view .LVU1337
 5107 05a2 07B0     		add	sp, sp, #28
 5108              		.cfi_remember_state
 5109              		.cfi_def_cfa_offset 36
 5110              		@ sp needed
 5111 05a4 BDEC028B 		vldm	sp!, {d8}
 5112              		.cfi_restore 80
 5113              		.cfi_restore 81
 5114              		.cfi_def_cfa_offset 28
 5115 05a8 BDE8F083 		pop	{r4, r5, r6, r7, r8, r9, pc}
 5116              	.LVL339:
 5117              	.L376:
 5118              		.cfi_restore_state
 100:Menus.cpp     ****         if(menuState < 0)
 5119              		.loc 2 100 9 is_stmt 1 view .LVU1338
 101:Menus.cpp     ****         {
 5120              		.loc 2 101 9 view .LVU1339
 100:Menus.cpp     ****         if(menuState < 0)
 5121              		.loc 2 100 31 is_stmt 0 view .LVU1340
 5122 05ac EB6E     		ldr	r3, [r5, #108]
 101:Menus.cpp     ****         {
 5123              		.loc 2 101 9 view .LVU1341
 5124 05ae 013B     		subs	r3, r3, #1
 5125 05b0 7CD4     		bmi	.L262
 100:Menus.cpp     ****         if(menuState < 0)
 5126              		.loc 2 100 19 view .LVU1342
 5127 05b2 EB66     		str	r3, [r5, #108]
 106:Menus.cpp     **** 
 5128              		.loc 2 106 5 is_stmt 1 view .LVU1343
 5129              	.LVL340:
 5130              	.LBB1617:
 5131              		.loc 4 69 17 view .LVU1344
 5132              	.LBB1253:
 5133              		.loc 4 69 38 view .LVU1345
ARM GAS  C:\Users\VINCIU~1\AppData\Local\Temp\ccA1pwKF.s 			page 136


 5134              		.loc 4 69 38 is_stmt 0 view .LVU1346
 5135              	.LBE1253:
 5136              	.LBE1617:
 106:Menus.cpp     **** 
 5137              		.loc 2 106 5 view .LVU1347
 5138 05b4 95F86130 		ldrb	r3, [r5, #97]	@ zero_extendqisi2
 5139 05b8 7F2B     		cmp	r3, #127
 5140 05ba 7FF440AD 		bne	.L264
 5141              	.L377:
 109:Menus.cpp     ****         if(menuState > 3)
 5142              		.loc 2 109 9 is_stmt 1 view .LVU1348
 109:Menus.cpp     ****         if(menuState > 3)
 5143              		.loc 2 109 31 is_stmt 0 view .LVU1349
 5144 05be EB6E     		ldr	r3, [r5, #108]
 5145 05c0 0133     		adds	r3, r3, #1
 110:Menus.cpp     ****         {
 5146              		.loc 2 110 9 view .LVU1350
 5147 05c2 032B     		cmp	r3, #3
 109:Menus.cpp     ****         if(menuState > 3)
 5148              		.loc 2 109 19 view .LVU1351
 5149 05c4 EB66     		str	r3, [r5, #108]
 110:Menus.cpp     ****         {
 5150              		.loc 2 110 9 is_stmt 1 view .LVU1352
 5151 05c6 7FF73AAD 		ble	.L264
 5152              	.L263:
 112:Menus.cpp     ****         }
 5153              		.loc 2 112 13 view .LVU1353
 112:Menus.cpp     ****         }
 5154              		.loc 2 112 23 is_stmt 0 view .LVU1354
 5155 05ca 0023     		movs	r3, #0
 5156 05cc EB66     		str	r3, [r5, #108]
 5157 05ce 36E5     		b	.L264
 5158              	.L387:
 5159              	.LBB1618:
 5160              	.LBB1563:
 168:Menus.cpp     ****             {
 5161              		.loc 2 168 13 is_stmt 1 view .LVU1355
 5162 05d0 D5F86421 		ldr	r2, [r5, #356]
 176:Menus.cpp     ****             {
 5163              		.loc 2 176 22 is_stmt 0 view .LVU1356
 5164 05d4 D5ED1E7A 		vldr.32	s15, [r5, #120]
 176:Menus.cpp     ****             {
 5165              		.loc 2 176 13 view .LVU1357
 5166 05d8 9FED497A 		vldr.32	s14, .L403+4
 5167 05dc 22EAE272 		bic	r2, r2, r2, asr #31
 5168 05e0 F4EEC77A 		vcmpe.f32	s15, s14
 5169 05e4 202A     		cmp	r2, #32
 5170 05e6 A8BF     		it	ge
 5171 05e8 2022     		movge	r2, #32
 176:Menus.cpp     ****             {
 5172              		.loc 2 176 13 is_stmt 1 view .LVU1358
 5173 05ea F1EE10FA 		vmrs	APSR_nzcv, FPSCR
 5174 05ee 80F28280 		bge	.L343
 180:Menus.cpp     ****             {
 5175              		.loc 2 180 13 view .LVU1359
 5176 05f2 F5EEC07A 		vcmpe.f32	s15, #0
 5177 05f6 F1EE10FA 		vmrs	APSR_nzcv, FPSCR
ARM GAS  C:\Users\VINCIU~1\AppData\Local\Temp\ccA1pwKF.s 			page 137


 5178 05fa 01D5     		bpl	.L285
 5179 05fc DFED417A 		vldr.32	s15, .L403+8
 5180              	.L285:
 184:Menus.cpp     ****             this->drawSliderSemi
 5181              		.loc 2 184 13 view .LVU1360
 5182              	.LVL341:
 5183              	.LBB1538:
 5184              	.LBI1538:
  41:../../libdaisy/src/hid/encoder.h ****     /** Returns true if the encoder was just pressed.
 5185              		.loc 3 41 20 view .LVU1361
 5186              	.LBB1539:
  41:../../libdaisy/src/hid/encoder.h ****     /** Returns true if the encoder was just pressed.
 5187              		.loc 3 41 40 view .LVU1362
  41:../../libdaisy/src/hid/encoder.h ****     /** Returns true if the encoder was just pressed.
 5188              		.loc 3 41 40 is_stmt 0 view .LVU1363
 5189              	.LBE1539:
 5190              	.LBE1538:
 186:Menus.cpp     ****             sprintf(this->buff, "Semi_%dst", this->noteSemiAdd);
 5191              		.loc 2 186 61 view .LVU1364
 5192 0600 D5ED126A 		vldr.32	s13, [r5, #72]	@ int
 187:Menus.cpp     ****         }
 5193              		.loc 2 187 20 view .LVU1365
 5194 0604 05F1A400 		add	r0, r5, #164
 186:Menus.cpp     ****             sprintf(this->buff, "Semi_%dst", this->noteSemiAdd);
 5195              		.loc 2 186 17 view .LVU1366
 5196 0608 9FED3D7A 		vldr.32	s14, .L403+4
 186:Menus.cpp     ****             sprintf(this->buff, "Semi_%dst", this->noteSemiAdd);
 5197              		.loc 2 186 61 view .LVU1367
 5198 060c FAEEED6A 		vcvt.f32.s32	s13, s13, #5
 184:Menus.cpp     ****             this->drawSliderSemi
 5199              		.loc 2 184 31 view .LVU1368
 5200 0610 AB6C     		ldr	r3, [r5, #72]
 187:Menus.cpp     ****         }
 5201              		.loc 2 187 20 view .LVU1369
 5202 0612 3A49     		ldr	r1, .L403
 184:Menus.cpp     ****             this->drawSliderSemi
 5203              		.loc 2 184 31 view .LVU1370
 5204 0614 1A44     		add	r2, r2, r3
 186:Menus.cpp     ****             sprintf(this->buff, "Semi_%dst", this->noteSemiAdd);
 5205              		.loc 2 186 17 view .LVU1371
 5206 0616 E6EE877A 		vfma.f32	s15, s13, s14
 184:Menus.cpp     ****             this->drawSliderSemi
 5207              		.loc 2 184 31 view .LVU1372
 5208 061a C5F86421 		str	r2, [r5, #356]
 185:Menus.cpp     ****                 += (((float)this->encoderRight.Increment()) / 32) * 40;
 5209              		.loc 2 185 13 is_stmt 1 view .LVU1373
 5210              	.LVL342:
 185:Menus.cpp     ****                 += (((float)this->encoderRight.Increment()) / 32) * 40;
 5211              		.loc 2 185 13 is_stmt 0 view .LVU1374
 5212              	.LBE1563:
 5213              	.LBE1618:
  41:../../libdaisy/src/hid/encoder.h ****     /** Returns true if the encoder was just pressed.
 5214              		.loc 3 41 40 is_stmt 1 view .LVU1375
 5215              	.LBB1619:
 5216              	.LBB1564:
 186:Menus.cpp     ****             sprintf(this->buff, "Semi_%dst", this->noteSemiAdd);
 5217              		.loc 2 186 17 is_stmt 0 view .LVU1376
ARM GAS  C:\Users\VINCIU~1\AppData\Local\Temp\ccA1pwKF.s 			page 138


 5218 061e C5ED1E7A 		vstr.32	s15, [r5, #120]
 187:Menus.cpp     ****         }
 5219              		.loc 2 187 13 is_stmt 1 view .LVU1377
 187:Menus.cpp     ****         }
 5220              		.loc 2 187 20 is_stmt 0 view .LVU1378
 5221 0622 FFF7FEFF 		bl	sprintf
 5222              	.LVL343:
 214:Menus.cpp     ****             60, 0, screen.Width() - 1, screen.Height() / 2 - 3, on, false);
 5223              		.loc 2 214 9 is_stmt 1 view .LVU1379
 214:Menus.cpp     ****             60, 0, screen.Width() - 1, screen.Height() / 2 - 3, on, false);
 5224              		.loc 2 214 24 is_stmt 0 view .LVU1380
 5225 0626 95F8BC01 		ldrb	r0, [r5, #444]	@ zero_extendqisi2
 5226              	.LVL344:
 5227              	.LBB1540:
 217:../../libdaisy/src/hid/disp/display.h ****                   uint_fast8_t y1,
 5228              		.loc 5 217 10 is_stmt 1 view .LVU1381
 5229              	.LBB1533:
 181:../../libdaisy/src/hid/disp/display.h ****                   uint_fast8_t y1,
 5230              		.loc 5 181 10 view .LVU1382
 5231              	.LBB1442:
 5232              	.LBB1441:
  41:../../libdaisy/src/hid/disp/oled_display.h ****     {
 5233              		.loc 1 41 10 view .LVU1383
 5234              	.LBB1431:
 239:../../libdaisy/src/dev/oled_ssd130x.h ****     {
 5235              		.loc 6 239 10 view .LVU1384
 5236              	.LBB1430:
 244:../../libdaisy/src/dev/oled_ssd130x.h ****         else
 5237              		.loc 6 244 42 is_stmt 0 view .LVU1385
 5238 062a 94F89320 		ldrb	r2, [r4, #147]	@ zero_extendqisi2
 243:../../libdaisy/src/dev/oled_ssd130x.h ****             buffer_[x + (y / 8) * width] |= (1 << (y % 8));
 5239              		.loc 6 243 9 view .LVU1386
 5240 062e 0028     		cmp	r0, #0
 5241 0630 7FF4F4AE 		bne	.L396
 5242              	.LVL345:
 5243              	.L289:
 5244              	.LBB1428:
 5245              	.LBI1428:
 239:../../libdaisy/src/dev/oled_ssd130x.h ****     {
 5246              		.loc 6 239 10 is_stmt 1 view .LVU1387
 5247              	.LBB1429:
 246:../../libdaisy/src/dev/oled_ssd130x.h ****     }
 5248              		.loc 6 246 42 is_stmt 0 view .LVU1388
 5249 0634 02F0FE02 		and	r2, r2, #254
 5250 0638 F2E6     		b	.L290
 5251              	.LVL346:
 5252              	.L384:
 246:../../libdaisy/src/dev/oled_ssd130x.h ****     }
 5253              		.loc 6 246 42 view .LVU1389
 5254              	.LBE1429:
 5255              	.LBE1428:
 5256              	.LBE1430:
 5257              	.LBE1431:
 5258              	.LBE1441:
 5259              	.LBE1442:
 5260              	.LBE1533:
 5261              	.LBE1540:
ARM GAS  C:\Users\VINCIU~1\AppData\Local\Temp\ccA1pwKF.s 			page 139


 5262              	.LBE1564:
 5263              	.LBE1619:
 252:Menus.cpp     ****         {
 5264              		.loc 2 252 9 is_stmt 1 view .LVU1390
 5265              	.LBB1620:
 5266              	.LBB1565:
 5267              	.LBB1541:
 5268              	.LBB1403:
 5269              	.LBB1320:
 5270 063a 95F87430 		ldrb	r3, [r5, #116]	@ zero_extendqisi2
 5271 063e 9BB1     		cbz	r3, .L315
 5272              	.LBB1321:
 254:Menus.cpp     ****             if(setWave > 3)
 5273              		.loc 2 254 13 view .LVU1391
 5274              	.LVL347:
 5275              	.LBB1322:
 5276              	.LBI1322:
  41:../../libdaisy/src/hid/encoder.h ****     /** Returns true if the encoder was just pressed.
 5277              		.loc 3 41 20 view .LVU1392
 5278              	.LBB1323:
  41:../../libdaisy/src/hid/encoder.h ****     /** Returns true if the encoder was just pressed.
 5279              		.loc 3 41 40 view .LVU1393
  41:../../libdaisy/src/hid/encoder.h ****     /** Returns true if the encoder was just pressed.
 5280              		.loc 3 41 40 is_stmt 0 view .LVU1394
 5281              	.LBE1323:
 5282              	.LBE1322:
 254:Menus.cpp     ****             if(setWave > 3)
 5283              		.loc 2 254 27 view .LVU1395
 5284 0640 D5F89031 		ldr	r3, [r5, #400]
 5285 0644 AA6C     		ldr	r2, [r5, #72]
 5286 0646 1344     		add	r3, r3, r2
 255:Menus.cpp     ****             {
 5287              		.loc 2 255 13 is_stmt 1 view .LVU1396
 5288 0648 032B     		cmp	r3, #3
 5289 064a 40F38280 		ble	.L316
 257:Menus.cpp     ****             }
 5290              		.loc 2 257 17 view .LVU1397
 257:Menus.cpp     ****             }
 5291              		.loc 2 257 31 is_stmt 0 view .LVU1398
 5292 064e 0323     		movs	r3, #3
 5293 0650 C5F89031 		str	r3, [r5, #400]
 259:Menus.cpp     ****             {
 5294              		.loc 2 259 13 is_stmt 1 view .LVU1399
 263:Menus.cpp     ****             {
 5295              		.loc 2 263 13 view .LVU1400
 5296              	.LBE1321:
 5297              	.LBE1320:
 5298              	.LBE1403:
 5299              	.LBE1541:
 5300              	.LBE1565:
 5301              	.LBE1620:
 271:Menus.cpp     ****             {
 5302              		.loc 2 271 18 view .LVU1401
 5303              	.L317:
 5304              	.LVL348:
 5305              	.LBB1621:
 5306              	.LBB1566:
ARM GAS  C:\Users\VINCIU~1\AppData\Local\Temp\ccA1pwKF.s 			page 140


 5307              	.LBB1542:
 5308              	.LBB1404:
 5309              	.LBB1354:
 5310              	.LBB1349:
 5311              	.LBB1324:
 5312              	.LBB1325:
 5313              	.LBB1326:
 5314              	.LBB1327:
 289:Menus.cpp     ****                 {
 5315              		.loc 2 289 34 view .LVU1402
 291:Menus.cpp     ****                     osc[0].SetWaveform(osc[0].WAVE_SAW);
 5316              		.loc 2 291 21 view .LVU1403
 292:Menus.cpp     ****                 }
 5317              		.loc 2 292 21 view .LVU1404
 5318              	.LBB1328:
 5319              	.LBI1328:
 5320              		.file 7 "../../DaisySP/Source/Synthesis/oscillator.h"
   1:../../DaisySP/Source/Synthesis/oscillator.h **** #pragma once
   2:../../DaisySP/Source/Synthesis/oscillator.h **** #ifndef DSY_OSCILLATOR_H
   3:../../DaisySP/Source/Synthesis/oscillator.h **** #define DSY_OSCILLATOR_H
   4:../../DaisySP/Source/Synthesis/oscillator.h **** #include <stdint.h>
   5:../../DaisySP/Source/Synthesis/oscillator.h **** #include "Utility/dsp.h"
   6:../../DaisySP/Source/Synthesis/oscillator.h **** #ifdef __cplusplus
   7:../../DaisySP/Source/Synthesis/oscillator.h **** 
   8:../../DaisySP/Source/Synthesis/oscillator.h **** namespace daisysp
   9:../../DaisySP/Source/Synthesis/oscillator.h **** {
  10:../../DaisySP/Source/Synthesis/oscillator.h **** /** Synthesis of several waveforms, including polyBLEP bandlimited waveforms.
  11:../../DaisySP/Source/Synthesis/oscillator.h **** */
  12:../../DaisySP/Source/Synthesis/oscillator.h **** class Oscillator
  13:../../DaisySP/Source/Synthesis/oscillator.h **** {
  14:../../DaisySP/Source/Synthesis/oscillator.h ****   public:
  15:../../DaisySP/Source/Synthesis/oscillator.h ****     Oscillator() {}
  16:../../DaisySP/Source/Synthesis/oscillator.h ****     ~Oscillator() {}
  17:../../DaisySP/Source/Synthesis/oscillator.h ****     /** Choices for output waveforms, POLYBLEP are appropriately labeled. Others are naive forms.
  18:../../DaisySP/Source/Synthesis/oscillator.h ****     */
  19:../../DaisySP/Source/Synthesis/oscillator.h ****     enum
  20:../../DaisySP/Source/Synthesis/oscillator.h ****     {
  21:../../DaisySP/Source/Synthesis/oscillator.h ****         WAVE_SIN,
  22:../../DaisySP/Source/Synthesis/oscillator.h ****         WAVE_TRI,
  23:../../DaisySP/Source/Synthesis/oscillator.h ****         WAVE_SAW,
  24:../../DaisySP/Source/Synthesis/oscillator.h ****         WAVE_RAMP,
  25:../../DaisySP/Source/Synthesis/oscillator.h ****         WAVE_SQUARE,
  26:../../DaisySP/Source/Synthesis/oscillator.h ****         WAVE_POLYBLEP_TRI,
  27:../../DaisySP/Source/Synthesis/oscillator.h ****         WAVE_POLYBLEP_SAW,
  28:../../DaisySP/Source/Synthesis/oscillator.h ****         WAVE_POLYBLEP_SQUARE,
  29:../../DaisySP/Source/Synthesis/oscillator.h ****         WAVE_LAST,
  30:../../DaisySP/Source/Synthesis/oscillator.h ****     };
  31:../../DaisySP/Source/Synthesis/oscillator.h **** 
  32:../../DaisySP/Source/Synthesis/oscillator.h **** 
  33:../../DaisySP/Source/Synthesis/oscillator.h ****     /** Initializes the Oscillator
  34:../../DaisySP/Source/Synthesis/oscillator.h **** 
  35:../../DaisySP/Source/Synthesis/oscillator.h ****         \param sample_rate - sample rate of the audio engine being run, and the frequency that the 
  36:../../DaisySP/Source/Synthesis/oscillator.h **** 
  37:../../DaisySP/Source/Synthesis/oscillator.h ****         Defaults:
  38:../../DaisySP/Source/Synthesis/oscillator.h ****         - freq_ = 100 Hz
  39:../../DaisySP/Source/Synthesis/oscillator.h ****         - amp_ = 0.5
  40:../../DaisySP/Source/Synthesis/oscillator.h ****         - waveform_ = sine wave.
ARM GAS  C:\Users\VINCIU~1\AppData\Local\Temp\ccA1pwKF.s 			page 141


  41:../../DaisySP/Source/Synthesis/oscillator.h ****     */
  42:../../DaisySP/Source/Synthesis/oscillator.h ****     void Init(float sample_rate)
  43:../../DaisySP/Source/Synthesis/oscillator.h ****     {
  44:../../DaisySP/Source/Synthesis/oscillator.h ****         sr_        = sample_rate;
  45:../../DaisySP/Source/Synthesis/oscillator.h ****         sr_recip_  = 1.0f / sample_rate;
  46:../../DaisySP/Source/Synthesis/oscillator.h ****         freq_      = 100.0f;
  47:../../DaisySP/Source/Synthesis/oscillator.h ****         amp_       = 0.5f;
  48:../../DaisySP/Source/Synthesis/oscillator.h ****         phase_     = 0.0f;
  49:../../DaisySP/Source/Synthesis/oscillator.h ****         phase_inc_ = CalcPhaseInc(freq_);
  50:../../DaisySP/Source/Synthesis/oscillator.h ****         waveform_  = WAVE_SIN;
  51:../../DaisySP/Source/Synthesis/oscillator.h ****         eoc_       = true;
  52:../../DaisySP/Source/Synthesis/oscillator.h ****         eor_       = true;
  53:../../DaisySP/Source/Synthesis/oscillator.h ****     }
  54:../../DaisySP/Source/Synthesis/oscillator.h **** 
  55:../../DaisySP/Source/Synthesis/oscillator.h **** 
  56:../../DaisySP/Source/Synthesis/oscillator.h ****     /** Changes the frequency of the Oscillator, and recalculates phase increment.
  57:../../DaisySP/Source/Synthesis/oscillator.h ****     */
  58:../../DaisySP/Source/Synthesis/oscillator.h ****     inline void SetFreq(const float f)
  59:../../DaisySP/Source/Synthesis/oscillator.h ****     {
  60:../../DaisySP/Source/Synthesis/oscillator.h ****         freq_      = f;
  61:../../DaisySP/Source/Synthesis/oscillator.h ****         phase_inc_ = CalcPhaseInc(f);
  62:../../DaisySP/Source/Synthesis/oscillator.h ****     }
  63:../../DaisySP/Source/Synthesis/oscillator.h **** 
  64:../../DaisySP/Source/Synthesis/oscillator.h **** 
  65:../../DaisySP/Source/Synthesis/oscillator.h ****     /** Sets the amplitude of the waveform.
  66:../../DaisySP/Source/Synthesis/oscillator.h ****     */
  67:../../DaisySP/Source/Synthesis/oscillator.h ****     inline void SetAmp(const float a) { amp_ = a; }
  68:../../DaisySP/Source/Synthesis/oscillator.h ****     /** Sets the waveform to be synthesized by the Process() function.
  69:../../DaisySP/Source/Synthesis/oscillator.h ****     */
  70:../../DaisySP/Source/Synthesis/oscillator.h ****     inline void SetWaveform(const uint8_t wf)
 5321              		.loc 7 70 17 view .LVU1405
 5322              	.LBB1329:
  71:../../DaisySP/Source/Synthesis/oscillator.h ****     {
  72:../../DaisySP/Source/Synthesis/oscillator.h ****         waveform_ = wf < WAVE_LAST ? wf : WAVE_SIN;
 5323              		.loc 7 72 9 view .LVU1406
 5324              		.loc 7 72 19 is_stmt 0 view .LVU1407
 5325 0654 0223     		movs	r3, #2
 5326              	.LVL349:
 5327              	.L373:
 5328              		.loc 7 72 19 view .LVU1408
 5329 0656 3B70     		strb	r3, [r7]
 5330              	.LBE1329:
 5331              	.LBE1328:
 289:Menus.cpp     ****                 {
 5332              		.loc 2 289 17 is_stmt 1 view .LVU1409
 5333              	.LVL350:
 289:Menus.cpp     ****                 {
 5334              		.loc 2 289 34 view .LVU1410
 291:Menus.cpp     ****                     osc[0].SetWaveform(osc[0].WAVE_SAW);
 5335              		.loc 2 291 21 view .LVU1411
 291:Menus.cpp     ****                     osc[0].SetWaveform(osc[0].WAVE_SAW);
 5336              		.loc 2 291 34 is_stmt 0 view .LVU1412
 5337 0658 D5F89021 		ldr	r2, [r5, #400]
 5338 065c C5F89C20 		str	r2, [r5, #156]
 292:Menus.cpp     ****                 }
 5339              		.loc 2 292 21 is_stmt 1 view .LVU1413
 5340              	.LVL351:
ARM GAS  C:\Users\VINCIU~1\AppData\Local\Temp\ccA1pwKF.s 			page 142


 5341              	.LBB1331:
  70:../../DaisySP/Source/Synthesis/oscillator.h ****     {
 5342              		.loc 7 70 17 view .LVU1414
 5343              	.LBB1330:
 5344              		.loc 7 72 9 view .LVU1415
 5345              		.loc 7 72 19 is_stmt 0 view .LVU1416
 5346 0660 3B70     		strb	r3, [r7]
 5347              	.LVL352:
 5348              		.loc 7 72 19 view .LVU1417
 5349              	.LBE1330:
 5350              	.LBE1331:
 289:Menus.cpp     ****                 {
 5351              		.loc 2 289 17 is_stmt 1 view .LVU1418
 289:Menus.cpp     ****                 {
 5352              		.loc 2 289 34 view .LVU1419
 5353              	.L321:
 289:Menus.cpp     ****                 {
 5354              		.loc 2 289 34 is_stmt 0 view .LVU1420
 5355              	.LBE1327:
 5356              	.LBE1326:
 5357              	.LBE1325:
 5358              	.LBE1324:
 5359              	.LBE1349:
 5360              	.LBE1354:
 5361              	.LBE1404:
 5362              	.LBE1542:
 5363              	.LBE1566:
 5364              	.LBE1621:
 296:Menus.cpp     ****             if(this->OscSelector == false)
 5365              		.loc 2 296 9 is_stmt 1 view .LVU1421
 5366              	.LBB1622:
 5367              	.LBB1567:
 5368              	.LBB1543:
 5369              	.LBB1405:
 5370              	.LBB1355:
 297:Menus.cpp     ****             {
 5371              		.loc 2 297 13 view .LVU1422
 5372              	.LBB1356:
 5373 0662 95F87430 		ldrb	r3, [r5, #116]	@ zero_extendqisi2
 5374 0666 9BB9     		cbnz	r3, .L375
 5375              	.L315:
 5376              	.LBB1357:
 299:Menus.cpp     ****                 {
 5377              		.loc 2 299 17 view .LVU1423
 307:Menus.cpp     ****                 if(setWave2 > 3)
 5378              		.loc 2 307 17 view .LVU1424
 5379              	.LVL353:
 5380              	.LBB1358:
 5381              	.LBI1358:
  41:../../libdaisy/src/hid/encoder.h ****     /** Returns true if the encoder was just pressed.
 5382              		.loc 3 41 20 view .LVU1425
 5383              	.LBB1359:
  41:../../libdaisy/src/hid/encoder.h ****     /** Returns true if the encoder was just pressed.
 5384              		.loc 3 41 40 view .LVU1426
  41:../../libdaisy/src/hid/encoder.h ****     /** Returns true if the encoder was just pressed.
 5385              		.loc 3 41 40 is_stmt 0 view .LVU1427
 5386              	.LBE1359:
ARM GAS  C:\Users\VINCIU~1\AppData\Local\Temp\ccA1pwKF.s 			page 143


 5387              	.LBE1358:
 307:Menus.cpp     ****                 if(setWave2 > 3)
 5388              		.loc 2 307 32 view .LVU1428
 5389 0668 D5F89431 		ldr	r3, [r5, #404]
 5390 066c AA6C     		ldr	r2, [r5, #72]
 5391 066e 83F30203 		usat	r3, #2, r3
 5392 0672 1344     		add	r3, r3, r2
 308:Menus.cpp     ****                 {
 5393              		.loc 2 308 17 is_stmt 1 view .LVU1429
 5394 0674 032B     		cmp	r3, #3
 5395 0676 79DD     		ble	.L324
 310:Menus.cpp     ****                 }
 5396              		.loc 2 310 21 view .LVU1430
 310:Menus.cpp     ****                 }
 5397              		.loc 2 310 36 is_stmt 0 view .LVU1431
 5398 0678 0323     		movs	r3, #3
 5399 067a C5F89431 		str	r3, [r5, #404]
 312:Menus.cpp     ****                 {
 5400              		.loc 2 312 17 is_stmt 1 view .LVU1432
 316:Menus.cpp     ****                 {
 5401              		.loc 2 316 17 view .LVU1433
 5402              	.LBE1357:
 5403              	.LBE1356:
 5404              	.LBE1355:
 5405              	.LBE1405:
 5406              	.LBE1543:
 5407              	.LBE1567:
 5408              	.LBE1622:
 324:Menus.cpp     ****                 {
 5409              		.loc 2 324 22 view .LVU1434
 5410              	.L325:
 5411              	.LVL354:
 5412              	.LBB1623:
 5413              	.LBB1568:
 5414              	.LBB1544:
 5415              	.LBB1406:
 5416              	.LBB1391:
 5417              	.LBB1386:
 5418              	.LBB1381:
 5419              	.LBB1360:
 5420              	.LBB1361:
 5421              	.LBB1362:
 5422              	.LBB1363:
 342:Menus.cpp     ****                     {
 5423              		.loc 2 342 38 view .LVU1435
 344:Menus.cpp     ****                         osc[1].SetWaveform(osc[1].WAVE_SAW);
 5424              		.loc 2 344 25 view .LVU1436
 345:Menus.cpp     ****                     }
 5425              		.loc 2 345 25 view .LVU1437
 5426              	.LBB1364:
 5427              	.LBI1364:
  70:../../DaisySP/Source/Synthesis/oscillator.h ****     {
 5428              		.loc 7 70 17 view .LVU1438
 5429              	.LBB1365:
 5430              		.loc 7 72 9 view .LVU1439
 5431              		.loc 7 72 19 is_stmt 0 view .LVU1440
 5432 067e 0223     		movs	r3, #2
ARM GAS  C:\Users\VINCIU~1\AppData\Local\Temp\ccA1pwKF.s 			page 144


 5433              	.LVL355:
 5434              	.L374:
 5435              		.loc 7 72 19 view .LVU1441
 5436 0680 87F82830 		strb	r3, [r7, #40]
 5437              	.LBE1365:
 5438              	.LBE1364:
 342:Menus.cpp     ****                     {
 5439              		.loc 2 342 21 is_stmt 1 view .LVU1442
 5440              	.LVL356:
 342:Menus.cpp     ****                     {
 5441              		.loc 2 342 38 view .LVU1443
 344:Menus.cpp     ****                         osc[1].SetWaveform(osc[1].WAVE_SAW);
 5442              		.loc 2 344 25 view .LVU1444
 344:Menus.cpp     ****                         osc[1].SetWaveform(osc[1].WAVE_SAW);
 5443              		.loc 2 344 39 is_stmt 0 view .LVU1445
 5444 0684 D5F89421 		ldr	r2, [r5, #404]
 5445 0688 C5F8A020 		str	r2, [r5, #160]
 345:Menus.cpp     ****                     }
 5446              		.loc 2 345 25 is_stmt 1 view .LVU1446
 5447              	.LVL357:
 5448              	.LBB1367:
  70:../../DaisySP/Source/Synthesis/oscillator.h ****     {
 5449              		.loc 7 70 17 view .LVU1447
 5450              	.LBB1366:
 5451              		.loc 7 72 9 view .LVU1448
 5452              		.loc 7 72 19 is_stmt 0 view .LVU1449
 5453 068c 87F82830 		strb	r3, [r7, #40]
 5454              	.LVL358:
 5455              	.L375:
 5456              		.loc 7 72 19 view .LVU1450
 5457              	.LBE1366:
 5458              	.LBE1367:
 342:Menus.cpp     ****                     {
 5459              		.loc 2 342 21 is_stmt 1 view .LVU1451
 342:Menus.cpp     ****                     {
 5460              		.loc 2 342 38 view .LVU1452
 5461              	.LBE1363:
 5462              	.LBE1362:
 5463              	.LBE1361:
 5464              	.LBE1360:
 5465              	.LBE1381:
 5466              	.LBE1386:
 351:Menus.cpp     ****                             screen.Height() / 2 - 3,
 5467              		.loc 2 351 28 is_stmt 0 view .LVU1453
 5468 0690 95F8BC31 		ldrb	r3, [r5, #444]	@ zero_extendqisi2
 351:Menus.cpp     ****                             screen.Height() / 2 - 3,
 5469              		.loc 2 351 13 is_stmt 1 view .LVU1454
 351:Menus.cpp     ****                             screen.Height() / 2 - 3,
 5470              		.loc 2 351 28 is_stmt 0 view .LVU1455
 5471 0694 0022     		movs	r2, #0
 5472 0696 3F21     		movs	r1, #63
 5473 0698 2046     		mov	r0, r4
 5474 069a CDE90132 		strd	r3, r2, [sp, #4]
 5475 069e 1D22     		movs	r2, #29
 5476 06a0 0091     		str	r1, [sp]
 5477 06a2 3C23     		movs	r3, #60
 5478 06a4 1146     		mov	r1, r2
ARM GAS  C:\Users\VINCIU~1\AppData\Local\Temp\ccA1pwKF.s 			page 145


 5479 06a6 FFF7FEFF 		bl	_ZN5daisy25OneBitGraphicsDisplayImplINS_11OledDisplayINS_13SSD130xDriverILj128ELj64ENS_24SSD130
 5480              	.LVL359:
 5481              	.LBE1391:
 5482 06aa 3DE7     		b	.L282
 5483              	.LVL360:
 5484              	.L262:
 351:Menus.cpp     ****                             screen.Height() / 2 - 3,
 5485              		.loc 2 351 28 view .LVU1456
 5486              	.LBE1406:
 5487              	.LBE1544:
 5488              	.LBE1568:
 5489              	.LBE1623:
 103:Menus.cpp     ****         }
 5490              		.loc 2 103 13 is_stmt 1 view .LVU1457
 103:Menus.cpp     ****         }
 5491              		.loc 2 103 23 is_stmt 0 view .LVU1458
 5492 06ac 0323     		movs	r3, #3
 5493 06ae EB66     		str	r3, [r5, #108]
 106:Menus.cpp     **** 
 5494              		.loc 2 106 5 is_stmt 1 view .LVU1459
 5495              	.LVL361:
 5496              	.LBB1624:
 5497              		.loc 4 69 17 view .LVU1460
 5498              	.LBB1254:
 5499              		.loc 4 69 38 view .LVU1461
 5500              		.loc 4 69 38 is_stmt 0 view .LVU1462
 5501              	.LBE1254:
 5502              	.LBE1624:
 106:Menus.cpp     **** 
 5503              		.loc 2 106 5 view .LVU1463
 5504 06b0 95F86130 		ldrb	r3, [r5, #97]	@ zero_extendqisi2
 5505 06b4 7F2B     		cmp	r3, #127
 5506 06b6 7FF4C2AC 		bne	.L264
 5507 06ba 86E7     		b	.L263
 5508              	.LVL362:
 5509              	.L304:
 5510              	.LBB1625:
 5511              	.LBB1569:
 5512              	.LBB1545:
 5513              	.LBB1534:
 5514              	.LBB1532:
 5515              	.LBB1531:
 5516              	.LBB1519:
 5517              	.LBB1518:
 5518              	.LBB1516:
 5519              	.LBI1516:
 239:../../libdaisy/src/dev/oled_ssd130x.h ****     {
 5520              		.loc 6 239 10 is_stmt 1 view .LVU1464
 5521              	.LBB1517:
 246:../../libdaisy/src/dev/oled_ssd130x.h ****     }
 5522              		.loc 6 246 42 is_stmt 0 view .LVU1465
 5523 06bc 02F0FE02 		and	r2, r2, #254
 5524 06c0 0CE7     		b	.L305
 5525              	.LVL363:
 5526              	.L299:
 246:../../libdaisy/src/dev/oled_ssd130x.h ****     }
 5527              		.loc 6 246 42 view .LVU1466
ARM GAS  C:\Users\VINCIU~1\AppData\Local\Temp\ccA1pwKF.s 			page 146


 5528              	.LBE1517:
 5529              	.LBE1516:
 5530              	.LBE1518:
 5531              	.LBE1519:
 5532              	.LBE1531:
 5533              	.LBE1532:
 5534              	.LBE1534:
 5535              	.LBB1535:
 5536              	.LBB1510:
 5537              	.LBB1509:
 5538              	.LBB1491:
 5539              	.LBB1490:
 5540              	.LBB1488:
 5541              	.LBI1488:
 239:../../libdaisy/src/dev/oled_ssd130x.h ****     {
 5542              		.loc 6 239 10 is_stmt 1 view .LVU1467
 5543              	.LBB1489:
 246:../../libdaisy/src/dev/oled_ssd130x.h ****     }
 5544              		.loc 6 246 42 is_stmt 0 view .LVU1468
 5545 06c2 02F0DF02 		and	r2, r2, #223
 5546 06c6 ECE6     		b	.L300
 5547              	.LVL364:
 5548              	.L294:
 246:../../libdaisy/src/dev/oled_ssd130x.h ****     }
 5549              		.loc 6 246 42 view .LVU1469
 5550              	.LBE1489:
 5551              	.LBE1488:
 5552              	.LBE1490:
 5553              	.LBE1491:
 5554              	.LBE1509:
 5555              	.LBE1510:
 5556              	.LBE1535:
 5557              	.LBB1536:
 5558              	.LBB1481:
 5559              	.LBB1479:
 5560              	.LBB1451:
 5561              	.LBB1450:
 5562              	.LBB1448:
 5563              	.LBI1448:
 239:../../libdaisy/src/dev/oled_ssd130x.h ****     {
 5564              		.loc 6 239 10 is_stmt 1 view .LVU1470
 5565              	.LBB1449:
 246:../../libdaisy/src/dev/oled_ssd130x.h ****     }
 5566              		.loc 6 246 42 is_stmt 0 view .LVU1471
 5567 06c8 02F0DF02 		and	r2, r2, #223
 5568 06cc C5E6     		b	.L295
 5569              	.LVL365:
 5570              	.L383:
 246:../../libdaisy/src/dev/oled_ssd130x.h ****     }
 5571              		.loc 6 246 42 view .LVU1472
 5572              	.LBE1449:
 5573              	.LBE1448:
 5574              	.LBE1450:
 5575              	.LBE1451:
 5576              	.LBE1479:
 5577              	.LBE1481:
 5578              	.LBE1536:
ARM GAS  C:\Users\VINCIU~1\AppData\Local\Temp\ccA1pwKF.s 			page 147


 5579              	.LBE1545:
 5580              	.LBB1546:
 219:Menus.cpp     **** 
 5581              		.loc 2 219 9 is_stmt 1 view .LVU1473
 5582 06ce 95F87420 		ldrb	r2, [r5, #116]	@ zero_extendqisi2
 5583 06d2 FAB1     		cbz	r2, .L310
 222:Menus.cpp     ****             {
 5584              		.loc 2 222 13 view .LVU1474
 5585              	.LVL366:
 5586              	.LBB1407:
 5587              	.LBI1407:
  41:../../libdaisy/src/hid/encoder.h ****     /** Returns true if the encoder was just pressed.
 5588              		.loc 3 41 20 view .LVU1475
 5589              	.LBB1408:
  41:../../libdaisy/src/hid/encoder.h ****     /** Returns true if the encoder was just pressed.
 5590              		.loc 3 41 40 view .LVU1476
  41:../../libdaisy/src/hid/encoder.h ****     /** Returns true if the encoder was just pressed.
 5591              		.loc 3 41 47 is_stmt 0 view .LVU1477
 5592 06d4 AA6C     		ldr	r2, [r5, #72]
 5593              	.LVL367:
  41:../../libdaisy/src/hid/encoder.h ****     /** Returns true if the encoder was just pressed.
 5594              		.loc 3 41 47 view .LVU1478
 5595              	.LBE1408:
 5596              	.LBE1407:
 222:Menus.cpp     ****             {
 5597              		.loc 2 222 13 view .LVU1479
 5598 06d6 012A     		cmp	r2, #1
 5599 06d8 30D0     		beq	.L397
 227:Menus.cpp     ****             {
 5600              		.loc 2 227 13 is_stmt 1 view .LVU1480
 5601              	.LVL368:
 227:Menus.cpp     ****             {
 5602              		.loc 2 227 13 is_stmt 0 view .LVU1481
 5603              	.LBE1546:
 5604              	.LBE1569:
 5605              	.LBE1625:
  41:../../libdaisy/src/hid/encoder.h ****     /** Returns true if the encoder was just pressed.
 5606              		.loc 3 41 40 is_stmt 1 view .LVU1482
 5607              	.LBB1626:
 5608              	.LBB1570:
 5609              	.LBB1547:
 227:Menus.cpp     ****             {
 5610              		.loc 2 227 13 is_stmt 0 view .LVU1483
 5611 06da 0132     		adds	r2, r2, #1
 5612 06dc 23D1     		bne	.L312
 229:Menus.cpp     ****                 this->toggleOsc = true;
 5613              		.loc 2 229 17 is_stmt 1 view .LVU1484
 230:Menus.cpp     ****             }
 5614              		.loc 2 230 33 is_stmt 0 view .LVU1485
 5615 06de 85F89830 		strb	r3, [r5, #152]
 229:Menus.cpp     ****                 this->toggleOsc = true;
 5616              		.loc 2 229 33 view .LVU1486
 5617 06e2 0023     		movs	r3, #0
 5618 06e4 C5F86C31 		str	r3, [r5, #364]
 230:Menus.cpp     ****             }
 5619              		.loc 2 230 17 is_stmt 1 view .LVU1487
 5620 06e8 1DE0     		b	.L312
ARM GAS  C:\Users\VINCIU~1\AppData\Local\Temp\ccA1pwKF.s 			page 148


 5621              	.L347:
 230:Menus.cpp     ****             }
 5622              		.loc 2 230 17 is_stmt 0 view .LVU1488
 5623              	.LBE1547:
 5624 06ea B0EE667A 		vmov.f32	s14, s13
 5625 06ee 73E6     		b	.L288
 5626              	.L345:
 230:Menus.cpp     ****             }
 5627              		.loc 2 230 17 view .LVU1489
 5628 06f0 DFED057A 		vldr.32	s15, .L403+12
 5629 06f4 5FE6     		b	.L287
 5630              	.L343:
 230:Menus.cpp     ****             }
 5631              		.loc 2 230 17 view .LVU1490
 5632 06f6 F0EE477A 		vmov.f32	s15, s14
 5633 06fa 81E7     		b	.L285
 5634              	.L404:
 5635              		.align	2
 5636              	.L403:
 5637 06fc 08000000 		.word	.LC5
 5638 0700 00002042 		.word	1109393408
 5639 0704 00000000 		.word	0
 5640 0708 00000042 		.word	1107296256
 5641 070c 0000003D 		.word	1023410176
 5642 0710 0000C842 		.word	1120403456
 5643              	.L310:
 5644              	.LBB1548:
 235:Menus.cpp     ****             {
 5645              		.loc 2 235 13 is_stmt 1 view .LVU1491
 5646              	.LVL369:
 5647              	.LBB1409:
 5648              	.LBI1409:
  41:../../libdaisy/src/hid/encoder.h ****     /** Returns true if the encoder was just pressed.
 5649              		.loc 3 41 20 view .LVU1492
 5650              	.LBB1410:
  41:../../libdaisy/src/hid/encoder.h ****     /** Returns true if the encoder was just pressed.
 5651              		.loc 3 41 40 view .LVU1493
  41:../../libdaisy/src/hid/encoder.h ****     /** Returns true if the encoder was just pressed.
 5652              		.loc 3 41 47 is_stmt 0 view .LVU1494
 5653 0714 A96C     		ldr	r1, [r5, #72]
 5654              	.LVL370:
  41:../../libdaisy/src/hid/encoder.h ****     /** Returns true if the encoder was just pressed.
 5655              		.loc 3 41 47 view .LVU1495
 5656              	.LBE1410:
 5657              	.LBE1409:
 235:Menus.cpp     ****             {
 5658              		.loc 2 235 13 view .LVU1496
 5659 0716 0129     		cmp	r1, #1
 5660 0718 16D0     		beq	.L398
 240:Menus.cpp     ****             {
 5661              		.loc 2 240 13 is_stmt 1 view .LVU1497
 5662              	.LVL371:
 240:Menus.cpp     ****             {
 5663              		.loc 2 240 13 is_stmt 0 view .LVU1498
 5664              	.LBE1548:
 5665              	.LBE1570:
 5666              	.LBE1626:
ARM GAS  C:\Users\VINCIU~1\AppData\Local\Temp\ccA1pwKF.s 			page 149


  41:../../libdaisy/src/hid/encoder.h ****     /** Returns true if the encoder was just pressed.
 5667              		.loc 3 41 40 is_stmt 1 view .LVU1499
 5668              	.LBB1627:
 5669              	.LBB1571:
 5670              	.LBB1549:
 240:Menus.cpp     ****             {
 5671              		.loc 2 240 13 is_stmt 0 view .LVU1500
 5672 071a 0131     		adds	r1, r1, #1
 5673 071c 03D1     		bne	.L312
 242:Menus.cpp     ****                 this->toggleOsc2 = true;
 5674              		.loc 2 242 17 is_stmt 1 view .LVU1501
 242:Menus.cpp     ****                 this->toggleOsc2 = true;
 5675              		.loc 2 242 34 is_stmt 0 view .LVU1502
 5676 071e C5F87021 		str	r2, [r5, #368]
 243:Menus.cpp     ****             }
 5677              		.loc 2 243 17 is_stmt 1 view .LVU1503
 243:Menus.cpp     ****             }
 5678              		.loc 2 243 34 is_stmt 0 view .LVU1504
 5679 0722 85F89930 		strb	r3, [r5, #153]
 5680              	.L312:
 247:Menus.cpp     ****             0, screen.Height() / 2 - 3, 29, screen.Height() - 1, on, false);
 5681              		.loc 2 247 9 is_stmt 1 view .LVU1505
 247:Menus.cpp     ****             0, screen.Height() / 2 - 3, 29, screen.Height() - 1, on, false);
 5682              		.loc 2 247 24 is_stmt 0 view .LVU1506
 5683 0726 3F23     		movs	r3, #63
 5684 0728 0021     		movs	r1, #0
 5685 072a 0093     		str	r3, [sp]
 5686 072c 1D23     		movs	r3, #29
 5687 072e CDE90101 		strd	r0, r1, [sp, #4]
 5688 0732 1A46     		mov	r2, r3
 5689 0734 2046     		mov	r0, r4
 5690 0736 FFF7FEFF 		bl	_ZN5daisy25OneBitGraphicsDisplayImplINS_11OledDisplayINS_13SSD130xDriverILj128ELj64ENS_24SSD130
 5691              	.LVL372:
 5692 073a F5E6     		b	.L282
 5693              	.L397:
 224:Menus.cpp     ****                 this->toggleOsc = false;
 5694              		.loc 2 224 17 is_stmt 1 view .LVU1507
 225:Menus.cpp     ****             }
 5695              		.loc 2 225 33 is_stmt 0 view .LVU1508
 5696 073c 0023     		movs	r3, #0
 224:Menus.cpp     ****                 this->toggleOsc = false;
 5697              		.loc 2 224 33 view .LVU1509
 5698 073e C5F86C21 		str	r2, [r5, #364]
 225:Menus.cpp     ****             }
 5699              		.loc 2 225 17 is_stmt 1 view .LVU1510
 225:Menus.cpp     ****             }
 5700              		.loc 2 225 33 is_stmt 0 view .LVU1511
 5701 0742 85F89830 		strb	r3, [r5, #152]
 227:Menus.cpp     ****             {
 5702              		.loc 2 227 13 is_stmt 1 view .LVU1512
 5703              	.LVL373:
 227:Menus.cpp     ****             {
 5704              		.loc 2 227 13 is_stmt 0 view .LVU1513
 5705              	.LBE1549:
 5706              	.LBE1571:
 5707              	.LBE1627:
  41:../../libdaisy/src/hid/encoder.h ****     /** Returns true if the encoder was just pressed.
ARM GAS  C:\Users\VINCIU~1\AppData\Local\Temp\ccA1pwKF.s 			page 150


 5708              		.loc 3 41 40 is_stmt 1 view .LVU1514
  41:../../libdaisy/src/hid/encoder.h ****     /** Returns true if the encoder was just pressed.
 5709              		.loc 3 41 40 is_stmt 0 view .LVU1515
 5710 0746 EEE7     		b	.L312
 5711              	.L398:
 5712              	.LBB1628:
 5713              	.LBB1572:
 5714              	.LBB1550:
 237:Menus.cpp     ****                 this->toggleOsc2 = false;
 5715              		.loc 2 237 17 is_stmt 1 view .LVU1516
 237:Menus.cpp     ****                 this->toggleOsc2 = false;
 5716              		.loc 2 237 34 is_stmt 0 view .LVU1517
 5717 0748 C5F87011 		str	r1, [r5, #368]
 238:Menus.cpp     ****             }
 5718              		.loc 2 238 17 is_stmt 1 view .LVU1518
 238:Menus.cpp     ****             }
 5719              		.loc 2 238 34 is_stmt 0 view .LVU1519
 5720 074c 85F89920 		strb	r2, [r5, #153]
 240:Menus.cpp     ****             {
 5721              		.loc 2 240 13 is_stmt 1 view .LVU1520
 5722              	.LVL374:
 240:Menus.cpp     ****             {
 5723              		.loc 2 240 13 is_stmt 0 view .LVU1521
 5724              	.LBE1550:
 5725              	.LBE1572:
 5726              	.LBE1628:
  41:../../libdaisy/src/hid/encoder.h ****     /** Returns true if the encoder was just pressed.
 5727              		.loc 3 41 40 is_stmt 1 view .LVU1522
  41:../../libdaisy/src/hid/encoder.h ****     /** Returns true if the encoder was just pressed.
 5728              		.loc 3 41 40 is_stmt 0 view .LVU1523
 5729 0750 E9E7     		b	.L312
 5730              	.L316:
 5731              	.LBB1629:
 5732              	.LBB1573:
 5733              	.LBB1551:
 5734              	.LBB1411:
 5735              	.LBB1392:
 5736              	.LBB1350:
 259:Menus.cpp     ****             {
 5737              		.loc 2 259 13 is_stmt 1 view .LVU1524
 5738 0752 002B     		cmp	r3, #0
 5739 0754 68DA     		bge	.L318
 261:Menus.cpp     ****             }
 5740              		.loc 2 261 17 view .LVU1525
 261:Menus.cpp     ****             }
 5741              		.loc 2 261 31 is_stmt 0 view .LVU1526
 5742 0756 0023     		movs	r3, #0
 5743 0758 C5F89031 		str	r3, [r5, #400]
 263:Menus.cpp     ****             {
 5744              		.loc 2 263 13 is_stmt 1 view .LVU1527
 5745              	.L319:
 5746              	.LVL375:
 5747              	.LBB1345:
 5748              	.LBB1338:
 265:Menus.cpp     ****                 {
 5749              		.loc 2 265 34 view .LVU1528
 267:Menus.cpp     ****                     osc[0].SetWaveform(osc[0].WAVE_SIN);
ARM GAS  C:\Users\VINCIU~1\AppData\Local\Temp\ccA1pwKF.s 			page 151


 5750              		.loc 2 267 21 view .LVU1529
 268:Menus.cpp     ****                 }
 5751              		.loc 2 268 21 view .LVU1530
 5752              	.LBB1339:
 5753              	.LBI1339:
  70:../../DaisySP/Source/Synthesis/oscillator.h ****     {
 5754              		.loc 7 70 17 view .LVU1531
 5755              	.LBB1340:
 5756              		.loc 7 72 9 view .LVU1532
 5757              		.loc 7 72 19 is_stmt 0 view .LVU1533
 5758 075c 0023     		movs	r3, #0
 5759 075e 3B70     		strb	r3, [r7]
 5760              	.LVL376:
 5761              		.loc 7 72 19 view .LVU1534
 5762              	.LBE1340:
 5763              	.LBE1339:
 265:Menus.cpp     ****                 {
 5764              		.loc 2 265 17 is_stmt 1 view .LVU1535
 265:Menus.cpp     ****                 {
 5765              		.loc 2 265 34 view .LVU1536
 267:Menus.cpp     ****                     osc[0].SetWaveform(osc[0].WAVE_SIN);
 5766              		.loc 2 267 21 view .LVU1537
 267:Menus.cpp     ****                     osc[0].SetWaveform(osc[0].WAVE_SIN);
 5767              		.loc 2 267 34 is_stmt 0 view .LVU1538
 5768 0760 D5F89021 		ldr	r2, [r5, #400]
 5769 0764 C5F89C20 		str	r2, [r5, #156]
 268:Menus.cpp     ****                 }
 5770              		.loc 2 268 21 is_stmt 1 view .LVU1539
 5771              	.LVL377:
 5772              	.LBB1342:
  70:../../DaisySP/Source/Synthesis/oscillator.h ****     {
 5773              		.loc 7 70 17 view .LVU1540
 5774              	.LBB1341:
 5775              		.loc 7 72 9 view .LVU1541
 5776              		.loc 7 72 19 is_stmt 0 view .LVU1542
 5777 0768 3B70     		strb	r3, [r7]
 5778              	.LVL378:
 5779              		.loc 7 72 19 view .LVU1543
 5780              	.LBE1341:
 5781              	.LBE1342:
 265:Menus.cpp     ****                 {
 5782              		.loc 2 265 17 is_stmt 1 view .LVU1544
 265:Menus.cpp     ****                 {
 5783              		.loc 2 265 34 view .LVU1545
 5784 076a 7AE7     		b	.L321
 5785              	.LVL379:
 5786              	.L324:
 265:Menus.cpp     ****                 {
 5787              		.loc 2 265 34 is_stmt 0 view .LVU1546
 5788              	.LBE1338:
 5789              	.LBE1345:
 5790              	.LBE1350:
 5791              	.LBE1392:
 5792              	.LBB1393:
 5793              	.LBB1387:
 5794              	.LBB1382:
 312:Menus.cpp     ****                 {
ARM GAS  C:\Users\VINCIU~1\AppData\Local\Temp\ccA1pwKF.s 			page 152


 5795              		.loc 2 312 17 is_stmt 1 view .LVU1547
 5796 076c 002B     		cmp	r3, #0
 5797 076e 6CDA     		bge	.L326
 314:Menus.cpp     ****                 }
 5798              		.loc 2 314 21 view .LVU1548
 314:Menus.cpp     ****                 }
 5799              		.loc 2 314 36 is_stmt 0 view .LVU1549
 5800 0770 0023     		movs	r3, #0
 5801 0772 C5F89431 		str	r3, [r5, #404]
 316:Menus.cpp     ****                 {
 5802              		.loc 2 316 17 is_stmt 1 view .LVU1550
 5803              	.L327:
 5804              	.LVL380:
 5805              	.LBB1377:
 5806              	.LBB1372:
 318:Menus.cpp     ****                     {
 5807              		.loc 2 318 38 view .LVU1551
 320:Menus.cpp     ****                         osc[1].SetWaveform(osc[1].WAVE_SIN);
 5808              		.loc 2 320 25 view .LVU1552
 321:Menus.cpp     ****                     }
 5809              		.loc 2 321 25 view .LVU1553
 5810              	.LBB1373:
 5811              	.LBI1373:
  70:../../DaisySP/Source/Synthesis/oscillator.h ****     {
 5812              		.loc 7 70 17 view .LVU1554
 5813              	.LBB1374:
 5814              		.loc 7 72 9 view .LVU1555
 5815              		.loc 7 72 19 is_stmt 0 view .LVU1556
 5816 0776 0023     		movs	r3, #0
 5817 0778 82E7     		b	.L374
 5818              	.LVL381:
 5819              	.L331:
 5820              		.loc 7 72 19 view .LVU1557
 5821              	.LBE1374:
 5822              	.LBE1373:
 5823              	.LBE1372:
 5824              	.LBE1377:
 5825              	.LBE1382:
 5826              	.LBE1387:
 5827              	.LBE1393:
 393:Menus.cpp     ****             {
 5828              		.loc 2 393 13 is_stmt 1 view .LVU1558
 393:Menus.cpp     ****             {
 5829              		.loc 2 393 22 is_stmt 0 view .LVU1559
 5830 077a D5ED5E7A 		vldr.32	s15, [r5, #376]
 393:Menus.cpp     ****             {
 5831              		.loc 2 393 13 view .LVU1560
 5832 077e F4EEC77A 		vcmpe.f32	s15, s14
 5833 0782 F1EE10FA 		vmrs	APSR_nzcv, FPSCR
 5834 0786 35DD     		ble	.L399
 5835 0788 F0EE477A 		vmov.f32	s15, s14
 5836              	.L335:
 401:Menus.cpp     ****             {
 5837              		.loc 2 401 13 is_stmt 1 view .LVU1561
 5838 078c F7EE006A 		vmov.f32	s13, #1.0e+0
 401:Menus.cpp     ****             {
 5839              		.loc 2 401 22 is_stmt 0 view .LVU1562
ARM GAS  C:\Users\VINCIU~1\AppData\Local\Temp\ccA1pwKF.s 			page 153


 5840 0790 95ED217A 		vldr.32	s14, [r5, #132]
 401:Menus.cpp     ****             {
 5841              		.loc 2 401 13 view .LVU1563
 5842 0794 B4EEE67A 		vcmpe.f32	s14, s13
 5843 0798 F1EE10FA 		vmrs	APSR_nzcv, FPSCR
 5844 079c 22DB     		blt	.L400
 5845 079e B0EE667A 		vmov.f32	s14, s13
 5846              	.L336:
 410:Menus.cpp     ****             this->drawSliderFine2
 5847              		.loc 2 410 13 is_stmt 1 view .LVU1564
 5848              	.LVL382:
 5849              	.LBB1394:
 5850              	.LBI1394:
  41:../../libdaisy/src/hid/encoder.h ****     /** Returns true if the encoder was just pressed.
 5851              		.loc 3 41 20 view .LVU1565
 5852              	.LBB1395:
  41:../../libdaisy/src/hid/encoder.h ****     /** Returns true if the encoder was just pressed.
 5853              		.loc 3 41 40 view .LVU1566
  41:../../libdaisy/src/hid/encoder.h ****     /** Returns true if the encoder was just pressed.
 5854              		.loc 3 41 40 is_stmt 0 view .LVU1567
 5855              	.LBE1395:
 5856              	.LBE1394:
 410:Menus.cpp     ****             this->drawSliderFine2
 5857              		.loc 2 410 34 view .LVU1568
 5858 07a2 D5ED126A 		vldr.32	s13, [r5, #72]	@ int
 413:Menus.cpp     ****         }
 5859              		.loc 2 413 20 view .LVU1569
 5860 07a6 05F1EC00 		add	r0, r5, #236
 410:Menus.cpp     ****             this->drawSliderFine2
 5861              		.loc 2 410 29 view .LVU1570
 5862 07aa 5FED285A 		vldr.32	s11, .L403+16
 410:Menus.cpp     ****             this->drawSliderFine2
 5863              		.loc 2 410 34 view .LVU1571
 5864 07ae F8EEE66A 		vcvt.f32.s32	s13, s13
 413:Menus.cpp     ****         }
 5865              		.loc 2 413 67 view .LVU1572
 5866 07b2 1FED296A 		vldr.32	s12, .L403+20
 413:Menus.cpp     ****         }
 5867              		.loc 2 413 20 view .LVU1573
 5868 07b6 2A49     		ldr	r1, .L405
 410:Menus.cpp     ****             this->drawSliderFine2
 5869              		.loc 2 410 29 view .LVU1574
 5870 07b8 E6EEA57A 		vfma.f32	s15, s13, s11
 412:Menus.cpp     ****             sprintf(this->buffFine2, "Fine_%d%%", (int)(freqFine2 * 100));
 5871              		.loc 2 412 17 view .LVU1575
 5872 07bc A6EEA57A 		vfma.f32	s14, s13, s11
 413:Menus.cpp     ****         }
 5873              		.loc 2 413 67 view .LVU1576
 5874 07c0 67EE866A 		vmul.f32	s13, s15, s12
 410:Menus.cpp     ****             this->drawSliderFine2
 5875              		.loc 2 410 29 view .LVU1577
 5876 07c4 C5ED5E7A 		vstr.32	s15, [r5, #376]
 411:Menus.cpp     ****                 += (((float)this->encoderRight.Increment()) / 32);
 5877              		.loc 2 411 13 is_stmt 1 view .LVU1578
 5878              	.LVL383:
 411:Menus.cpp     ****                 += (((float)this->encoderRight.Increment()) / 32);
 5879              		.loc 2 411 13 is_stmt 0 view .LVU1579
ARM GAS  C:\Users\VINCIU~1\AppData\Local\Temp\ccA1pwKF.s 			page 154


 5880              	.LBE1411:
 5881              	.LBE1551:
 5882              	.LBE1573:
 5883              	.LBE1629:
  41:../../libdaisy/src/hid/encoder.h ****     /** Returns true if the encoder was just pressed.
 5884              		.loc 3 41 40 is_stmt 1 view .LVU1580
 5885              	.LBB1630:
 5886              	.LBB1574:
 5887              	.LBB1552:
 5888              	.LBB1412:
 412:Menus.cpp     ****             sprintf(this->buffFine2, "Fine_%d%%", (int)(freqFine2 * 100));
 5889              		.loc 2 412 17 is_stmt 0 view .LVU1581
 5890 07c8 85ED217A 		vstr.32	s14, [r5, #132]
 413:Menus.cpp     ****         }
 5891              		.loc 2 413 13 is_stmt 1 view .LVU1582
 413:Menus.cpp     ****         }
 5892              		.loc 2 413 20 is_stmt 0 view .LVU1583
 5893 07cc FDEEE67A 		vcvt.s32.f32	s15, s13
 5894 07d0 17EE902A 		vmov	r2, s15	@ int
 5895 07d4 FFF7FEFF 		bl	sprintf
 5896              	.LVL384:
 5897 07d8 45E5     		b	.L334
 5898              	.L388:
 413:Menus.cpp     ****         }
 5899              		.loc 2 413 20 view .LVU1584
 5900              	.LBE1412:
 5901              	.LBE1552:
 207:Menus.cpp     ****             this->drawSliderSemi2
 5902              		.loc 2 207 32 view .LVU1585
 5903 07da 07EE903A 		vmov	s15, r3	@ int
 5904 07de F8EEE77A 		vcvt.f32.s32	s15, s15
 5905 07e2 E8E5     		b	.L287
 5906              	.L400:
 5907              	.LBB1553:
 5908              	.LBB1413:
 405:Menus.cpp     ****             {
 5909              		.loc 2 405 13 is_stmt 1 view .LVU1586
 5910 07e4 B5EEC07A 		vcmpe.f32	s14, #0
 5911 07e8 F1EE10FA 		vmrs	APSR_nzcv, FPSCR
 5912 07ec D9D5     		bpl	.L336
 5913 07ee 9FED1D7A 		vldr.32	s14, .L405+4
 5914 07f2 D6E7     		b	.L336
 5915              	.L399:
 397:Menus.cpp     ****             {
 5916              		.loc 2 397 13 view .LVU1587
 5917 07f4 F5EEC07A 		vcmpe.f32	s15, #0
 5918 07f8 F1EE10FA 		vmrs	APSR_nzcv, FPSCR
 5919 07fc C6D5     		bpl	.L335
 5920 07fe DFED197A 		vldr.32	s15, .L405+4
 5921 0802 C3E7     		b	.L335
 5922              	.L386:
 381:Menus.cpp     ****             {
 5923              		.loc 2 381 13 view .LVU1588
 5924 0804 B5EEC07A 		vcmpe.f32	s14, #0
 5925 0808 F1EE10FA 		vmrs	APSR_nzcv, FPSCR
 5926 080c 7FF510AD 		bpl	.L333
 5927 0810 9FED147A 		vldr.32	s14, .L405+4
ARM GAS  C:\Users\VINCIU~1\AppData\Local\Temp\ccA1pwKF.s 			page 155


 5928 0814 0CE5     		b	.L333
 5929              	.L385:
 373:Menus.cpp     ****             {
 5930              		.loc 2 373 13 view .LVU1589
 5931 0816 F5EEC07A 		vcmpe.f32	s15, #0
 5932 081a F1EE10FA 		vmrs	APSR_nzcv, FPSCR
 5933 081e 7FF5FBAC 		bpl	.L332
 5934 0822 DFED107A 		vldr.32	s15, .L405+4
 5935 0826 F7E4     		b	.L332
 5936              	.L318:
 5937              	.LBB1396:
 5938              	.LBB1351:
 254:Menus.cpp     ****             if(setWave > 3)
 5939              		.loc 2 254 27 is_stmt 0 view .LVU1590
 5940 0828 C5F89031 		str	r3, [r5, #400]
 263:Menus.cpp     ****             {
 5941              		.loc 2 263 13 is_stmt 1 view .LVU1591
 5942              	.LBB1346:
 5943 082c 96D0     		beq	.L319
 5944              	.LBE1346:
 5945              	.LBE1351:
 5946              	.LBE1396:
 5947              	.LBE1413:
 5948              	.LBE1553:
 5949              	.LBE1574:
 5950              	.LBE1630:
 271:Menus.cpp     ****             {
 5951              		.loc 2 271 18 view .LVU1592
 5952              	.LBB1631:
 5953              	.LBB1575:
 5954              	.LBB1554:
 5955              	.LBB1414:
 5956              	.LBB1397:
 5957              	.LBB1352:
 5958              	.LBB1347:
 5959              	.LBB1343:
 5960 082e 012B     		cmp	r3, #1
 5961 0830 3FF411AF 		beq	.L373
 5962              	.LBE1343:
 5963              	.LBE1347:
 5964              	.LBE1352:
 5965              	.LBE1397:
 5966              	.LBE1414:
 5967              	.LBE1554:
 5968              	.LBE1575:
 5969              	.LBE1631:
 279:Menus.cpp     ****             {
 5970              		.loc 2 279 18 view .LVU1593
 5971              	.LBB1632:
 5972              	.LBB1576:
 5973              	.LBB1555:
 5974              	.LBB1415:
 5975              	.LBB1398:
 5976              	.LBB1353:
 5977              	.LBB1348:
 5978              	.LBB1344:
 5979              	.LBB1337:
ARM GAS  C:\Users\VINCIU~1\AppData\Local\Temp\ccA1pwKF.s 			page 156


 5980 0834 022B     		cmp	r3, #2
 5981 0836 7FF40DAF 		bne	.L317
 5982              	.LVL385:
 5983              	.LBB1332:
 281:Menus.cpp     ****                 {
 5984              		.loc 2 281 34 view .LVU1594
 283:Menus.cpp     ****                     osc[0].SetWaveform(osc[0].WAVE_SQUARE);
 5985              		.loc 2 283 21 view .LVU1595
 284:Menus.cpp     ****                 }
 5986              		.loc 2 284 21 view .LVU1596
 5987              	.LBB1333:
 5988              	.LBI1333:
  70:../../DaisySP/Source/Synthesis/oscillator.h ****     {
 5989              		.loc 7 70 17 view .LVU1597
 5990              	.LBB1334:
 5991              		.loc 7 72 9 view .LVU1598
 5992              		.loc 7 72 19 is_stmt 0 view .LVU1599
 5993 083a 0423     		movs	r3, #4
 5994 083c 3B70     		strb	r3, [r7]
 5995              	.LVL386:
 5996              		.loc 7 72 19 view .LVU1600
 5997              	.LBE1334:
 5998              	.LBE1333:
 281:Menus.cpp     ****                 {
 5999              		.loc 2 281 17 is_stmt 1 view .LVU1601
 281:Menus.cpp     ****                 {
 6000              		.loc 2 281 34 view .LVU1602
 283:Menus.cpp     ****                     osc[0].SetWaveform(osc[0].WAVE_SQUARE);
 6001              		.loc 2 283 21 view .LVU1603
 283:Menus.cpp     ****                     osc[0].SetWaveform(osc[0].WAVE_SQUARE);
 6002              		.loc 2 283 34 is_stmt 0 view .LVU1604
 6003 083e D5F89021 		ldr	r2, [r5, #400]
 6004 0842 C5F89C20 		str	r2, [r5, #156]
 284:Menus.cpp     ****                 }
 6005              		.loc 2 284 21 is_stmt 1 view .LVU1605
 6006              	.LVL387:
 6007              	.LBB1336:
  70:../../DaisySP/Source/Synthesis/oscillator.h ****     {
 6008              		.loc 7 70 17 view .LVU1606
 6009              	.LBB1335:
 6010              		.loc 7 72 9 view .LVU1607
 6011              		.loc 7 72 19 is_stmt 0 view .LVU1608
 6012 0846 3B70     		strb	r3, [r7]
 6013              	.LVL388:
 6014              		.loc 7 72 19 view .LVU1609
 6015              	.LBE1335:
 6016              	.LBE1336:
 281:Menus.cpp     ****                 {
 6017              		.loc 2 281 17 is_stmt 1 view .LVU1610
 281:Menus.cpp     ****                 {
 6018              		.loc 2 281 34 view .LVU1611
 6019 0848 0BE7     		b	.L321
 6020              	.LVL389:
 6021              	.L326:
 281:Menus.cpp     ****                 {
 6022              		.loc 2 281 34 is_stmt 0 view .LVU1612
 6023              	.LBE1332:
ARM GAS  C:\Users\VINCIU~1\AppData\Local\Temp\ccA1pwKF.s 			page 157


 6024              	.LBE1337:
 6025              	.LBE1344:
 6026              	.LBE1348:
 6027              	.LBE1353:
 6028              	.LBE1398:
 6029              	.LBB1399:
 6030              	.LBB1388:
 6031              	.LBB1383:
 307:Menus.cpp     ****                 if(setWave2 > 3)
 6032              		.loc 2 307 32 view .LVU1613
 6033 084a C5F89431 		str	r3, [r5, #404]
 316:Menus.cpp     ****                 {
 6034              		.loc 2 316 17 is_stmt 1 view .LVU1614
 6035              	.LBB1378:
 6036 084e 92D0     		beq	.L327
 6037              	.LBE1378:
 6038              	.LBE1383:
 6039              	.LBE1388:
 6040              	.LBE1399:
 6041              	.LBE1415:
 6042              	.LBE1555:
 6043              	.LBE1576:
 6044              	.LBE1632:
 324:Menus.cpp     ****                 {
 6045              		.loc 2 324 22 view .LVU1615
 6046              	.LBB1633:
 6047              	.LBB1577:
 6048              	.LBB1556:
 6049              	.LBB1416:
 6050              	.LBB1400:
 6051              	.LBB1389:
 6052              	.LBB1384:
 6053              	.LBB1379:
 6054              	.LBB1375:
 6055 0850 012B     		cmp	r3, #1
 6056 0852 3FF415AF 		beq	.L374
 6057              	.LBE1375:
 6058              	.LBE1379:
 6059              	.LBE1384:
 6060              	.LBE1389:
 6061              	.LBE1400:
 6062              	.LBE1416:
 6063              	.LBE1556:
 6064              	.LBE1577:
 6065              	.LBE1633:
 332:Menus.cpp     ****                 {
 6066              		.loc 2 332 22 view .LVU1616
 6067              	.LBB1634:
 6068              	.LBB1578:
 6069              	.LBB1557:
 6070              	.LBB1417:
 6071              	.LBB1401:
 6072              	.LBB1390:
 6073              	.LBB1385:
 6074              	.LBB1380:
 6075              	.LBB1376:
 6076              	.LBB1371:
ARM GAS  C:\Users\VINCIU~1\AppData\Local\Temp\ccA1pwKF.s 			page 158


 6077 0856 022B     		cmp	r3, #2
 6078 0858 7FF411AF 		bne	.L325
 6079              	.LVL390:
 6080              	.LBB1368:
 334:Menus.cpp     ****                     {
 6081              		.loc 2 334 38 view .LVU1617
 336:Menus.cpp     ****                         osc[1].SetWaveform(osc[1].WAVE_SQUARE);
 6082              		.loc 2 336 25 view .LVU1618
 337:Menus.cpp     ****                     }
 6083              		.loc 2 337 25 view .LVU1619
 6084              	.LBB1369:
 6085              	.LBI1369:
  70:../../DaisySP/Source/Synthesis/oscillator.h ****     {
 6086              		.loc 7 70 17 view .LVU1620
 6087              	.LBB1370:
 6088              		.loc 7 72 9 view .LVU1621
 6089              		.loc 7 72 19 is_stmt 0 view .LVU1622
 6090 085c 0423     		movs	r3, #4
 6091 085e 0FE7     		b	.L374
 6092              	.L406:
 6093              		.align	2
 6094              	.L405:
 6095 0860 14000000 		.word	.LC6
 6096 0864 00000000 		.word	0
 6097              	.LBE1370:
 6098              	.LBE1369:
 6099              	.LBE1368:
 6100              	.LBE1371:
 6101              	.LBE1376:
 6102              	.LBE1380:
 6103              	.LBE1385:
 6104              	.LBE1390:
 6105              	.LBE1401:
 6106              	.LBE1417:
 6107              	.LBE1557:
 6108              	.LBE1578:
 6109              	.LBE1634:
 6110              		.cfi_endproc
 6111              	.LFE4039:
 6113              		.section	.rodata._ZN5Menus5Menu3E23OledDisplayExtravaganzaPN7daisysp10OscillatorERNS1_4AdsrE.str1.
 6114              		.align	2
 6115              	.LC7:
 6116 0000 4100     		.ascii	"A\000"
 6117 0002 0000     		.align	2
 6118              	.LC8:
 6119 0004 4400     		.ascii	"D\000"
 6120 0006 0000     		.align	2
 6121              	.LC9:
 6122 0008 5300     		.ascii	"S\000"
 6123 000a 0000     		.align	2
 6124              	.LC10:
 6125 000c 5200     		.ascii	"R\000"
 6126              		.section	.text._ZN5Menus5Menu3E23OledDisplayExtravaganzaPN7daisysp10OscillatorERNS1_4AdsrE,"ax",%p
 6127              		.align	1
 6128              		.p2align 2,,3
 6129              		.global	_ZN5Menus5Menu3E23OledDisplayExtravaganzaPN7daisysp10OscillatorERNS1_4AdsrE
 6130              		.syntax unified
ARM GAS  C:\Users\VINCIU~1\AppData\Local\Temp\ccA1pwKF.s 			page 159


 6131              		.thumb
 6132              		.thumb_func
 6133              		.fpu fpv5-d16
 6135              	_ZN5Menus5Menu3E23OledDisplayExtravaganzaPN7daisysp10OscillatorERNS1_4AdsrE:
 6136              	.LVL391:
 6137              	.LFB4041:
 527:Menus.cpp     **** 
 528:Menus.cpp     **** 
 529:Menus.cpp     **** void Menus::Menu3(OledDisplayExtravaganza screen, daisysp::Oscillator osc[], daisysp::Adsr& env)
 530:Menus.cpp     **** {
 6138              		.loc 2 530 1 is_stmt 1 view -0
 6139              		.cfi_startproc
 6140              		@ args = 0, pretend = 0, frame = 24
 6141              		@ frame_needed = 0, uses_anonymous_args = 0
 6142              		.loc 2 530 1 is_stmt 0 view .LVU1624
 6143 0000 2DE9F04F 		push	{r4, r5, r6, r7, r8, r9, r10, fp, lr}
 6144              		.cfi_def_cfa_offset 36
 6145              		.cfi_offset 4, -36
 6146              		.cfi_offset 5, -32
 6147              		.cfi_offset 6, -28
 6148              		.cfi_offset 7, -24
 6149              		.cfi_offset 8, -20
 6150              		.cfi_offset 9, -16
 6151              		.cfi_offset 10, -12
 6152              		.cfi_offset 11, -8
 6153              		.cfi_offset 14, -4
 6154 0004 0C46     		mov	r4, r1
 6155 0006 0746     		mov	r7, r0
 531:Menus.cpp     ****     screen.Fill(false);
 6156              		.loc 2 531 5 is_stmt 1 view .LVU1625
 6157              	.LVL392:
 6158              	.LBB1908:
 6159              	.LBI1908:
  33:../../libdaisy/src/hid/disp/oled_display.h **** 
 6160              		.loc 1 33 10 view .LVU1626
 6161              	.LBB1909:
 6162              	.LBI1909:
 249:../../libdaisy/src/dev/oled_ssd130x.h ****     {
 6163              		.loc 6 249 10 view .LVU1627
 6164              	.LBB1910:
 251:../../libdaisy/src/dev/oled_ssd130x.h ****         {
 6165              		.loc 6 251 29 view .LVU1628
 6166              	.LBE1910:
 6167              	.LBE1909:
 6168              	.LBE1908:
 530:Menus.cpp     ****     screen.Fill(false);
 6169              		.loc 2 530 1 is_stmt 0 view .LVU1629
 6170 0008 8BB0     		sub	sp, sp, #44
 6171              		.cfi_def_cfa_offset 80
 6172              	.LBB1915:
 6173              	.LBB1913:
 6174              	.LBB1911:
 253:../../libdaisy/src/dev/oled_ssd130x.h ****         }
 6175              		.loc 6 253 24 view .LVU1630
 6176 000a 4FF48062 		mov	r2, #1024
 6177              	.LVL393:
 253:../../libdaisy/src/dev/oled_ssd130x.h ****         }
ARM GAS  C:\Users\VINCIU~1\AppData\Local\Temp\ccA1pwKF.s 			page 160


 6178              		.loc 6 253 24 view .LVU1631
 6179 000e 0021     		movs	r1, #0
 6180              	.LVL394:
 253:../../libdaisy/src/dev/oled_ssd130x.h ****         }
 6181              		.loc 6 253 24 view .LVU1632
 6182 0010 04F11400 		add	r0, r4, #20
 6183              	.LVL395:
 253:../../libdaisy/src/dev/oled_ssd130x.h ****         }
 6184              		.loc 6 253 24 view .LVU1633
 6185              	.LBE1911:
 6186              	.LBE1913:
 6187              	.LBE1915:
 530:Menus.cpp     ****     screen.Fill(false);
 6188              		.loc 2 530 1 view .LVU1634
 6189 0014 1D46     		mov	r5, r3
 6190              	.LBB1916:
 6191              	.LBB1914:
 6192              	.LBB1912:
 253:../../libdaisy/src/dev/oled_ssd130x.h ****         }
 6193              		.loc 6 253 24 view .LVU1635
 6194 0016 FFF7FEFF 		bl	memset
 6195              	.LVL396:
 253:../../libdaisy/src/dev/oled_ssd130x.h ****         }
 6196              		.loc 6 253 24 view .LVU1636
 6197              	.LBE1912:
 6198              	.LBE1914:
 6199              	.LBE1916:
 532:Menus.cpp     ****     if(this->buttonLeft.RisingEdge())
 6200              		.loc 2 532 5 is_stmt 1 view .LVU1637
 6201              	.LBB1917:
 6202              	.LBI1917:
 6203              		.loc 4 69 17 view .LVU1638
 6204              	.LBB1918:
 6205              		.loc 4 69 38 view .LVU1639
 6206              		.loc 4 69 38 is_stmt 0 view .LVU1640
 6207              	.LBE1918:
 6208              	.LBE1917:
 6209              		.loc 2 532 5 view .LVU1641
 6210 001a 97F85130 		ldrb	r3, [r7, #81]	@ zero_extendqisi2
 6211 001e 7F2B     		cmp	r3, #127
 533:Menus.cpp     **** 
 534:Menus.cpp     ****     {
 535:Menus.cpp     ****         this->menuStateEnv = this->menuStateEnv - 1;
 6212              		.loc 2 535 49 view .LVU1642
 6213 0020 D7F8A431 		ldr	r3, [r7, #420]
 532:Menus.cpp     ****     if(this->buttonLeft.RisingEdge())
 6214              		.loc 2 532 5 view .LVU1643
 6215 0024 00F0E383 		beq	.L572
 6216              	.L410:
 536:Menus.cpp     ****         if(this->menuStateEnv < 0)
 537:Menus.cpp     ****         {
 538:Menus.cpp     ****             this->menuStateEnv = 3;
 539:Menus.cpp     ****         }
 540:Menus.cpp     ****     }
 541:Menus.cpp     ****     if(this->buttonRight.RisingEdge())
 6217              		.loc 2 541 5 is_stmt 1 view .LVU1644
 6218              	.LVL397:
ARM GAS  C:\Users\VINCIU~1\AppData\Local\Temp\ccA1pwKF.s 			page 161


 6219              	.LBB1919:
 6220              	.LBI1919:
 6221              		.loc 4 69 17 view .LVU1645
 6222              	.LBB1920:
 6223              		.loc 4 69 38 view .LVU1646
 6224              		.loc 4 69 38 is_stmt 0 view .LVU1647
 6225              	.LBE1920:
 6226              	.LBE1919:
 6227              		.loc 2 541 5 view .LVU1648
 6228 0028 97F86120 		ldrb	r2, [r7, #97]	@ zero_extendqisi2
 6229 002c 7F2A     		cmp	r2, #127
 6230 002e 00F00D82 		beq	.L573
 6231              	.L414:
 542:Menus.cpp     **** 
 543:Menus.cpp     ****     {
 544:Menus.cpp     ****         this->menuStateEnv = this->menuStateEnv + 1;
 545:Menus.cpp     ****         if(this->menuStateEnv > 3)
 546:Menus.cpp     ****         {
 547:Menus.cpp     ****             this->menuStateEnv = 0;
 548:Menus.cpp     ****         }
 549:Menus.cpp     ****     }
 550:Menus.cpp     ****     if(menuStateEnv == 0)
 6232              		.loc 2 550 5 is_stmt 1 view .LVU1649
 6233 0032 002B     		cmp	r3, #0
 6234 0034 00F01382 		beq	.L413
 551:Menus.cpp     ****     {
 552:Menus.cpp     ****         this->attackTime += this->encoderRight.Increment() * 3.3;
 553:Menus.cpp     ****         env.SetTime(daisysp::ADSR_SEG_ATTACK, this->attackTime/100);
 554:Menus.cpp     ****         this->attackTimeScaleDraw += this->encoderRight.Increment();
 555:Menus.cpp     ****         if(attackTimeScaleDraw >= screen.Width() / 4)
 556:Menus.cpp     ****         {
 557:Menus.cpp     ****             attackTimeScaleDraw = screen.Width() / 4;
 558:Menus.cpp     ****         }
 559:Menus.cpp     ****         if(attackTimeScaleDraw <= 0)
 560:Menus.cpp     ****         {
 561:Menus.cpp     ****             attackTimeScaleDraw = 0;
 562:Menus.cpp     ****         }
 563:Menus.cpp     ****         if(attackTime >= 100)
 564:Menus.cpp     ****         {
 565:Menus.cpp     ****             attackTime = 100;
 566:Menus.cpp     ****         }
 567:Menus.cpp     ****         if(attackTime <= 0)
 568:Menus.cpp     ****         {
 569:Menus.cpp     ****             attackTime = 0;
 570:Menus.cpp     ****         }
 571:Menus.cpp     ****         screen.DrawRect(28, 0, 40, 13, true, false);
 572:Menus.cpp     ****     }
 573:Menus.cpp     ****     if(menuStateEnv == 1)
 6235              		.loc 2 573 5 view .LVU1650
 6236 0038 012B     		cmp	r3, #1
 6237 003a 00F0A282 		beq	.L574
 6238              	.L429:
 574:Menus.cpp     ****     {
 575:Menus.cpp     ****         this->decayTime += this->encoderRight.Increment() * 3.3;
 576:Menus.cpp     ****         env.SetTime(daisysp::ADSR_SEG_DECAY, this->decayTime/100);
 577:Menus.cpp     ****         this->decayTimeScaleDraw += this->encoderRight.Increment();
 578:Menus.cpp     ****         if(decayTimeScaleDraw >= screen.Width() / 4)
ARM GAS  C:\Users\VINCIU~1\AppData\Local\Temp\ccA1pwKF.s 			page 162


 579:Menus.cpp     ****         {
 580:Menus.cpp     ****             decayTimeScaleDraw = screen.Width() / 4;
 581:Menus.cpp     ****         }
 582:Menus.cpp     ****         if(decayTimeScaleDraw <= 0)
 583:Menus.cpp     ****         {
 584:Menus.cpp     ****             decayTimeScaleDraw = 0;
 585:Menus.cpp     ****         }
 586:Menus.cpp     ****         if(decayTime >= 100)
 587:Menus.cpp     ****         {
 588:Menus.cpp     ****             decayTime = 100;
 589:Menus.cpp     ****         }
 590:Menus.cpp     ****         if(decayTime <= 0)
 591:Menus.cpp     ****         {
 592:Menus.cpp     ****             decayTime = 0;
 593:Menus.cpp     ****         }
 594:Menus.cpp     ****         screen.DrawRect(44, 0, 56, 13, true, false);
 595:Menus.cpp     ****     }
 596:Menus.cpp     ****     if(menuStateEnv == 2)
 6239              		.loc 2 596 5 view .LVU1651
 6240 003e 022B     		cmp	r3, #2
 6241 0040 00F0ED82 		beq	.L575
 6242              	.L438:
 597:Menus.cpp     ****     {
 598:Menus.cpp     ****         this->sustatinLevel += this->encoderRight .Increment() * 3.3;
 599:Menus.cpp     ****         env.SetSustainLevel(this->sustatinLevel/100);
 600:Menus.cpp     ****         this->sustatinLevelScaleDraw += this->encoderRight.Increment();
 601:Menus.cpp     ****         if(this->sustatinLevelScaleDraw >= screen.Width() / 4)
 602:Menus.cpp     ****         {
 603:Menus.cpp     ****             this->sustatinLevelScaleDraw = screen.Width() / 4;
 604:Menus.cpp     ****         }
 605:Menus.cpp     ****         if(this->sustatinLevelScaleDraw <= 0)
 606:Menus.cpp     ****         {
 607:Menus.cpp     ****             this->sustatinLevelScaleDraw = 0;
 608:Menus.cpp     ****         }
 609:Menus.cpp     ****         if(this->sustatinLevel >= 100)
 610:Menus.cpp     ****         {
 611:Menus.cpp     ****             this->sustatinLevel = 100;
 612:Menus.cpp     ****         }
 613:Menus.cpp     ****         if(this->sustatinLevel <= 0)
 614:Menus.cpp     ****         {
 615:Menus.cpp     ****             this->sustatinLevel = 0;
 616:Menus.cpp     ****         }
 617:Menus.cpp     ****         screen.DrawRect(60, 0, 72, 13, true, false);
 618:Menus.cpp     ****     }
 619:Menus.cpp     ****       if(menuStateEnv == 3)
 6243              		.loc 2 619 7 view .LVU1652
 6244 0044 032B     		cmp	r3, #3
 6245 0046 00F08A83 		beq	.L412
 6246              	.L452:
 620:Menus.cpp     ****     {
 621:Menus.cpp     ****         
 622:Menus.cpp     ****         this->releaseTime += this->encoderRight.Increment() * 3.3;
 623:Menus.cpp     ****         env.SetTime(daisysp::ADSR_SEG_RELEASE, this->releaseTime/100);
 624:Menus.cpp     ****         this->releaseTimeScaleDraw += this->encoderRight.Increment();
 625:Menus.cpp     ****         if(this->releaseTimeScaleDraw >= screen.Width() / 4)
 626:Menus.cpp     ****         {
 627:Menus.cpp     ****             this->releaseTimeScaleDraw = screen.Width() / 4;
ARM GAS  C:\Users\VINCIU~1\AppData\Local\Temp\ccA1pwKF.s 			page 163


 628:Menus.cpp     ****         }
 629:Menus.cpp     ****         if(this->releaseTimeScaleDraw <= 0)
 630:Menus.cpp     ****         {
 631:Menus.cpp     ****             this->releaseTimeScaleDraw = 0;
 632:Menus.cpp     ****         }
 633:Menus.cpp     ****         if(this->releaseTime >= 100)
 634:Menus.cpp     ****         {
 635:Menus.cpp     ****             this->releaseTime = 100;
 636:Menus.cpp     ****         }
 637:Menus.cpp     ****         if(this->releaseTime <= 0)
 638:Menus.cpp     ****         {
 639:Menus.cpp     ****             this->releaseTime = 0;
 640:Menus.cpp     ****         }
 641:Menus.cpp     ****         screen.DrawRect(76, 0, 88, 13, true, false);
 642:Menus.cpp     ****     }
 643:Menus.cpp     **** 
 644:Menus.cpp     ****     screen.SetCursor(32, 4);
 6247              		.loc 2 644 5 view .LVU1653
 6248              	.LVL398:
 6249              	.LBB1922:
 6250              	.LBI1922:
 131:../../libdaisy/src/hid/disp/display.h ****     {
 6251              		.loc 5 131 10 view .LVU1654
 6252              	.LBB1923:
 133:../../libdaisy/src/hid/disp/display.h ****         currentY_ = (y >= Height()) ? Height() - 1 : y;
 6253              		.loc 5 133 9 view .LVU1655
 134:../../libdaisy/src/hid/disp/display.h ****     }
 6254              		.loc 5 134 9 view .LVU1656
 6255              	.LBE1923:
 6256              	.LBE1922:
 645:Menus.cpp     ****     screen.WriteString("A", Font_6x8, true);
 6257              		.loc 2 645 23 is_stmt 0 view .LVU1657
 6258 004a BB4D     		ldr	r5, .L581
 6259              	.LVL399:
 6260              		.loc 2 645 23 view .LVU1658
 6261 004c 0126     		movs	r6, #1
 6262              	.LBB1926:
 6263              	.LBB1924:
 133:../../libdaisy/src/hid/disp/display.h ****         currentY_ = (y >= Height()) ? Height() - 1 : y;
 6264              		.loc 5 133 19 view .LVU1659
 6265 004e BB4B     		ldr	r3, .L581+4
 6266              	.LBE1924:
 6267              	.LBE1926:
 6268              		.loc 2 645 23 view .LVU1660
 6269 0050 2046     		mov	r0, r4
 6270 0052 0096     		str	r6, [sp]
 6271 0054 BA49     		ldr	r1, .L581+8
 6272              	.LBB1927:
 6273              	.LBB1925:
 133:../../libdaisy/src/hid/disp/display.h ****         currentY_ = (y >= Height()) ? Height() - 1 : y;
 6274              		.loc 5 133 19 view .LVU1661
 6275 0056 6360     		str	r3, [r4, #4]
 6276              	.LVL400:
 133:../../libdaisy/src/hid/disp/display.h ****         currentY_ = (y >= Height()) ? Height() - 1 : y;
 6277              		.loc 5 133 19 view .LVU1662
 6278              	.LBE1925:
 6279              	.LBE1927:
ARM GAS  C:\Users\VINCIU~1\AppData\Local\Temp\ccA1pwKF.s 			page 164


 6280              		.loc 2 645 5 is_stmt 1 view .LVU1663
 6281              		.loc 2 645 23 is_stmt 0 view .LVU1664
 6282 0058 95E80C00 		ldm	r5, {r2, r3}
 6283 005c FFF7FEFF 		bl	_ZN5daisy25OneBitGraphicsDisplayImplINS_11OledDisplayINS_13SSD130xDriverILj128ELj64ENS_24SSD130
 6284              	.LVL401:
 646:Menus.cpp     ****     screen.SetCursor(48, 4);
 6285              		.loc 2 646 5 is_stmt 1 view .LVU1665
 6286              	.LBB1928:
 6287              	.LBI1928:
 131:../../libdaisy/src/hid/disp/display.h ****     {
 6288              		.loc 5 131 10 view .LVU1666
 6289              	.LBB1929:
 133:../../libdaisy/src/hid/disp/display.h ****         currentY_ = (y >= Height()) ? Height() - 1 : y;
 6290              		.loc 5 133 9 view .LVU1667
 134:../../libdaisy/src/hid/disp/display.h ****     }
 6291              		.loc 5 134 9 view .LVU1668
 133:../../libdaisy/src/hid/disp/display.h ****         currentY_ = (y >= Height()) ? Height() - 1 : y;
 6292              		.loc 5 133 19 is_stmt 0 view .LVU1669
 6293 0060 B84B     		ldr	r3, .L581+12
 6294              	.LBE1929:
 6295              	.LBE1928:
 647:Menus.cpp     ****     screen.WriteString("D", Font_6x8, true);
 6296              		.loc 2 647 23 view .LVU1670
 6297 0062 0096     		str	r6, [sp]
 6298 0064 2046     		mov	r0, r4
 6299 0066 B849     		ldr	r1, .L581+16
 6300              	.LBB1931:
 6301              	.LBB1930:
 133:../../libdaisy/src/hid/disp/display.h ****         currentY_ = (y >= Height()) ? Height() - 1 : y;
 6302              		.loc 5 133 19 view .LVU1671
 6303 0068 6360     		str	r3, [r4, #4]
 6304              	.LVL402:
 133:../../libdaisy/src/hid/disp/display.h ****         currentY_ = (y >= Height()) ? Height() - 1 : y;
 6305              		.loc 5 133 19 view .LVU1672
 6306              	.LBE1930:
 6307              	.LBE1931:
 6308              		.loc 2 647 5 is_stmt 1 view .LVU1673
 6309              		.loc 2 647 23 is_stmt 0 view .LVU1674
 6310 006a 95E80C00 		ldm	r5, {r2, r3}
 6311 006e FFF7FEFF 		bl	_ZN5daisy25OneBitGraphicsDisplayImplINS_11OledDisplayINS_13SSD130xDriverILj128ELj64ENS_24SSD130
 6312              	.LVL403:
 648:Menus.cpp     ****     screen.SetCursor(64, 4);
 6313              		.loc 2 648 5 is_stmt 1 view .LVU1675
 6314              	.LBB1932:
 6315              	.LBI1932:
 131:../../libdaisy/src/hid/disp/display.h ****     {
 6316              		.loc 5 131 10 view .LVU1676
 6317              	.LBB1933:
 133:../../libdaisy/src/hid/disp/display.h ****         currentY_ = (y >= Height()) ? Height() - 1 : y;
 6318              		.loc 5 133 9 view .LVU1677
 134:../../libdaisy/src/hid/disp/display.h ****     }
 6319              		.loc 5 134 9 view .LVU1678
 133:../../libdaisy/src/hid/disp/display.h ****         currentY_ = (y >= Height()) ? Height() - 1 : y;
 6320              		.loc 5 133 19 is_stmt 0 view .LVU1679
 6321 0072 B64B     		ldr	r3, .L581+20
 6322              	.LBE1933:
 6323              	.LBE1932:
ARM GAS  C:\Users\VINCIU~1\AppData\Local\Temp\ccA1pwKF.s 			page 165


 649:Menus.cpp     ****     screen.WriteString("S", Font_6x8, true);
 6324              		.loc 2 649 23 view .LVU1680
 6325 0074 0096     		str	r6, [sp]
 6326 0076 2046     		mov	r0, r4
 6327 0078 B549     		ldr	r1, .L581+24
 6328              	.LBB1935:
 6329              	.LBB1934:
 133:../../libdaisy/src/hid/disp/display.h ****         currentY_ = (y >= Height()) ? Height() - 1 : y;
 6330              		.loc 5 133 19 view .LVU1681
 6331 007a 6360     		str	r3, [r4, #4]
 6332              	.LVL404:
 133:../../libdaisy/src/hid/disp/display.h ****         currentY_ = (y >= Height()) ? Height() - 1 : y;
 6333              		.loc 5 133 19 view .LVU1682
 6334              	.LBE1934:
 6335              	.LBE1935:
 6336              		.loc 2 649 5 is_stmt 1 view .LVU1683
 6337              		.loc 2 649 23 is_stmt 0 view .LVU1684
 6338 007c 95E80C00 		ldm	r5, {r2, r3}
 6339 0080 FFF7FEFF 		bl	_ZN5daisy25OneBitGraphicsDisplayImplINS_11OledDisplayINS_13SSD130xDriverILj128ELj64ENS_24SSD130
 6340              	.LVL405:
 650:Menus.cpp     ****     screen.SetCursor(80, 4);
 6341              		.loc 2 650 5 is_stmt 1 view .LVU1685
 6342              	.LBB1936:
 6343              	.LBI1936:
 131:../../libdaisy/src/hid/disp/display.h ****     {
 6344              		.loc 5 131 10 view .LVU1686
 6345              	.LBB1937:
 133:../../libdaisy/src/hid/disp/display.h ****         currentY_ = (y >= Height()) ? Height() - 1 : y;
 6346              		.loc 5 133 9 view .LVU1687
 134:../../libdaisy/src/hid/disp/display.h ****     }
 6347              		.loc 5 134 9 view .LVU1688
 133:../../libdaisy/src/hid/disp/display.h ****         currentY_ = (y >= Height()) ? Height() - 1 : y;
 6348              		.loc 5 133 19 is_stmt 0 view .LVU1689
 6349 0084 B34B     		ldr	r3, .L581+28
 6350              	.LBE1937:
 6351              	.LBE1936:
 651:Menus.cpp     ****     screen.WriteString("R", Font_6x8, true);
 6352              		.loc 2 651 23 view .LVU1690
 6353 0086 0096     		str	r6, [sp]
 6354 0088 2046     		mov	r0, r4
 6355 008a B349     		ldr	r1, .L581+32
 6356              	.LBB1939:
 6357              	.LBB1938:
 133:../../libdaisy/src/hid/disp/display.h ****         currentY_ = (y >= Height()) ? Height() - 1 : y;
 6358              		.loc 5 133 19 view .LVU1691
 6359 008c 6360     		str	r3, [r4, #4]
 6360              	.LVL406:
 133:../../libdaisy/src/hid/disp/display.h ****         currentY_ = (y >= Height()) ? Height() - 1 : y;
 6361              		.loc 5 133 19 view .LVU1692
 6362              	.LBE1938:
 6363              	.LBE1939:
 6364              		.loc 2 651 5 is_stmt 1 view .LVU1693
 6365              		.loc 2 651 23 is_stmt 0 view .LVU1694
 6366 008e 95E80C00 		ldm	r5, {r2, r3}
 6367 0092 FFF7FEFF 		bl	_ZN5daisy25OneBitGraphicsDisplayImplINS_11OledDisplayINS_13SSD130xDriverILj128ELj64ENS_24SSD130
 6368              	.LVL407:
 652:Menus.cpp     ****     screen.DrawLine(0, screen.Height() - 5, attackTimeScaleDraw, 25, true);
ARM GAS  C:\Users\VINCIU~1\AppData\Local\Temp\ccA1pwKF.s 			page 166


 6369              		.loc 2 652 5 is_stmt 1 view .LVU1695
 6370              		.loc 2 652 45 is_stmt 0 view .LVU1696
 6371 0096 D7ED687A 		vldr.32	s15, [r7, #416]
 6372              	.LBB1940:
 6373              	.LBB1941:
 6374              	.LBB1942:
 6375              	.LBB1943:
  43:../../libdaisy/src/hid/disp/oled_display.h ****     }
 6376              		.loc 1 43 26 view .LVU1697
 6377 009a 04F10805 		add	r5, r4, #8
 6378              	.LBE1943:
 6379              	.LBE1942:
 6380              	.LBE1941:
 6381              	.LBE1940:
 6382              		.loc 2 652 20 view .LVU1698
 6383 009e BCEEE77A 		vcvt.u32.f32	s14, s15
 6384 00a2 17EE101A 		vmov	r1, s14	@ int
 6385              	.LVL408:
 6386              	.LBB1968:
 6387              	.LBI1940:
 181:../../libdaisy/src/hid/disp/display.h ****                   uint_fast8_t y1,
 6388              		.loc 5 181 10 is_stmt 1 view .LVU1699
 6389              	.LBB1966:
 187:../../libdaisy/src/hid/disp/display.h ****         int_fast16_t deltaY = abs((int_fast16_t)y2 - (int_fast16_t)y1);
 6390              		.loc 5 187 22 is_stmt 0 view .LVU1700
 6391 00a6 81EAE179 		eor	r9, r1, r1, asr #31
 6392 00aa A9EBE179 		sub	r9, r9, r1, asr #31
 6393              	.LVL409:
 191:../../libdaisy/src/hid/disp/display.h ****         int_fast16_t error2;
 6394              		.loc 5 191 22 view .LVU1701
 6395 00ae A9F1220C 		sub	ip, r9, #34
 6396              	.LVL410:
 6397              	.LBB1955:
 6398              	.LBI1942:
  41:../../libdaisy/src/hid/disp/oled_display.h ****     {
 6399              		.loc 1 41 10 is_stmt 1 view .LVU1702
 6400              	.LBE1955:
 189:../../libdaisy/src/hid/disp/display.h ****         int_fast16_t signY  = ((y1 < y2) ? 1 : -1);
 6401              		.loc 5 189 42 is_stmt 0 view .LVU1703
 6402 00b2 0029     		cmp	r1, #0
 6403 00b4 00F09B81 		beq	.L462
 6404              	.LVL411:
 6405              	.LBB1956:
 6406              	.LBB1951:
 6407              	.LBB1944:
 6408              	.LBI1944:
 239:../../libdaisy/src/dev/oled_ssd130x.h ****     {
 6409              		.loc 6 239 10 is_stmt 1 view .LVU1704
 6410              	.LBB1945:
 241:../../libdaisy/src/dev/oled_ssd130x.h ****             return;
 6411              		.loc 6 241 9 is_stmt 0 view .LVU1705
 6412 00b8 7F29     		cmp	r1, #127
 6413              	.LBE1945:
 6414              	.LBE1944:
 6415              	.LBE1951:
 6416              	.LBE1956:
 189:../../libdaisy/src/hid/disp/display.h ****         int_fast16_t signY  = ((y1 < y2) ? 1 : -1);
ARM GAS  C:\Users\VINCIU~1\AppData\Local\Temp\ccA1pwKF.s 			page 167


 6417              		.loc 5 189 42 view .LVU1706
 6418 00ba B046     		mov	r8, r6
 6419              	.LBB1957:
 6420              	.LBB1952:
 6421              	.LBB1948:
 6422              	.LBB1946:
 241:../../libdaisy/src/dev/oled_ssd130x.h ****             return;
 6423              		.loc 6 241 9 view .LVU1707
 6424 00bc 40F29981 		bls	.L501
 6425              	.LVL412:
 6426              	.L463:
 241:../../libdaisy/src/dev/oled_ssd130x.h ****             return;
 6427              		.loc 6 241 9 view .LVU1708
 6428              	.LBE1946:
 6429              	.LBE1948:
 6430              	.LBE1952:
 6431              	.LBE1957:
 199:../../libdaisy/src/hid/disp/display.h ****         {
 6432              		.loc 5 199 26 is_stmt 1 view .LVU1709
 189:../../libdaisy/src/hid/disp/display.h ****         int_fast16_t signY  = ((y1 < y2) ? 1 : -1);
 6433              		.loc 5 189 42 is_stmt 0 view .LVU1710
 6434 00c0 3B20     		movs	r0, #59
 6435 00c2 0026     		movs	r6, #0
 6436              	.LVL413:
 6437              	.L464:
 6438              	.LBB1958:
 6439              	.LBI1958:
  41:../../libdaisy/src/hid/disp/oled_display.h ****     {
 6440              		.loc 1 41 10 is_stmt 1 view .LVU1711
 6441              	.LBB1959:
 6442              	.LBI1959:
 239:../../libdaisy/src/dev/oled_ssd130x.h ****     {
 6443              		.loc 6 239 10 view .LVU1712
 6444              	.LBB1960:
 244:../../libdaisy/src/dev/oled_ssd130x.h ****         else
 6445              		.loc 6 244 28 is_stmt 0 view .LVU1713
 6446 00c4 C308     		lsrs	r3, r0, #3
 244:../../libdaisy/src/dev/oled_ssd130x.h ****         else
 6447              		.loc 6 244 48 view .LVU1714
 6448 00c6 0122     		movs	r2, #1
 244:../../libdaisy/src/dev/oled_ssd130x.h ****         else
 6449              		.loc 6 244 54 view .LVU1715
 6450 00c8 00F0070A 		and	r10, r0, #7
 241:../../libdaisy/src/dev/oled_ssd130x.h ****             return;
 6451              		.loc 6 241 9 view .LVU1716
 6452 00cc 7F2E     		cmp	r6, #127
 244:../../libdaisy/src/dev/oled_ssd130x.h ****         else
 6453              		.loc 6 244 42 view .LVU1717
 6454 00ce 06EBC313 		add	r3, r6, r3, lsl #7
 6455              	.LBE1960:
 6456              	.LBE1959:
 6457              	.LBE1958:
 202:../../libdaisy/src/hid/disp/display.h ****             if(error2 > -deltaY)
 6458              		.loc 5 202 20 view .LVU1718
 6459 00d2 0CFA02FE 		lsl	lr, ip, r2
 6460              	.LVL414:
 6461              	.LBB1963:
ARM GAS  C:\Users\VINCIU~1\AppData\Local\Temp\ccA1pwKF.s 			page 168


 6462              	.LBB1962:
 6463              	.LBB1961:
 244:../../libdaisy/src/dev/oled_ssd130x.h ****         else
 6464              		.loc 6 244 48 view .LVU1719
 6465 00d6 02FA0AF2 		lsl	r2, r2, r10
 244:../../libdaisy/src/dev/oled_ssd130x.h ****         else
 6466              		.loc 6 244 42 view .LVU1720
 6467 00da 2344     		add	r3, r3, r4
 241:../../libdaisy/src/dev/oled_ssd130x.h ****             return;
 6468              		.loc 6 241 9 view .LVU1721
 6469 00dc 06D8     		bhi	.L467
 241:../../libdaisy/src/dev/oled_ssd130x.h ****             return;
 6470              		.loc 6 241 9 view .LVU1722
 6471 00de 3F28     		cmp	r0, #63
 6472 00e0 04D8     		bhi	.L467
 244:../../libdaisy/src/dev/oled_ssd130x.h ****         else
 6473              		.loc 6 244 42 view .LVU1723
 6474 00e2 93F814A0 		ldrb	r10, [r3, #20]	@ zero_extendqisi2
 6475 00e6 42EA0A02 		orr	r2, r2, r10
 6476 00ea 1A75     		strb	r2, [r3, #20]
 6477              	.L467:
 6478              	.LBE1961:
 6479              	.LBE1962:
 6480              	.LBE1963:
 203:../../libdaisy/src/hid/disp/display.h ****             {
 6481              		.loc 5 203 13 view .LVU1724
 6482 00ec 1EF1210F 		cmn	lr, #33
 6483 00f0 C0F28781 		blt	.L468
 209:../../libdaisy/src/hid/disp/display.h ****             {
 6484              		.loc 5 209 13 view .LVU1725
 6485 00f4 F145     		cmp	r9, lr
 206:../../libdaisy/src/hid/disp/display.h ****             }
 6486              		.loc 5 206 20 view .LVU1726
 6487 00f6 4644     		add	r6, r6, r8
 6488              	.LVL415:
 205:../../libdaisy/src/hid/disp/display.h ****                 x1 += signX;
 6489              		.loc 5 205 23 view .LVU1727
 6490 00f8 ACF1220C 		sub	ip, ip, #34
 6491              	.LVL416:
 209:../../libdaisy/src/hid/disp/display.h ****             {
 6492              		.loc 5 209 13 view .LVU1728
 6493 00fc 00F38181 		bgt	.L468
 6494              	.L469:
 199:../../libdaisy/src/hid/disp/display.h ****         {
 6495              		.loc 5 199 26 is_stmt 1 view .LVU1729
 6496 0100 B142     		cmp	r1, r6
 6497 0102 DFD1     		bne	.L464
 199:../../libdaisy/src/hid/disp/display.h ****         {
 6498              		.loc 5 199 26 is_stmt 0 view .LVU1730
 6499 0104 1928     		cmp	r0, #25
 6500 0106 DDD1     		bne	.L464
 6501              	.LVL417:
 199:../../libdaisy/src/hid/disp/display.h ****         {
 6502              		.loc 5 199 26 view .LVU1731
 6503              	.LBE1966:
 6504              	.LBE1968:
 653:Menus.cpp     ****     screen.DrawLine(attackTimeScaleDraw,
ARM GAS  C:\Users\VINCIU~1\AppData\Local\Temp\ccA1pwKF.s 			page 169


 6505              		.loc 2 653 5 is_stmt 1 view .LVU1732
 654:Menus.cpp     ****                     25,
 655:Menus.cpp     ****                     attackTimeScaleDraw + decayTimeScaleDraw,
 656:Menus.cpp     ****                     (screen.Height() - 5) - sustatinLevelScaleDraw,
 6506              		.loc 2 656 43 is_stmt 0 view .LVU1733
 6507 0108 D7ED6C6A 		vldr.32	s13, [r7, #432]
 6508 010c 9FED937A 		vldr.32	s14, .L581+36
 655:Menus.cpp     ****                     (screen.Height() - 5) - sustatinLevelScaleDraw,
 6509              		.loc 2 655 41 view .LVU1734
 6510 0110 97ED6A6A 		vldr.32	s12, [r7, #424]
 6511              		.loc 2 656 43 view .LVU1735
 6512 0114 37EE667A 		vsub.f32	s14, s14, s13
 655:Menus.cpp     ****                     (screen.Height() - 5) - sustatinLevelScaleDraw,
 6513              		.loc 2 655 41 view .LVU1736
 6514 0118 77EE867A 		vadd.f32	s15, s15, s12
 653:Menus.cpp     ****     screen.DrawLine(attackTimeScaleDraw,
 6515              		.loc 2 653 20 view .LVU1737
 6516 011c BCEEC77A 		vcvt.u32.f32	s14, s14
 6517 0120 FCEEE76A 		vcvt.u32.f32	s13, s15
 6518 0124 17EE102A 		vmov	r2, s14	@ int
 6519 0128 16EE906A 		vmov	r6, s13	@ int
 6520              	.LVL418:
 6521              	.LBB1969:
 6522              	.LBI1969:
 181:../../libdaisy/src/hid/disp/display.h ****                   uint_fast8_t y1,
 6523              		.loc 5 181 10 is_stmt 1 view .LVU1738
 6524              	.LBB1970:
 188:../../libdaisy/src/hid/disp/display.h ****         int_fast16_t signX  = ((x1 < x2) ? 1 : -1);
 6525              		.loc 5 188 52 is_stmt 0 view .LVU1739
 6526 012c A2F11903 		sub	r3, r2, #25
 187:../../libdaisy/src/hid/disp/display.h ****         int_fast16_t deltaY = abs((int_fast16_t)y2 - (int_fast16_t)y1);
 6527              		.loc 5 187 52 view .LVU1740
 6528 0130 A6EB010E 		sub	lr, r6, r1
 188:../../libdaisy/src/hid/disp/display.h ****         int_fast16_t signX  = ((x1 < x2) ? 1 : -1);
 6529              		.loc 5 188 22 view .LVU1741
 6530 0134 83EAE370 		eor	r0, r3, r3, asr #31
 187:../../libdaisy/src/hid/disp/display.h ****         int_fast16_t deltaY = abs((int_fast16_t)y2 - (int_fast16_t)y1);
 6531              		.loc 5 187 22 view .LVU1742
 6532 0138 BEF1000F 		cmp	lr, #0
 188:../../libdaisy/src/hid/disp/display.h ****         int_fast16_t signX  = ((x1 < x2) ? 1 : -1);
 6533              		.loc 5 188 22 view .LVU1743
 6534 013c A0EBE370 		sub	r0, r0, r3, asr #31
 187:../../libdaisy/src/hid/disp/display.h ****         int_fast16_t deltaY = abs((int_fast16_t)y2 - (int_fast16_t)y1);
 6535              		.loc 5 187 22 view .LVU1744
 6536 0140 B8BF     		it	lt
 6537 0142 CEF1000E 		rsblt	lr, lr, #0
 6538              	.LVL419:
 188:../../libdaisy/src/hid/disp/display.h ****         int_fast16_t signX  = ((x1 < x2) ? 1 : -1);
 6539              		.loc 5 188 22 view .LVU1745
 6540 0146 0346     		mov	r3, r0
 6541 0148 0490     		str	r0, [sp, #16]
 6542              	.LVL420:
 189:../../libdaisy/src/hid/disp/display.h ****         int_fast16_t signY  = ((y1 < y2) ? 1 : -1);
 6543              		.loc 5 189 42 view .LVU1746
 6544 014a B142     		cmp	r1, r6
 6545 014c 34BF     		ite	cc
 6546 014e 0120     		movcc	r0, #1
ARM GAS  C:\Users\VINCIU~1\AppData\Local\Temp\ccA1pwKF.s 			page 170


 6547 0150 4FF0FF30 		movcs	r0, #-1
 6548              	.LVL421:
 190:../../libdaisy/src/hid/disp/display.h ****         int_fast16_t error  = deltaX - deltaY;
 6549              		.loc 5 190 42 view .LVU1747
 6550 0154 192A     		cmp	r2, #25
 189:../../libdaisy/src/hid/disp/display.h ****         int_fast16_t signY  = ((y1 < y2) ? 1 : -1);
 6551              		.loc 5 189 42 view .LVU1748
 6552 0156 0590     		str	r0, [sp, #20]
 6553              	.LVL422:
 190:../../libdaisy/src/hid/disp/display.h ****         int_fast16_t error  = deltaX - deltaY;
 6554              		.loc 5 190 42 view .LVU1749
 6555 0158 00F25D81 		bhi	.L471
 6556              	.LVL423:
 191:../../libdaisy/src/hid/disp/display.h ****         int_fast16_t error2;
 6557              		.loc 5 191 22 view .LVU1750
 6558 015c AEEB030C 		sub	ip, lr, r3
 6559              	.LVL424:
 6560              	.LBB1971:
 6561              	.LBI1971:
  41:../../libdaisy/src/hid/disp/oled_display.h ****     {
 6562              		.loc 1 41 10 is_stmt 1 view .LVU1751
 6563              	.LBB1972:
 6564              	.LBI1972:
 239:../../libdaisy/src/dev/oled_ssd130x.h ****     {
 6565              		.loc 6 239 10 view .LVU1752
 6566              	.LBB1973:
 241:../../libdaisy/src/dev/oled_ssd130x.h ****             return;
 6567              		.loc 6 241 9 is_stmt 0 view .LVU1753
 6568 0160 7F2E     		cmp	r6, #127
 6569              	.LBE1973:
 6570              	.LBE1972:
 6571              	.LBE1971:
 190:../../libdaisy/src/hid/disp/display.h ****         int_fast16_t error  = deltaX - deltaY;
 6572              		.loc 5 190 42 view .LVU1754
 6573 0162 4FF0FF33 		mov	r3, #-1
 6574              	.LVL425:
 190:../../libdaisy/src/hid/disp/display.h ****         int_fast16_t error  = deltaX - deltaY;
 6575              		.loc 5 190 42 view .LVU1755
 6576 0166 0693     		str	r3, [sp, #24]
 6577              	.LBB1980:
 6578              	.LBB1977:
 6579              	.LBB1974:
 241:../../libdaisy/src/dev/oled_ssd130x.h ****             return;
 6580              		.loc 6 241 9 view .LVU1756
 6581 0168 0DD8     		bhi	.L472
 6582              	.LVL426:
 6583              	.L504:
 244:../../libdaisy/src/dev/oled_ssd130x.h ****         else
 6584              		.loc 6 244 28 view .LVU1757
 6585 016a D308     		lsrs	r3, r2, #3
 244:../../libdaisy/src/dev/oled_ssd130x.h ****         else
 6586              		.loc 6 244 54 view .LVU1758
 6587 016c 02F00708 		and	r8, r2, #7
 244:../../libdaisy/src/dev/oled_ssd130x.h ****         else
 6588              		.loc 6 244 48 view .LVU1759
 6589 0170 0120     		movs	r0, #1
 6590              	.LVL427:
ARM GAS  C:\Users\VINCIU~1\AppData\Local\Temp\ccA1pwKF.s 			page 171


 244:../../libdaisy/src/dev/oled_ssd130x.h ****         else
 6591              		.loc 6 244 42 view .LVU1760
 6592 0172 06EBC313 		add	r3, r6, r3, lsl #7
 244:../../libdaisy/src/dev/oled_ssd130x.h ****         else
 6593              		.loc 6 244 48 view .LVU1761
 6594 0176 00FA08F0 		lsl	r0, r0, r8
 244:../../libdaisy/src/dev/oled_ssd130x.h ****         else
 6595              		.loc 6 244 42 view .LVU1762
 6596 017a 2344     		add	r3, r3, r4
 6597 017c 93F81480 		ldrb	r8, [r3, #20]	@ zero_extendqisi2
 6598 0180 40EA0800 		orr	r0, r0, r8
 6599 0184 1875     		strb	r0, [r3, #20]
 6600              	.L472:
 6601              	.LVL428:
 244:../../libdaisy/src/dev/oled_ssd130x.h ****         else
 6602              		.loc 6 244 42 view .LVU1763
 6603              	.LBE1974:
 6604              	.LBE1977:
 6605              	.LBE1980:
 199:../../libdaisy/src/hid/disp/display.h ****         {
 6606              		.loc 5 199 26 is_stmt 1 view .LVU1764
 6607 0186 192A     		cmp	r2, #25
 6608 0188 08BF     		it	eq
 6609 018a B142     		cmpeq	r1, r6
 6610 018c 0CBF     		ite	eq
 6611 018e 0123     		moveq	r3, #1
 6612 0190 0023     		movne	r3, #0
 6613 0192 0793     		str	r3, [sp, #28]
 6614 0194 00F05E83 		beq	.L576
 6615              	.L474:
 6616              	.LVL429:
 203:../../libdaisy/src/hid/disp/display.h ****             {
 6617              		.loc 5 203 23 is_stmt 0 view .LVU1765
 6618 0198 049B     		ldr	r3, [sp, #16]
 6619 019a 1920     		movs	r0, #25
 6620 019c C3F1000A 		rsb	r10, r3, #0
 6621              	.L476:
 6622              	.LVL430:
 6623              	.LBB1981:
 6624              	.LBI1981:
  41:../../libdaisy/src/hid/disp/oled_display.h ****     {
 6625              		.loc 1 41 10 is_stmt 1 view .LVU1766
 6626              	.LBB1982:
 6627              	.LBI1982:
 239:../../libdaisy/src/dev/oled_ssd130x.h ****     {
 6628              		.loc 6 239 10 view .LVU1767
 6629              	.LBB1983:
 244:../../libdaisy/src/dev/oled_ssd130x.h ****         else
 6630              		.loc 6 244 48 is_stmt 0 view .LVU1768
 6631 01a0 4FF0010B 		mov	fp, #1
 244:../../libdaisy/src/dev/oled_ssd130x.h ****         else
 6632              		.loc 6 244 28 view .LVU1769
 6633 01a4 C308     		lsrs	r3, r0, #3
 244:../../libdaisy/src/dev/oled_ssd130x.h ****         else
 6634              		.loc 6 244 54 view .LVU1770
 6635 01a6 00F00708 		and	r8, r0, #7
 241:../../libdaisy/src/dev/oled_ssd130x.h ****             return;
ARM GAS  C:\Users\VINCIU~1\AppData\Local\Temp\ccA1pwKF.s 			page 172


 6636              		.loc 6 241 9 view .LVU1771
 6637 01aa 7F29     		cmp	r1, #127
 244:../../libdaisy/src/dev/oled_ssd130x.h ****         else
 6638              		.loc 6 244 42 view .LVU1772
 6639 01ac 01EBC313 		add	r3, r1, r3, lsl #7
 6640              	.LBE1983:
 6641              	.LBE1982:
 6642              	.LBE1981:
 202:../../libdaisy/src/hid/disp/display.h ****             if(error2 > -deltaY)
 6643              		.loc 5 202 20 view .LVU1773
 6644 01b0 0CFA0BF9 		lsl	r9, ip, fp
 6645              	.LVL431:
 6646              	.LBB1986:
 6647              	.LBB1985:
 6648              	.LBB1984:
 244:../../libdaisy/src/dev/oled_ssd130x.h ****         else
 6649              		.loc 6 244 48 view .LVU1774
 6650 01b4 0BFA08F8 		lsl	r8, fp, r8
 241:../../libdaisy/src/dev/oled_ssd130x.h ****             return;
 6651              		.loc 6 241 9 view .LVU1775
 6652 01b8 08D8     		bhi	.L477
 6653 01ba 3F28     		cmp	r0, #63
 244:../../libdaisy/src/dev/oled_ssd130x.h ****         else
 6654              		.loc 6 244 42 view .LVU1776
 6655 01bc 2344     		add	r3, r3, r4
 241:../../libdaisy/src/dev/oled_ssd130x.h ****             return;
 6656              		.loc 6 241 9 view .LVU1777
 6657 01be 05D8     		bhi	.L477
 244:../../libdaisy/src/dev/oled_ssd130x.h ****         else
 6658              		.loc 6 244 42 view .LVU1778
 6659 01c0 93F814B0 		ldrb	fp, [r3, #20]	@ zero_extendqisi2
 6660 01c4 48EA0B08 		orr	r8, r8, fp
 6661 01c8 83F81480 		strb	r8, [r3, #20]
 6662              	.L477:
 244:../../libdaisy/src/dev/oled_ssd130x.h ****         else
 6663              		.loc 6 244 42 view .LVU1779
 6664              	.LBE1984:
 6665              	.LBE1985:
 6666              	.LBE1986:
 203:../../libdaisy/src/hid/disp/display.h ****             {
 6667              		.loc 5 203 13 view .LVU1780
 6668 01cc BAEB4C0F 		cmp	r10, ip, lsl #1
 6669 01d0 04DA     		bge	.L478
 205:../../libdaisy/src/hid/disp/display.h ****                 x1 += signX;
 6670              		.loc 5 205 23 view .LVU1781
 6671 01d2 049B     		ldr	r3, [sp, #16]
 6672 01d4 ACEB030C 		sub	ip, ip, r3
 6673              	.LVL432:
 206:../../libdaisy/src/hid/disp/display.h ****             }
 6674              		.loc 5 206 20 view .LVU1782
 6675 01d8 059B     		ldr	r3, [sp, #20]
 6676 01da 1944     		add	r1, r1, r3
 6677              	.LVL433:
 6678              	.L478:
 209:../../libdaisy/src/hid/disp/display.h ****             {
 6679              		.loc 5 209 13 view .LVU1783
 6680 01dc CE45     		cmp	lr, r9
ARM GAS  C:\Users\VINCIU~1\AppData\Local\Temp\ccA1pwKF.s 			page 173


 6681 01de 02DD     		ble	.L479
 212:../../libdaisy/src/hid/disp/display.h ****             }
 6682              		.loc 5 212 20 view .LVU1784
 6683 01e0 069B     		ldr	r3, [sp, #24]
 211:../../libdaisy/src/hid/disp/display.h ****                 y1 += signY;
 6684              		.loc 5 211 23 view .LVU1785
 6685 01e2 F444     		add	ip, ip, lr
 6686              	.LVL434:
 212:../../libdaisy/src/hid/disp/display.h ****             }
 6687              		.loc 5 212 20 view .LVU1786
 6688 01e4 1844     		add	r0, r0, r3
 6689              	.LVL435:
 6690              	.L479:
 199:../../libdaisy/src/hid/disp/display.h ****         {
 6691              		.loc 5 199 26 is_stmt 1 view .LVU1787
 6692 01e6 8E42     		cmp	r6, r1
 6693 01e8 DAD1     		bne	.L476
 199:../../libdaisy/src/hid/disp/display.h ****         {
 6694              		.loc 5 199 26 is_stmt 0 view .LVU1788
 6695 01ea 8242     		cmp	r2, r0
 6696 01ec D8D1     		bne	.L476
 6697              	.LVL436:
 6698              	.L473:
 199:../../libdaisy/src/hid/disp/display.h ****         {
 6699              		.loc 5 199 26 view .LVU1789
 6700              	.LBE1970:
 6701              	.LBE1969:
 657:Menus.cpp     ****                     true);
 658:Menus.cpp     **** 
 659:Menus.cpp     ****     screen.DrawLine(attackTimeScaleDraw + decayTimeScaleDraw,
 6702              		.loc 2 659 5 is_stmt 1 view .LVU1790
 660:Menus.cpp     ****                     (screen.Height() - 5) - sustatinLevelScaleDraw,
 661:Menus.cpp     ****                     attackTimeScaleDraw + decayTimeScaleDraw
 662:Menus.cpp     ****                         + screen.Width() / 4,
 6703              		.loc 2 662 25 is_stmt 0 view .LVU1791
 6704 01ee 9FED5C7A 		vldr.32	s14, .L581+40
 6705 01f2 77EE877A 		vadd.f32	s15, s15, s14
 659:Menus.cpp     ****                     (screen.Height() - 5) - sustatinLevelScaleDraw,
 6706              		.loc 2 659 20 view .LVU1792
 6707 01f6 BCEEE77A 		vcvt.u32.f32	s14, s15
 6708 01fa 17EE101A 		vmov	r1, s14	@ int
 6709              	.LVL437:
 6710              	.LBB1992:
 6711              	.LBI1992:
 181:../../libdaisy/src/hid/disp/display.h ****                   uint_fast8_t y1,
 6712              		.loc 5 181 10 is_stmt 1 view .LVU1793
 6713              	.LBB1993:
 187:../../libdaisy/src/hid/disp/display.h ****         int_fast16_t deltaY = abs((int_fast16_t)y2 - (int_fast16_t)y1);
 6714              		.loc 5 187 52 is_stmt 0 view .LVU1794
 6715 01fe A1EB0608 		sub	r8, r1, r6
 187:../../libdaisy/src/hid/disp/display.h ****         int_fast16_t deltaY = abs((int_fast16_t)y2 - (int_fast16_t)y1);
 6716              		.loc 5 187 22 view .LVU1795
 6717 0202 B8F1000F 		cmp	r8, #0
 6718 0206 B8BF     		it	lt
 6719 0208 C8F10008 		rsblt	r8, r8, #0
 6720              	.LVL438:
 189:../../libdaisy/src/hid/disp/display.h ****         int_fast16_t signY  = ((y1 < y2) ? 1 : -1);
ARM GAS  C:\Users\VINCIU~1\AppData\Local\Temp\ccA1pwKF.s 			page 174


 6721              		.loc 5 189 42 view .LVU1796
 6722 020c 8E42     		cmp	r6, r1
 6723 020e C0F01381 		bcc	.L480
 6724              	.LVL439:
 6725              	.LBB1994:
 6726              	.LBI1994:
  41:../../libdaisy/src/hid/disp/oled_display.h ****     {
 6727              		.loc 1 41 10 is_stmt 1 view .LVU1797
 6728              	.LBB1995:
 6729              	.LBI1995:
 239:../../libdaisy/src/dev/oled_ssd130x.h ****     {
 6730              		.loc 6 239 10 view .LVU1798
 6731              	.LBB1996:
 241:../../libdaisy/src/dev/oled_ssd130x.h ****             return;
 6732              		.loc 6 241 9 is_stmt 0 view .LVU1799
 6733 0212 7F29     		cmp	r1, #127
 6734              	.LBE1996:
 6735              	.LBE1995:
 6736              	.LBE1994:
 189:../../libdaisy/src/hid/disp/display.h ****         int_fast16_t signY  = ((y1 < y2) ? 1 : -1);
 6737              		.loc 5 189 42 view .LVU1800
 6738 0214 4FF0FF39 		mov	r9, #-1
 6739              	.LBB2003:
 6740              	.LBB2000:
 6741              	.LBB1997:
 241:../../libdaisy/src/dev/oled_ssd130x.h ****             return;
 6742              		.loc 6 241 9 view .LVU1801
 6743 0218 0FD8     		bhi	.L481
 6744 021a 079B     		ldr	r3, [sp, #28]
 6745 021c 6BB9     		cbnz	r3, .L481
 6746              	.LVL440:
 6747              	.L503:
 244:../../libdaisy/src/dev/oled_ssd130x.h ****         else
 6748              		.loc 6 244 28 view .LVU1802
 6749 021e D308     		lsrs	r3, r2, #3
 244:../../libdaisy/src/dev/oled_ssd130x.h ****         else
 6750              		.loc 6 244 54 view .LVU1803
 6751 0220 02F0070C 		and	ip, r2, #7
 244:../../libdaisy/src/dev/oled_ssd130x.h ****         else
 6752              		.loc 6 244 48 view .LVU1804
 6753 0224 0120     		movs	r0, #1
 244:../../libdaisy/src/dev/oled_ssd130x.h ****         else
 6754              		.loc 6 244 42 view .LVU1805
 6755 0226 01EBC313 		add	r3, r1, r3, lsl #7
 244:../../libdaisy/src/dev/oled_ssd130x.h ****         else
 6756              		.loc 6 244 48 view .LVU1806
 6757 022a 00FA0CF0 		lsl	r0, r0, ip
 244:../../libdaisy/src/dev/oled_ssd130x.h ****         else
 6758              		.loc 6 244 42 view .LVU1807
 6759 022e 2344     		add	r3, r3, r4
 6760 0230 93F814C0 		ldrb	ip, [r3, #20]	@ zero_extendqisi2
 6761 0234 40EA0C00 		orr	r0, r0, ip
 6762 0238 1875     		strb	r0, [r3, #20]
 6763              	.L481:
 6764              	.LVL441:
 244:../../libdaisy/src/dev/oled_ssd130x.h ****         else
 6765              		.loc 6 244 42 view .LVU1808
ARM GAS  C:\Users\VINCIU~1\AppData\Local\Temp\ccA1pwKF.s 			page 175


 6766              	.LBE1997:
 6767              	.LBE2000:
 6768              	.LBE2003:
 199:../../libdaisy/src/hid/disp/display.h ****         {
 6769              		.loc 5 199 26 is_stmt 1 view .LVU1809
 6770 023a 8E42     		cmp	r6, r1
 6771 023c 22D0     		beq	.L482
 6772              	.L483:
 6773              	.LVL442:
 187:../../libdaisy/src/hid/disp/display.h ****         int_fast16_t deltaY = abs((int_fast16_t)y2 - (int_fast16_t)y1);
 6774              		.loc 5 187 22 is_stmt 0 view .LVU1810
 6775 023e C646     		mov	lr, r8
 6776              	.LBE1993:
 6777              	.LBE1992:
 653:Menus.cpp     ****                     25,
 6778              		.loc 2 653 20 view .LVU1811
 6779 0240 9446     		mov	ip, r2
 6780              	.L485:
 6781              	.LVL443:
 6782              	.LBB2011:
 6783              	.LBB2009:
 6784              	.LBB2004:
 6785              	.LBI2004:
  41:../../libdaisy/src/hid/disp/oled_display.h ****     {
 6786              		.loc 1 41 10 is_stmt 1 view .LVU1812
 6787              	.LBB2005:
 6788              	.LBI2005:
 239:../../libdaisy/src/dev/oled_ssd130x.h ****     {
 6789              		.loc 6 239 10 view .LVU1813
 6790              	.LBB2006:
 244:../../libdaisy/src/dev/oled_ssd130x.h ****         else
 6791              		.loc 6 244 28 is_stmt 0 view .LVU1814
 6792 0242 4FEADC03 		lsr	r3, ip, #3
 244:../../libdaisy/src/dev/oled_ssd130x.h ****         else
 6793              		.loc 6 244 54 view .LVU1815
 6794 0246 0CF0070A 		and	r10, ip, #7
 244:../../libdaisy/src/dev/oled_ssd130x.h ****         else
 6795              		.loc 6 244 48 view .LVU1816
 6796 024a 0120     		movs	r0, #1
 241:../../libdaisy/src/dev/oled_ssd130x.h ****             return;
 6797              		.loc 6 241 9 view .LVU1817
 6798 024c 7F2E     		cmp	r6, #127
 244:../../libdaisy/src/dev/oled_ssd130x.h ****         else
 6799              		.loc 6 244 42 view .LVU1818
 6800 024e 06EBC313 		add	r3, r6, r3, lsl #7
 244:../../libdaisy/src/dev/oled_ssd130x.h ****         else
 6801              		.loc 6 244 48 view .LVU1819
 6802 0252 00FA0AF0 		lsl	r0, r0, r10
 241:../../libdaisy/src/dev/oled_ssd130x.h ****             return;
 6803              		.loc 6 241 9 view .LVU1820
 6804 0256 08D8     		bhi	.L486
 6805 0258 BCF13F0F 		cmp	ip, #63
 244:../../libdaisy/src/dev/oled_ssd130x.h ****         else
 6806              		.loc 6 244 42 view .LVU1821
 6807 025c 2344     		add	r3, r3, r4
 241:../../libdaisy/src/dev/oled_ssd130x.h ****             return;
 6808              		.loc 6 241 9 view .LVU1822
ARM GAS  C:\Users\VINCIU~1\AppData\Local\Temp\ccA1pwKF.s 			page 176


 6809 025e 04D8     		bhi	.L486
 244:../../libdaisy/src/dev/oled_ssd130x.h ****         else
 6810              		.loc 6 244 42 view .LVU1823
 6811 0260 93F814A0 		ldrb	r10, [r3, #20]	@ zero_extendqisi2
 6812 0264 40EA0A00 		orr	r0, r0, r10
 6813 0268 1875     		strb	r0, [r3, #20]
 6814              	.L486:
 244:../../libdaisy/src/dev/oled_ssd130x.h ****         else
 6815              		.loc 6 244 42 view .LVU1824
 6816              	.LBE2006:
 6817              	.LBE2005:
 6818              	.LBE2004:
 203:../../libdaisy/src/hid/disp/display.h ****             {
 6819              		.loc 5 203 13 view .LVU1825
 6820 026a 5FEA4E03 		lsls	r3, lr, #1
 206:../../libdaisy/src/hid/disp/display.h ****             }
 6821              		.loc 5 206 20 view .LVU1826
 6822 026e 18BF     		it	ne
 6823 0270 4E44     		addne	r6, r6, r9
 6824              	.LVL444:
 209:../../libdaisy/src/hid/disp/display.h ****             {
 6825              		.loc 5 209 13 view .LVU1827
 6826 0272 9845     		cmp	r8, r3
 6827 0274 02DD     		ble	.L488
 211:../../libdaisy/src/hid/disp/display.h ****                 y1 += signY;
 6828              		.loc 5 211 23 view .LVU1828
 6829 0276 C644     		add	lr, lr, r8
 6830              	.LVL445:
 212:../../libdaisy/src/hid/disp/display.h ****             }
 6831              		.loc 5 212 20 view .LVU1829
 6832 0278 0CF1FF3C 		add	ip, ip, #-1
 6833              	.LVL446:
 6834              	.L488:
 199:../../libdaisy/src/hid/disp/display.h ****         {
 6835              		.loc 5 199 26 is_stmt 1 view .LVU1830
 6836 027c B142     		cmp	r1, r6
 6837 027e E0D1     		bne	.L485
 199:../../libdaisy/src/hid/disp/display.h ****         {
 6838              		.loc 5 199 26 is_stmt 0 view .LVU1831
 6839 0280 6245     		cmp	r2, ip
 6840 0282 DED1     		bne	.L485
 6841              	.LVL447:
 6842              	.L482:
 199:../../libdaisy/src/hid/disp/display.h ****         {
 6843              		.loc 5 199 26 view .LVU1832
 6844              	.LBE2009:
 6845              	.LBE2011:
 663:Menus.cpp     ****                     (screen.Height() - 5) - sustatinLevelScaleDraw,
 664:Menus.cpp     ****                     true);
 665:Menus.cpp     ****       screen.DrawLine( attackTimeScaleDraw + decayTimeScaleDraw
 6846              		.loc 2 665 7 is_stmt 1 view .LVU1833
 666:Menus.cpp     ****                         + screen.Width() / 4,
 667:Menus.cpp     ****                     (screen.Height() - 5) - sustatinLevelScaleDraw,
 668:Menus.cpp     ****                     attackTimeScaleDraw + decayTimeScaleDraw
 669:Menus.cpp     ****                         + screen.Width() / 4 + releaseTimeScaleDraw, screen.Height()-5,true);
 6847              		.loc 2 669 46 is_stmt 0 view .LVU1834
 6848 0284 97ED6E7A 		vldr.32	s14, [r7, #440]
ARM GAS  C:\Users\VINCIU~1\AppData\Local\Temp\ccA1pwKF.s 			page 177


 6849              	.LBB2012:
 6850              	.LBB2013:
 188:../../libdaisy/src/hid/disp/display.h ****         int_fast16_t signX  = ((x1 < x2) ? 1 : -1);
 6851              		.loc 5 188 52 view .LVU1835
 6852 0288 C2F13B08 		rsb	r8, r2, #59
 6853              	.LBE2013:
 6854              	.LBE2012:
 6855              		.loc 2 669 46 view .LVU1836
 6856 028c 77EE877A 		vadd.f32	s15, s15, s14
 6857              	.LBB2039:
 6858              	.LBB2036:
 188:../../libdaisy/src/hid/disp/display.h ****         int_fast16_t signX  = ((x1 < x2) ? 1 : -1);
 6859              		.loc 5 188 22 view .LVU1837
 6860 0290 B8F1000F 		cmp	r8, #0
 6861 0294 B8BF     		it	lt
 6862 0296 C8F10008 		rsblt	r8, r8, #0
 6863              	.LBE2036:
 6864              	.LBE2039:
 665:Menus.cpp     ****                         + screen.Width() / 4,
 6865              		.loc 2 665 22 view .LVU1838
 6866 029a FCEEE77A 		vcvt.u32.f32	s15, s15
 6867 029e 17EE90CA 		vmov	ip, s15	@ int
 6868              	.LVL448:
 6869              	.LBB2040:
 6870              	.LBI2012:
 181:../../libdaisy/src/hid/disp/display.h ****                   uint_fast8_t y1,
 6871              		.loc 5 181 10 is_stmt 1 view .LVU1839
 6872              	.LBB2037:
 187:../../libdaisy/src/hid/disp/display.h ****         int_fast16_t deltaY = abs((int_fast16_t)y2 - (int_fast16_t)y1);
 6873              		.loc 5 187 52 is_stmt 0 view .LVU1840
 6874 02a2 ACEB010E 		sub	lr, ip, r1
 187:../../libdaisy/src/hid/disp/display.h ****         int_fast16_t deltaY = abs((int_fast16_t)y2 - (int_fast16_t)y1);
 6875              		.loc 5 187 22 view .LVU1841
 6876 02a6 BEF1000F 		cmp	lr, #0
 6877 02aa B8BF     		it	lt
 6878 02ac CEF1000E 		rsblt	lr, lr, #0
 6879              	.LVL449:
 189:../../libdaisy/src/hid/disp/display.h ****         int_fast16_t signY  = ((y1 < y2) ? 1 : -1);
 6880              		.loc 5 189 42 view .LVU1842
 6881 02b0 6145     		cmp	r1, ip
 6882 02b2 34BF     		ite	cc
 6883 02b4 4FF0010A 		movcc	r10, #1
 6884 02b8 4FF0FF3A 		movcs	r10, #-1
 6885              	.LVL450:
 190:../../libdaisy/src/hid/disp/display.h ****         int_fast16_t error  = deltaX - deltaY;
 6886              		.loc 5 190 42 view .LVU1843
 6887 02bc 3A2A     		cmp	r2, #58
 191:../../libdaisy/src/hid/disp/display.h ****         int_fast16_t error2;
 6888              		.loc 5 191 22 view .LVU1844
 6889 02be AEEB0800 		sub	r0, lr, r8
 190:../../libdaisy/src/hid/disp/display.h ****         int_fast16_t error  = deltaX - deltaY;
 6890              		.loc 5 190 42 view .LVU1845
 6891 02c2 40F2A180 		bls	.L490
 6892              	.LVL451:
 6893              	.LBB2014:
 6894              	.LBI2014:
  41:../../libdaisy/src/hid/disp/oled_display.h ****     {
ARM GAS  C:\Users\VINCIU~1\AppData\Local\Temp\ccA1pwKF.s 			page 178


 6895              		.loc 1 41 10 is_stmt 1 view .LVU1846
 6896              	.LBB2015:
 6897              	.LBI2015:
 239:../../libdaisy/src/dev/oled_ssd130x.h ****     {
 6898              		.loc 6 239 10 view .LVU1847
 6899              	.LBE2015:
 6900              	.LBE2014:
 190:../../libdaisy/src/hid/disp/display.h ****         int_fast16_t error  = deltaX - deltaY;
 6901              		.loc 5 190 42 is_stmt 0 view .LVU1848
 6902 02c6 4FF0FF33 		mov	r3, #-1
 6903              	.LBB2025:
 6904              	.LBB2020:
 6905              	.LBB2016:
 241:../../libdaisy/src/dev/oled_ssd130x.h ****             return;
 6906              		.loc 6 241 9 view .LVU1849
 6907 02ca BCF17F0F 		cmp	ip, #127
 6908              	.LBE2016:
 6909              	.LBE2020:
 6910              	.LBE2025:
 190:../../libdaisy/src/hid/disp/display.h ****         int_fast16_t error  = deltaX - deltaY;
 6911              		.loc 5 190 42 view .LVU1850
 6912 02ce 0493     		str	r3, [sp, #16]
 6913              	.LBB2026:
 6914              	.LBB2021:
 6915              	.LBB2017:
 241:../../libdaisy/src/dev/oled_ssd130x.h ****             return;
 6916              		.loc 6 241 9 view .LVU1851
 6917 02d0 06D8     		bhi	.L491
 6918              	.LVL452:
 6919              	.L502:
 244:../../libdaisy/src/dev/oled_ssd130x.h ****         else
 6920              		.loc 6 244 42 view .LVU1852
 6921 02d2 0CF56073 		add	r3, ip, #896
 6922 02d6 2344     		add	r3, r3, r4
 6923 02d8 1E7D     		ldrb	r6, [r3, #20]	@ zero_extendqisi2
 6924 02da 46F00806 		orr	r6, r6, #8
 6925 02de 1E75     		strb	r6, [r3, #20]
 6926              	.L491:
 6927              	.LVL453:
 244:../../libdaisy/src/dev/oled_ssd130x.h ****         else
 6928              		.loc 6 244 42 view .LVU1853
 6929              	.LBE2017:
 6930              	.LBE2021:
 6931              	.LBE2026:
 199:../../libdaisy/src/hid/disp/display.h ****         {
 6932              		.loc 5 199 26 is_stmt 1 view .LVU1854
 6933 02e0 6145     		cmp	r1, ip
 6934 02e2 01D1     		bne	.L494
 6935 02e4 3B2A     		cmp	r2, #59
 6936 02e6 3FD0     		beq	.L492
 6937              	.L494:
 6938              	.LVL454:
 203:../../libdaisy/src/hid/disp/display.h ****             {
 6939              		.loc 5 203 23 is_stmt 0 view .LVU1855
 6940 02e8 C8F10009 		rsb	r9, r8, #0
 6941              	.LVL455:
 6942              	.L496:
ARM GAS  C:\Users\VINCIU~1\AppData\Local\Temp\ccA1pwKF.s 			page 179


 6943              	.LBB2027:
 6944              	.LBI2027:
  41:../../libdaisy/src/hid/disp/oled_display.h ****     {
 6945              		.loc 1 41 10 is_stmt 1 view .LVU1856
 6946              	.LBB2028:
 6947              	.LBI2028:
 239:../../libdaisy/src/dev/oled_ssd130x.h ****     {
 6948              		.loc 6 239 10 view .LVU1857
 6949              	.LBB2029:
 244:../../libdaisy/src/dev/oled_ssd130x.h ****         else
 6950              		.loc 6 244 48 is_stmt 0 view .LVU1858
 6951 02ec 4FF0010B 		mov	fp, #1
 244:../../libdaisy/src/dev/oled_ssd130x.h ****         else
 6952              		.loc 6 244 28 view .LVU1859
 6953 02f0 D308     		lsrs	r3, r2, #3
 244:../../libdaisy/src/dev/oled_ssd130x.h ****         else
 6954              		.loc 6 244 54 view .LVU1860
 6955 02f2 02F00706 		and	r6, r2, #7
 241:../../libdaisy/src/dev/oled_ssd130x.h ****             return;
 6956              		.loc 6 241 9 view .LVU1861
 6957 02f6 7F29     		cmp	r1, #127
 244:../../libdaisy/src/dev/oled_ssd130x.h ****         else
 6958              		.loc 6 244 42 view .LVU1862
 6959 02f8 01EBC313 		add	r3, r1, r3, lsl #7
 6960              	.LBE2029:
 6961              	.LBE2028:
 6962              	.LBE2027:
 202:../../libdaisy/src/hid/disp/display.h ****             if(error2 > -deltaY)
 6963              		.loc 5 202 20 view .LVU1863
 6964 02fc 00FA0BF7 		lsl	r7, r0, fp
 6965              	.LVL456:
 6966              	.LBB2032:
 6967              	.LBB2031:
 6968              	.LBB2030:
 244:../../libdaisy/src/dev/oled_ssd130x.h ****         else
 6969              		.loc 6 244 48 view .LVU1864
 6970 0300 0BFA06F6 		lsl	r6, fp, r6
 241:../../libdaisy/src/dev/oled_ssd130x.h ****             return;
 6971              		.loc 6 241 9 view .LVU1865
 6972 0304 07D8     		bhi	.L497
 6973 0306 3F2A     		cmp	r2, #63
 244:../../libdaisy/src/dev/oled_ssd130x.h ****         else
 6974              		.loc 6 244 42 view .LVU1866
 6975 0308 2344     		add	r3, r3, r4
 241:../../libdaisy/src/dev/oled_ssd130x.h ****             return;
 6976              		.loc 6 241 9 view .LVU1867
 6977 030a 04D8     		bhi	.L497
 244:../../libdaisy/src/dev/oled_ssd130x.h ****         else
 6978              		.loc 6 244 42 view .LVU1868
 6979 030c 93F814B0 		ldrb	fp, [r3, #20]	@ zero_extendqisi2
 6980 0310 46EA0B06 		orr	r6, r6, fp
 6981 0314 1E75     		strb	r6, [r3, #20]
 6982              	.L497:
 244:../../libdaisy/src/dev/oled_ssd130x.h ****         else
 6983              		.loc 6 244 42 view .LVU1869
 6984              	.LBE2030:
 6985              	.LBE2031:
ARM GAS  C:\Users\VINCIU~1\AppData\Local\Temp\ccA1pwKF.s 			page 180


 6986              	.LBE2032:
 203:../../libdaisy/src/hid/disp/display.h ****             {
 6987              		.loc 5 203 13 view .LVU1870
 6988 0316 B9EB400F 		cmp	r9, r0, lsl #1
 6989 031a 02DA     		bge	.L498
 205:../../libdaisy/src/hid/disp/display.h ****                 x1 += signX;
 6990              		.loc 5 205 23 view .LVU1871
 6991 031c A0EB0800 		sub	r0, r0, r8
 6992              	.LVL457:
 206:../../libdaisy/src/hid/disp/display.h ****             }
 6993              		.loc 5 206 20 view .LVU1872
 6994 0320 5144     		add	r1, r1, r10
 6995              	.LVL458:
 6996              	.L498:
 209:../../libdaisy/src/hid/disp/display.h ****             {
 6997              		.loc 5 209 13 view .LVU1873
 6998 0322 BE45     		cmp	lr, r7
 6999 0324 02DD     		ble	.L499
 212:../../libdaisy/src/hid/disp/display.h ****             }
 7000              		.loc 5 212 20 view .LVU1874
 7001 0326 049B     		ldr	r3, [sp, #16]
 211:../../libdaisy/src/hid/disp/display.h ****                 y1 += signY;
 7002              		.loc 5 211 23 view .LVU1875
 7003 0328 7044     		add	r0, r0, lr
 7004              	.LVL459:
 212:../../libdaisy/src/hid/disp/display.h ****             }
 7005              		.loc 5 212 20 view .LVU1876
 7006 032a 1A44     		add	r2, r2, r3
 7007              	.LVL460:
 7008              	.L499:
 199:../../libdaisy/src/hid/disp/display.h ****         {
 7009              		.loc 5 199 26 is_stmt 1 view .LVU1877
 7010 032c 8C45     		cmp	ip, r1
 7011 032e DDD1     		bne	.L496
 199:../../libdaisy/src/hid/disp/display.h ****         {
 7012              		.loc 5 199 26 is_stmt 0 view .LVU1878
 7013 0330 3B2A     		cmp	r2, #59
 7014 0332 DBD1     		bne	.L496
 7015 0334 18E0     		b	.L582
 7016              	.L583:
 7017 0336 00BF     		.align	2
 7018              	.L581:
 7019 0338 00000000 		.word	Font_6x8
 7020 033c 20000400 		.word	262176
 7021 0340 00000000 		.word	.LC7
 7022 0344 30000400 		.word	262192
 7023 0348 04000000 		.word	.LC8
 7024 034c 40000400 		.word	262208
 7025 0350 08000000 		.word	.LC9
 7026 0354 50000400 		.word	262224
 7027 0358 0C000000 		.word	.LC10
 7028 035c 00006C42 		.word	1114374144
 7029 0360 00000042 		.word	1107296256
 7030 0364 0000C842 		.word	1120403456
 7031              	.L582:
 7032              	.LVL461:
 7033              	.L492:
ARM GAS  C:\Users\VINCIU~1\AppData\Local\Temp\ccA1pwKF.s 			page 181


 199:../../libdaisy/src/hid/disp/display.h ****         {
 7034              		.loc 5 199 26 view .LVU1879
 7035              	.LBE2037:
 7036              	.LBE2040:
 7037              	.LBB2041:
 7038              	.LBB2042:
 7039              	.LBB2043:
 7040              	.LBB2044:
 7041              	.LBB2045:
 111:../../libdaisy/src/dev/oled_ssd130x.h ****         spi_.BlockingTransmit(&cmd, 1);
 7042              		.loc 6 111 24 view .LVU1880
 7043 0368 05F10807 		add	r7, r5, #8
 7044 036c 05F10C06 		add	r6, r5, #12
 7045 0370 05F20C49 		addw	r9, r5, #1036
 7046 0374 B024     		movs	r4, #176
 7047              	.LVL462:
 7048              	.L500:
 111:../../libdaisy/src/dev/oled_ssd130x.h ****         spi_.BlockingTransmit(&cmd, 1);
 7049              		.loc 6 111 24 view .LVU1881
 7050 0376 4FF00008 		mov	r8, #0
 111:../../libdaisy/src/dev/oled_ssd130x.h ****         spi_.BlockingTransmit(&cmd, 1);
 7051              		.loc 6 111 23 view .LVU1882
 7052 037a 3846     		mov	r0, r7
 7053 037c 8DF82740 		strb	r4, [sp, #39]
 7054              	.LVL463:
 111:../../libdaisy/src/dev/oled_ssd130x.h ****         spi_.BlockingTransmit(&cmd, 1);
 7055              		.loc 6 111 23 view .LVU1883
 7056              	.LBE2045:
 7057              	.LBI2044:
 109:../../libdaisy/src/dev/oled_ssd130x.h ****     {
 7058              		.loc 6 109 10 is_stmt 1 view .LVU1884
 7059              	.LBB2046:
 111:../../libdaisy/src/dev/oled_ssd130x.h ****         spi_.BlockingTransmit(&cmd, 1);
 7060              		.loc 6 111 9 view .LVU1885
 7061              	.LBE2046:
 7062              	.LBE2044:
 7063              		.loc 6 270 22 is_stmt 0 view .LVU1886
 7064 0380 0134     		adds	r4, r4, #1
 7065              	.LVL464:
 7066              	.LBB2049:
 7067              	.LBB2047:
 111:../../libdaisy/src/dev/oled_ssd130x.h ****         spi_.BlockingTransmit(&cmd, 1);
 7068              		.loc 6 111 23 view .LVU1887
 7069 0382 4146     		mov	r1, r8
 7070 0384 FFF7FEFF 		bl	dsy_gpio_write
 7071              	.LVL465:
 112:../../libdaisy/src/dev/oled_ssd130x.h ****     };
 7072              		.loc 6 112 9 is_stmt 1 view .LVU1888
 112:../../libdaisy/src/dev/oled_ssd130x.h ****     };
 7073              		.loc 6 112 30 is_stmt 0 view .LVU1889
 7074 0388 6423     		movs	r3, #100
 7075 038a 0122     		movs	r2, #1
 7076 038c 0DF12701 		add	r1, sp, #39
 7077 0390 2846     		mov	r0, r5
 7078              	.LBE2047:
 7079              	.LBE2049:
 7080              		.loc 6 270 22 view .LVU1890
ARM GAS  C:\Users\VINCIU~1\AppData\Local\Temp\ccA1pwKF.s 			page 182


 7081 0392 E4B2     		uxtb	r4, r4
 7082              	.LBB2050:
 7083              	.LBB2048:
 112:../../libdaisy/src/dev/oled_ssd130x.h ****     };
 7084              		.loc 6 112 30 view .LVU1891
 7085 0394 FFF7FEFF 		bl	_ZN5daisy9SpiHandle16BlockingTransmitEPhjm
 7086              	.LVL466:
 112:../../libdaisy/src/dev/oled_ssd130x.h ****     };
 7087              		.loc 6 112 30 view .LVU1892
 7088              	.LBE2048:
 7089              	.LBE2050:
 7090              	.LBB2051:
 7091              	.LBB2052:
 111:../../libdaisy/src/dev/oled_ssd130x.h ****         spi_.BlockingTransmit(&cmd, 1);
 7092              		.loc 6 111 23 view .LVU1893
 7093 0398 4146     		mov	r1, r8
 7094 039a 3846     		mov	r0, r7
 7095 039c 8DF82780 		strb	r8, [sp, #39]
 7096              	.LVL467:
 111:../../libdaisy/src/dev/oled_ssd130x.h ****         spi_.BlockingTransmit(&cmd, 1);
 7097              		.loc 6 111 23 view .LVU1894
 7098              	.LBE2052:
 7099              	.LBI2051:
 109:../../libdaisy/src/dev/oled_ssd130x.h ****     {
 7100              		.loc 6 109 10 is_stmt 1 view .LVU1895
 7101              	.LBB2053:
 111:../../libdaisy/src/dev/oled_ssd130x.h ****         spi_.BlockingTransmit(&cmd, 1);
 7102              		.loc 6 111 9 view .LVU1896
 111:../../libdaisy/src/dev/oled_ssd130x.h ****         spi_.BlockingTransmit(&cmd, 1);
 7103              		.loc 6 111 23 is_stmt 0 view .LVU1897
 7104 03a0 FFF7FEFF 		bl	dsy_gpio_write
 7105              	.LVL468:
 112:../../libdaisy/src/dev/oled_ssd130x.h ****     };
 7106              		.loc 6 112 9 is_stmt 1 view .LVU1898
 112:../../libdaisy/src/dev/oled_ssd130x.h ****     };
 7107              		.loc 6 112 30 is_stmt 0 view .LVU1899
 7108 03a4 0122     		movs	r2, #1
 7109 03a6 6423     		movs	r3, #100
 7110 03a8 0DF12701 		add	r1, sp, #39
 7111 03ac 2846     		mov	r0, r5
 7112 03ae FFF7FEFF 		bl	_ZN5daisy9SpiHandle16BlockingTransmitEPhjm
 7113              	.LVL469:
 112:../../libdaisy/src/dev/oled_ssd130x.h ****     };
 7114              		.loc 6 112 30 view .LVU1900
 7115 03b2 1023     		movs	r3, #16
 7116              	.LBE2053:
 7117              	.LBE2051:
 7118              	.LBB2054:
 7119              	.LBB2055:
 111:../../libdaisy/src/dev/oled_ssd130x.h ****         spi_.BlockingTransmit(&cmd, 1);
 7120              		.loc 6 111 23 view .LVU1901
 7121 03b4 4146     		mov	r1, r8
 7122 03b6 3846     		mov	r0, r7
 7123 03b8 8DF82730 		strb	r3, [sp, #39]
 7124              	.LVL470:
 111:../../libdaisy/src/dev/oled_ssd130x.h ****         spi_.BlockingTransmit(&cmd, 1);
 7125              		.loc 6 111 23 view .LVU1902
ARM GAS  C:\Users\VINCIU~1\AppData\Local\Temp\ccA1pwKF.s 			page 183


 7126              	.LBE2055:
 7127              	.LBI2054:
 109:../../libdaisy/src/dev/oled_ssd130x.h ****     {
 7128              		.loc 6 109 10 is_stmt 1 view .LVU1903
 7129              	.LBB2056:
 111:../../libdaisy/src/dev/oled_ssd130x.h ****         spi_.BlockingTransmit(&cmd, 1);
 7130              		.loc 6 111 9 view .LVU1904
 111:../../libdaisy/src/dev/oled_ssd130x.h ****         spi_.BlockingTransmit(&cmd, 1);
 7131              		.loc 6 111 23 is_stmt 0 view .LVU1905
 7132 03bc FFF7FEFF 		bl	dsy_gpio_write
 7133              	.LVL471:
 112:../../libdaisy/src/dev/oled_ssd130x.h ****     };
 7134              		.loc 6 112 9 is_stmt 1 view .LVU1906
 112:../../libdaisy/src/dev/oled_ssd130x.h ****     };
 7135              		.loc 6 112 30 is_stmt 0 view .LVU1907
 7136 03c0 6423     		movs	r3, #100
 7137 03c2 0122     		movs	r2, #1
 7138 03c4 0DF12701 		add	r1, sp, #39
 7139 03c8 2846     		mov	r0, r5
 7140 03ca FFF7FEFF 		bl	_ZN5daisy9SpiHandle16BlockingTransmitEPhjm
 7141              	.LVL472:
 112:../../libdaisy/src/dev/oled_ssd130x.h ****     };
 7142              		.loc 6 112 30 view .LVU1908
 7143              	.LBE2056:
 7144              	.LBE2054:
 7145              	.LBB2057:
 7146              	.LBI2057:
 115:../../libdaisy/src/dev/oled_ssd130x.h ****     {
 7147              		.loc 6 115 10 is_stmt 1 view .LVU1909
 7148              	.LBB2058:
 117:../../libdaisy/src/dev/oled_ssd130x.h ****         spi_.BlockingTransmit(buff, size);
 7149              		.loc 6 117 9 view .LVU1910
 117:../../libdaisy/src/dev/oled_ssd130x.h ****         spi_.BlockingTransmit(buff, size);
 7150              		.loc 6 117 23 is_stmt 0 view .LVU1911
 7151 03ce 0121     		movs	r1, #1
 7152 03d0 3846     		mov	r0, r7
 7153 03d2 FFF7FEFF 		bl	dsy_gpio_write
 7154              	.LVL473:
 118:../../libdaisy/src/dev/oled_ssd130x.h ****     };
 7155              		.loc 6 118 9 is_stmt 1 view .LVU1912
 118:../../libdaisy/src/dev/oled_ssd130x.h ****     };
 7156              		.loc 6 118 30 is_stmt 0 view .LVU1913
 7157 03d6 8022     		movs	r2, #128
 7158 03d8 3146     		mov	r1, r6
 7159 03da 6423     		movs	r3, #100
 7160              	.LBE2058:
 7161              	.LBE2057:
 7162              		.loc 6 270 22 view .LVU1914
 7163 03dc 1644     		add	r6, r6, r2
 7164              	.LVL474:
 7165              	.LBB2060:
 7166              	.LBB2059:
 118:../../libdaisy/src/dev/oled_ssd130x.h ****     };
 7167              		.loc 6 118 30 view .LVU1915
 7168 03de 2846     		mov	r0, r5
 7169 03e0 FFF7FEFF 		bl	_ZN5daisy9SpiHandle16BlockingTransmitEPhjm
 7170              	.LVL475:
ARM GAS  C:\Users\VINCIU~1\AppData\Local\Temp\ccA1pwKF.s 			page 184


 118:../../libdaisy/src/dev/oled_ssd130x.h ****     };
 7171              		.loc 6 118 30 view .LVU1916
 7172              	.LBE2059:
 7173              	.LBE2060:
 7174              		.loc 6 270 9 is_stmt 1 view .LVU1917
 7175              		.loc 6 270 22 view .LVU1918
 7176 03e4 4E45     		cmp	r6, r9
 7177 03e6 C6D1     		bne	.L500
 7178              	.LBE2043:
 7179              	.LBE2042:
 7180              	.LBE2041:
 670:Menus.cpp     ****                   
 671:Menus.cpp     ****                     
 672:Menus.cpp     **** 
 673:Menus.cpp     **** 
 674:Menus.cpp     ****     screen.Update();
 675:Menus.cpp     **** }...
 7181              		.loc 2 675 1 is_stmt 0 view .LVU1919
 7182 03e8 0BB0     		add	sp, sp, #44
 7183              		.cfi_remember_state
 7184              		.cfi_def_cfa_offset 36
 7185              		@ sp needed
 7186 03ea BDE8F08F 		pop	{r4, r5, r6, r7, r8, r9, r10, fp, pc}
 7187              	.LVL476:
 7188              	.L462:
 7189              		.cfi_restore_state
 7190              	.LBB2061:
 7191              	.LBB1967:
 7192              	.LBB1964:
 7193              	.LBB1953:
 7194              	.LBB1949:
 239:../../libdaisy/src/dev/oled_ssd130x.h ****     {
 7195              		.loc 6 239 10 is_stmt 1 view .LVU1920
 7196              	.LBE1949:
 7197              	.LBE1953:
 7198              	.LBE1964:
 189:../../libdaisy/src/hid/disp/display.h ****         int_fast16_t signY  = ((y1 < y2) ? 1 : -1);
 7199              		.loc 5 189 42 is_stmt 0 view .LVU1921
 7200 03ee 4FF0FF38 		mov	r8, #-1
 7201              	.LVL477:
 7202              	.L501:
 7203              	.LBB1965:
 7204              	.LBB1954:
 7205              	.LBB1950:
 7206              	.LBB1947:
 244:../../libdaisy/src/dev/oled_ssd130x.h ****         else
 7207              		.loc 6 244 42 view .LVU1922
 7208 03f2 01F5C073 		add	r3, r1, #384
 7209 03f6 2344     		add	r3, r3, r4
 7210 03f8 1A7D     		ldrb	r2, [r3, #20]	@ zero_extendqisi2
 7211 03fa 42F00202 		orr	r2, r2, #2
 7212 03fe 1A75     		strb	r2, [r3, #20]
 7213 0400 5EE6     		b	.L463
 7214              	.LVL478:
 7215              	.L468:
 244:../../libdaisy/src/dev/oled_ssd130x.h ****         else
 7216              		.loc 6 244 42 view .LVU1923
ARM GAS  C:\Users\VINCIU~1\AppData\Local\Temp\ccA1pwKF.s 			page 185


 7217              	.LBE1947:
 7218              	.LBE1950:
 7219              	.LBE1954:
 7220              	.LBE1965:
 211:../../libdaisy/src/hid/disp/display.h ****                 y1 += signY;
 7221              		.loc 5 211 23 view .LVU1924
 7222 0402 CC44     		add	ip, ip, r9
 7223              	.LVL479:
 212:../../libdaisy/src/hid/disp/display.h ****             }
 7224              		.loc 5 212 20 view .LVU1925
 7225 0404 0138     		subs	r0, r0, #1
 7226              	.LVL480:
 212:../../libdaisy/src/hid/disp/display.h ****             }
 7227              		.loc 5 212 20 view .LVU1926
 7228 0406 7BE6     		b	.L469
 7229              	.LVL481:
 7230              	.L490:
 212:../../libdaisy/src/hid/disp/display.h ****             }
 7231              		.loc 5 212 20 view .LVU1927
 7232              	.LBE1967:
 7233              	.LBE2061:
 7234              	.LBB2062:
 7235              	.LBB2038:
 7236              	.LBB2033:
  41:../../libdaisy/src/hid/disp/oled_display.h ****     {
 7237              		.loc 1 41 10 is_stmt 1 view .LVU1928
 7238              	.LBB2022:
 239:../../libdaisy/src/dev/oled_ssd130x.h ****     {
 7239              		.loc 6 239 10 view .LVU1929
 7240              	.LBE2022:
 7241              	.LBE2033:
 190:../../libdaisy/src/hid/disp/display.h ****         int_fast16_t error  = deltaX - deltaY;
 7242              		.loc 5 190 42 is_stmt 0 view .LVU1930
 7243 0408 0123     		movs	r3, #1
 7244              	.LBB2034:
 7245              	.LBB2023:
 7246              	.LBB2018:
 241:../../libdaisy/src/dev/oled_ssd130x.h ****             return;
 7247              		.loc 6 241 9 view .LVU1931
 7248 040a BCF17F0F 		cmp	ip, #127
 7249              	.LBE2018:
 7250              	.LBE2023:
 7251              	.LBE2034:
 190:../../libdaisy/src/hid/disp/display.h ****         int_fast16_t error  = deltaX - deltaY;
 7252              		.loc 5 190 42 view .LVU1932
 7253 040e 0493     		str	r3, [sp, #16]
 7254              	.LBB2035:
 7255              	.LBB2024:
 7256              	.LBB2019:
 241:../../libdaisy/src/dev/oled_ssd130x.h ****             return;
 7257              		.loc 6 241 9 view .LVU1933
 7258 0410 7FF65FAF 		bls	.L502
 7259 0414 68E7     		b	.L494
 7260              	.LVL482:
 7261              	.L471:
 241:../../libdaisy/src/dev/oled_ssd130x.h ****             return;
 7262              		.loc 6 241 9 view .LVU1934
ARM GAS  C:\Users\VINCIU~1\AppData\Local\Temp\ccA1pwKF.s 			page 186


 7263              	.LBE2019:
 7264              	.LBE2024:
 7265              	.LBE2035:
 7266              	.LBE2038:
 7267              	.LBE2062:
 7268              	.LBB2063:
 7269              	.LBB1989:
 191:../../libdaisy/src/hid/disp/display.h ****         int_fast16_t error2;
 7270              		.loc 5 191 22 view .LVU1935
 7271 0416 049B     		ldr	r3, [sp, #16]
 7272              	.LVL483:
 7273              	.LBB1987:
 7274              	.LBB1978:
 7275              	.LBB1975:
 241:../../libdaisy/src/dev/oled_ssd130x.h ****             return;
 7276              		.loc 6 241 28 view .LVU1936
 7277 0418 3F2A     		cmp	r2, #63
 7278              	.LBE1975:
 7279              	.LBE1978:
 7280              	.LBE1987:
 191:../../libdaisy/src/hid/disp/display.h ****         int_fast16_t error2;
 7281              		.loc 5 191 22 view .LVU1937
 7282 041a AEEB030C 		sub	ip, lr, r3
 7283              	.LVL484:
 7284              	.LBB1988:
  41:../../libdaisy/src/hid/disp/oled_display.h ****     {
 7285              		.loc 1 41 10 is_stmt 1 view .LVU1938
 7286              	.LBB1979:
 239:../../libdaisy/src/dev/oled_ssd130x.h ****     {
 7287              		.loc 6 239 10 view .LVU1939
 7288              	.LBB1976:
 241:../../libdaisy/src/dev/oled_ssd130x.h ****             return;
 7289              		.loc 6 241 28 is_stmt 0 view .LVU1940
 7290 041e 94BF     		ite	ls
 7291 0420 0023     		movls	r3, #0
 7292 0422 0123     		movhi	r3, #1
 241:../../libdaisy/src/dev/oled_ssd130x.h ****             return;
 7293              		.loc 6 241 9 view .LVU1941
 7294 0424 7F2E     		cmp	r6, #127
 241:../../libdaisy/src/dev/oled_ssd130x.h ****             return;
 7295              		.loc 6 241 28 view .LVU1942
 7296 0426 0793     		str	r3, [sp, #28]
 241:../../libdaisy/src/dev/oled_ssd130x.h ****             return;
 7297              		.loc 6 241 9 view .LVU1943
 7298 0428 00F2FC81 		bhi	.L516
 7299 042c 002B     		cmp	r3, #0
 7300 042e 40F0F981 		bne	.L516
 7301              	.LBE1976:
 7302              	.LBE1979:
 7303              	.LBE1988:
 190:../../libdaisy/src/hid/disp/display.h ****         int_fast16_t error  = deltaX - deltaY;
 7304              		.loc 5 190 42 view .LVU1944
 7305 0432 0123     		movs	r3, #1
 7306 0434 0693     		str	r3, [sp, #24]
 7307 0436 98E6     		b	.L504
 7308              	.LVL485:
 7309              	.L480:
ARM GAS  C:\Users\VINCIU~1\AppData\Local\Temp\ccA1pwKF.s 			page 187


 190:../../libdaisy/src/hid/disp/display.h ****         int_fast16_t error  = deltaX - deltaY;
 7310              		.loc 5 190 42 view .LVU1945
 7311              	.LBE1989:
 7312              	.LBE2063:
 7313              	.LBB2064:
 7314              	.LBB2010:
 7315              	.LBB2007:
  41:../../libdaisy/src/hid/disp/oled_display.h ****     {
 7316              		.loc 1 41 10 is_stmt 1 view .LVU1946
 7317              	.LBB2001:
 239:../../libdaisy/src/dev/oled_ssd130x.h ****     {
 7318              		.loc 6 239 10 view .LVU1947
 7319              	.LBB1998:
 241:../../libdaisy/src/dev/oled_ssd130x.h ****             return;
 7320              		.loc 6 241 9 is_stmt 0 view .LVU1948
 7321 0438 7F29     		cmp	r1, #127
 7322              	.LBE1998:
 7323              	.LBE2001:
 7324              	.LBE2007:
 189:../../libdaisy/src/hid/disp/display.h ****         int_fast16_t signY  = ((y1 < y2) ? 1 : -1);
 7325              		.loc 5 189 42 view .LVU1949
 7326 043a 4FF00109 		mov	r9, #1
 7327              	.LBB2008:
 7328              	.LBB2002:
 7329              	.LBB1999:
 241:../../libdaisy/src/dev/oled_ssd130x.h ****             return;
 7330              		.loc 6 241 9 view .LVU1950
 7331 043e 3FF6FEAE 		bhi	.L483
 7332 0442 079B     		ldr	r3, [sp, #28]
 7333 0444 002B     		cmp	r3, #0
 7334 0446 3FF4EAAE 		beq	.L503
 7335 044a F8E6     		b	.L483
 7336              	.LVL486:
 7337              	.L573:
 241:../../libdaisy/src/dev/oled_ssd130x.h ****             return;
 7338              		.loc 6 241 9 view .LVU1951
 7339              	.LBE1999:
 7340              	.LBE2002:
 7341              	.LBE2008:
 7342              	.LBE2010:
 7343              	.LBE2064:
 544:Menus.cpp     ****         this->menuStateEnv = this->menuStateEnv + 1;
 7344              		.loc 2 544 9 is_stmt 1 view .LVU1952
 544:Menus.cpp     ****         this->menuStateEnv = this->menuStateEnv + 1;
 7345              		.loc 2 544 49 is_stmt 0 view .LVU1953
 7346 044c 0133     		adds	r3, r3, #1
 545:Menus.cpp     ****         if(this->menuStateEnv > 3)
 7347              		.loc 2 545 9 view .LVU1954
 7348 044e 032B     		cmp	r3, #3
 544:Menus.cpp     ****         this->menuStateEnv = this->menuStateEnv + 1;
 7349              		.loc 2 544 28 view .LVU1955
 7350 0450 C7F8A431 		str	r3, [r7, #420]
 545:Menus.cpp     ****         if(this->menuStateEnv > 3)
 7351              		.loc 2 545 9 is_stmt 1 view .LVU1956
 7352 0454 7FF7EDAD 		ble	.L414
 7353              	.L411:
 547:Menus.cpp     ****             this->menuStateEnv = 0;
ARM GAS  C:\Users\VINCIU~1\AppData\Local\Temp\ccA1pwKF.s 			page 188


 7354              		.loc 2 547 13 view .LVU1957
 547:Menus.cpp     ****             this->menuStateEnv = 0;
 7355              		.loc 2 547 32 is_stmt 0 view .LVU1958
 7356 0458 0023     		movs	r3, #0
 7357 045a C7F8A431 		str	r3, [r7, #420]
 550:Menus.cpp     ****     if(menuStateEnv == 0)
 7358              		.loc 2 550 5 is_stmt 1 view .LVU1959
 7359              	.L413:
 552:Menus.cpp     ****         this->attackTime += this->encoderRight.Increment() * 3.3;
 7360              		.loc 2 552 9 view .LVU1960
 7361              	.LVL487:
 7362              	.LBB2065:
 7363              	.LBI2065:
  41:../../libdaisy/src/hid/encoder.h ****     /** Returns true if the encoder was just pressed.
 7364              		.loc 3 41 20 view .LVU1961
 7365              	.LBB2066:
  41:../../libdaisy/src/hid/encoder.h ****     /** Returns true if the encoder was just pressed.
 7366              		.loc 3 41 40 view .LVU1962
  41:../../libdaisy/src/hid/encoder.h ****     /** Returns true if the encoder was just pressed.
 7367              		.loc 3 41 40 is_stmt 0 view .LVU1963
 7368              	.LBE2066:
 7369              	.LBE2065:
 552:Menus.cpp     ****         this->attackTime += this->encoderRight.Increment() * 3.3;
 7370              		.loc 2 552 26 view .LVU1964
 7371 045e 97ED667A 		vldr.32	s14, [r7, #408]
 553:Menus.cpp     ****         env.SetTime(daisysp::ADSR_SEG_ATTACK, this->attackTime/100);
 7372              		.loc 2 553 20 view .LVU1965
 7373 0462 0121     		movs	r1, #1
 552:Menus.cpp     ****         this->attackTime += this->encoderRight.Increment() * 3.3;
 7374              		.loc 2 552 60 view .LVU1966
 7375 0464 D7ED127A 		vldr.32	s15, [r7, #72]	@ int
 553:Menus.cpp     ****         env.SetTime(daisysp::ADSR_SEG_ATTACK, this->attackTime/100);
 7376              		.loc 2 553 20 view .LVU1967
 7377 0468 2846     		mov	r0, r5
 7378 046a 1FED420A 		vldr.32	s0, .L581+44
 552:Menus.cpp     ****         this->attackTime += this->encoderRight.Increment() * 3.3;
 7379              		.loc 2 552 60 view .LVU1968
 7380 046e B8EEE76B 		vcvt.f64.s32	d6, s15
 552:Menus.cpp     ****         this->attackTime += this->encoderRight.Increment() * 3.3;
 7381              		.loc 2 552 26 view .LVU1969
 7382 0472 B7EEC77A 		vcvt.f64.f32	d7, s14
 7383 0476 9FEDE65B 		vldr.64	d5, .L584
 7384 047a A6EE057B 		vfma.f64	d7, d6, d5
 7385 047e B7EEC77B 		vcvt.f32.f64	s14, d7
 553:Menus.cpp     ****         env.SetTime(daisysp::ADSR_SEG_ATTACK, this->attackTime/100);
 7386              		.loc 2 553 20 view .LVU1970
 7387 0482 87EE000A 		vdiv.f32	s0, s14, s0
 552:Menus.cpp     ****         this->attackTime += this->encoderRight.Increment() * 3.3;
 7388              		.loc 2 552 26 view .LVU1971
 7389 0486 87ED667A 		vstr.32	s14, [r7, #408]
 553:Menus.cpp     ****         env.SetTime(daisysp::ADSR_SEG_ATTACK, this->attackTime/100);
 7390              		.loc 2 553 9 is_stmt 1 view .LVU1972
 553:Menus.cpp     ****         env.SetTime(daisysp::ADSR_SEG_ATTACK, this->attackTime/100);
 7391              		.loc 2 553 20 is_stmt 0 view .LVU1973
 7392 048a FFF7FEFF 		bl	_ZN7daisysp4Adsr7SetTimeEif
 7393              	.LVL488:
 554:Menus.cpp     ****         this->attackTimeScaleDraw += this->encoderRight.Increment();
ARM GAS  C:\Users\VINCIU~1\AppData\Local\Temp\ccA1pwKF.s 			page 189


 7394              		.loc 2 554 9 is_stmt 1 view .LVU1974
 7395              	.LBB2067:
 7396              	.LBI2067:
  41:../../libdaisy/src/hid/encoder.h ****     /** Returns true if the encoder was just pressed.
 7397              		.loc 3 41 20 view .LVU1975
 7398              	.LBB2068:
  41:../../libdaisy/src/hid/encoder.h ****     /** Returns true if the encoder was just pressed.
 7399              		.loc 3 41 40 view .LVU1976
  41:../../libdaisy/src/hid/encoder.h ****     /** Returns true if the encoder was just pressed.
 7400              		.loc 3 41 40 is_stmt 0 view .LVU1977
 7401              	.LBE2068:
 7402              	.LBE2067:
 554:Menus.cpp     ****         this->attackTimeScaleDraw += this->encoderRight.Increment();
 7403              		.loc 2 554 35 view .LVU1978
 7404 048e D7ED127A 		vldr.32	s15, [r7, #72]	@ int
 7405 0492 D7ED686A 		vldr.32	s13, [r7, #416]
 555:Menus.cpp     ****         if(attackTimeScaleDraw >= screen.Width() / 4)
 7406              		.loc 2 555 9 view .LVU1979
 7407 0496 9FEDE07A 		vldr.32	s14, .L584+8
 554:Menus.cpp     ****         this->attackTimeScaleDraw += this->encoderRight.Increment();
 7408              		.loc 2 554 35 view .LVU1980
 7409 049a F8EEE77A 		vcvt.f32.s32	s15, s15
 7410 049e 77EEA67A 		vadd.f32	s15, s15, s13
 555:Menus.cpp     ****         if(attackTimeScaleDraw >= screen.Width() / 4)
 7411              		.loc 2 555 9 is_stmt 1 view .LVU1981
 7412 04a2 F4EEC77A 		vcmpe.f32	s15, s14
 7413 04a6 F1EE10FA 		vmrs	APSR_nzcv, FPSCR
 7414 04aa 80F2A881 		bge	.L577
 559:Menus.cpp     ****         if(attackTimeScaleDraw <= 0)
 7415              		.loc 2 559 9 view .LVU1982
 7416 04ae F5EEC07A 		vcmpe.f32	s15, #0
 7417 04b2 0023     		movs	r3, #0
 7418 04b4 F1EE10FA 		vmrs	APSR_nzcv, FPSCR
 554:Menus.cpp     ****         this->attackTimeScaleDraw += this->encoderRight.Increment();
 7419              		.loc 2 554 35 is_stmt 0 view .LVU1983
 7420 04b8 8CBF     		ite	hi
 7421 04ba C7ED687A 		vstrhi.32	s15, [r7, #416]
 561:Menus.cpp     ****             attackTimeScaleDraw = 0;
 7422              		.loc 2 561 13 is_stmt 1 view .LVU1984
 561:Menus.cpp     ****             attackTimeScaleDraw = 0;
 7423              		.loc 2 561 33 is_stmt 0 view .LVU1985
 7424 04be C7F8A031 		strls	r3, [r7, #416]	@ float
 7425              	.L418:
 563:Menus.cpp     ****         if(attackTime >= 100)
 7426              		.loc 2 563 9 is_stmt 1 view .LVU1986
 563:Menus.cpp     ****         if(attackTime >= 100)
 7427              		.loc 2 563 12 is_stmt 0 view .LVU1987
 7428 04c2 D7ED667A 		vldr.32	s15, [r7, #408]
 563:Menus.cpp     ****         if(attackTime >= 100)
 7429              		.loc 2 563 9 view .LVU1988
 7430 04c6 9FEDD57A 		vldr.32	s14, .L584+12
 7431 04ca F4EEC77A 		vcmpe.f32	s15, s14
 7432 04ce F1EE10FA 		vmrs	APSR_nzcv, FPSCR
 7433 04d2 C0F2B381 		blt	.L563
 565:Menus.cpp     ****             attackTime = 100;
 7434              		.loc 2 565 13 is_stmt 1 view .LVU1989
 565:Menus.cpp     ****             attackTime = 100;
ARM GAS  C:\Users\VINCIU~1\AppData\Local\Temp\ccA1pwKF.s 			page 190


 7435              		.loc 2 565 24 is_stmt 0 view .LVU1990
 7436 04d6 87ED667A 		vstr.32	s14, [r7, #408]
 567:Menus.cpp     ****         if(attackTime <= 0)
 7437              		.loc 2 567 9 is_stmt 1 view .LVU1991
 7438              	.L422:
 571:Menus.cpp     ****         screen.DrawRect(28, 0, 40, 13, true, false);
 7439              		.loc 2 571 9 view .LVU1992
 7440              	.LVL489:
 7441              	.LBB2069:
 7442              	.LBI2069:
 217:../../libdaisy/src/hid/disp/display.h ****                   uint_fast8_t y1,
 7443              		.loc 5 217 10 view .LVU1993
 7444              	.LBB2070:
 7445              	.LBI2070:
 181:../../libdaisy/src/hid/disp/display.h ****                   uint_fast8_t y1,
 7446              		.loc 5 181 10 view .LVU1994
 7447              	.LBB2071:
 7448              	.LBB2072:
 7449              	.LBI2072:
  41:../../libdaisy/src/hid/disp/oled_display.h ****     {
 7450              		.loc 1 41 10 view .LVU1995
 7451              	.LBB2073:
 7452              	.LBI2073:
 239:../../libdaisy/src/dev/oled_ssd130x.h ****     {
 7453              		.loc 6 239 10 view .LVU1996
 7454              	.LBB2074:
 244:../../libdaisy/src/dev/oled_ssd130x.h ****         else
 7455              		.loc 6 244 42 is_stmt 0 view .LVU1997
 7456 04da 94F83C20 		ldrb	r2, [r4, #60]	@ zero_extendqisi2
 7457 04de 04F12F03 		add	r3, r4, #47
 7458 04e2 04F13B01 		add	r1, r4, #59
 7459 04e6 42F00102 		orr	r2, r2, #1
 7460 04ea 84F83C20 		strb	r2, [r4, #60]
 7461              	.LVL490:
 244:../../libdaisy/src/dev/oled_ssd130x.h ****         else
 7462              		.loc 6 244 42 view .LVU1998
 7463              	.LBE2074:
 7464              	.LBE2073:
 7465              	.LBE2072:
 199:../../libdaisy/src/hid/disp/display.h ****         {
 7466              		.loc 5 199 26 is_stmt 1 view .LVU1999
 7467              	.L424:
 7468              	.LBB2075:
 7469              	.LBI2075:
  41:../../libdaisy/src/hid/disp/oled_display.h ****     {
 7470              		.loc 1 41 10 view .LVU2000
 7471              	.LBB2076:
 7472              	.LBI2076:
 239:../../libdaisy/src/dev/oled_ssd130x.h ****     {
 7473              		.loc 6 239 10 view .LVU2001
 7474              	.LBB2077:
 244:../../libdaisy/src/dev/oled_ssd130x.h ****         else
 7475              		.loc 6 244 42 is_stmt 0 view .LVU2002
 7476 04ee 13F8012F 		ldrb	r2, [r3, #1]!	@ zero_extendqisi2
 7477              	.LVL491:
 244:../../libdaisy/src/dev/oled_ssd130x.h ****         else
 7478              		.loc 6 244 42 view .LVU2003
ARM GAS  C:\Users\VINCIU~1\AppData\Local\Temp\ccA1pwKF.s 			page 191


 7479 04f2 42F00102 		orr	r2, r2, #1
 7480              	.LBE2077:
 7481              	.LBE2076:
 7482              	.LBE2075:
 199:../../libdaisy/src/hid/disp/display.h ****         {
 7483              		.loc 5 199 26 view .LVU2004
 7484 04f6 9942     		cmp	r1, r3
 7485              	.LBB2080:
 7486              	.LBB2079:
 7487              	.LBB2078:
 244:../../libdaisy/src/dev/oled_ssd130x.h ****         else
 7488              		.loc 6 244 42 view .LVU2005
 7489 04f8 1A70     		strb	r2, [r3]
 7490              	.LVL492:
 244:../../libdaisy/src/dev/oled_ssd130x.h ****         else
 7491              		.loc 6 244 42 view .LVU2006
 7492              	.LBE2078:
 7493              	.LBE2079:
 7494              	.LBE2080:
 199:../../libdaisy/src/hid/disp/display.h ****         {
 7495              		.loc 5 199 26 is_stmt 1 view .LVU2007
 7496 04fa F8D1     		bne	.L424
 7497              	.LVL493:
 199:../../libdaisy/src/hid/disp/display.h ****         {
 7498              		.loc 5 199 26 is_stmt 0 view .LVU2008
 7499              	.LBE2071:
 7500              	.LBE2070:
 7501              	.LBB2081:
 7502              	.LBI2081:
 181:../../libdaisy/src/hid/disp/display.h ****                   uint_fast8_t y1,
 7503              		.loc 5 181 10 is_stmt 1 view .LVU2009
 7504              	.LBB2082:
 7505              	.LBB2083:
 7506              	.LBI2083:
  41:../../libdaisy/src/hid/disp/oled_display.h ****     {
 7507              		.loc 1 41 10 view .LVU2010
 7508              	.LBB2084:
 7509              	.LBI2084:
 239:../../libdaisy/src/dev/oled_ssd130x.h ****     {
 7510              		.loc 6 239 10 view .LVU2011
 7511              	.LBB2085:
 244:../../libdaisy/src/dev/oled_ssd130x.h ****         else
 7512              		.loc 6 244 42 is_stmt 0 view .LVU2012
 7513 04fc 94F8BC30 		ldrb	r3, [r4, #188]	@ zero_extendqisi2
 7514 0500 0022     		movs	r2, #0
 7515 0502 43F02003 		orr	r3, r3, #32
 7516 0506 84F8BC30 		strb	r3, [r4, #188]
 7517              	.LVL494:
 244:../../libdaisy/src/dev/oled_ssd130x.h ****         else
 7518              		.loc 6 244 42 view .LVU2013
 7519              	.LBE2085:
 7520              	.LBE2084:
 7521              	.LBE2083:
 199:../../libdaisy/src/hid/disp/display.h ****         {
 7522              		.loc 5 199 26 is_stmt 1 view .LVU2014
 7523              	.L425:
 7524              	.LBB2086:
ARM GAS  C:\Users\VINCIU~1\AppData\Local\Temp\ccA1pwKF.s 			page 192


 7525              	.LBI2086:
  41:../../libdaisy/src/hid/disp/oled_display.h ****     {
 7526              		.loc 1 41 10 view .LVU2015
 7527              	.LBB2087:
 7528              	.LBI2087:
 239:../../libdaisy/src/dev/oled_ssd130x.h ****     {
 7529              		.loc 6 239 10 view .LVU2016
 7530              	.LBB2088:
 244:../../libdaisy/src/dev/oled_ssd130x.h ****         else
 7531              		.loc 6 244 28 is_stmt 0 view .LVU2017
 7532 050a D108     		lsrs	r1, r2, #3
 244:../../libdaisy/src/dev/oled_ssd130x.h ****         else
 7533              		.loc 6 244 54 view .LVU2018
 7534 050c 02F00700 		and	r0, r2, #7
 244:../../libdaisy/src/dev/oled_ssd130x.h ****         else
 7535              		.loc 6 244 48 view .LVU2019
 7536 0510 0123     		movs	r3, #1
 244:../../libdaisy/src/dev/oled_ssd130x.h ****         else
 7537              		.loc 6 244 42 view .LVU2020
 7538 0512 04EBC111 		add	r1, r4, r1, lsl #7
 7539              	.LBE2088:
 7540              	.LBE2087:
 7541              	.LBE2086:
 212:../../libdaisy/src/hid/disp/display.h ****             }
 7542              		.loc 5 212 20 view .LVU2021
 7543 0516 1A44     		add	r2, r2, r3
 7544              	.LVL495:
 7545              	.LBB2093:
 7546              	.LBB2091:
 7547              	.LBB2089:
 244:../../libdaisy/src/dev/oled_ssd130x.h ****         else
 7548              		.loc 6 244 48 view .LVU2022
 7549 0518 8340     		lsls	r3, r3, r0
 244:../../libdaisy/src/dev/oled_ssd130x.h ****         else
 7550              		.loc 6 244 42 view .LVU2023
 7551 051a 91F83C00 		ldrb	r0, [r1, #60]	@ zero_extendqisi2
 7552              	.LBE2089:
 7553              	.LBE2091:
 7554              	.LBE2093:
 199:../../libdaisy/src/hid/disp/display.h ****         {
 7555              		.loc 5 199 26 view .LVU2024
 7556 051e 0D2A     		cmp	r2, #13
 7557              	.LBB2094:
 7558              	.LBB2092:
 7559              	.LBB2090:
 244:../../libdaisy/src/dev/oled_ssd130x.h ****         else
 7560              		.loc 6 244 42 view .LVU2025
 7561 0520 43EA0003 		orr	r3, r3, r0
 7562 0524 81F83C30 		strb	r3, [r1, #60]
 7563              	.LVL496:
 244:../../libdaisy/src/dev/oled_ssd130x.h ****         else
 7564              		.loc 6 244 42 view .LVU2026
 7565              	.LBE2090:
 7566              	.LBE2092:
 7567              	.LBE2094:
 199:../../libdaisy/src/hid/disp/display.h ****         {
 7568              		.loc 5 199 26 is_stmt 1 view .LVU2027
ARM GAS  C:\Users\VINCIU~1\AppData\Local\Temp\ccA1pwKF.s 			page 193


 7569 0528 EFD1     		bne	.L425
 7570              	.LVL497:
 199:../../libdaisy/src/hid/disp/display.h ****         {
 7571              		.loc 5 199 26 is_stmt 0 view .LVU2028
 7572              	.LBE2082:
 7573              	.LBE2081:
 7574              	.LBB2095:
 7575              	.LBI2095:
 181:../../libdaisy/src/hid/disp/display.h ****                   uint_fast8_t y1,
 7576              		.loc 5 181 10 is_stmt 1 view .LVU2029
 7577              	.LBB2096:
 7578              	.LBB2097:
 7579              	.LBI2097:
  41:../../libdaisy/src/hid/disp/oled_display.h ****     {
 7580              		.loc 1 41 10 view .LVU2030
 7581              	.LBB2098:
 7582              	.LBI2098:
 239:../../libdaisy/src/dev/oled_ssd130x.h ****     {
 7583              		.loc 6 239 10 view .LVU2031
 7584              	.LBB2099:
 244:../../libdaisy/src/dev/oled_ssd130x.h ****         else
 7585              		.loc 6 244 42 is_stmt 0 view .LVU2032
 7586 052a 94F8B030 		ldrb	r3, [r4, #176]	@ zero_extendqisi2
 7587 052e 04F1B100 		add	r0, r4, #177
 7588 0532 43F02003 		orr	r3, r3, #32
 7589 0536 84F8B030 		strb	r3, [r4, #176]
 7590              	.LVL498:
 244:../../libdaisy/src/dev/oled_ssd130x.h ****         else
 7591              		.loc 6 244 42 view .LVU2033
 7592              	.LBE2099:
 7593              	.LBE2098:
 7594              	.LBE2097:
 199:../../libdaisy/src/hid/disp/display.h ****         {
 7595              		.loc 5 199 26 is_stmt 1 view .LVU2034
 7596 053a 04F1BD03 		add	r3, r4, #189
 7597              	.LVL499:
 7598              	.L426:
 7599              	.LBB2100:
 7600              	.LBI2100:
  41:../../libdaisy/src/hid/disp/oled_display.h ****     {
 7601              		.loc 1 41 10 view .LVU2035
 7602              	.LBB2101:
 7603              	.LBI2101:
 239:../../libdaisy/src/dev/oled_ssd130x.h ****     {
 7604              		.loc 6 239 10 view .LVU2036
 7605              	.LBB2102:
 244:../../libdaisy/src/dev/oled_ssd130x.h ****         else
 7606              		.loc 6 244 42 is_stmt 0 view .LVU2037
 7607 053e 13F8011D 		ldrb	r1, [r3, #-1]!	@ zero_extendqisi2
 7608              	.LVL500:
 244:../../libdaisy/src/dev/oled_ssd130x.h ****         else
 7609              		.loc 6 244 42 view .LVU2038
 7610 0542 41F02001 		orr	r1, r1, #32
 7611              	.LBE2102:
 7612              	.LBE2101:
 7613              	.LBE2100:
 199:../../libdaisy/src/hid/disp/display.h ****         {
ARM GAS  C:\Users\VINCIU~1\AppData\Local\Temp\ccA1pwKF.s 			page 194


 7614              		.loc 5 199 26 view .LVU2039
 7615 0546 9842     		cmp	r0, r3
 7616              	.LBB2105:
 7617              	.LBB2104:
 7618              	.LBB2103:
 244:../../libdaisy/src/dev/oled_ssd130x.h ****         else
 7619              		.loc 6 244 42 view .LVU2040
 7620 0548 1970     		strb	r1, [r3]
 7621              	.LVL501:
 244:../../libdaisy/src/dev/oled_ssd130x.h ****         else
 7622              		.loc 6 244 42 view .LVU2041
 7623              	.LBE2103:
 7624              	.LBE2104:
 7625              	.LBE2105:
 199:../../libdaisy/src/hid/disp/display.h ****         {
 7626              		.loc 5 199 26 is_stmt 1 view .LVU2042
 7627 054a F8D1     		bne	.L426
 7628              	.LVL502:
 199:../../libdaisy/src/hid/disp/display.h ****         {
 7629              		.loc 5 199 26 is_stmt 0 view .LVU2043
 7630              	.LBE2096:
 7631              	.LBE2095:
 7632              	.LBB2106:
 7633              	.LBI2106:
 181:../../libdaisy/src/hid/disp/display.h ****                   uint_fast8_t y1,
 7634              		.loc 5 181 10 is_stmt 1 view .LVU2044
 7635              	.LBB2107:
 7636              	.LBB2108:
 7637              	.LBI2108:
  41:../../libdaisy/src/hid/disp/oled_display.h ****     {
 7638              		.loc 1 41 10 view .LVU2045
 7639              	.LBB2109:
 7640              	.LBI2109:
 239:../../libdaisy/src/dev/oled_ssd130x.h ****     {
 7641              		.loc 6 239 10 view .LVU2046
 7642              	.LBB2110:
 244:../../libdaisy/src/dev/oled_ssd130x.h ****         else
 7643              		.loc 6 244 42 is_stmt 0 view .LVU2047
 7644 054c 94F83030 		ldrb	r3, [r4, #48]	@ zero_extendqisi2
 7645 0550 43F00103 		orr	r3, r3, #1
 7646 0554 84F83030 		strb	r3, [r4, #48]
 7647              	.LVL503:
 244:../../libdaisy/src/dev/oled_ssd130x.h ****         else
 7648              		.loc 6 244 42 view .LVU2048
 7649              	.LBE2110:
 7650              	.LBE2109:
 7651              	.LBE2108:
 199:../../libdaisy/src/hid/disp/display.h ****         {
 7652              		.loc 5 199 26 is_stmt 1 view .LVU2049
 7653              	.L427:
 7654              	.LBB2111:
 7655              	.LBI2111:
  41:../../libdaisy/src/hid/disp/oled_display.h ****     {
 7656              		.loc 1 41 10 view .LVU2050
 7657              	.LBB2112:
 7658              	.LBI2112:
 239:../../libdaisy/src/dev/oled_ssd130x.h ****     {
ARM GAS  C:\Users\VINCIU~1\AppData\Local\Temp\ccA1pwKF.s 			page 195


 7659              		.loc 6 239 10 view .LVU2051
 7660              	.LBB2113:
 244:../../libdaisy/src/dev/oled_ssd130x.h ****         else
 7661              		.loc 6 244 28 is_stmt 0 view .LVU2052
 7662 0558 D108     		lsrs	r1, r2, #3
 244:../../libdaisy/src/dev/oled_ssd130x.h ****         else
 7663              		.loc 6 244 54 view .LVU2053
 7664 055a 02F00700 		and	r0, r2, #7
 244:../../libdaisy/src/dev/oled_ssd130x.h ****         else
 7665              		.loc 6 244 48 view .LVU2054
 7666 055e 0123     		movs	r3, #1
 7667              	.LBE2113:
 7668              	.LBE2112:
 7669              	.LBE2111:
 199:../../libdaisy/src/hid/disp/display.h ****         {
 7670              		.loc 5 199 26 view .LVU2055
 7671 0560 013A     		subs	r2, r2, #1
 7672              	.LVL504:
 7673              	.LBB2116:
 7674              	.LBB2115:
 7675              	.LBB2114:
 244:../../libdaisy/src/dev/oled_ssd130x.h ****         else
 7676              		.loc 6 244 42 view .LVU2056
 7677 0562 04EBC111 		add	r1, r4, r1, lsl #7
 244:../../libdaisy/src/dev/oled_ssd130x.h ****         else
 7678              		.loc 6 244 48 view .LVU2057
 7679 0566 03FA00F3 		lsl	r3, r3, r0
 244:../../libdaisy/src/dev/oled_ssd130x.h ****         else
 7680              		.loc 6 244 42 view .LVU2058
 7681 056a 91F83000 		ldrb	r0, [r1, #48]	@ zero_extendqisi2
 7682 056e 43EA0003 		orr	r3, r3, r0
 7683 0572 81F83030 		strb	r3, [r1, #48]
 7684              	.LVL505:
 244:../../libdaisy/src/dev/oled_ssd130x.h ****         else
 7685              		.loc 6 244 42 view .LVU2059
 7686              	.LBE2114:
 7687              	.LBE2115:
 7688              	.LBE2116:
 199:../../libdaisy/src/hid/disp/display.h ****         {
 7689              		.loc 5 199 26 is_stmt 1 view .LVU2060
 7690 0576 EFD1     		bne	.L427
 7691              	.LBE2107:
 7692              	.LBE2106:
 7693              	.LBE2069:
 573:Menus.cpp     ****     if(menuStateEnv == 1)
 7694              		.loc 2 573 8 is_stmt 0 view .LVU2061
 7695 0578 D7F8A431 		ldr	r3, [r7, #420]
 7696              	.LVL506:
 573:Menus.cpp     ****     if(menuStateEnv == 1)
 7697              		.loc 2 573 5 is_stmt 1 view .LVU2062
 7698 057c 012B     		cmp	r3, #1
 7699 057e 7FF45EAD 		bne	.L429
 7700              	.LVL507:
 7701              	.L574:
 575:Menus.cpp     ****         this->decayTime += this->encoderRight.Increment() * 3.3;
 7702              		.loc 2 575 9 view .LVU2063
 7703              	.LBB2117:
ARM GAS  C:\Users\VINCIU~1\AppData\Local\Temp\ccA1pwKF.s 			page 196


 7704              	.LBI2117:
  41:../../libdaisy/src/hid/encoder.h ****     /** Returns true if the encoder was just pressed.
 7705              		.loc 3 41 20 view .LVU2064
 7706              	.LBB2118:
  41:../../libdaisy/src/hid/encoder.h ****     /** Returns true if the encoder was just pressed.
 7707              		.loc 3 41 40 view .LVU2065
  41:../../libdaisy/src/hid/encoder.h ****     /** Returns true if the encoder was just pressed.
 7708              		.loc 3 41 40 is_stmt 0 view .LVU2066
 7709              	.LBE2118:
 7710              	.LBE2117:
 575:Menus.cpp     ****         this->decayTime += this->encoderRight.Increment() * 3.3;
 7711              		.loc 2 575 25 view .LVU2067
 7712 0582 97ED677A 		vldr.32	s14, [r7, #412]
 576:Menus.cpp     ****         env.SetTime(daisysp::ADSR_SEG_DECAY, this->decayTime/100);
 7713              		.loc 2 576 20 view .LVU2068
 7714 0586 0221     		movs	r1, #2
 575:Menus.cpp     ****         this->decayTime += this->encoderRight.Increment() * 3.3;
 7715              		.loc 2 575 59 view .LVU2069
 7716 0588 D7ED127A 		vldr.32	s15, [r7, #72]	@ int
 576:Menus.cpp     ****         env.SetTime(daisysp::ADSR_SEG_DECAY, this->decayTime/100);
 7717              		.loc 2 576 20 view .LVU2070
 7718 058c 2846     		mov	r0, r5
 7719 058e 9FEDA30A 		vldr.32	s0, .L584+12
 575:Menus.cpp     ****         this->decayTime += this->encoderRight.Increment() * 3.3;
 7720              		.loc 2 575 59 view .LVU2071
 7721 0592 B8EEE76B 		vcvt.f64.s32	d6, s15
 575:Menus.cpp     ****         this->decayTime += this->encoderRight.Increment() * 3.3;
 7722              		.loc 2 575 25 view .LVU2072
 7723 0596 B7EEC77A 		vcvt.f64.f32	d7, s14
 7724 059a 9FED9D5B 		vldr.64	d5, .L584
 7725 059e A6EE057B 		vfma.f64	d7, d6, d5
 7726 05a2 B7EEC77B 		vcvt.f32.f64	s14, d7
 576:Menus.cpp     ****         env.SetTime(daisysp::ADSR_SEG_DECAY, this->decayTime/100);
 7727              		.loc 2 576 20 view .LVU2073
 7728 05a6 87EE000A 		vdiv.f32	s0, s14, s0
 575:Menus.cpp     ****         this->decayTime += this->encoderRight.Increment() * 3.3;
 7729              		.loc 2 575 25 view .LVU2074
 7730 05aa 87ED677A 		vstr.32	s14, [r7, #412]
 576:Menus.cpp     ****         env.SetTime(daisysp::ADSR_SEG_DECAY, this->decayTime/100);
 7731              		.loc 2 576 9 is_stmt 1 view .LVU2075
 576:Menus.cpp     ****         env.SetTime(daisysp::ADSR_SEG_DECAY, this->decayTime/100);
 7732              		.loc 2 576 20 is_stmt 0 view .LVU2076
 7733 05ae FFF7FEFF 		bl	_ZN7daisysp4Adsr7SetTimeEif
 7734              	.LVL508:
 577:Menus.cpp     ****         this->decayTimeScaleDraw += this->encoderRight.Increment();
 7735              		.loc 2 577 9 is_stmt 1 view .LVU2077
 7736              	.LBB2119:
 7737              	.LBI2119:
  41:../../libdaisy/src/hid/encoder.h ****     /** Returns true if the encoder was just pressed.
 7738              		.loc 3 41 20 view .LVU2078
 7739              	.LBB2120:
  41:../../libdaisy/src/hid/encoder.h ****     /** Returns true if the encoder was just pressed.
 7740              		.loc 3 41 40 view .LVU2079
  41:../../libdaisy/src/hid/encoder.h ****     /** Returns true if the encoder was just pressed.
 7741              		.loc 3 41 40 is_stmt 0 view .LVU2080
 7742              	.LBE2120:
 7743              	.LBE2119:
ARM GAS  C:\Users\VINCIU~1\AppData\Local\Temp\ccA1pwKF.s 			page 197


 577:Menus.cpp     ****         this->decayTimeScaleDraw += this->encoderRight.Increment();
 7744              		.loc 2 577 34 view .LVU2081
 7745 05b2 D7ED127A 		vldr.32	s15, [r7, #72]	@ int
 7746 05b6 D7ED6A6A 		vldr.32	s13, [r7, #424]
 578:Menus.cpp     ****         if(decayTimeScaleDraw >= screen.Width() / 4)
 7747              		.loc 2 578 9 view .LVU2082
 7748 05ba 9FED977A 		vldr.32	s14, .L584+8
 577:Menus.cpp     ****         this->decayTimeScaleDraw += this->encoderRight.Increment();
 7749              		.loc 2 577 34 view .LVU2083
 7750 05be F8EEE77A 		vcvt.f32.s32	s15, s15
 7751 05c2 77EEA67A 		vadd.f32	s15, s15, s13
 578:Menus.cpp     ****         if(decayTimeScaleDraw >= screen.Width() / 4)
 7752              		.loc 2 578 9 is_stmt 1 view .LVU2084
 7753 05c6 F4EEC77A 		vcmpe.f32	s15, s14
 7754 05ca F1EE10FA 		vmrs	APSR_nzcv, FPSCR
 7755 05ce 80F21981 		bge	.L578
 582:Menus.cpp     ****         if(decayTimeScaleDraw <= 0)
 7756              		.loc 2 582 9 view .LVU2085
 7757 05d2 F5EEC07A 		vcmpe.f32	s15, #0
 7758 05d6 0023     		movs	r3, #0
 7759 05d8 F1EE10FA 		vmrs	APSR_nzcv, FPSCR
 577:Menus.cpp     ****         this->decayTimeScaleDraw += this->encoderRight.Increment();
 7760              		.loc 2 577 34 is_stmt 0 view .LVU2086
 7761 05dc 8CBF     		ite	hi
 7762 05de C7ED6A7A 		vstrhi.32	s15, [r7, #424]
 584:Menus.cpp     ****             decayTimeScaleDraw = 0;
 7763              		.loc 2 584 13 is_stmt 1 view .LVU2087
 584:Menus.cpp     ****             decayTimeScaleDraw = 0;
 7764              		.loc 2 584 32 is_stmt 0 view .LVU2088
 7765 05e2 C7F8A831 		strls	r3, [r7, #424]	@ float
 7766              	.L432:
 586:Menus.cpp     ****         if(decayTime >= 100)
 7767              		.loc 2 586 9 is_stmt 1 view .LVU2089
 586:Menus.cpp     ****         if(decayTime >= 100)
 7768              		.loc 2 586 12 is_stmt 0 view .LVU2090
 7769 05e6 D7ED677A 		vldr.32	s15, [r7, #412]
 586:Menus.cpp     ****         if(decayTime >= 100)
 7770              		.loc 2 586 9 view .LVU2091
 7771 05ea 9FED8C7A 		vldr.32	s14, .L584+12
 7772 05ee F4EEC77A 		vcmpe.f32	s15, s14
 7773 05f2 F1EE10FA 		vmrs	APSR_nzcv, FPSCR
 7774 05f6 C0F23081 		blt	.L565
 588:Menus.cpp     ****             decayTime = 100;
 7775              		.loc 2 588 13 is_stmt 1 view .LVU2092
 588:Menus.cpp     ****             decayTime = 100;
 7776              		.loc 2 588 23 is_stmt 0 view .LVU2093
 7777 05fa 87ED677A 		vstr.32	s14, [r7, #412]
 590:Menus.cpp     ****         if(decayTime <= 0)
 7778              		.loc 2 590 9 is_stmt 1 view .LVU2094
 7779              	.L436:
 594:Menus.cpp     ****         screen.DrawRect(44, 0, 56, 13, true, false);
 7780              		.loc 2 594 9 view .LVU2095
 594:Menus.cpp     ****         screen.DrawRect(44, 0, 56, 13, true, false);
 7781              		.loc 2 594 24 is_stmt 0 view .LVU2096
 7782 05fe 0123     		movs	r3, #1
 7783 0600 0022     		movs	r2, #0
 7784 0602 2C21     		movs	r1, #44
ARM GAS  C:\Users\VINCIU~1\AppData\Local\Temp\ccA1pwKF.s 			page 198


 7785 0604 2046     		mov	r0, r4
 7786 0606 CDE90132 		strd	r3, r2, [sp, #4]
 7787 060a 0D23     		movs	r3, #13
 7788 060c 0093     		str	r3, [sp]
 7789 060e 3823     		movs	r3, #56
 7790 0610 FFF7FEFF 		bl	_ZN5daisy25OneBitGraphicsDisplayImplINS_11OledDisplayINS_13SSD130xDriverILj128ELj64ENS_24SSD130
 7791              	.LVL509:
 596:Menus.cpp     ****     if(menuStateEnv == 2)
 7792              		.loc 2 596 8 view .LVU2097
 7793 0614 D7F8A431 		ldr	r3, [r7, #420]
 596:Menus.cpp     ****     if(menuStateEnv == 2)
 7794              		.loc 2 596 5 is_stmt 1 view .LVU2098
 7795 0618 022B     		cmp	r3, #2
 7796 061a 7FF413AD 		bne	.L438
 7797              	.L575:
 598:Menus.cpp     ****         this->sustatinLevel += this->encoderRight .Increment() * 3.3;
 7798              		.loc 2 598 9 view .LVU2099
 7799              	.LVL510:
 7800              	.LBB2121:
 7801              	.LBI2121:
  41:../../libdaisy/src/hid/encoder.h ****     /** Returns true if the encoder was just pressed.
 7802              		.loc 3 41 20 view .LVU2100
 7803              	.LBB2122:
  41:../../libdaisy/src/hid/encoder.h ****     /** Returns true if the encoder was just pressed.
 7804              		.loc 3 41 40 view .LVU2101
 7805              	.LBE2122:
 7806              	.LBE2121:
 598:Menus.cpp     ****         this->sustatinLevel += this->encoderRight .Increment() * 3.3;
 7807              		.loc 2 598 29 is_stmt 0 view .LVU2102
 7808 061e 97ED6B7A 		vldr.32	s14, [r7, #428]
 7809              	.LBB2124:
 7810              	.LBB2123:
  41:../../libdaisy/src/hid/encoder.h ****     /** Returns true if the encoder was just pressed.
 7811              		.loc 3 41 47 view .LVU2103
 7812 0622 D7ED126A 		vldr.32	s13, [r7, #72]	@ int
 7813              	.LVL511:
  41:../../libdaisy/src/hid/encoder.h ****     /** Returns true if the encoder was just pressed.
 7814              		.loc 3 41 47 view .LVU2104
 7815              	.LBE2123:
 7816              	.LBE2124:
 598:Menus.cpp     ****         this->sustatinLevel += this->encoderRight .Increment() * 3.3;
 7817              		.loc 2 598 29 view .LVU2105
 7818 0626 B7EEC77A 		vcvt.f64.f32	d7, s14
 599:Menus.cpp     ****         env.SetSustainLevel(this->sustatinLevel/100);
 7819              		.loc 2 599 28 view .LVU2106
 7820 062a DFED7C5A 		vldr.32	s11, .L584+12
 598:Menus.cpp     ****         this->sustatinLevel += this->encoderRight .Increment() * 3.3;
 7821              		.loc 2 598 64 view .LVU2107
 7822 062e B8EEE63B 		vcvt.f64.s32	d3, s13
 598:Menus.cpp     ****         this->sustatinLevel += this->encoderRight .Increment() * 3.3;
 7823              		.loc 2 598 29 view .LVU2108
 7824 0632 9FED774B 		vldr.64	d4, .L584
 7825 0636 A3EE047B 		vfma.f64	d7, d3, d4
 7826 063a B7EEC77B 		vcvt.f32.f64	s14, d7
 599:Menus.cpp     ****         env.SetSustainLevel(this->sustatinLevel/100);
 7827              		.loc 2 599 28 view .LVU2109
 7828 063e 87EE256A 		vdiv.f32	s12, s14, s11
ARM GAS  C:\Users\VINCIU~1\AppData\Local\Temp\ccA1pwKF.s 			page 199


 598:Menus.cpp     ****         this->sustatinLevel += this->encoderRight .Increment() * 3.3;
 7829              		.loc 2 598 29 view .LVU2110
 7830 0642 87ED6B7A 		vstr.32	s14, [r7, #428]
 599:Menus.cpp     ****         env.SetSustainLevel(this->sustatinLevel/100);
 7831              		.loc 2 599 9 is_stmt 1 view .LVU2111
 7832              	.LVL512:
 7833              	.LBB2125:
 7834              	.LBI2125:
 7835              		.file 8 "../../DaisySP/Source/Control/adsr.h"
   1:../../DaisySP/Source/Control/adsr.h **** #pragma once
   2:../../DaisySP/Source/Control/adsr.h **** #ifndef DSY_ADSR_H
   3:../../DaisySP/Source/Control/adsr.h **** #define DSY_ADSR_H
   4:../../DaisySP/Source/Control/adsr.h **** 
   5:../../DaisySP/Source/Control/adsr.h **** #include <stdint.h>
   6:../../DaisySP/Source/Control/adsr.h **** #ifdef __cplusplus
   7:../../DaisySP/Source/Control/adsr.h **** 
   8:../../DaisySP/Source/Control/adsr.h **** namespace daisysp
   9:../../DaisySP/Source/Control/adsr.h **** {
  10:../../DaisySP/Source/Control/adsr.h **** /** Distinct stages that the phase of the envelope can be located in.
  11:../../DaisySP/Source/Control/adsr.h **** - IDLE   = located at phase location 0, and not currently running
  12:../../DaisySP/Source/Control/adsr.h **** - ATTACK  = First segment of envelope where phase moves from 0 to 1
  13:../../DaisySP/Source/Control/adsr.h **** - DECAY   = Second segment of envelope where phase moves from 1 to SUSTAIN value
  14:../../DaisySP/Source/Control/adsr.h **** - RELEASE =     Fourth segment of envelop where phase moves from SUSTAIN to 0
  15:../../DaisySP/Source/Control/adsr.h **** */
  16:../../DaisySP/Source/Control/adsr.h **** enum
  17:../../DaisySP/Source/Control/adsr.h **** {
  18:../../DaisySP/Source/Control/adsr.h ****     ADSR_SEG_IDLE    = 0,
  19:../../DaisySP/Source/Control/adsr.h ****     ADSR_SEG_ATTACK  = 1,
  20:../../DaisySP/Source/Control/adsr.h ****     ADSR_SEG_DECAY   = 2,
  21:../../DaisySP/Source/Control/adsr.h ****     ADSR_SEG_RELEASE = 4
  22:../../DaisySP/Source/Control/adsr.h **** };
  23:../../DaisySP/Source/Control/adsr.h **** 
  24:../../DaisySP/Source/Control/adsr.h **** 
  25:../../DaisySP/Source/Control/adsr.h **** /** adsr envelope module
  26:../../DaisySP/Source/Control/adsr.h **** 
  27:../../DaisySP/Source/Control/adsr.h **** Original author(s) : Paul Batchelor
  28:../../DaisySP/Source/Control/adsr.h **** 
  29:../../DaisySP/Source/Control/adsr.h **** Ported from Soundpipe by Ben Sergentanis, May 2020
  30:../../DaisySP/Source/Control/adsr.h ****  
  31:../../DaisySP/Source/Control/adsr.h **** Remake by Steffan DIedrichsen, May 2021
  32:../../DaisySP/Source/Control/adsr.h **** */
  33:../../DaisySP/Source/Control/adsr.h **** class Adsr
  34:../../DaisySP/Source/Control/adsr.h **** {
  35:../../DaisySP/Source/Control/adsr.h ****   public:
  36:../../DaisySP/Source/Control/adsr.h ****     Adsr() {}
  37:../../DaisySP/Source/Control/adsr.h ****     ~Adsr() {}
  38:../../DaisySP/Source/Control/adsr.h ****     /** Initializes the Adsr module.
  39:../../DaisySP/Source/Control/adsr.h ****         \param sample_rate - The sample rate of the audio engine being run. 
  40:../../DaisySP/Source/Control/adsr.h ****     */
  41:../../DaisySP/Source/Control/adsr.h ****     void Init(float sample_rate, int blockSize = 1);
  42:../../DaisySP/Source/Control/adsr.h ****     /**
  43:../../DaisySP/Source/Control/adsr.h ****      \function Retrigger forces the envelope back to attack phase
  44:../../DaisySP/Source/Control/adsr.h ****      \param hard  resets the history to zero, results in a click.
  45:../../DaisySP/Source/Control/adsr.h ****      */
  46:../../DaisySP/Source/Control/adsr.h ****     void Retrigger(bool hard);
  47:../../DaisySP/Source/Control/adsr.h ****     /** Processes one sample through the filter and returns one sample.
  48:../../DaisySP/Source/Control/adsr.h ****         \param gate - trigger the envelope, hold it to sustain 
ARM GAS  C:\Users\VINCIU~1\AppData\Local\Temp\ccA1pwKF.s 			page 200


  49:../../DaisySP/Source/Control/adsr.h ****     */
  50:../../DaisySP/Source/Control/adsr.h ****     float Process(bool gate);
  51:../../DaisySP/Source/Control/adsr.h ****     /** Sets time
  52:../../DaisySP/Source/Control/adsr.h ****         Set time per segment in seconds
  53:../../DaisySP/Source/Control/adsr.h ****     */
  54:../../DaisySP/Source/Control/adsr.h ****     void SetTime(int seg, float time);
  55:../../DaisySP/Source/Control/adsr.h ****     void SetAttackTime(float timeInS, float shape = 0.0f);
  56:../../DaisySP/Source/Control/adsr.h ****     void SetDecayTime(float timeInS);
  57:../../DaisySP/Source/Control/adsr.h ****     void SetReleaseTime(float timeInS);
  58:../../DaisySP/Source/Control/adsr.h **** 
  59:../../DaisySP/Source/Control/adsr.h ****   private:
  60:../../DaisySP/Source/Control/adsr.h ****     void SetTimeConstant(float timeInS, float& time, float& coeff);
  61:../../DaisySP/Source/Control/adsr.h **** 
  62:../../DaisySP/Source/Control/adsr.h ****   public:
  63:../../DaisySP/Source/Control/adsr.h ****     /** Sustain level
  64:../../DaisySP/Source/Control/adsr.h ****         \param sus_level - sets sustain level, 0...1.0
  65:../../DaisySP/Source/Control/adsr.h ****     */
  66:../../DaisySP/Source/Control/adsr.h ****     inline void SetSustainLevel(float sus_level)
 7836              		.loc 8 66 17 view .LVU2112
 7837              	.LBB2126:
  67:../../DaisySP/Source/Control/adsr.h ****     {
  68:../../DaisySP/Source/Control/adsr.h ****         sus_level = (sus_level <= 0.f) ? -0.01f // forces envelope into idle
 7838              		.loc 8 68 9 view .LVU2113
 7839              		.loc 8 68 40 is_stmt 0 view .LVU2114
 7840 0646 B5EEC06A 		vcmpe.f32	s12, #0
 7841 064a F1EE10FA 		vmrs	APSR_nzcv, FPSCR
 7842 064e 40F2FE80 		bls	.L505
  69:../../DaisySP/Source/Control/adsr.h ****                                        : (sus_level > 1.f) ? 1.f : sus_level;
 7843              		.loc 8 69 60 view .LVU2115
 7844 0652 F7EE007A 		vmov.f32	s15, #1.0e+0
 7845 0656 B4EE676A 		vcmp.f32	s12, s15
 7846 065a F1EE10FA 		vmrs	APSR_nzcv, FPSCR
 7847 065e 37FE866A 		vselgt.f32	s12, s15, s12
 7848              	.LVL513:
 7849              	.L439:
  70:../../DaisySP/Source/Control/adsr.h ****         sus_level_ = sus_level;
 7850              		.loc 8 70 9 is_stmt 1 view .LVU2116
 7851              	.LBE2126:
 7852              	.LBE2125:
 600:Menus.cpp     ****         this->sustatinLevelScaleDraw += this->encoderRight.Increment();
 7853              		.loc 2 600 38 is_stmt 0 view .LVU2117
 7854 0662 F8EEE67A 		vcvt.f32.s32	s15, s13
 7855              	.LBB2129:
 7856              	.LBB2127:
 7857              		.loc 8 70 20 view .LVU2118
 7858 0666 85ED006A 		vstr.32	s12, [r5]
 7859              	.LVL514:
 7860              		.loc 8 70 20 view .LVU2119
 7861              	.LBE2127:
 7862              	.LBE2129:
 600:Menus.cpp     ****         this->sustatinLevelScaleDraw += this->encoderRight.Increment();
 7863              		.loc 2 600 9 is_stmt 1 view .LVU2120
  41:../../libdaisy/src/hid/encoder.h ****     /** Returns true if the encoder was just pressed.
 7864              		.loc 3 41 40 view .LVU2121
 600:Menus.cpp     ****         this->sustatinLevelScaleDraw += this->encoderRight.Increment();
 7865              		.loc 2 600 38 is_stmt 0 view .LVU2122
 7866 066a D7ED6C6A 		vldr.32	s13, [r7, #432]
ARM GAS  C:\Users\VINCIU~1\AppData\Local\Temp\ccA1pwKF.s 			page 201


 601:Menus.cpp     ****         if(this->sustatinLevelScaleDraw >= screen.Width() / 4)
 7867              		.loc 2 601 9 view .LVU2123
 7868 066e 9FED6A7A 		vldr.32	s14, .L584+8
 600:Menus.cpp     ****         this->sustatinLevelScaleDraw += this->encoderRight.Increment();
 7869              		.loc 2 600 38 view .LVU2124
 7870 0672 77EEA67A 		vadd.f32	s15, s15, s13
 601:Menus.cpp     ****         if(this->sustatinLevelScaleDraw >= screen.Width() / 4)
 7871              		.loc 2 601 9 is_stmt 1 view .LVU2125
 7872 0676 F4EEC77A 		vcmpe.f32	s15, s14
 7873 067a F1EE10FA 		vmrs	APSR_nzcv, FPSCR
 7874 067e 80F2BB80 		bge	.L579
 605:Menus.cpp     ****         if(this->sustatinLevelScaleDraw <= 0)
 7875              		.loc 2 605 9 view .LVU2126
 7876 0682 F5EEC07A 		vcmpe.f32	s15, #0
 7877 0686 0023     		movs	r3, #0
 7878 0688 F1EE10FA 		vmrs	APSR_nzcv, FPSCR
 600:Menus.cpp     ****         this->sustatinLevelScaleDraw += this->encoderRight.Increment();
 7879              		.loc 2 600 38 is_stmt 0 view .LVU2127
 7880 068c 8CBF     		ite	hi
 7881 068e C7ED6C7A 		vstrhi.32	s15, [r7, #432]
 607:Menus.cpp     ****             this->sustatinLevelScaleDraw = 0;
 7882              		.loc 2 607 13 is_stmt 1 view .LVU2128
 607:Menus.cpp     ****             this->sustatinLevelScaleDraw = 0;
 7883              		.loc 2 607 42 is_stmt 0 view .LVU2129
 7884 0692 C7F8B031 		strls	r3, [r7, #432]	@ float
 7885              	.L442:
 609:Menus.cpp     ****         if(this->sustatinLevel >= 100)
 7886              		.loc 2 609 9 is_stmt 1 view .LVU2130
 609:Menus.cpp     ****         if(this->sustatinLevel >= 100)
 7887              		.loc 2 609 18 is_stmt 0 view .LVU2131
 7888 0696 D7ED6B7A 		vldr.32	s15, [r7, #428]
 609:Menus.cpp     ****         if(this->sustatinLevel >= 100)
 7889              		.loc 2 609 9 view .LVU2132
 7890 069a 9FED607A 		vldr.32	s14, .L584+12
 7891 069e F4EEC77A 		vcmpe.f32	s15, s14
 7892 06a2 F1EE10FA 		vmrs	APSR_nzcv, FPSCR
 7893 06a6 C0F2C080 		blt	.L567
 611:Menus.cpp     ****             this->sustatinLevel = 100;
 7894              		.loc 2 611 13 is_stmt 1 view .LVU2133
 611:Menus.cpp     ****             this->sustatinLevel = 100;
 7895              		.loc 2 611 33 is_stmt 0 view .LVU2134
 7896 06aa 87ED6B7A 		vstr.32	s14, [r7, #428]
 613:Menus.cpp     ****         if(this->sustatinLevel <= 0)
 7897              		.loc 2 613 9 is_stmt 1 view .LVU2135
 7898              	.L446:
 617:Menus.cpp     ****         screen.DrawRect(60, 0, 72, 13, true, false);
 7899              		.loc 2 617 9 view .LVU2136
 7900              	.LVL515:
 7901              	.LBB2130:
 7902              	.LBI2130:
 217:../../libdaisy/src/hid/disp/display.h ****                   uint_fast8_t y1,
 7903              		.loc 5 217 10 view .LVU2137
 7904              	.LBB2131:
 7905              	.LBI2131:
 181:../../libdaisy/src/hid/disp/display.h ****                   uint_fast8_t y1,
 7906              		.loc 5 181 10 view .LVU2138
 7907              	.LBB2132:
ARM GAS  C:\Users\VINCIU~1\AppData\Local\Temp\ccA1pwKF.s 			page 202


 7908              	.LBB2133:
 7909              	.LBI2133:
  41:../../libdaisy/src/hid/disp/oled_display.h ****     {
 7910              		.loc 1 41 10 view .LVU2139
 7911              	.LBB2134:
 7912              	.LBI2134:
 239:../../libdaisy/src/dev/oled_ssd130x.h ****     {
 7913              		.loc 6 239 10 view .LVU2140
 7914              	.LBB2135:
 244:../../libdaisy/src/dev/oled_ssd130x.h ****         else
 7915              		.loc 6 244 42 is_stmt 0 view .LVU2141
 7916 06ae 94F85C20 		ldrb	r2, [r4, #92]	@ zero_extendqisi2
 7917 06b2 04F14F03 		add	r3, r4, #79
 7918 06b6 04F15B01 		add	r1, r4, #91
 7919 06ba 42F00102 		orr	r2, r2, #1
 7920 06be 84F85C20 		strb	r2, [r4, #92]
 7921              	.LVL516:
 244:../../libdaisy/src/dev/oled_ssd130x.h ****         else
 7922              		.loc 6 244 42 view .LVU2142
 7923              	.LBE2135:
 7924              	.LBE2134:
 7925              	.LBE2133:
 199:../../libdaisy/src/hid/disp/display.h ****         {
 7926              		.loc 5 199 26 is_stmt 1 view .LVU2143
 7927              	.L448:
 7928              	.LBB2136:
 7929              	.LBI2136:
  41:../../libdaisy/src/hid/disp/oled_display.h ****     {
 7930              		.loc 1 41 10 view .LVU2144
 7931              	.LBB2137:
 7932              	.LBI2137:
 239:../../libdaisy/src/dev/oled_ssd130x.h ****     {
 7933              		.loc 6 239 10 view .LVU2145
 7934              	.LBB2138:
 244:../../libdaisy/src/dev/oled_ssd130x.h ****         else
 7935              		.loc 6 244 42 is_stmt 0 view .LVU2146
 7936 06c2 13F8012F 		ldrb	r2, [r3, #1]!	@ zero_extendqisi2
 7937              	.LVL517:
 244:../../libdaisy/src/dev/oled_ssd130x.h ****         else
 7938              		.loc 6 244 42 view .LVU2147
 7939 06c6 42F00102 		orr	r2, r2, #1
 7940              	.LBE2138:
 7941              	.LBE2137:
 7942              	.LBE2136:
 199:../../libdaisy/src/hid/disp/display.h ****         {
 7943              		.loc 5 199 26 view .LVU2148
 7944 06ca 9942     		cmp	r1, r3
 7945              	.LBB2141:
 7946              	.LBB2140:
 7947              	.LBB2139:
 244:../../libdaisy/src/dev/oled_ssd130x.h ****         else
 7948              		.loc 6 244 42 view .LVU2149
 7949 06cc 1A70     		strb	r2, [r3]
 7950              	.LVL518:
 244:../../libdaisy/src/dev/oled_ssd130x.h ****         else
 7951              		.loc 6 244 42 view .LVU2150
 7952              	.LBE2139:
ARM GAS  C:\Users\VINCIU~1\AppData\Local\Temp\ccA1pwKF.s 			page 203


 7953              	.LBE2140:
 7954              	.LBE2141:
 199:../../libdaisy/src/hid/disp/display.h ****         {
 7955              		.loc 5 199 26 is_stmt 1 view .LVU2151
 7956 06ce F8D1     		bne	.L448
 7957              	.LVL519:
 199:../../libdaisy/src/hid/disp/display.h ****         {
 7958              		.loc 5 199 26 is_stmt 0 view .LVU2152
 7959              	.LBE2132:
 7960              	.LBE2131:
 7961              	.LBB2142:
 7962              	.LBI2142:
 181:../../libdaisy/src/hid/disp/display.h ****                   uint_fast8_t y1,
 7963              		.loc 5 181 10 is_stmt 1 view .LVU2153
 7964              	.LBB2143:
 7965              	.LBB2144:
 7966              	.LBI2144:
  41:../../libdaisy/src/hid/disp/oled_display.h ****     {
 7967              		.loc 1 41 10 view .LVU2154
 7968              	.LBB2145:
 7969              	.LBI2145:
 239:../../libdaisy/src/dev/oled_ssd130x.h ****     {
 7970              		.loc 6 239 10 view .LVU2155
 7971              	.LBB2146:
 244:../../libdaisy/src/dev/oled_ssd130x.h ****         else
 7972              		.loc 6 244 42 is_stmt 0 view .LVU2156
 7973 06d0 94F8DC20 		ldrb	r2, [r4, #220]	@ zero_extendqisi2
 7974 06d4 0023     		movs	r3, #0
 7975 06d6 42F02002 		orr	r2, r2, #32
 7976 06da 84F8DC20 		strb	r2, [r4, #220]
 7977              	.LVL520:
 244:../../libdaisy/src/dev/oled_ssd130x.h ****         else
 7978              		.loc 6 244 42 view .LVU2157
 7979              	.LBE2146:
 7980              	.LBE2145:
 7981              	.LBE2144:
 199:../../libdaisy/src/hid/disp/display.h ****         {
 7982              		.loc 5 199 26 is_stmt 1 view .LVU2158
 7983              	.L449:
 7984              	.LBB2147:
 7985              	.LBI2147:
  41:../../libdaisy/src/hid/disp/oled_display.h ****     {
 7986              		.loc 1 41 10 view .LVU2159
 7987              	.LBB2148:
 7988              	.LBI2148:
 239:../../libdaisy/src/dev/oled_ssd130x.h ****     {
 7989              		.loc 6 239 10 view .LVU2160
 7990              	.LBB2149:
 244:../../libdaisy/src/dev/oled_ssd130x.h ****         else
 7991              		.loc 6 244 28 is_stmt 0 view .LVU2161
 7992 06de D908     		lsrs	r1, r3, #3
 244:../../libdaisy/src/dev/oled_ssd130x.h ****         else
 7993              		.loc 6 244 54 view .LVU2162
 7994 06e0 03F00700 		and	r0, r3, #7
 244:../../libdaisy/src/dev/oled_ssd130x.h ****         else
 7995              		.loc 6 244 48 view .LVU2163
 7996 06e4 0122     		movs	r2, #1
ARM GAS  C:\Users\VINCIU~1\AppData\Local\Temp\ccA1pwKF.s 			page 204


 244:../../libdaisy/src/dev/oled_ssd130x.h ****         else
 7997              		.loc 6 244 42 view .LVU2164
 7998 06e6 04EBC111 		add	r1, r4, r1, lsl #7
 7999              	.LBE2149:
 8000              	.LBE2148:
 8001              	.LBE2147:
 212:../../libdaisy/src/hid/disp/display.h ****             }
 8002              		.loc 5 212 20 view .LVU2165
 8003 06ea 1344     		add	r3, r3, r2
 8004              	.LVL521:
 8005              	.LBB2154:
 8006              	.LBB2152:
 8007              	.LBB2150:
 244:../../libdaisy/src/dev/oled_ssd130x.h ****         else
 8008              		.loc 6 244 48 view .LVU2166
 8009 06ec 8240     		lsls	r2, r2, r0
 244:../../libdaisy/src/dev/oled_ssd130x.h ****         else
 8010              		.loc 6 244 42 view .LVU2167
 8011 06ee 91F85C00 		ldrb	r0, [r1, #92]	@ zero_extendqisi2
 8012              	.LBE2150:
 8013              	.LBE2152:
 8014              	.LBE2154:
 199:../../libdaisy/src/hid/disp/display.h ****         {
 8015              		.loc 5 199 26 view .LVU2168
 8016 06f2 0D2B     		cmp	r3, #13
 8017              	.LBB2155:
 8018              	.LBB2153:
 8019              	.LBB2151:
 244:../../libdaisy/src/dev/oled_ssd130x.h ****         else
 8020              		.loc 6 244 42 view .LVU2169
 8021 06f4 42EA0002 		orr	r2, r2, r0
 8022 06f8 81F85C20 		strb	r2, [r1, #92]
 8023              	.LVL522:
 244:../../libdaisy/src/dev/oled_ssd130x.h ****         else
 8024              		.loc 6 244 42 view .LVU2170
 8025              	.LBE2151:
 8026              	.LBE2153:
 8027              	.LBE2155:
 199:../../libdaisy/src/hid/disp/display.h ****         {
 8028              		.loc 5 199 26 is_stmt 1 view .LVU2171
 8029 06fc EFD1     		bne	.L449
 8030              	.LVL523:
 199:../../libdaisy/src/hid/disp/display.h ****         {
 8031              		.loc 5 199 26 is_stmt 0 view .LVU2172
 8032              	.LBE2143:
 8033              	.LBE2142:
 8034              	.LBB2156:
 8035              	.LBI2156:
 181:../../libdaisy/src/hid/disp/display.h ****                   uint_fast8_t y1,
 8036              		.loc 5 181 10 is_stmt 1 view .LVU2173
 8037              	.LBB2157:
 8038              	.LBB2158:
 8039              	.LBI2158:
  41:../../libdaisy/src/hid/disp/oled_display.h ****     {
 8040              		.loc 1 41 10 view .LVU2174
 8041              	.LBB2159:
 8042              	.LBI2159:
ARM GAS  C:\Users\VINCIU~1\AppData\Local\Temp\ccA1pwKF.s 			page 205


 239:../../libdaisy/src/dev/oled_ssd130x.h ****     {
 8043              		.loc 6 239 10 view .LVU2175
 8044              	.LBB2160:
 244:../../libdaisy/src/dev/oled_ssd130x.h ****         else
 8045              		.loc 6 244 42 is_stmt 0 view .LVU2176
 8046 06fe 94F8D010 		ldrb	r1, [r4, #208]	@ zero_extendqisi2
 8047 0702 04F1DD02 		add	r2, r4, #221
 8048 0706 04F1D100 		add	r0, r4, #209
 8049 070a 41F02001 		orr	r1, r1, #32
 8050 070e 84F8D010 		strb	r1, [r4, #208]
 8051              	.LVL524:
 244:../../libdaisy/src/dev/oled_ssd130x.h ****         else
 8052              		.loc 6 244 42 view .LVU2177
 8053              	.LBE2160:
 8054              	.LBE2159:
 8055              	.LBE2158:
 199:../../libdaisy/src/hid/disp/display.h ****         {
 8056              		.loc 5 199 26 is_stmt 1 view .LVU2178
 8057              	.L450:
 8058              	.LBB2161:
 8059              	.LBI2161:
  41:../../libdaisy/src/hid/disp/oled_display.h ****     {
 8060              		.loc 1 41 10 view .LVU2179
 8061              	.LBB2162:
 8062              	.LBI2162:
 239:../../libdaisy/src/dev/oled_ssd130x.h ****     {
 8063              		.loc 6 239 10 view .LVU2180
 8064              	.LBB2163:
 244:../../libdaisy/src/dev/oled_ssd130x.h ****         else
 8065              		.loc 6 244 42 is_stmt 0 view .LVU2181
 8066 0712 12F8011D 		ldrb	r1, [r2, #-1]!	@ zero_extendqisi2
 8067              	.LVL525:
 244:../../libdaisy/src/dev/oled_ssd130x.h ****         else
 8068              		.loc 6 244 42 view .LVU2182
 8069 0716 41F02001 		orr	r1, r1, #32
 8070              	.LBE2163:
 8071              	.LBE2162:
 8072              	.LBE2161:
 199:../../libdaisy/src/hid/disp/display.h ****         {
 8073              		.loc 5 199 26 view .LVU2183
 8074 071a 9042     		cmp	r0, r2
 8075              	.LBB2166:
 8076              	.LBB2165:
 8077              	.LBB2164:
 244:../../libdaisy/src/dev/oled_ssd130x.h ****         else
 8078              		.loc 6 244 42 view .LVU2184
 8079 071c 1170     		strb	r1, [r2]
 8080              	.LVL526:
 244:../../libdaisy/src/dev/oled_ssd130x.h ****         else
 8081              		.loc 6 244 42 view .LVU2185
 8082              	.LBE2164:
 8083              	.LBE2165:
 8084              	.LBE2166:
 199:../../libdaisy/src/hid/disp/display.h ****         {
 8085              		.loc 5 199 26 is_stmt 1 view .LVU2186
 8086 071e F8D1     		bne	.L450
 8087              	.LVL527:
ARM GAS  C:\Users\VINCIU~1\AppData\Local\Temp\ccA1pwKF.s 			page 206


 199:../../libdaisy/src/hid/disp/display.h ****         {
 8088              		.loc 5 199 26 is_stmt 0 view .LVU2187
 8089              	.LBE2157:
 8090              	.LBE2156:
 8091              	.LBB2167:
 8092              	.LBI2167:
 181:../../libdaisy/src/hid/disp/display.h ****                   uint_fast8_t y1,
 8093              		.loc 5 181 10 is_stmt 1 view .LVU2188
 8094              	.LBB2168:
 8095              	.LBB2169:
 8096              	.LBI2169:
  41:../../libdaisy/src/hid/disp/oled_display.h ****     {
 8097              		.loc 1 41 10 view .LVU2189
 8098              	.LBB2170:
 8099              	.LBI2170:
 239:../../libdaisy/src/dev/oled_ssd130x.h ****     {
 8100              		.loc 6 239 10 view .LVU2190
 8101              	.LBB2171:
 244:../../libdaisy/src/dev/oled_ssd130x.h ****         else
 8102              		.loc 6 244 42 is_stmt 0 view .LVU2191
 8103 0720 94F85020 		ldrb	r2, [r4, #80]	@ zero_extendqisi2
 8104 0724 42F00102 		orr	r2, r2, #1
 8105 0728 84F85020 		strb	r2, [r4, #80]
 8106              	.LVL528:
 244:../../libdaisy/src/dev/oled_ssd130x.h ****         else
 8107              		.loc 6 244 42 view .LVU2192
 8108              	.LBE2171:
 8109              	.LBE2170:
 8110              	.LBE2169:
 199:../../libdaisy/src/hid/disp/display.h ****         {
 8111              		.loc 5 199 26 is_stmt 1 view .LVU2193
 8112              	.L451:
 8113              	.LBB2172:
 8114              	.LBI2172:
  41:../../libdaisy/src/hid/disp/oled_display.h ****     {
 8115              		.loc 1 41 10 view .LVU2194
 8116              	.LBB2173:
 8117              	.LBI2173:
 239:../../libdaisy/src/dev/oled_ssd130x.h ****     {
 8118              		.loc 6 239 10 view .LVU2195
 8119              	.LBB2174:
 244:../../libdaisy/src/dev/oled_ssd130x.h ****         else
 8120              		.loc 6 244 28 is_stmt 0 view .LVU2196
 8121 072c D908     		lsrs	r1, r3, #3
 244:../../libdaisy/src/dev/oled_ssd130x.h ****         else
 8122              		.loc 6 244 54 view .LVU2197
 8123 072e 03F00700 		and	r0, r3, #7
 244:../../libdaisy/src/dev/oled_ssd130x.h ****         else
 8124              		.loc 6 244 48 view .LVU2198
 8125 0732 0122     		movs	r2, #1
 8126              	.LBE2174:
 8127              	.LBE2173:
 8128              	.LBE2172:
 199:../../libdaisy/src/hid/disp/display.h ****         {
 8129              		.loc 5 199 26 view .LVU2199
 8130 0734 013B     		subs	r3, r3, #1
 8131              	.LVL529:
ARM GAS  C:\Users\VINCIU~1\AppData\Local\Temp\ccA1pwKF.s 			page 207


 8132              	.LBB2177:
 8133              	.LBB2176:
 8134              	.LBB2175:
 244:../../libdaisy/src/dev/oled_ssd130x.h ****         else
 8135              		.loc 6 244 42 view .LVU2200
 8136 0736 04EBC111 		add	r1, r4, r1, lsl #7
 244:../../libdaisy/src/dev/oled_ssd130x.h ****         else
 8137              		.loc 6 244 48 view .LVU2201
 8138 073a 02FA00F2 		lsl	r2, r2, r0
 244:../../libdaisy/src/dev/oled_ssd130x.h ****         else
 8139              		.loc 6 244 42 view .LVU2202
 8140 073e 91F85000 		ldrb	r0, [r1, #80]	@ zero_extendqisi2
 8141 0742 42EA0002 		orr	r2, r2, r0
 8142 0746 81F85020 		strb	r2, [r1, #80]
 8143              	.LVL530:
 244:../../libdaisy/src/dev/oled_ssd130x.h ****         else
 8144              		.loc 6 244 42 view .LVU2203
 8145              	.LBE2175:
 8146              	.LBE2176:
 8147              	.LBE2177:
 199:../../libdaisy/src/hid/disp/display.h ****         {
 8148              		.loc 5 199 26 is_stmt 1 view .LVU2204
 8149 074a EFD1     		bne	.L451
 8150 074c 7DE4     		b	.L452
 8151              	.LVL531:
 8152              	.L409:
 199:../../libdaisy/src/hid/disp/display.h ****         {
 8153              		.loc 5 199 26 is_stmt 0 view .LVU2205
 8154              	.LBE2168:
 8155              	.LBE2167:
 8156              	.LBE2130:
 538:Menus.cpp     ****             this->menuStateEnv = 3;
 8157              		.loc 2 538 13 is_stmt 1 view .LVU2206
 541:Menus.cpp     ****     if(this->buttonRight.RisingEdge())
 8158              		.loc 2 541 5 is_stmt 0 view .LVU2207
 8159 074e 97F86130 		ldrb	r3, [r7, #97]	@ zero_extendqisi2
 538:Menus.cpp     ****             this->menuStateEnv = 3;
 8160              		.loc 2 538 32 view .LVU2208
 8161 0752 0322     		movs	r2, #3
 541:Menus.cpp     ****     if(this->buttonRight.RisingEdge())
 8162              		.loc 2 541 5 view .LVU2209
 8163 0754 7F2B     		cmp	r3, #127
 538:Menus.cpp     ****             this->menuStateEnv = 3;
 8164              		.loc 2 538 32 view .LVU2210
 8165 0756 C7F8A421 		str	r2, [r7, #420]
 541:Menus.cpp     ****     if(this->buttonRight.RisingEdge())
 8166              		.loc 2 541 5 is_stmt 1 view .LVU2211
 8167              	.LVL532:
 8168              	.LBB2178:
 8169              		.loc 4 69 17 view .LVU2212
 8170              	.LBB1921:
 8171              		.loc 4 69 38 view .LVU2213
 8172              		.loc 4 69 38 is_stmt 0 view .LVU2214
 8173              	.LBE1921:
 8174              	.LBE2178:
 541:Menus.cpp     ****     if(this->buttonRight.RisingEdge())
 8175              		.loc 2 541 5 view .LVU2215
ARM GAS  C:\Users\VINCIU~1\AppData\Local\Temp\ccA1pwKF.s 			page 208


 8176 075a 3FF47DAE 		beq	.L411
 8177              	.L412:
 622:Menus.cpp     ****         this->releaseTime += this->encoderRight.Increment() * 3.3;
 8178              		.loc 2 622 9 is_stmt 1 view .LVU2216
 8179              	.LVL533:
 8180              	.LBB2179:
 8181              	.LBI2179:
  41:../../libdaisy/src/hid/encoder.h ****     /** Returns true if the encoder was just pressed.
 8182              		.loc 3 41 20 view .LVU2217
 8183              	.LBB2180:
  41:../../libdaisy/src/hid/encoder.h ****     /** Returns true if the encoder was just pressed.
 8184              		.loc 3 41 40 view .LVU2218
  41:../../libdaisy/src/hid/encoder.h ****     /** Returns true if the encoder was just pressed.
 8185              		.loc 3 41 40 is_stmt 0 view .LVU2219
 8186              	.LBE2180:
 8187              	.LBE2179:
 622:Menus.cpp     ****         this->releaseTime += this->encoderRight.Increment() * 3.3;
 8188              		.loc 2 622 27 view .LVU2220
 8189 075e 97ED6D7A 		vldr.32	s14, [r7, #436]
 623:Menus.cpp     ****         env.SetTime(daisysp::ADSR_SEG_RELEASE, this->releaseTime/100);
 8190              		.loc 2 623 20 view .LVU2221
 8191 0762 0421     		movs	r1, #4
 622:Menus.cpp     ****         this->releaseTime += this->encoderRight.Increment() * 3.3;
 8192              		.loc 2 622 61 view .LVU2222
 8193 0764 D7ED127A 		vldr.32	s15, [r7, #72]	@ int
 623:Menus.cpp     ****         env.SetTime(daisysp::ADSR_SEG_RELEASE, this->releaseTime/100);
 8194              		.loc 2 623 20 view .LVU2223
 8195 0768 2846     		mov	r0, r5
 8196 076a 9FED2C0A 		vldr.32	s0, .L584+12
 622:Menus.cpp     ****         this->releaseTime += this->encoderRight.Increment() * 3.3;
 8197              		.loc 2 622 61 view .LVU2224
 8198 076e B8EEE76B 		vcvt.f64.s32	d6, s15
 622:Menus.cpp     ****         this->releaseTime += this->encoderRight.Increment() * 3.3;
 8199              		.loc 2 622 27 view .LVU2225
 8200 0772 B7EEC77A 		vcvt.f64.f32	d7, s14
 8201 0776 9FED265B 		vldr.64	d5, .L584
 8202 077a A6EE057B 		vfma.f64	d7, d6, d5
 8203 077e B7EEC77B 		vcvt.f32.f64	s14, d7
 623:Menus.cpp     ****         env.SetTime(daisysp::ADSR_SEG_RELEASE, this->releaseTime/100);
 8204              		.loc 2 623 20 view .LVU2226
 8205 0782 87EE000A 		vdiv.f32	s0, s14, s0
 622:Menus.cpp     ****         this->releaseTime += this->encoderRight.Increment() * 3.3;
 8206              		.loc 2 622 27 view .LVU2227
 8207 0786 87ED6D7A 		vstr.32	s14, [r7, #436]
 623:Menus.cpp     ****         env.SetTime(daisysp::ADSR_SEG_RELEASE, this->releaseTime/100);
 8208              		.loc 2 623 9 is_stmt 1 view .LVU2228
 623:Menus.cpp     ****         env.SetTime(daisysp::ADSR_SEG_RELEASE, this->releaseTime/100);
 8209              		.loc 2 623 20 is_stmt 0 view .LVU2229
 8210 078a FFF7FEFF 		bl	_ZN7daisysp4Adsr7SetTimeEif
 8211              	.LVL534:
 624:Menus.cpp     ****         this->releaseTimeScaleDraw += this->encoderRight.Increment();
 8212              		.loc 2 624 9 is_stmt 1 view .LVU2230
 8213              	.LBB2181:
 8214              	.LBI2181:
  41:../../libdaisy/src/hid/encoder.h ****     /** Returns true if the encoder was just pressed.
 8215              		.loc 3 41 20 view .LVU2231
 8216              	.LBB2182:
ARM GAS  C:\Users\VINCIU~1\AppData\Local\Temp\ccA1pwKF.s 			page 209


  41:../../libdaisy/src/hid/encoder.h ****     /** Returns true if the encoder was just pressed.
 8217              		.loc 3 41 40 view .LVU2232
  41:../../libdaisy/src/hid/encoder.h ****     /** Returns true if the encoder was just pressed.
 8218              		.loc 3 41 40 is_stmt 0 view .LVU2233
 8219              	.LBE2182:
 8220              	.LBE2181:
 624:Menus.cpp     ****         this->releaseTimeScaleDraw += this->encoderRight.Increment();
 8221              		.loc 2 624 36 view .LVU2234
 8222 078e D7ED127A 		vldr.32	s15, [r7, #72]	@ int
 8223 0792 D7ED6E6A 		vldr.32	s13, [r7, #440]
 625:Menus.cpp     ****         if(this->releaseTimeScaleDraw >= screen.Width() / 4)
 8224              		.loc 2 625 9 view .LVU2235
 8225 0796 9FED207A 		vldr.32	s14, .L584+8
 624:Menus.cpp     ****         this->releaseTimeScaleDraw += this->encoderRight.Increment();
 8226              		.loc 2 624 36 view .LVU2236
 8227 079a F8EEE77A 		vcvt.f32.s32	s15, s15
 8228 079e 77EEA67A 		vadd.f32	s15, s15, s13
 625:Menus.cpp     ****         if(this->releaseTimeScaleDraw >= screen.Width() / 4)
 8229              		.loc 2 625 9 is_stmt 1 view .LVU2237
 8230 07a2 F4EEC77A 		vcmpe.f32	s15, s14
 8231 07a6 F1EE10FA 		vmrs	APSR_nzcv, FPSCR
 8232 07aa 2EDA     		bge	.L580
 629:Menus.cpp     ****         if(this->releaseTimeScaleDraw <= 0)
 8233              		.loc 2 629 9 view .LVU2238
 8234 07ac F5EEC07A 		vcmpe.f32	s15, #0
 8235 07b0 0023     		movs	r3, #0
 8236 07b2 F1EE10FA 		vmrs	APSR_nzcv, FPSCR
 624:Menus.cpp     ****         this->releaseTimeScaleDraw += this->encoderRight.Increment();
 8237              		.loc 2 624 36 is_stmt 0 view .LVU2239
 8238 07b6 8CBF     		ite	hi
 8239 07b8 C7ED6E7A 		vstrhi.32	s15, [r7, #440]
 631:Menus.cpp     ****             this->releaseTimeScaleDraw = 0;
 8240              		.loc 2 631 13 is_stmt 1 view .LVU2240
 631:Menus.cpp     ****             this->releaseTimeScaleDraw = 0;
 8241              		.loc 2 631 40 is_stmt 0 view .LVU2241
 8242 07bc C7F8B831 		strls	r3, [r7, #440]	@ float
 8243              	.L456:
 633:Menus.cpp     ****         if(this->releaseTime >= 100)
 8244              		.loc 2 633 9 is_stmt 1 view .LVU2242
 633:Menus.cpp     ****         if(this->releaseTime >= 100)
 8245              		.loc 2 633 18 is_stmt 0 view .LVU2243
 8246 07c0 D7ED6D7A 		vldr.32	s15, [r7, #436]
 633:Menus.cpp     ****         if(this->releaseTime >= 100)
 8247              		.loc 2 633 9 view .LVU2244
 8248 07c4 9FED157A 		vldr.32	s14, .L584+12
 8249 07c8 F4EEC77A 		vcmpe.f32	s15, s14
 8250 07cc F1EE10FA 		vmrs	APSR_nzcv, FPSCR
 8251 07d0 4CDB     		blt	.L569
 635:Menus.cpp     ****             this->releaseTime = 100;
 8252              		.loc 2 635 13 is_stmt 1 view .LVU2245
 635:Menus.cpp     ****             this->releaseTime = 100;
 8253              		.loc 2 635 31 is_stmt 0 view .LVU2246
 8254 07d2 87ED6D7A 		vstr.32	s14, [r7, #436]
 637:Menus.cpp     ****         if(this->releaseTime <= 0)
 8255              		.loc 2 637 9 is_stmt 1 view .LVU2247
 8256              	.L460:
 641:Menus.cpp     ****         screen.DrawRect(76, 0, 88, 13, true, false);
ARM GAS  C:\Users\VINCIU~1\AppData\Local\Temp\ccA1pwKF.s 			page 210


 8257              		.loc 2 641 9 view .LVU2248
 641:Menus.cpp     ****         screen.DrawRect(76, 0, 88, 13, true, false);
 8258              		.loc 2 641 24 is_stmt 0 view .LVU2249
 8259 07d6 0022     		movs	r2, #0
 8260 07d8 0121     		movs	r1, #1
 8261 07da 0D23     		movs	r3, #13
 8262 07dc 2046     		mov	r0, r4
 8263 07de CDE90112 		strd	r1, r2, [sp, #4]
 8264 07e2 0093     		str	r3, [sp]
 8265 07e4 4C21     		movs	r1, #76
 8266 07e6 5823     		movs	r3, #88
 8267 07e8 FFF7FEFF 		bl	_ZN5daisy25OneBitGraphicsDisplayImplINS_11OledDisplayINS_13SSD130xDriverILj128ELj64ENS_24SSD130
 8268              	.LVL535:
 8269 07ec 2DE4     		b	.L452
 8270              	.L572:
 535:Menus.cpp     ****         this->menuStateEnv = this->menuStateEnv - 1;
 8271              		.loc 2 535 9 is_stmt 1 view .LVU2250
 536:Menus.cpp     ****         if(this->menuStateEnv < 0)
 8272              		.loc 2 536 9 view .LVU2251
 8273 07ee 013B     		subs	r3, r3, #1
 8274 07f0 ADD4     		bmi	.L409
 535:Menus.cpp     ****         this->menuStateEnv = this->menuStateEnv - 1;
 8275              		.loc 2 535 28 is_stmt 0 view .LVU2252
 8276 07f2 C7F8A431 		str	r3, [r7, #420]
 8277 07f6 17E4     		b	.L410
 8278              	.L579:
 603:Menus.cpp     ****             this->sustatinLevelScaleDraw = screen.Width() / 4;
 8279              		.loc 2 603 13 is_stmt 1 view .LVU2253
 603:Menus.cpp     ****             this->sustatinLevelScaleDraw = screen.Width() / 4;
 8280              		.loc 2 603 42 is_stmt 0 view .LVU2254
 8281 07f8 87ED6C7A 		vstr.32	s14, [r7, #432]
 605:Menus.cpp     ****         if(this->sustatinLevelScaleDraw <= 0)
 8282              		.loc 2 605 9 is_stmt 1 view .LVU2255
 8283 07fc 4BE7     		b	.L442
 8284              	.L577:
 557:Menus.cpp     ****             attackTimeScaleDraw = screen.Width() / 4;
 8285              		.loc 2 557 13 view .LVU2256
 557:Menus.cpp     ****             attackTimeScaleDraw = screen.Width() / 4;
 8286              		.loc 2 557 33 is_stmt 0 view .LVU2257
 8287 07fe 87ED687A 		vstr.32	s14, [r7, #416]
 559:Menus.cpp     ****         if(attackTimeScaleDraw <= 0)
 8288              		.loc 2 559 9 is_stmt 1 view .LVU2258
 8289 0802 5EE6     		b	.L418
 8290              	.L578:
 580:Menus.cpp     ****             decayTimeScaleDraw = screen.Width() / 4;
 8291              		.loc 2 580 13 view .LVU2259
 580:Menus.cpp     ****             decayTimeScaleDraw = screen.Width() / 4;
 8292              		.loc 2 580 32 is_stmt 0 view .LVU2260
 8293 0804 87ED6A7A 		vstr.32	s14, [r7, #424]
 582:Menus.cpp     ****         if(decayTimeScaleDraw <= 0)
 8294              		.loc 2 582 9 is_stmt 1 view .LVU2261
 8295 0808 EDE6     		b	.L432
 8296              	.L580:
 627:Menus.cpp     ****             this->releaseTimeScaleDraw = screen.Width() / 4;
 8297              		.loc 2 627 13 view .LVU2262
 627:Menus.cpp     ****             this->releaseTimeScaleDraw = screen.Width() / 4;
 8298              		.loc 2 627 40 is_stmt 0 view .LVU2263
ARM GAS  C:\Users\VINCIU~1\AppData\Local\Temp\ccA1pwKF.s 			page 211


 8299 080a 87ED6E7A 		vstr.32	s14, [r7, #440]
 629:Menus.cpp     ****         if(this->releaseTimeScaleDraw <= 0)
 8300              		.loc 2 629 9 is_stmt 1 view .LVU2264
 8301 080e D7E7     		b	.L456
 8302              	.L585:
 8303              		.align	3
 8304              	.L584:
 8305 0810 66666666 		.word	1717986918
 8306 0814 66660A40 		.word	1074423398
 8307 0818 00000042 		.word	1107296256
 8308 081c 0000C842 		.word	1120403456
 8309 0820 0AD723BC 		.word	-1138501878
 8310              	.LVL536:
 8311              	.L516:
 8312              	.LBB2183:
 8313              	.LBB1990:
 190:../../libdaisy/src/hid/disp/display.h ****         int_fast16_t error  = deltaX - deltaY;
 8314              		.loc 5 190 42 is_stmt 0 view .LVU2265
 8315 0824 0123     		movs	r3, #1
 8316 0826 0693     		str	r3, [sp, #24]
 8317 0828 B6E4     		b	.L474
 8318              	.LVL537:
 8319              	.L567:
 190:../../libdaisy/src/hid/disp/display.h ****         int_fast16_t error  = deltaX - deltaY;
 8320              		.loc 5 190 42 view .LVU2266
 8321              	.LBE1990:
 8322              	.LBE2183:
 613:Menus.cpp     ****         if(this->sustatinLevel <= 0)
 8323              		.loc 2 613 9 is_stmt 1 view .LVU2267
 8324 082a F5EEC07A 		vcmpe.f32	s15, #0
 8325 082e 0023     		movs	r3, #0
 8326 0830 F1EE10FA 		vmrs	APSR_nzcv, FPSCR
 615:Menus.cpp     ****             this->sustatinLevel = 0;
 8327              		.loc 2 615 13 view .LVU2268
 615:Menus.cpp     ****             this->sustatinLevel = 0;
 8328              		.loc 2 615 33 is_stmt 0 view .LVU2269
 8329 0834 98BF     		it	ls
 8330 0836 C7F8AC31 		strls	r3, [r7, #428]	@ float
 8331 083a 38E7     		b	.L446
 8332              	.L563:
 567:Menus.cpp     ****         if(attackTime <= 0)
 8333              		.loc 2 567 9 is_stmt 1 view .LVU2270
 8334 083c F5EEC07A 		vcmpe.f32	s15, #0
 8335 0840 0023     		movs	r3, #0
 8336 0842 F1EE10FA 		vmrs	APSR_nzcv, FPSCR
 569:Menus.cpp     ****             attackTime = 0;
 8337              		.loc 2 569 13 view .LVU2271
 569:Menus.cpp     ****             attackTime = 0;
 8338              		.loc 2 569 24 is_stmt 0 view .LVU2272
 8339 0846 98BF     		it	ls
 8340 0848 C7F89831 		strls	r3, [r7, #408]	@ float
 8341 084c 45E6     		b	.L422
 8342              	.LVL538:
 8343              	.L505:
 8344              	.LBB2184:
 8345              	.LBB2128:
  68:../../DaisySP/Source/Control/adsr.h ****                                        : (sus_level > 1.f) ? 1.f : sus_level;
ARM GAS  C:\Users\VINCIU~1\AppData\Local\Temp\ccA1pwKF.s 			page 212


 8346              		.loc 8 68 40 view .LVU2273
 8347 084e 1FED0C6A 		vldr.32	s12, .L584+16
 8348              	.LVL539:
  68:../../DaisySP/Source/Control/adsr.h ****                                        : (sus_level > 1.f) ? 1.f : sus_level;
 8349              		.loc 8 68 40 view .LVU2274
 8350 0852 06E7     		b	.L439
 8351              	.LVL540:
 8352              	.L576:
  68:../../DaisySP/Source/Control/adsr.h ****                                        : (sus_level > 1.f) ? 1.f : sus_level;
 8353              		.loc 8 68 40 view .LVU2275
 8354              	.LBE2128:
 8355              	.LBE2184:
 8356              	.LBB2185:
 8357              	.LBB1991:
 199:../../libdaisy/src/hid/disp/display.h ****         {
 8358              		.loc 5 199 26 view .LVU2276
 8359 0854 0023     		movs	r3, #0
 8360 0856 0793     		str	r3, [sp, #28]
 8361 0858 C9E4     		b	.L473
 8362              	.LVL541:
 8363              	.L565:
 199:../../libdaisy/src/hid/disp/display.h ****         {
 8364              		.loc 5 199 26 view .LVU2277
 8365              	.LBE1991:
 8366              	.LBE2185:
 590:Menus.cpp     ****         if(decayTime <= 0)
 8367              		.loc 2 590 9 is_stmt 1 view .LVU2278
 8368 085a F5EEC07A 		vcmpe.f32	s15, #0
 8369 085e 0023     		movs	r3, #0
 8370 0860 F1EE10FA 		vmrs	APSR_nzcv, FPSCR
 592:Menus.cpp     ****             decayTime = 0;
 8371              		.loc 2 592 13 view .LVU2279
 592:Menus.cpp     ****             decayTime = 0;
 8372              		.loc 2 592 23 is_stmt 0 view .LVU2280
 8373 0864 98BF     		it	ls
 8374 0866 C7F89C31 		strls	r3, [r7, #412]	@ float
 8375 086a C8E6     		b	.L436
 8376              	.L569:
 637:Menus.cpp     ****         if(this->releaseTime <= 0)
 8377              		.loc 2 637 9 is_stmt 1 view .LVU2281
 8378 086c F5EEC07A 		vcmpe.f32	s15, #0
 8379 0870 0023     		movs	r3, #0
 8380 0872 F1EE10FA 		vmrs	APSR_nzcv, FPSCR
 639:Menus.cpp     ****             this->releaseTime = 0;
 8381              		.loc 2 639 13 view .LVU2282
 639:Menus.cpp     ****             this->releaseTime = 0;
 8382              		.loc 2 639 31 is_stmt 0 view .LVU2283
 8383 0876 98BF     		it	ls
 8384 0878 C7F8B431 		strls	r3, [r7, #436]	@ float
 8385 087c ABE7     		b	.L460
 8386              		.cfi_endproc
 8387              	.LFE4041:
 8389 087e 00BF     		.text
 8390              	.Letext0:
 8391              		.file 9 "c:\\users\\vin\355cius\\documents\\daisytoolchain-0.3.1\\windows\\arm-none-eabi\\include\
 8392              		.file 10 "c:\\users\\vin\355cius\\documents\\daisytoolchain-0.3.1\\windows\\arm-none-eabi\\include
 8393              		.file 11 "c:\\users\\vin\355cius\\documents\\daisytoolchain-0.3.1\\windows\\arm-none-eabi\\include
ARM GAS  C:\Users\VINCIU~1\AppData\Local\Temp\ccA1pwKF.s 			page 213


 8394              		.file 12 "c:\\users\\vin\355cius\\documents\\daisytoolchain-0.3.1\\windows\\lib\\gcc\\arm-none-eab
 8395              		.file 13 "c:\\users\\vin\355cius\\documents\\daisytoolchain-0.3.1\\windows\\arm-none-eabi\\include
 8396              		.file 14 "c:\\users\\vin\355cius\\documents\\daisytoolchain-0.3.1\\windows\\arm-none-eabi\\include
 8397              		.file 15 "c:\\users\\vin\355cius\\documents\\daisytoolchain-0.3.1\\windows\\arm-none-eabi\\include
 8398              		.file 16 "c:\\users\\vin\355cius\\documents\\daisytoolchain-0.3.1\\windows\\arm-none-eabi\\include
 8399              		.file 17 "c:\\users\\vin\355cius\\documents\\daisytoolchain-0.3.1\\windows\\arm-none-eabi\\include
 8400              		.file 18 "c:\\users\\vin\355cius\\documents\\daisytoolchain-0.3.1\\windows\\arm-none-eabi\\include
 8401              		.file 19 "c:\\users\\vin\355cius\\documents\\daisytoolchain-0.3.1\\windows\\arm-none-eabi\\include
 8402              		.file 20 "c:\\users\\vin\355cius\\documents\\daisytoolchain-0.3.1\\windows\\arm-none-eabi\\include
 8403              		.file 21 "c:\\users\\vin\355cius\\documents\\daisytoolchain-0.3.1\\windows\\arm-none-eabi\\include
 8404              		.file 22 "c:\\users\\vin\355cius\\documents\\daisytoolchain-0.3.1\\windows\\arm-none-eabi\\include
 8405              		.file 23 "c:\\users\\vin\355cius\\documents\\daisytoolchain-0.3.1\\windows\\arm-none-eabi\\include
 8406              		.file 24 "c:\\users\\vin\355cius\\documents\\daisytoolchain-0.3.1\\windows\\arm-none-eabi\\include
 8407              		.file 25 "c:\\users\\vin\355cius\\documents\\daisytoolchain-0.3.1\\windows\\arm-none-eabi\\include
 8408              		.file 26 "c:\\users\\vin\355cius\\documents\\daisytoolchain-0.3.1\\windows\\arm-none-eabi\\include
 8409              		.file 27 "c:\\users\\vin\355cius\\documents\\daisytoolchain-0.3.1\\windows\\arm-none-eabi\\include
 8410              		.file 28 "c:\\users\\vin\355cius\\documents\\daisytoolchain-0.3.1\\windows\\arm-none-eabi\\include
 8411              		.file 29 "c:\\users\\vin\355cius\\documents\\daisytoolchain-0.3.1\\windows\\arm-none-eabi\\include
 8412              		.file 30 "c:\\users\\vin\355cius\\documents\\daisytoolchain-0.3.1\\windows\\arm-none-eabi\\include
 8413              		.file 31 "c:\\users\\vin\355cius\\documents\\daisytoolchain-0.3.1\\windows\\arm-none-eabi\\include
 8414              		.file 32 "c:\\users\\vin\355cius\\documents\\daisytoolchain-0.3.1\\windows\\arm-none-eabi\\include
 8415              		.file 33 "c:\\users\\vin\355cius\\documents\\daisytoolchain-0.3.1\\windows\\arm-none-eabi\\include
 8416              		.file 34 "c:\\users\\vin\355cius\\documents\\daisytoolchain-0.3.1\\windows\\arm-none-eabi\\include
 8417              		.file 35 "c:\\users\\vin\355cius\\documents\\daisytoolchain-0.3.1\\windows\\arm-none-eabi\\include
 8418              		.file 36 "c:\\users\\vin\355cius\\documents\\daisytoolchain-0.3.1\\windows\\arm-none-eabi\\include
 8419              		.file 37 "c:\\users\\vin\355cius\\documents\\daisytoolchain-0.3.1\\windows\\arm-none-eabi\\include
 8420              		.file 38 "../../libdaisy/src/daisy_core.h"
 8421              		.file 39 "../../libdaisy/src/per/tim.h"
 8422              		.file 40 "../../libdaisy/src/per/spi.h"
 8423              		.file 41 "../../libdaisy/src/util/wav_format.h"
 8424              		.file 42 "../../libdaisy/src/per/gpio.h"
 8425              		.file 43 "c:\\users\\vin\355cius\\documents\\daisytoolchain-0.3.1\\windows\\lib\\gcc\\arm-none-eab
 8426              		.file 44 "c:\\users\\vin\355cius\\documents\\daisytoolchain-0.3.1\\windows\\arm-none-eabi\\include
 8427              		.file 45 "../../libdaisy/src/util/oled_fonts.h"
 8428              		.file 46 "../../DaisySP/Source/Control/adenv.h"
 8429              		.file 47 "../../DaisySP/Source/Utility/dsp.h"
 8430              		.file 48 "c:\\users\\vin\355cius\\documents\\daisytoolchain-0.3.1\\windows\\arm-none-eabi\\include
 8431              		.file 49 "c:\\users\\vin\355cius\\documents\\daisytoolchain-0.3.1\\windows\\arm-none-eabi\\include
 8432              		.file 50 "c:\\users\\vin\355cius\\documents\\daisytoolchain-0.3.1\\windows\\arm-none-eabi\\include
 8433              		.file 51 "Menus.h"
 8434              		.file 52 "OledDisplayExtravaganza.h"
 8435              		.file 53 "<built-in>"
 8436              		.file 54 "../../libdaisy/src/dev/sr_595.h"
ARM GAS  C:\Users\VINCIU~1\AppData\Local\Temp\ccA1pwKF.s 			page 214


DEFINED SYMBOLS
                            *ABS*:00000000 Menus.cpp
C:\Users\VINCIU~1\AppData\Local\Temp\ccA1pwKF.s:17     .text._ZNK5daisy11OledDisplayINS_13SSD130xDriverILj128ELj64ENS_24SSD130x4WireSpiTransportEEEE5WidthEv:00000000 $t
C:\Users\VINCIU~1\AppData\Local\Temp\ccA1pwKF.s:26     .text._ZNK5daisy11OledDisplayINS_13SSD130xDriverILj128ELj64ENS_24SSD130x4WireSpiTransportEEEE5WidthEv:00000000 _ZNK5daisy11OledDisplayINS_13SSD130xDriverILj128ELj64ENS_24SSD130x4WireSpiTransportEEEE5WidthEv
C:\Users\VINCIU~1\AppData\Local\Temp\ccA1pwKF.s:44     .text._ZNK5daisy11OledDisplayINS_13SSD130xDriverILj128ELj64ENS_24SSD130x4WireSpiTransportEEEE6HeightEv:00000000 $t
C:\Users\VINCIU~1\AppData\Local\Temp\ccA1pwKF.s:52     .text._ZNK5daisy11OledDisplayINS_13SSD130xDriverILj128ELj64ENS_24SSD130x4WireSpiTransportEEEE6HeightEv:00000000 _ZNK5daisy11OledDisplayINS_13SSD130xDriverILj128ELj64ENS_24SSD130x4WireSpiTransportEEEE6HeightEv
C:\Users\VINCIU~1\AppData\Local\Temp\ccA1pwKF.s:69     .rodata._ZN5MenusC2Ev.str1.4:00000000 $d
C:\Users\VINCIU~1\AppData\Local\Temp\ccA1pwKF.s:73     .text._ZN5MenusC2Ev:00000000 $t
C:\Users\VINCIU~1\AppData\Local\Temp\ccA1pwKF.s:81     .text._ZN5MenusC2Ev:00000000 _ZN5MenusC2Ev
C:\Users\VINCIU~1\AppData\Local\Temp\ccA1pwKF.s:219    .text._ZN5MenusC2Ev:00000068 $d
C:\Users\VINCIU~1\AppData\Local\Temp\ccA1pwKF.s:81     .text._ZN5MenusC2Ev:00000000 _ZN5MenusC1Ev
C:\Users\VINCIU~1\AppData\Local\Temp\ccA1pwKF.s:227    .text._ZN5Menus10WaveSelectEf:00000000 $t
C:\Users\VINCIU~1\AppData\Local\Temp\ccA1pwKF.s:235    .text._ZN5Menus10WaveSelectEf:00000000 _ZN5Menus10WaveSelectEf
C:\Users\VINCIU~1\AppData\Local\Temp\ccA1pwKF.s:310    .text._ZN5Menus9OscSelectEf:00000000 $t
C:\Users\VINCIU~1\AppData\Local\Temp\ccA1pwKF.s:318    .text._ZN5Menus9OscSelectEf:00000000 _ZN5Menus9OscSelectEf
C:\Users\VINCIU~1\AppData\Local\Temp\ccA1pwKF.s:384    .text._ZN5daisy25OneBitGraphicsDisplayImplINS_11OledDisplayINS_13SSD130xDriverILj128ELj64ENS_24SSD130x4WireSpiTransportEEEEEE11WriteStringEPKc7FontDefb:00000000 $t
C:\Users\VINCIU~1\AppData\Local\Temp\ccA1pwKF.s:392    .text._ZN5daisy25OneBitGraphicsDisplayImplINS_11OledDisplayINS_13SSD130xDriverILj128ELj64ENS_24SSD130x4WireSpiTransportEEEEEE11WriteStringEPKc7FontDefb:00000000 _ZN5daisy25OneBitGraphicsDisplayImplINS_11OledDisplayINS_13SSD130xDriverILj128ELj64ENS_24SSD130x4WireSpiTransportEEEEEE11WriteStringEPKc7FontDefb
C:\Users\VINCIU~1\AppData\Local\Temp\ccA1pwKF.s:851    .text._ZN5daisy25OneBitGraphicsDisplayImplINS_11OledDisplayINS_13SSD130xDriverILj128ELj64ENS_24SSD130x4WireSpiTransportEEEEEE11WriteStringEPKc7FontDefb:000001b8 $d
C:\Users\VINCIU~1\AppData\Local\Temp\ccA1pwKF.s:861    .rodata._ZN5Menus5Menu2E23OledDisplayExtravaganzaPN7daisysp10OscillatorE.str1.4:00000000 $d
C:\Users\VINCIU~1\AppData\Local\Temp\ccA1pwKF.s:868    .text._ZN5Menus5Menu2E23OledDisplayExtravaganzaPN7daisysp10OscillatorE:00000000 $t
C:\Users\VINCIU~1\AppData\Local\Temp\ccA1pwKF.s:876    .text._ZN5Menus5Menu2E23OledDisplayExtravaganzaPN7daisysp10OscillatorE:00000000 _ZN5Menus5Menu2E23OledDisplayExtravaganzaPN7daisysp10OscillatorE
C:\Users\VINCIU~1\AppData\Local\Temp\ccA1pwKF.s:2016   .text._ZN5Menus5Menu2E23OledDisplayExtravaganzaPN7daisysp10OscillatorE:00000368 $d
C:\Users\VINCIU~1\AppData\Local\Temp\ccA1pwKF.s:2034   .text._ZN5Menus5Menu2E23OledDisplayExtravaganzaPN7daisysp10OscillatorE:00000384 $t
C:\Users\VINCIU~1\AppData\Local\Temp\ccA1pwKF.s:2430   .text._ZN5Menus5Menu2E23OledDisplayExtravaganzaPN7daisysp10OscillatorE:00000500 $d
C:\Users\VINCIU~1\AppData\Local\Temp\ccA1pwKF.s:2441   .text._ZN5daisy25OneBitGraphicsDisplayImplINS_11OledDisplayINS_13SSD130xDriverILj128ELj64ENS_24SSD130x4WireSpiTransportEEEEEE8DrawRectEjjjjbb:00000000 $t
C:\Users\VINCIU~1\AppData\Local\Temp\ccA1pwKF.s:2449   .text._ZN5daisy25OneBitGraphicsDisplayImplINS_11OledDisplayINS_13SSD130xDriverILj128ELj64ENS_24SSD130x4WireSpiTransportEEEEEE8DrawRectEjjjjbb:00000000 _ZN5daisy25OneBitGraphicsDisplayImplINS_11OledDisplayINS_13SSD130xDriverILj128ELj64ENS_24SSD130x4WireSpiTransportEEEEEE8DrawRectEjjjjbb
C:\Users\VINCIU~1\AppData\Local\Temp\ccA1pwKF.s:3559   .rodata._ZN5Menus5Menu1E23OledDisplayExtravaganzaPN7daisysp10OscillatorE.str1.4:00000000 $d
C:\Users\VINCIU~1\AppData\Local\Temp\ccA1pwKF.s:3572   .text._ZN5Menus5Menu1E23OledDisplayExtravaganzaPN7daisysp10OscillatorE:00000000 $t
C:\Users\VINCIU~1\AppData\Local\Temp\ccA1pwKF.s:3580   .text._ZN5Menus5Menu1E23OledDisplayExtravaganzaPN7daisysp10OscillatorE:00000000 _ZN5Menus5Menu1E23OledDisplayExtravaganzaPN7daisysp10OscillatorE
C:\Users\VINCIU~1\AppData\Local\Temp\ccA1pwKF.s:4391   .text._ZN5Menus5Menu1E23OledDisplayExtravaganzaPN7daisysp10OscillatorE:00000358 $d
C:\Users\VINCIU~1\AppData\Local\Temp\ccA1pwKF.s:4411   .text._ZN5Menus5Menu1E23OledDisplayExtravaganzaPN7daisysp10OscillatorE:00000398 $t
C:\Users\VINCIU~1\AppData\Local\Temp\ccA1pwKF.s:5637   .text._ZN5Menus5Menu1E23OledDisplayExtravaganzaPN7daisysp10OscillatorE:000006fc $d
C:\Users\VINCIU~1\AppData\Local\Temp\ccA1pwKF.s:5653   .text._ZN5Menus5Menu1E23OledDisplayExtravaganzaPN7daisysp10OscillatorE:00000714 $t
C:\Users\VINCIU~1\AppData\Local\Temp\ccA1pwKF.s:6095   .text._ZN5Menus5Menu1E23OledDisplayExtravaganzaPN7daisysp10OscillatorE:00000860 $d
C:\Users\VINCIU~1\AppData\Local\Temp\ccA1pwKF.s:6114   .rodata._ZN5Menus5Menu3E23OledDisplayExtravaganzaPN7daisysp10OscillatorERNS1_4AdsrE.str1.4:00000000 $d
C:\Users\VINCIU~1\AppData\Local\Temp\ccA1pwKF.s:6127   .text._ZN5Menus5Menu3E23OledDisplayExtravaganzaPN7daisysp10OscillatorERNS1_4AdsrE:00000000 $t
C:\Users\VINCIU~1\AppData\Local\Temp\ccA1pwKF.s:6135   .text._ZN5Menus5Menu3E23OledDisplayExtravaganzaPN7daisysp10OscillatorERNS1_4AdsrE:00000000 _ZN5Menus5Menu3E23OledDisplayExtravaganzaPN7daisysp10OscillatorERNS1_4AdsrE
C:\Users\VINCIU~1\AppData\Local\Temp\ccA1pwKF.s:7019   .text._ZN5Menus5Menu3E23OledDisplayExtravaganzaPN7daisysp10OscillatorERNS1_4AdsrE:00000338 $d
C:\Users\VINCIU~1\AppData\Local\Temp\ccA1pwKF.s:7043   .text._ZN5Menus5Menu3E23OledDisplayExtravaganzaPN7daisysp10OscillatorERNS1_4AdsrE:00000368 $t
C:\Users\VINCIU~1\AppData\Local\Temp\ccA1pwKF.s:8305   .text._ZN5Menus5Menu3E23OledDisplayExtravaganzaPN7daisysp10OscillatorERNS1_4AdsrE:00000810 $d
C:\Users\VINCIU~1\AppData\Local\Temp\ccA1pwKF.s:8315   .text._ZN5Menus5Menu3E23OledDisplayExtravaganzaPN7daisysp10OscillatorERNS1_4AdsrE:00000824 $t

UNDEFINED SYMBOLS
sprintf
memset
dsy_gpio_write
_ZN5daisy9SpiHandle16BlockingTransmitEPhjm
Font_6x8
_ZN23OledDisplayExtravaganza20drawHorizontalToggleEfffbbPKc
_ZN23OledDisplayExtravaganza10drawSliderEffffff
_ZN23OledDisplayExtravaganza18drawVerticalToggleEfffbbPKc
_ZN23OledDisplayExtravaganza9WaveIconsEiiiib
Font_7x10
_ZN7daisysp4Adsr7SetTimeEif
