ARM GAS  C:\Users\VINCIU~1\AppData\Local\Temp\ccdhDWPe.s 			page 1


   1              		.cpu cortex-m7
   2              		.eabi_attribute 28, 1
   3              		.eabi_attribute 20, 1
   4              		.eabi_attribute 21, 1
   5              		.eabi_attribute 23, 3
   6              		.eabi_attribute 24, 1
   7              		.eabi_attribute 25, 1
   8              		.eabi_attribute 26, 1
   9              		.eabi_attribute 30, 2
  10              		.eabi_attribute 34, 1
  11              		.eabi_attribute 18, 4
  12              		.file	"Menus.cpp"
  13              		.text
  14              	.Ltext0:
  15              		.cfi_sections	.debug_frame
  16              		.section	.text._ZNK5daisy11OledDisplayINS_13SSD130xDriverILj128ELj64ENS_24SSD130x4WireSpiTransport
  17              		.align	1
  18              		.p2align 2,,3
  19              		.weak	_ZNK5daisy11OledDisplayINS_13SSD130xDriverILj128ELj64ENS_24SSD130x4WireSpiTransportEEEE5Widt
  20              		.arch armv7e-m
  21              		.syntax unified
  22              		.thumb
  23              		.thumb_func
  24              		.fpu fpv5-d16
  26              	_ZNK5daisy11OledDisplayINS_13SSD130xDriverILj128ELj64ENS_24SSD130x4WireSpiTransportEEEE5WidthEv:
  27              	.LVL0:
  28              	.LFB4339:
  29              		.file 1 "../../libdaisy/src/hid/disp/oled_display.h"
   1:../../libdaisy/src/hid/disp/oled_display.h **** #pragma once
   2:../../libdaisy/src/hid/disp/oled_display.h **** #ifndef DSY_OLED_DISPLAY_H
   3:../../libdaisy/src/hid/disp/oled_display.h **** #define DSY_OLED_DISPLAY_H /**< Macro */
   4:../../libdaisy/src/hid/disp/oled_display.h **** 
   5:../../libdaisy/src/hid/disp/oled_display.h **** #include "display.h"
   6:../../libdaisy/src/hid/disp/oled_display.h **** 
   7:../../libdaisy/src/hid/disp/oled_display.h **** namespace daisy
   8:../../libdaisy/src/hid/disp/oled_display.h **** {
   9:../../libdaisy/src/hid/disp/oled_display.h **** /** 
  10:../../libdaisy/src/hid/disp/oled_display.h ****  * This class is for drawing to a monochrome OLED display. 
  11:../../libdaisy/src/hid/disp/oled_display.h **** */
  12:../../libdaisy/src/hid/disp/oled_display.h **** template <typename DisplayDriver>
  13:../../libdaisy/src/hid/disp/oled_display.h **** class OledDisplay : public OneBitGraphicsDisplayImpl<OledDisplay<DisplayDriver>>
  14:../../libdaisy/src/hid/disp/oled_display.h **** {
  15:../../libdaisy/src/hid/disp/oled_display.h ****   public:
  16:../../libdaisy/src/hid/disp/oled_display.h ****     OledDisplay() {}
  17:../../libdaisy/src/hid/disp/oled_display.h ****     virtual ~OledDisplay() {}
  18:../../libdaisy/src/hid/disp/oled_display.h **** 
  19:../../libdaisy/src/hid/disp/oled_display.h ****     struct Config
  20:../../libdaisy/src/hid/disp/oled_display.h ****     {
  21:../../libdaisy/src/hid/disp/oled_display.h ****         typename DisplayDriver::Config driver_config;
  22:../../libdaisy/src/hid/disp/oled_display.h ****     };
  23:../../libdaisy/src/hid/disp/oled_display.h **** 
  24:../../libdaisy/src/hid/disp/oled_display.h ****     void Init(Config config) { driver_.Init(config.driver_config); }
  25:../../libdaisy/src/hid/disp/oled_display.h **** 
  26:../../libdaisy/src/hid/disp/oled_display.h ****     uint16_t Height() const override { return driver_.Height(); }
  27:../../libdaisy/src/hid/disp/oled_display.h ****     uint16_t Width() const override { return driver_.Width(); }
  30              		.loc 1 27 14 view -0
  31              		.cfi_startproc
ARM GAS  C:\Users\VINCIU~1\AppData\Local\Temp\ccdhDWPe.s 			page 2


  32              		@ args = 0, pretend = 0, frame = 0
  33              		@ frame_needed = 0, uses_anonymous_args = 0
  34              		@ link register save eliminated.
  35              		.loc 1 27 63 is_stmt 0 view .LVU1
  36 0000 8020     		movs	r0, #128
  37              	.LVL1:
  38              		.loc 1 27 63 view .LVU2
  39 0002 7047     		bx	lr
  40              		.cfi_endproc
  41              	.LFE4339:
  43              		.section	.text._ZNK5daisy11OledDisplayINS_13SSD130xDriverILj128ELj64ENS_24SSD130x4WireSpiTransport
  44              		.align	1
  45              		.p2align 2,,3
  46              		.weak	_ZNK5daisy11OledDisplayINS_13SSD130xDriverILj128ELj64ENS_24SSD130x4WireSpiTransportEEEE6Heig
  47              		.syntax unified
  48              		.thumb
  49              		.thumb_func
  50              		.fpu fpv5-d16
  52              	_ZNK5daisy11OledDisplayINS_13SSD130xDriverILj128ELj64ENS_24SSD130x4WireSpiTransportEEEE6HeightEv:
  53              	.LVL2:
  54              	.LFB4340:
  26:../../libdaisy/src/hid/disp/oled_display.h ****     uint16_t Width() const override { return driver_.Width(); }
  55              		.loc 1 26 14 is_stmt 1 view -0
  56              		.cfi_startproc
  57              		@ args = 0, pretend = 0, frame = 0
  58              		@ frame_needed = 0, uses_anonymous_args = 0
  59              		@ link register save eliminated.
  26:../../libdaisy/src/hid/disp/oled_display.h ****     uint16_t Width() const override { return driver_.Width(); }
  60              		.loc 1 26 65 is_stmt 0 view .LVU4
  61 0000 4020     		movs	r0, #64
  62              	.LVL3:
  26:../../libdaisy/src/hid/disp/oled_display.h ****     uint16_t Width() const override { return driver_.Width(); }
  63              		.loc 1 26 65 view .LVU5
  64 0002 7047     		bx	lr
  65              		.cfi_endproc
  66              	.LFE4340:
  68              		.section	.rodata._ZN5MenusC2Ev.str1.4,"aMS",%progbits,1
  69              		.align	2
  70              	.LC0:
  71 0000 54696D65 		.ascii	"Time_0%%\000"
  71      5F302525 
  71      00
  72              		.section	.text._ZN5MenusC2Ev,"ax",%progbits
  73              		.align	1
  74              		.p2align 2,,3
  75              		.global	_ZN5MenusC2Ev
  76              		.syntax unified
  77              		.thumb
  78              		.thumb_func
  79              		.fpu fpv5-d16
  81              	_ZN5MenusC2Ev:
  82              	.LVL4:
  83              	.LFB4035:
  84              		.file 2 "Menus.cpp"
   1:Menus.cpp     **** #include "Menus.h"
   2:Menus.cpp     **** 
   3:Menus.cpp     **** 
ARM GAS  C:\Users\VINCIU~1\AppData\Local\Temp\ccdhDWPe.s 			page 3


   4:Menus.cpp     **** Menus::Menus()
  85              		.loc 2 4 1 is_stmt 1 view -0
  86              		.cfi_startproc
  87              		@ args = 0, pretend = 0, frame = 0
  88              		@ frame_needed = 0, uses_anonymous_args = 0
  89              	.LBB334:
   5:Menus.cpp     **** {
   6:Menus.cpp     ****     this->on                      = true;
  90              		.loc 2 6 35 is_stmt 0 view .LVU7
  91 0000 0122     		movs	r2, #1
   7:Menus.cpp     ****     this->analogRead              = 0;
   8:Menus.cpp     ****     this->analogLastRead          = 0;
   9:Menus.cpp     ****     this->updateValue             = false;
  92              		.loc 2 9 35 view .LVU8
  93 0002 0023     		movs	r3, #0
  10:Menus.cpp     ****     this->menuState               = 0;
  11:Menus.cpp     ****     this->menuStateGlide          = 0;
  12:Menus.cpp     ****     this->menuStateEnv            = 0;
  13:Menus.cpp     ****     this->menuStateEnvFilter      = 0;
  14:Menus.cpp     ****     this->OscSelector             = true;
  15:Menus.cpp     ****     this->synthOn                 = 1;
  16:Menus.cpp     ****     this->synthOn2                = 1;
  17:Menus.cpp     ****     this->freqFine2               = 0;
  18:Menus.cpp     ****     this->freqFine                = 0;
  19:Menus.cpp     ****     this->analogRead              = 0;
  20:Menus.cpp     ****     this->glideTime               = 1;
  21:Menus.cpp     ****     this->circleGlideTimePosition = 10;
  22:Menus.cpp     ****     this->state                   = 1;
  23:Menus.cpp     ****     this->stateWave               = 0;
  24:Menus.cpp     ****     this->toggleState             = 1;
  25:Menus.cpp     ****     this->toggleState2            = 1;
  26:Menus.cpp     ****     this->setWave                 = 0;
  27:Menus.cpp     ****     this->setWave2                = 0;
  28:Menus.cpp     ****     this->attackTime              = 0.1f;
  29:Menus.cpp     ****     this->attackTime              = 0.5f;
  94              		.loc 2 29 35 view .LVU9
  95 0004 4FF07C5C 		mov	ip, #1056964608
  21:Menus.cpp     ****     this->state                   = 1;
  96              		.loc 2 21 35 view .LVU10
  97 0008 1549     		ldr	r1, .L6
  98              	.LBE334:
   4:Menus.cpp     **** {
  99              		.loc 2 4 1 view .LVU11
 100 000a 10B5     		push	{r4, lr}
 101              		.cfi_def_cfa_offset 8
 102              		.cfi_offset 4, -8
 103              		.cfi_offset 14, -4
 104              	.LBB341:
  23:Menus.cpp     ****     this->toggleState             = 1;
 105              		.loc 2 23 35 view .LVU12
 106 000c C0E96023 		strd	r2, r3, [r0, #384]
 107              	.LBE341:
   4:Menus.cpp     **** {
 108              		.loc 2 4 1 view .LVU13
 109 0010 0446     		mov	r4, r0
 110              	.LVL5:
 111              	.LBB342:
ARM GAS  C:\Users\VINCIU~1\AppData\Local\Temp\ccdhDWPe.s 			page 4


 112              	.LBB335:
 113              	.LBI335:
 114              		.file 3 "../../libdaisy/src/hid/encoder.h"
   1:../../libdaisy/src/hid/encoder.h **** #pragma once
   2:../../libdaisy/src/hid/encoder.h **** #ifndef DSY_ENCODER_H
   3:../../libdaisy/src/hid/encoder.h **** #define DSY_ENCODER_H
   4:../../libdaisy/src/hid/encoder.h **** #include "daisy_core.h"
   5:../../libdaisy/src/hid/encoder.h **** #include "per/gpio.h"
   6:../../libdaisy/src/hid/encoder.h **** #include "hid/switch.h"
   7:../../libdaisy/src/hid/encoder.h **** 
   8:../../libdaisy/src/hid/encoder.h **** namespace daisy
   9:../../libdaisy/src/hid/encoder.h **** {
  10:../../libdaisy/src/hid/encoder.h **** /** 
  11:../../libdaisy/src/hid/encoder.h ****     @brief Generic Class for handling Quadrature Encoders \n 
  12:../../libdaisy/src/hid/encoder.h ****     Inspired/influenced by Mutable Instruments (pichenettes) Encoder classes
  13:../../libdaisy/src/hid/encoder.h ****     @author Stephen Hensley
  14:../../libdaisy/src/hid/encoder.h ****     @date December 2019
  15:../../libdaisy/src/hid/encoder.h ****     @ingroup controls
  16:../../libdaisy/src/hid/encoder.h **** */
  17:../../libdaisy/src/hid/encoder.h **** class Encoder
  18:../../libdaisy/src/hid/encoder.h **** {
  19:../../libdaisy/src/hid/encoder.h ****   public:
  20:../../libdaisy/src/hid/encoder.h ****     Encoder() {}
 115              		.loc 3 20 5 is_stmt 1 view .LVU14
 116              	.LBB336:
 117              	.LBI336:
 118              		.file 4 "../../libdaisy/src/hid/switch.h"
   1:../../libdaisy/src/hid/switch.h **** #pragma once
   2:../../libdaisy/src/hid/switch.h **** #ifndef DSY_SWITCH_H
   3:../../libdaisy/src/hid/switch.h **** #define DSY_SWITCH_H
   4:../../libdaisy/src/hid/switch.h **** #include "daisy_core.h"
   5:../../libdaisy/src/hid/switch.h **** #include "per/gpio.h"
   6:../../libdaisy/src/hid/switch.h **** 
   7:../../libdaisy/src/hid/switch.h **** namespace daisy
   8:../../libdaisy/src/hid/switch.h **** {
   9:../../libdaisy/src/hid/switch.h **** /** 
  10:../../libdaisy/src/hid/switch.h ****     Generic Class for handling momentary/latching switches \n 
  11:../../libdaisy/src/hid/switch.h ****     Inspired/influenced by Mutable Instruments (pichenettes) Switch classes
  12:../../libdaisy/src/hid/switch.h ****     @author Stephen Hensley
  13:../../libdaisy/src/hid/switch.h ****     @date December 2019
  14:../../libdaisy/src/hid/switch.h ****     @ingroup controls
  15:../../libdaisy/src/hid/switch.h **** */
  16:../../libdaisy/src/hid/switch.h **** class Switch
  17:../../libdaisy/src/hid/switch.h **** {
  18:../../libdaisy/src/hid/switch.h ****   public:
  19:../../libdaisy/src/hid/switch.h ****     /** Specifies the expected behavior of the switch */
  20:../../libdaisy/src/hid/switch.h ****     enum Type
  21:../../libdaisy/src/hid/switch.h ****     {
  22:../../libdaisy/src/hid/switch.h ****         TYPE_TOGGLE,    /**< & */
  23:../../libdaisy/src/hid/switch.h ****         TYPE_MOMENTARY, /**< & */
  24:../../libdaisy/src/hid/switch.h ****     };
  25:../../libdaisy/src/hid/switch.h ****     /** Specifies whether the pressed is HIGH or LOW. */
  26:../../libdaisy/src/hid/switch.h ****     enum Polarity
  27:../../libdaisy/src/hid/switch.h ****     {
  28:../../libdaisy/src/hid/switch.h ****         POLARITY_NORMAL,   /**< & */
  29:../../libdaisy/src/hid/switch.h ****         POLARITY_INVERTED, /**< & */
  30:../../libdaisy/src/hid/switch.h ****     };
ARM GAS  C:\Users\VINCIU~1\AppData\Local\Temp\ccdhDWPe.s 			page 5


  31:../../libdaisy/src/hid/switch.h **** 
  32:../../libdaisy/src/hid/switch.h ****     /** Specifies whether to use built-in Pull Up/Down resistors to hold button at a given state wh
  33:../../libdaisy/src/hid/switch.h ****     enum Pull
  34:../../libdaisy/src/hid/switch.h ****     {
  35:../../libdaisy/src/hid/switch.h ****         PULL_UP,   /**< & */
  36:../../libdaisy/src/hid/switch.h ****         PULL_DOWN, /**< & */
  37:../../libdaisy/src/hid/switch.h ****         PULL_NONE, /**< & */
  38:../../libdaisy/src/hid/switch.h ****     };
  39:../../libdaisy/src/hid/switch.h **** 
  40:../../libdaisy/src/hid/switch.h ****     Switch() {}
 119              		.loc 4 40 5 view .LVU15
 120              		.loc 4 40 5 is_stmt 0 view .LVU16
 121              	.LBE336:
 122              	.LBE335:
 123              	.LBB337:
 124              	.LBI337:
 125              		.loc 3 20 5 is_stmt 1 view .LVU17
 126              	.LBB338:
 127              	.LBI338:
 128              		.loc 4 40 5 view .LVU18
 129              		.loc 4 40 5 is_stmt 0 view .LVU19
 130              	.LBE338:
 131              	.LBE337:
 132              	.LBB339:
 133              	.LBI339:
 134              		.loc 4 40 5 is_stmt 1 view .LVU20
 135              		.loc 4 40 5 is_stmt 0 view .LVU21
 136              	.LBE339:
 137              	.LBB340:
 138              	.LBI340:
 139              		.loc 4 40 5 is_stmt 1 view .LVU22
 140              		.loc 4 40 5 is_stmt 0 view .LVU23
 141              	.LBE340:
   6:Menus.cpp     ****     this->analogRead              = 0;
 142              		.loc 2 6 5 is_stmt 1 view .LVU24
   9:Menus.cpp     ****     this->menuState               = 0;
 143              		.loc 2 9 35 is_stmt 0 view .LVU25
 144 0012 0372     		strb	r3, [r0, #8]
  20:Menus.cpp     ****     this->circleGlideTimePosition = 10;
 145              		.loc 2 20 35 view .LVU26
 146 0014 4FF07E5E 		mov	lr, #1065353216
   6:Menus.cpp     ****     this->analogRead              = 0;
 147              		.loc 2 6 35 view .LVU27
 148 0018 80F8E021 		strb	r2, [r0, #480]
   7:Menus.cpp     ****     this->analogLastRead          = 0;
 149              		.loc 2 7 5 is_stmt 1 view .LVU28
  14:Menus.cpp     ****     this->synthOn                 = 1;
 150              		.loc 2 14 35 is_stmt 0 view .LVU29
 151 001c 80F87420 		strb	r2, [r0, #116]
  20:Menus.cpp     ****     this->circleGlideTimePosition = 10;
 152              		.loc 2 20 35 view .LVU30
 153 0020 C0F894E0 		str	lr, [r0, #148]	@ float
  21:Menus.cpp     ****     this->state                   = 1;
 154              		.loc 2 21 35 view .LVU31
 155 0024 C0F88C10 		str	r1, [r0, #140]	@ float
  30:Menus.cpp     ****     this->attackTimeScaleDraw     = 0.5f;
  31:Menus.cpp     ****     sprintf(this->buffPitchTime, "Time_0%%");
ARM GAS  C:\Users\VINCIU~1\AppData\Local\Temp\ccdhDWPe.s 			page 6


 156              		.loc 2 31 12 view .LVU32
 157 0028 0E49     		ldr	r1, .L6+4
  11:Menus.cpp     ****     this->menuStateEnv            = 0;
 158              		.loc 2 11 35 view .LVU33
 159 002a C0E91B33 		strd	r3, r3, [r0, #108]
  13:Menus.cpp     ****     this->OscSelector             = true;
 160              		.loc 2 13 35 view .LVU34
 161 002e C0E96B33 		strd	r3, r3, [r0, #428]
  27:Menus.cpp     ****     this->attackTime              = 0.1f;
 162              		.loc 2 27 35 view .LVU35
 163 0032 C0E96433 		strd	r3, r3, [r0, #400]
   7:Menus.cpp     ****     this->analogLastRead          = 0;
 164              		.loc 2 7 35 view .LVU36
 165 0036 0023     		movs	r3, #0
  16:Menus.cpp     ****     this->freqFine2               = 0;
 166              		.loc 2 16 35 view .LVU37
 167 0038 C0E95B22 		strd	r2, r2, [r0, #364]
  25:Menus.cpp     ****     this->setWave                 = 0;
 168              		.loc 2 25 35 view .LVU38
 169 003c C0E96222 		strd	r2, r2, [r0, #392]
  29:Menus.cpp     ****     this->attackTimeScaleDraw     = 0.5f;
 170              		.loc 2 29 35 view .LVU39
 171 0040 C4F898C1 		str	ip, [r4, #408]	@ float
 172              		.loc 2 31 12 view .LVU40
 173 0044 00F58E70 		add	r0, r0, #284
 174              	.LVL6:
  30:Menus.cpp     ****     sprintf(this->buffPitchTime, "Time_0%%");
 175              		.loc 2 30 35 view .LVU41
 176 0048 C4F8A4C1 		str	ip, [r4, #420]	@ float
   7:Menus.cpp     ****     this->analogLastRead          = 0;
 177              		.loc 2 7 35 view .LVU42
 178 004c 2360     		str	r3, [r4]	@ float
   8:Menus.cpp     ****     this->updateValue             = false;
 179              		.loc 2 8 5 is_stmt 1 view .LVU43
   8:Menus.cpp     ****     this->updateValue             = false;
 180              		.loc 2 8 35 is_stmt 0 view .LVU44
 181 004e 6360     		str	r3, [r4, #4]	@ float
   9:Menus.cpp     ****     this->menuState               = 0;
 182              		.loc 2 9 5 is_stmt 1 view .LVU45
  10:Menus.cpp     ****     this->menuStateGlide          = 0;
 183              		.loc 2 10 5 view .LVU46
  11:Menus.cpp     ****     this->menuStateEnv            = 0;
 184              		.loc 2 11 5 view .LVU47
  12:Menus.cpp     ****     this->menuStateEnvFilter      = 0;
 185              		.loc 2 12 5 view .LVU48
  13:Menus.cpp     ****     this->OscSelector             = true;
 186              		.loc 2 13 5 view .LVU49
  14:Menus.cpp     ****     this->synthOn                 = 1;
 187              		.loc 2 14 5 view .LVU50
  15:Menus.cpp     ****     this->synthOn2                = 1;
 188              		.loc 2 15 5 view .LVU51
  16:Menus.cpp     ****     this->freqFine2               = 0;
 189              		.loc 2 16 5 view .LVU52
  17:Menus.cpp     ****     this->freqFine                = 0;
 190              		.loc 2 17 5 view .LVU53
  17:Menus.cpp     ****     this->freqFine                = 0;
 191              		.loc 2 17 35 is_stmt 0 view .LVU54
ARM GAS  C:\Users\VINCIU~1\AppData\Local\Temp\ccdhDWPe.s 			page 7


 192 0050 C4F87831 		str	r3, [r4, #376]	@ float
  18:Menus.cpp     ****     this->analogRead              = 0;
 193              		.loc 2 18 5 is_stmt 1 view .LVU55
  18:Menus.cpp     ****     this->analogRead              = 0;
 194              		.loc 2 18 35 is_stmt 0 view .LVU56
 195 0054 C4F87431 		str	r3, [r4, #372]	@ float
  19:Menus.cpp     ****     this->glideTime               = 1;
 196              		.loc 2 19 5 is_stmt 1 view .LVU57
  20:Menus.cpp     ****     this->circleGlideTimePosition = 10;
 197              		.loc 2 20 5 view .LVU58
  21:Menus.cpp     ****     this->state                   = 1;
 198              		.loc 2 21 5 view .LVU59
  22:Menus.cpp     ****     this->stateWave               = 0;
 199              		.loc 2 22 5 view .LVU60
  23:Menus.cpp     ****     this->toggleState             = 1;
 200              		.loc 2 23 5 view .LVU61
  24:Menus.cpp     ****     this->toggleState2            = 1;
 201              		.loc 2 24 5 view .LVU62
  25:Menus.cpp     ****     this->setWave                 = 0;
 202              		.loc 2 25 5 view .LVU63
  26:Menus.cpp     ****     this->setWave2                = 0;
 203              		.loc 2 26 5 view .LVU64
  27:Menus.cpp     ****     this->attackTime              = 0.1f;
 204              		.loc 2 27 5 view .LVU65
  28:Menus.cpp     ****     this->attackTime              = 0.5f;
 205              		.loc 2 28 5 view .LVU66
  29:Menus.cpp     ****     this->attackTimeScaleDraw     = 0.5f;
 206              		.loc 2 29 5 view .LVU67
  30:Menus.cpp     ****     sprintf(this->buffPitchTime, "Time_0%%");
 207              		.loc 2 30 5 view .LVU68
 208              		.loc 2 31 5 view .LVU69
 209              		.loc 2 31 12 is_stmt 0 view .LVU70
 210 0058 FFF7FEFF 		bl	sprintf
 211              	.LVL7:
 212              	.LBE342:
  32:Menus.cpp     **** }
 213              		.loc 2 32 1 view .LVU71
 214 005c 2046     		mov	r0, r4
 215 005e 10BD     		pop	{r4, pc}
 216              	.LVL8:
 217              	.L7:
 218              		.loc 2 32 1 view .LVU72
 219              		.align	2
 220              	.L6:
 221 0060 00002041 		.word	1092616192
 222 0064 00000000 		.word	.LC0
 223              		.cfi_endproc
 224              	.LFE4035:
 226              		.global	_ZN5MenusC1Ev
 227              		.thumb_set _ZN5MenusC1Ev,_ZN5MenusC2Ev
 228              		.section	.text._ZN5Menus10WaveSelectEf,"ax",%progbits
 229              		.align	1
 230              		.p2align 2,,3
 231              		.global	_ZN5Menus10WaveSelectEf
 232              		.syntax unified
 233              		.thumb
 234              		.thumb_func
ARM GAS  C:\Users\VINCIU~1\AppData\Local\Temp\ccdhDWPe.s 			page 8


 235              		.fpu fpv5-d16
 237              	_ZN5Menus10WaveSelectEf:
 238              	.LVL9:
 239              	.LFB4037:
  33:Menus.cpp     **** 
  34:Menus.cpp     **** int Menus::WaveSelect(float select)
  35:Menus.cpp     **** {
 240              		.loc 2 35 1 is_stmt 1 view -0
 241              		.cfi_startproc
 242              		@ args = 0, pretend = 0, frame = 0
 243              		@ frame_needed = 0, uses_anonymous_args = 0
 244              		@ link register save eliminated.
  36:Menus.cpp     ****     this->stateWave += this->encoderRight.Increment();
 245              		.loc 2 36 5 view .LVU74
 246              		.loc 2 36 21 is_stmt 0 view .LVU75
 247 0000 D0F88431 		ldr	r3, [r0, #388]
  35:Menus.cpp     ****     this->stateWave += this->encoderRight.Increment();
 248              		.loc 2 35 1 view .LVU76
 249 0004 0246     		mov	r2, r0
 250              	.LVL10:
 251              	.LBB343:
 252              	.LBI343:
  21:../../libdaisy/src/hid/encoder.h ****     ~Encoder() {}
  22:../../libdaisy/src/hid/encoder.h **** 
  23:../../libdaisy/src/hid/encoder.h ****     /** Initializes the encoder with the specified hardware pins.
  24:../../libdaisy/src/hid/encoder.h **** */
  25:../../libdaisy/src/hid/encoder.h ****     //
  26:../../libdaisy/src/hid/encoder.h ****     /** Update rate should be the rate at which Debounce() gets called
  27:../../libdaisy/src/hid/encoder.h **** in Hertz.
  28:../../libdaisy/src/hid/encoder.h **** */
  29:../../libdaisy/src/hid/encoder.h ****     //
  30:../../libdaisy/src/hid/encoder.h ****     void
  31:../../libdaisy/src/hid/encoder.h ****     Init(dsy_gpio_pin a, dsy_gpio_pin b, dsy_gpio_pin click, float update_rate);
  32:../../libdaisy/src/hid/encoder.h ****     /** Called at update_rate to debounce and handle timing for the switch.
  33:../../libdaisy/src/hid/encoder.h **** */
  34:../../libdaisy/src/hid/encoder.h ****     //
  35:../../libdaisy/src/hid/encoder.h ****     /** In order for events not to be missed, its important that the Edge/Pressed checks
  36:../../libdaisy/src/hid/encoder.h **** be made at the same rate as the debounce function is being called.
  37:../../libdaisy/src/hid/encoder.h **** */
  38:../../libdaisy/src/hid/encoder.h ****     void Debounce();
  39:../../libdaisy/src/hid/encoder.h ****     /** Returns +1 if the encoder was turned clockwise, -1 if it was turned counter-clockwise, or 0
  40:../../libdaisy/src/hid/encoder.h **** */
  41:../../libdaisy/src/hid/encoder.h ****     inline int32_t Increment() const { return inc_; }
 253              		.loc 3 41 20 is_stmt 1 view .LVU77
 254              	.LBB344:
 255              		.loc 3 41 40 view .LVU78
 256              		.loc 3 41 40 is_stmt 0 view .LVU79
 257              	.LBE344:
 258              	.LBE343:
 259              		.loc 2 36 21 view .LVU80
 260 0006 806C     		ldr	r0, [r0, #72]
 261              	.LVL11:
 262              		.loc 2 36 21 view .LVU81
 263 0008 1844     		add	r0, r0, r3
  37:Menus.cpp     ****     int state;
 264              		.loc 2 37 5 is_stmt 1 view .LVU82
  38:Menus.cpp     ****     if(this->stateWave > 3)
ARM GAS  C:\Users\VINCIU~1\AppData\Local\Temp\ccdhDWPe.s 			page 9


 265              		.loc 2 38 5 view .LVU83
 266 000a 0328     		cmp	r0, #3
 267 000c 04DD     		ble	.L9
  39:Menus.cpp     ****     {
  40:Menus.cpp     ****         this->stateWave = 3;
 268              		.loc 2 40 9 view .LVU84
 269              		.loc 2 40 25 is_stmt 0 view .LVU85
 270 000e 0323     		movs	r3, #3
  41:Menus.cpp     ****     }
  42:Menus.cpp     ****     if(this->stateWave < 0)
  43:Menus.cpp     ****     {
  44:Menus.cpp     ****         this->stateWave = 0;
  45:Menus.cpp     ****     }
  46:Menus.cpp     **** 
  47:Menus.cpp     ****     if(this->stateWave == 0)
  48:Menus.cpp     ****     {
  49:Menus.cpp     ****         state = 0;
  50:Menus.cpp     ****         return state;
  51:Menus.cpp     ****     }
  52:Menus.cpp     ****     else if(this->stateWave == 1)
  53:Menus.cpp     ****     {
  54:Menus.cpp     ****         state = 1;
  55:Menus.cpp     ****         return state;
  56:Menus.cpp     ****     }
  57:Menus.cpp     ****     else if(this->stateWave == 2)
  58:Menus.cpp     ****     {
  59:Menus.cpp     ****         state = 2;
  60:Menus.cpp     ****         return state;
  61:Menus.cpp     ****     }
  62:Menus.cpp     ****     else if(this->stateWave == 3)
  63:Menus.cpp     ****     {
  64:Menus.cpp     ****         state = 3;
  65:Menus.cpp     ****         return state;
 271              		.loc 2 65 16 view .LVU86
 272 0010 1846     		mov	r0, r3
  40:Menus.cpp     ****     }
 273              		.loc 2 40 25 view .LVU87
 274 0012 C2F88431 		str	r3, [r2, #388]
  42:Menus.cpp     ****     {
 275              		.loc 2 42 5 is_stmt 1 view .LVU88
  47:Menus.cpp     ****     {
 276              		.loc 2 47 5 view .LVU89
  52:Menus.cpp     ****     {
 277              		.loc 2 52 10 view .LVU90
 278 0016 7047     		bx	lr
 279              	.L9:
  42:Menus.cpp     ****     {
 280              		.loc 2 42 5 view .LVU91
 281 0018 0028     		cmp	r0, #0
 282 001a 04DA     		bge	.L11
  44:Menus.cpp     ****     }
 283              		.loc 2 44 9 view .LVU92
  44:Menus.cpp     ****     }
 284              		.loc 2 44 25 is_stmt 0 view .LVU93
 285 001c 0023     		movs	r3, #0
  50:Menus.cpp     ****     }
 286              		.loc 2 50 16 view .LVU94
ARM GAS  C:\Users\VINCIU~1\AppData\Local\Temp\ccdhDWPe.s 			page 10


 287 001e 1846     		mov	r0, r3
  44:Menus.cpp     ****     }
 288              		.loc 2 44 25 view .LVU95
 289 0020 C2F88431 		str	r3, [r2, #388]
  47:Menus.cpp     ****     {
 290              		.loc 2 47 5 is_stmt 1 view .LVU96
 291 0024 7047     		bx	lr
 292              	.L11:
  36:Menus.cpp     ****     int state;
 293              		.loc 2 36 21 is_stmt 0 view .LVU97
 294 0026 C2F88401 		str	r0, [r2, #388]
  47:Menus.cpp     ****     {
 295              		.loc 2 47 5 is_stmt 1 view .LVU98
 296 002a 04D0     		beq	.L8
  52:Menus.cpp     ****     {
 297              		.loc 2 52 10 view .LVU99
 298 002c 0128     		cmp	r0, #1
 299 002e 02D0     		beq	.L8
  57:Menus.cpp     ****     {
 300              		.loc 2 57 10 view .LVU100
 301              		.loc 2 65 16 is_stmt 0 view .LVU101
 302 0030 0228     		cmp	r0, #2
 303 0032 18BF     		it	ne
 304 0034 0320     		movne	r0, #3
 305              	.L8:
  66:Menus.cpp     ****     }
  67:Menus.cpp     **** }
 306              		.loc 2 67 1 view .LVU102
 307 0036 7047     		bx	lr
 308              		.cfi_endproc
 309              	.LFE4037:
 311              		.section	.text._ZN5Menus9OscSelectEf,"ax",%progbits
 312              		.align	1
 313              		.p2align 2,,3
 314              		.global	_ZN5Menus9OscSelectEf
 315              		.syntax unified
 316              		.thumb
 317              		.thumb_func
 318              		.fpu fpv5-d16
 320              	_ZN5Menus9OscSelectEf:
 321              	.LVL12:
 322              	.LFB4038:
  68:Menus.cpp     **** 
  69:Menus.cpp     **** bool Menus::OscSelect(float select)
  70:Menus.cpp     **** {
 323              		.loc 2 70 1 is_stmt 1 view -0
 324              		.cfi_startproc
 325              		@ args = 0, pretend = 0, frame = 0
 326              		@ frame_needed = 0, uses_anonymous_args = 0
 327              		@ link register save eliminated.
  71:Menus.cpp     ****     this->state += this->encoderRight.Increment();
 328              		.loc 2 71 5 view .LVU104
 329              		.loc 2 71 17 is_stmt 0 view .LVU105
 330 0000 D0F88021 		ldr	r2, [r0, #384]
  70:Menus.cpp     ****     this->state += this->encoderRight.Increment();
 331              		.loc 2 70 1 view .LVU106
 332 0004 0346     		mov	r3, r0
ARM GAS  C:\Users\VINCIU~1\AppData\Local\Temp\ccdhDWPe.s 			page 11


 333              	.LVL13:
 334              	.LBB345:
 335              	.LBI345:
 336              		.loc 3 41 20 is_stmt 1 view .LVU107
 337              	.LBB346:
 338              		.loc 3 41 40 view .LVU108
 339              		.loc 3 41 40 is_stmt 0 view .LVU109
 340              	.LBE346:
 341              	.LBE345:
 342              		.loc 2 71 17 view .LVU110
 343 0006 816C     		ldr	r1, [r0, #72]
 344 0008 0A44     		add	r2, r2, r1
  72:Menus.cpp     ****     if(this->state > 1)
 345              		.loc 2 72 5 is_stmt 1 view .LVU111
 346 000a 012A     		cmp	r2, #1
 347 000c 04DD     		ble	.L21
 348              	.L17:
  73:Menus.cpp     ****     {
  74:Menus.cpp     ****         this->state = 1;
  75:Menus.cpp     ****     }
  76:Menus.cpp     ****     if(this->state < 0)
  77:Menus.cpp     ****     {
  78:Menus.cpp     ****         this->state = 0;
  79:Menus.cpp     ****     }
  80:Menus.cpp     **** 
  81:Menus.cpp     **** 
  82:Menus.cpp     ****     if(this->state == 1)
  83:Menus.cpp     ****     {
  84:Menus.cpp     ****         state = true;
 349              		.loc 2 84 15 is_stmt 0 view .LVU112
 350 000e 0122     		movs	r2, #1
  85:Menus.cpp     ****         return state;
 351              		.loc 2 85 16 view .LVU113
 352 0010 1046     		mov	r0, r2
 353              	.LVL14:
 354              		.loc 2 85 16 view .LVU114
 355 0012 C3F88021 		str	r2, [r3, #384]
  86:Menus.cpp     ****     }
  87:Menus.cpp     ****     else
  88:Menus.cpp     ****     {
  89:Menus.cpp     ****         state = false;
  90:Menus.cpp     ****         return state;
  91:Menus.cpp     ****     }
  92:Menus.cpp     **** }
 356              		.loc 2 92 1 view .LVU115
 357 0016 7047     		bx	lr
 358              	.LVL15:
 359              	.L21:
  76:Menus.cpp     ****     {
 360              		.loc 2 76 5 is_stmt 1 view .LVU116
 361 0018 002A     		cmp	r2, #0
 362 001a 04DA     		bge	.L22
 363              	.L20:
  89:Menus.cpp     ****         return state;
 364              		.loc 2 89 15 is_stmt 0 view .LVU117
 365 001c 0022     		movs	r2, #0
  90:Menus.cpp     ****     }
ARM GAS  C:\Users\VINCIU~1\AppData\Local\Temp\ccdhDWPe.s 			page 12


 366              		.loc 2 90 16 view .LVU118
 367 001e 1046     		mov	r0, r2
 368              	.LVL16:
  90:Menus.cpp     ****     }
 369              		.loc 2 90 16 view .LVU119
 370 0020 C3F88021 		str	r2, [r3, #384]
 371              		.loc 2 92 1 view .LVU120
 372 0024 7047     		bx	lr
 373              	.LVL17:
 374              	.L22:
  82:Menus.cpp     ****     {
 375              		.loc 2 82 5 view .LVU121
 376 0026 012A     		cmp	r2, #1
  71:Menus.cpp     ****     if(this->state > 1)
 377              		.loc 2 71 17 view .LVU122
 378 0028 C0F88021 		str	r2, [r0, #384]
  82:Menus.cpp     ****     {
 379              		.loc 2 82 5 is_stmt 1 view .LVU123
 380 002c EFD0     		beq	.L17
 381 002e F5E7     		b	.L20
 382              		.cfi_endproc
 383              	.LFE4038:
 385              		.section	.text._ZN5daisy25OneBitGraphicsDisplayImplINS_11OledDisplayINS_13SSD130xDriverILj128ELj64
 386              		.align	1
 387              		.p2align 2,,3
 388              		.weak	_ZN5daisy25OneBitGraphicsDisplayImplINS_11OledDisplayINS_13SSD130xDriverILj128ELj64ENS_24SSD
 389              		.syntax unified
 390              		.thumb
 391              		.thumb_func
 392              		.fpu fpv5-d16
 394              	_ZN5daisy25OneBitGraphicsDisplayImplINS_11OledDisplayINS_13SSD130xDriverILj128ELj64ENS_24SSD130x4Wi
 395              	.LVL18:
 396              	.LFB4338:
 397              		.file 5 "../../libdaisy/src/hid/disp/display.h"
   1:../../libdaisy/src/hid/disp/display.h **** #pragma once
   2:../../libdaisy/src/hid/disp/display.h **** #ifndef DSY_DISPLAY_H
   3:../../libdaisy/src/hid/disp/display.h **** #define DSY_DISPLAY_H /**< Macro */
   4:../../libdaisy/src/hid/disp/display.h **** #include <cmath>
   5:../../libdaisy/src/hid/disp/display.h **** #include "util/oled_fonts.h"
   6:../../libdaisy/src/hid/disp/display.h **** #include "daisy_core.h"
   7:../../libdaisy/src/hid/disp/display.h **** 
   8:../../libdaisy/src/hid/disp/display.h **** #ifndef deg2rad
   9:../../libdaisy/src/hid/disp/display.h **** #define deg2rad(deg) ((deg)*3.141592 / 180.0)
  10:../../libdaisy/src/hid/disp/display.h **** #endif
  11:../../libdaisy/src/hid/disp/display.h **** 
  12:../../libdaisy/src/hid/disp/display.h **** namespace daisy
  13:../../libdaisy/src/hid/disp/display.h **** {
  14:../../libdaisy/src/hid/disp/display.h **** /** 
  15:../../libdaisy/src/hid/disp/display.h ****  * This interface is used as a base class for all types of 1bit-per-pixel
  16:../../libdaisy/src/hid/disp/display.h ****  * graphics displays.
  17:../../libdaisy/src/hid/disp/display.h **** */
  18:../../libdaisy/src/hid/disp/display.h **** class OneBitGraphicsDisplay
  19:../../libdaisy/src/hid/disp/display.h **** {
  20:../../libdaisy/src/hid/disp/display.h ****   public:
  21:../../libdaisy/src/hid/disp/display.h ****     OneBitGraphicsDisplay() {}
  22:../../libdaisy/src/hid/disp/display.h ****     virtual ~OneBitGraphicsDisplay() {}
  23:../../libdaisy/src/hid/disp/display.h **** 
ARM GAS  C:\Users\VINCIU~1\AppData\Local\Temp\ccdhDWPe.s 			page 13


  24:../../libdaisy/src/hid/disp/display.h ****     virtual uint16_t Height() const = 0;
  25:../../libdaisy/src/hid/disp/display.h ****     virtual uint16_t Width() const  = 0;
  26:../../libdaisy/src/hid/disp/display.h **** 
  27:../../libdaisy/src/hid/disp/display.h ****     size_t CurrentX() { return currentX_; };
  28:../../libdaisy/src/hid/disp/display.h ****     size_t CurrentY() { return currentY_; };
  29:../../libdaisy/src/hid/disp/display.h **** 
  30:../../libdaisy/src/hid/disp/display.h ****     /** 
  31:../../libdaisy/src/hid/disp/display.h ****     Fills the entire display with either on/off.
  32:../../libdaisy/src/hid/disp/display.h ****     \param on Sets on or off.
  33:../../libdaisy/src/hid/disp/display.h ****     */
  34:../../libdaisy/src/hid/disp/display.h ****     virtual void Fill(bool on) = 0;
  35:../../libdaisy/src/hid/disp/display.h **** 
  36:../../libdaisy/src/hid/disp/display.h ****     /**
  37:../../libdaisy/src/hid/disp/display.h ****     Sets the pixel at the specified coordinate to be on/off.
  38:../../libdaisy/src/hid/disp/display.h ****     \param x   x Coordinate
  39:../../libdaisy/src/hid/disp/display.h ****     \param y   y coordinate
  40:../../libdaisy/src/hid/disp/display.h ****     \param on  on or off
  41:../../libdaisy/src/hid/disp/display.h ****     */
  42:../../libdaisy/src/hid/disp/display.h ****     virtual void DrawPixel(uint_fast8_t x, uint_fast8_t y, bool on) = 0;
  43:../../libdaisy/src/hid/disp/display.h **** 
  44:../../libdaisy/src/hid/disp/display.h ****     /**
  45:../../libdaisy/src/hid/disp/display.h ****     Draws a line from (x1, y1) to (y1, y2)
  46:../../libdaisy/src/hid/disp/display.h ****     \param x1  x Coordinate of the starting point
  47:../../libdaisy/src/hid/disp/display.h ****     \param y1  y Coordinate of the starting point
  48:../../libdaisy/src/hid/disp/display.h ****     \param x2  x Coordinate of the ending point
  49:../../libdaisy/src/hid/disp/display.h ****     \param y2  y Coordinate of the ending point
  50:../../libdaisy/src/hid/disp/display.h ****     \param on  on or off
  51:../../libdaisy/src/hid/disp/display.h ****     */
  52:../../libdaisy/src/hid/disp/display.h ****     virtual void DrawLine(uint_fast8_t x1,
  53:../../libdaisy/src/hid/disp/display.h ****                           uint_fast8_t y1,
  54:../../libdaisy/src/hid/disp/display.h ****                           uint_fast8_t x2,
  55:../../libdaisy/src/hid/disp/display.h ****                           uint_fast8_t y2,
  56:../../libdaisy/src/hid/disp/display.h ****                           bool         on)
  57:../../libdaisy/src/hid/disp/display.h ****         = 0;
  58:../../libdaisy/src/hid/disp/display.h **** 
  59:../../libdaisy/src/hid/disp/display.h ****     /**
  60:../../libdaisy/src/hid/disp/display.h ****     Draws a rectangle based on two coordinates.
  61:../../libdaisy/src/hid/disp/display.h ****     \param x1 x Coordinate of the first point
  62:../../libdaisy/src/hid/disp/display.h ****     \param y1 y Coordinate of the first point
  63:../../libdaisy/src/hid/disp/display.h ****     \param x2 x Coordinate of the second point
  64:../../libdaisy/src/hid/disp/display.h ****     \param y2 y Coordinate of the second point
  65:../../libdaisy/src/hid/disp/display.h ****     \param on on or off
  66:../../libdaisy/src/hid/disp/display.h ****     */
  67:../../libdaisy/src/hid/disp/display.h ****     virtual void DrawRect(uint_fast8_t x1,
  68:../../libdaisy/src/hid/disp/display.h ****                           uint_fast8_t y1,
  69:../../libdaisy/src/hid/disp/display.h ****                           uint_fast8_t x2,
  70:../../libdaisy/src/hid/disp/display.h ****                           uint_fast8_t y2,
  71:../../libdaisy/src/hid/disp/display.h ****                           bool         on,
  72:../../libdaisy/src/hid/disp/display.h ****                           bool         fill = false)
  73:../../libdaisy/src/hid/disp/display.h ****         = 0;
  74:../../libdaisy/src/hid/disp/display.h **** 
  75:../../libdaisy/src/hid/disp/display.h ****     /**
  76:../../libdaisy/src/hid/disp/display.h ****     Draws an arc around the specified coordinate
  77:../../libdaisy/src/hid/disp/display.h ****     \param x           x Coordinate of the center of the arc
  78:../../libdaisy/src/hid/disp/display.h ****     \param y           y Coordinate of the center of the arc
  79:../../libdaisy/src/hid/disp/display.h ****     \param radius      radius of the arc
  80:../../libdaisy/src/hid/disp/display.h ****     \param start_angle angle where to start the arc
ARM GAS  C:\Users\VINCIU~1\AppData\Local\Temp\ccdhDWPe.s 			page 14


  81:../../libdaisy/src/hid/disp/display.h ****     \param sweep       total angle of the arc
  82:../../libdaisy/src/hid/disp/display.h ****     \param on  on or off
  83:../../libdaisy/src/hid/disp/display.h ****     */
  84:../../libdaisy/src/hid/disp/display.h ****     virtual void DrawArc(uint_fast8_t x,
  85:../../libdaisy/src/hid/disp/display.h ****                          uint_fast8_t y,
  86:../../libdaisy/src/hid/disp/display.h ****                          uint_fast8_t radius,
  87:../../libdaisy/src/hid/disp/display.h ****                          int_fast16_t start_angle,
  88:../../libdaisy/src/hid/disp/display.h ****                          int_fast16_t sweep,
  89:../../libdaisy/src/hid/disp/display.h ****                          bool         on)
  90:../../libdaisy/src/hid/disp/display.h ****         = 0;
  91:../../libdaisy/src/hid/disp/display.h **** 
  92:../../libdaisy/src/hid/disp/display.h ****     /**
  93:../../libdaisy/src/hid/disp/display.h ****     Draws a circle around the specified coordinate
  94:../../libdaisy/src/hid/disp/display.h ****     \param x           x Coordinate of the center of the circle
  95:../../libdaisy/src/hid/disp/display.h ****     \param y           y Coordinate of the center of the circle
  96:../../libdaisy/src/hid/disp/display.h ****     \param radius      radius of the circle
  97:../../libdaisy/src/hid/disp/display.h ****     \param on  on or off
  98:../../libdaisy/src/hid/disp/display.h ****     */
  99:../../libdaisy/src/hid/disp/display.h ****     void
 100:../../libdaisy/src/hid/disp/display.h ****     DrawCircle(uint_fast8_t x, uint_fast8_t y, uint_fast8_t radius, bool on)
 101:../../libdaisy/src/hid/disp/display.h ****     {
 102:../../libdaisy/src/hid/disp/display.h ****         DrawArc(x, y, radius, 0, 360, on);
 103:../../libdaisy/src/hid/disp/display.h ****     };
 104:../../libdaisy/src/hid/disp/display.h **** 
 105:../../libdaisy/src/hid/disp/display.h ****     /** 
 106:../../libdaisy/src/hid/disp/display.h ****     Writes the character with the specific FontDef
 107:../../libdaisy/src/hid/disp/display.h ****     to the display buffer at the current Cursor position.
 108:../../libdaisy/src/hid/disp/display.h ****     \param ch character to be written
 109:../../libdaisy/src/hid/disp/display.h ****     \param font font to be written in
 110:../../libdaisy/src/hid/disp/display.h ****     \param on    on or off
 111:../../libdaisy/src/hid/disp/display.h ****     \return &
 112:../../libdaisy/src/hid/disp/display.h ****     */
 113:../../libdaisy/src/hid/disp/display.h ****     virtual char WriteChar(char ch, FontDef font, bool on) = 0;
 114:../../libdaisy/src/hid/disp/display.h **** 
 115:../../libdaisy/src/hid/disp/display.h ****     /** 
 116:../../libdaisy/src/hid/disp/display.h ****     Similar to WriteChar, except it will handle an entire String.
 117:../../libdaisy/src/hid/disp/display.h ****     Wrapping does not happen automatically, so the width
 118:../../libdaisy/src/hid/disp/display.h ****     of the string must be kept within the dimensions of the screen.
 119:../../libdaisy/src/hid/disp/display.h ****     \param str string to be written
 120:../../libdaisy/src/hid/disp/display.h ****     \param font font to use
 121:../../libdaisy/src/hid/disp/display.h ****     \param on  on or off
 122:../../libdaisy/src/hid/disp/display.h ****     \return &
 123:../../libdaisy/src/hid/disp/display.h ****     */
 124:../../libdaisy/src/hid/disp/display.h ****     virtual char WriteString(const char* str, FontDef font, bool on) = 0;
 125:../../libdaisy/src/hid/disp/display.h **** 
 126:../../libdaisy/src/hid/disp/display.h ****     /** 
 127:../../libdaisy/src/hid/disp/display.h ****     Moves the 'Cursor' position used for WriteChar, and WriteStr to the specified coordinate.
 128:../../libdaisy/src/hid/disp/display.h ****     \param x x pos
 129:../../libdaisy/src/hid/disp/display.h ****     \param y y pos
 130:../../libdaisy/src/hid/disp/display.h ****     */
 131:../../libdaisy/src/hid/disp/display.h ****     void SetCursor(uint16_t x, uint16_t y)
 132:../../libdaisy/src/hid/disp/display.h ****     {
 133:../../libdaisy/src/hid/disp/display.h ****         currentX_ = (x >= Width()) ? Width() - 1 : x;
 134:../../libdaisy/src/hid/disp/display.h ****         currentY_ = (y >= Height()) ? Height() - 1 : y;
 135:../../libdaisy/src/hid/disp/display.h ****     }
 136:../../libdaisy/src/hid/disp/display.h **** 
 137:../../libdaisy/src/hid/disp/display.h ****     /** 
ARM GAS  C:\Users\VINCIU~1\AppData\Local\Temp\ccdhDWPe.s 			page 15


 138:../../libdaisy/src/hid/disp/display.h ****     Writes the current display buffer to the OLED device using SPI or I2C depending on 
 139:../../libdaisy/src/hid/disp/display.h ****     how the object was initialized.
 140:../../libdaisy/src/hid/disp/display.h ****     */
 141:../../libdaisy/src/hid/disp/display.h ****     virtual void Update() = 0;
 142:../../libdaisy/src/hid/disp/display.h **** 
 143:../../libdaisy/src/hid/disp/display.h ****   protected:
 144:../../libdaisy/src/hid/disp/display.h ****     uint16_t currentX_;
 145:../../libdaisy/src/hid/disp/display.h ****     uint16_t currentY_;
 146:../../libdaisy/src/hid/disp/display.h **** };
 147:../../libdaisy/src/hid/disp/display.h **** 
 148:../../libdaisy/src/hid/disp/display.h **** /** This class is intended as a intermediary class for your actual implementation of the OneBitGrap
 149:../../libdaisy/src/hid/disp/display.h ****  *  interface. It uses the CRTP design pattern where the template argument is the child class. It p
 150:../../libdaisy/src/hid/disp/display.h ****  *  implementations for most of the functions, except DrawPixel(), Update() and Fill(), which you'l
 151:../../libdaisy/src/hid/disp/display.h ****  *  to provide in your child class.
 152:../../libdaisy/src/hid/disp/display.h ****  *  The main goal of this class is to provide common drawing functions without relying on massive a
 153:../../libdaisy/src/hid/disp/display.h ****  *  virtual function calls that would result in a performance loss. To achieve this, any drawing fu
 154:../../libdaisy/src/hid/disp/display.h ****  *  is implemented here and internally calls other drawing functions (e.g. DrawRect() which interna
 155:../../libdaisy/src/hid/disp/display.h ****  *  DrawPixel() and DrawLine()) makes these calls via the qualified name of these functions to expl
 156:../../libdaisy/src/hid/disp/display.h ****  *  suppress the virtual dispatch mechanism like this:
 157:../../libdaisy/src/hid/disp/display.h ****  * 
 158:../../libdaisy/src/hid/disp/display.h ****  *      ChildType::DrawPixel(...); // no virtual function call; direct call into the child class fu
 159:../../libdaisy/src/hid/disp/display.h ****  *  
 160:../../libdaisy/src/hid/disp/display.h ****  *  To create a custom OneBitGraphicsDisplay implementation, you can 
 161:../../libdaisy/src/hid/disp/display.h ****  *  A) inherit from OneBitGraphicsDisplay directly and provide all the drawing functions yourself
 162:../../libdaisy/src/hid/disp/display.h ****  *  B) Inherit from OneBitGraphicsDisplayImpl and only provide DrawPixel(), Fill() and Update()
 163:../../libdaisy/src/hid/disp/display.h ****  *     like this:
 164:../../libdaisy/src/hid/disp/display.h ****  *  
 165:../../libdaisy/src/hid/disp/display.h ****  *      class MyDisplayClass : public OneBitGraphicsDisplayImpl<MyDisplayClass> 
 166:../../libdaisy/src/hid/disp/display.h ****  *      {
 167:../../libdaisy/src/hid/disp/display.h ****  *      public:
 168:../../libdaisy/src/hid/disp/display.h ****  *          void Fill() override { ... };
 169:../../libdaisy/src/hid/disp/display.h ****  *          void DrawPixel(uint_fast8_t x, uint_fast8_t y, bool on) override { ... };
 170:../../libdaisy/src/hid/disp/display.h ****  *          void Update() override { ... }
 171:../../libdaisy/src/hid/disp/display.h ****  *      };
 172:../../libdaisy/src/hid/disp/display.h ****  *  
 173:../../libdaisy/src/hid/disp/display.h ****  */
 174:../../libdaisy/src/hid/disp/display.h **** template <class ChildType>
 175:../../libdaisy/src/hid/disp/display.h **** class OneBitGraphicsDisplayImpl : public OneBitGraphicsDisplay
 176:../../libdaisy/src/hid/disp/display.h **** {
 177:../../libdaisy/src/hid/disp/display.h ****   public:
 178:../../libdaisy/src/hid/disp/display.h ****     OneBitGraphicsDisplayImpl() {}
 179:../../libdaisy/src/hid/disp/display.h ****     virtual ~OneBitGraphicsDisplayImpl() {}
 180:../../libdaisy/src/hid/disp/display.h **** 
 181:../../libdaisy/src/hid/disp/display.h ****     void DrawLine(uint_fast8_t x1,
 182:../../libdaisy/src/hid/disp/display.h ****                   uint_fast8_t y1,
 183:../../libdaisy/src/hid/disp/display.h ****                   uint_fast8_t x2,
 184:../../libdaisy/src/hid/disp/display.h ****                   uint_fast8_t y2,
 185:../../libdaisy/src/hid/disp/display.h ****                   bool         on) override
 186:../../libdaisy/src/hid/disp/display.h ****     {
 187:../../libdaisy/src/hid/disp/display.h ****         int_fast16_t deltaX = abs((int_fast16_t)x2 - (int_fast16_t)x1);
 188:../../libdaisy/src/hid/disp/display.h ****         int_fast16_t deltaY = abs((int_fast16_t)y2 - (int_fast16_t)y1);
 189:../../libdaisy/src/hid/disp/display.h ****         int_fast16_t signX  = ((x1 < x2) ? 1 : -1);
 190:../../libdaisy/src/hid/disp/display.h ****         int_fast16_t signY  = ((y1 < y2) ? 1 : -1);
 191:../../libdaisy/src/hid/disp/display.h ****         int_fast16_t error  = deltaX - deltaY;
 192:../../libdaisy/src/hid/disp/display.h ****         int_fast16_t error2;
 193:../../libdaisy/src/hid/disp/display.h **** 
 194:../../libdaisy/src/hid/disp/display.h ****         // If we write "ChildType::DrawPixel(x2, y2, on);", we end up with
ARM GAS  C:\Users\VINCIU~1\AppData\Local\Temp\ccdhDWPe.s 			page 16


 195:../../libdaisy/src/hid/disp/display.h ****         // all sorts of weird compiler errors when the Child class is a template
 196:../../libdaisy/src/hid/disp/display.h ****         // class. The only way around this is to use this very verbose syntax:
 197:../../libdaisy/src/hid/disp/display.h ****         ((ChildType*)(this))->ChildType::DrawPixel(x2, y2, on);
 198:../../libdaisy/src/hid/disp/display.h **** 
 199:../../libdaisy/src/hid/disp/display.h ****         while((x1 != x2) || (y1 != y2))
 200:../../libdaisy/src/hid/disp/display.h ****         {
 201:../../libdaisy/src/hid/disp/display.h ****             ((ChildType*)(this))->ChildType::DrawPixel(x1, y1, on);
 202:../../libdaisy/src/hid/disp/display.h ****             error2 = error * 2;
 203:../../libdaisy/src/hid/disp/display.h ****             if(error2 > -deltaY)
 204:../../libdaisy/src/hid/disp/display.h ****             {
 205:../../libdaisy/src/hid/disp/display.h ****                 error -= deltaY;
 206:../../libdaisy/src/hid/disp/display.h ****                 x1 += signX;
 207:../../libdaisy/src/hid/disp/display.h ****             }
 208:../../libdaisy/src/hid/disp/display.h **** 
 209:../../libdaisy/src/hid/disp/display.h ****             if(error2 < deltaX)
 210:../../libdaisy/src/hid/disp/display.h ****             {
 211:../../libdaisy/src/hid/disp/display.h ****                 error += deltaX;
 212:../../libdaisy/src/hid/disp/display.h ****                 y1 += signY;
 213:../../libdaisy/src/hid/disp/display.h ****             }
 214:../../libdaisy/src/hid/disp/display.h ****         }
 215:../../libdaisy/src/hid/disp/display.h ****     }
 216:../../libdaisy/src/hid/disp/display.h **** 
 217:../../libdaisy/src/hid/disp/display.h ****     void DrawRect(uint_fast8_t x1,
 218:../../libdaisy/src/hid/disp/display.h ****                   uint_fast8_t y1,
 219:../../libdaisy/src/hid/disp/display.h ****                   uint_fast8_t x2,
 220:../../libdaisy/src/hid/disp/display.h ****                   uint_fast8_t y2,
 221:../../libdaisy/src/hid/disp/display.h ****                   bool         on,
 222:../../libdaisy/src/hid/disp/display.h ****                   bool         fill = false) override
 223:../../libdaisy/src/hid/disp/display.h ****     {
 224:../../libdaisy/src/hid/disp/display.h ****         if(fill)
 225:../../libdaisy/src/hid/disp/display.h ****         {
 226:../../libdaisy/src/hid/disp/display.h ****             for(uint_fast8_t x = x1; x <= x2; x++)
 227:../../libdaisy/src/hid/disp/display.h ****             {
 228:../../libdaisy/src/hid/disp/display.h ****                 for(uint_fast8_t y = y1; y <= y2; y++)
 229:../../libdaisy/src/hid/disp/display.h ****                 {
 230:../../libdaisy/src/hid/disp/display.h ****                     ((ChildType*)(this))->ChildType::DrawPixel(x, y, on);
 231:../../libdaisy/src/hid/disp/display.h ****                 }
 232:../../libdaisy/src/hid/disp/display.h ****             }
 233:../../libdaisy/src/hid/disp/display.h ****         }
 234:../../libdaisy/src/hid/disp/display.h ****         else
 235:../../libdaisy/src/hid/disp/display.h ****         {
 236:../../libdaisy/src/hid/disp/display.h ****             ((ChildType*)(this))->ChildType::DrawLine(x1, y1, x2, y1, on);
 237:../../libdaisy/src/hid/disp/display.h ****             ((ChildType*)(this))->ChildType::DrawLine(x2, y1, x2, y2, on);
 238:../../libdaisy/src/hid/disp/display.h ****             ((ChildType*)(this))->ChildType::DrawLine(x2, y2, x1, y2, on);
 239:../../libdaisy/src/hid/disp/display.h ****             ((ChildType*)(this))->ChildType::DrawLine(x1, y2, x1, y1, on);
 240:../../libdaisy/src/hid/disp/display.h ****         }
 241:../../libdaisy/src/hid/disp/display.h ****     }
 242:../../libdaisy/src/hid/disp/display.h **** 
 243:../../libdaisy/src/hid/disp/display.h ****     void DrawArc(uint_fast8_t x,
 244:../../libdaisy/src/hid/disp/display.h ****                  uint_fast8_t y,
 245:../../libdaisy/src/hid/disp/display.h ****                  uint_fast8_t radius,
 246:../../libdaisy/src/hid/disp/display.h ****                  int_fast16_t start_angle,
 247:../../libdaisy/src/hid/disp/display.h ****                  int_fast16_t sweep,
 248:../../libdaisy/src/hid/disp/display.h ****                  bool         on) override
 249:../../libdaisy/src/hid/disp/display.h ****     {
 250:../../libdaisy/src/hid/disp/display.h ****         // Values to calculate the circle
 251:../../libdaisy/src/hid/disp/display.h ****         int_fast16_t t_x, t_y, err, e2;
ARM GAS  C:\Users\VINCIU~1\AppData\Local\Temp\ccdhDWPe.s 			page 17


 252:../../libdaisy/src/hid/disp/display.h **** 
 253:../../libdaisy/src/hid/disp/display.h ****         // Temporary values to speed up comparisons
 254:../../libdaisy/src/hid/disp/display.h ****         float t_sxy, t_syx, t_sxny, t_synx;
 255:../../libdaisy/src/hid/disp/display.h ****         float t_exy, t_eyx, t_exny, t_eynx;
 256:../../libdaisy/src/hid/disp/display.h **** 
 257:../../libdaisy/src/hid/disp/display.h ****         float start_angle_rad, end_angle_rad;
 258:../../libdaisy/src/hid/disp/display.h ****         float start_x, start_y, end_x, end_y;
 259:../../libdaisy/src/hid/disp/display.h **** 
 260:../../libdaisy/src/hid/disp/display.h ****         bool d1, d2, d3, d4;
 261:../../libdaisy/src/hid/disp/display.h **** 
 262:../../libdaisy/src/hid/disp/display.h ****         d1 = d2 = d3 = d4 = true;
 263:../../libdaisy/src/hid/disp/display.h **** 
 264:../../libdaisy/src/hid/disp/display.h ****         bool circle = false;
 265:../../libdaisy/src/hid/disp/display.h **** 
 266:../../libdaisy/src/hid/disp/display.h ****         if(sweep < 0)
 267:../../libdaisy/src/hid/disp/display.h ****         {
 268:../../libdaisy/src/hid/disp/display.h ****             start_angle += sweep;
 269:../../libdaisy/src/hid/disp/display.h ****             sweep = -sweep;
 270:../../libdaisy/src/hid/disp/display.h ****         }
 271:../../libdaisy/src/hid/disp/display.h **** 
 272:../../libdaisy/src/hid/disp/display.h ****         start_angle_rad = deg2rad(start_angle);
 273:../../libdaisy/src/hid/disp/display.h ****         end_angle_rad   = deg2rad(start_angle + sweep);
 274:../../libdaisy/src/hid/disp/display.h **** 
 275:../../libdaisy/src/hid/disp/display.h ****         start_x = cos(start_angle_rad) * radius;
 276:../../libdaisy/src/hid/disp/display.h ****         start_y = -sin(start_angle_rad) * radius;
 277:../../libdaisy/src/hid/disp/display.h ****         end_x   = cos(end_angle_rad) * radius;
 278:../../libdaisy/src/hid/disp/display.h ****         end_y   = -sin(end_angle_rad) * radius;
 279:../../libdaisy/src/hid/disp/display.h **** 
 280:../../libdaisy/src/hid/disp/display.h ****         // Check if start and endpoint are very near
 281:../../libdaisy/src/hid/disp/display.h ****         if((end_x - start_x) * (end_x - start_x)
 282:../../libdaisy/src/hid/disp/display.h ****                + (end_y - start_y) * (end_y - start_y)
 283:../../libdaisy/src/hid/disp/display.h ****            < 2.0f)
 284:../../libdaisy/src/hid/disp/display.h ****         {
 285:../../libdaisy/src/hid/disp/display.h ****             if(sweep > 180)
 286:../../libdaisy/src/hid/disp/display.h ****                 circle = true;
 287:../../libdaisy/src/hid/disp/display.h ****             else
 288:../../libdaisy/src/hid/disp/display.h ****                 // Nothing to draw
 289:../../libdaisy/src/hid/disp/display.h ****                 return;
 290:../../libdaisy/src/hid/disp/display.h ****         }
 291:../../libdaisy/src/hid/disp/display.h **** 
 292:../../libdaisy/src/hid/disp/display.h ****         t_x = -radius;
 293:../../libdaisy/src/hid/disp/display.h ****         t_y = 0;
 294:../../libdaisy/src/hid/disp/display.h ****         err = 2 - 2 * radius;
 295:../../libdaisy/src/hid/disp/display.h **** 
 296:../../libdaisy/src/hid/disp/display.h ****         do
 297:../../libdaisy/src/hid/disp/display.h ****         {
 298:../../libdaisy/src/hid/disp/display.h ****             if(!circle)
 299:../../libdaisy/src/hid/disp/display.h ****             {
 300:../../libdaisy/src/hid/disp/display.h ****                 t_sxy  = start_x * t_y;
 301:../../libdaisy/src/hid/disp/display.h ****                 t_syx  = start_y * t_x;
 302:../../libdaisy/src/hid/disp/display.h ****                 t_sxny = start_x * -t_y;
 303:../../libdaisy/src/hid/disp/display.h ****                 t_synx = start_y * -t_x;
 304:../../libdaisy/src/hid/disp/display.h ****                 t_exy  = end_x * t_y;
 305:../../libdaisy/src/hid/disp/display.h ****                 t_eyx  = end_y * t_x;
 306:../../libdaisy/src/hid/disp/display.h ****                 t_exny = end_x * -t_y;
 307:../../libdaisy/src/hid/disp/display.h ****                 t_eynx = end_y * -t_x;
 308:../../libdaisy/src/hid/disp/display.h **** 
ARM GAS  C:\Users\VINCIU~1\AppData\Local\Temp\ccdhDWPe.s 			page 18


 309:../../libdaisy/src/hid/disp/display.h ****                 if(sweep > 180)
 310:../../libdaisy/src/hid/disp/display.h ****                 {
 311:../../libdaisy/src/hid/disp/display.h ****                     d1 = (t_sxy - t_synx < 0 || t_exy - t_eynx > 0);
 312:../../libdaisy/src/hid/disp/display.h ****                     d2 = (t_sxy - t_syx < 0 || t_exy - t_eyx > 0);
 313:../../libdaisy/src/hid/disp/display.h ****                     d3 = (t_sxny - t_syx < 0 || t_exny - t_eyx > 0);
 314:../../libdaisy/src/hid/disp/display.h ****                     d4 = (t_sxny - t_synx < 0 || t_exny - t_eynx > 0);
 315:../../libdaisy/src/hid/disp/display.h ****                 }
 316:../../libdaisy/src/hid/disp/display.h ****                 else
 317:../../libdaisy/src/hid/disp/display.h ****                 {
 318:../../libdaisy/src/hid/disp/display.h ****                     d1 = (t_sxy - t_synx < 0 && t_exy - t_eynx > 0);
 319:../../libdaisy/src/hid/disp/display.h ****                     d2 = (t_sxy - t_syx < 0 && t_exy - t_eyx > 0);
 320:../../libdaisy/src/hid/disp/display.h ****                     d3 = (t_sxny - t_syx < 0 && t_exny - t_eyx > 0);
 321:../../libdaisy/src/hid/disp/display.h ****                     d4 = (t_sxny - t_synx < 0 && t_exny - t_eynx > 0);
 322:../../libdaisy/src/hid/disp/display.h ****                 }
 323:../../libdaisy/src/hid/disp/display.h ****             }
 324:../../libdaisy/src/hid/disp/display.h **** 
 325:../../libdaisy/src/hid/disp/display.h ****             if(d1)
 326:../../libdaisy/src/hid/disp/display.h ****                 ((ChildType*)(this))
 327:../../libdaisy/src/hid/disp/display.h ****                     ->ChildType::DrawPixel(x - t_x, y + t_y, on);
 328:../../libdaisy/src/hid/disp/display.h ****             if(d2)
 329:../../libdaisy/src/hid/disp/display.h ****                 ((ChildType*)(this))
 330:../../libdaisy/src/hid/disp/display.h ****                     ->ChildType::DrawPixel(x + t_x, y + t_y, on);
 331:../../libdaisy/src/hid/disp/display.h ****             if(d3)
 332:../../libdaisy/src/hid/disp/display.h ****                 ((ChildType*)(this))
 333:../../libdaisy/src/hid/disp/display.h ****                     ->ChildType::DrawPixel(x + t_x, y - t_y, on);
 334:../../libdaisy/src/hid/disp/display.h ****             if(d4)
 335:../../libdaisy/src/hid/disp/display.h ****                 ((ChildType*)(this))
 336:../../libdaisy/src/hid/disp/display.h ****                     ->ChildType::DrawPixel(x - t_x, y - t_y, on);
 337:../../libdaisy/src/hid/disp/display.h **** 
 338:../../libdaisy/src/hid/disp/display.h ****             e2 = err;
 339:../../libdaisy/src/hid/disp/display.h ****             if(e2 <= t_y)
 340:../../libdaisy/src/hid/disp/display.h ****             {
 341:../../libdaisy/src/hid/disp/display.h ****                 t_y++;
 342:../../libdaisy/src/hid/disp/display.h ****                 err = err + (t_y * 2 + 1);
 343:../../libdaisy/src/hid/disp/display.h ****                 if(-t_x == t_y && e2 <= t_x)
 344:../../libdaisy/src/hid/disp/display.h ****                 {
 345:../../libdaisy/src/hid/disp/display.h ****                     e2 = 0;
 346:../../libdaisy/src/hid/disp/display.h ****                 }
 347:../../libdaisy/src/hid/disp/display.h ****             }
 348:../../libdaisy/src/hid/disp/display.h ****             if(e2 > t_x)
 349:../../libdaisy/src/hid/disp/display.h ****             {
 350:../../libdaisy/src/hid/disp/display.h ****                 t_x++;
 351:../../libdaisy/src/hid/disp/display.h ****                 err = err + (t_x * 2 + 1);
 352:../../libdaisy/src/hid/disp/display.h ****             }
 353:../../libdaisy/src/hid/disp/display.h ****         } while(t_x <= 0);
 354:../../libdaisy/src/hid/disp/display.h ****     }
 355:../../libdaisy/src/hid/disp/display.h **** 
 356:../../libdaisy/src/hid/disp/display.h ****     char WriteChar(char ch, FontDef font, bool on) override
 357:../../libdaisy/src/hid/disp/display.h ****     {
 358:../../libdaisy/src/hid/disp/display.h ****         uint32_t i, b, j;
 359:../../libdaisy/src/hid/disp/display.h **** 
 360:../../libdaisy/src/hid/disp/display.h ****         // Check if character is valid
 361:../../libdaisy/src/hid/disp/display.h ****         if(ch < 32 || ch > 126)
 362:../../libdaisy/src/hid/disp/display.h ****             return 0;
 363:../../libdaisy/src/hid/disp/display.h **** 
 364:../../libdaisy/src/hid/disp/display.h ****         // Check remaining space on current line
 365:../../libdaisy/src/hid/disp/display.h ****         if(Width() < (currentX_ + font.FontWidth)
ARM GAS  C:\Users\VINCIU~1\AppData\Local\Temp\ccdhDWPe.s 			page 19


 366:../../libdaisy/src/hid/disp/display.h ****            || Height() < (currentY_ + font.FontHeight))
 367:../../libdaisy/src/hid/disp/display.h ****         {
 368:../../libdaisy/src/hid/disp/display.h ****             // Not enough space on current line
 369:../../libdaisy/src/hid/disp/display.h ****             return 0;
 370:../../libdaisy/src/hid/disp/display.h ****         }
 371:../../libdaisy/src/hid/disp/display.h **** 
 372:../../libdaisy/src/hid/disp/display.h ****         // Use the font to write
 373:../../libdaisy/src/hid/disp/display.h ****         for(i = 0; i < font.FontHeight; i++)
 374:../../libdaisy/src/hid/disp/display.h ****         {
 375:../../libdaisy/src/hid/disp/display.h ****             b = font.data[(ch - 32) * font.FontHeight + i];
 376:../../libdaisy/src/hid/disp/display.h ****             for(j = 0; j < font.FontWidth; j++)
 377:../../libdaisy/src/hid/disp/display.h ****             {
 378:../../libdaisy/src/hid/disp/display.h ****                 if((b << j) & 0x8000)
 379:../../libdaisy/src/hid/disp/display.h ****                 {
 380:../../libdaisy/src/hid/disp/display.h ****                     ((ChildType*)(this))
 381:../../libdaisy/src/hid/disp/display.h ****                         ->ChildType::DrawPixel(
 382:../../libdaisy/src/hid/disp/display.h ****                             currentX_ + j, (currentY_ + i), on);
 383:../../libdaisy/src/hid/disp/display.h ****                 }
 384:../../libdaisy/src/hid/disp/display.h ****                 else
 385:../../libdaisy/src/hid/disp/display.h ****                 {
 386:../../libdaisy/src/hid/disp/display.h ****                     ((ChildType*)(this))
 387:../../libdaisy/src/hid/disp/display.h ****                         ->ChildType::DrawPixel(
 388:../../libdaisy/src/hid/disp/display.h ****                             currentX_ + j, (currentY_ + i), !on);
 389:../../libdaisy/src/hid/disp/display.h ****                 }
 390:../../libdaisy/src/hid/disp/display.h ****             }
 391:../../libdaisy/src/hid/disp/display.h ****         }
 392:../../libdaisy/src/hid/disp/display.h **** 
 393:../../libdaisy/src/hid/disp/display.h ****         // The current space is now taken
 394:../../libdaisy/src/hid/disp/display.h ****         SetCursor(currentX_ + font.FontWidth, currentY_);
 395:../../libdaisy/src/hid/disp/display.h **** 
 396:../../libdaisy/src/hid/disp/display.h ****         // Return written char for validation
 397:../../libdaisy/src/hid/disp/display.h ****         return ch;
 398:../../libdaisy/src/hid/disp/display.h ****     }
 399:../../libdaisy/src/hid/disp/display.h **** 
 400:../../libdaisy/src/hid/disp/display.h ****     char WriteString(const char* str, FontDef font, bool on) override
 398              		.loc 5 400 10 view -0
 399              		.cfi_startproc
 400              		@ args = 4, pretend = 0, frame = 32
 401              		@ frame_needed = 0, uses_anonymous_args = 0
 402              		.loc 5 400 10 is_stmt 0 view .LVU125
 403 0000 2DE9F04F 		push	{r4, r5, r6, r7, r8, r9, r10, fp, lr}
 404              		.cfi_def_cfa_offset 36
 405              		.cfi_offset 4, -36
 406              		.cfi_offset 5, -32
 407              		.cfi_offset 6, -28
 408              		.cfi_offset 7, -24
 409              		.cfi_offset 8, -20
 410              		.cfi_offset 9, -16
 411              		.cfi_offset 10, -12
 412              		.cfi_offset 11, -8
 413              		.cfi_offset 14, -4
 414 0004 89B0     		sub	sp, sp, #36
 415              		.cfi_def_cfa_offset 72
 416              		.loc 5 400 10 view .LVU126
 417 0006 08AC     		add	r4, sp, #32
 418 0008 9DF84870 		ldrb	r7, [sp, #72]	@ zero_extendqisi2
 419 000c 0191     		str	r1, [sp, #4]
ARM GAS  C:\Users\VINCIU~1\AppData\Local\Temp\ccdhDWPe.s 			page 20


 420 000e 04E90C00 		stmdb	r4, {r2, r3}
 401:../../libdaisy/src/hid/disp/display.h ****     {
 402:../../libdaisy/src/hid/disp/display.h ****         // Write until null-byte
 403:../../libdaisy/src/hid/disp/display.h ****         while(*str)
 421              		.loc 5 403 9 is_stmt 1 view .LVU127
 422 0012 0B78     		ldrb	r3, [r1]	@ zero_extendqisi2
 423 0014 002B     		cmp	r3, #0
 424 0016 00F0AB80 		beq	.L47
 425 001a 1A46     		mov	r2, r3
 426 001c 9DF81880 		ldrb	r8, [sp, #24]	@ zero_extendqisi2
 427 0020 9DF81930 		ldrb	r3, [sp, #25]	@ zero_extendqisi2
 428 0024 0646     		mov	r6, r0
 429 0026 4546     		mov	r5, r8
 430 0028 9046     		mov	r8, r2
 431 002a 0393     		str	r3, [sp, #12]
 432 002c 079B     		ldr	r3, [sp, #28]
 433 002e 0593     		str	r3, [sp, #20]
 434              	.LVL19:
 435              	.L48:
 436              	.LBB375:
 437              	.LBI375:
 356:../../libdaisy/src/hid/disp/display.h ****     {
 438              		.loc 5 356 10 view .LVU128
 439              	.LBB376:
 361:../../libdaisy/src/hid/disp/display.h ****             return 0;
 440              		.loc 5 361 20 is_stmt 0 view .LVU129
 441 0030 A8F12004 		sub	r4, r8, #32
 361:../../libdaisy/src/hid/disp/display.h ****             return 0;
 442              		.loc 5 361 9 view .LVU130
 443 0034 E3B2     		uxtb	r3, r4
 444 0036 5E2B     		cmp	r3, #94
 445 0038 00F29E80 		bhi	.L29
 365:../../libdaisy/src/hid/disp/display.h ****            || Height() < (currentY_ + font.FontHeight))
 446              		.loc 5 365 17 view .LVU131
 447 003c 3368     		ldr	r3, [r6]
 448 003e 5E4A     		ldr	r2, .L69
 449 0040 DB68     		ldr	r3, [r3, #12]
 450 0042 9342     		cmp	r3, r2
 451 0044 40F09B80 		bne	.L62
 452 0048 8020     		movs	r0, #128
 453              	.L28:
 365:../../libdaisy/src/hid/disp/display.h ****            || Height() < (currentY_ + font.FontHeight))
 454              		.loc 5 365 23 view .LVU132
 455 004a B388     		ldrh	r3, [r6, #4]
 365:../../libdaisy/src/hid/disp/display.h ****            || Height() < (currentY_ + font.FontHeight))
 456              		.loc 5 365 33 view .LVU133
 457 004c 2B44     		add	r3, r3, r5
 366:../../libdaisy/src/hid/disp/display.h ****         {
 458              		.loc 5 366 12 view .LVU134
 459 004e 8342     		cmp	r3, r0
 460 0050 00F39280 		bgt	.L29
 366:../../libdaisy/src/hid/disp/display.h ****         {
 461              		.loc 5 366 21 view .LVU135
 462 0054 3368     		ldr	r3, [r6]
 463 0056 594A     		ldr	r2, .L69+4
 464 0058 9B68     		ldr	r3, [r3, #8]
 465 005a 9342     		cmp	r3, r2
ARM GAS  C:\Users\VINCIU~1\AppData\Local\Temp\ccdhDWPe.s 			page 21


 466 005c 40F09280 		bne	.L63
 467 0060 4020     		movs	r0, #64
 468              	.L30:
 366:../../libdaisy/src/hid/disp/display.h ****         {
 469              		.loc 5 366 27 view .LVU136
 470 0062 F188     		ldrh	r1, [r6, #6]
 366:../../libdaisy/src/hid/disp/display.h ****         {
 471              		.loc 5 366 37 view .LVU137
 472 0064 039A     		ldr	r2, [sp, #12]
 366:../../libdaisy/src/hid/disp/display.h ****         {
 473              		.loc 5 366 27 view .LVU138
 474 0066 0291     		str	r1, [sp, #8]
 366:../../libdaisy/src/hid/disp/display.h ****         {
 475              		.loc 5 366 37 view .LVU139
 476 0068 8B18     		adds	r3, r1, r2
 366:../../libdaisy/src/hid/disp/display.h ****         {
 477              		.loc 5 366 12 view .LVU140
 478 006a 8342     		cmp	r3, r0
 479 006c 00F38480 		bgt	.L29
 480              	.LVL20:
 373:../../libdaisy/src/hid/disp/display.h ****         {
 481              		.loc 5 373 22 is_stmt 1 view .LVU141
 482 0070 002A     		cmp	r2, #0
 483 0072 00F09180 		beq	.L31
 375:../../libdaisy/src/hid/disp/display.h ****             for(j = 0; j < font.FontWidth; j++)
 484              		.loc 5 375 37 is_stmt 0 view .LVU142
 485 0076 02FB04F4 		mul	r4, r2, r4
 486 007a 6FF00049 		mvn	r9, #-2147483648
 487 007e 059B     		ldr	r3, [sp, #20]
 488 0080 A144     		add	r9, r9, r4
 489 0082 1444     		add	r4, r4, r2
 394:../../libdaisy/src/hid/disp/display.h **** 
 490              		.loc 5 394 19 view .LVU143
 491 0084 B6F804B0 		ldrh	fp, [r6, #4]
 492 0088 03EB4909 		add	r9, r3, r9, lsl #1
 493 008c 023B     		subs	r3, r3, #2
 494 008e CDF81080 		str	r8, [sp, #16]
 495 0092 03EB4403 		add	r3, r3, r4, lsl #1
 496 0096 0C46     		mov	r4, r1
 497 0098 9A46     		mov	r10, r3
 498              	.LVL21:
 499              	.L34:
 375:../../libdaisy/src/hid/disp/display.h ****             for(j = 0; j < font.FontWidth; j++)
 500              		.loc 5 375 15 view .LVU144
 501 009a 39F802CF 		ldrh	ip, [r9, #2]!
 502              	.LVL22:
 376:../../libdaisy/src/hid/disp/display.h ****             {
 503              		.loc 5 376 26 is_stmt 1 view .LVU145
 504 009e A5B3     		cbz	r5, .L39
 505              	.LBB377:
 506              	.LBB378:
 507              	.LBB379:
 508              	.LBB380:
 509              	.LBB381:
 510              		.file 6 "../../libdaisy/src/dev/oled_ssd130x.h"
   1:../../libdaisy/src/dev/oled_ssd130x.h **** #pragma once
   2:../../libdaisy/src/dev/oled_ssd130x.h **** #ifndef SA_OLED_SSD130X_H
ARM GAS  C:\Users\VINCIU~1\AppData\Local\Temp\ccdhDWPe.s 			page 22


   3:../../libdaisy/src/dev/oled_ssd130x.h **** #define SA_OLED_SSD130X_H /**< & */
   4:../../libdaisy/src/dev/oled_ssd130x.h **** 
   5:../../libdaisy/src/dev/oled_ssd130x.h **** #include "per/i2c.h"
   6:../../libdaisy/src/dev/oled_ssd130x.h **** #include "per/spi.h"
   7:../../libdaisy/src/dev/oled_ssd130x.h **** #include "per/gpio.h"
   8:../../libdaisy/src/dev/oled_ssd130x.h **** #include "sys/system.h"
   9:../../libdaisy/src/dev/oled_ssd130x.h **** 
  10:../../libdaisy/src/dev/oled_ssd130x.h **** namespace daisy
  11:../../libdaisy/src/dev/oled_ssd130x.h **** {
  12:../../libdaisy/src/dev/oled_ssd130x.h **** /**
  13:../../libdaisy/src/dev/oled_ssd130x.h ****  * I2C Transport for SSD1306 / SSD1309 OLED display devices
  14:../../libdaisy/src/dev/oled_ssd130x.h ****  */
  15:../../libdaisy/src/dev/oled_ssd130x.h **** class SSD130xI2CTransport
  16:../../libdaisy/src/dev/oled_ssd130x.h **** {
  17:../../libdaisy/src/dev/oled_ssd130x.h ****   public:
  18:../../libdaisy/src/dev/oled_ssd130x.h ****     struct Config
  19:../../libdaisy/src/dev/oled_ssd130x.h ****     {
  20:../../libdaisy/src/dev/oled_ssd130x.h ****         I2CHandle::Config i2c_config;
  21:../../libdaisy/src/dev/oled_ssd130x.h ****         uint8_t           i2c_address;
  22:../../libdaisy/src/dev/oled_ssd130x.h ****         void              Defaults()
  23:../../libdaisy/src/dev/oled_ssd130x.h ****         {
  24:../../libdaisy/src/dev/oled_ssd130x.h ****             i2c_config.periph         = I2CHandle::Config::Peripheral::I2C_1;
  25:../../libdaisy/src/dev/oled_ssd130x.h ****             i2c_config.speed          = I2CHandle::Config::Speed::I2C_1MHZ;
  26:../../libdaisy/src/dev/oled_ssd130x.h ****             i2c_config.mode           = I2CHandle::Config::Mode::I2C_MASTER;
  27:../../libdaisy/src/dev/oled_ssd130x.h ****             i2c_config.pin_config.scl = {DSY_GPIOB, 8};
  28:../../libdaisy/src/dev/oled_ssd130x.h ****             i2c_config.pin_config.sda = {DSY_GPIOB, 9};
  29:../../libdaisy/src/dev/oled_ssd130x.h ****             i2c_address               = 0x3C;
  30:../../libdaisy/src/dev/oled_ssd130x.h ****         }
  31:../../libdaisy/src/dev/oled_ssd130x.h ****     };
  32:../../libdaisy/src/dev/oled_ssd130x.h ****     void Init(const Config& config)
  33:../../libdaisy/src/dev/oled_ssd130x.h ****     {
  34:../../libdaisy/src/dev/oled_ssd130x.h ****         i2c_address_ = config.i2c_address;
  35:../../libdaisy/src/dev/oled_ssd130x.h ****         i2c_.Init(config.i2c_config);
  36:../../libdaisy/src/dev/oled_ssd130x.h ****     };
  37:../../libdaisy/src/dev/oled_ssd130x.h ****     void SendCommand(uint8_t cmd)
  38:../../libdaisy/src/dev/oled_ssd130x.h ****     {
  39:../../libdaisy/src/dev/oled_ssd130x.h ****         uint8_t buf[2] = {0X00, cmd};
  40:../../libdaisy/src/dev/oled_ssd130x.h ****         i2c_.TransmitBlocking(i2c_address_, buf, 2, 1000);
  41:../../libdaisy/src/dev/oled_ssd130x.h ****     };
  42:../../libdaisy/src/dev/oled_ssd130x.h **** 
  43:../../libdaisy/src/dev/oled_ssd130x.h ****     void SendData(uint8_t* buff, size_t size)
  44:../../libdaisy/src/dev/oled_ssd130x.h ****     {
  45:../../libdaisy/src/dev/oled_ssd130x.h ****         for(size_t i = 0; i < size; i++)
  46:../../libdaisy/src/dev/oled_ssd130x.h ****         {
  47:../../libdaisy/src/dev/oled_ssd130x.h ****             uint8_t buf[2] = {0X40, buff[i]};
  48:../../libdaisy/src/dev/oled_ssd130x.h ****             i2c_.TransmitBlocking(i2c_address_, buf, 2, 1000);
  49:../../libdaisy/src/dev/oled_ssd130x.h ****         }
  50:../../libdaisy/src/dev/oled_ssd130x.h ****     };
  51:../../libdaisy/src/dev/oled_ssd130x.h **** 
  52:../../libdaisy/src/dev/oled_ssd130x.h ****   private:
  53:../../libdaisy/src/dev/oled_ssd130x.h ****     daisy::I2CHandle i2c_;
  54:../../libdaisy/src/dev/oled_ssd130x.h ****     uint8_t          i2c_address_;
  55:../../libdaisy/src/dev/oled_ssd130x.h **** };
  56:../../libdaisy/src/dev/oled_ssd130x.h **** 
  57:../../libdaisy/src/dev/oled_ssd130x.h **** /**
  58:../../libdaisy/src/dev/oled_ssd130x.h ****  * 4 Wire SPI Transport for SSD1306 / SSD1309 OLED display devices
  59:../../libdaisy/src/dev/oled_ssd130x.h ****  */
ARM GAS  C:\Users\VINCIU~1\AppData\Local\Temp\ccdhDWPe.s 			page 23


  60:../../libdaisy/src/dev/oled_ssd130x.h **** class SSD130x4WireSpiTransport
  61:../../libdaisy/src/dev/oled_ssd130x.h **** {
  62:../../libdaisy/src/dev/oled_ssd130x.h ****   public:
  63:../../libdaisy/src/dev/oled_ssd130x.h ****     struct Config
  64:../../libdaisy/src/dev/oled_ssd130x.h ****     {
  65:../../libdaisy/src/dev/oled_ssd130x.h ****         struct
  66:../../libdaisy/src/dev/oled_ssd130x.h ****         {
  67:../../libdaisy/src/dev/oled_ssd130x.h ****             dsy_gpio_pin dc;    /**< & */
  68:../../libdaisy/src/dev/oled_ssd130x.h ****             dsy_gpio_pin reset; /**< & */
  69:../../libdaisy/src/dev/oled_ssd130x.h ****         } pin_config;
  70:../../libdaisy/src/dev/oled_ssd130x.h ****         void Defaults()
  71:../../libdaisy/src/dev/oled_ssd130x.h ****         {
  72:../../libdaisy/src/dev/oled_ssd130x.h ****             pin_config.dc    = {DSY_GPIOB, 4};
  73:../../libdaisy/src/dev/oled_ssd130x.h ****             pin_config.reset = {DSY_GPIOB, 15};
  74:../../libdaisy/src/dev/oled_ssd130x.h ****         }
  75:../../libdaisy/src/dev/oled_ssd130x.h ****     };
  76:../../libdaisy/src/dev/oled_ssd130x.h ****     void Init(const Config& config)
  77:../../libdaisy/src/dev/oled_ssd130x.h ****     {
  78:../../libdaisy/src/dev/oled_ssd130x.h ****         // Initialize both GPIO
  79:../../libdaisy/src/dev/oled_ssd130x.h ****         pin_dc_.mode = DSY_GPIO_MODE_OUTPUT_PP;
  80:../../libdaisy/src/dev/oled_ssd130x.h ****         pin_dc_.pin  = config.pin_config.dc;
  81:../../libdaisy/src/dev/oled_ssd130x.h ****         dsy_gpio_init(&pin_dc_);
  82:../../libdaisy/src/dev/oled_ssd130x.h ****         pin_reset_.mode = DSY_GPIO_MODE_OUTPUT_PP;
  83:../../libdaisy/src/dev/oled_ssd130x.h ****         pin_reset_.pin  = config.pin_config.reset;
  84:../../libdaisy/src/dev/oled_ssd130x.h ****         dsy_gpio_init(&pin_reset_);
  85:../../libdaisy/src/dev/oled_ssd130x.h ****         // Initialize SPI
  86:../../libdaisy/src/dev/oled_ssd130x.h ****         SpiHandle::Config spi_config;
  87:../../libdaisy/src/dev/oled_ssd130x.h ****         spi_config.periph    = SpiHandle::Config::Peripheral::SPI_1;
  88:../../libdaisy/src/dev/oled_ssd130x.h ****         spi_config.mode      = SpiHandle::Config::Mode::MASTER;
  89:../../libdaisy/src/dev/oled_ssd130x.h ****         spi_config.direction = SpiHandle::Config::Direction::TWO_LINES_TX_ONLY;
  90:../../libdaisy/src/dev/oled_ssd130x.h ****         spi_config.datasize  = 8;
  91:../../libdaisy/src/dev/oled_ssd130x.h ****         spi_config.clock_polarity = SpiHandle::Config::ClockPolarity::LOW;
  92:../../libdaisy/src/dev/oled_ssd130x.h ****         spi_config.clock_phase    = SpiHandle::Config::ClockPhase::ONE_EDGE;
  93:../../libdaisy/src/dev/oled_ssd130x.h ****         spi_config.nss            = SpiHandle::Config::NSS::HARD_OUTPUT;
  94:../../libdaisy/src/dev/oled_ssd130x.h ****         spi_config.baud_prescaler = SpiHandle::Config::BaudPrescaler::PS_8;
  95:../../libdaisy/src/dev/oled_ssd130x.h **** 
  96:../../libdaisy/src/dev/oled_ssd130x.h ****         spi_config.pin_config.sclk = {DSY_GPIOG, 11};
  97:../../libdaisy/src/dev/oled_ssd130x.h ****         spi_config.pin_config.miso = {DSY_GPIOX, 0};
  98:../../libdaisy/src/dev/oled_ssd130x.h ****         spi_config.pin_config.mosi = {DSY_GPIOB, 5};
  99:../../libdaisy/src/dev/oled_ssd130x.h ****         spi_config.pin_config.nss  = {DSY_GPIOG, 10};
 100:../../libdaisy/src/dev/oled_ssd130x.h **** 
 101:../../libdaisy/src/dev/oled_ssd130x.h ****         spi_.Init(spi_config);
 102:../../libdaisy/src/dev/oled_ssd130x.h **** 
 103:../../libdaisy/src/dev/oled_ssd130x.h ****         // Reset and Configure OLED.
 104:../../libdaisy/src/dev/oled_ssd130x.h ****         dsy_gpio_write(&pin_reset_, 0);
 105:../../libdaisy/src/dev/oled_ssd130x.h ****         System::Delay(10);
 106:../../libdaisy/src/dev/oled_ssd130x.h ****         dsy_gpio_write(&pin_reset_, 1);
 107:../../libdaisy/src/dev/oled_ssd130x.h ****         System::Delay(10);
 108:../../libdaisy/src/dev/oled_ssd130x.h ****     };
 109:../../libdaisy/src/dev/oled_ssd130x.h ****     void SendCommand(uint8_t cmd)
 110:../../libdaisy/src/dev/oled_ssd130x.h ****     {
 111:../../libdaisy/src/dev/oled_ssd130x.h ****         dsy_gpio_write(&pin_dc_, 0);
 112:../../libdaisy/src/dev/oled_ssd130x.h ****         spi_.BlockingTransmit(&cmd, 1);
 113:../../libdaisy/src/dev/oled_ssd130x.h ****     };
 114:../../libdaisy/src/dev/oled_ssd130x.h **** 
 115:../../libdaisy/src/dev/oled_ssd130x.h ****     void SendData(uint8_t* buff, size_t size)
 116:../../libdaisy/src/dev/oled_ssd130x.h ****     {
ARM GAS  C:\Users\VINCIU~1\AppData\Local\Temp\ccdhDWPe.s 			page 24


 117:../../libdaisy/src/dev/oled_ssd130x.h ****         dsy_gpio_write(&pin_dc_, 1);
 118:../../libdaisy/src/dev/oled_ssd130x.h ****         spi_.BlockingTransmit(buff, size);
 119:../../libdaisy/src/dev/oled_ssd130x.h ****     };
 120:../../libdaisy/src/dev/oled_ssd130x.h **** 
 121:../../libdaisy/src/dev/oled_ssd130x.h ****   private:
 122:../../libdaisy/src/dev/oled_ssd130x.h ****     SpiHandle spi_;
 123:../../libdaisy/src/dev/oled_ssd130x.h ****     dsy_gpio  pin_reset_;
 124:../../libdaisy/src/dev/oled_ssd130x.h ****     dsy_gpio  pin_dc_;
 125:../../libdaisy/src/dev/oled_ssd130x.h **** };
 126:../../libdaisy/src/dev/oled_ssd130x.h **** 
 127:../../libdaisy/src/dev/oled_ssd130x.h **** 
 128:../../libdaisy/src/dev/oled_ssd130x.h **** /**
 129:../../libdaisy/src/dev/oled_ssd130x.h ****  * A driver implementation for the SSD1306/SSD1309
 130:../../libdaisy/src/dev/oled_ssd130x.h ****  */
 131:../../libdaisy/src/dev/oled_ssd130x.h **** template <size_t width, size_t height, typename Transport>
 132:../../libdaisy/src/dev/oled_ssd130x.h **** class SSD130xDriver
 133:../../libdaisy/src/dev/oled_ssd130x.h **** {
 134:../../libdaisy/src/dev/oled_ssd130x.h ****   public:
 135:../../libdaisy/src/dev/oled_ssd130x.h ****     struct Config
 136:../../libdaisy/src/dev/oled_ssd130x.h ****     {
 137:../../libdaisy/src/dev/oled_ssd130x.h ****         typename Transport::Config transport_config;
 138:../../libdaisy/src/dev/oled_ssd130x.h ****     };
 139:../../libdaisy/src/dev/oled_ssd130x.h **** 
 140:../../libdaisy/src/dev/oled_ssd130x.h ****     void Init(Config config)
 141:../../libdaisy/src/dev/oled_ssd130x.h ****     {
 142:../../libdaisy/src/dev/oled_ssd130x.h ****         transport_.Init(config.transport_config);
 143:../../libdaisy/src/dev/oled_ssd130x.h **** 
 144:../../libdaisy/src/dev/oled_ssd130x.h ****         // Init routine...
 145:../../libdaisy/src/dev/oled_ssd130x.h **** 
 146:../../libdaisy/src/dev/oled_ssd130x.h ****         // Display Off
 147:../../libdaisy/src/dev/oled_ssd130x.h ****         transport_.SendCommand(0xaE);
 148:../../libdaisy/src/dev/oled_ssd130x.h ****         // Dimension dependent commands...
 149:../../libdaisy/src/dev/oled_ssd130x.h ****         switch(height)
 150:../../libdaisy/src/dev/oled_ssd130x.h ****         {
 151:../../libdaisy/src/dev/oled_ssd130x.h ****             case 16:
 152:../../libdaisy/src/dev/oled_ssd130x.h ****                 // Display Clock Divide Ratio
 153:../../libdaisy/src/dev/oled_ssd130x.h ****                 transport_.SendCommand(0xD5);
 154:../../libdaisy/src/dev/oled_ssd130x.h ****                 transport_.SendCommand(0x60);
 155:../../libdaisy/src/dev/oled_ssd130x.h ****                 // Multiplex Ratio
 156:../../libdaisy/src/dev/oled_ssd130x.h ****                 transport_.SendCommand(0xA8);
 157:../../libdaisy/src/dev/oled_ssd130x.h ****                 transport_.SendCommand(0x0F);
 158:../../libdaisy/src/dev/oled_ssd130x.h ****                 // COM Pins
 159:../../libdaisy/src/dev/oled_ssd130x.h ****                 transport_.SendCommand(0xDA);
 160:../../libdaisy/src/dev/oled_ssd130x.h ****                 transport_.SendCommand(0x02);
 161:../../libdaisy/src/dev/oled_ssd130x.h ****                 break;
 162:../../libdaisy/src/dev/oled_ssd130x.h ****             case 32:
 163:../../libdaisy/src/dev/oled_ssd130x.h ****                 // Display Clock Divide Ratio
 164:../../libdaisy/src/dev/oled_ssd130x.h ****                 transport_.SendCommand(0xD5);
 165:../../libdaisy/src/dev/oled_ssd130x.h ****                 transport_.SendCommand(0x80);
 166:../../libdaisy/src/dev/oled_ssd130x.h ****                 // Multiplex Ratio
 167:../../libdaisy/src/dev/oled_ssd130x.h ****                 transport_.SendCommand(0xA8);
 168:../../libdaisy/src/dev/oled_ssd130x.h ****                 transport_.SendCommand(0x1F);
 169:../../libdaisy/src/dev/oled_ssd130x.h ****                 // COM Pins
 170:../../libdaisy/src/dev/oled_ssd130x.h ****                 transport_.SendCommand(0xDA);
 171:../../libdaisy/src/dev/oled_ssd130x.h ****                 if(width == 64)
 172:../../libdaisy/src/dev/oled_ssd130x.h ****                 {
 173:../../libdaisy/src/dev/oled_ssd130x.h ****                     transport_.SendCommand(0x12);
ARM GAS  C:\Users\VINCIU~1\AppData\Local\Temp\ccdhDWPe.s 			page 25


 174:../../libdaisy/src/dev/oled_ssd130x.h ****                 }
 175:../../libdaisy/src/dev/oled_ssd130x.h ****                 else
 176:../../libdaisy/src/dev/oled_ssd130x.h ****                 {
 177:../../libdaisy/src/dev/oled_ssd130x.h ****                     transport_.SendCommand(0x02);
 178:../../libdaisy/src/dev/oled_ssd130x.h ****                 }
 179:../../libdaisy/src/dev/oled_ssd130x.h **** 
 180:../../libdaisy/src/dev/oled_ssd130x.h ****                 break;
 181:../../libdaisy/src/dev/oled_ssd130x.h ****             case 48:
 182:../../libdaisy/src/dev/oled_ssd130x.h ****                 // Display Clock Divide Ratio
 183:../../libdaisy/src/dev/oled_ssd130x.h ****                 transport_.SendCommand(0xD5);
 184:../../libdaisy/src/dev/oled_ssd130x.h ****                 transport_.SendCommand(0x80);
 185:../../libdaisy/src/dev/oled_ssd130x.h ****                 // Multiplex Ratio
 186:../../libdaisy/src/dev/oled_ssd130x.h ****                 transport_.SendCommand(0xA8);
 187:../../libdaisy/src/dev/oled_ssd130x.h ****                 transport_.SendCommand(0x2F);
 188:../../libdaisy/src/dev/oled_ssd130x.h ****                 // COM Pins
 189:../../libdaisy/src/dev/oled_ssd130x.h ****                 transport_.SendCommand(0xDA);
 190:../../libdaisy/src/dev/oled_ssd130x.h ****                 transport_.SendCommand(0x12);
 191:../../libdaisy/src/dev/oled_ssd130x.h ****                 break;
 192:../../libdaisy/src/dev/oled_ssd130x.h ****             default: // 128
 193:../../libdaisy/src/dev/oled_ssd130x.h ****                 // Display Clock Divide Ratio
 194:../../libdaisy/src/dev/oled_ssd130x.h ****                 transport_.SendCommand(0xD5);
 195:../../libdaisy/src/dev/oled_ssd130x.h ****                 transport_.SendCommand(0x80);
 196:../../libdaisy/src/dev/oled_ssd130x.h ****                 // Multiplex Ratio
 197:../../libdaisy/src/dev/oled_ssd130x.h ****                 transport_.SendCommand(0xA8);
 198:../../libdaisy/src/dev/oled_ssd130x.h ****                 transport_.SendCommand(0x3F);
 199:../../libdaisy/src/dev/oled_ssd130x.h ****                 // COM Pins
 200:../../libdaisy/src/dev/oled_ssd130x.h ****                 transport_.SendCommand(0xDA);
 201:../../libdaisy/src/dev/oled_ssd130x.h ****                 transport_.SendCommand(0x12);
 202:../../libdaisy/src/dev/oled_ssd130x.h ****                 break;
 203:../../libdaisy/src/dev/oled_ssd130x.h ****         }
 204:../../libdaisy/src/dev/oled_ssd130x.h **** 
 205:../../libdaisy/src/dev/oled_ssd130x.h ****         // Display Offset
 206:../../libdaisy/src/dev/oled_ssd130x.h ****         transport_.SendCommand(0xD3);
 207:../../libdaisy/src/dev/oled_ssd130x.h ****         transport_.SendCommand(0x00);
 208:../../libdaisy/src/dev/oled_ssd130x.h ****         // Start Line Address
 209:../../libdaisy/src/dev/oled_ssd130x.h ****         transport_.SendCommand(0x40);
 210:../../libdaisy/src/dev/oled_ssd130x.h ****         // Normal Display
 211:../../libdaisy/src/dev/oled_ssd130x.h ****         transport_.SendCommand(0xA6);
 212:../../libdaisy/src/dev/oled_ssd130x.h ****         // All On Resume
 213:../../libdaisy/src/dev/oled_ssd130x.h ****         transport_.SendCommand(0xA4);
 214:../../libdaisy/src/dev/oled_ssd130x.h ****         // Charge Pump
 215:../../libdaisy/src/dev/oled_ssd130x.h ****         transport_.SendCommand(0x8D);
 216:../../libdaisy/src/dev/oled_ssd130x.h ****         transport_.SendCommand(0x14);
 217:../../libdaisy/src/dev/oled_ssd130x.h ****         // Set Segment Remap
 218:../../libdaisy/src/dev/oled_ssd130x.h ****         transport_.SendCommand(0xA1);
 219:../../libdaisy/src/dev/oled_ssd130x.h ****         // COM Output Scan Direction
 220:../../libdaisy/src/dev/oled_ssd130x.h ****         transport_.SendCommand(0xC8);
 221:../../libdaisy/src/dev/oled_ssd130x.h ****         // Contrast Control
 222:../../libdaisy/src/dev/oled_ssd130x.h ****         transport_.SendCommand(0x81);
 223:../../libdaisy/src/dev/oled_ssd130x.h ****         transport_.SendCommand(0x8F);
 224:../../libdaisy/src/dev/oled_ssd130x.h ****         // Pre Charge
 225:../../libdaisy/src/dev/oled_ssd130x.h ****         transport_.SendCommand(0xD9);
 226:../../libdaisy/src/dev/oled_ssd130x.h ****         transport_.SendCommand(0x25);
 227:../../libdaisy/src/dev/oled_ssd130x.h ****         // VCOM Detect
 228:../../libdaisy/src/dev/oled_ssd130x.h ****         transport_.SendCommand(0xDB);
 229:../../libdaisy/src/dev/oled_ssd130x.h ****         transport_.SendCommand(0x34);
 230:../../libdaisy/src/dev/oled_ssd130x.h **** 
ARM GAS  C:\Users\VINCIU~1\AppData\Local\Temp\ccdhDWPe.s 			page 26


 231:../../libdaisy/src/dev/oled_ssd130x.h **** 
 232:../../libdaisy/src/dev/oled_ssd130x.h ****         // Display On
 233:../../libdaisy/src/dev/oled_ssd130x.h ****         transport_.SendCommand(0xAF); //--turn on oled panel
 234:../../libdaisy/src/dev/oled_ssd130x.h ****     };
 235:../../libdaisy/src/dev/oled_ssd130x.h **** 
 236:../../libdaisy/src/dev/oled_ssd130x.h ****     size_t Width() const { return width; };
 237:../../libdaisy/src/dev/oled_ssd130x.h ****     size_t Height() const { return height; };
 238:../../libdaisy/src/dev/oled_ssd130x.h **** 
 239:../../libdaisy/src/dev/oled_ssd130x.h ****     void DrawPixel(uint_fast8_t x, uint_fast8_t y, bool on)
 240:../../libdaisy/src/dev/oled_ssd130x.h ****     {
 241:../../libdaisy/src/dev/oled_ssd130x.h ****         if(x >= width || y >= height)
 242:../../libdaisy/src/dev/oled_ssd130x.h ****             return;
 243:../../libdaisy/src/dev/oled_ssd130x.h ****         if(on)
 244:../../libdaisy/src/dev/oled_ssd130x.h ****             buffer_[x + (y / 8) * width] |= (1 << (y % 8));
 245:../../libdaisy/src/dev/oled_ssd130x.h ****         else
 246:../../libdaisy/src/dev/oled_ssd130x.h ****             buffer_[x + (y / 8) * width] &= ~(1 << (y % 8));
 511              		.loc 6 246 55 is_stmt 0 view .LVU146
 512 00a0 04F00703 		and	r3, r4, #7
 513              		.loc 6 246 49 view .LVU147
 514 00a4 4FF0010E 		mov	lr, #1
 515              		.loc 6 246 28 view .LVU148
 516 00a8 E208     		lsrs	r2, r4, #3
 517 00aa 5946     		mov	r1, fp
 518              		.loc 6 246 49 view .LVU149
 519 00ac 0EFA03FE 		lsl	lr, lr, r3
 520 00b0 0BF11403 		add	r3, fp, #20
 521              		.loc 6 246 42 view .LVU150
 522 00b4 4FFA8EFE 		sxtb	lr, lr
 523 00b8 03EBC212 		add	r2, r3, r2, lsl #7
 524              	.LBE381:
 525              	.LBE380:
 526              	.LBE379:
 527              	.LBE378:
 528              	.LBE377:
 376:../../libdaisy/src/hid/disp/display.h ****             {
 529              		.loc 5 376 19 view .LVU151
 530 00bc 0023     		movs	r3, #0
 531              	.LBB399:
 532              	.LBB394:
 533              	.LBB389:
 534              	.LBB385:
 535              	.LBB382:
 536              		.loc 6 246 42 view .LVU152
 537 00be 6FEA0E08 		mvn	r8, lr
 538 00c2 3244     		add	r2, r2, r6
 539 00c4 0DE0     		b	.L40
 540              	.LVL23:
 541              	.L64:
 542              		.loc 6 246 42 view .LVU153
 543              	.LBE382:
 544              	.LBE385:
 545              	.LBE389:
 546              	.LBE394:
 547              	.LBE399:
 548              	.LBB400:
 549              	.LBI400:
  28:../../libdaisy/src/hid/disp/oled_display.h **** 
ARM GAS  C:\Users\VINCIU~1\AppData\Local\Temp\ccdhDWPe.s 			page 27


  29:../../libdaisy/src/hid/disp/oled_display.h ****     /** 
  30:../../libdaisy/src/hid/disp/oled_display.h ****     Fills the entire display with either on/off.
  31:../../libdaisy/src/hid/disp/oled_display.h ****     \param on Sets on or off.
  32:../../libdaisy/src/hid/disp/oled_display.h ****     */
  33:../../libdaisy/src/hid/disp/oled_display.h ****     void Fill(bool on) override { driver_.Fill(on); }
  34:../../libdaisy/src/hid/disp/oled_display.h **** 
  35:../../libdaisy/src/hid/disp/oled_display.h ****     /**
  36:../../libdaisy/src/hid/disp/oled_display.h ****     Sets the pixel at the specified coordinate to be on/off.
  37:../../libdaisy/src/hid/disp/oled_display.h ****     \param x   x Coordinate
  38:../../libdaisy/src/hid/disp/oled_display.h ****     \param y   y coordinate
  39:../../libdaisy/src/hid/disp/oled_display.h ****     \param on  on or off
  40:../../libdaisy/src/hid/disp/oled_display.h ****     */
  41:../../libdaisy/src/hid/disp/oled_display.h ****     void DrawPixel(uint_fast8_t x, uint_fast8_t y, bool on) override
 550              		.loc 1 41 10 is_stmt 1 view .LVU154
 551              	.LBB401:
 552              	.LBI401:
 239:../../libdaisy/src/dev/oled_ssd130x.h ****     {
 553              		.loc 6 239 10 view .LVU155
 554              	.LBB402:
 241:../../libdaisy/src/dev/oled_ssd130x.h ****             return;
 555              		.loc 6 241 9 is_stmt 0 view .LVU156
 556 00c6 7F29     		cmp	r1, #127
 557 00c8 06D8     		bhi	.L36
 558 00ca 3F2C     		cmp	r4, #63
 559 00cc 04D8     		bhi	.L36
 244:../../libdaisy/src/dev/oled_ssd130x.h ****         else
 560              		.loc 6 244 42 view .LVU157
 561 00ce 1078     		ldrb	r0, [r2]	@ zero_extendqisi2
 243:../../libdaisy/src/dev/oled_ssd130x.h ****             buffer_[x + (y / 8) * width] |= (1 << (y % 8));
 562              		.loc 6 243 9 view .LVU158
 563 00d0 97B1     		cbz	r7, .L38
 564              	.L61:
 243:../../libdaisy/src/dev/oled_ssd130x.h ****             buffer_[x + (y / 8) * width] |= (1 << (y % 8));
 565              		.loc 6 243 9 view .LVU159
 566              	.LBE402:
 567              	.LBE401:
 568              	.LBE400:
 569              	.LBB403:
 570              	.LBB395:
 571              	.LBB390:
 244:../../libdaisy/src/dev/oled_ssd130x.h ****         else
 572              		.loc 6 244 42 view .LVU160
 573 00d2 4EEA0000 		orr	r0, lr, r0
 574 00d6 1070     		strb	r0, [r2]
 575              	.L36:
 576              	.LBE390:
 577              	.LBE395:
 578              	.LBE403:
 376:../../libdaisy/src/hid/disp/display.h ****             {
 579              		.loc 5 376 13 is_stmt 1 view .LVU161
 580 00d8 0133     		adds	r3, r3, #1
 581              	.LVL24:
 376:../../libdaisy/src/hid/disp/display.h ****             {
 582              		.loc 5 376 26 view .LVU162
 583 00da 0132     		adds	r2, r2, #1
 584 00dc 0131     		adds	r1, r1, #1
 585 00de AB42     		cmp	r3, r5
ARM GAS  C:\Users\VINCIU~1\AppData\Local\Temp\ccdhDWPe.s 			page 28


 586 00e0 13D0     		beq	.L39
 587              	.LVL25:
 588              	.L40:
 378:../../libdaisy/src/hid/disp/display.h ****                 {
 589              		.loc 5 378 23 is_stmt 0 view .LVU163
 590 00e2 0CFA03F0 		lsl	r0, ip, r3
 378:../../libdaisy/src/hid/disp/display.h ****                 {
 591              		.loc 5 378 17 view .LVU164
 592 00e6 0004     		lsls	r0, r0, #16
 593 00e8 EDD4     		bmi	.L64
 594              	.LVL26:
 595              	.LBB404:
 596              	.LBI377:
 597              		.loc 1 41 10 is_stmt 1 view .LVU165
 598              	.LBB396:
 599              	.LBI378:
 239:../../libdaisy/src/dev/oled_ssd130x.h ****     {
 600              		.loc 6 239 10 view .LVU166
 601              	.LBB391:
 241:../../libdaisy/src/dev/oled_ssd130x.h ****             return;
 602              		.loc 6 241 9 is_stmt 0 view .LVU167
 603 00ea 7F29     		cmp	r1, #127
 604 00ec F4D8     		bhi	.L36
 605 00ee 3F2C     		cmp	r4, #63
 606 00f0 F2D8     		bhi	.L36
 244:../../libdaisy/src/dev/oled_ssd130x.h ****         else
 607              		.loc 6 244 42 view .LVU168
 608 00f2 1078     		ldrb	r0, [r2]	@ zero_extendqisi2
 243:../../libdaisy/src/dev/oled_ssd130x.h ****             buffer_[x + (y / 8) * width] |= (1 << (y % 8));
 609              		.loc 6 243 9 view .LVU169
 610 00f4 002F     		cmp	r7, #0
 611 00f6 ECD0     		beq	.L61
 612              	.L38:
 613              	.LVL27:
 614              	.LBB386:
 615              	.LBI380:
 239:../../libdaisy/src/dev/oled_ssd130x.h ****     {
 616              		.loc 6 239 10 is_stmt 1 view .LVU170
 239:../../libdaisy/src/dev/oled_ssd130x.h ****     {
 617              		.loc 6 239 10 is_stmt 0 view .LVU171
 618              	.LBE386:
 619              	.LBE391:
 620              	.LBE396:
 621              	.LBE404:
 376:../../libdaisy/src/hid/disp/display.h ****             {
 622              		.loc 5 376 13 view .LVU172
 623 00f8 0133     		adds	r3, r3, #1
 624              	.LVL28:
 625              	.LBB405:
 626              	.LBB397:
 627              	.LBB392:
 628              	.LBB387:
 629              	.LBB383:
 630              		.loc 6 246 42 view .LVU173
 631 00fa 08EA0000 		and	r0, r8, r0
 632              	.LBE383:
 633              	.LBE387:
ARM GAS  C:\Users\VINCIU~1\AppData\Local\Temp\ccdhDWPe.s 			page 29


 634              	.LBE392:
 635              	.LBE397:
 636              	.LBE405:
 376:../../libdaisy/src/hid/disp/display.h ****             {
 637              		.loc 5 376 26 view .LVU174
 638 00fe 0132     		adds	r2, r2, #1
 639 0100 0131     		adds	r1, r1, #1
 640 0102 AB42     		cmp	r3, r5
 641              	.LBB406:
 642              	.LBB398:
 643              	.LBB393:
 644              	.LBB388:
 645              	.LBB384:
 646              		.loc 6 246 42 view .LVU175
 647 0104 02F8010C 		strb	r0, [r2, #-1]
 648              		.loc 6 246 42 view .LVU176
 649              	.LBE384:
 650              	.LBE388:
 651              	.LBE393:
 652              	.LBE398:
 653              	.LBE406:
 376:../../libdaisy/src/hid/disp/display.h ****             {
 654              		.loc 5 376 13 is_stmt 1 view .LVU177
 655              	.LVL29:
 376:../../libdaisy/src/hid/disp/display.h ****             {
 656              		.loc 5 376 26 view .LVU178
 657 0108 EBD1     		bne	.L40
 658              	.LVL30:
 659              	.L39:
 373:../../libdaisy/src/hid/disp/display.h ****         {
 660              		.loc 5 373 9 view .LVU179
 373:../../libdaisy/src/hid/disp/display.h ****         {
 661              		.loc 5 373 22 view .LVU180
 662 010a D145     		cmp	r9, r10
 663 010c 04F10104 		add	r4, r4, #1
 664 0110 C3D1     		bne	.L34
 665 0112 DDF81080 		ldr	r8, [sp, #16]
 666              	.LVL31:
 667              	.L33:
 668              	.LBB407:
 669              	.LBB408:
 133:../../libdaisy/src/hid/disp/display.h ****         currentY_ = (y >= Height()) ? Height() - 1 : y;
 670              		.loc 5 133 33 is_stmt 0 view .LVU181
 671 0116 3268     		ldr	r2, [r6]
 672              	.LBE408:
 673              	.LBE407:
 394:../../libdaisy/src/hid/disp/display.h **** 
 674              		.loc 5 394 18 view .LVU182
 675 0118 0BEB0504 		add	r4, fp, r5
 676 011c 2649     		ldr	r1, .L69
 677              	.LBB413:
 678              	.LBB409:
 133:../../libdaisy/src/hid/disp/display.h ****         currentY_ = (y >= Height()) ? Height() - 1 : y;
 679              		.loc 5 133 33 view .LVU183
 680 011e D368     		ldr	r3, [r2, #12]
 681              	.LBE409:
 682              	.LBE413:
ARM GAS  C:\Users\VINCIU~1\AppData\Local\Temp\ccdhDWPe.s 			page 30


 394:../../libdaisy/src/hid/disp/display.h **** 
 683              		.loc 5 394 18 view .LVU184
 684 0120 A4B2     		uxth	r4, r4
 685              	.LVL32:
 686              	.LBB414:
 687              	.LBI407:
 131:../../libdaisy/src/hid/disp/display.h ****     {
 688              		.loc 5 131 10 is_stmt 1 view .LVU185
 689              	.LBB410:
 133:../../libdaisy/src/hid/disp/display.h ****         currentY_ = (y >= Height()) ? Height() - 1 : y;
 690              		.loc 5 133 9 view .LVU186
 691 0122 8B42     		cmp	r3, r1
 692 0124 34D1     		bne	.L65
 133:../../libdaisy/src/hid/disp/display.h ****         currentY_ = (y >= Height()) ? Height() - 1 : y;
 693              		.loc 5 133 33 is_stmt 0 view .LVU187
 694 0126 8020     		movs	r0, #128
 695              	.L41:
 133:../../libdaisy/src/hid/disp/display.h ****         currentY_ = (y >= Height()) ? Height() - 1 : y;
 696              		.loc 5 133 19 view .LVU188
 697 0128 8442     		cmp	r4, r0
 698 012a 04D3     		bcc	.L42
 133:../../libdaisy/src/hid/disp/display.h ****         currentY_ = (y >= Height()) ? Height() - 1 : y;
 699              		.loc 5 133 44 view .LVU189
 700 012c D368     		ldr	r3, [r2, #12]
 701 012e 2249     		ldr	r1, .L69
 702 0130 8B42     		cmp	r3, r1
 703 0132 3AD1     		bne	.L66
 704 0134 7F24     		movs	r4, #127
 705              	.LVL33:
 706              	.L42:
 134:../../libdaisy/src/hid/disp/display.h ****     }
 707              		.loc 5 134 34 view .LVU190
 708 0136 9368     		ldr	r3, [r2, #8]
 709 0138 204A     		ldr	r2, .L69+4
 133:../../libdaisy/src/hid/disp/display.h ****         currentY_ = (y >= Height()) ? Height() - 1 : y;
 710              		.loc 5 133 19 view .LVU191
 711 013a B480     		strh	r4, [r6, #4]	@ movhi
 134:../../libdaisy/src/hid/disp/display.h ****     }
 712              		.loc 5 134 9 is_stmt 1 view .LVU192
 713 013c 9342     		cmp	r3, r2
 714 013e 24D1     		bne	.L67
 134:../../libdaisy/src/hid/disp/display.h ****     }
 715              		.loc 5 134 34 is_stmt 0 view .LVU193
 716 0140 4020     		movs	r0, #64
 717              	.L44:
 134:../../libdaisy/src/hid/disp/display.h ****     }
 718              		.loc 5 134 19 view .LVU194
 719 0142 029B     		ldr	r3, [sp, #8]
 720 0144 8342     		cmp	r3, r0
 721 0146 06D3     		bcc	.L45
 134:../../libdaisy/src/hid/disp/display.h ****     }
 722              		.loc 5 134 46 view .LVU195
 723 0148 3368     		ldr	r3, [r6]
 724 014a 1C4A     		ldr	r2, .L69+4
 725 014c 9B68     		ldr	r3, [r3, #8]
 726 014e 9342     		cmp	r3, r2
 727 0150 25D1     		bne	.L68
ARM GAS  C:\Users\VINCIU~1\AppData\Local\Temp\ccdhDWPe.s 			page 31


 728 0152 3F23     		movs	r3, #63
 729 0154 0293     		str	r3, [sp, #8]
 730              	.LVL34:
 731              	.L45:
 134:../../libdaisy/src/hid/disp/display.h ****     }
 732              		.loc 5 134 19 view .LVU196
 733 0156 029B     		ldr	r3, [sp, #8]
 734 0158 F380     		strh	r3, [r6, #6]	@ movhi
 735              	.LVL35:
 736              	.L27:
 134:../../libdaisy/src/hid/disp/display.h ****     }
 737              		.loc 5 134 19 view .LVU197
 738              	.LBE410:
 739              	.LBE414:
 740              	.LBE376:
 741              	.LBE375:
 404:../../libdaisy/src/hid/disp/display.h ****         {
 405:../../libdaisy/src/hid/disp/display.h ****             if(((ChildType*)(this))->ChildType::WriteChar(*str, font, on)
 406:../../libdaisy/src/hid/disp/display.h ****                != *str)
 742              		.loc 5 406 16 view .LVU198
 743 015a 019B     		ldr	r3, [sp, #4]
 744 015c 1878     		ldrb	r0, [r3]	@ zero_extendqisi2
 405:../../libdaisy/src/hid/disp/display.h ****                != *str)
 745              		.loc 5 405 13 view .LVU199
 746 015e 4045     		cmp	r0, r8
 747 0160 07D1     		bne	.L25
 748              	.LVL36:
 403:../../libdaisy/src/hid/disp/display.h ****         {
 749              		.loc 5 403 9 is_stmt 1 view .LVU200
 750 0162 13F8018F 		ldrb	r8, [r3, #1]!	@ zero_extendqisi2
 751              	.LVL37:
 403:../../libdaisy/src/hid/disp/display.h ****         {
 752              		.loc 5 403 9 is_stmt 0 view .LVU201
 753 0166 0193     		str	r3, [sp, #4]
 754 0168 B8F1000F 		cmp	r8, #0
 755 016c 7FF460AF 		bne	.L48
 756              	.LVL38:
 757              	.L47:
 758              	.LBB419:
 759              	.LBB417:
 362:../../libdaisy/src/hid/disp/display.h **** 
 760              		.loc 5 362 20 view .LVU202
 761 0170 0020     		movs	r0, #0
 762              	.L25:
 763              	.LBE417:
 764              	.LBE419:
 407:../../libdaisy/src/hid/disp/display.h ****             {
 408:../../libdaisy/src/hid/disp/display.h ****                 // Char could not be written
 409:../../libdaisy/src/hid/disp/display.h ****                 return *str;
 410:../../libdaisy/src/hid/disp/display.h ****             }
 411:../../libdaisy/src/hid/disp/display.h **** 
 412:../../libdaisy/src/hid/disp/display.h ****             // Next char
 413:../../libdaisy/src/hid/disp/display.h ****             str++;
 414:../../libdaisy/src/hid/disp/display.h ****         }
 415:../../libdaisy/src/hid/disp/display.h **** 
 416:../../libdaisy/src/hid/disp/display.h ****         // Everything ok
 417:../../libdaisy/src/hid/disp/display.h ****         return *str;
ARM GAS  C:\Users\VINCIU~1\AppData\Local\Temp\ccdhDWPe.s 			page 32


 418:../../libdaisy/src/hid/disp/display.h ****     }
 765              		.loc 5 418 5 view .LVU203
 766 0172 09B0     		add	sp, sp, #36
 767              		.cfi_remember_state
 768              		.cfi_def_cfa_offset 36
 769              		@ sp needed
 770 0174 BDE8F08F 		pop	{r4, r5, r6, r7, r8, r9, r10, fp, pc}
 771              	.LVL39:
 772              	.L29:
 773              		.cfi_restore_state
 774              	.LBB420:
 775              	.LBB418:
 362:../../libdaisy/src/hid/disp/display.h **** 
 776              		.loc 5 362 20 view .LVU204
 777 0178 4FF00008 		mov	r8, #0
 778              	.LVL40:
 362:../../libdaisy/src/hid/disp/display.h **** 
 779              		.loc 5 362 20 view .LVU205
 780 017c EDE7     		b	.L27
 781              	.LVL41:
 782              	.L62:
 365:../../libdaisy/src/hid/disp/display.h ****            || Height() < (currentY_ + font.FontHeight))
 783              		.loc 5 365 17 view .LVU206
 784 017e 3046     		mov	r0, r6
 785 0180 9847     		blx	r3
 786              	.LVL42:
 787 0182 62E7     		b	.L28
 788              	.L63:
 366:../../libdaisy/src/hid/disp/display.h ****         {
 789              		.loc 5 366 21 view .LVU207
 790 0184 3046     		mov	r0, r6
 791 0186 9847     		blx	r3
 792              	.LVL43:
 793 0188 6BE7     		b	.L30
 794              	.LVL44:
 795              	.L67:
 796              	.LBB415:
 797              	.LBB411:
 134:../../libdaisy/src/hid/disp/display.h ****     }
 798              		.loc 5 134 33 view .LVU208
 799 018a 3046     		mov	r0, r6
 800 018c 9847     		blx	r3
 801              	.LVL45:
 802 018e D8E7     		b	.L44
 803              	.LVL46:
 804              	.L65:
 133:../../libdaisy/src/hid/disp/display.h ****         currentY_ = (y >= Height()) ? Height() - 1 : y;
 805              		.loc 5 133 32 view .LVU209
 806 0190 3046     		mov	r0, r6
 807 0192 9847     		blx	r3
 808              	.LVL47:
 133:../../libdaisy/src/hid/disp/display.h ****         currentY_ = (y >= Height()) ? Height() - 1 : y;
 809              		.loc 5 133 44 view .LVU210
 810 0194 3268     		ldr	r2, [r6]
 811 0196 C7E7     		b	.L41
 812              	.LVL48:
 813              	.L31:
ARM GAS  C:\Users\VINCIU~1\AppData\Local\Temp\ccdhDWPe.s 			page 33


 133:../../libdaisy/src/hid/disp/display.h ****         currentY_ = (y >= Height()) ? Height() - 1 : y;
 814              		.loc 5 133 44 view .LVU211
 815              	.LBE411:
 816              	.LBE415:
 394:../../libdaisy/src/hid/disp/display.h **** 
 817              		.loc 5 394 19 view .LVU212
 818 0198 B6F804B0 		ldrh	fp, [r6, #4]
 819 019c BBE7     		b	.L33
 820              	.LVL49:
 821              	.L68:
 822              	.LBB416:
 823              	.LBB412:
 134:../../libdaisy/src/hid/disp/display.h ****     }
 824              		.loc 5 134 45 view .LVU213
 825 019e 3046     		mov	r0, r6
 826 01a0 9847     		blx	r3
 827              	.LVL50:
 134:../../libdaisy/src/hid/disp/display.h ****     }
 828              		.loc 5 134 19 view .LVU214
 829 01a2 0138     		subs	r0, r0, #1
 830 01a4 83B2     		uxth	r3, r0
 831 01a6 0293     		str	r3, [sp, #8]
 832              	.LVL51:
 134:../../libdaisy/src/hid/disp/display.h ****     }
 833              		.loc 5 134 19 view .LVU215
 834 01a8 D5E7     		b	.L45
 835              	.LVL52:
 836              	.L66:
 133:../../libdaisy/src/hid/disp/display.h ****         currentY_ = (y >= Height()) ? Height() - 1 : y;
 837              		.loc 5 133 43 view .LVU216
 838 01aa 3046     		mov	r0, r6
 839 01ac 9847     		blx	r3
 840              	.LVL53:
 133:../../libdaisy/src/hid/disp/display.h ****         currentY_ = (y >= Height()) ? Height() - 1 : y;
 841              		.loc 5 133 19 view .LVU217
 842 01ae 0138     		subs	r0, r0, #1
 134:../../libdaisy/src/hid/disp/display.h ****     }
 843              		.loc 5 134 34 view .LVU218
 844 01b0 3268     		ldr	r2, [r6]
 133:../../libdaisy/src/hid/disp/display.h ****         currentY_ = (y >= Height()) ? Height() - 1 : y;
 845              		.loc 5 133 19 view .LVU219
 846 01b2 84B2     		uxth	r4, r0
 847              	.LVL54:
 133:../../libdaisy/src/hid/disp/display.h ****         currentY_ = (y >= Height()) ? Height() - 1 : y;
 848              		.loc 5 133 19 view .LVU220
 849 01b4 BFE7     		b	.L42
 850              	.L70:
 851 01b6 00BF     		.align	2
 852              	.L69:
 853 01b8 00000000 		.word	_ZNK5daisy11OledDisplayINS_13SSD130xDriverILj128ELj64ENS_24SSD130x4WireSpiTransportEEEE5Widt
 854 01bc 00000000 		.word	_ZNK5daisy11OledDisplayINS_13SSD130xDriverILj128ELj64ENS_24SSD130x4WireSpiTransportEEEE6Heig
 855              	.LBE412:
 856              	.LBE416:
 857              	.LBE418:
 858              	.LBE420:
 859              		.cfi_endproc
 860              	.LFE4338:
ARM GAS  C:\Users\VINCIU~1\AppData\Local\Temp\ccdhDWPe.s 			page 34


 862              		.section	.text._ZN5daisy25OneBitGraphicsDisplayImplINS_11OledDisplayINS_13SSD130xDriverILj128ELj64
 863              		.align	1
 864              		.p2align 2,,3
 865              		.weak	_ZN5daisy25OneBitGraphicsDisplayImplINS_11OledDisplayINS_13SSD130xDriverILj128ELj64ENS_24SSD
 866              		.syntax unified
 867              		.thumb
 868              		.thumb_func
 869              		.fpu fpv5-d16
 871              	_ZN5daisy25OneBitGraphicsDisplayImplINS_11OledDisplayINS_13SSD130xDriverILj128ELj64ENS_24SSD130x4Wi
 872              	.LVL55:
 873              	.LFB4342:
 217:../../libdaisy/src/hid/disp/display.h ****                   uint_fast8_t y1,
 874              		.loc 5 217 10 is_stmt 1 view -0
 875              		.cfi_startproc
 876              		@ args = 12, pretend = 0, frame = 24
 877              		@ frame_needed = 0, uses_anonymous_args = 0
 217:../../libdaisy/src/hid/disp/display.h ****                   uint_fast8_t y1,
 878              		.loc 5 217 10 is_stmt 0 view .LVU222
 879 0000 2DE9F04F 		push	{r4, r5, r6, r7, r8, r9, r10, fp, lr}
 880              		.cfi_def_cfa_offset 36
 881              		.cfi_offset 4, -36
 882              		.cfi_offset 5, -32
 883              		.cfi_offset 6, -28
 884              		.cfi_offset 7, -24
 885              		.cfi_offset 8, -20
 886              		.cfi_offset 9, -16
 887              		.cfi_offset 10, -12
 888              		.cfi_offset 11, -8
 889              		.cfi_offset 14, -4
 890 0004 87B0     		sub	sp, sp, #28
 891              		.cfi_def_cfa_offset 64
 217:../../libdaisy/src/hid/disp/display.h ****                   uint_fast8_t y1,
 892              		.loc 5 217 10 view .LVU223
 893 0006 9DF84850 		ldrb	r5, [sp, #72]	@ zero_extendqisi2
 894 000a 109C     		ldr	r4, [sp, #64]
 895 000c 2E46     		mov	r6, r5
 896 000e 0195     		str	r5, [sp, #4]
 897 0010 9DF84450 		ldrb	r5, [sp, #68]	@ zero_extendqisi2
 898              	.LBB492:
 224:../../libdaisy/src/hid/disp/display.h ****         {
 899              		.loc 5 224 9 view .LVU224
 900 0014 9EB3     		cbz	r6, .L72
 901              	.LVL56:
 224:../../libdaisy/src/hid/disp/display.h ****         {
 902              		.loc 5 224 9 view .LVU225
 903              	.LBE492:
 904              	.LBB614:
 905              	.LBB615:
 226:../../libdaisy/src/hid/disp/display.h ****             {
 906              		.loc 5 226 40 is_stmt 1 view .LVU226
 907 0016 9942     		cmp	r1, r3
 908 0018 2ED8     		bhi	.L71
 909 001a 9946     		mov	r9, r3
 910              	.LVL57:
 911              	.L75:
 912              	.LBB616:
 228:../../libdaisy/src/hid/disp/display.h ****                 {
ARM GAS  C:\Users\VINCIU~1\AppData\Local\Temp\ccdhDWPe.s 			page 35


 913              		.loc 5 228 44 view .LVU227
 914 001c A242     		cmp	r2, r4
 915 001e 28D8     		bhi	.L78
 916              	.LBB617:
 917              	.LBB618:
 918              	.LBB619:
 241:../../libdaisy/src/dev/oled_ssd130x.h ****             return;
 919              		.loc 6 241 14 is_stmt 0 view .LVU228
 920 0020 7F29     		cmp	r1, #127
 921 0022 1646     		mov	r6, r2
 922 0024 94BF     		ite	ls
 923 0026 0023     		movls	r3, #0
 924 0028 0123     		movhi	r3, #1
 925 002a 08E0     		b	.L79
 926              	.LVL58:
 927              	.L162:
 244:../../libdaisy/src/dev/oled_ssd130x.h ****         else
 928              		.loc 6 244 42 view .LVU229
 929 002c 9CF81480 		ldrb	r8, [ip, #20]	@ zero_extendqisi2
 930 0030 4EEA080E 		orr	lr, lr, r8
 931 0034 8CF814E0 		strb	lr, [ip, #20]
 932              	.LVL59:
 933              	.L76:
 244:../../libdaisy/src/dev/oled_ssd130x.h ****         else
 934              		.loc 6 244 42 view .LVU230
 935              	.LBE619:
 936              	.LBE618:
 937              	.LBE617:
 228:../../libdaisy/src/hid/disp/display.h ****                 {
 938              		.loc 5 228 17 is_stmt 1 view .LVU231
 939 0038 0136     		adds	r6, r6, #1
 940              	.LVL60:
 228:../../libdaisy/src/hid/disp/display.h ****                 {
 941              		.loc 5 228 44 view .LVU232
 942 003a B442     		cmp	r4, r6
 943 003c 19D3     		bcc	.L78
 944              	.L79:
 945              	.LVL61:
 946              	.LBB633:
 947              	.LBI617:
 948              		.loc 1 41 10 view .LVU233
 949              	.LBB630:
 950              	.LBI618:
 239:../../libdaisy/src/dev/oled_ssd130x.h ****     {
 951              		.loc 6 239 10 view .LVU234
 952              	.LBB627:
 241:../../libdaisy/src/dev/oled_ssd130x.h ****             return;
 953              		.loc 6 241 9 is_stmt 0 view .LVU235
 954 003e 3F2E     		cmp	r6, #63
 955 0040 FAD8     		bhi	.L76
 241:../../libdaisy/src/dev/oled_ssd130x.h ****             return;
 956              		.loc 6 241 9 view .LVU236
 957 0042 002B     		cmp	r3, #0
 958 0044 F8D1     		bne	.L76
 959              	.LVL62:
 960              	.LBB620:
 961              	.LBI620:
ARM GAS  C:\Users\VINCIU~1\AppData\Local\Temp\ccdhDWPe.s 			page 36


 239:../../libdaisy/src/dev/oled_ssd130x.h ****     {
 962              		.loc 6 239 10 is_stmt 1 view .LVU237
 239:../../libdaisy/src/dev/oled_ssd130x.h ****     {
 963              		.loc 6 239 10 is_stmt 0 view .LVU238
 964              	.LBE620:
 244:../../libdaisy/src/dev/oled_ssd130x.h ****         else
 965              		.loc 6 244 28 view .LVU239
 966 0046 4FEAD60C 		lsr	ip, r6, #3
 244:../../libdaisy/src/dev/oled_ssd130x.h ****         else
 967              		.loc 6 244 54 view .LVU240
 968 004a 06F0070E 		and	lr, r6, #7
 244:../../libdaisy/src/dev/oled_ssd130x.h ****         else
 969              		.loc 6 244 48 view .LVU241
 970 004e 4FF00108 		mov	r8, #1
 244:../../libdaisy/src/dev/oled_ssd130x.h ****         else
 971              		.loc 6 244 42 view .LVU242
 972 0052 01EBCC1C 		add	ip, r1, ip, lsl #7
 244:../../libdaisy/src/dev/oled_ssd130x.h ****         else
 973              		.loc 6 244 48 view .LVU243
 974 0056 08FA0EFE 		lsl	lr, r8, lr
 244:../../libdaisy/src/dev/oled_ssd130x.h ****         else
 975              		.loc 6 244 42 view .LVU244
 976 005a 8444     		add	ip, ip, r0
 243:../../libdaisy/src/dev/oled_ssd130x.h ****             buffer_[x + (y / 8) * width] |= (1 << (y % 8));
 977              		.loc 6 243 9 view .LVU245
 978 005c 002D     		cmp	r5, #0
 979 005e E5D1     		bne	.L162
 980              	.LBB624:
 981              	.LBB621:
 982              		.loc 6 246 42 view .LVU246
 983 0060 9CF814B0 		ldrb	fp, [ip, #20]	@ zero_extendqisi2
 984              	.LBE621:
 985              	.LBE624:
 986              	.LBE627:
 987              	.LBE630:
 988              	.LBE633:
 228:../../libdaisy/src/hid/disp/display.h ****                 {
 989              		.loc 5 228 17 view .LVU247
 990 0064 0136     		adds	r6, r6, #1
 991              	.LVL63:
 992              	.LBB634:
 993              	.LBB631:
 994              	.LBB628:
 995              	.LBB625:
 996              	.LBB622:
 997              		.loc 6 246 42 view .LVU248
 998 0066 2BEA0E0A 		bic	r10, fp, lr
 999              	.LBE622:
 1000              	.LBE625:
 1001              	.LBE628:
 1002              	.LBE631:
 1003              	.LBE634:
 228:../../libdaisy/src/hid/disp/display.h ****                 {
 1004              		.loc 5 228 44 view .LVU249
 1005 006a B442     		cmp	r4, r6
 1006              	.LBB635:
 1007              	.LBB632:
ARM GAS  C:\Users\VINCIU~1\AppData\Local\Temp\ccdhDWPe.s 			page 37


 1008              	.LBB629:
 1009              	.LBB626:
 1010              	.LBB623:
 1011              		.loc 6 246 42 view .LVU250
 1012 006c 8CF814A0 		strb	r10, [ip, #20]
 1013              	.LVL64:
 1014              		.loc 6 246 42 view .LVU251
 1015              	.LBE623:
 1016              	.LBE626:
 1017              	.LBE629:
 1018              	.LBE632:
 1019              	.LBE635:
 228:../../libdaisy/src/hid/disp/display.h ****                 {
 1020              		.loc 5 228 17 is_stmt 1 view .LVU252
 228:../../libdaisy/src/hid/disp/display.h ****                 {
 1021              		.loc 5 228 44 view .LVU253
 1022 0070 E5D2     		bcs	.L79
 1023              	.LVL65:
 1024              	.L78:
 228:../../libdaisy/src/hid/disp/display.h ****                 {
 1025              		.loc 5 228 44 is_stmt 0 view .LVU254
 1026              	.LBE616:
 226:../../libdaisy/src/hid/disp/display.h ****             {
 1027              		.loc 5 226 13 is_stmt 1 view .LVU255
 1028 0072 0131     		adds	r1, r1, #1
 1029              	.LVL66:
 226:../../libdaisy/src/hid/disp/display.h ****             {
 1030              		.loc 5 226 40 view .LVU256
 1031 0074 8945     		cmp	r9, r1
 1032 0076 D1D2     		bcs	.L75
 1033              	.LVL67:
 1034              	.L71:
 226:../../libdaisy/src/hid/disp/display.h ****             {
 1035              		.loc 5 226 40 is_stmt 0 view .LVU257
 1036              	.LBE615:
 1037              	.LBE614:
 241:../../libdaisy/src/hid/disp/display.h **** 
 1038              		.loc 5 241 5 view .LVU258
 1039 0078 07B0     		add	sp, sp, #28
 1040              		.cfi_remember_state
 1041              		.cfi_def_cfa_offset 36
 1042              		@ sp needed
 1043 007a BDE8F08F 		pop	{r4, r5, r6, r7, r8, r9, r10, fp, pc}
 1044              	.LVL68:
 1045              	.L72:
 1046              		.cfi_restore_state
 1047              	.LBB636:
 1048              	.LBB493:
 1049              	.LBI493:
 181:../../libdaisy/src/hid/disp/display.h ****                   uint_fast8_t y1,
 1050              		.loc 5 181 10 is_stmt 1 view .LVU259
 1051              	.LBB494:
 187:../../libdaisy/src/hid/disp/display.h ****         int_fast16_t deltaY = abs((int_fast16_t)y2 - (int_fast16_t)y1);
 1052              		.loc 5 187 52 is_stmt 0 view .LVU260
 1053 007e A3EB0108 		sub	r8, r3, r1
 187:../../libdaisy/src/hid/disp/display.h ****         int_fast16_t deltaY = abs((int_fast16_t)y2 - (int_fast16_t)y1);
 1054              		.loc 5 187 22 view .LVU261
ARM GAS  C:\Users\VINCIU~1\AppData\Local\Temp\ccdhDWPe.s 			page 38


 1055 0082 B8F1000F 		cmp	r8, #0
 1056 0086 B8BF     		it	lt
 1057 0088 C8F10008 		rsblt	r8, r8, #0
 1058              	.LVL69:
 189:../../libdaisy/src/hid/disp/display.h ****         int_fast16_t signY  = ((y1 < y2) ? 1 : -1);
 1059              		.loc 5 189 42 view .LVU262
 1060 008c 9942     		cmp	r1, r3
 1061 008e C0F04E81 		bcc	.L80
 1062              	.LVL70:
 1063              	.LBB495:
 1064              	.LBI495:
 1065              		.loc 1 41 10 is_stmt 1 view .LVU263
 1066              	.LBB496:
 1067              	.LBI496:
 239:../../libdaisy/src/dev/oled_ssd130x.h ****     {
 1068              		.loc 6 239 10 view .LVU264
 1069              	.LBB497:
 241:../../libdaisy/src/dev/oled_ssd130x.h ****             return;
 1070              		.loc 6 241 14 is_stmt 0 view .LVU265
 1071 0092 7F2B     		cmp	r3, #127
 1072              	.LBE497:
 1073              	.LBE496:
 1074              	.LBE495:
 189:../../libdaisy/src/hid/disp/display.h ****         int_fast16_t signY  = ((y1 < y2) ? 1 : -1);
 1075              		.loc 5 189 42 view .LVU266
 1076 0094 4FF0FF3A 		mov	r10, #-1
 1077              	.LBB508:
 1078              	.LBB504:
 1079              	.LBB500:
 241:../../libdaisy/src/dev/oled_ssd130x.h ****             return;
 1080              		.loc 6 241 14 view .LVU267
 1081 0098 94BF     		ite	ls
 1082 009a 0026     		movls	r6, #0
 1083 009c 0126     		movhi	r6, #1
 241:../../libdaisy/src/dev/oled_ssd130x.h ****             return;
 1084              		.loc 6 241 28 view .LVU268
 1085 009e 3F2A     		cmp	r2, #63
 241:../../libdaisy/src/dev/oled_ssd130x.h ****             return;
 1086              		.loc 6 241 14 view .LVU269
 1087 00a0 0096     		str	r6, [sp]
 241:../../libdaisy/src/dev/oled_ssd130x.h ****             return;
 1088              		.loc 6 241 28 view .LVU270
 1089 00a2 94BF     		ite	ls
 1090 00a4 0027     		movls	r7, #0
 1091 00a6 0127     		movhi	r7, #1
 1092 00a8 0297     		str	r7, [sp, #8]
 241:../../libdaisy/src/dev/oled_ssd130x.h ****             return;
 1093              		.loc 6 241 9 view .LVU271
 1094 00aa A6B9     		cbnz	r6, .L81
 1095 00ac 9FB9     		cbnz	r7, .L81
 1096              	.LVL71:
 1097              	.L122:
 244:../../libdaisy/src/dev/oled_ssd130x.h ****         else
 1098              		.loc 6 244 28 view .LVU272
 1099 00ae D608     		lsrs	r6, r2, #3
 244:../../libdaisy/src/dev/oled_ssd130x.h ****         else
 1100              		.loc 6 244 54 view .LVU273
ARM GAS  C:\Users\VINCIU~1\AppData\Local\Temp\ccdhDWPe.s 			page 39


 1101 00b0 02F0070C 		and	ip, r2, #7
 244:../../libdaisy/src/dev/oled_ssd130x.h ****         else
 1102              		.loc 6 244 48 view .LVU274
 1103 00b4 0127     		movs	r7, #1
 244:../../libdaisy/src/dev/oled_ssd130x.h ****         else
 1104              		.loc 6 244 42 view .LVU275
 1105 00b6 03EBC616 		add	r6, r3, r6, lsl #7
 1106 00ba 0644     		add	r6, r6, r0
 243:../../libdaisy/src/dev/oled_ssd130x.h ****             buffer_[x + (y / 8) * width] |= (1 << (y % 8));
 1107              		.loc 6 243 9 view .LVU276
 1108 00bc 002D     		cmp	r5, #0
 1109 00be 00F09481 		beq	.L82
 244:../../libdaisy/src/dev/oled_ssd130x.h ****         else
 1110              		.loc 6 244 48 view .LVU277
 1111 00c2 07FA0CF7 		lsl	r7, r7, ip
 244:../../libdaisy/src/dev/oled_ssd130x.h ****         else
 1112              		.loc 6 244 42 view .LVU278
 1113 00c6 96F814C0 		ldrb	ip, [r6, #20]	@ zero_extendqisi2
 1114 00ca 47EA0C07 		orr	r7, r7, ip
 1115 00ce 3775     		strb	r7, [r6, #20]
 1116 00d0 0026     		movs	r6, #0
 1117 00d2 0296     		str	r6, [sp, #8]
 1118 00d4 0096     		str	r6, [sp]
 1119              	.L81:
 1120              	.LVL72:
 244:../../libdaisy/src/dev/oled_ssd130x.h ****         else
 1121              		.loc 6 244 42 view .LVU279
 1122              	.LBE500:
 1123              	.LBE504:
 1124              	.LBE508:
 199:../../libdaisy/src/hid/disp/display.h ****         {
 1125              		.loc 5 199 26 is_stmt 1 view .LVU280
 1126 00d6 9942     		cmp	r1, r3
 1127 00d8 00F09781 		beq	.L163
 1128              	.L84:
 1129              	.LVL73:
 187:../../libdaisy/src/hid/disp/display.h ****         int_fast16_t deltaY = abs((int_fast16_t)y2 - (int_fast16_t)y1);
 1130              		.loc 5 187 22 is_stmt 0 view .LVU281
 1131 00dc 4646     		mov	r6, r8
 1132 00de 9446     		mov	ip, r2
 1133 00e0 8E46     		mov	lr, r1
 1134              	.LVL74:
 1135              	.L86:
 1136              	.LBB509:
 1137              	.LBI509:
 1138              		.loc 1 41 10 is_stmt 1 view .LVU282
 1139              	.LBB510:
 1140              	.LBI510:
 239:../../libdaisy/src/dev/oled_ssd130x.h ****     {
 1141              		.loc 6 239 10 view .LVU283
 1142              	.LBB511:
 241:../../libdaisy/src/dev/oled_ssd130x.h ****             return;
 1143              		.loc 6 241 9 is_stmt 0 view .LVU284
 1144 00e2 BEF17F0F 		cmp	lr, #127
 1145 00e6 16D8     		bhi	.L87
 1146 00e8 BCF13F0F 		cmp	ip, #63
 1147 00ec 13D8     		bhi	.L87
ARM GAS  C:\Users\VINCIU~1\AppData\Local\Temp\ccdhDWPe.s 			page 40


 244:../../libdaisy/src/dev/oled_ssd130x.h ****         else
 1148              		.loc 6 244 28 view .LVU285
 1149 00ee 4FEADC07 		lsr	r7, ip, #3
 244:../../libdaisy/src/dev/oled_ssd130x.h ****         else
 1150              		.loc 6 244 54 view .LVU286
 1151 00f2 0CF0070B 		and	fp, ip, #7
 244:../../libdaisy/src/dev/oled_ssd130x.h ****         else
 1152              		.loc 6 244 48 view .LVU287
 1153 00f6 4FF00109 		mov	r9, #1
 244:../../libdaisy/src/dev/oled_ssd130x.h ****         else
 1154              		.loc 6 244 42 view .LVU288
 1155 00fa 0EEBC717 		add	r7, lr, r7, lsl #7
 1156 00fe 0744     		add	r7, r7, r0
 243:../../libdaisy/src/dev/oled_ssd130x.h ****             buffer_[x + (y / 8) * width] |= (1 << (y % 8));
 1157              		.loc 6 243 9 view .LVU289
 1158 0100 002D     		cmp	r5, #0
 1159 0102 00F03981 		beq	.L88
 244:../../libdaisy/src/dev/oled_ssd130x.h ****         else
 1160              		.loc 6 244 48 view .LVU290
 1161 0106 09FA0BF9 		lsl	r9, r9, fp
 244:../../libdaisy/src/dev/oled_ssd130x.h ****         else
 1162              		.loc 6 244 42 view .LVU291
 1163 010a 97F814B0 		ldrb	fp, [r7, #20]	@ zero_extendqisi2
 1164 010e 49EA0B09 		orr	r9, r9, fp
 1165 0112 87F81490 		strb	r9, [r7, #20]
 1166              	.L87:
 1167              	.LVL75:
 244:../../libdaisy/src/dev/oled_ssd130x.h ****         else
 1168              		.loc 6 244 42 view .LVU292
 1169              	.LBE511:
 1170              	.LBE510:
 1171              	.LBE509:
 203:../../libdaisy/src/hid/disp/display.h ****             {
 1172              		.loc 5 203 13 view .LVU293
 1173 0116 7700     		lsls	r7, r6, #1
 1174              	.LVL76:
 206:../../libdaisy/src/hid/disp/display.h ****             }
 1175              		.loc 5 206 20 view .LVU294
 1176 0118 18BF     		it	ne
 1177 011a D644     		addne	lr, lr, r10
 1178              	.LVL77:
 209:../../libdaisy/src/hid/disp/display.h ****             {
 1179              		.loc 5 209 13 view .LVU295
 1180 011c B845     		cmp	r8, r7
 1181 011e 02DD     		ble	.L90
 211:../../libdaisy/src/hid/disp/display.h ****                 y1 += signY;
 1182              		.loc 5 211 23 view .LVU296
 1183 0120 4644     		add	r6, r6, r8
 1184              	.LVL78:
 212:../../libdaisy/src/hid/disp/display.h ****             }
 1185              		.loc 5 212 20 view .LVU297
 1186 0122 0CF1FF3C 		add	ip, ip, #-1
 1187              	.LVL79:
 1188              	.L90:
 199:../../libdaisy/src/hid/disp/display.h ****         {
 1189              		.loc 5 199 26 is_stmt 1 view .LVU298
 1190 0126 7345     		cmp	r3, lr
ARM GAS  C:\Users\VINCIU~1\AppData\Local\Temp\ccdhDWPe.s 			page 41


 1191 0128 DBD1     		bne	.L86
 199:../../libdaisy/src/hid/disp/display.h ****         {
 1192              		.loc 5 199 26 is_stmt 0 view .LVU299
 1193 012a 6245     		cmp	r2, ip
 1194 012c D9D1     		bne	.L86
 1195 012e 0026     		movs	r6, #0
 1196              	.LVL80:
 199:../../libdaisy/src/hid/disp/display.h ****         {
 1197              		.loc 5 199 26 view .LVU300
 1198 0130 0496     		str	r6, [sp, #16]
 1199              	.LVL81:
 1200              	.L83:
 199:../../libdaisy/src/hid/disp/display.h ****         {
 1201              		.loc 5 199 26 view .LVU301
 1202              	.LBE494:
 1203              	.LBE493:
 1204              	.LBB524:
 1205              	.LBI524:
 181:../../libdaisy/src/hid/disp/display.h ****                   uint_fast8_t y1,
 1206              		.loc 5 181 10 is_stmt 1 view .LVU302
 1207              	.LBB525:
 188:../../libdaisy/src/hid/disp/display.h ****         int_fast16_t signX  = ((x1 < x2) ? 1 : -1);
 1208              		.loc 5 188 52 is_stmt 0 view .LVU303
 1209 0132 A4EB0209 		sub	r9, r4, r2
 1210              	.LBB526:
 1211              	.LBB527:
 1212              	.LBB528:
 241:../../libdaisy/src/dev/oled_ssd130x.h ****             return;
 1213              		.loc 6 241 9 view .LVU304
 1214 0136 009F     		ldr	r7, [sp]
 1215              	.LBE528:
 1216              	.LBE527:
 1217              	.LBE526:
 188:../../libdaisy/src/hid/disp/display.h ****         int_fast16_t signX  = ((x1 < x2) ? 1 : -1);
 1218              		.loc 5 188 22 view .LVU305
 1219 0138 B9F1000F 		cmp	r9, #0
 1220 013c B8BF     		it	lt
 1221 013e C9F10009 		rsblt	r9, r9, #0
 1222              	.LVL82:
 1223              	.LBB543:
 1224              	.LBB537:
 1225              	.LBB531:
 241:../../libdaisy/src/dev/oled_ssd130x.h ****             return;
 1226              		.loc 6 241 28 view .LVU306
 1227 0142 3F2C     		cmp	r4, #63
 1228 0144 94BF     		ite	ls
 1229 0146 0026     		movls	r6, #0
 1230 0148 0126     		movhi	r6, #1
 1231              	.LBE531:
 1232              	.LBE537:
 1233              	.LBE543:
 190:../../libdaisy/src/hid/disp/display.h ****         int_fast16_t error  = deltaX - deltaY;
 1234              		.loc 5 190 42 view .LVU307
 1235 014a A242     		cmp	r2, r4
 191:../../libdaisy/src/hid/disp/display.h ****         int_fast16_t error2;
 1236              		.loc 5 191 22 view .LVU308
 1237 014c C9F10008 		rsb	r8, r9, #0
ARM GAS  C:\Users\VINCIU~1\AppData\Local\Temp\ccdhDWPe.s 			page 42


 1238              	.LVL83:
 1239              	.LBB544:
 1240              	.LBI526:
 1241              		.loc 1 41 10 is_stmt 1 view .LVU309
 1242              	.LBB538:
 1243              	.LBI527:
 239:../../libdaisy/src/dev/oled_ssd130x.h ****     {
 1244              		.loc 6 239 10 view .LVU310
 1245              	.LBB532:
 241:../../libdaisy/src/dev/oled_ssd130x.h ****             return;
 1246              		.loc 6 241 28 is_stmt 0 view .LVU311
 1247 0150 0396     		str	r6, [sp, #12]
 1248              	.LBE532:
 1249              	.LBE538:
 1250              	.LBE544:
 190:../../libdaisy/src/hid/disp/display.h ****         int_fast16_t error  = deltaX - deltaY;
 1251              		.loc 5 190 42 view .LVU312
 1252 0152 C0F02381 		bcc	.L91
 1253              	.LVL84:
 1254              	.LBB545:
 1255              	.LBB539:
 1256              	.LBB533:
 241:../../libdaisy/src/dev/oled_ssd130x.h ****             return;
 1257              		.loc 6 241 9 view .LVU313
 1258 0156 002F     		cmp	r7, #0
 1259 0158 40F05081 		bne	.L126
 1260 015c 002E     		cmp	r6, #0
 1261 015e 40F04D81 		bne	.L126
 1262              	.LBE533:
 1263              	.LBE539:
 1264              	.LBE545:
 190:../../libdaisy/src/hid/disp/display.h ****         int_fast16_t error  = deltaX - deltaY;
 1265              		.loc 5 190 42 view .LVU314
 1266 0162 4FF0FF36 		mov	r6, #-1
 1267 0166 0096     		str	r6, [sp]
 1268              	.LBB546:
 1269              	.LBB540:
 1270              	.LBB534:
 244:../../libdaisy/src/dev/oled_ssd130x.h ****         else
 1271              		.loc 6 244 28 view .LVU315
 1272 0168 E608     		lsrs	r6, r4, #3
 244:../../libdaisy/src/dev/oled_ssd130x.h ****         else
 1273              		.loc 6 244 42 view .LVU316
 1274 016a 03EBC616 		add	r6, r3, r6, lsl #7
 1275 016e 0644     		add	r6, r6, r0
 243:../../libdaisy/src/dev/oled_ssd130x.h ****             buffer_[x + (y / 8) * width] |= (1 << (y % 8));
 1276              		.loc 6 243 9 view .LVU317
 1277 0170 002D     		cmp	r5, #0
 1278 0172 00F01E81 		beq	.L93
 1279              	.LVL85:
 1280              	.L165:
 244:../../libdaisy/src/dev/oled_ssd130x.h ****         else
 1281              		.loc 6 244 48 view .LVU318
 1282 0176 4FF0010C 		mov	ip, #1
 244:../../libdaisy/src/dev/oled_ssd130x.h ****         else
 1283              		.loc 6 244 54 view .LVU319
 1284 017a 04F00707 		and	r7, r4, #7
ARM GAS  C:\Users\VINCIU~1\AppData\Local\Temp\ccdhDWPe.s 			page 43


 244:../../libdaisy/src/dev/oled_ssd130x.h ****         else
 1285              		.loc 6 244 48 view .LVU320
 1286 017e 0CFA07F7 		lsl	r7, ip, r7
 244:../../libdaisy/src/dev/oled_ssd130x.h ****         else
 1287              		.loc 6 244 42 view .LVU321
 1288 0182 96F814C0 		ldrb	ip, [r6, #20]	@ zero_extendqisi2
 1289 0186 47EA0C07 		orr	r7, r7, ip
 1290 018a 3775     		strb	r7, [r6, #20]
 1291 018c 0026     		movs	r6, #0
 1292 018e 0396     		str	r6, [sp, #12]
 1293              	.L92:
 1294              	.LVL86:
 244:../../libdaisy/src/dev/oled_ssd130x.h ****         else
 1295              		.loc 6 244 42 view .LVU322
 1296              	.LBE534:
 1297              	.LBE540:
 1298              	.LBE546:
 199:../../libdaisy/src/hid/disp/display.h ****         {
 1299              		.loc 5 199 26 is_stmt 1 view .LVU323
 1300 0190 A242     		cmp	r2, r4
 1301 0192 00F03D81 		beq	.L164
 1302              	.L95:
 1303              	.LVL87:
 190:../../libdaisy/src/hid/disp/display.h ****         int_fast16_t error  = deltaX - deltaY;
 1304              		.loc 5 190 42 is_stmt 0 view .LVU324
 1305 0196 C446     		mov	ip, r8
 1306 0198 1646     		mov	r6, r2
 1307 019a 1F46     		mov	r7, r3
 1308 019c 0592     		str	r2, [sp, #20]
 1309              	.LVL88:
 1310              	.L97:
 1311              	.LBB547:
 1312              	.LBI547:
 1313              		.loc 1 41 10 is_stmt 1 view .LVU325
 1314              	.LBB548:
 1315              	.LBI548:
 239:../../libdaisy/src/dev/oled_ssd130x.h ****     {
 1316              		.loc 6 239 10 view .LVU326
 1317              	.LBB549:
 241:../../libdaisy/src/dev/oled_ssd130x.h ****             return;
 1318              		.loc 6 241 9 is_stmt 0 view .LVU327
 1319 019e 7F2F     		cmp	r7, #127
 1320 01a0 15D8     		bhi	.L98
 1321 01a2 3F2E     		cmp	r6, #63
 1322 01a4 13D8     		bhi	.L98
 244:../../libdaisy/src/dev/oled_ssd130x.h ****         else
 1323              		.loc 6 244 28 view .LVU328
 1324 01a6 4FEAD60E 		lsr	lr, r6, #3
 244:../../libdaisy/src/dev/oled_ssd130x.h ****         else
 1325              		.loc 6 244 54 view .LVU329
 1326 01aa 06F0070B 		and	fp, r6, #7
 244:../../libdaisy/src/dev/oled_ssd130x.h ****         else
 1327              		.loc 6 244 48 view .LVU330
 1328 01ae 4FF0010A 		mov	r10, #1
 244:../../libdaisy/src/dev/oled_ssd130x.h ****         else
 1329              		.loc 6 244 42 view .LVU331
 1330 01b2 07EBCE1E 		add	lr, r7, lr, lsl #7
ARM GAS  C:\Users\VINCIU~1\AppData\Local\Temp\ccdhDWPe.s 			page 44


 1331 01b6 8644     		add	lr, lr, r0
 243:../../libdaisy/src/dev/oled_ssd130x.h ****             buffer_[x + (y / 8) * width] |= (1 << (y % 8));
 1332              		.loc 6 243 9 view .LVU332
 1333 01b8 002D     		cmp	r5, #0
 1334 01ba 00F0E680 		beq	.L99
 244:../../libdaisy/src/dev/oled_ssd130x.h ****         else
 1335              		.loc 6 244 48 view .LVU333
 1336 01be 0AFA0BFA 		lsl	r10, r10, fp
 244:../../libdaisy/src/dev/oled_ssd130x.h ****         else
 1337              		.loc 6 244 42 view .LVU334
 1338 01c2 9EF814B0 		ldrb	fp, [lr, #20]	@ zero_extendqisi2
 1339 01c6 4AEA0B0A 		orr	r10, r10, fp
 1340 01ca 8EF814A0 		strb	r10, [lr, #20]
 1341              	.L98:
 1342              	.LVL89:
 244:../../libdaisy/src/dev/oled_ssd130x.h ****         else
 1343              		.loc 6 244 42 view .LVU335
 1344              	.LBE549:
 1345              	.LBE548:
 1346              	.LBE547:
 203:../../libdaisy/src/hid/disp/display.h ****             {
 1347              		.loc 5 203 13 view .LVU336
 1348 01ce B8EB4C0F 		cmp	r8, ip, lsl #1
 202:../../libdaisy/src/hid/disp/display.h ****             if(error2 > -deltaY)
 1349              		.loc 5 202 20 view .LVU337
 1350 01d2 4FEA4C0E 		lsl	lr, ip, #1
 1351              	.LVL90:
 203:../../libdaisy/src/hid/disp/display.h ****             {
 1352              		.loc 5 203 13 view .LVU338
 1353 01d6 02DA     		bge	.L100
 205:../../libdaisy/src/hid/disp/display.h ****                 x1 += signX;
 1354              		.loc 5 205 23 view .LVU339
 1355 01d8 ACEB090C 		sub	ip, ip, r9
 1356              	.LVL91:
 206:../../libdaisy/src/hid/disp/display.h ****             }
 1357              		.loc 5 206 20 view .LVU340
 1358 01dc 013F     		subs	r7, r7, #1
 1359              	.LVL92:
 1360              	.L100:
 209:../../libdaisy/src/hid/disp/display.h ****             {
 1361              		.loc 5 209 13 view .LVU341
 1362 01de BEF1000F 		cmp	lr, #0
 1363 01e2 01D0     		beq	.L101
 212:../../libdaisy/src/hid/disp/display.h ****             }
 1364              		.loc 5 212 20 view .LVU342
 1365 01e4 009A     		ldr	r2, [sp]
 1366 01e6 1644     		add	r6, r6, r2
 1367              	.LVL93:
 1368              	.L101:
 199:../../libdaisy/src/hid/disp/display.h ****         {
 1369              		.loc 5 199 26 is_stmt 1 view .LVU343
 1370 01e8 BB42     		cmp	r3, r7
 1371 01ea D8D1     		bne	.L97
 199:../../libdaisy/src/hid/disp/display.h ****         {
 1372              		.loc 5 199 26 is_stmt 0 view .LVU344
 1373 01ec B442     		cmp	r4, r6
 1374 01ee D6D1     		bne	.L97
ARM GAS  C:\Users\VINCIU~1\AppData\Local\Temp\ccdhDWPe.s 			page 45


 1375 01f0 059A     		ldr	r2, [sp, #20]
 1376              	.LVL94:
 1377              	.L94:
 199:../../libdaisy/src/hid/disp/display.h ****         {
 1378              		.loc 5 199 26 view .LVU345
 1379              	.LBE525:
 1380              	.LBE524:
 1381              	.LBB560:
 1382              	.LBI560:
 181:../../libdaisy/src/hid/disp/display.h ****                   uint_fast8_t y1,
 1383              		.loc 5 181 10 is_stmt 1 view .LVU346
 1384              	.LBB561:
 187:../../libdaisy/src/hid/disp/display.h ****         int_fast16_t deltaY = abs((int_fast16_t)y2 - (int_fast16_t)y1);
 1385              		.loc 5 187 52 is_stmt 0 view .LVU347
 1386 01f2 A1EB030E 		sub	lr, r1, r3
 187:../../libdaisy/src/hid/disp/display.h ****         int_fast16_t deltaY = abs((int_fast16_t)y2 - (int_fast16_t)y1);
 1387              		.loc 5 187 22 view .LVU348
 1388 01f6 BEF1000F 		cmp	lr, #0
 1389 01fa B8BF     		it	lt
 1390 01fc CEF1000E 		rsblt	lr, lr, #0
 1391              	.LVL95:
 1392              	.LBB562:
 1393              	.LBB563:
 1394              	.LBB564:
 241:../../libdaisy/src/dev/oled_ssd130x.h ****             return;
 1395              		.loc 6 241 14 view .LVU349
 1396 0200 7F29     		cmp	r1, #127
 1397 0202 94BF     		ite	ls
 1398 0204 4FF0000A 		movls	r10, #0
 1399 0208 4FF0010A 		movhi	r10, #1
 1400              	.LBE564:
 1401              	.LBE563:
 1402              	.LBE562:
 189:../../libdaisy/src/hid/disp/display.h ****         int_fast16_t signY  = ((y1 < y2) ? 1 : -1);
 1403              		.loc 5 189 42 view .LVU350
 1404 020c 9942     		cmp	r1, r3
 1405 020e 8CBF     		ite	hi
 1406 0210 4FF00109 		movhi	r9, #1
 1407 0214 4FF0FF39 		movls	r9, #-1
 1408              	.LVL96:
 1409              	.LBB571:
 1410              	.LBI562:
 1411              		.loc 1 41 10 is_stmt 1 view .LVU351
 1412              	.LBB569:
 1413              	.LBI563:
 239:../../libdaisy/src/dev/oled_ssd130x.h ****     {
 1414              		.loc 6 239 10 view .LVU352
 1415              	.LBB567:
 241:../../libdaisy/src/dev/oled_ssd130x.h ****             return;
 1416              		.loc 6 241 9 is_stmt 0 view .LVU353
 1417 0218 BAF1000F 		cmp	r10, #0
 1418 021c 13D1     		bne	.L103
 1419 021e 039E     		ldr	r6, [sp, #12]
 1420 0220 8EB9     		cbnz	r6, .L103
 244:../../libdaisy/src/dev/oled_ssd130x.h ****         else
 1421              		.loc 6 244 28 view .LVU354
 1422 0222 E608     		lsrs	r6, r4, #3
ARM GAS  C:\Users\VINCIU~1\AppData\Local\Temp\ccdhDWPe.s 			page 46


 244:../../libdaisy/src/dev/oled_ssd130x.h ****         else
 1423              		.loc 6 244 42 view .LVU355
 1424 0224 01EBC616 		add	r6, r1, r6, lsl #7
 1425 0228 0644     		add	r6, r6, r0
 243:../../libdaisy/src/dev/oled_ssd130x.h ****             buffer_[x + (y / 8) * width] |= (1 << (y % 8));
 1426              		.loc 6 243 9 view .LVU356
 1427 022a 002D     		cmp	r5, #0
 1428 022c 00F0D380 		beq	.L104
 244:../../libdaisy/src/dev/oled_ssd130x.h ****         else
 1429              		.loc 6 244 48 view .LVU357
 1430 0230 4FF0010C 		mov	ip, #1
 244:../../libdaisy/src/dev/oled_ssd130x.h ****         else
 1431              		.loc 6 244 54 view .LVU358
 1432 0234 04F00707 		and	r7, r4, #7
 244:../../libdaisy/src/dev/oled_ssd130x.h ****         else
 1433              		.loc 6 244 48 view .LVU359
 1434 0238 0CFA07F7 		lsl	r7, ip, r7
 244:../../libdaisy/src/dev/oled_ssd130x.h ****         else
 1435              		.loc 6 244 42 view .LVU360
 1436 023c 96F814C0 		ldrb	ip, [r6, #20]	@ zero_extendqisi2
 1437 0240 47EA0C07 		orr	r7, r7, ip
 1438 0244 3775     		strb	r7, [r6, #20]
 1439              	.L103:
 1440              	.LVL97:
 244:../../libdaisy/src/dev/oled_ssd130x.h ****         else
 1441              		.loc 6 244 42 view .LVU361
 1442              	.LBE567:
 1443              	.LBE569:
 1444              	.LBE571:
 199:../../libdaisy/src/hid/disp/display.h ****         {
 1445              		.loc 5 199 26 is_stmt 1 view .LVU362
 1446 0246 049E     		ldr	r6, [sp, #16]
 1447 0248 26BB     		cbnz	r6, .L105
 187:../../libdaisy/src/hid/disp/display.h ****         int_fast16_t deltaY = abs((int_fast16_t)y2 - (int_fast16_t)y1);
 1448              		.loc 5 187 22 is_stmt 0 view .LVU363
 1449 024a 7746     		mov	r7, lr
 199:../../libdaisy/src/hid/disp/display.h ****         {
 1450              		.loc 5 199 26 view .LVU364
 1451 024c 2646     		mov	r6, r4
 1452              	.LVL98:
 1453              	.L106:
 1454              	.LBB572:
 1455              	.LBI572:
 1456              		.loc 1 41 10 is_stmt 1 view .LVU365
 1457              	.LBB573:
 1458              	.LBI573:
 239:../../libdaisy/src/dev/oled_ssd130x.h ****     {
 1459              		.loc 6 239 10 view .LVU366
 1460              	.LBB574:
 241:../../libdaisy/src/dev/oled_ssd130x.h ****             return;
 1461              		.loc 6 241 9 is_stmt 0 view .LVU367
 1462 024e 7F2B     		cmp	r3, #127
 1463 0250 14D8     		bhi	.L108
 241:../../libdaisy/src/dev/oled_ssd130x.h ****             return;
 1464              		.loc 6 241 9 view .LVU368
 1465 0252 3F2E     		cmp	r6, #63
 1466 0254 12D8     		bhi	.L108
ARM GAS  C:\Users\VINCIU~1\AppData\Local\Temp\ccdhDWPe.s 			page 47


 244:../../libdaisy/src/dev/oled_ssd130x.h ****         else
 1467              		.loc 6 244 28 view .LVU369
 1468 0256 4FEAD60C 		lsr	ip, r6, #3
 244:../../libdaisy/src/dev/oled_ssd130x.h ****         else
 1469              		.loc 6 244 54 view .LVU370
 1470 025a 06F0070B 		and	fp, r6, #7
 244:../../libdaisy/src/dev/oled_ssd130x.h ****         else
 1471              		.loc 6 244 48 view .LVU371
 1472 025e 4FF00108 		mov	r8, #1
 244:../../libdaisy/src/dev/oled_ssd130x.h ****         else
 1473              		.loc 6 244 42 view .LVU372
 1474 0262 03EBCC1C 		add	ip, r3, ip, lsl #7
 1475 0266 8444     		add	ip, ip, r0
 243:../../libdaisy/src/dev/oled_ssd130x.h ****             buffer_[x + (y / 8) * width] |= (1 << (y % 8));
 1476              		.loc 6 243 9 view .LVU373
 1477 0268 002D     		cmp	r5, #0
 1478 026a 73D0     		beq	.L109
 244:../../libdaisy/src/dev/oled_ssd130x.h ****         else
 1479              		.loc 6 244 48 view .LVU374
 1480 026c 08FA0BF8 		lsl	r8, r8, fp
 244:../../libdaisy/src/dev/oled_ssd130x.h ****         else
 1481              		.loc 6 244 42 view .LVU375
 1482 0270 9CF814B0 		ldrb	fp, [ip, #20]	@ zero_extendqisi2
 1483 0274 48EA0B08 		orr	r8, r8, fp
 1484 0278 8CF81480 		strb	r8, [ip, #20]
 1485              	.L108:
 1486              	.LVL99:
 244:../../libdaisy/src/dev/oled_ssd130x.h ****         else
 1487              		.loc 6 244 42 view .LVU376
 1488              	.LBE574:
 1489              	.LBE573:
 1490              	.LBE572:
 203:../../libdaisy/src/hid/disp/display.h ****             {
 1491              		.loc 5 203 13 view .LVU377
 1492 027c 5FEA470C 		lsls	ip, r7, #1
 1493              	.LVL100:
 206:../../libdaisy/src/hid/disp/display.h ****             }
 1494              		.loc 5 206 20 view .LVU378
 1495 0280 18BF     		it	ne
 1496 0282 4B44     		addne	r3, r3, r9
 1497              	.LVL101:
 209:../../libdaisy/src/hid/disp/display.h ****             {
 1498              		.loc 5 209 13 view .LVU379
 1499 0284 E645     		cmp	lr, ip
 1500 0286 01DD     		ble	.L111
 211:../../libdaisy/src/hid/disp/display.h ****                 y1 += signY;
 1501              		.loc 5 211 23 view .LVU380
 1502 0288 7744     		add	r7, r7, lr
 1503              	.LVL102:
 212:../../libdaisy/src/hid/disp/display.h ****             }
 1504              		.loc 5 212 20 view .LVU381
 1505 028a 013E     		subs	r6, r6, #1
 1506              	.LVL103:
 1507              	.L111:
 199:../../libdaisy/src/hid/disp/display.h ****         {
 1508              		.loc 5 199 26 is_stmt 1 view .LVU382
 1509 028c 9942     		cmp	r1, r3
ARM GAS  C:\Users\VINCIU~1\AppData\Local\Temp\ccdhDWPe.s 			page 48


 1510 028e DED1     		bne	.L106
 199:../../libdaisy/src/hid/disp/display.h ****         {
 1511              		.loc 5 199 26 is_stmt 0 view .LVU383
 1512 0290 B442     		cmp	r4, r6
 1513 0292 DCD1     		bne	.L106
 1514              	.LVL104:
 1515              	.L105:
 199:../../libdaisy/src/hid/disp/display.h ****         {
 1516              		.loc 5 199 26 view .LVU384
 1517              	.LBE561:
 1518              	.LBE560:
 1519              	.LBB583:
 1520              	.LBI583:
 181:../../libdaisy/src/hid/disp/display.h ****                   uint_fast8_t y1,
 1521              		.loc 5 181 10 is_stmt 1 view .LVU385
 1522              	.LBB584:
 188:../../libdaisy/src/hid/disp/display.h ****         int_fast16_t signX  = ((x1 < x2) ? 1 : -1);
 1523              		.loc 5 188 52 is_stmt 0 view .LVU386
 1524 0294 A2EB040E 		sub	lr, r2, r4
 188:../../libdaisy/src/hid/disp/display.h ****         int_fast16_t signX  = ((x1 < x2) ? 1 : -1);
 1525              		.loc 5 188 22 view .LVU387
 1526 0298 BEF1000F 		cmp	lr, #0
 1527 029c B8BF     		it	lt
 1528 029e CEF1000E 		rsblt	lr, lr, #0
 1529              	.LVL105:
 190:../../libdaisy/src/hid/disp/display.h ****         int_fast16_t error  = deltaX - deltaY;
 1530              		.loc 5 190 42 view .LVU388
 1531 02a2 A242     		cmp	r2, r4
 1532 02a4 8CBF     		ite	hi
 1533 02a6 4FF00108 		movhi	r8, #1
 1534 02aa 4FF0FF38 		movls	r8, #-1
 1535              	.LVL106:
 191:../../libdaisy/src/hid/disp/display.h ****         int_fast16_t error2;
 1536              		.loc 5 191 22 view .LVU389
 1537 02ae CEF1000C 		rsb	ip, lr, #0
 1538              	.LVL107:
 1539              	.LBB585:
 1540              	.LBI585:
 1541              		.loc 1 41 10 is_stmt 1 view .LVU390
 1542              	.LBB586:
 1543              	.LBI586:
 239:../../libdaisy/src/dev/oled_ssd130x.h ****     {
 1544              		.loc 6 239 10 view .LVU391
 1545              	.LBB587:
 241:../../libdaisy/src/dev/oled_ssd130x.h ****             return;
 1546              		.loc 6 241 9 is_stmt 0 view .LVU392
 1547 02b2 BAF1000F 		cmp	r10, #0
 1548 02b6 0ED1     		bne	.L113
 1549 02b8 029B     		ldr	r3, [sp, #8]
 1550 02ba 63B9     		cbnz	r3, .L113
 244:../../libdaisy/src/dev/oled_ssd130x.h ****         else
 1551              		.loc 6 244 28 view .LVU393
 1552 02bc D308     		lsrs	r3, r2, #3
 244:../../libdaisy/src/dev/oled_ssd130x.h ****         else
 1553              		.loc 6 244 54 view .LVU394
 1554 02be 02F00707 		and	r7, r2, #7
 244:../../libdaisy/src/dev/oled_ssd130x.h ****         else
ARM GAS  C:\Users\VINCIU~1\AppData\Local\Temp\ccdhDWPe.s 			page 49


 1555              		.loc 6 244 48 view .LVU395
 1556 02c2 0126     		movs	r6, #1
 244:../../libdaisy/src/dev/oled_ssd130x.h ****         else
 1557              		.loc 6 244 42 view .LVU396
 1558 02c4 01EBC313 		add	r3, r1, r3, lsl #7
 1559 02c8 0344     		add	r3, r3, r0
 243:../../libdaisy/src/dev/oled_ssd130x.h ****             buffer_[x + (y / 8) * width] |= (1 << (y % 8));
 1560              		.loc 6 243 9 view .LVU397
 1561 02ca 002D     		cmp	r5, #0
 1562 02cc 7CD0     		beq	.L114
 244:../../libdaisy/src/dev/oled_ssd130x.h ****         else
 1563              		.loc 6 244 48 view .LVU398
 1564 02ce BE40     		lsls	r6, r6, r7
 244:../../libdaisy/src/dev/oled_ssd130x.h ****         else
 1565              		.loc 6 244 42 view .LVU399
 1566 02d0 1F7D     		ldrb	r7, [r3, #20]	@ zero_extendqisi2
 1567 02d2 3E43     		orrs	r6, r6, r7
 1568 02d4 1E75     		strb	r6, [r3, #20]
 1569              	.L113:
 1570              	.LVL108:
 244:../../libdaisy/src/dev/oled_ssd130x.h ****         else
 1571              		.loc 6 244 42 view .LVU400
 1572              	.LBE587:
 1573              	.LBE586:
 1574              	.LBE585:
 199:../../libdaisy/src/hid/disp/display.h ****         {
 1575              		.loc 5 199 26 is_stmt 1 view .LVU401
 1576 02d6 019B     		ldr	r3, [sp, #4]
 1577 02d8 002B     		cmp	r3, #0
 1578 02da 7FF4CDAE 		bne	.L71
 1579 02de 6646     		mov	r6, ip
 1580 02e0 0B46     		mov	r3, r1
 1581              	.LVL109:
 1582              	.L115:
 1583              	.LBB592:
 1584              	.LBI592:
 1585              		.loc 1 41 10 view .LVU402
 1586              	.LBB593:
 1587              	.LBI593:
 239:../../libdaisy/src/dev/oled_ssd130x.h ****     {
 1588              		.loc 6 239 10 view .LVU403
 1589              	.LBB594:
 241:../../libdaisy/src/dev/oled_ssd130x.h ****             return;
 1590              		.loc 6 241 9 is_stmt 0 view .LVU404
 1591 02e2 7F2B     		cmp	r3, #127
 1592 02e4 12D8     		bhi	.L117
 241:../../libdaisy/src/dev/oled_ssd130x.h ****             return;
 1593              		.loc 6 241 9 view .LVU405
 1594 02e6 3F2C     		cmp	r4, #63
 1595 02e8 10D8     		bhi	.L117
 244:../../libdaisy/src/dev/oled_ssd130x.h ****         else
 1596              		.loc 6 244 28 view .LVU406
 1597 02ea E708     		lsrs	r7, r4, #3
 244:../../libdaisy/src/dev/oled_ssd130x.h ****         else
 1598              		.loc 6 244 54 view .LVU407
 1599 02ec 04F0070A 		and	r10, r4, #7
 244:../../libdaisy/src/dev/oled_ssd130x.h ****         else
ARM GAS  C:\Users\VINCIU~1\AppData\Local\Temp\ccdhDWPe.s 			page 50


 1600              		.loc 6 244 48 view .LVU408
 1601 02f0 4FF00109 		mov	r9, #1
 244:../../libdaisy/src/dev/oled_ssd130x.h ****         else
 1602              		.loc 6 244 42 view .LVU409
 1603 02f4 03EBC717 		add	r7, r3, r7, lsl #7
 1604 02f8 0744     		add	r7, r7, r0
 243:../../libdaisy/src/dev/oled_ssd130x.h ****             buffer_[x + (y / 8) * width] |= (1 << (y % 8));
 1605              		.loc 6 243 9 view .LVU410
 1606 02fa A5B3     		cbz	r5, .L118
 244:../../libdaisy/src/dev/oled_ssd130x.h ****         else
 1607              		.loc 6 244 48 view .LVU411
 1608 02fc 09FA0AF9 		lsl	r9, r9, r10
 244:../../libdaisy/src/dev/oled_ssd130x.h ****         else
 1609              		.loc 6 244 42 view .LVU412
 1610 0300 97F814A0 		ldrb	r10, [r7, #20]	@ zero_extendqisi2
 1611 0304 49EA0A09 		orr	r9, r9, r10
 1612 0308 87F81490 		strb	r9, [r7, #20]
 1613              	.L117:
 1614              	.LVL110:
 244:../../libdaisy/src/dev/oled_ssd130x.h ****         else
 1615              		.loc 6 244 42 view .LVU413
 1616              	.LBE594:
 1617              	.LBE593:
 1618              	.LBE592:
 203:../../libdaisy/src/hid/disp/display.h ****             {
 1619              		.loc 5 203 13 view .LVU414
 1620 030c BCEB460F 		cmp	ip, r6, lsl #1
 202:../../libdaisy/src/hid/disp/display.h ****             if(error2 > -deltaY)
 1621              		.loc 5 202 20 view .LVU415
 1622 0310 4FEA4607 		lsl	r7, r6, #1
 1623              	.LVL111:
 203:../../libdaisy/src/hid/disp/display.h ****             {
 1624              		.loc 5 203 13 view .LVU416
 1625 0314 02DA     		bge	.L119
 205:../../libdaisy/src/hid/disp/display.h ****                 x1 += signX;
 1626              		.loc 5 205 23 view .LVU417
 1627 0316 A6EB0E06 		sub	r6, r6, lr
 1628              	.LVL112:
 206:../../libdaisy/src/hid/disp/display.h ****             }
 1629              		.loc 5 206 20 view .LVU418
 1630 031a 013B     		subs	r3, r3, #1
 1631              	.LVL113:
 1632              	.L119:
 209:../../libdaisy/src/hid/disp/display.h ****             {
 1633              		.loc 5 209 13 view .LVU419
 1634 031c 07B1     		cbz	r7, .L120
 212:../../libdaisy/src/hid/disp/display.h ****             }
 1635              		.loc 5 212 20 view .LVU420
 1636 031e 4444     		add	r4, r4, r8
 1637              	.LVL114:
 1638              	.L120:
 199:../../libdaisy/src/hid/disp/display.h ****         {
 1639              		.loc 5 199 26 is_stmt 1 view .LVU421
 1640 0320 9942     		cmp	r1, r3
 1641 0322 DED1     		bne	.L115
 199:../../libdaisy/src/hid/disp/display.h ****         {
 1642              		.loc 5 199 26 is_stmt 0 view .LVU422
ARM GAS  C:\Users\VINCIU~1\AppData\Local\Temp\ccdhDWPe.s 			page 51


 1643 0324 A242     		cmp	r2, r4
 1644 0326 DCD1     		bne	.L115
 1645              	.LBE584:
 1646              	.LBE583:
 1647              	.LBE636:
 241:../../libdaisy/src/hid/disp/display.h **** 
 1648              		.loc 5 241 5 view .LVU423
 1649 0328 07B0     		add	sp, sp, #28
 1650              		.cfi_remember_state
 1651              		.cfi_def_cfa_offset 36
 1652              		@ sp needed
 1653 032a BDE8F08F 		pop	{r4, r5, r6, r7, r8, r9, r10, fp, pc}
 1654              	.LVL115:
 1655              	.L80:
 1656              		.cfi_restore_state
 1657              	.LBB637:
 1658              	.LBB603:
 1659              	.LBB520:
 1660              	.LBB516:
 1661              		.loc 1 41 10 is_stmt 1 view .LVU424
 1662              	.LBB505:
 239:../../libdaisy/src/dev/oled_ssd130x.h ****     {
 1663              		.loc 6 239 10 view .LVU425
 1664              	.LBB501:
 241:../../libdaisy/src/dev/oled_ssd130x.h ****             return;
 1665              		.loc 6 241 28 is_stmt 0 view .LVU426
 1666 032e 3F2A     		cmp	r2, #63
 1667              	.LBE501:
 1668              	.LBE505:
 1669              	.LBE516:
 189:../../libdaisy/src/hid/disp/display.h ****         int_fast16_t signY  = ((y1 < y2) ? 1 : -1);
 1670              		.loc 5 189 42 view .LVU427
 1671 0330 4FF0010A 		mov	r10, #1
 1672              	.LBB517:
 1673              	.LBB506:
 1674              	.LBB502:
 241:../../libdaisy/src/dev/oled_ssd130x.h ****             return;
 1675              		.loc 6 241 28 view .LVU428
 1676 0334 94BF     		ite	ls
 1677 0336 0026     		movls	r6, #0
 1678 0338 0126     		movhi	r6, #1
 241:../../libdaisy/src/dev/oled_ssd130x.h ****             return;
 1679              		.loc 6 241 14 view .LVU429
 1680 033a 7F2B     		cmp	r3, #127
 241:../../libdaisy/src/dev/oled_ssd130x.h ****             return;
 1681              		.loc 6 241 28 view .LVU430
 1682 033c 0296     		str	r6, [sp, #8]
 241:../../libdaisy/src/dev/oled_ssd130x.h ****             return;
 1683              		.loc 6 241 14 view .LVU431
 1684 033e 94BF     		ite	ls
 1685 0340 0027     		movls	r7, #0
 1686 0342 0127     		movhi	r7, #1
 1687 0344 0097     		str	r7, [sp]
 241:../../libdaisy/src/dev/oled_ssd130x.h ****             return;
 1688              		.loc 6 241 9 view .LVU432
 1689 0346 002E     		cmp	r6, #0
 1690 0348 7FF4C8AE 		bne	.L84
ARM GAS  C:\Users\VINCIU~1\AppData\Local\Temp\ccdhDWPe.s 			page 52


 1691 034c 002F     		cmp	r7, #0
 1692 034e 3FF4AEAE 		beq	.L122
 1693 0352 C3E6     		b	.L84
 1694              	.LVL116:
 1695              	.L109:
 241:../../libdaisy/src/dev/oled_ssd130x.h ****             return;
 1696              		.loc 6 241 9 view .LVU433
 1697              	.LBE502:
 1698              	.LBE506:
 1699              	.LBE517:
 1700              	.LBE520:
 1701              	.LBE603:
 1702              	.LBB604:
 1703              	.LBB581:
 1704              	.LBB579:
 1705              	.LBB578:
 1706              	.LBB577:
 1707              	.LBB575:
 1708              	.LBI575:
 239:../../libdaisy/src/dev/oled_ssd130x.h ****     {
 1709              		.loc 6 239 10 is_stmt 1 view .LVU434
 1710              	.LBB576:
 1711              		.loc 6 246 49 is_stmt 0 view .LVU435
 1712 0354 08FA0BFB 		lsl	fp, r8, fp
 1713              		.loc 6 246 42 view .LVU436
 1714 0358 9CF81480 		ldrb	r8, [ip, #20]	@ zero_extendqisi2
 1715 035c 28EA0B08 		bic	r8, r8, fp
 1716 0360 8CF81480 		strb	r8, [ip, #20]
 1717 0364 8AE7     		b	.L108
 1718              	.LVL117:
 1719              	.L118:
 1720              		.loc 6 246 42 view .LVU437
 1721              	.LBE576:
 1722              	.LBE575:
 1723              	.LBE577:
 1724              	.LBE578:
 1725              	.LBE579:
 1726              	.LBE581:
 1727              	.LBE604:
 1728              	.LBB605:
 1729              	.LBB601:
 1730              	.LBB599:
 1731              	.LBB598:
 1732              	.LBB597:
 1733              	.LBB595:
 1734              	.LBI595:
 239:../../libdaisy/src/dev/oled_ssd130x.h ****     {
 1735              		.loc 6 239 10 is_stmt 1 view .LVU438
 1736              	.LBB596:
 1737              		.loc 6 246 49 is_stmt 0 view .LVU439
 1738 0366 09FA0AFA 		lsl	r10, r9, r10
 1739              		.loc 6 246 42 view .LVU440
 1740 036a 97F81490 		ldrb	r9, [r7, #20]	@ zero_extendqisi2
 1741 036e 29EA0A09 		bic	r9, r9, r10
 1742 0372 87F81490 		strb	r9, [r7, #20]
 1743 0376 C9E7     		b	.L117
 1744              	.LVL118:
ARM GAS  C:\Users\VINCIU~1\AppData\Local\Temp\ccdhDWPe.s 			page 53


 1745              	.L88:
 1746              		.loc 6 246 42 view .LVU441
 1747              	.LBE596:
 1748              	.LBE595:
 1749              	.LBE597:
 1750              	.LBE598:
 1751              	.LBE599:
 1752              	.LBE601:
 1753              	.LBE605:
 1754              	.LBB606:
 1755              	.LBB521:
 1756              	.LBB518:
 1757              	.LBB515:
 1758              	.LBB514:
 1759              	.LBB512:
 1760              	.LBI512:
 239:../../libdaisy/src/dev/oled_ssd130x.h ****     {
 1761              		.loc 6 239 10 is_stmt 1 view .LVU442
 1762              	.LBB513:
 1763              		.loc 6 246 49 is_stmt 0 view .LVU443
 1764 0378 09FA0BFB 		lsl	fp, r9, fp
 1765              		.loc 6 246 42 view .LVU444
 1766 037c 97F81490 		ldrb	r9, [r7, #20]	@ zero_extendqisi2
 1767 0380 29EA0B09 		bic	r9, r9, fp
 1768 0384 87F81490 		strb	r9, [r7, #20]
 1769 0388 C5E6     		b	.L87
 1770              	.LVL119:
 1771              	.L99:
 1772              		.loc 6 246 42 view .LVU445
 1773              	.LBE513:
 1774              	.LBE512:
 1775              	.LBE514:
 1776              	.LBE515:
 1777              	.LBE518:
 1778              	.LBE521:
 1779              	.LBE606:
 1780              	.LBB607:
 1781              	.LBB557:
 1782              	.LBB554:
 1783              	.LBB553:
 1784              	.LBB552:
 1785              	.LBB550:
 1786              	.LBI550:
 239:../../libdaisy/src/dev/oled_ssd130x.h ****     {
 1787              		.loc 6 239 10 is_stmt 1 view .LVU446
 1788              	.LBB551:
 1789              		.loc 6 246 49 is_stmt 0 view .LVU447
 1790 038a 0AFA0BFB 		lsl	fp, r10, fp
 1791              		.loc 6 246 42 view .LVU448
 1792 038e 9EF814A0 		ldrb	r10, [lr, #20]	@ zero_extendqisi2
 1793 0392 2AEA0B0A 		bic	r10, r10, fp
 1794 0396 8EF814A0 		strb	r10, [lr, #20]
 1795 039a 18E7     		b	.L98
 1796              	.LVL120:
 1797              	.L91:
 1798              		.loc 6 246 42 view .LVU449
 1799              	.LBE551:
ARM GAS  C:\Users\VINCIU~1\AppData\Local\Temp\ccdhDWPe.s 			page 54


 1800              	.LBE550:
 1801              	.LBE552:
 1802              	.LBE553:
 1803              	.LBE554:
 1804              	.LBB555:
 1805              	.LBB541:
 1806              	.LBB535:
 241:../../libdaisy/src/dev/oled_ssd130x.h ****             return;
 1807              		.loc 6 241 9 view .LVU450
 1808 039c 97BB     		cbnz	r7, .L130
 1809 039e 8EBB     		cbnz	r6, .L130
 1810              	.LBE535:
 1811              	.LBE541:
 1812              	.LBE555:
 190:../../libdaisy/src/hid/disp/display.h ****         int_fast16_t error  = deltaX - deltaY;
 1813              		.loc 5 190 42 view .LVU451
 1814 03a0 0126     		movs	r6, #1
 1815 03a2 0096     		str	r6, [sp]
 1816              	.LBB556:
 1817              	.LBB542:
 1818              	.LBB536:
 244:../../libdaisy/src/dev/oled_ssd130x.h ****         else
 1819              		.loc 6 244 28 view .LVU452
 1820 03a4 E608     		lsrs	r6, r4, #3
 244:../../libdaisy/src/dev/oled_ssd130x.h ****         else
 1821              		.loc 6 244 42 view .LVU453
 1822 03a6 03EBC616 		add	r6, r3, r6, lsl #7
 1823 03aa 0644     		add	r6, r6, r0
 243:../../libdaisy/src/dev/oled_ssd130x.h ****             buffer_[x + (y / 8) * width] |= (1 << (y % 8));
 1824              		.loc 6 243 9 view .LVU454
 1825 03ac 002D     		cmp	r5, #0
 1826 03ae 7FF4E2AE 		bne	.L165
 1827              	.LVL121:
 1828              	.L93:
 1829              	.LBB529:
 1830              	.LBI529:
 239:../../libdaisy/src/dev/oled_ssd130x.h ****     {
 1831              		.loc 6 239 10 is_stmt 1 view .LVU455
 1832              	.LBB530:
 1833              		.loc 6 246 49 is_stmt 0 view .LVU456
 1834 03b2 0127     		movs	r7, #1
 1835              		.loc 6 246 55 view .LVU457
 1836 03b4 04F0070C 		and	ip, r4, #7
 1837              		.loc 6 246 42 view .LVU458
 1838 03b8 0395     		str	r5, [sp, #12]
 1839              		.loc 6 246 49 view .LVU459
 1840 03ba 07FA0CFC 		lsl	ip, r7, ip
 1841              		.loc 6 246 42 view .LVU460
 1842 03be 377D     		ldrb	r7, [r6, #20]	@ zero_extendqisi2
 1843 03c0 27EA0C07 		bic	r7, r7, ip
 1844 03c4 3775     		strb	r7, [r6, #20]
 1845 03c6 E3E6     		b	.L92
 1846              	.LVL122:
 1847              	.L114:
 1848              		.loc 6 246 42 view .LVU461
 1849              	.LBE530:
 1850              	.LBE529:
ARM GAS  C:\Users\VINCIU~1\AppData\Local\Temp\ccdhDWPe.s 			page 55


 1851              	.LBE536:
 1852              	.LBE542:
 1853              	.LBE556:
 1854              	.LBE557:
 1855              	.LBE607:
 1856              	.LBB608:
 1857              	.LBB602:
 1858              	.LBB600:
 1859              	.LBB591:
 1860              	.LBB590:
 1861              	.LBB588:
 1862              	.LBI588:
 239:../../libdaisy/src/dev/oled_ssd130x.h ****     {
 1863              		.loc 6 239 10 is_stmt 1 view .LVU462
 1864              	.LBB589:
 1865              		.loc 6 246 49 is_stmt 0 view .LVU463
 1866 03c8 06FA07F7 		lsl	r7, r6, r7
 1867              		.loc 6 246 42 view .LVU464
 1868 03cc 1E7D     		ldrb	r6, [r3, #20]	@ zero_extendqisi2
 1869 03ce 26EA0706 		bic	r6, r6, r7
 1870 03d2 1E75     		strb	r6, [r3, #20]
 1871 03d4 7FE7     		b	.L113
 1872              	.LVL123:
 1873              	.L104:
 1874              		.loc 6 246 42 view .LVU465
 1875              	.LBE589:
 1876              	.LBE588:
 1877              	.LBE590:
 1878              	.LBE591:
 1879              	.LBE600:
 1880              	.LBE602:
 1881              	.LBE608:
 1882              	.LBB609:
 1883              	.LBB582:
 1884              	.LBB580:
 1885              	.LBB570:
 1886              	.LBB568:
 1887              	.LBB565:
 1888              	.LBI565:
 239:../../libdaisy/src/dev/oled_ssd130x.h ****     {
 1889              		.loc 6 239 10 is_stmt 1 view .LVU466
 1890              	.LBB566:
 1891              		.loc 6 246 49 is_stmt 0 view .LVU467
 1892 03d6 0127     		movs	r7, #1
 1893              		.loc 6 246 55 view .LVU468
 1894 03d8 04F0070C 		and	ip, r4, #7
 1895              		.loc 6 246 49 view .LVU469
 1896 03dc 07FA0CFC 		lsl	ip, r7, ip
 1897              		.loc 6 246 42 view .LVU470
 1898 03e0 377D     		ldrb	r7, [r6, #20]	@ zero_extendqisi2
 1899 03e2 27EA0C07 		bic	r7, r7, ip
 1900 03e6 3775     		strb	r7, [r6, #20]
 1901 03e8 2DE7     		b	.L103
 1902              	.LVL124:
 1903              	.L82:
 1904              		.loc 6 246 42 view .LVU471
 1905              	.LBE566:
ARM GAS  C:\Users\VINCIU~1\AppData\Local\Temp\ccdhDWPe.s 			page 56


 1906              	.LBE565:
 1907              	.LBE568:
 1908              	.LBE570:
 1909              	.LBE580:
 1910              	.LBE582:
 1911              	.LBE609:
 1912              	.LBB610:
 1913              	.LBB522:
 1914              	.LBB519:
 1915              	.LBB507:
 1916              	.LBB503:
 1917              	.LBB498:
 1918              	.LBI498:
 239:../../libdaisy/src/dev/oled_ssd130x.h ****     {
 1919              		.loc 6 239 10 is_stmt 1 view .LVU472
 1920              	.LBB499:
 1921              		.loc 6 246 49 is_stmt 0 view .LVU473
 1922 03ea 07FA0CFC 		lsl	ip, r7, ip
 1923              		.loc 6 246 42 view .LVU474
 1924 03ee 377D     		ldrb	r7, [r6, #20]	@ zero_extendqisi2
 1925 03f0 0295     		str	r5, [sp, #8]
 1926 03f2 27EA0C07 		bic	r7, r7, ip
 1927 03f6 0095     		str	r5, [sp]
 1928 03f8 3775     		strb	r7, [r6, #20]
 1929 03fa 6CE6     		b	.L81
 1930              	.LVL125:
 1931              	.L126:
 1932              		.loc 6 246 42 view .LVU475
 1933              	.LBE499:
 1934              	.LBE498:
 1935              	.LBE503:
 1936              	.LBE507:
 1937              	.LBE519:
 1938              	.LBE522:
 1939              	.LBE610:
 1940              	.LBB611:
 1941              	.LBB558:
 190:../../libdaisy/src/hid/disp/display.h ****         int_fast16_t error  = deltaX - deltaY;
 1942              		.loc 5 190 42 view .LVU476
 1943 03fc 4FF0FF36 		mov	r6, #-1
 1944 0400 0096     		str	r6, [sp]
 1945 0402 C5E6     		b	.L92
 1946              	.LVL126:
 1947              	.L130:
 190:../../libdaisy/src/hid/disp/display.h ****         int_fast16_t error  = deltaX - deltaY;
 1948              		.loc 5 190 42 view .LVU477
 1949 0404 0126     		movs	r6, #1
 1950 0406 0096     		str	r6, [sp]
 1951 0408 C5E6     		b	.L95
 1952              	.LVL127:
 1953              	.L163:
 190:../../libdaisy/src/hid/disp/display.h ****         int_fast16_t error  = deltaX - deltaY;
 1954              		.loc 5 190 42 view .LVU478
 1955              	.LBE558:
 1956              	.LBE611:
 1957              	.LBB612:
 1958              	.LBB523:
ARM GAS  C:\Users\VINCIU~1\AppData\Local\Temp\ccdhDWPe.s 			page 57


 199:../../libdaisy/src/hid/disp/display.h ****         {
 1959              		.loc 5 199 19 view .LVU479
 1960 040a 0126     		movs	r6, #1
 1961 040c 0496     		str	r6, [sp, #16]
 1962 040e 90E6     		b	.L83
 1963              	.LVL128:
 1964              	.L164:
 199:../../libdaisy/src/hid/disp/display.h ****         {
 1965              		.loc 5 199 19 view .LVU480
 1966              	.LBE523:
 1967              	.LBE612:
 1968              	.LBB613:
 1969              	.LBB559:
 199:../../libdaisy/src/hid/disp/display.h ****         {
 1970              		.loc 5 199 33 view .LVU481
 1971 0410 0126     		movs	r6, #1
 1972 0412 0196     		str	r6, [sp, #4]
 1973 0414 EDE6     		b	.L94
 1974              	.LBE559:
 1975              	.LBE613:
 1976              	.LBE637:
 1977              		.cfi_endproc
 1978              	.LFE4342:
 1980 0416 00BF     		.section	.rodata._ZN5Menus5Menu1E23OledDisplayExtravaganzaPN7daisysp10OscillatorE.str1.4,"aMS",%pr
 1981              		.align	2
 1982              	.LC1:
 1983 0000 00       		.ascii	"\000"
 1984 0001 000000   		.align	2
 1985              	.LC2:
 1986 0004 4F736300 		.ascii	"Osc\000"
 1987              		.align	2
 1988              	.LC3:
 1989 0008 53656D69 		.ascii	"Semi_%dst\000"
 1989      5F256473 
 1989      7400
 1990 0012 0000     		.align	2
 1991              	.LC4:
 1992 0014 46696E65 		.ascii	"Fine_%d%%\000"
 1992      5F256425 
 1992      2500
 1993              		.section	.text._ZN5Menus5Menu1E23OledDisplayExtravaganzaPN7daisysp10OscillatorE,"ax",%progbits
 1994              		.align	1
 1995              		.p2align 2,,3
 1996              		.global	_ZN5Menus5Menu1E23OledDisplayExtravaganzaPN7daisysp10OscillatorE
 1997              		.syntax unified
 1998              		.thumb
 1999              		.thumb_func
 2000              		.fpu fpv5-d16
 2002              	_ZN5Menus5Menu1E23OledDisplayExtravaganzaPN7daisysp10OscillatorE:
 2003              	.LVL129:
 2004              	.LFB4039:
  93:Menus.cpp     **** 
  94:Menus.cpp     **** void Menus::Menu1(OledDisplayExtravaganza screen, daisysp::Oscillator osc[])
  95:Menus.cpp     **** 
  96:Menus.cpp     **** {
 2005              		.loc 2 96 1 is_stmt 1 view -0
 2006              		.cfi_startproc
ARM GAS  C:\Users\VINCIU~1\AppData\Local\Temp\ccdhDWPe.s 			page 58


 2007              		@ args = 0, pretend = 0, frame = 8
 2008              		@ frame_needed = 0, uses_anonymous_args = 0
 2009              		.loc 2 96 1 is_stmt 0 view .LVU483
 2010 0000 2DE9F043 		push	{r4, r5, r6, r7, r8, r9, lr}
 2011              		.cfi_def_cfa_offset 28
 2012              		.cfi_offset 4, -28
 2013              		.cfi_offset 5, -24
 2014              		.cfi_offset 6, -20
 2015              		.cfi_offset 7, -16
 2016              		.cfi_offset 8, -12
 2017              		.cfi_offset 9, -8
 2018              		.cfi_offset 14, -4
  97:Menus.cpp     ****     screen.Fill(!on);
 2019              		.loc 2 97 18 view .LVU484
 2020 0004 90F8E081 		ldrb	r8, [r0, #480]	@ zero_extendqisi2
 2021 0008 01F11406 		add	r6, r1, #20
  96:Menus.cpp     ****     screen.Fill(!on);
 2022              		.loc 2 96 1 view .LVU485
 2023 000c 0C46     		mov	r4, r1
 2024 000e 0546     		mov	r5, r0
 2025              		.loc 2 97 5 is_stmt 1 view .LVU486
 2026              	.LVL130:
 2027              	.LBB788:
 2028              	.LBI788:
  33:../../libdaisy/src/hid/disp/oled_display.h **** 
 2029              		.loc 1 33 10 view .LVU487
 2030              	.LBB789:
 2031              	.LBI789:
 247:../../libdaisy/src/dev/oled_ssd130x.h ****     }
 248:../../libdaisy/src/dev/oled_ssd130x.h **** 
 249:../../libdaisy/src/dev/oled_ssd130x.h ****     void Fill(bool on)
 2032              		.loc 6 249 10 view .LVU488
 2033              	.LBB790:
 250:../../libdaisy/src/dev/oled_ssd130x.h ****     {
 251:../../libdaisy/src/dev/oled_ssd130x.h ****         for(size_t i = 0; i < sizeof(buffer_); i++)
 2034              		.loc 6 251 29 view .LVU489
 252:../../libdaisy/src/dev/oled_ssd130x.h ****         {
 253:../../libdaisy/src/dev/oled_ssd130x.h ****             buffer_[i] = on ? 0xff : 0x00;
 2035              		.loc 6 253 24 is_stmt 0 view .LVU490
 2036 0010 88F00101 		eor	r1, r8, #1
 2037              	.LVL131:
 2038              		.loc 6 253 24 view .LVU491
 2039              	.LBE790:
 2040              	.LBE789:
 2041              	.LBE788:
  96:Menus.cpp     ****     screen.Fill(!on);
 2042              		.loc 2 96 1 view .LVU492
 2043 0014 1746     		mov	r7, r2
 2044              	.LBB797:
 2045              	.LBB794:
 2046              	.LBB791:
 2047              		.loc 6 253 24 view .LVU493
 2048 0016 3046     		mov	r0, r6
 2049              	.LVL132:
 2050              		.loc 6 253 24 view .LVU494
 2051 0018 4FF48062 		mov	r2, #1024
 2052              	.LVL133:
ARM GAS  C:\Users\VINCIU~1\AppData\Local\Temp\ccdhDWPe.s 			page 59


 2053              		.loc 6 253 24 view .LVU495
 2054 001c 4942     		rsbs	r1, r1, #0
 2055              	.LBE791:
 2056              	.LBE794:
 2057              	.LBE797:
  96:Menus.cpp     ****     screen.Fill(!on);
 2058              		.loc 2 96 1 view .LVU496
 2059 001e 2DED028B 		vpush.64	{d8}
 2060              		.cfi_def_cfa_offset 36
 2061              		.cfi_offset 80, -36
 2062              		.cfi_offset 81, -32
 2063              	.LBB798:
 2064              	.LBB795:
 2065              	.LBB792:
 2066              		.loc 6 253 24 view .LVU497
 2067 0022 C9B2     		uxtb	r1, r1
 2068              	.LBE792:
 2069              	.LBE795:
 2070              	.LBE798:
  96:Menus.cpp     ****     screen.Fill(!on);
 2071              		.loc 2 96 1 view .LVU498
 2072 0024 87B0     		sub	sp, sp, #28
 2073              		.cfi_def_cfa_offset 64
 2074              	.LBB799:
 2075              	.LBB796:
 2076              	.LBB793:
 2077              		.loc 6 253 24 view .LVU499
 2078 0026 FFF7FEFF 		bl	memset
 2079              	.LVL134:
 2080              		.loc 6 253 24 view .LVU500
 2081              	.LBE793:
 2082              	.LBE796:
 2083              	.LBE799:
  98:Menus.cpp     ****     if(this->buttonLeft.RisingEdge())
 2084              		.loc 2 98 5 is_stmt 1 view .LVU501
 2085              	.LBB800:
 2086              	.LBI800:
  41:../../libdaisy/src/hid/switch.h ****     ~Switch() {}
  42:../../libdaisy/src/hid/switch.h **** 
  43:../../libdaisy/src/hid/switch.h ****     /** 
  44:../../libdaisy/src/hid/switch.h ****     Initializes the switch object with a given port/pin combo.
  45:../../libdaisy/src/hid/switch.h ****     \param pin port/pin object to tell the switch which hardware pin to use.
  46:../../libdaisy/src/hid/switch.h ****     \param update_rate the rate at which the Debounce() function will be called. (used for timing).
  47:../../libdaisy/src/hid/switch.h ****     \param t switch type -- Default: TYPE_MOMENTARY
  48:../../libdaisy/src/hid/switch.h ****     \param pol switch polarity -- Default: POLARITY_INVERTED
  49:../../libdaisy/src/hid/switch.h ****     \param pu switch pull up/down -- Default: PULL_UP
  50:../../libdaisy/src/hid/switch.h ****     */
  51:../../libdaisy/src/hid/switch.h ****     void
  52:../../libdaisy/src/hid/switch.h ****     Init(dsy_gpio_pin pin, float update_rate, Type t, Polarity pol, Pull pu);
  53:../../libdaisy/src/hid/switch.h **** 
  54:../../libdaisy/src/hid/switch.h ****     /**
  55:../../libdaisy/src/hid/switch.h ****        Simplified Init.
  56:../../libdaisy/src/hid/switch.h ****        \param pin port/pin object to tell the switch which hardware pin to use.
  57:../../libdaisy/src/hid/switch.h ****        \param update_rate the rate at which the Debounce() function will be called. (used for timin
  58:../../libdaisy/src/hid/switch.h ****     */
  59:../../libdaisy/src/hid/switch.h ****     void Init(dsy_gpio_pin pin, float update_rate);
  60:../../libdaisy/src/hid/switch.h **** 
ARM GAS  C:\Users\VINCIU~1\AppData\Local\Temp\ccdhDWPe.s 			page 60


  61:../../libdaisy/src/hid/switch.h ****     /** 
  62:../../libdaisy/src/hid/switch.h ****     Called at update_rate to debounce and handle timing for the switch.
  63:../../libdaisy/src/hid/switch.h ****     In order for events not to be missed, its important that the Edge/Pressed checks
  64:../../libdaisy/src/hid/switch.h ****     be made at the same rate as the debounce function is being called.
  65:../../libdaisy/src/hid/switch.h ****     */
  66:../../libdaisy/src/hid/switch.h ****     void Debounce();
  67:../../libdaisy/src/hid/switch.h **** 
  68:../../libdaisy/src/hid/switch.h ****     /** \return true if a button was just pressed. */
  69:../../libdaisy/src/hid/switch.h ****     inline bool RisingEdge() const { return state_ == 0x7f; }
 2087              		.loc 4 69 17 view .LVU502
 2088              	.LBB801:
 2089              		.loc 4 69 38 view .LVU503
 2090              		.loc 4 69 38 is_stmt 0 view .LVU504
 2091              	.LBE801:
 2092              	.LBE800:
 2093              		.loc 2 98 5 view .LVU505
 2094 002a 95F85130 		ldrb	r3, [r5, #81]	@ zero_extendqisi2
 2095 002e 7F2B     		cmp	r3, #127
 2096 0030 00F04482 		beq	.L257
  99:Menus.cpp     **** 
 100:Menus.cpp     ****     {
 101:Menus.cpp     ****         menuState = menuState - 1;
 102:Menus.cpp     ****         if(menuState < 0)
 103:Menus.cpp     ****         {
 104:Menus.cpp     ****             menuState = 3;
 105:Menus.cpp     ****         }
 106:Menus.cpp     ****     }
 107:Menus.cpp     ****     if(this->buttonRight.RisingEdge())
 2097              		.loc 2 107 5 is_stmt 1 view .LVU506
 2098              	.LVL135:
 2099              	.LBB802:
 2100              	.LBI802:
 2101              		.loc 4 69 17 view .LVU507
 2102              	.LBB803:
 2103              		.loc 4 69 38 view .LVU508
 2104              		.loc 4 69 38 is_stmt 0 view .LVU509
 2105              	.LBE803:
 2106              	.LBE802:
 2107              		.loc 2 107 5 view .LVU510
 2108 0034 95F86130 		ldrb	r3, [r5, #97]	@ zero_extendqisi2
 2109 0038 7F2B     		cmp	r3, #127
 2110 003a 00F04882 		beq	.L258
 2111              	.L170:
 108:Menus.cpp     **** 
 109:Menus.cpp     ****     {
 110:Menus.cpp     ****         menuState = menuState + 1;
 111:Menus.cpp     ****         if(menuState > 3)
 112:Menus.cpp     ****         {
 113:Menus.cpp     ****             menuState = 0;
 114:Menus.cpp     ****         }
 115:Menus.cpp     ****     }
 116:Menus.cpp     **** 
 117:Menus.cpp     ****     screen.drawHorizontalToggle(46, 13, 8, on, this->OscSelector, "");
 2112              		.loc 2 117 5 is_stmt 1 view .LVU511
 2113              		.loc 2 117 32 is_stmt 0 view .LVU512
 2114 003e 4146     		mov	r1, r8
 2115 0040 B2EE001A 		vmov.f32	s2, #8.0e+0
ARM GAS  C:\Users\VINCIU~1\AppData\Local\Temp\ccdhDWPe.s 			page 61


 2116 0044 F2EE0A0A 		vmov.f32	s1, #1.3e+1
 2117 0048 9FEDC30A 		vldr.32	s0, .L274
 2118 004c C34B     		ldr	r3, .L274+4
 2119 004e 2046     		mov	r0, r4
 2120 0050 95F87420 		ldrb	r2, [r5, #116]	@ zero_extendqisi2
 2121 0054 FFF7FEFF 		bl	_ZN23OledDisplayExtravaganza20drawHorizontalToggleEfffbbPKc
 2122              	.LVL136:
 118:Menus.cpp     **** 
 119:Menus.cpp     ****     if(this->OscSelector == true)
 2123              		.loc 2 119 5 is_stmt 1 view .LVU513
 2124 0058 95F87480 		ldrb	r8, [r5, #116]	@ zero_extendqisi2
 2125 005c B8F1000F 		cmp	r8, #0
 2126 0060 00F02681 		beq	.L172
 120:Menus.cpp     ****     {
 121:Menus.cpp     ****         screen.drawSlider(70, 7, 50, 3, on, ((this->drawSliderSemi)) / 40);
 2127              		.loc 2 121 9 view .LVU514
 2128              		.loc 2 121 26 is_stmt 0 view .LVU515
 2129 0064 95F8E031 		ldrb	r3, [r5, #480]	@ zero_extendqisi2
 2130 0068 F0EE081A 		vmov.f32	s3, #3.0e+0
 2131 006c D5ED1E2A 		vldr.32	s5, [r5, #120]
 2132 0070 F1EE0C0A 		vmov.f32	s1, #7.0e+0
 2133 0074 02EE103A 		vmov	s4, r3	@ int
 2134 0078 9FEDC68A 		vldr.32	s16, .L274+60
 2135 007c 2046     		mov	r0, r4
 2136 007e 9FEDB81A 		vldr.32	s2, .L274+8
 2137 0082 C2EE882A 		vdiv.f32	s5, s5, s16
 2138 0086 9FEDB70A 		vldr.32	s0, .L274+12
 122:Menus.cpp     ****         screen.drawSlider(70, 40, 50, 3, on, drawSliderFine);
 123:Menus.cpp     ****         screen.drawVerticalToggle(13, 51, 8, on, this->toggleOsc, "");
 124:Menus.cpp     ****         screen.WaveIcons(35, 42, 55, this->selectedWave, on);
 125:Menus.cpp     ****         screen.SetCursor(70, 17);
 126:Menus.cpp     ****         screen.WriteString(this->buff, Font_6x8, true);
 2139              		.loc 2 126 27 view .LVU516
 2140 008a DFF8FC82 		ldr	r8, .L274+48
 2141 008e 4FF00109 		mov	r9, #1
 121:Menus.cpp     ****         screen.drawSlider(70, 40, 50, 3, on, drawSliderFine);
 2142              		.loc 2 121 26 view .LVU517
 2143 0092 B8EE422A 		vcvt.f32.u32	s4, s4
 2144 0096 FFF7FEFF 		bl	_ZN23OledDisplayExtravaganza10drawSliderEffffff
 2145              	.LVL137:
 122:Menus.cpp     ****         screen.drawSlider(70, 40, 50, 3, on, drawSliderFine);
 2146              		.loc 2 122 9 is_stmt 1 view .LVU518
 122:Menus.cpp     ****         screen.drawSlider(70, 40, 50, 3, on, drawSliderFine);
 2147              		.loc 2 122 26 is_stmt 0 view .LVU519
 2148 009a 95F8E031 		ldrb	r3, [r5, #480]	@ zero_extendqisi2
 2149 009e F0EE081A 		vmov.f32	s3, #3.0e+0
 2150 00a2 D5ED1F2A 		vldr.32	s5, [r5, #124]
 2151 00a6 02EE103A 		vmov	s4, r3	@ int
 2152 00aa F0EE480A 		vmov.f32	s1, s16
 2153 00ae 2046     		mov	r0, r4
 2154 00b0 9FEDAB1A 		vldr.32	s2, .L274+8
 2155 00b4 B8EE422A 		vcvt.f32.u32	s4, s4
 2156 00b8 9FEDAA0A 		vldr.32	s0, .L274+12
 2157 00bc FFF7FEFF 		bl	_ZN23OledDisplayExtravaganza10drawSliderEffffff
 2158              	.LVL138:
 123:Menus.cpp     ****         screen.WaveIcons(35, 42, 55, this->selectedWave, on);
 2159              		.loc 2 123 9 is_stmt 1 view .LVU520
ARM GAS  C:\Users\VINCIU~1\AppData\Local\Temp\ccdhDWPe.s 			page 62


 123:Menus.cpp     ****         screen.WaveIcons(35, 42, 55, this->selectedWave, on);
 2160              		.loc 2 123 34 is_stmt 0 view .LVU521
 2161 00c0 B2EE001A 		vmov.f32	s2, #8.0e+0
 2162 00c4 B2EE0A0A 		vmov.f32	s0, #1.3e+1
 2163 00c8 DFEDA70A 		vldr.32	s1, .L274+16
 2164 00cc 2046     		mov	r0, r4
 2165 00ce A34B     		ldr	r3, .L274+4
 2166 00d0 95F89820 		ldrb	r2, [r5, #152]	@ zero_extendqisi2
 2167 00d4 95F8E011 		ldrb	r1, [r5, #480]	@ zero_extendqisi2
 2168 00d8 FFF7FEFF 		bl	_ZN23OledDisplayExtravaganza18drawVerticalToggleEfffbbPKc
 2169              	.LVL139:
 124:Menus.cpp     ****         screen.SetCursor(70, 17);
 2170              		.loc 2 124 9 is_stmt 1 view .LVU522
 124:Menus.cpp     ****         screen.SetCursor(70, 17);
 2171              		.loc 2 124 25 is_stmt 0 view .LVU523
 2172 00dc 95F8E031 		ldrb	r3, [r5, #480]	@ zero_extendqisi2
 2173 00e0 2046     		mov	r0, r4
 2174 00e2 2A22     		movs	r2, #42
 2175 00e4 0193     		str	r3, [sp, #4]
 2176 00e6 2321     		movs	r1, #35
 2177 00e8 D5F89C30 		ldr	r3, [r5, #156]
 2178 00ec 0093     		str	r3, [sp]
 2179 00ee 3723     		movs	r3, #55
 2180 00f0 FFF7FEFF 		bl	_ZN23OledDisplayExtravaganza9WaveIconsEiiiib
 2181              	.LVL140:
 125:Menus.cpp     ****         screen.WriteString(this->buff, Font_6x8, true);
 2182              		.loc 2 125 9 is_stmt 1 view .LVU524
 2183              	.LBB806:
 2184              	.LBI806:
 131:../../libdaisy/src/hid/disp/display.h ****     {
 2185              		.loc 5 131 10 view .LVU525
 2186              	.LBB807:
 133:../../libdaisy/src/hid/disp/display.h ****         currentY_ = (y >= Height()) ? Height() - 1 : y;
 2187              		.loc 5 133 9 view .LVU526
 134:../../libdaisy/src/hid/disp/display.h ****     }
 2188              		.loc 5 134 9 view .LVU527
 133:../../libdaisy/src/hid/disp/display.h ****         currentY_ = (y >= Height()) ? Height() - 1 : y;
 2189              		.loc 5 133 19 is_stmt 0 view .LVU528
 2190 00f4 9D4B     		ldr	r3, .L274+20
 2191              	.LBE807:
 2192              	.LBE806:
 2193              		.loc 2 126 27 view .LVU529
 2194 00f6 05F1A401 		add	r1, r5, #164
 2195 00fa 2046     		mov	r0, r4
 2196              	.LBB809:
 2197              	.LBB808:
 133:../../libdaisy/src/hid/disp/display.h ****         currentY_ = (y >= Height()) ? Height() - 1 : y;
 2198              		.loc 5 133 19 view .LVU530
 2199 00fc 6360     		str	r3, [r4, #4]
 2200              	.LVL141:
 133:../../libdaisy/src/hid/disp/display.h ****         currentY_ = (y >= Height()) ? Height() - 1 : y;
 2201              		.loc 5 133 19 view .LVU531
 2202              	.LBE808:
 2203              	.LBE809:
 2204              		.loc 2 126 9 is_stmt 1 view .LVU532
 2205              		.loc 2 126 27 is_stmt 0 view .LVU533
 2206 00fe CDF80090 		str	r9, [sp]
ARM GAS  C:\Users\VINCIU~1\AppData\Local\Temp\ccdhDWPe.s 			page 63


 2207 0102 98E80C00 		ldm	r8, {r2, r3}
 2208 0106 FFF7FEFF 		bl	_ZN5daisy25OneBitGraphicsDisplayImplINS_11OledDisplayINS_13SSD130xDriverILj128ELj64ENS_24SSD130
 2209              	.LVL142:
 127:Menus.cpp     ****         screen.SetCursor(70, 50);
 2210              		.loc 2 127 9 is_stmt 1 view .LVU534
 2211              	.LBB810:
 2212              	.LBI810:
 131:../../libdaisy/src/hid/disp/display.h ****     {
 2213              		.loc 5 131 10 view .LVU535
 2214              	.LBB811:
 133:../../libdaisy/src/hid/disp/display.h ****         currentY_ = (y >= Height()) ? Height() - 1 : y;
 2215              		.loc 5 133 9 view .LVU536
 134:../../libdaisy/src/hid/disp/display.h ****     }
 2216              		.loc 5 134 9 view .LVU537
 133:../../libdaisy/src/hid/disp/display.h ****         currentY_ = (y >= Height()) ? Height() - 1 : y;
 2217              		.loc 5 133 19 is_stmt 0 view .LVU538
 2218 010a 994B     		ldr	r3, .L274+24
 2219              	.LBE811:
 2220              	.LBE810:
 128:Menus.cpp     ****         screen.WriteString(this->buffFine, Font_6x8, true);
 2221              		.loc 2 128 27 view .LVU539
 2222 010c CDF80090 		str	r9, [sp]
 2223 0110 05F1D401 		add	r1, r5, #212
 2224              	.LBB813:
 2225              	.LBB812:
 133:../../libdaisy/src/hid/disp/display.h ****         currentY_ = (y >= Height()) ? Height() - 1 : y;
 2226              		.loc 5 133 19 view .LVU540
 2227 0114 6360     		str	r3, [r4, #4]
 2228              	.LVL143:
 133:../../libdaisy/src/hid/disp/display.h ****         currentY_ = (y >= Height()) ? Height() - 1 : y;
 2229              		.loc 5 133 19 view .LVU541
 2230              	.LBE812:
 2231              	.LBE813:
 2232              		.loc 2 128 9 is_stmt 1 view .LVU542
 2233              		.loc 2 128 27 is_stmt 0 view .LVU543
 2234 0116 2046     		mov	r0, r4
 2235 0118 98E80C00 		ldm	r8, {r2, r3}
 2236 011c FFF7FEFF 		bl	_ZN5daisy25OneBitGraphicsDisplayImplINS_11OledDisplayINS_13SSD130xDriverILj128ELj64ENS_24SSD130
 2237              	.LVL144:
 2238              	.L173:
 129:Menus.cpp     ****     }
 130:Menus.cpp     ****     else
 131:Menus.cpp     ****     {
 132:Menus.cpp     ****         screen.drawSlider(70, 7, 50, 3, false, (this->drawSliderSemi2) / 40);
 133:Menus.cpp     ****         screen.drawSlider(70, 40, 50, 3, false, drawSliderFine2);
 134:Menus.cpp     ****         screen.drawVerticalToggle(13, 51, 8, false, this->toggleOsc2, "");
 135:Menus.cpp     ****         screen.WaveIcons(35, 42, 55, this->selectedWave2, false);
 136:Menus.cpp     ****         screen.SetCursor(70, 17);
 137:Menus.cpp     ****         screen.WriteString(this->buff2, Font_6x8, false);
 138:Menus.cpp     ****         screen.SetCursor(70, 50);
 139:Menus.cpp     ****         screen.WriteString(this->buffFine2, Font_6x8, false);
 140:Menus.cpp     ****     }
 141:Menus.cpp     **** 
 142:Menus.cpp     **** 
 143:Menus.cpp     ****     screen.SetCursor(4, 8);
 2239              		.loc 2 143 5 is_stmt 1 view .LVU544
 2240              	.LBB814:
ARM GAS  C:\Users\VINCIU~1\AppData\Local\Temp\ccdhDWPe.s 			page 64


 2241              	.LBI814:
 131:../../libdaisy/src/hid/disp/display.h ****     {
 2242              		.loc 5 131 10 view .LVU545
 2243              	.LBB815:
 133:../../libdaisy/src/hid/disp/display.h ****         currentY_ = (y >= Height()) ? Height() - 1 : y;
 2244              		.loc 5 133 9 view .LVU546
 134:../../libdaisy/src/hid/disp/display.h ****     }
 2245              		.loc 5 134 9 view .LVU547
 133:../../libdaisy/src/hid/disp/display.h ****         currentY_ = (y >= Height()) ? Height() - 1 : y;
 2246              		.loc 5 133 19 is_stmt 0 view .LVU548
 2247 0120 944B     		ldr	r3, .L274+28
 2248              	.LBE815:
 2249              	.LBE814:
 144:Menus.cpp     ****     screen.WriteString("Osc", Font_7x10, on);
 2250              		.loc 2 144 23 view .LVU549
 2251 0122 2046     		mov	r0, r4
 2252 0124 95F8E021 		ldrb	r2, [r5, #480]	@ zero_extendqisi2
 2253              	.LBB817:
 2254              	.LBB816:
 133:../../libdaisy/src/hid/disp/display.h ****         currentY_ = (y >= Height()) ? Height() - 1 : y;
 2255              		.loc 5 133 19 view .LVU550
 2256 0128 6360     		str	r3, [r4, #4]
 2257              	.LVL145:
 133:../../libdaisy/src/hid/disp/display.h ****         currentY_ = (y >= Height()) ? Height() - 1 : y;
 2258              		.loc 5 133 19 view .LVU551
 2259              	.LBE816:
 2260              	.LBE817:
 2261              		.loc 2 144 5 is_stmt 1 view .LVU552
 2262              		.loc 2 144 23 is_stmt 0 view .LVU553
 2263 012a 934B     		ldr	r3, .L274+32
 2264 012c 0092     		str	r2, [sp]
 2265 012e 9349     		ldr	r1, .L274+36
 2266 0130 0CCB     		ldm	r3, {r2, r3}
 2267 0132 FFF7FEFF 		bl	_ZN5daisy25OneBitGraphicsDisplayImplINS_11OledDisplayINS_13SSD130xDriverILj128ELj64ENS_24SSD130
 2268              	.LVL146:
 145:Menus.cpp     **** 
 146:Menus.cpp     **** 
 147:Menus.cpp     ****     for(int i = 0; i < screen.Width(); i++)
 2269              		.loc 2 147 5 is_stmt 1 view .LVU554
 2270              	.LBB818:
 2271              		.loc 2 147 22 view .LVU555
 148:Menus.cpp     ****     {
 149:Menus.cpp     ****         screen.DrawPixel(i * 3, (screen.Height() / 2) - 3, on);
 2272              		.loc 2 149 25 is_stmt 0 view .LVU556
 2273 0136 95F8E001 		ldrb	r0, [r5, #480]	@ zero_extendqisi2
 2274 013a A446     		mov	ip, r4
 2275 013c 0023     		movs	r3, #0
 2276              	.LVL147:
 2277              	.L178:
 2278              		.loc 2 149 9 is_stmt 1 discriminator 2 view .LVU557
 2279              	.LBB819:
 2280              	.LBI819:
 2281              		.loc 1 41 10 discriminator 2 view .LVU558
 2282              	.LBB820:
 2283              	.LBI820:
 239:../../libdaisy/src/dev/oled_ssd130x.h ****     {
 2284              		.loc 6 239 10 discriminator 2 view .LVU559
ARM GAS  C:\Users\VINCIU~1\AppData\Local\Temp\ccdhDWPe.s 			page 65


 2285              	.LBB821:
 241:../../libdaisy/src/dev/oled_ssd130x.h ****             return;
 2286              		.loc 6 241 9 is_stmt 0 discriminator 2 view .LVU560
 2287 013e 7F2B     		cmp	r3, #127
 2288 0140 0DD8     		bhi	.L174
 2289              	.LVL148:
 2290              	.L259:
 2291              	.LBB822:
 2292              	.LBI822:
 239:../../libdaisy/src/dev/oled_ssd130x.h ****     {
 2293              		.loc 6 239 10 is_stmt 1 view .LVU561
 239:../../libdaisy/src/dev/oled_ssd130x.h ****     {
 2294              		.loc 6 239 10 is_stmt 0 view .LVU562
 2295              	.LBE822:
 244:../../libdaisy/src/dev/oled_ssd130x.h ****         else
 2296              		.loc 6 244 42 view .LVU563
 2297 0142 9CF89421 		ldrb	r2, [ip, #404]	@ zero_extendqisi2
 243:../../libdaisy/src/dev/oled_ssd130x.h ****             buffer_[x + (y / 8) * width] |= (1 << (y % 8));
 2298              		.loc 6 243 9 view .LVU564
 2299 0146 0028     		cmp	r0, #0
 2300 0148 00F09B80 		beq	.L175
 244:../../libdaisy/src/dev/oled_ssd130x.h ****         else
 2301              		.loc 6 244 42 view .LVU565
 2302 014c 42F02002 		orr	r2, r2, #32
 2303 0150 8CF89421 		strb	r2, [ip, #404]
 2304              	.L176:
 2305              	.LVL149:
 244:../../libdaisy/src/dev/oled_ssd130x.h ****         else
 2306              		.loc 6 244 42 view .LVU566
 2307              	.LBE821:
 2308              	.LBE820:
 2309              	.LBE819:
 147:Menus.cpp     ****     {
 2310              		.loc 2 147 5 is_stmt 1 view .LVU567
 147:Menus.cpp     ****     {
 2311              		.loc 2 147 22 view .LVU568
 2312 0154 0333     		adds	r3, r3, #3
 2313 0156 0CF1030C 		add	ip, ip, #3
 2314              		.loc 2 149 9 view .LVU569
 2315              	.LVL150:
 2316              	.LBB829:
 2317              		.loc 1 41 10 view .LVU570
 2318              	.LBB827:
 239:../../libdaisy/src/dev/oled_ssd130x.h ****     {
 2319              		.loc 6 239 10 view .LVU571
 2320              	.LBB825:
 241:../../libdaisy/src/dev/oled_ssd130x.h ****             return;
 2321              		.loc 6 241 9 is_stmt 0 view .LVU572
 2322 015a 7F2B     		cmp	r3, #127
 2323 015c F1D9     		bls	.L259
 2324              	.LVL151:
 2325              	.L174:
 241:../../libdaisy/src/dev/oled_ssd130x.h ****             return;
 2326              		.loc 6 241 9 view .LVU573
 2327              	.LBE825:
 2328              	.LBE827:
 2329              	.LBE829:
ARM GAS  C:\Users\VINCIU~1\AppData\Local\Temp\ccdhDWPe.s 			page 66


 147:Menus.cpp     ****     {
 2330              		.loc 2 147 5 is_stmt 1 view .LVU574
 147:Menus.cpp     ****     {
 2331              		.loc 2 147 22 view .LVU575
 2332 015e 0333     		adds	r3, r3, #3
 2333 0160 0CF1030C 		add	ip, ip, #3
 2334 0164 B3F5C07F 		cmp	r3, #384
 2335 0168 E9D1     		bne	.L178
 2336 016a 0023     		movs	r3, #0
 2337              	.L177:
 2338              	.LBE818:
 2339              	.LBB831:
 150:Menus.cpp     ****     }
 151:Menus.cpp     ****     for(int i = 0; i < screen.Height(); i++)
 152:Menus.cpp     ****     {
 153:Menus.cpp     ****         screen.DrawPixel(60, i * 2, on);
 2340              		.loc 2 153 9 discriminator 2 view .LVU576
 2341              	.LVL152:
 2342              	.LBB832:
 2343              	.LBI832:
 2344              		.loc 1 41 10 discriminator 2 view .LVU577
 2345              	.LBB833:
 2346              	.LBI833:
 239:../../libdaisy/src/dev/oled_ssd130x.h ****     {
 2347              		.loc 6 239 10 discriminator 2 view .LVU578
 2348              	.LBB834:
 241:../../libdaisy/src/dev/oled_ssd130x.h ****             return;
 2349              		.loc 6 241 9 is_stmt 0 discriminator 2 view .LVU579
 2350 016c 3F2B     		cmp	r3, #63
 2351 016e 14D8     		bhi	.L179
 2352              	.LVL153:
 2353              	.L260:
 2354              	.LBB835:
 2355              	.LBI835:
 239:../../libdaisy/src/dev/oled_ssd130x.h ****     {
 2356              		.loc 6 239 10 is_stmt 1 view .LVU580
 239:../../libdaisy/src/dev/oled_ssd130x.h ****     {
 2357              		.loc 6 239 10 is_stmt 0 view .LVU581
 2358              	.LBE835:
 244:../../libdaisy/src/dev/oled_ssd130x.h ****         else
 2359              		.loc 6 244 48 view .LVU582
 2360 0170 0121     		movs	r1, #1
 244:../../libdaisy/src/dev/oled_ssd130x.h ****         else
 2361              		.loc 6 244 28 view .LVU583
 2362 0172 4FEAD30C 		lsr	ip, r3, #3
 244:../../libdaisy/src/dev/oled_ssd130x.h ****         else
 2363              		.loc 6 244 54 view .LVU584
 2364 0176 03F0070E 		and	lr, r3, #7
 2365              	.LBB838:
 2366              	.LBB836:
 246:../../libdaisy/src/dev/oled_ssd130x.h ****     }
 2367              		.loc 6 246 49 view .LVU585
 2368 017a 8846     		mov	r8, r1
 2369              	.LBE836:
 2370              	.LBE838:
 244:../../libdaisy/src/dev/oled_ssd130x.h ****         else
 2371              		.loc 6 244 42 view .LVU586
ARM GAS  C:\Users\VINCIU~1\AppData\Local\Temp\ccdhDWPe.s 			page 67


 2372 017c 04EBCC1C 		add	ip, r4, ip, lsl #7
 244:../../libdaisy/src/dev/oled_ssd130x.h ****         else
 2373              		.loc 6 244 48 view .LVU587
 2374 0180 01FA0EF1 		lsl	r1, r1, lr
 243:../../libdaisy/src/dev/oled_ssd130x.h ****             buffer_[x + (y / 8) * width] |= (1 << (y % 8));
 2375              		.loc 6 243 9 view .LVU588
 2376 0184 0028     		cmp	r0, #0
 2377 0186 00F08180 		beq	.L180
 244:../../libdaisy/src/dev/oled_ssd130x.h ****         else
 2378              		.loc 6 244 42 view .LVU589
 2379 018a 9CF85020 		ldrb	r2, [ip, #80]	@ zero_extendqisi2
 2380 018e 1143     		orrs	r1, r1, r2
 2381 0190 8CF85010 		strb	r1, [ip, #80]
 2382              	.L181:
 2383              	.LVL154:
 244:../../libdaisy/src/dev/oled_ssd130x.h ****         else
 2384              		.loc 6 244 42 view .LVU590
 2385              	.LBE834:
 2386              	.LBE833:
 2387              	.LBE832:
 151:Menus.cpp     ****     {
 2388              		.loc 2 151 5 is_stmt 1 view .LVU591
 151:Menus.cpp     ****     {
 2389              		.loc 2 151 22 view .LVU592
 2390 0194 0233     		adds	r3, r3, #2
 2391              		.loc 2 153 9 view .LVU593
 2392              	.LVL155:
 2393              	.LBB844:
 2394              		.loc 1 41 10 view .LVU594
 2395              	.LBB842:
 239:../../libdaisy/src/dev/oled_ssd130x.h ****     {
 2396              		.loc 6 239 10 view .LVU595
 2397              	.LBB840:
 241:../../libdaisy/src/dev/oled_ssd130x.h ****             return;
 2398              		.loc 6 241 9 is_stmt 0 view .LVU596
 2399 0196 3F2B     		cmp	r3, #63
 2400 0198 EAD9     		bls	.L260
 2401              	.LVL156:
 2402              	.L179:
 241:../../libdaisy/src/dev/oled_ssd130x.h ****             return;
 2403              		.loc 6 241 9 view .LVU597
 2404              	.LBE840:
 2405              	.LBE842:
 2406              	.LBE844:
 151:Menus.cpp     ****     {
 2407              		.loc 2 151 5 is_stmt 1 view .LVU598
 151:Menus.cpp     ****     {
 2408              		.loc 2 151 22 view .LVU599
 2409 019a 0233     		adds	r3, r3, #2
 2410 019c 802B     		cmp	r3, #128
 2411 019e E5D1     		bne	.L177
 2412 01a0 1E23     		movs	r3, #30
 2413              	.L182:
 2414              	.LBE831:
 2415              	.LBB846:
 154:Menus.cpp     ****     }
 155:Menus.cpp     ****     for(int i = screen.Height() / 4 - 1; i < screen.Height(); i++)
ARM GAS  C:\Users\VINCIU~1\AppData\Local\Temp\ccdhDWPe.s 			page 68


 156:Menus.cpp     ****     {
 157:Menus.cpp     ****         screen.DrawPixel(29, i * 2, on);
 2416              		.loc 2 157 9 discriminator 2 view .LVU600
 2417              	.LVL157:
 2418              	.LBB847:
 2419              	.LBI847:
 2420              		.loc 1 41 10 discriminator 2 view .LVU601
 2421              	.LBB848:
 2422              	.LBI848:
 239:../../libdaisy/src/dev/oled_ssd130x.h ****     {
 2423              		.loc 6 239 10 discriminator 2 view .LVU602
 2424              	.LBB849:
 241:../../libdaisy/src/dev/oled_ssd130x.h ****             return;
 2425              		.loc 6 241 9 is_stmt 0 discriminator 2 view .LVU603
 2426 01a2 3F2B     		cmp	r3, #63
 2427 01a4 13D8     		bhi	.L183
 2428              	.LVL158:
 2429              	.L261:
 2430              	.LBB850:
 2431              	.LBI850:
 239:../../libdaisy/src/dev/oled_ssd130x.h ****     {
 2432              		.loc 6 239 10 is_stmt 1 view .LVU604
 239:../../libdaisy/src/dev/oled_ssd130x.h ****     {
 2433              		.loc 6 239 10 is_stmt 0 view .LVU605
 2434              	.LBE850:
 244:../../libdaisy/src/dev/oled_ssd130x.h ****         else
 2435              		.loc 6 244 48 view .LVU606
 2436 01a6 0122     		movs	r2, #1
 244:../../libdaisy/src/dev/oled_ssd130x.h ****         else
 2437              		.loc 6 244 28 view .LVU607
 2438 01a8 4FEAD30C 		lsr	ip, r3, #3
 244:../../libdaisy/src/dev/oled_ssd130x.h ****         else
 2439              		.loc 6 244 54 view .LVU608
 2440 01ac 03F0070E 		and	lr, r3, #7
 2441              	.LBB853:
 2442              	.LBB851:
 246:../../libdaisy/src/dev/oled_ssd130x.h ****     }
 2443              		.loc 6 246 49 view .LVU609
 2444 01b0 9046     		mov	r8, r2
 2445              	.LBE851:
 2446              	.LBE853:
 244:../../libdaisy/src/dev/oled_ssd130x.h ****         else
 2447              		.loc 6 244 42 view .LVU610
 2448 01b2 04EBCC1C 		add	ip, r4, ip, lsl #7
 244:../../libdaisy/src/dev/oled_ssd130x.h ****         else
 2449              		.loc 6 244 48 view .LVU611
 2450 01b6 02FA0EF2 		lsl	r2, r2, lr
 243:../../libdaisy/src/dev/oled_ssd130x.h ****             buffer_[x + (y / 8) * width] |= (1 << (y % 8));
 2451              		.loc 6 243 9 view .LVU612
 2452 01ba 0028     		cmp	r0, #0
 2453 01bc 6FD0     		beq	.L184
 244:../../libdaisy/src/dev/oled_ssd130x.h ****         else
 2454              		.loc 6 244 42 view .LVU613
 2455 01be 9CF83110 		ldrb	r1, [ip, #49]	@ zero_extendqisi2
 2456 01c2 0A43     		orrs	r2, r2, r1
 2457 01c4 8CF83120 		strb	r2, [ip, #49]
 2458              	.L185:
ARM GAS  C:\Users\VINCIU~1\AppData\Local\Temp\ccdhDWPe.s 			page 69


 2459              	.LVL159:
 244:../../libdaisy/src/dev/oled_ssd130x.h ****         else
 2460              		.loc 6 244 42 view .LVU614
 2461              	.LBE849:
 2462              	.LBE848:
 2463              	.LBE847:
 155:Menus.cpp     ****     {
 2464              		.loc 2 155 5 is_stmt 1 view .LVU615
 155:Menus.cpp     ****     {
 2465              		.loc 2 155 44 view .LVU616
 2466 01c8 0233     		adds	r3, r3, #2
 2467              		.loc 2 157 9 view .LVU617
 2468              	.LVL160:
 2469              	.LBB859:
 2470              		.loc 1 41 10 view .LVU618
 2471              	.LBB857:
 239:../../libdaisy/src/dev/oled_ssd130x.h ****     {
 2472              		.loc 6 239 10 view .LVU619
 2473              	.LBB855:
 241:../../libdaisy/src/dev/oled_ssd130x.h ****             return;
 2474              		.loc 6 241 9 is_stmt 0 view .LVU620
 2475 01ca 3F2B     		cmp	r3, #63
 2476 01cc EBD9     		bls	.L261
 2477              	.LVL161:
 2478              	.L183:
 241:../../libdaisy/src/dev/oled_ssd130x.h ****             return;
 2479              		.loc 6 241 9 view .LVU621
 2480              	.LBE855:
 2481              	.LBE857:
 2482              	.LBE859:
 155:Menus.cpp     ****     {
 2483              		.loc 2 155 5 is_stmt 1 view .LVU622
 155:Menus.cpp     ****     {
 2484              		.loc 2 155 44 view .LVU623
 2485 01ce 0233     		adds	r3, r3, #2
 2486 01d0 802B     		cmp	r3, #128
 2487 01d2 E6D1     		bne	.L182
 2488              	.LBE846:
 158:Menus.cpp     ****     }
 159:Menus.cpp     **** 
 160:Menus.cpp     ****     if(encoderLeft.RisingEdge())
 2489              		.loc 2 160 5 view .LVU624
 2490              	.LVL162:
 2491              	.LBB861:
 2492              	.LBB862:
 2493              	.LBI862:
  42:../../libdaisy/src/hid/encoder.h ****     /** Returns true if the encoder was just pressed.
  43:../../libdaisy/src/hid/encoder.h **** */
  44:../../libdaisy/src/hid/encoder.h ****     inline bool RisingEdge() const { return sw_.RisingEdge(); }
 2494              		.loc 3 44 17 view .LVU625
 2495              	.LBE862:
 2496              	.LBE861:
 2497              		.loc 3 44 38 view .LVU626
 2498              	.LBB1012:
 2499              	.LBB865:
 2500              	.LBB863:
 2501              	.LBI863:
ARM GAS  C:\Users\VINCIU~1\AppData\Local\Temp\ccdhDWPe.s 			page 70


 2502              		.loc 4 69 17 view .LVU627
 2503              	.LBB864:
 2504              		.loc 4 69 38 view .LVU628
 2505              		.loc 4 69 38 is_stmt 0 view .LVU629
 2506              	.LBE864:
 2507              	.LBE863:
 2508              	.LBE865:
 2509              		.loc 2 160 5 view .LVU630
 2510 01d4 6B7C     		ldrb	r3, [r5, #17]	@ zero_extendqisi2
 2511 01d6 7F2B     		cmp	r3, #127
 2512 01d8 00F02681 		beq	.L262
 2513              	.LBE1012:
 161:Menus.cpp     ****     {
 162:Menus.cpp     ****         this->OscSelector = !this->OscSelector;
 163:Menus.cpp     ****         on                = this->OscSelector;
 164:Menus.cpp     ****     }
 165:Menus.cpp     ****     else if(menuState == 0)
 2514              		.loc 2 165 10 is_stmt 1 view .LVU631
 2515              	.LBB1013:
 2516              	.LBB866:
 2517              		.loc 2 165 13 is_stmt 0 view .LVU632
 2518 01dc EB6E     		ldr	r3, [r5, #108]
 2519              		.loc 2 165 10 view .LVU633
 2520 01de 002B     		cmp	r3, #0
 2521 01e0 00F0DA80 		beq	.L263
 2522              	.LBE866:
 2523              	.LBE1013:
 166:Menus.cpp     ****     {
 167:Menus.cpp     ****         if(this->OscSelector == true)
 168:Menus.cpp     ****         {
 169:Menus.cpp     ****             if(this->noteSemiAdd > 32)
 170:Menus.cpp     ****             {
 171:Menus.cpp     ****                 this->noteSemiAdd = 32;
 172:Menus.cpp     ****             }
 173:Menus.cpp     ****             if(this->noteSemiAdd < 0)
 174:Menus.cpp     ****             {
 175:Menus.cpp     ****                 this->noteSemiAdd = 0;
 176:Menus.cpp     ****             }
 177:Menus.cpp     ****             if(this->drawSliderSemi >= 40)
 178:Menus.cpp     ****             {
 179:Menus.cpp     ****                 this->drawSliderSemi = 40;
 180:Menus.cpp     ****             }
 181:Menus.cpp     ****             if(this->drawSliderSemi < 0)
 182:Menus.cpp     ****             {
 183:Menus.cpp     ****                 this->drawSliderSemi = 0;
 184:Menus.cpp     ****             }
 185:Menus.cpp     ****             this->noteSemiAdd += this->encoderRight.Increment();
 186:Menus.cpp     ****             this->drawSliderSemi
 187:Menus.cpp     ****                 += (((float)this->encoderRight.Increment()) / 32) * 40;
 188:Menus.cpp     ****             sprintf(this->buff, "Semi_%dst", this->noteSemiAdd);
 189:Menus.cpp     ****         }
 190:Menus.cpp     ****         else
 191:Menus.cpp     ****         {
 192:Menus.cpp     ****             if(this->noteSemiAdd2 > 32)
 193:Menus.cpp     ****             {
 194:Menus.cpp     ****                 this->noteSemiAdd2 = 32;
 195:Menus.cpp     ****             }
ARM GAS  C:\Users\VINCIU~1\AppData\Local\Temp\ccdhDWPe.s 			page 71


 196:Menus.cpp     ****             if(this->noteSemiAdd2 < 0)
 197:Menus.cpp     ****             {
 198:Menus.cpp     ****                 this->noteSemiAdd2 = 0;
 199:Menus.cpp     ****             }
 200:Menus.cpp     ****             if(this->drawSliderSemi2 >= 40)
 201:Menus.cpp     ****             {
 202:Menus.cpp     ****                 this->drawSliderSemi2 = 40;
 203:Menus.cpp     ****             }
 204:Menus.cpp     ****             if(this->drawSliderSemi2 < 0)
 205:Menus.cpp     ****             {
 206:Menus.cpp     ****                 this->drawSliderSemi2 = 0;
 207:Menus.cpp     ****             }
 208:Menus.cpp     ****             this->noteSemiAdd2 += (float)this->encoderRight.Increment();
 209:Menus.cpp     ****             this->drawSliderSemi2
 210:Menus.cpp     ****                 += (((float)this->encoderRight.Increment()) / 32) * 40;
 211:Menus.cpp     ****             sprintf(this->buff2, "Semi_%dst", this->noteSemiAdd2);
 212:Menus.cpp     ****         }
 213:Menus.cpp     **** 
 214:Menus.cpp     **** 
 215:Menus.cpp     ****         screen.DrawRect(
 216:Menus.cpp     ****             60, 0, screen.Width() - 1, screen.Height() / 2 - 3, on, false);
 217:Menus.cpp     ****     }
 218:Menus.cpp     ****     else if(menuState == 1)
 2524              		.loc 2 218 10 is_stmt 1 view .LVU634
 2525              	.LBB1014:
 2526              	.LBB991:
 2527              	.LBB867:
 2528 01e4 012B     		cmp	r3, #1
 2529 01e6 00F0E681 		beq	.L264
 2530              	.LBE867:
 2531              	.LBE991:
 2532              	.LBE1014:
 219:Menus.cpp     ****     {
 220:Menus.cpp     ****         if(this->OscSelector == true)
 221:Menus.cpp     **** 
 222:Menus.cpp     ****         {
 223:Menus.cpp     ****             if(this->encoderRight.Increment() == 1)
 224:Menus.cpp     ****             {
 225:Menus.cpp     ****                 synthOn         = 1;
 226:Menus.cpp     ****                 this->toggleOsc = false;
 227:Menus.cpp     ****             }
 228:Menus.cpp     ****             if(this->encoderRight.Increment() == -1)
 229:Menus.cpp     ****             {
 230:Menus.cpp     ****                 synthOn         = 0;
 231:Menus.cpp     ****                 this->toggleOsc = true;
 232:Menus.cpp     ****             }
 233:Menus.cpp     ****         }
 234:Menus.cpp     ****         else
 235:Menus.cpp     ****         {
 236:Menus.cpp     ****             if(this->encoderRight.Increment() == 1)
 237:Menus.cpp     ****             {
 238:Menus.cpp     ****                 synthOn2         = 1;
 239:Menus.cpp     ****                 this->toggleOsc2 = false;
 240:Menus.cpp     ****             }
 241:Menus.cpp     ****             if(this->encoderRight.Increment() == -1)
 242:Menus.cpp     ****             {
 243:Menus.cpp     ****                 synthOn2         = 0;
ARM GAS  C:\Users\VINCIU~1\AppData\Local\Temp\ccdhDWPe.s 			page 72


 244:Menus.cpp     ****                 this->toggleOsc2 = true;
 245:Menus.cpp     ****             }
 246:Menus.cpp     ****         }
 247:Menus.cpp     **** 
 248:Menus.cpp     ****         screen.DrawRect(
 249:Menus.cpp     ****             0, screen.Height() / 2 - 3, 29, screen.Height() - 1, on, false);
 250:Menus.cpp     ****     }
 251:Menus.cpp     ****     else if(menuState == 2)
 2533              		.loc 2 251 10 view .LVU635
 2534              	.LBB1015:
 2535              	.LBB992:
 2536              	.LBB969:
 2537              	.LBB868:
 2538 01ea 022B     		cmp	r3, #2
 2539 01ec 00F0A381 		beq	.L265
 252:Menus.cpp     ****     {
 253:Menus.cpp     ****         if(this->OscSelector == true)
 254:Menus.cpp     ****         {
 255:Menus.cpp     ****             this->setWave += this->encoderRight.Increment();
 256:Menus.cpp     ****             if(setWave > 3)
 257:Menus.cpp     ****             {
 258:Menus.cpp     ****                 this->setWave = 3;
 259:Menus.cpp     ****             }
 260:Menus.cpp     ****             if(this->setWave < 0)
 261:Menus.cpp     ****             {
 262:Menus.cpp     ****                 this->setWave = 0;
 263:Menus.cpp     ****             }
 264:Menus.cpp     ****             if(this->setWave == 0)
 265:Menus.cpp     ****             {
 266:Menus.cpp     ****                 for(int i = 0; i < 2; i++)
 267:Menus.cpp     ****                 {
 268:Menus.cpp     ****                     selectedWave = setWave;
 269:Menus.cpp     ****                     osc[0].SetWaveform(osc[0].WAVE_SIN);
 270:Menus.cpp     ****                 }
 271:Menus.cpp     ****             }
 272:Menus.cpp     ****             else if(setWave == 1)
 273:Menus.cpp     ****             {
 274:Menus.cpp     ****                 for(int i = 0; i < 2; i++)
 275:Menus.cpp     ****                 {
 276:Menus.cpp     ****                     selectedWave = setWave;
 277:Menus.cpp     ****                     osc[0].SetWaveform(osc[0].WAVE_TRI);
 278:Menus.cpp     ****                 }
 279:Menus.cpp     ****             }
 280:Menus.cpp     ****             else if(setWave == 2)
 281:Menus.cpp     ****             {
 282:Menus.cpp     ****                 for(int i = 0; i < 2; i++)
 283:Menus.cpp     ****                 {
 284:Menus.cpp     ****                     selectedWave = setWave;
 285:Menus.cpp     ****                     osc[0].SetWaveform(osc[0].WAVE_SQUARE);
 286:Menus.cpp     ****                 }
 287:Menus.cpp     ****             }
 288:Menus.cpp     ****             else if(setWave == 3)
 289:Menus.cpp     ****             {
 290:Menus.cpp     ****                 for(int i = 0; i < 2; i++)
 291:Menus.cpp     ****                 {
 292:Menus.cpp     ****                     selectedWave = setWave;
 293:Menus.cpp     ****                     osc[0].SetWaveform(osc[0].WAVE_SAW);
ARM GAS  C:\Users\VINCIU~1\AppData\Local\Temp\ccdhDWPe.s 			page 73


 294:Menus.cpp     ****                 }
 295:Menus.cpp     ****             }
 296:Menus.cpp     ****         }
 297:Menus.cpp     ****         {
 298:Menus.cpp     ****             if(this->OscSelector == false)
 299:Menus.cpp     ****             {
 300:Menus.cpp     ****                 if(setWave2 > 3)
 301:Menus.cpp     ****                 {
 302:Menus.cpp     ****                     this->setWave2 = 3;
 303:Menus.cpp     ****                 }
 304:Menus.cpp     ****                 if(this->setWave2 < 0)
 305:Menus.cpp     ****                 {
 306:Menus.cpp     ****                     this->setWave2 = 0;
 307:Menus.cpp     ****                 }
 308:Menus.cpp     ****                 this->setWave2 += this->encoderRight.Increment();
 309:Menus.cpp     ****                 if(setWave2 > 3)
 310:Menus.cpp     ****                 {
 311:Menus.cpp     ****                     this->setWave2 = 3;
 312:Menus.cpp     ****                 }
 313:Menus.cpp     ****                 if(this->setWave2 < 0)
 314:Menus.cpp     ****                 {
 315:Menus.cpp     ****                     this->setWave2 = 0;
 316:Menus.cpp     ****                 }
 317:Menus.cpp     ****                 if(this->setWave2 == 0)
 318:Menus.cpp     ****                 {
 319:Menus.cpp     ****                     for(int i = 0; i < 2; i++)
 320:Menus.cpp     ****                     {
 321:Menus.cpp     ****                         selectedWave2 = setWave2;
 322:Menus.cpp     ****                         osc[1].SetWaveform(osc[1].WAVE_SIN);
 323:Menus.cpp     ****                     }
 324:Menus.cpp     ****                 }
 325:Menus.cpp     ****                 else if(setWave2 == 1)
 326:Menus.cpp     ****                 {
 327:Menus.cpp     ****                     for(int i = 0; i < 2; i++)
 328:Menus.cpp     ****                     {
 329:Menus.cpp     ****                         selectedWave2 = setWave2;
 330:Menus.cpp     ****                         osc[1].SetWaveform(osc[1].WAVE_TRI);
 331:Menus.cpp     ****                     }
 332:Menus.cpp     ****                 }
 333:Menus.cpp     ****                 else if(setWave2 == 2)
 334:Menus.cpp     ****                 {
 335:Menus.cpp     ****                     for(int i = 0; i < 2; i++)
 336:Menus.cpp     ****                     {
 337:Menus.cpp     ****                         selectedWave2 = setWave2;
 338:Menus.cpp     ****                         osc[1].SetWaveform(osc[1].WAVE_SQUARE);
 339:Menus.cpp     ****                     }
 340:Menus.cpp     ****                 }
 341:Menus.cpp     ****                 else if(setWave2 == 3)
 342:Menus.cpp     ****                 {
 343:Menus.cpp     ****                     for(int i = 0; i < 2; i++)
 344:Menus.cpp     ****                     {
 345:Menus.cpp     ****                         selectedWave2 = setWave2;
 346:Menus.cpp     ****                         osc[1].SetWaveform(osc[1].WAVE_SAW);
 347:Menus.cpp     ****                     }
 348:Menus.cpp     ****                 }
 349:Menus.cpp     ****             }
 350:Menus.cpp     **** 
ARM GAS  C:\Users\VINCIU~1\AppData\Local\Temp\ccdhDWPe.s 			page 74


 351:Menus.cpp     **** 
 352:Menus.cpp     ****             screen.DrawRect(29,
 353:Menus.cpp     ****                             screen.Height() / 2 - 3,
 354:Menus.cpp     ****                             60,
 355:Menus.cpp     ****                             screen.Height() - 1,
 356:Menus.cpp     ****                             on,
 357:Menus.cpp     ****                             false);
 358:Menus.cpp     ****         }
 359:Menus.cpp     ****     }
 360:Menus.cpp     ****     else if(menuState == 3)
 2540              		.loc 2 360 10 view .LVU636
 2541 01f0 032B     		cmp	r3, #3
 2542 01f2 40F02181 		bne	.L188
 361:Menus.cpp     ****     {
 362:Menus.cpp     ****         /*  this->noteSemiAdd
 363:Menus.cpp     ****                 += (((float)this->encoderRight.Increment()) / 32) * 40;
 364:Menus.cpp     ****             this->drawSliderSemi
 365:Menus.cpp     ****                 += ((float)this->encoderRight.Increment()) / 32; */
 366:Menus.cpp     **** 
 367:Menus.cpp     **** 
 368:Menus.cpp     ****         if(this->OscSelector == true)
 2543              		.loc 2 368 9 view .LVU637
 2544 01f6 95F87430 		ldrb	r3, [r5, #116]	@ zero_extendqisi2
 369:Menus.cpp     ****         {
 370:Menus.cpp     ****             if(this->freqFine >= 1)
 2545              		.loc 2 370 13 is_stmt 0 view .LVU638
 2546 01fa B7EE007A 		vmov.f32	s14, #1.0e+0
 368:Menus.cpp     ****         {
 2547              		.loc 2 368 9 view .LVU639
 2548 01fe 002B     		cmp	r3, #0
 2549 0200 00F02382 		beq	.L216
 2550              		.loc 2 370 13 is_stmt 1 view .LVU640
 2551              		.loc 2 370 22 is_stmt 0 view .LVU641
 2552 0204 D5ED5D7A 		vldr.32	s15, [r5, #372]
 2553              		.loc 2 370 13 view .LVU642
 2554 0208 F4EEC77A 		vcmpe.f32	s15, s14
 2555 020c F1EE10FA 		vmrs	APSR_nzcv, FPSCR
 2556 0210 C0F26982 		blt	.L266
 2557 0214 F0EE477A 		vmov.f32	s15, s14
 2558              	.L217:
 371:Menus.cpp     ****             {
 372:Menus.cpp     ****                 this->freqFine = 1;
 373:Menus.cpp     ****             }
 374:Menus.cpp     ****             if(this->freqFine < 0)
 375:Menus.cpp     ****             {
 376:Menus.cpp     ****                 this->freqFine = 0;
 377:Menus.cpp     ****             }
 378:Menus.cpp     ****             if(this->drawSliderFine >= 1)
 2559              		.loc 2 378 13 is_stmt 1 view .LVU643
 2560 0218 F7EE006A 		vmov.f32	s13, #1.0e+0
 2561              		.loc 2 378 22 is_stmt 0 view .LVU644
 2562 021c 95ED1F7A 		vldr.32	s14, [r5, #124]
 2563              		.loc 2 378 13 view .LVU645
 2564 0220 B4EEE67A 		vcmpe.f32	s14, s13
 2565 0224 F1EE10FA 		vmrs	APSR_nzcv, FPSCR
 2566 0228 C0F25482 		blt	.L267
 2567 022c B0EE667A 		vmov.f32	s14, s13
ARM GAS  C:\Users\VINCIU~1\AppData\Local\Temp\ccdhDWPe.s 			page 75


 2568              	.L218:
 379:Menus.cpp     ****             {
 380:Menus.cpp     ****                 this->drawSliderFine = 1;
 381:Menus.cpp     ****             }
 382:Menus.cpp     ****             if(this->drawSliderFine < 0)
 383:Menus.cpp     ****             {
 384:Menus.cpp     ****                 this->drawSliderFine = 0;
 385:Menus.cpp     ****             }
 386:Menus.cpp     **** 
 387:Menus.cpp     ****             this->freqFine += (((float)this->encoderRight.Increment()) / 32);
 2569              		.loc 2 387 13 is_stmt 1 view .LVU646
 2570              	.LVL163:
 2571              	.LBB869:
 2572              	.LBI869:
  41:../../libdaisy/src/hid/encoder.h ****     /** Returns true if the encoder was just pressed.
 2573              		.loc 3 41 20 view .LVU647
 2574              	.LBB870:
  41:../../libdaisy/src/hid/encoder.h ****     /** Returns true if the encoder was just pressed.
 2575              		.loc 3 41 40 view .LVU648
  41:../../libdaisy/src/hid/encoder.h ****     /** Returns true if the encoder was just pressed.
 2576              		.loc 3 41 40 is_stmt 0 view .LVU649
 2577              	.LBE870:
 2578              	.LBE869:
 2579              		.loc 2 387 33 view .LVU650
 2580 0230 D5ED126A 		vldr.32	s13, [r5, #72]	@ int
 388:Menus.cpp     ****             this->drawSliderFine
 389:Menus.cpp     ****                 += (((float)this->encoderRight.Increment()) / 32);
 390:Menus.cpp     ****             sprintf(this->buffFine, "Fine_%d%%", (int)(freqFine * 100));
 2581              		.loc 2 390 20 view .LVU651
 2582 0234 05F1D400 		add	r0, r5, #212
 387:Menus.cpp     ****             this->drawSliderFine
 2583              		.loc 2 387 28 view .LVU652
 2584 0238 DFED555A 		vldr.32	s11, .L274+56
 387:Menus.cpp     ****             this->drawSliderFine
 2585              		.loc 2 387 33 view .LVU653
 2586 023c F8EEE66A 		vcvt.f32.s32	s13, s13
 2587              		.loc 2 390 65 view .LVU654
 2588 0240 9FED4F6A 		vldr.32	s12, .L274+40
 2589              		.loc 2 390 20 view .LVU655
 2590 0244 4F49     		ldr	r1, .L274+44
 387:Menus.cpp     ****             this->drawSliderFine
 2591              		.loc 2 387 28 view .LVU656
 2592 0246 E6EEA57A 		vfma.f32	s15, s13, s11
 389:Menus.cpp     ****             sprintf(this->buffFine, "Fine_%d%%", (int)(freqFine * 100));
 2593              		.loc 2 389 17 view .LVU657
 2594 024a A6EEA57A 		vfma.f32	s14, s13, s11
 2595              		.loc 2 390 65 view .LVU658
 2596 024e 67EE866A 		vmul.f32	s13, s15, s12
 387:Menus.cpp     ****             this->drawSliderFine
 2597              		.loc 2 387 28 view .LVU659
 2598 0252 C5ED5D7A 		vstr.32	s15, [r5, #372]
 388:Menus.cpp     ****             this->drawSliderFine
 2599              		.loc 2 388 13 is_stmt 1 view .LVU660
 2600              	.LVL164:
 388:Menus.cpp     ****             this->drawSliderFine
 2601              		.loc 2 388 13 is_stmt 0 view .LVU661
 2602              	.LBE868:
ARM GAS  C:\Users\VINCIU~1\AppData\Local\Temp\ccdhDWPe.s 			page 76


 2603              	.LBE969:
 2604              	.LBE992:
 2605              	.LBE1015:
  41:../../libdaisy/src/hid/encoder.h ****     /** Returns true if the encoder was just pressed.
 2606              		.loc 3 41 40 is_stmt 1 view .LVU662
 2607              	.LBB1016:
 2608              	.LBB993:
 2609              	.LBB970:
 2610              	.LBB953:
 389:Menus.cpp     ****             sprintf(this->buffFine, "Fine_%d%%", (int)(freqFine * 100));
 2611              		.loc 2 389 17 is_stmt 0 view .LVU663
 2612 0256 85ED1F7A 		vstr.32	s14, [r5, #124]
 2613              		.loc 2 390 13 is_stmt 1 view .LVU664
 2614              		.loc 2 390 20 is_stmt 0 view .LVU665
 2615 025a FDEEE67A 		vcvt.s32.f32	s15, s13
 2616 025e 17EE902A 		vmov	r2, s15	@ int
 2617 0262 FFF7FEFF 		bl	sprintf
 2618              	.LVL165:
 2619              	.L219:
 391:Menus.cpp     ****         }
 392:Menus.cpp     ****         else
 393:Menus.cpp     ****         {
 394:Menus.cpp     ****             if(this->freqFine2 > 1)
 395:Menus.cpp     ****             {
 396:Menus.cpp     ****                 this->freqFine2 = 1;
 397:Menus.cpp     ****             }
 398:Menus.cpp     ****             if(this->freqFine2 < 0)
 399:Menus.cpp     ****             {
 400:Menus.cpp     ****                 this->freqFine2 = 0;
 401:Menus.cpp     ****             }
 402:Menus.cpp     ****             if(this->drawSliderFine2 >= 1)
 403:Menus.cpp     ****             {
 404:Menus.cpp     ****                 this->drawSliderFine2 = 1;
 405:Menus.cpp     ****             }
 406:Menus.cpp     ****             if(this->drawSliderFine2 < 0)
 407:Menus.cpp     ****             {
 408:Menus.cpp     ****                 this->drawSliderFine2 = 0;
 409:Menus.cpp     ****             }
 410:Menus.cpp     **** 
 411:Menus.cpp     ****             this->freqFine2 += (((float)this->encoderRight.Increment()) / 32);
 412:Menus.cpp     ****             this->drawSliderFine2
 413:Menus.cpp     ****                 += (((float)this->encoderRight.Increment()) / 32);
 414:Menus.cpp     ****             sprintf(this->buffFine2, "Fine_%d%%", (int)(freqFine2 * 100));
 415:Menus.cpp     ****         }
 416:Menus.cpp     **** 
 417:Menus.cpp     ****         screen.DrawRect(60,
 2620              		.loc 2 417 9 is_stmt 1 view .LVU666
 2621              		.loc 2 417 24 is_stmt 0 view .LVU667
 2622 0266 95F8E031 		ldrb	r3, [r5, #480]	@ zero_extendqisi2
 2623 026a 0022     		movs	r2, #0
 2624 026c 3F21     		movs	r1, #63
 2625 026e 2046     		mov	r0, r4
 2626 0270 CDE90132 		strd	r3, r2, [sp, #4]
 2627 0274 0091     		str	r1, [sp]
 2628 0276 7F23     		movs	r3, #127
 2629 0278 1D22     		movs	r2, #29
 2630 027a 3C21     		movs	r1, #60
ARM GAS  C:\Users\VINCIU~1\AppData\Local\Temp\ccdhDWPe.s 			page 77


 2631 027c FFF7FEFF 		bl	_ZN5daisy25OneBitGraphicsDisplayImplINS_11OledDisplayINS_13SSD130xDriverILj128ELj64ENS_24SSD130
 2632              	.LVL166:
 2633 0280 DAE0     		b	.L188
 2634              	.LVL167:
 2635              	.L175:
 2636              		.loc 2 417 24 view .LVU668
 2637              	.LBE953:
 2638              	.LBE970:
 2639              	.LBE993:
 2640              	.LBE1016:
 2641              	.LBB1017:
 2642              	.LBB830:
 2643              	.LBB828:
 2644              	.LBB826:
 2645              	.LBB824:
 2646              	.LBB823:
 246:../../libdaisy/src/dev/oled_ssd130x.h ****     }
 2647              		.loc 6 246 42 view .LVU669
 2648 0282 22F02002 		bic	r2, r2, #32
 2649 0286 8CF89421 		strb	r2, [ip, #404]
 2650 028a 63E7     		b	.L176
 2651              	.LVL168:
 2652              	.L180:
 246:../../libdaisy/src/dev/oled_ssd130x.h ****     }
 2653              		.loc 6 246 42 view .LVU670
 2654              	.LBE823:
 2655              	.LBE824:
 2656              	.LBE826:
 2657              	.LBE828:
 2658              	.LBE830:
 2659              	.LBE1017:
 2660              	.LBB1018:
 2661              	.LBB845:
 2662              	.LBB843:
 2663              	.LBB841:
 2664              	.LBB839:
 2665              	.LBB837:
 2666 028c 9CF85010 		ldrb	r1, [ip, #80]	@ zero_extendqisi2
 246:../../libdaisy/src/dev/oled_ssd130x.h ****     }
 2667              		.loc 6 246 49 view .LVU671
 2668 0290 08FA0EF8 		lsl	r8, r8, lr
 246:../../libdaisy/src/dev/oled_ssd130x.h ****     }
 2669              		.loc 6 246 42 view .LVU672
 2670 0294 21EA0808 		bic	r8, r1, r8
 2671 0298 8CF85080 		strb	r8, [ip, #80]
 2672 029c 7AE7     		b	.L181
 2673              	.LVL169:
 2674              	.L184:
 246:../../libdaisy/src/dev/oled_ssd130x.h ****     }
 2675              		.loc 6 246 42 view .LVU673
 2676              	.LBE837:
 2677              	.LBE839:
 2678              	.LBE841:
 2679              	.LBE843:
 2680              	.LBE845:
 2681              	.LBE1018:
 2682              	.LBB1019:
ARM GAS  C:\Users\VINCIU~1\AppData\Local\Temp\ccdhDWPe.s 			page 78


 2683              	.LBB860:
 2684              	.LBB858:
 2685              	.LBB856:
 2686              	.LBB854:
 2687              	.LBB852:
 2688 029e 9CF83120 		ldrb	r2, [ip, #49]	@ zero_extendqisi2
 246:../../libdaisy/src/dev/oled_ssd130x.h ****     }
 2689              		.loc 6 246 49 view .LVU674
 2690 02a2 08FA0EF8 		lsl	r8, r8, lr
 246:../../libdaisy/src/dev/oled_ssd130x.h ****     }
 2691              		.loc 6 246 42 view .LVU675
 2692 02a6 22EA0808 		bic	r8, r2, r8
 2693 02aa 8CF83180 		strb	r8, [ip, #49]
 2694 02ae 8BE7     		b	.L185
 2695              	.LVL170:
 2696              	.L172:
 246:../../libdaisy/src/dev/oled_ssd130x.h ****     }
 2697              		.loc 6 246 42 view .LVU676
 2698              	.LBE852:
 2699              	.LBE854:
 2700              	.LBE856:
 2701              	.LBE858:
 2702              	.LBE860:
 2703              	.LBE1019:
 132:Menus.cpp     ****         screen.drawSlider(70, 40, 50, 3, false, drawSliderFine2);
 2704              		.loc 2 132 9 is_stmt 1 view .LVU677
 132:Menus.cpp     ****         screen.drawSlider(70, 40, 50, 3, false, drawSliderFine2);
 2705              		.loc 2 132 26 is_stmt 0 view .LVU678
 2706 02b0 D5ED202A 		vldr.32	s5, [r5, #128]
 2707 02b4 2046     		mov	r0, r4
 2708 02b6 9FED378A 		vldr.32	s16, .L274+60
 2709 02ba F0EE081A 		vmov.f32	s3, #3.0e+0
 2710 02be F1EE0C0A 		vmov.f32	s1, #7.0e+0
 2711 02c2 9FED322A 		vldr.32	s4, .L274+52
 2712 02c6 C2EE882A 		vdiv.f32	s5, s5, s16
 2713 02ca 9FED251A 		vldr.32	s2, .L274+8
 2714 02ce 9FED250A 		vldr.32	s0, .L274+12
 2715 02d2 FFF7FEFF 		bl	_ZN23OledDisplayExtravaganza10drawSliderEffffff
 2716              	.LVL171:
 133:Menus.cpp     ****         screen.drawVerticalToggle(13, 51, 8, false, this->toggleOsc2, "");
 2717              		.loc 2 133 9 is_stmt 1 view .LVU679
 133:Menus.cpp     ****         screen.drawVerticalToggle(13, 51, 8, false, this->toggleOsc2, "");
 2718              		.loc 2 133 26 is_stmt 0 view .LVU680
 2719 02d6 D5ED212A 		vldr.32	s5, [r5, #132]
 2720 02da 9FED2C2A 		vldr.32	s4, .L274+52
 2721 02de 2046     		mov	r0, r4
 2722 02e0 9FED1F1A 		vldr.32	s2, .L274+8
 2723 02e4 F0EE081A 		vmov.f32	s3, #3.0e+0
 2724 02e8 9FED1E0A 		vldr.32	s0, .L274+12
 2725 02ec F0EE480A 		vmov.f32	s1, s16
 137:Menus.cpp     ****         screen.SetCursor(70, 50);
 2726              		.loc 2 137 27 view .LVU681
 2727 02f0 DFF89490 		ldr	r9, .L274+48
 133:Menus.cpp     ****         screen.drawVerticalToggle(13, 51, 8, false, this->toggleOsc2, "");
 2728              		.loc 2 133 26 view .LVU682
 2729 02f4 FFF7FEFF 		bl	_ZN23OledDisplayExtravaganza10drawSliderEffffff
 2730              	.LVL172:
ARM GAS  C:\Users\VINCIU~1\AppData\Local\Temp\ccdhDWPe.s 			page 79


 134:Menus.cpp     ****         screen.WaveIcons(35, 42, 55, this->selectedWave2, false);
 2731              		.loc 2 134 9 is_stmt 1 view .LVU683
 134:Menus.cpp     ****         screen.WaveIcons(35, 42, 55, this->selectedWave2, false);
 2732              		.loc 2 134 34 is_stmt 0 view .LVU684
 2733 02f8 B2EE001A 		vmov.f32	s2, #8.0e+0
 2734 02fc B2EE0A0A 		vmov.f32	s0, #1.3e+1
 2735 0300 DFED190A 		vldr.32	s1, .L274+16
 2736 0304 95F89920 		ldrb	r2, [r5, #153]	@ zero_extendqisi2
 2737 0308 4146     		mov	r1, r8
 2738 030a 2046     		mov	r0, r4
 2739 030c 134B     		ldr	r3, .L274+4
 2740 030e FFF7FEFF 		bl	_ZN23OledDisplayExtravaganza18drawVerticalToggleEfffbbPKc
 2741              	.LVL173:
 135:Menus.cpp     ****         screen.SetCursor(70, 17);
 2742              		.loc 2 135 9 is_stmt 1 view .LVU685
 135:Menus.cpp     ****         screen.SetCursor(70, 17);
 2743              		.loc 2 135 25 is_stmt 0 view .LVU686
 2744 0312 CDF80480 		str	r8, [sp, #4]
 2745 0316 D5F8A030 		ldr	r3, [r5, #160]
 2746 031a 2046     		mov	r0, r4
 2747 031c 2A22     		movs	r2, #42
 2748 031e 2321     		movs	r1, #35
 2749 0320 0093     		str	r3, [sp]
 2750 0322 3723     		movs	r3, #55
 2751 0324 FFF7FEFF 		bl	_ZN23OledDisplayExtravaganza9WaveIconsEiiiib
 2752              	.LVL174:
 136:Menus.cpp     ****         screen.WriteString(this->buff2, Font_6x8, false);
 2753              		.loc 2 136 9 is_stmt 1 view .LVU687
 2754              	.LBB1020:
 2755              	.LBI1020:
 131:../../libdaisy/src/hid/disp/display.h ****     {
 2756              		.loc 5 131 10 view .LVU688
 2757              	.LBB1021:
 133:../../libdaisy/src/hid/disp/display.h ****         currentY_ = (y >= Height()) ? Height() - 1 : y;
 2758              		.loc 5 133 9 view .LVU689
 134:../../libdaisy/src/hid/disp/display.h ****     }
 2759              		.loc 5 134 9 view .LVU690
 133:../../libdaisy/src/hid/disp/display.h ****         currentY_ = (y >= Height()) ? Height() - 1 : y;
 2760              		.loc 5 133 19 is_stmt 0 view .LVU691
 2761 0328 104B     		ldr	r3, .L274+20
 2762              	.LBE1021:
 2763              	.LBE1020:
 137:Menus.cpp     ****         screen.SetCursor(70, 50);
 2764              		.loc 2 137 27 view .LVU692
 2765 032a CDF80080 		str	r8, [sp]
 2766 032e 05F1BC01 		add	r1, r5, #188
 2767              	.LBB1023:
 2768              	.LBB1022:
 133:../../libdaisy/src/hid/disp/display.h ****         currentY_ = (y >= Height()) ? Height() - 1 : y;
 2769              		.loc 5 133 19 view .LVU693
 2770 0332 6360     		str	r3, [r4, #4]
 2771              	.LVL175:
 133:../../libdaisy/src/hid/disp/display.h ****         currentY_ = (y >= Height()) ? Height() - 1 : y;
 2772              		.loc 5 133 19 view .LVU694
 2773              	.LBE1022:
 2774              	.LBE1023:
 137:Menus.cpp     ****         screen.SetCursor(70, 50);
ARM GAS  C:\Users\VINCIU~1\AppData\Local\Temp\ccdhDWPe.s 			page 80


 2775              		.loc 2 137 9 is_stmt 1 view .LVU695
 137:Menus.cpp     ****         screen.SetCursor(70, 50);
 2776              		.loc 2 137 27 is_stmt 0 view .LVU696
 2777 0334 2046     		mov	r0, r4
 2778 0336 99E80C00 		ldm	r9, {r2, r3}
 2779 033a FFF7FEFF 		bl	_ZN5daisy25OneBitGraphicsDisplayImplINS_11OledDisplayINS_13SSD130xDriverILj128ELj64ENS_24SSD130
 2780              	.LVL176:
 138:Menus.cpp     ****         screen.WriteString(this->buffFine2, Font_6x8, false);
 2781              		.loc 2 138 9 is_stmt 1 view .LVU697
 2782              	.LBB1024:
 2783              	.LBI1024:
 131:../../libdaisy/src/hid/disp/display.h ****     {
 2784              		.loc 5 131 10 view .LVU698
 2785              	.LBB1025:
 133:../../libdaisy/src/hid/disp/display.h ****         currentY_ = (y >= Height()) ? Height() - 1 : y;
 2786              		.loc 5 133 9 view .LVU699
 134:../../libdaisy/src/hid/disp/display.h ****     }
 2787              		.loc 5 134 9 view .LVU700
 133:../../libdaisy/src/hid/disp/display.h ****         currentY_ = (y >= Height()) ? Height() - 1 : y;
 2788              		.loc 5 133 19 is_stmt 0 view .LVU701
 2789 033e 0C4B     		ldr	r3, .L274+24
 2790              	.LBE1025:
 2791              	.LBE1024:
 139:Menus.cpp     ****     }
 2792              		.loc 2 139 27 view .LVU702
 2793 0340 CDF80080 		str	r8, [sp]
 2794 0344 05F1EC01 		add	r1, r5, #236
 2795              	.LBB1027:
 2796              	.LBB1026:
 133:../../libdaisy/src/hid/disp/display.h ****         currentY_ = (y >= Height()) ? Height() - 1 : y;
 2797              		.loc 5 133 19 view .LVU703
 2798 0348 6360     		str	r3, [r4, #4]
 2799              	.LVL177:
 133:../../libdaisy/src/hid/disp/display.h ****         currentY_ = (y >= Height()) ? Height() - 1 : y;
 2800              		.loc 5 133 19 view .LVU704
 2801              	.LBE1026:
 2802              	.LBE1027:
 139:Menus.cpp     ****     }
 2803              		.loc 2 139 9 is_stmt 1 view .LVU705
 139:Menus.cpp     ****     }
 2804              		.loc 2 139 27 is_stmt 0 view .LVU706
 2805 034a 2046     		mov	r0, r4
 2806 034c 99E80C00 		ldm	r9, {r2, r3}
 2807 0350 FFF7FEFF 		bl	_ZN5daisy25OneBitGraphicsDisplayImplINS_11OledDisplayINS_13SSD130xDriverILj128ELj64ENS_24SSD130
 2808              	.LVL178:
 2809 0354 E4E6     		b	.L173
 2810              	.L275:
 2811 0356 00BF     		.align	2
 2812              	.L274:
 2813 0358 00003842 		.word	1110966272
 2814 035c 00000000 		.word	.LC1
 2815 0360 00004842 		.word	1112014848
 2816 0364 00008C42 		.word	1116471296
 2817 0368 00004C42 		.word	1112276992
 2818 036c 46001100 		.word	1114182
 2819 0370 46003200 		.word	3276870
 2820 0374 04000800 		.word	524292
ARM GAS  C:\Users\VINCIU~1\AppData\Local\Temp\ccdhDWPe.s 			page 81


 2821 0378 00000000 		.word	Font_7x10
 2822 037c 04000000 		.word	.LC2
 2823 0380 0000C842 		.word	1120403456
 2824 0384 14000000 		.word	.LC4
 2825 0388 00000000 		.word	Font_6x8
 2826 038c 00000000 		.word	0
 2827 0390 0000003D 		.word	1023410176
 2828 0394 00002042 		.word	1109393408
 2829              	.L263:
 2830              	.LBB1028:
 2831              	.LBB994:
 167:Menus.cpp     ****         {
 2832              		.loc 2 167 9 is_stmt 1 view .LVU707
 2833 0398 95F87430 		ldrb	r3, [r5, #116]	@ zero_extendqisi2
 2834 039c 002B     		cmp	r3, #0
 2835 039e 40F09F80 		bne	.L268
 192:Menus.cpp     ****             {
 2836              		.loc 2 192 13 view .LVU708
 192:Menus.cpp     ****             {
 2837              		.loc 2 192 22 is_stmt 0 view .LVU709
 2838 03a2 D5F86831 		ldr	r3, [r5, #360]
 192:Menus.cpp     ****             {
 2839              		.loc 2 192 13 view .LVU710
 2840 03a6 202B     		cmp	r3, #32
 2841 03a8 00F31981 		bgt	.L230
 196:Menus.cpp     ****             {
 2842              		.loc 2 196 13 is_stmt 1 view .LVU711
 2843 03ac 002B     		cmp	r3, #0
 2844 03ae 80F27C81 		bge	.L269
 2845 03b2 5FED0A6A 		vldr.32	s13, .L274+52
 2846              	.L193:
 200:Menus.cpp     ****             {
 2847              		.loc 2 200 13 view .LVU712
 200:Menus.cpp     ****             {
 2848              		.loc 2 200 22 is_stmt 0 view .LVU713
 2849 03b6 95ED207A 		vldr.32	s14, [r5, #128]
 200:Menus.cpp     ****             {
 2850              		.loc 2 200 13 view .LVU714
 2851 03ba 5FED0A7A 		vldr.32	s15, .L274+60
 2852 03be B4EEE77A 		vcmpe.f32	s14, s15
 2853 03c2 F1EE10FA 		vmrs	APSR_nzcv, FPSCR
 2854 03c6 80F20781 		bge	.L232
 204:Menus.cpp     ****             {
 2855              		.loc 2 204 13 is_stmt 1 view .LVU715
 2856 03ca B5EEC07A 		vcmpe.f32	s14, #0
 2857 03ce F1EE10FA 		vmrs	APSR_nzcv, FPSCR
 2858 03d2 01D5     		bpl	.L194
 2859 03d4 1FED137A 		vldr.32	s14, .L274+52
 2860              	.L194:
 208:Menus.cpp     ****             this->drawSliderSemi2
 2861              		.loc 2 208 13 view .LVU716
 2862              	.LVL179:
 2863              	.LBB971:
 2864              	.LBI971:
  41:../../libdaisy/src/hid/encoder.h ****     /** Returns true if the encoder was just pressed.
 2865              		.loc 3 41 20 view .LVU717
 2866              	.LBB972:
ARM GAS  C:\Users\VINCIU~1\AppData\Local\Temp\ccdhDWPe.s 			page 82


  41:../../libdaisy/src/hid/encoder.h ****     /** Returns true if the encoder was just pressed.
 2867              		.loc 3 41 40 view .LVU718
  41:../../libdaisy/src/hid/encoder.h ****     /** Returns true if the encoder was just pressed.
 2868              		.loc 3 41 40 is_stmt 0 view .LVU719
 2869              	.LBE972:
 2870              	.LBE971:
 208:Menus.cpp     ****             this->drawSliderSemi2
 2871              		.loc 2 208 35 view .LVU720
 2872 03d8 D5ED127A 		vldr.32	s15, [r5, #72]	@ int
 211:Menus.cpp     ****         }
 2873              		.loc 2 211 20 view .LVU721
 2874 03dc 05F1BC00 		add	r0, r5, #188
 210:Menus.cpp     ****             sprintf(this->buff2, "Semi_%dst", this->noteSemiAdd2);
 2875              		.loc 2 210 61 view .LVU722
 2876 03e0 1FED156A 		vldr.32	s12, .L274+56
 208:Menus.cpp     ****             this->drawSliderSemi2
 2877              		.loc 2 208 35 view .LVU723
 2878 03e4 F8EEE77A 		vcvt.f32.s32	s15, s15
 210:Menus.cpp     ****             sprintf(this->buff2, "Semi_%dst", this->noteSemiAdd2);
 2879              		.loc 2 210 17 view .LVU724
 2880 03e8 5FED165A 		vldr.32	s11, .L274+60
 211:Menus.cpp     ****         }
 2881              		.loc 2 211 20 view .LVU725
 2882 03ec CB49     		ldr	r1, .L276
 210:Menus.cpp     ****             sprintf(this->buff2, "Semi_%dst", this->noteSemiAdd2);
 2883              		.loc 2 210 61 view .LVU726
 2884 03ee 27EE866A 		vmul.f32	s12, s15, s12
 208:Menus.cpp     ****             this->drawSliderSemi2
 2885              		.loc 2 208 32 view .LVU727
 2886 03f2 77EEA67A 		vadd.f32	s15, s15, s13
 210:Menus.cpp     ****             sprintf(this->buff2, "Semi_%dst", this->noteSemiAdd2);
 2887              		.loc 2 210 17 view .LVU728
 2888 03f6 A6EE257A 		vfma.f32	s14, s12, s11
 208:Menus.cpp     ****             this->drawSliderSemi2
 2889              		.loc 2 208 32 view .LVU729
 2890 03fa FDEEE77A 		vcvt.s32.f32	s15, s15
 2891 03fe 17EE902A 		vmov	r2, s15	@ int
 2892 0402 C5ED5A7A 		vstr.32	s15, [r5, #360]	@ int
 209:Menus.cpp     ****                 += (((float)this->encoderRight.Increment()) / 32) * 40;
 2893              		.loc 2 209 13 is_stmt 1 view .LVU730
 2894              	.LVL180:
 209:Menus.cpp     ****                 += (((float)this->encoderRight.Increment()) / 32) * 40;
 2895              		.loc 2 209 13 is_stmt 0 view .LVU731
 2896              	.LBE994:
 2897              	.LBE1028:
  41:../../libdaisy/src/hid/encoder.h ****     /** Returns true if the encoder was just pressed.
 2898              		.loc 3 41 40 is_stmt 1 view .LVU732
 2899              	.LBB1029:
 2900              	.LBB995:
 210:Menus.cpp     ****             sprintf(this->buff2, "Semi_%dst", this->noteSemiAdd2);
 2901              		.loc 2 210 17 is_stmt 0 view .LVU733
 2902 0406 85ED207A 		vstr.32	s14, [r5, #128]
 211:Menus.cpp     ****         }
 2903              		.loc 2 211 13 is_stmt 1 view .LVU734
 211:Menus.cpp     ****         }
 2904              		.loc 2 211 20 is_stmt 0 view .LVU735
 2905 040a FFF7FEFF 		bl	sprintf
ARM GAS  C:\Users\VINCIU~1\AppData\Local\Temp\ccdhDWPe.s 			page 83


 2906              	.LVL181:
 2907              	.L192:
 215:Menus.cpp     ****             60, 0, screen.Width() - 1, screen.Height() / 2 - 3, on, false);
 2908              		.loc 2 215 9 is_stmt 1 view .LVU736
 215:Menus.cpp     ****             60, 0, screen.Width() - 1, screen.Height() / 2 - 3, on, false);
 2909              		.loc 2 215 24 is_stmt 0 view .LVU737
 2910 040e 95F8E011 		ldrb	r1, [r5, #480]	@ zero_extendqisi2
 2911 0412 0022     		movs	r2, #0
 2912 0414 1D23     		movs	r3, #29
 2913 0416 2046     		mov	r0, r4
 2914 0418 CDE90112 		strd	r1, r2, [sp, #4]
 2915 041c 0093     		str	r3, [sp]
 2916 041e 3C21     		movs	r1, #60
 2917 0420 7F23     		movs	r3, #127
 2918 0422 FFF7FEFF 		bl	_ZN5daisy25OneBitGraphicsDisplayImplINS_11OledDisplayINS_13SSD130xDriverILj128ELj64ENS_24SSD130
 2919              	.LVL182:
 2920 0426 07E0     		b	.L188
 2921              	.L262:
 215:Menus.cpp     ****             60, 0, screen.Width() - 1, screen.Height() / 2 - 3, on, false);
 2922              		.loc 2 215 24 view .LVU738
 2923              	.LBE995:
 162:Menus.cpp     ****         on                = this->OscSelector;
 2924              		.loc 2 162 9 is_stmt 1 view .LVU739
 162:Menus.cpp     ****         on                = this->OscSelector;
 2925              		.loc 2 162 29 is_stmt 0 view .LVU740
 2926 0428 95F87430 		ldrb	r3, [r5, #116]	@ zero_extendqisi2
 2927 042c 83F00103 		eor	r3, r3, #1
 162:Menus.cpp     ****         on                = this->OscSelector;
 2928              		.loc 2 162 27 view .LVU741
 2929 0430 85F87430 		strb	r3, [r5, #116]
 163:Menus.cpp     ****     }
 2930              		.loc 2 163 9 is_stmt 1 view .LVU742
 163:Menus.cpp     ****     }
 2931              		.loc 2 163 27 is_stmt 0 view .LVU743
 2932 0434 85F8E031 		strb	r3, [r5, #480]
 2933              	.L188:
 163:Menus.cpp     ****     }
 2934              		.loc 2 163 27 view .LVU744
 2935              	.LBE1029:
 2936              	.LBB1030:
 2937              	.LBB1031:
 2938              	.LBB1032:
 2939              	.LBB1033:
 2940              	.LBB1034:
 111:../../libdaisy/src/dev/oled_ssd130x.h ****         spi_.BlockingTransmit(&cmd, 1);
 2941              		.loc 6 111 24 view .LVU745
 2942 0438 04F10807 		add	r7, r4, #8
 2943              	.LVL183:
 112:../../libdaisy/src/dev/oled_ssd130x.h ****     };
 2944              		.loc 6 112 30 view .LVU746
 2945 043c B025     		movs	r5, #176
 2946              	.LVL184:
 111:../../libdaisy/src/dev/oled_ssd130x.h ****         spi_.BlockingTransmit(&cmd, 1);
 2947              		.loc 6 111 24 view .LVU747
 2948 043e 1034     		adds	r4, r4, #16
 2949              	.LVL185:
 2950              	.L222:
ARM GAS  C:\Users\VINCIU~1\AppData\Local\Temp\ccdhDWPe.s 			page 84


 111:../../libdaisy/src/dev/oled_ssd130x.h ****         spi_.BlockingTransmit(&cmd, 1);
 2951              		.loc 6 111 24 view .LVU748
 2952 0440 4FF00008 		mov	r8, #0
 111:../../libdaisy/src/dev/oled_ssd130x.h ****         spi_.BlockingTransmit(&cmd, 1);
 2953              		.loc 6 111 23 view .LVU749
 2954 0444 2046     		mov	r0, r4
 2955 0446 8DF81750 		strb	r5, [sp, #23]
 2956              	.LVL186:
 111:../../libdaisy/src/dev/oled_ssd130x.h ****         spi_.BlockingTransmit(&cmd, 1);
 2957              		.loc 6 111 23 view .LVU750
 2958              	.LBE1034:
 2959              	.LBI1033:
 109:../../libdaisy/src/dev/oled_ssd130x.h ****     {
 2960              		.loc 6 109 10 is_stmt 1 view .LVU751
 2961              	.LBB1035:
 111:../../libdaisy/src/dev/oled_ssd130x.h ****         spi_.BlockingTransmit(&cmd, 1);
 2962              		.loc 6 111 9 view .LVU752
 2963              	.LBE1035:
 2964              	.LBE1033:
 254:../../libdaisy/src/dev/oled_ssd130x.h ****         }
 255:../../libdaisy/src/dev/oled_ssd130x.h ****     };
 256:../../libdaisy/src/dev/oled_ssd130x.h **** 
 257:../../libdaisy/src/dev/oled_ssd130x.h ****     /**
 258:../../libdaisy/src/dev/oled_ssd130x.h ****      * Update the display 
 259:../../libdaisy/src/dev/oled_ssd130x.h ****     */
 260:../../libdaisy/src/dev/oled_ssd130x.h ****     void Update()
 261:../../libdaisy/src/dev/oled_ssd130x.h ****     {
 262:../../libdaisy/src/dev/oled_ssd130x.h ****         uint8_t i;
 263:../../libdaisy/src/dev/oled_ssd130x.h ****         uint8_t high_column_addr;
 264:../../libdaisy/src/dev/oled_ssd130x.h ****         switch(height)
 265:../../libdaisy/src/dev/oled_ssd130x.h ****         {
 266:../../libdaisy/src/dev/oled_ssd130x.h ****             case 32: high_column_addr = 0x12; break;
 267:../../libdaisy/src/dev/oled_ssd130x.h **** 
 268:../../libdaisy/src/dev/oled_ssd130x.h ****             default: high_column_addr = 0x10; break;
 269:../../libdaisy/src/dev/oled_ssd130x.h ****         }
 270:../../libdaisy/src/dev/oled_ssd130x.h ****         for(i = 0; i < (height / 8); i++)
 2965              		.loc 6 270 22 is_stmt 0 view .LVU753
 2966 044a 0135     		adds	r5, r5, #1
 2967              	.LVL187:
 2968              	.LBB1038:
 2969              	.LBB1036:
 111:../../libdaisy/src/dev/oled_ssd130x.h ****         spi_.BlockingTransmit(&cmd, 1);
 2970              		.loc 6 111 23 view .LVU754
 2971 044c 4146     		mov	r1, r8
 2972 044e FFF7FEFF 		bl	dsy_gpio_write
 2973              	.LVL188:
 112:../../libdaisy/src/dev/oled_ssd130x.h ****     };
 2974              		.loc 6 112 9 is_stmt 1 view .LVU755
 112:../../libdaisy/src/dev/oled_ssd130x.h ****     };
 2975              		.loc 6 112 30 is_stmt 0 view .LVU756
 2976 0452 6423     		movs	r3, #100
 2977 0454 0122     		movs	r2, #1
 2978 0456 0DF11701 		add	r1, sp, #23
 2979 045a 3846     		mov	r0, r7
 2980              	.LBE1036:
 2981              	.LBE1038:
 2982              		.loc 6 270 22 view .LVU757
ARM GAS  C:\Users\VINCIU~1\AppData\Local\Temp\ccdhDWPe.s 			page 85


 2983 045c EDB2     		uxtb	r5, r5
 2984              	.LBB1039:
 2985              	.LBB1037:
 112:../../libdaisy/src/dev/oled_ssd130x.h ****     };
 2986              		.loc 6 112 30 view .LVU758
 2987 045e FFF7FEFF 		bl	_ZN5daisy9SpiHandle16BlockingTransmitEPhjm
 2988              	.LVL189:
 112:../../libdaisy/src/dev/oled_ssd130x.h ****     };
 2989              		.loc 6 112 30 view .LVU759
 2990              	.LBE1037:
 2991              	.LBE1039:
 2992              	.LBB1040:
 2993              	.LBB1041:
 111:../../libdaisy/src/dev/oled_ssd130x.h ****         spi_.BlockingTransmit(&cmd, 1);
 2994              		.loc 6 111 23 view .LVU760
 2995 0462 4146     		mov	r1, r8
 2996 0464 2046     		mov	r0, r4
 2997 0466 8DF81780 		strb	r8, [sp, #23]
 2998              	.LVL190:
 111:../../libdaisy/src/dev/oled_ssd130x.h ****         spi_.BlockingTransmit(&cmd, 1);
 2999              		.loc 6 111 23 view .LVU761
 3000              	.LBE1041:
 3001              	.LBI1040:
 109:../../libdaisy/src/dev/oled_ssd130x.h ****     {
 3002              		.loc 6 109 10 is_stmt 1 view .LVU762
 3003              	.LBB1042:
 111:../../libdaisy/src/dev/oled_ssd130x.h ****         spi_.BlockingTransmit(&cmd, 1);
 3004              		.loc 6 111 9 view .LVU763
 111:../../libdaisy/src/dev/oled_ssd130x.h ****         spi_.BlockingTransmit(&cmd, 1);
 3005              		.loc 6 111 23 is_stmt 0 view .LVU764
 3006 046a FFF7FEFF 		bl	dsy_gpio_write
 3007              	.LVL191:
 112:../../libdaisy/src/dev/oled_ssd130x.h ****     };
 3008              		.loc 6 112 9 is_stmt 1 view .LVU765
 112:../../libdaisy/src/dev/oled_ssd130x.h ****     };
 3009              		.loc 6 112 30 is_stmt 0 view .LVU766
 3010 046e 0122     		movs	r2, #1
 3011 0470 6423     		movs	r3, #100
 3012 0472 0DF11701 		add	r1, sp, #23
 3013 0476 3846     		mov	r0, r7
 3014 0478 FFF7FEFF 		bl	_ZN5daisy9SpiHandle16BlockingTransmitEPhjm
 3015              	.LVL192:
 112:../../libdaisy/src/dev/oled_ssd130x.h ****     };
 3016              		.loc 6 112 30 view .LVU767
 3017 047c 1023     		movs	r3, #16
 3018              	.LBE1042:
 3019              	.LBE1040:
 3020              	.LBB1043:
 3021              	.LBB1044:
 111:../../libdaisy/src/dev/oled_ssd130x.h ****         spi_.BlockingTransmit(&cmd, 1);
 3022              		.loc 6 111 23 view .LVU768
 3023 047e 4146     		mov	r1, r8
 3024 0480 2046     		mov	r0, r4
 3025 0482 8DF81730 		strb	r3, [sp, #23]
 3026              	.LVL193:
 111:../../libdaisy/src/dev/oled_ssd130x.h ****         spi_.BlockingTransmit(&cmd, 1);
 3027              		.loc 6 111 23 view .LVU769
ARM GAS  C:\Users\VINCIU~1\AppData\Local\Temp\ccdhDWPe.s 			page 86


 3028              	.LBE1044:
 3029              	.LBI1043:
 109:../../libdaisy/src/dev/oled_ssd130x.h ****     {
 3030              		.loc 6 109 10 is_stmt 1 view .LVU770
 3031              	.LBB1045:
 111:../../libdaisy/src/dev/oled_ssd130x.h ****         spi_.BlockingTransmit(&cmd, 1);
 3032              		.loc 6 111 9 view .LVU771
 111:../../libdaisy/src/dev/oled_ssd130x.h ****         spi_.BlockingTransmit(&cmd, 1);
 3033              		.loc 6 111 23 is_stmt 0 view .LVU772
 3034 0486 FFF7FEFF 		bl	dsy_gpio_write
 3035              	.LVL194:
 112:../../libdaisy/src/dev/oled_ssd130x.h ****     };
 3036              		.loc 6 112 9 is_stmt 1 view .LVU773
 112:../../libdaisy/src/dev/oled_ssd130x.h ****     };
 3037              		.loc 6 112 30 is_stmt 0 view .LVU774
 3038 048a 6423     		movs	r3, #100
 3039 048c 0122     		movs	r2, #1
 3040 048e 0DF11701 		add	r1, sp, #23
 3041 0492 3846     		mov	r0, r7
 3042 0494 FFF7FEFF 		bl	_ZN5daisy9SpiHandle16BlockingTransmitEPhjm
 3043              	.LVL195:
 112:../../libdaisy/src/dev/oled_ssd130x.h ****     };
 3044              		.loc 6 112 30 view .LVU775
 3045              	.LBE1045:
 3046              	.LBE1043:
 3047              	.LBB1046:
 3048              	.LBI1046:
 115:../../libdaisy/src/dev/oled_ssd130x.h ****     {
 3049              		.loc 6 115 10 is_stmt 1 view .LVU776
 3050              	.LBB1047:
 117:../../libdaisy/src/dev/oled_ssd130x.h ****         spi_.BlockingTransmit(buff, size);
 3051              		.loc 6 117 9 view .LVU777
 117:../../libdaisy/src/dev/oled_ssd130x.h ****         spi_.BlockingTransmit(buff, size);
 3052              		.loc 6 117 23 is_stmt 0 view .LVU778
 3053 0498 0121     		movs	r1, #1
 3054 049a 2046     		mov	r0, r4
 3055 049c FFF7FEFF 		bl	dsy_gpio_write
 3056              	.LVL196:
 118:../../libdaisy/src/dev/oled_ssd130x.h ****     };
 3057              		.loc 6 118 9 is_stmt 1 view .LVU779
 118:../../libdaisy/src/dev/oled_ssd130x.h ****     };
 3058              		.loc 6 118 30 is_stmt 0 view .LVU780
 3059 04a0 8022     		movs	r2, #128
 3060 04a2 3146     		mov	r1, r6
 3061 04a4 6423     		movs	r3, #100
 3062 04a6 3846     		mov	r0, r7
 3063              	.LBE1047:
 3064              	.LBE1046:
 3065              		.loc 6 270 22 view .LVU781
 3066 04a8 1644     		add	r6, r6, r2
 3067              	.LVL197:
 3068              	.LBB1049:
 3069              	.LBB1048:
 118:../../libdaisy/src/dev/oled_ssd130x.h ****     };
 3070              		.loc 6 118 30 view .LVU782
 3071 04aa FFF7FEFF 		bl	_ZN5daisy9SpiHandle16BlockingTransmitEPhjm
 3072              	.LVL198:
ARM GAS  C:\Users\VINCIU~1\AppData\Local\Temp\ccdhDWPe.s 			page 87


 118:../../libdaisy/src/dev/oled_ssd130x.h ****     };
 3073              		.loc 6 118 30 view .LVU783
 3074              	.LBE1048:
 3075              	.LBE1049:
 3076              		.loc 6 270 9 is_stmt 1 view .LVU784
 3077              		.loc 6 270 22 view .LVU785
 3078 04ae B82D     		cmp	r5, #184
 3079 04b0 C6D1     		bne	.L222
 3080              	.LBE1032:
 3081              	.LBE1031:
 3082              	.LBE1030:
 418:Menus.cpp     ****                         screen.Height() / 2 - 3,
 419:Menus.cpp     ****                         screen.Width() - 1,
 420:Menus.cpp     ****                         screen.Height() - 1,
 421:Menus.cpp     ****                         on,
 422:Menus.cpp     ****                         false);
 423:Menus.cpp     ****     }
 424:Menus.cpp     ****     //noteCross            = noteCross + (this->drawSliderSemi * 100);
 425:Menus.cpp     ****     screen.Update();
 426:Menus.cpp     **** }
 3083              		.loc 2 426 1 is_stmt 0 view .LVU786
 3084 04b2 07B0     		add	sp, sp, #28
 3085              		.cfi_remember_state
 3086              		.cfi_def_cfa_offset 36
 3087              		@ sp needed
 3088 04b4 BDEC028B 		vldm	sp!, {d8}
 3089              		.cfi_restore 80
 3090              		.cfi_restore 81
 3091              		.cfi_def_cfa_offset 28
 3092 04b8 BDE8F083 		pop	{r4, r5, r6, r7, r8, r9, pc}
 3093              	.LVL199:
 3094              	.L257:
 3095              		.cfi_restore_state
 101:Menus.cpp     ****         if(menuState < 0)
 3096              		.loc 2 101 9 is_stmt 1 view .LVU787
 102:Menus.cpp     ****         {
 3097              		.loc 2 102 9 view .LVU788
 101:Menus.cpp     ****         if(menuState < 0)
 3098              		.loc 2 101 31 is_stmt 0 view .LVU789
 3099 04bc EB6E     		ldr	r3, [r5, #108]
 102:Menus.cpp     ****         {
 3100              		.loc 2 102 9 view .LVU790
 3101 04be 013B     		subs	r3, r3, #1
 3102 04c0 71D4     		bmi	.L168
 101:Menus.cpp     ****         if(menuState < 0)
 3103              		.loc 2 101 19 view .LVU791
 3104 04c2 EB66     		str	r3, [r5, #108]
 107:Menus.cpp     **** 
 3105              		.loc 2 107 5 is_stmt 1 view .LVU792
 3106              	.LVL200:
 3107              	.LBB1050:
 3108              		.loc 4 69 17 view .LVU793
 3109              	.LBB804:
 3110              		.loc 4 69 38 view .LVU794
 3111              		.loc 4 69 38 is_stmt 0 view .LVU795
 3112              	.LBE804:
 3113              	.LBE1050:
ARM GAS  C:\Users\VINCIU~1\AppData\Local\Temp\ccdhDWPe.s 			page 88


 107:Menus.cpp     **** 
 3114              		.loc 2 107 5 view .LVU796
 3115 04c4 95F86130 		ldrb	r3, [r5, #97]	@ zero_extendqisi2
 3116 04c8 7F2B     		cmp	r3, #127
 3117 04ca 7FF4B8AD 		bne	.L170
 3118              	.L258:
 110:Menus.cpp     ****         if(menuState > 3)
 3119              		.loc 2 110 9 is_stmt 1 view .LVU797
 110:Menus.cpp     ****         if(menuState > 3)
 3120              		.loc 2 110 31 is_stmt 0 view .LVU798
 3121 04ce EB6E     		ldr	r3, [r5, #108]
 3122 04d0 0133     		adds	r3, r3, #1
 111:Menus.cpp     ****         {
 3123              		.loc 2 111 9 view .LVU799
 3124 04d2 032B     		cmp	r3, #3
 110:Menus.cpp     ****         if(menuState > 3)
 3125              		.loc 2 110 19 view .LVU800
 3126 04d4 EB66     		str	r3, [r5, #108]
 111:Menus.cpp     ****         {
 3127              		.loc 2 111 9 is_stmt 1 view .LVU801
 3128 04d6 7FF7B2AD 		ble	.L170
 3129              	.L169:
 113:Menus.cpp     ****         }
 3130              		.loc 2 113 13 view .LVU802
 113:Menus.cpp     ****         }
 3131              		.loc 2 113 23 is_stmt 0 view .LVU803
 3132 04da 0023     		movs	r3, #0
 3133 04dc EB66     		str	r3, [r5, #108]
 3134 04de AEE5     		b	.L170
 3135              	.L268:
 3136              	.LBB1051:
 3137              	.LBB996:
 169:Menus.cpp     ****             {
 3138              		.loc 2 169 13 is_stmt 1 view .LVU804
 3139 04e0 D5F86421 		ldr	r2, [r5, #356]
 177:Menus.cpp     ****             {
 3140              		.loc 2 177 22 is_stmt 0 view .LVU805
 3141 04e4 D5ED1E7A 		vldr.32	s15, [r5, #120]
 177:Menus.cpp     ****             {
 3142              		.loc 2 177 13 view .LVU806
 3143 04e8 9FED8D7A 		vldr.32	s14, .L276+4
 3144 04ec 22EAE272 		bic	r2, r2, r2, asr #31
 3145 04f0 F4EEC77A 		vcmpe.f32	s15, s14
 3146 04f4 202A     		cmp	r2, #32
 3147 04f6 A8BF     		it	ge
 3148 04f8 2022     		movge	r2, #32
 177:Menus.cpp     ****             {
 3149              		.loc 2 177 13 is_stmt 1 view .LVU807
 3150 04fa F1EE10FA 		vmrs	APSR_nzcv, FPSCR
 3151 04fe 68DA     		bge	.L228
 181:Menus.cpp     ****             {
 3152              		.loc 2 181 13 view .LVU808
 3153 0500 F5EEC07A 		vcmpe.f32	s15, #0
 3154 0504 F1EE10FA 		vmrs	APSR_nzcv, FPSCR
 3155 0508 01D5     		bpl	.L191
 3156 050a DFED867A 		vldr.32	s15, .L276+8
 3157              	.L191:
ARM GAS  C:\Users\VINCIU~1\AppData\Local\Temp\ccdhDWPe.s 			page 89


 185:Menus.cpp     ****             this->drawSliderSemi
 3158              		.loc 2 185 13 view .LVU809
 3159              	.LVL201:
 3160              	.LBB973:
 3161              	.LBI973:
  41:../../libdaisy/src/hid/encoder.h ****     /** Returns true if the encoder was just pressed.
 3162              		.loc 3 41 20 view .LVU810
 3163              	.LBB974:
  41:../../libdaisy/src/hid/encoder.h ****     /** Returns true if the encoder was just pressed.
 3164              		.loc 3 41 40 view .LVU811
  41:../../libdaisy/src/hid/encoder.h ****     /** Returns true if the encoder was just pressed.
 3165              		.loc 3 41 40 is_stmt 0 view .LVU812
 3166              	.LBE974:
 3167              	.LBE973:
 187:Menus.cpp     ****             sprintf(this->buff, "Semi_%dst", this->noteSemiAdd);
 3168              		.loc 2 187 61 view .LVU813
 3169 050e D5ED126A 		vldr.32	s13, [r5, #72]	@ int
 188:Menus.cpp     ****         }
 3170              		.loc 2 188 20 view .LVU814
 3171 0512 05F1A400 		add	r0, r5, #164
 187:Menus.cpp     ****             sprintf(this->buff, "Semi_%dst", this->noteSemiAdd);
 3172              		.loc 2 187 17 view .LVU815
 3173 0516 9FED827A 		vldr.32	s14, .L276+4
 187:Menus.cpp     ****             sprintf(this->buff, "Semi_%dst", this->noteSemiAdd);
 3174              		.loc 2 187 61 view .LVU816
 3175 051a FAEEED6A 		vcvt.f32.s32	s13, s13, #5
 185:Menus.cpp     ****             this->drawSliderSemi
 3176              		.loc 2 185 31 view .LVU817
 3177 051e AB6C     		ldr	r3, [r5, #72]
 188:Menus.cpp     ****         }
 3178              		.loc 2 188 20 view .LVU818
 3179 0520 7E49     		ldr	r1, .L276
 185:Menus.cpp     ****             this->drawSliderSemi
 3180              		.loc 2 185 31 view .LVU819
 3181 0522 1A44     		add	r2, r2, r3
 187:Menus.cpp     ****             sprintf(this->buff, "Semi_%dst", this->noteSemiAdd);
 3182              		.loc 2 187 17 view .LVU820
 3183 0524 E6EE877A 		vfma.f32	s15, s13, s14
 185:Menus.cpp     ****             this->drawSliderSemi
 3184              		.loc 2 185 31 view .LVU821
 3185 0528 C5F86421 		str	r2, [r5, #356]
 186:Menus.cpp     ****                 += (((float)this->encoderRight.Increment()) / 32) * 40;
 3186              		.loc 2 186 13 is_stmt 1 view .LVU822
 3187              	.LVL202:
 186:Menus.cpp     ****                 += (((float)this->encoderRight.Increment()) / 32) * 40;
 3188              		.loc 2 186 13 is_stmt 0 view .LVU823
 3189              	.LBE996:
 3190              	.LBE1051:
  41:../../libdaisy/src/hid/encoder.h ****     /** Returns true if the encoder was just pressed.
 3191              		.loc 3 41 40 is_stmt 1 view .LVU824
 3192              	.LBB1052:
 3193              	.LBB997:
 187:Menus.cpp     ****             sprintf(this->buff, "Semi_%dst", this->noteSemiAdd);
 3194              		.loc 2 187 17 is_stmt 0 view .LVU825
 3195 052c C5ED1E7A 		vstr.32	s15, [r5, #120]
 188:Menus.cpp     ****         }
 3196              		.loc 2 188 13 is_stmt 1 view .LVU826
ARM GAS  C:\Users\VINCIU~1\AppData\Local\Temp\ccdhDWPe.s 			page 90


 188:Menus.cpp     ****         }
 3197              		.loc 2 188 20 is_stmt 0 view .LVU827
 3198 0530 FFF7FEFF 		bl	sprintf
 3199              	.LVL203:
 3200 0534 6BE7     		b	.L192
 3201              	.L265:
 188:Menus.cpp     ****         }
 3202              		.loc 2 188 20 view .LVU828
 3203              	.LBE997:
 3204              	.LBE1052:
 253:Menus.cpp     ****         {
 3205              		.loc 2 253 9 is_stmt 1 view .LVU829
 3206              	.LBB1053:
 3207              	.LBB998:
 3208              	.LBB975:
 3209              	.LBB954:
 3210              	.LBB871:
 3211 0536 95F87430 		ldrb	r3, [r5, #116]	@ zero_extendqisi2
 3212 053a 93B1     		cbz	r3, .L201
 3213              	.LBB872:
 255:Menus.cpp     ****             if(setWave > 3)
 3214              		.loc 2 255 13 view .LVU830
 3215              	.LVL204:
 3216              	.LBB873:
 3217              	.LBI873:
  41:../../libdaisy/src/hid/encoder.h ****     /** Returns true if the encoder was just pressed.
 3218              		.loc 3 41 20 view .LVU831
 3219              	.LBB874:
  41:../../libdaisy/src/hid/encoder.h ****     /** Returns true if the encoder was just pressed.
 3220              		.loc 3 41 40 view .LVU832
  41:../../libdaisy/src/hid/encoder.h ****     /** Returns true if the encoder was just pressed.
 3221              		.loc 3 41 40 is_stmt 0 view .LVU833
 3222              	.LBE874:
 3223              	.LBE873:
 255:Menus.cpp     ****             if(setWave > 3)
 3224              		.loc 2 255 27 view .LVU834
 3225 053c D5F89031 		ldr	r3, [r5, #400]
 3226 0540 AA6C     		ldr	r2, [r5, #72]
 3227 0542 1344     		add	r3, r3, r2
 256:Menus.cpp     ****             {
 3228              		.loc 2 256 13 is_stmt 1 view .LVU835
 3229 0544 032B     		cmp	r3, #3
 3230 0546 6CDD     		ble	.L202
 258:Menus.cpp     ****             }
 3231              		.loc 2 258 17 view .LVU836
 258:Menus.cpp     ****             }
 3232              		.loc 2 258 31 is_stmt 0 view .LVU837
 3233 0548 0323     		movs	r3, #3
 3234 054a C5F89031 		str	r3, [r5, #400]
 260:Menus.cpp     ****             {
 3235              		.loc 2 260 13 is_stmt 1 view .LVU838
 264:Menus.cpp     ****             {
 3236              		.loc 2 264 13 view .LVU839
 3237              	.LBE872:
 3238              	.LBE871:
 3239              	.LBE954:
 3240              	.LBE975:
ARM GAS  C:\Users\VINCIU~1\AppData\Local\Temp\ccdhDWPe.s 			page 91


 3241              	.LBE998:
 3242              	.LBE1053:
 272:Menus.cpp     ****             {
 3243              		.loc 2 272 18 view .LVU840
 3244              	.L203:
 3245              	.LVL205:
 3246              	.LBB1054:
 3247              	.LBB999:
 3248              	.LBB976:
 3249              	.LBB955:
 3250              	.LBB905:
 3251              	.LBB900:
 3252              	.LBB875:
 3253              	.LBB876:
 3254              	.LBB877:
 3255              	.LBB878:
 290:Menus.cpp     ****                 {
 3256              		.loc 2 290 34 view .LVU841
 292:Menus.cpp     ****                     osc[0].SetWaveform(osc[0].WAVE_SAW);
 3257              		.loc 2 292 21 view .LVU842
 293:Menus.cpp     ****                 }
 3258              		.loc 2 293 21 view .LVU843
 3259              	.LBB879:
 3260              	.LBI879:
 3261              		.file 7 "../../DaisySP/Source/Synthesis/oscillator.h"
   1:../../DaisySP/Source/Synthesis/oscillator.h **** #pragma once
   2:../../DaisySP/Source/Synthesis/oscillator.h **** #ifndef DSY_OSCILLATOR_H
   3:../../DaisySP/Source/Synthesis/oscillator.h **** #define DSY_OSCILLATOR_H
   4:../../DaisySP/Source/Synthesis/oscillator.h **** #include <stdint.h>
   5:../../DaisySP/Source/Synthesis/oscillator.h **** #include "Utility/dsp.h"
   6:../../DaisySP/Source/Synthesis/oscillator.h **** #ifdef __cplusplus
   7:../../DaisySP/Source/Synthesis/oscillator.h **** 
   8:../../DaisySP/Source/Synthesis/oscillator.h **** namespace daisysp
   9:../../DaisySP/Source/Synthesis/oscillator.h **** {
  10:../../DaisySP/Source/Synthesis/oscillator.h **** /** Synthesis of several waveforms, including polyBLEP bandlimited waveforms.
  11:../../DaisySP/Source/Synthesis/oscillator.h **** */
  12:../../DaisySP/Source/Synthesis/oscillator.h **** class Oscillator
  13:../../DaisySP/Source/Synthesis/oscillator.h **** {
  14:../../DaisySP/Source/Synthesis/oscillator.h ****   public:
  15:../../DaisySP/Source/Synthesis/oscillator.h ****     Oscillator() {}
  16:../../DaisySP/Source/Synthesis/oscillator.h ****     ~Oscillator() {}
  17:../../DaisySP/Source/Synthesis/oscillator.h ****     /** Choices for output waveforms, POLYBLEP are appropriately labeled. Others are naive forms.
  18:../../DaisySP/Source/Synthesis/oscillator.h ****     */
  19:../../DaisySP/Source/Synthesis/oscillator.h ****     enum
  20:../../DaisySP/Source/Synthesis/oscillator.h ****     {
  21:../../DaisySP/Source/Synthesis/oscillator.h ****         WAVE_SIN,
  22:../../DaisySP/Source/Synthesis/oscillator.h ****         WAVE_TRI,
  23:../../DaisySP/Source/Synthesis/oscillator.h ****         WAVE_SAW,
  24:../../DaisySP/Source/Synthesis/oscillator.h ****         WAVE_RAMP,
  25:../../DaisySP/Source/Synthesis/oscillator.h ****         WAVE_SQUARE,
  26:../../DaisySP/Source/Synthesis/oscillator.h ****         WAVE_POLYBLEP_TRI,
  27:../../DaisySP/Source/Synthesis/oscillator.h ****         WAVE_POLYBLEP_SAW,
  28:../../DaisySP/Source/Synthesis/oscillator.h ****         WAVE_POLYBLEP_SQUARE,
  29:../../DaisySP/Source/Synthesis/oscillator.h ****         WAVE_LAST,
  30:../../DaisySP/Source/Synthesis/oscillator.h ****     };
  31:../../DaisySP/Source/Synthesis/oscillator.h **** 
  32:../../DaisySP/Source/Synthesis/oscillator.h **** 
ARM GAS  C:\Users\VINCIU~1\AppData\Local\Temp\ccdhDWPe.s 			page 92


  33:../../DaisySP/Source/Synthesis/oscillator.h ****     /** Initializes the Oscillator
  34:../../DaisySP/Source/Synthesis/oscillator.h **** 
  35:../../DaisySP/Source/Synthesis/oscillator.h ****         \param sample_rate - sample rate of the audio engine being run, and the frequency that the 
  36:../../DaisySP/Source/Synthesis/oscillator.h **** 
  37:../../DaisySP/Source/Synthesis/oscillator.h ****         Defaults:
  38:../../DaisySP/Source/Synthesis/oscillator.h ****         - freq_ = 100 Hz
  39:../../DaisySP/Source/Synthesis/oscillator.h ****         - amp_ = 0.5
  40:../../DaisySP/Source/Synthesis/oscillator.h ****         - waveform_ = sine wave.
  41:../../DaisySP/Source/Synthesis/oscillator.h ****     */
  42:../../DaisySP/Source/Synthesis/oscillator.h ****     void Init(float sample_rate)
  43:../../DaisySP/Source/Synthesis/oscillator.h ****     {
  44:../../DaisySP/Source/Synthesis/oscillator.h ****         sr_        = sample_rate;
  45:../../DaisySP/Source/Synthesis/oscillator.h ****         sr_recip_  = 1.0f / sample_rate;
  46:../../DaisySP/Source/Synthesis/oscillator.h ****         freq_      = 100.0f;
  47:../../DaisySP/Source/Synthesis/oscillator.h ****         amp_       = 0.5f;
  48:../../DaisySP/Source/Synthesis/oscillator.h ****         phase_     = 0.0f;
  49:../../DaisySP/Source/Synthesis/oscillator.h ****         phase_inc_ = CalcPhaseInc(freq_);
  50:../../DaisySP/Source/Synthesis/oscillator.h ****         waveform_  = WAVE_SIN;
  51:../../DaisySP/Source/Synthesis/oscillator.h ****         eoc_       = true;
  52:../../DaisySP/Source/Synthesis/oscillator.h ****         eor_       = true;
  53:../../DaisySP/Source/Synthesis/oscillator.h ****     }
  54:../../DaisySP/Source/Synthesis/oscillator.h **** 
  55:../../DaisySP/Source/Synthesis/oscillator.h **** 
  56:../../DaisySP/Source/Synthesis/oscillator.h ****     /** Changes the frequency of the Oscillator, and recalculates phase increment.
  57:../../DaisySP/Source/Synthesis/oscillator.h ****     */
  58:../../DaisySP/Source/Synthesis/oscillator.h ****     inline void SetFreq(const float f)
  59:../../DaisySP/Source/Synthesis/oscillator.h ****     {
  60:../../DaisySP/Source/Synthesis/oscillator.h ****         freq_      = f;
  61:../../DaisySP/Source/Synthesis/oscillator.h ****         phase_inc_ = CalcPhaseInc(f);
  62:../../DaisySP/Source/Synthesis/oscillator.h ****     }
  63:../../DaisySP/Source/Synthesis/oscillator.h **** 
  64:../../DaisySP/Source/Synthesis/oscillator.h **** 
  65:../../DaisySP/Source/Synthesis/oscillator.h ****     /** Sets the amplitude of the waveform.
  66:../../DaisySP/Source/Synthesis/oscillator.h ****     */
  67:../../DaisySP/Source/Synthesis/oscillator.h ****     inline void SetAmp(const float a) { amp_ = a; }
  68:../../DaisySP/Source/Synthesis/oscillator.h ****     /** Sets the waveform to be synthesized by the Process() function.
  69:../../DaisySP/Source/Synthesis/oscillator.h ****     */
  70:../../DaisySP/Source/Synthesis/oscillator.h ****     inline void SetWaveform(const uint8_t wf)
 3262              		.loc 7 70 17 view .LVU844
 3263              	.LBB880:
  71:../../DaisySP/Source/Synthesis/oscillator.h ****     {
  72:../../DaisySP/Source/Synthesis/oscillator.h ****         waveform_ = wf < WAVE_LAST ? wf : WAVE_SIN;
 3264              		.loc 7 72 9 view .LVU845
 3265              		.loc 7 72 19 is_stmt 0 view .LVU846
 3266 054e 0223     		movs	r3, #2
 3267              	.LVL206:
 3268              	.L254:
 3269              		.loc 7 72 19 view .LVU847
 3270 0550 3B70     		strb	r3, [r7]
 3271              	.LBE880:
 3272              	.LBE879:
 290:Menus.cpp     ****                 {
 3273              		.loc 2 290 17 is_stmt 1 view .LVU848
 3274              	.LVL207:
 290:Menus.cpp     ****                 {
 3275              		.loc 2 290 34 view .LVU849
 292:Menus.cpp     ****                     osc[0].SetWaveform(osc[0].WAVE_SAW);
ARM GAS  C:\Users\VINCIU~1\AppData\Local\Temp\ccdhDWPe.s 			page 93


 3276              		.loc 2 292 21 view .LVU850
 292:Menus.cpp     ****                     osc[0].SetWaveform(osc[0].WAVE_SAW);
 3277              		.loc 2 292 34 is_stmt 0 view .LVU851
 3278 0552 D5F89021 		ldr	r2, [r5, #400]
 3279 0556 C5F89C20 		str	r2, [r5, #156]
 293:Menus.cpp     ****                 }
 3280              		.loc 2 293 21 is_stmt 1 view .LVU852
 3281              	.LVL208:
 3282              	.LBB882:
  70:../../DaisySP/Source/Synthesis/oscillator.h ****     {
 3283              		.loc 7 70 17 view .LVU853
 3284              	.LBB881:
 3285              		.loc 7 72 9 view .LVU854
 3286              		.loc 7 72 19 is_stmt 0 view .LVU855
 3287 055a 3B70     		strb	r3, [r7]
 3288              	.LVL209:
 3289              		.loc 7 72 19 view .LVU856
 3290              	.LBE881:
 3291              	.LBE882:
 290:Menus.cpp     ****                 {
 3292              		.loc 2 290 17 is_stmt 1 view .LVU857
 290:Menus.cpp     ****                 {
 3293              		.loc 2 290 34 view .LVU858
 3294              	.L207:
 290:Menus.cpp     ****                 {
 3295              		.loc 2 290 34 is_stmt 0 view .LVU859
 3296              	.LBE878:
 3297              	.LBE877:
 3298              	.LBE876:
 3299              	.LBE875:
 3300              	.LBE900:
 3301              	.LBE905:
 3302              	.LBE955:
 3303              	.LBE976:
 3304              	.LBE999:
 3305              	.LBE1054:
 297:Menus.cpp     ****             if(this->OscSelector == false)
 3306              		.loc 2 297 9 is_stmt 1 view .LVU860
 3307              	.LBB1055:
 3308              	.LBB1000:
 3309              	.LBB977:
 3310              	.LBB956:
 3311              	.LBB906:
 298:Menus.cpp     ****             {
 3312              		.loc 2 298 13 view .LVU861
 3313              	.LBB907:
 3314 055c 95F87430 		ldrb	r3, [r5, #116]	@ zero_extendqisi2
 3315 0560 9BB9     		cbnz	r3, .L256
 3316              	.L201:
 3317              	.LBB908:
 300:Menus.cpp     ****                 {
 3318              		.loc 2 300 17 view .LVU862
 308:Menus.cpp     ****                 if(setWave2 > 3)
 3319              		.loc 2 308 17 view .LVU863
 3320              	.LVL210:
 3321              	.LBB909:
 3322              	.LBI909:
ARM GAS  C:\Users\VINCIU~1\AppData\Local\Temp\ccdhDWPe.s 			page 94


  41:../../libdaisy/src/hid/encoder.h ****     /** Returns true if the encoder was just pressed.
 3323              		.loc 3 41 20 view .LVU864
 3324              	.LBB910:
  41:../../libdaisy/src/hid/encoder.h ****     /** Returns true if the encoder was just pressed.
 3325              		.loc 3 41 40 view .LVU865
  41:../../libdaisy/src/hid/encoder.h ****     /** Returns true if the encoder was just pressed.
 3326              		.loc 3 41 40 is_stmt 0 view .LVU866
 3327              	.LBE910:
 3328              	.LBE909:
 308:Menus.cpp     ****                 if(setWave2 > 3)
 3329              		.loc 2 308 32 view .LVU867
 3330 0562 D5F89431 		ldr	r3, [r5, #404]
 3331 0566 AA6C     		ldr	r2, [r5, #72]
 3332 0568 83F30203 		usat	r3, #2, r3
 3333 056c 1344     		add	r3, r3, r2
 309:Menus.cpp     ****                 {
 3334              		.loc 2 309 17 is_stmt 1 view .LVU868
 3335 056e 032B     		cmp	r3, #3
 3336 0570 64DD     		ble	.L210
 311:Menus.cpp     ****                 }
 3337              		.loc 2 311 21 view .LVU869
 311:Menus.cpp     ****                 }
 3338              		.loc 2 311 36 is_stmt 0 view .LVU870
 3339 0572 0323     		movs	r3, #3
 3340 0574 C5F89431 		str	r3, [r5, #404]
 313:Menus.cpp     ****                 {
 3341              		.loc 2 313 17 is_stmt 1 view .LVU871
 317:Menus.cpp     ****                 {
 3342              		.loc 2 317 17 view .LVU872
 3343              	.LBE908:
 3344              	.LBE907:
 3345              	.LBE906:
 3346              	.LBE956:
 3347              	.LBE977:
 3348              	.LBE1000:
 3349              	.LBE1055:
 325:Menus.cpp     ****                 {
 3350              		.loc 2 325 22 view .LVU873
 3351              	.L211:
 3352              	.LVL211:
 3353              	.LBB1056:
 3354              	.LBB1001:
 3355              	.LBB978:
 3356              	.LBB957:
 3357              	.LBB942:
 3358              	.LBB937:
 3359              	.LBB932:
 3360              	.LBB911:
 3361              	.LBB912:
 3362              	.LBB913:
 3363              	.LBB914:
 343:Menus.cpp     ****                     {
 3364              		.loc 2 343 38 view .LVU874
 345:Menus.cpp     ****                         osc[1].SetWaveform(osc[1].WAVE_SAW);
 3365              		.loc 2 345 25 view .LVU875
 346:Menus.cpp     ****                     }
 3366              		.loc 2 346 25 view .LVU876
ARM GAS  C:\Users\VINCIU~1\AppData\Local\Temp\ccdhDWPe.s 			page 95


 3367              	.LBB915:
 3368              	.LBI915:
  70:../../DaisySP/Source/Synthesis/oscillator.h ****     {
 3369              		.loc 7 70 17 view .LVU877
 3370              	.LBB916:
 3371              		.loc 7 72 9 view .LVU878
 3372              		.loc 7 72 19 is_stmt 0 view .LVU879
 3373 0578 0223     		movs	r3, #2
 3374              	.LVL212:
 3375              	.L255:
 3376              		.loc 7 72 19 view .LVU880
 3377 057a 87F82830 		strb	r3, [r7, #40]
 3378              	.LBE916:
 3379              	.LBE915:
 343:Menus.cpp     ****                     {
 3380              		.loc 2 343 21 is_stmt 1 view .LVU881
 3381              	.LVL213:
 343:Menus.cpp     ****                     {
 3382              		.loc 2 343 38 view .LVU882
 345:Menus.cpp     ****                         osc[1].SetWaveform(osc[1].WAVE_SAW);
 3383              		.loc 2 345 25 view .LVU883
 345:Menus.cpp     ****                         osc[1].SetWaveform(osc[1].WAVE_SAW);
 3384              		.loc 2 345 39 is_stmt 0 view .LVU884
 3385 057e D5F89421 		ldr	r2, [r5, #404]
 3386 0582 C5F8A020 		str	r2, [r5, #160]
 346:Menus.cpp     ****                     }
 3387              		.loc 2 346 25 is_stmt 1 view .LVU885
 3388              	.LVL214:
 3389              	.LBB918:
  70:../../DaisySP/Source/Synthesis/oscillator.h ****     {
 3390              		.loc 7 70 17 view .LVU886
 3391              	.LBB917:
 3392              		.loc 7 72 9 view .LVU887
 3393              		.loc 7 72 19 is_stmt 0 view .LVU888
 3394 0586 87F82830 		strb	r3, [r7, #40]
 3395              	.LVL215:
 3396              	.L256:
 3397              		.loc 7 72 19 view .LVU889
 3398              	.LBE917:
 3399              	.LBE918:
 343:Menus.cpp     ****                     {
 3400              		.loc 2 343 21 is_stmt 1 view .LVU890
 343:Menus.cpp     ****                     {
 3401              		.loc 2 343 38 view .LVU891
 3402              	.LBE914:
 3403              	.LBE913:
 3404              	.LBE912:
 3405              	.LBE911:
 3406              	.LBE932:
 3407              	.LBE937:
 352:Menus.cpp     ****                             screen.Height() / 2 - 3,
 3408              		.loc 2 352 28 is_stmt 0 view .LVU892
 3409 058a 95F8E031 		ldrb	r3, [r5, #480]	@ zero_extendqisi2
 352:Menus.cpp     ****                             screen.Height() / 2 - 3,
 3410              		.loc 2 352 13 is_stmt 1 view .LVU893
 352:Menus.cpp     ****                             screen.Height() / 2 - 3,
 3411              		.loc 2 352 28 is_stmt 0 view .LVU894
ARM GAS  C:\Users\VINCIU~1\AppData\Local\Temp\ccdhDWPe.s 			page 96


 3412 058e 0022     		movs	r2, #0
 3413 0590 3F21     		movs	r1, #63
 3414 0592 2046     		mov	r0, r4
 3415 0594 CDE90132 		strd	r3, r2, [sp, #4]
 3416 0598 1D22     		movs	r2, #29
 3417 059a 0091     		str	r1, [sp]
 3418 059c 3C23     		movs	r3, #60
 3419 059e 1146     		mov	r1, r2
 3420 05a0 FFF7FEFF 		bl	_ZN5daisy25OneBitGraphicsDisplayImplINS_11OledDisplayINS_13SSD130xDriverILj128ELj64ENS_24SSD130
 3421              	.LVL216:
 3422              	.LBE942:
 3423 05a4 48E7     		b	.L188
 3424              	.LVL217:
 3425              	.L168:
 352:Menus.cpp     ****                             screen.Height() / 2 - 3,
 3426              		.loc 2 352 28 view .LVU895
 3427              	.LBE957:
 3428              	.LBE978:
 3429              	.LBE1001:
 3430              	.LBE1056:
 104:Menus.cpp     ****         }
 3431              		.loc 2 104 13 is_stmt 1 view .LVU896
 104:Menus.cpp     ****         }
 3432              		.loc 2 104 23 is_stmt 0 view .LVU897
 3433 05a6 0323     		movs	r3, #3
 3434 05a8 EB66     		str	r3, [r5, #108]
 107:Menus.cpp     **** 
 3435              		.loc 2 107 5 is_stmt 1 view .LVU898
 3436              	.LVL218:
 3437              	.LBB1057:
 3438              		.loc 4 69 17 view .LVU899
 3439              	.LBB805:
 3440              		.loc 4 69 38 view .LVU900
 3441              		.loc 4 69 38 is_stmt 0 view .LVU901
 3442              	.LBE805:
 3443              	.LBE1057:
 107:Menus.cpp     **** 
 3444              		.loc 2 107 5 view .LVU902
 3445 05aa 95F86130 		ldrb	r3, [r5, #97]	@ zero_extendqisi2
 3446 05ae 7F2B     		cmp	r3, #127
 3447 05b0 7FF445AD 		bne	.L170
 3448 05b4 91E7     		b	.L169
 3449              	.L264:
 3450              	.LBB1058:
 3451              	.LBB1002:
 3452              	.LBB979:
 220:Menus.cpp     **** 
 3453              		.loc 2 220 9 is_stmt 1 view .LVU903
 3454 05b6 95F87420 		ldrb	r2, [r5, #116]	@ zero_extendqisi2
 3455 05ba 9AB1     		cbz	r2, .L196
 223:Menus.cpp     ****             {
 3456              		.loc 2 223 13 view .LVU904
 3457              	.LVL219:
 3458              	.LBB958:
 3459              	.LBI958:
  41:../../libdaisy/src/hid/encoder.h ****     /** Returns true if the encoder was just pressed.
 3460              		.loc 3 41 20 view .LVU905
ARM GAS  C:\Users\VINCIU~1\AppData\Local\Temp\ccdhDWPe.s 			page 97


 3461              	.LBB959:
  41:../../libdaisy/src/hid/encoder.h ****     /** Returns true if the encoder was just pressed.
 3462              		.loc 3 41 40 view .LVU906
  41:../../libdaisy/src/hid/encoder.h ****     /** Returns true if the encoder was just pressed.
 3463              		.loc 3 41 47 is_stmt 0 view .LVU907
 3464 05bc AA6C     		ldr	r2, [r5, #72]
 3465              	.LVL220:
  41:../../libdaisy/src/hid/encoder.h ****     /** Returns true if the encoder was just pressed.
 3466              		.loc 3 41 47 view .LVU908
 3467              	.LBE959:
 3468              	.LBE958:
 223:Menus.cpp     ****             {
 3469              		.loc 2 223 13 view .LVU909
 3470 05be 012A     		cmp	r2, #1
 3471 05c0 24D0     		beq	.L270
 228:Menus.cpp     ****             {
 3472              		.loc 2 228 13 is_stmt 1 view .LVU910
 3473              	.LVL221:
 228:Menus.cpp     ****             {
 3474              		.loc 2 228 13 is_stmt 0 view .LVU911
 3475              	.LBE979:
 3476              	.LBE1002:
 3477              	.LBE1058:
  41:../../libdaisy/src/hid/encoder.h ****     /** Returns true if the encoder was just pressed.
 3478              		.loc 3 41 40 is_stmt 1 view .LVU912
 3479              	.LBB1059:
 3480              	.LBB1003:
 3481              	.LBB980:
 228:Menus.cpp     ****             {
 3482              		.loc 2 228 13 is_stmt 0 view .LVU913
 3483 05c2 0132     		adds	r2, r2, #1
 3484 05c4 17D1     		bne	.L198
 230:Menus.cpp     ****                 this->toggleOsc = true;
 3485              		.loc 2 230 17 is_stmt 1 view .LVU914
 231:Menus.cpp     ****             }
 3486              		.loc 2 231 33 is_stmt 0 view .LVU915
 3487 05c6 85F89830 		strb	r3, [r5, #152]
 230:Menus.cpp     ****                 this->toggleOsc = true;
 3488              		.loc 2 230 33 view .LVU916
 3489 05ca 0023     		movs	r3, #0
 3490 05cc C5F86C31 		str	r3, [r5, #364]
 231:Menus.cpp     ****             }
 3491              		.loc 2 231 17 is_stmt 1 view .LVU917
 3492 05d0 11E0     		b	.L198
 3493              	.L228:
 231:Menus.cpp     ****             }
 3494              		.loc 2 231 17 is_stmt 0 view .LVU918
 3495              	.LBE980:
 3496 05d2 F0EE477A 		vmov.f32	s15, s14
 3497 05d6 9AE7     		b	.L191
 3498              	.L232:
 231:Menus.cpp     ****             }
 3499              		.loc 2 231 17 view .LVU919
 3500 05d8 B0EE677A 		vmov.f32	s14, s15
 3501 05dc FCE6     		b	.L194
 3502              	.L230:
 231:Menus.cpp     ****             }
ARM GAS  C:\Users\VINCIU~1\AppData\Local\Temp\ccdhDWPe.s 			page 98


 3503              		.loc 2 231 17 view .LVU920
 3504 05de DFED526A 		vldr.32	s13, .L276+12
 3505 05e2 E8E6     		b	.L193
 3506              	.L196:
 3507              	.LBB981:
 236:Menus.cpp     ****             {
 3508              		.loc 2 236 13 is_stmt 1 view .LVU921
 3509              	.LVL222:
 3510              	.LBB960:
 3511              	.LBI960:
  41:../../libdaisy/src/hid/encoder.h ****     /** Returns true if the encoder was just pressed.
 3512              		.loc 3 41 20 view .LVU922
 3513              	.LBB961:
  41:../../libdaisy/src/hid/encoder.h ****     /** Returns true if the encoder was just pressed.
 3514              		.loc 3 41 40 view .LVU923
  41:../../libdaisy/src/hid/encoder.h ****     /** Returns true if the encoder was just pressed.
 3515              		.loc 3 41 47 is_stmt 0 view .LVU924
 3516 05e4 A96C     		ldr	r1, [r5, #72]
 3517              	.LVL223:
  41:../../libdaisy/src/hid/encoder.h ****     /** Returns true if the encoder was just pressed.
 3518              		.loc 3 41 47 view .LVU925
 3519              	.LBE961:
 3520              	.LBE960:
 236:Menus.cpp     ****             {
 3521              		.loc 2 236 13 view .LVU926
 3522 05e6 0129     		cmp	r1, #1
 3523 05e8 16D0     		beq	.L271
 241:Menus.cpp     ****             {
 3524              		.loc 2 241 13 is_stmt 1 view .LVU927
 3525              	.LVL224:
 241:Menus.cpp     ****             {
 3526              		.loc 2 241 13 is_stmt 0 view .LVU928
 3527              	.LBE981:
 3528              	.LBE1003:
 3529              	.LBE1059:
  41:../../libdaisy/src/hid/encoder.h ****     /** Returns true if the encoder was just pressed.
 3530              		.loc 3 41 40 is_stmt 1 view .LVU929
 3531              	.LBB1060:
 3532              	.LBB1004:
 3533              	.LBB982:
 241:Menus.cpp     ****             {
 3534              		.loc 2 241 13 is_stmt 0 view .LVU930
 3535 05ea 0131     		adds	r1, r1, #1
 3536 05ec 03D1     		bne	.L198
 243:Menus.cpp     ****                 this->toggleOsc2 = true;
 3537              		.loc 2 243 17 is_stmt 1 view .LVU931
 243:Menus.cpp     ****                 this->toggleOsc2 = true;
 3538              		.loc 2 243 34 is_stmt 0 view .LVU932
 3539 05ee C5F87021 		str	r2, [r5, #368]
 244:Menus.cpp     ****             }
 3540              		.loc 2 244 17 is_stmt 1 view .LVU933
 244:Menus.cpp     ****             }
 3541              		.loc 2 244 34 is_stmt 0 view .LVU934
 3542 05f2 85F89930 		strb	r3, [r5, #153]
 3543              	.L198:
 248:Menus.cpp     ****             0, screen.Height() / 2 - 3, 29, screen.Height() - 1, on, false);
 3544              		.loc 2 248 9 is_stmt 1 view .LVU935
ARM GAS  C:\Users\VINCIU~1\AppData\Local\Temp\ccdhDWPe.s 			page 99


 248:Menus.cpp     ****             0, screen.Height() / 2 - 3, 29, screen.Height() - 1, on, false);
 3545              		.loc 2 248 24 is_stmt 0 view .LVU936
 3546 05f6 3F23     		movs	r3, #63
 3547 05f8 0021     		movs	r1, #0
 3548 05fa 0093     		str	r3, [sp]
 3549 05fc 1D23     		movs	r3, #29
 3550 05fe CDE90101 		strd	r0, r1, [sp, #4]
 3551 0602 1A46     		mov	r2, r3
 3552 0604 2046     		mov	r0, r4
 3553 0606 FFF7FEFF 		bl	_ZN5daisy25OneBitGraphicsDisplayImplINS_11OledDisplayINS_13SSD130xDriverILj128ELj64ENS_24SSD130
 3554              	.LVL225:
 3555 060a 15E7     		b	.L188
 3556              	.L270:
 225:Menus.cpp     ****                 this->toggleOsc = false;
 3557              		.loc 2 225 17 is_stmt 1 view .LVU937
 226:Menus.cpp     ****             }
 3558              		.loc 2 226 33 is_stmt 0 view .LVU938
 3559 060c 0023     		movs	r3, #0
 225:Menus.cpp     ****                 this->toggleOsc = false;
 3560              		.loc 2 225 33 view .LVU939
 3561 060e C5F86C21 		str	r2, [r5, #364]
 226:Menus.cpp     ****             }
 3562              		.loc 2 226 17 is_stmt 1 view .LVU940
 226:Menus.cpp     ****             }
 3563              		.loc 2 226 33 is_stmt 0 view .LVU941
 3564 0612 85F89830 		strb	r3, [r5, #152]
 228:Menus.cpp     ****             {
 3565              		.loc 2 228 13 is_stmt 1 view .LVU942
 3566              	.LVL226:
 228:Menus.cpp     ****             {
 3567              		.loc 2 228 13 is_stmt 0 view .LVU943
 3568              	.LBE982:
 3569              	.LBE1004:
 3570              	.LBE1060:
  41:../../libdaisy/src/hid/encoder.h ****     /** Returns true if the encoder was just pressed.
 3571              		.loc 3 41 40 is_stmt 1 view .LVU944
  41:../../libdaisy/src/hid/encoder.h ****     /** Returns true if the encoder was just pressed.
 3572              		.loc 3 41 40 is_stmt 0 view .LVU945
 3573 0616 EEE7     		b	.L198
 3574              	.L271:
 3575              	.LBB1061:
 3576              	.LBB1005:
 3577              	.LBB983:
 238:Menus.cpp     ****                 this->toggleOsc2 = false;
 3578              		.loc 2 238 17 is_stmt 1 view .LVU946
 238:Menus.cpp     ****                 this->toggleOsc2 = false;
 3579              		.loc 2 238 34 is_stmt 0 view .LVU947
 3580 0618 C5F87011 		str	r1, [r5, #368]
 239:Menus.cpp     ****             }
 3581              		.loc 2 239 17 is_stmt 1 view .LVU948
 239:Menus.cpp     ****             }
 3582              		.loc 2 239 34 is_stmt 0 view .LVU949
 3583 061c 85F89920 		strb	r2, [r5, #153]
 241:Menus.cpp     ****             {
 3584              		.loc 2 241 13 is_stmt 1 view .LVU950
 3585              	.LVL227:
 241:Menus.cpp     ****             {
ARM GAS  C:\Users\VINCIU~1\AppData\Local\Temp\ccdhDWPe.s 			page 100


 3586              		.loc 2 241 13 is_stmt 0 view .LVU951
 3587              	.LBE983:
 3588              	.LBE1005:
 3589              	.LBE1061:
  41:../../libdaisy/src/hid/encoder.h ****     /** Returns true if the encoder was just pressed.
 3590              		.loc 3 41 40 is_stmt 1 view .LVU952
  41:../../libdaisy/src/hid/encoder.h ****     /** Returns true if the encoder was just pressed.
 3591              		.loc 3 41 40 is_stmt 0 view .LVU953
 3592 0620 E9E7     		b	.L198
 3593              	.L202:
 3594              	.LBB1062:
 3595              	.LBB1006:
 3596              	.LBB984:
 3597              	.LBB962:
 3598              	.LBB943:
 3599              	.LBB901:
 260:Menus.cpp     ****             {
 3600              		.loc 2 260 13 is_stmt 1 view .LVU954
 3601 0622 002B     		cmp	r3, #0
 3602 0624 68DA     		bge	.L204
 262:Menus.cpp     ****             }
 3603              		.loc 2 262 17 view .LVU955
 262:Menus.cpp     ****             }
 3604              		.loc 2 262 31 is_stmt 0 view .LVU956
 3605 0626 0023     		movs	r3, #0
 3606 0628 C5F89031 		str	r3, [r5, #400]
 264:Menus.cpp     ****             {
 3607              		.loc 2 264 13 is_stmt 1 view .LVU957
 3608              	.L205:
 3609              	.LVL228:
 3610              	.LBB896:
 3611              	.LBB889:
 266:Menus.cpp     ****                 {
 3612              		.loc 2 266 34 view .LVU958
 268:Menus.cpp     ****                     osc[0].SetWaveform(osc[0].WAVE_SIN);
 3613              		.loc 2 268 21 view .LVU959
 269:Menus.cpp     ****                 }
 3614              		.loc 2 269 21 view .LVU960
 3615              	.LBB890:
 3616              	.LBI890:
  70:../../DaisySP/Source/Synthesis/oscillator.h ****     {
 3617              		.loc 7 70 17 view .LVU961
 3618              	.LBB891:
 3619              		.loc 7 72 9 view .LVU962
 3620              		.loc 7 72 19 is_stmt 0 view .LVU963
 3621 062c 0023     		movs	r3, #0
 3622 062e 3B70     		strb	r3, [r7]
 3623              	.LVL229:
 3624              		.loc 7 72 19 view .LVU964
 3625              	.LBE891:
 3626              	.LBE890:
 266:Menus.cpp     ****                 {
 3627              		.loc 2 266 17 is_stmt 1 view .LVU965
 266:Menus.cpp     ****                 {
 3628              		.loc 2 266 34 view .LVU966
 268:Menus.cpp     ****                     osc[0].SetWaveform(osc[0].WAVE_SIN);
 3629              		.loc 2 268 21 view .LVU967
ARM GAS  C:\Users\VINCIU~1\AppData\Local\Temp\ccdhDWPe.s 			page 101


 268:Menus.cpp     ****                     osc[0].SetWaveform(osc[0].WAVE_SIN);
 3630              		.loc 2 268 34 is_stmt 0 view .LVU968
 3631 0630 D5F89021 		ldr	r2, [r5, #400]
 3632 0634 C5F89C20 		str	r2, [r5, #156]
 269:Menus.cpp     ****                 }
 3633              		.loc 2 269 21 is_stmt 1 view .LVU969
 3634              	.LVL230:
 3635              	.LBB893:
  70:../../DaisySP/Source/Synthesis/oscillator.h ****     {
 3636              		.loc 7 70 17 view .LVU970
 3637              	.LBB892:
 3638              		.loc 7 72 9 view .LVU971
 3639              		.loc 7 72 19 is_stmt 0 view .LVU972
 3640 0638 3B70     		strb	r3, [r7]
 3641              	.LVL231:
 3642              		.loc 7 72 19 view .LVU973
 3643              	.LBE892:
 3644              	.LBE893:
 266:Menus.cpp     ****                 {
 3645              		.loc 2 266 17 is_stmt 1 view .LVU974
 266:Menus.cpp     ****                 {
 3646              		.loc 2 266 34 view .LVU975
 3647 063a 8FE7     		b	.L207
 3648              	.LVL232:
 3649              	.L210:
 266:Menus.cpp     ****                 {
 3650              		.loc 2 266 34 is_stmt 0 view .LVU976
 3651              	.LBE889:
 3652              	.LBE896:
 3653              	.LBE901:
 3654              	.LBE943:
 3655              	.LBB944:
 3656              	.LBB938:
 3657              	.LBB933:
 313:Menus.cpp     ****                 {
 3658              		.loc 2 313 17 is_stmt 1 view .LVU977
 3659 063c 002B     		cmp	r3, #0
 3660 063e 7BDA     		bge	.L212
 315:Menus.cpp     ****                 }
 3661              		.loc 2 315 21 view .LVU978
 315:Menus.cpp     ****                 }
 3662              		.loc 2 315 36 is_stmt 0 view .LVU979
 3663 0640 0023     		movs	r3, #0
 3664 0642 C5F89431 		str	r3, [r5, #404]
 317:Menus.cpp     ****                 {
 3665              		.loc 2 317 17 is_stmt 1 view .LVU980
 3666              	.L213:
 3667              	.LVL233:
 3668              	.LBB928:
 3669              	.LBB923:
 319:Menus.cpp     ****                     {
 3670              		.loc 2 319 38 view .LVU981
 321:Menus.cpp     ****                         osc[1].SetWaveform(osc[1].WAVE_SIN);
 3671              		.loc 2 321 25 view .LVU982
 322:Menus.cpp     ****                     }
 3672              		.loc 2 322 25 view .LVU983
 3673              	.LBB924:
ARM GAS  C:\Users\VINCIU~1\AppData\Local\Temp\ccdhDWPe.s 			page 102


 3674              	.LBI924:
  70:../../DaisySP/Source/Synthesis/oscillator.h ****     {
 3675              		.loc 7 70 17 view .LVU984
 3676              	.LBB925:
 3677              		.loc 7 72 9 view .LVU985
 3678              		.loc 7 72 19 is_stmt 0 view .LVU986
 3679 0646 0023     		movs	r3, #0
 3680 0648 97E7     		b	.L255
 3681              	.LVL234:
 3682              	.L216:
 3683              		.loc 7 72 19 view .LVU987
 3684              	.LBE925:
 3685              	.LBE924:
 3686              	.LBE923:
 3687              	.LBE928:
 3688              	.LBE933:
 3689              	.LBE938:
 3690              	.LBE944:
 394:Menus.cpp     ****             {
 3691              		.loc 2 394 13 is_stmt 1 view .LVU988
 394:Menus.cpp     ****             {
 3692              		.loc 2 394 22 is_stmt 0 view .LVU989
 3693 064a D5ED5E7A 		vldr.32	s15, [r5, #376]
 394:Menus.cpp     ****             {
 3694              		.loc 2 394 13 view .LVU990
 3695 064e F4EEC77A 		vcmpe.f32	s15, s14
 3696 0652 F1EE10FA 		vmrs	APSR_nzcv, FPSCR
 3697 0656 35DD     		ble	.L272
 3698 0658 F0EE477A 		vmov.f32	s15, s14
 3699              	.L220:
 402:Menus.cpp     ****             {
 3700              		.loc 2 402 13 is_stmt 1 view .LVU991
 3701 065c F7EE006A 		vmov.f32	s13, #1.0e+0
 402:Menus.cpp     ****             {
 3702              		.loc 2 402 22 is_stmt 0 view .LVU992
 3703 0660 95ED217A 		vldr.32	s14, [r5, #132]
 402:Menus.cpp     ****             {
 3704              		.loc 2 402 13 view .LVU993
 3705 0664 B4EEE67A 		vcmpe.f32	s14, s13
 3706 0668 F1EE10FA 		vmrs	APSR_nzcv, FPSCR
 3707 066c 22DB     		blt	.L273
 3708 066e B0EE667A 		vmov.f32	s14, s13
 3709              	.L221:
 411:Menus.cpp     ****             this->drawSliderFine2
 3710              		.loc 2 411 13 is_stmt 1 view .LVU994
 3711              	.LVL235:
 3712              	.LBB945:
 3713              	.LBI945:
  41:../../libdaisy/src/hid/encoder.h ****     /** Returns true if the encoder was just pressed.
 3714              		.loc 3 41 20 view .LVU995
 3715              	.LBB946:
  41:../../libdaisy/src/hid/encoder.h ****     /** Returns true if the encoder was just pressed.
 3716              		.loc 3 41 40 view .LVU996
  41:../../libdaisy/src/hid/encoder.h ****     /** Returns true if the encoder was just pressed.
 3717              		.loc 3 41 40 is_stmt 0 view .LVU997
 3718              	.LBE946:
 3719              	.LBE945:
ARM GAS  C:\Users\VINCIU~1\AppData\Local\Temp\ccdhDWPe.s 			page 103


 411:Menus.cpp     ****             this->drawSliderFine2
 3720              		.loc 2 411 34 view .LVU998
 3721 0672 D5ED126A 		vldr.32	s13, [r5, #72]	@ int
 414:Menus.cpp     ****         }
 3722              		.loc 2 414 20 view .LVU999
 3723 0676 05F1EC00 		add	r0, r5, #236
 411:Menus.cpp     ****             this->drawSliderFine2
 3724              		.loc 2 411 29 view .LVU1000
 3725 067a DFED2C5A 		vldr.32	s11, .L276+16
 411:Menus.cpp     ****             this->drawSliderFine2
 3726              		.loc 2 411 34 view .LVU1001
 3727 067e F8EEE66A 		vcvt.f32.s32	s13, s13
 414:Menus.cpp     ****         }
 3728              		.loc 2 414 67 view .LVU1002
 3729 0682 9FED2B6A 		vldr.32	s12, .L276+20
 414:Menus.cpp     ****         }
 3730              		.loc 2 414 20 view .LVU1003
 3731 0686 2B49     		ldr	r1, .L276+24
 411:Menus.cpp     ****             this->drawSliderFine2
 3732              		.loc 2 411 29 view .LVU1004
 3733 0688 E6EEA57A 		vfma.f32	s15, s13, s11
 413:Menus.cpp     ****             sprintf(this->buffFine2, "Fine_%d%%", (int)(freqFine2 * 100));
 3734              		.loc 2 413 17 view .LVU1005
 3735 068c A6EEA57A 		vfma.f32	s14, s13, s11
 414:Menus.cpp     ****         }
 3736              		.loc 2 414 67 view .LVU1006
 3737 0690 67EE866A 		vmul.f32	s13, s15, s12
 411:Menus.cpp     ****             this->drawSliderFine2
 3738              		.loc 2 411 29 view .LVU1007
 3739 0694 C5ED5E7A 		vstr.32	s15, [r5, #376]
 412:Menus.cpp     ****                 += (((float)this->encoderRight.Increment()) / 32);
 3740              		.loc 2 412 13 is_stmt 1 view .LVU1008
 3741              	.LVL236:
 412:Menus.cpp     ****                 += (((float)this->encoderRight.Increment()) / 32);
 3742              		.loc 2 412 13 is_stmt 0 view .LVU1009
 3743              	.LBE962:
 3744              	.LBE984:
 3745              	.LBE1006:
 3746              	.LBE1062:
  41:../../libdaisy/src/hid/encoder.h ****     /** Returns true if the encoder was just pressed.
 3747              		.loc 3 41 40 is_stmt 1 view .LVU1010
 3748              	.LBB1063:
 3749              	.LBB1007:
 3750              	.LBB985:
 3751              	.LBB963:
 413:Menus.cpp     ****             sprintf(this->buffFine2, "Fine_%d%%", (int)(freqFine2 * 100));
 3752              		.loc 2 413 17 is_stmt 0 view .LVU1011
 3753 0698 85ED217A 		vstr.32	s14, [r5, #132]
 414:Menus.cpp     ****         }
 3754              		.loc 2 414 13 is_stmt 1 view .LVU1012
 414:Menus.cpp     ****         }
 3755              		.loc 2 414 20 is_stmt 0 view .LVU1013
 3756 069c FDEEE67A 		vcvt.s32.f32	s15, s13
 3757 06a0 17EE902A 		vmov	r2, s15	@ int
 3758 06a4 FFF7FEFF 		bl	sprintf
 3759              	.LVL237:
 3760 06a8 DDE5     		b	.L219
ARM GAS  C:\Users\VINCIU~1\AppData\Local\Temp\ccdhDWPe.s 			page 104


 3761              	.L269:
 414:Menus.cpp     ****         }
 3762              		.loc 2 414 20 view .LVU1014
 3763              	.LBE963:
 3764              	.LBE985:
 208:Menus.cpp     ****             this->drawSliderSemi2
 3765              		.loc 2 208 32 view .LVU1015
 3766 06aa 07EE903A 		vmov	s15, r3	@ int
 3767 06ae F8EEE76A 		vcvt.f32.s32	s13, s15
 3768 06b2 80E6     		b	.L193
 3769              	.L273:
 3770              	.LBB986:
 3771              	.LBB964:
 406:Menus.cpp     ****             {
 3772              		.loc 2 406 13 is_stmt 1 view .LVU1016
 3773 06b4 B5EEC07A 		vcmpe.f32	s14, #0
 3774 06b8 F1EE10FA 		vmrs	APSR_nzcv, FPSCR
 3775 06bc D9D5     		bpl	.L221
 3776 06be 9FED197A 		vldr.32	s14, .L276+8
 3777 06c2 D6E7     		b	.L221
 3778              	.L272:
 398:Menus.cpp     ****             {
 3779              		.loc 2 398 13 view .LVU1017
 3780 06c4 F5EEC07A 		vcmpe.f32	s15, #0
 3781 06c8 F1EE10FA 		vmrs	APSR_nzcv, FPSCR
 3782 06cc C6D5     		bpl	.L220
 3783 06ce DFED157A 		vldr.32	s15, .L276+8
 3784 06d2 C3E7     		b	.L220
 3785              	.L267:
 382:Menus.cpp     ****             {
 3786              		.loc 2 382 13 view .LVU1018
 3787 06d4 B5EEC07A 		vcmpe.f32	s14, #0
 3788 06d8 F1EE10FA 		vmrs	APSR_nzcv, FPSCR
 3789 06dc 7FF5A8AD 		bpl	.L218
 3790 06e0 9FED107A 		vldr.32	s14, .L276+8
 3791 06e4 A4E5     		b	.L218
 3792              	.L266:
 374:Menus.cpp     ****             {
 3793              		.loc 2 374 13 view .LVU1019
 3794 06e6 F5EEC07A 		vcmpe.f32	s15, #0
 3795 06ea F1EE10FA 		vmrs	APSR_nzcv, FPSCR
 3796 06ee 7FF593AD 		bpl	.L217
 3797 06f2 DFED0C7A 		vldr.32	s15, .L276+8
 3798 06f6 8FE5     		b	.L217
 3799              	.L204:
 3800              	.LBB947:
 3801              	.LBB902:
 255:Menus.cpp     ****             if(setWave > 3)
 3802              		.loc 2 255 27 is_stmt 0 view .LVU1020
 3803 06f8 C5F89031 		str	r3, [r5, #400]
 264:Menus.cpp     ****             {
 3804              		.loc 2 264 13 is_stmt 1 view .LVU1021
 3805              	.LBB897:
 3806 06fc 96D0     		beq	.L205
 3807              	.LBE897:
 3808              	.LBE902:
 3809              	.LBE947:
ARM GAS  C:\Users\VINCIU~1\AppData\Local\Temp\ccdhDWPe.s 			page 105


 3810              	.LBE964:
 3811              	.LBE986:
 3812              	.LBE1007:
 3813              	.LBE1063:
 272:Menus.cpp     ****             {
 3814              		.loc 2 272 18 view .LVU1022
 3815              	.LBB1064:
 3816              	.LBB1008:
 3817              	.LBB987:
 3818              	.LBB965:
 3819              	.LBB948:
 3820              	.LBB903:
 3821              	.LBB898:
 3822              	.LBB894:
 3823 06fe 012B     		cmp	r3, #1
 3824 0700 3FF426AF 		beq	.L254
 3825              	.LBE894:
 3826              	.LBE898:
 3827              	.LBE903:
 3828              	.LBE948:
 3829              	.LBE965:
 3830              	.LBE987:
 3831              	.LBE1008:
 3832              	.LBE1064:
 280:Menus.cpp     ****             {
 3833              		.loc 2 280 18 view .LVU1023
 3834              	.LBB1065:
 3835              	.LBB1009:
 3836              	.LBB988:
 3837              	.LBB966:
 3838              	.LBB949:
 3839              	.LBB904:
 3840              	.LBB899:
 3841              	.LBB895:
 3842              	.LBB888:
 3843 0704 022B     		cmp	r3, #2
 3844 0706 7FF422AF 		bne	.L203
 3845              	.LVL238:
 3846              	.LBB883:
 282:Menus.cpp     ****                 {
 3847              		.loc 2 282 34 view .LVU1024
 284:Menus.cpp     ****                     osc[0].SetWaveform(osc[0].WAVE_SQUARE);
 3848              		.loc 2 284 21 view .LVU1025
 285:Menus.cpp     ****                 }
 3849              		.loc 2 285 21 view .LVU1026
 3850              	.LBB884:
 3851              	.LBI884:
  70:../../DaisySP/Source/Synthesis/oscillator.h ****     {
 3852              		.loc 7 70 17 view .LVU1027
 3853              	.LBB885:
 3854              		.loc 7 72 9 view .LVU1028
 3855              		.loc 7 72 19 is_stmt 0 view .LVU1029
 3856 070a 0423     		movs	r3, #4
 3857 070c 3B70     		strb	r3, [r7]
 3858              	.LVL239:
 3859              		.loc 7 72 19 view .LVU1030
 3860              	.LBE885:
ARM GAS  C:\Users\VINCIU~1\AppData\Local\Temp\ccdhDWPe.s 			page 106


 3861              	.LBE884:
 282:Menus.cpp     ****                 {
 3862              		.loc 2 282 17 is_stmt 1 view .LVU1031
 282:Menus.cpp     ****                 {
 3863              		.loc 2 282 34 view .LVU1032
 284:Menus.cpp     ****                     osc[0].SetWaveform(osc[0].WAVE_SQUARE);
 3864              		.loc 2 284 21 view .LVU1033
 284:Menus.cpp     ****                     osc[0].SetWaveform(osc[0].WAVE_SQUARE);
 3865              		.loc 2 284 34 is_stmt 0 view .LVU1034
 3866 070e D5F89021 		ldr	r2, [r5, #400]
 3867 0712 C5F89C20 		str	r2, [r5, #156]
 285:Menus.cpp     ****                 }
 3868              		.loc 2 285 21 is_stmt 1 view .LVU1035
 3869              	.LVL240:
 3870              	.LBB887:
  70:../../DaisySP/Source/Synthesis/oscillator.h ****     {
 3871              		.loc 7 70 17 view .LVU1036
 3872              	.LBB886:
 3873              		.loc 7 72 9 view .LVU1037
 3874              		.loc 7 72 19 is_stmt 0 view .LVU1038
 3875 0716 3B70     		strb	r3, [r7]
 3876              	.LVL241:
 3877              		.loc 7 72 19 view .LVU1039
 3878              	.LBE886:
 3879              	.LBE887:
 282:Menus.cpp     ****                 {
 3880              		.loc 2 282 17 is_stmt 1 view .LVU1040
 282:Menus.cpp     ****                 {
 3881              		.loc 2 282 34 view .LVU1041
 3882 0718 20E7     		b	.L207
 3883              	.L277:
 3884 071a 00BF     		.align	2
 3885              	.L276:
 3886 071c 08000000 		.word	.LC3
 3887 0720 00002042 		.word	1109393408
 3888 0724 00000000 		.word	0
 3889 0728 00000042 		.word	1107296256
 3890 072c 0000003D 		.word	1023410176
 3891 0730 0000C842 		.word	1120403456
 3892 0734 14000000 		.word	.LC4
 3893              	.LVL242:
 3894              	.L212:
 282:Menus.cpp     ****                 {
 3895              		.loc 2 282 34 is_stmt 0 view .LVU1042
 3896              	.LBE883:
 3897              	.LBE888:
 3898              	.LBE895:
 3899              	.LBE899:
 3900              	.LBE904:
 3901              	.LBE949:
 3902              	.LBB950:
 3903              	.LBB939:
 3904              	.LBB934:
 308:Menus.cpp     ****                 if(setWave2 > 3)
 3905              		.loc 2 308 32 view .LVU1043
 3906 0738 C5F89431 		str	r3, [r5, #404]
 317:Menus.cpp     ****                 {
ARM GAS  C:\Users\VINCIU~1\AppData\Local\Temp\ccdhDWPe.s 			page 107


 3907              		.loc 2 317 17 is_stmt 1 view .LVU1044
 3908              	.LBB929:
 3909 073c 83D0     		beq	.L213
 3910              	.LBE929:
 3911              	.LBE934:
 3912              	.LBE939:
 3913              	.LBE950:
 3914              	.LBE966:
 3915              	.LBE988:
 3916              	.LBE1009:
 3917              	.LBE1065:
 325:Menus.cpp     ****                 {
 3918              		.loc 2 325 22 view .LVU1045
 3919              	.LBB1066:
 3920              	.LBB1010:
 3921              	.LBB989:
 3922              	.LBB967:
 3923              	.LBB951:
 3924              	.LBB940:
 3925              	.LBB935:
 3926              	.LBB930:
 3927              	.LBB926:
 3928 073e 012B     		cmp	r3, #1
 3929 0740 3FF41BAF 		beq	.L255
 3930              	.LBE926:
 3931              	.LBE930:
 3932              	.LBE935:
 3933              	.LBE940:
 3934              	.LBE951:
 3935              	.LBE967:
 3936              	.LBE989:
 3937              	.LBE1010:
 3938              	.LBE1066:
 333:Menus.cpp     ****                 {
 3939              		.loc 2 333 22 view .LVU1046
 3940              	.LBB1067:
 3941              	.LBB1011:
 3942              	.LBB990:
 3943              	.LBB968:
 3944              	.LBB952:
 3945              	.LBB941:
 3946              	.LBB936:
 3947              	.LBB931:
 3948              	.LBB927:
 3949              	.LBB922:
 3950 0744 022B     		cmp	r3, #2
 3951 0746 7FF417AF 		bne	.L211
 3952              	.LVL243:
 3953              	.LBB919:
 335:Menus.cpp     ****                     {
 3954              		.loc 2 335 38 view .LVU1047
 337:Menus.cpp     ****                         osc[1].SetWaveform(osc[1].WAVE_SQUARE);
 3955              		.loc 2 337 25 view .LVU1048
 338:Menus.cpp     ****                     }
 3956              		.loc 2 338 25 view .LVU1049
 3957              	.LBB920:
 3958              	.LBI920:
ARM GAS  C:\Users\VINCIU~1\AppData\Local\Temp\ccdhDWPe.s 			page 108


  70:../../DaisySP/Source/Synthesis/oscillator.h ****     {
 3959              		.loc 7 70 17 view .LVU1050
 3960              	.LBB921:
 3961              		.loc 7 72 9 view .LVU1051
 3962              		.loc 7 72 19 is_stmt 0 view .LVU1052
 3963 074a 0423     		movs	r3, #4
 3964 074c 15E7     		b	.L255
 3965              	.LBE921:
 3966              	.LBE920:
 3967              	.LBE919:
 3968              	.LBE922:
 3969              	.LBE927:
 3970              	.LBE931:
 3971              	.LBE936:
 3972              	.LBE941:
 3973              	.LBE952:
 3974              	.LBE968:
 3975              	.LBE990:
 3976              	.LBE1011:
 3977              	.LBE1067:
 3978              		.cfi_endproc
 3979              	.LFE4039:
 3981 074e 00BF     		.section	.rodata._ZN5Menus5Menu2E23OledDisplayExtravaganzaPN7daisysp10OscillatorE.str1.4,"aMS",%pr
 3982              		.align	2
 3983              	.LC5:
 3984 0000 496E6974 		.ascii	"Init_%d%%\000"
 3984      5F256425 
 3984      2500
 3985 000a 0000     		.align	2
 3986              	.LC6:
 3987 000c 54696D65 		.ascii	"Time_%d%%\000"
 3987      5F256425 
 3987      2500
 3988              		.section	.text._ZN5Menus5Menu2E23OledDisplayExtravaganzaPN7daisysp10OscillatorE,"ax",%progbits
 3989              		.align	1
 3990              		.p2align 2,,3
 3991              		.global	_ZN5Menus5Menu2E23OledDisplayExtravaganzaPN7daisysp10OscillatorE
 3992              		.syntax unified
 3993              		.thumb
 3994              		.thumb_func
 3995              		.fpu fpv5-d16
 3997              	_ZN5Menus5Menu2E23OledDisplayExtravaganzaPN7daisysp10OscillatorE:
 3998              	.LVL244:
 3999              	.LFB4040:
 427:Menus.cpp     **** 
 428:Menus.cpp     **** void Menus::Menu2(OledDisplayExtravaganza screen, daisysp::Oscillator osc[])
 429:Menus.cpp     **** {
 4000              		.loc 2 429 1 is_stmt 1 view -0
 4001              		.cfi_startproc
 4002              		@ args = 0, pretend = 0, frame = 24
 4003              		@ frame_needed = 0, uses_anonymous_args = 0
 4004              		.loc 2 429 1 is_stmt 0 view .LVU1054
 4005 0000 2DE9F04F 		push	{r4, r5, r6, r7, r8, r9, r10, fp, lr}
 4006              		.cfi_def_cfa_offset 36
 4007              		.cfi_offset 4, -36
 4008              		.cfi_offset 5, -32
 4009              		.cfi_offset 6, -28
ARM GAS  C:\Users\VINCIU~1\AppData\Local\Temp\ccdhDWPe.s 			page 109


 4010              		.cfi_offset 7, -24
 4011              		.cfi_offset 8, -20
 4012              		.cfi_offset 9, -16
 4013              		.cfi_offset 10, -12
 4014              		.cfi_offset 11, -8
 4015              		.cfi_offset 14, -4
 4016 0004 0C46     		mov	r4, r1
 4017 0006 0646     		mov	r6, r0
 430:Menus.cpp     ****     screen.Fill(false);
 4018              		.loc 2 430 5 is_stmt 1 view .LVU1055
 4019              	.LVL245:
 4020              	.LBB1209:
 4021              	.LBI1209:
  33:../../libdaisy/src/hid/disp/oled_display.h **** 
 4022              		.loc 1 33 10 view .LVU1056
 4023              	.LBB1210:
 4024              	.LBI1210:
 249:../../libdaisy/src/dev/oled_ssd130x.h ****     {
 4025              		.loc 6 249 10 view .LVU1057
 4026              	.LBB1211:
 251:../../libdaisy/src/dev/oled_ssd130x.h ****         {
 4027              		.loc 6 251 29 view .LVU1058
 253:../../libdaisy/src/dev/oled_ssd130x.h ****         }
 4028              		.loc 6 253 24 is_stmt 0 view .LVU1059
 4029 0008 4FF48062 		mov	r2, #1024
 4030              	.LVL246:
 253:../../libdaisy/src/dev/oled_ssd130x.h ****         }
 4031              		.loc 6 253 24 view .LVU1060
 4032              	.LBE1211:
 4033              	.LBE1210:
 4034              	.LBE1209:
 429:Menus.cpp     ****     screen.Fill(false);
 4035              		.loc 2 429 1 view .LVU1061
 4036 000c 8BB0     		sub	sp, sp, #44
 4037              		.cfi_def_cfa_offset 80
 4038              	.LBB1214:
 4039              	.LBB1213:
 4040              	.LBB1212:
 253:../../libdaisy/src/dev/oled_ssd130x.h ****         }
 4041              		.loc 6 253 24 view .LVU1062
 4042 000e 0021     		movs	r1, #0
 4043              	.LVL247:
 253:../../libdaisy/src/dev/oled_ssd130x.h ****         }
 4044              		.loc 6 253 24 view .LVU1063
 4045 0010 04F11400 		add	r0, r4, #20
 4046              	.LVL248:
 253:../../libdaisy/src/dev/oled_ssd130x.h ****         }
 4047              		.loc 6 253 24 view .LVU1064
 4048 0014 FFF7FEFF 		bl	memset
 4049              	.LVL249:
 253:../../libdaisy/src/dev/oled_ssd130x.h ****         }
 4050              		.loc 6 253 24 view .LVU1065
 4051              	.LBE1212:
 4052              	.LBE1213:
 4053              	.LBE1214:
 4054              	.LBB1215:
 431:Menus.cpp     ****     float margin = 10;
ARM GAS  C:\Users\VINCIU~1\AppData\Local\Temp\ccdhDWPe.s 			page 110


 432:Menus.cpp     ****     float glideInit;
 433:Menus.cpp     ****     float offset = (screen.Height() / 4);
 434:Menus.cpp     ****     glideInit    = (offset + (this->analogRead * screen.Height() * 0.625));
 435:Menus.cpp     ****     for(int i = 0; i < screen.Width(); i++)
 436:Menus.cpp     ****     {
 437:Menus.cpp     ****         screen.DrawPixel(i * 3, (screen.Height() / 2), on);
 4055              		.loc 2 437 25 view .LVU1066
 4056 0018 96F8E001 		ldrb	r0, [r6, #480]	@ zero_extendqisi2
 4057 001c 2246     		mov	r2, r4
 4058 001e 0023     		movs	r3, #0
 4059              	.LVL250:
 4060              	.L283:
 4061              		.loc 2 437 9 is_stmt 1 discriminator 2 view .LVU1067
 4062              	.LBB1216:
 4063              	.LBI1216:
 4064              		.loc 1 41 10 discriminator 2 view .LVU1068
 4065              	.LBB1217:
 4066              	.LBI1217:
 239:../../libdaisy/src/dev/oled_ssd130x.h ****     {
 4067              		.loc 6 239 10 discriminator 2 view .LVU1069
 4068              	.LBB1218:
 241:../../libdaisy/src/dev/oled_ssd130x.h ****             return;
 4069              		.loc 6 241 9 is_stmt 0 discriminator 2 view .LVU1070
 4070 0020 7F2B     		cmp	r3, #127
 4071 0022 0CD8     		bhi	.L279
 4072              	.L350:
 4073              	.LVL251:
 4074              	.LBB1219:
 4075              	.LBI1219:
 239:../../libdaisy/src/dev/oled_ssd130x.h ****     {
 4076              		.loc 6 239 10 is_stmt 1 view .LVU1071
 239:../../libdaisy/src/dev/oled_ssd130x.h ****     {
 4077              		.loc 6 239 10 is_stmt 0 view .LVU1072
 4078              	.LBE1219:
 244:../../libdaisy/src/dev/oled_ssd130x.h ****         else
 4079              		.loc 6 244 42 view .LVU1073
 4080 0024 92F81412 		ldrb	r1, [r2, #532]	@ zero_extendqisi2
 243:../../libdaisy/src/dev/oled_ssd130x.h ****             buffer_[x + (y / 8) * width] |= (1 << (y % 8));
 4081              		.loc 6 243 9 view .LVU1074
 4082 0028 0028     		cmp	r0, #0
 4083 002a 00F0D580 		beq	.L280
 244:../../libdaisy/src/dev/oled_ssd130x.h ****         else
 4084              		.loc 6 244 42 view .LVU1075
 4085 002e 41F00101 		orr	r1, r1, #1
 4086 0032 82F81412 		strb	r1, [r2, #532]
 4087              	.L281:
 4088              	.LVL252:
 244:../../libdaisy/src/dev/oled_ssd130x.h ****         else
 4089              		.loc 6 244 42 view .LVU1076
 4090              	.LBE1218:
 4091              	.LBE1217:
 4092              	.LBE1216:
 435:Menus.cpp     ****     {
 4093              		.loc 2 435 5 is_stmt 1 view .LVU1077
 435:Menus.cpp     ****     {
 4094              		.loc 2 435 22 view .LVU1078
 4095 0036 0333     		adds	r3, r3, #3
ARM GAS  C:\Users\VINCIU~1\AppData\Local\Temp\ccdhDWPe.s 			page 111


 4096 0038 0332     		adds	r2, r2, #3
 4097              		.loc 2 437 9 view .LVU1079
 4098              	.LVL253:
 4099              	.LBB1226:
 4100              		.loc 1 41 10 view .LVU1080
 4101              	.LBB1224:
 239:../../libdaisy/src/dev/oled_ssd130x.h ****     {
 4102              		.loc 6 239 10 view .LVU1081
 4103              	.LBB1222:
 241:../../libdaisy/src/dev/oled_ssd130x.h ****             return;
 4104              		.loc 6 241 9 is_stmt 0 view .LVU1082
 4105 003a 7F2B     		cmp	r3, #127
 4106 003c F2D9     		bls	.L350
 4107              	.L279:
 4108              	.LVL254:
 241:../../libdaisy/src/dev/oled_ssd130x.h ****             return;
 4109              		.loc 6 241 9 view .LVU1083
 4110              	.LBE1222:
 4111              	.LBE1224:
 4112              	.LBE1226:
 435:Menus.cpp     ****     {
 4113              		.loc 2 435 5 is_stmt 1 view .LVU1084
 435:Menus.cpp     ****     {
 4114              		.loc 2 435 22 view .LVU1085
 4115 003e 0333     		adds	r3, r3, #3
 4116 0040 0332     		adds	r2, r2, #3
 4117 0042 B3F5C07F 		cmp	r3, #384
 4118 0046 EBD1     		bne	.L283
 4119              	.LBE1215:
 438:Menus.cpp     ****     }
 439:Menus.cpp     ****     if(this->buttonLeft.RisingEdge())
 4120              		.loc 2 439 5 view .LVU1086
 4121              	.LVL255:
 4122              	.LBB1228:
 4123              	.LBI1228:
 4124              		.loc 4 69 17 view .LVU1087
 4125              	.LBB1229:
 4126              		.loc 4 69 38 view .LVU1088
 4127              		.loc 4 69 38 is_stmt 0 view .LVU1089
 4128              	.LBE1229:
 4129              	.LBE1228:
 4130              		.loc 2 439 5 view .LVU1090
 4131 0048 96F85130 		ldrb	r3, [r6, #81]	@ zero_extendqisi2
 4132 004c 7F2B     		cmp	r3, #127
 440:Menus.cpp     **** 
 441:Menus.cpp     ****     {
 442:Menus.cpp     ****         this->menuStateGlide = this->menuStateGlide - 1;
 4133              		.loc 2 442 53 view .LVU1091
 4134 004e 336F     		ldr	r3, [r6, #112]
 439:Menus.cpp     **** 
 4135              		.loc 2 439 5 view .LVU1092
 4136 0050 00F07D81 		beq	.L351
 4137              	.L286:
 443:Menus.cpp     ****         if(this->menuStateGlide < 0)
 444:Menus.cpp     ****         {
 445:Menus.cpp     ****             this->menuStateGlide = 1;
 446:Menus.cpp     ****         }
ARM GAS  C:\Users\VINCIU~1\AppData\Local\Temp\ccdhDWPe.s 			page 112


 447:Menus.cpp     ****     }
 448:Menus.cpp     ****     if(this->buttonRight.RisingEdge())
 4138              		.loc 2 448 5 is_stmt 1 view .LVU1093
 4139              	.LVL256:
 4140              	.LBB1230:
 4141              	.LBI1230:
 4142              		.loc 4 69 17 view .LVU1094
 4143              	.LBB1231:
 4144              		.loc 4 69 38 view .LVU1095
 4145              		.loc 4 69 38 is_stmt 0 view .LVU1096
 4146              	.LBE1231:
 4147              	.LBE1230:
 4148              		.loc 2 448 5 view .LVU1097
 4149 0054 96F86120 		ldrb	r2, [r6, #97]	@ zero_extendqisi2
 4150 0058 7F2A     		cmp	r2, #127
 4151 005a 4ED0     		beq	.L352
 4152              	.L289:
 449:Menus.cpp     **** 
 450:Menus.cpp     ****     {
 451:Menus.cpp     ****         this->menuStateGlide = this->menuStateGlide + 1;
 452:Menus.cpp     ****         if(this->menuStateGlide > 1)
 453:Menus.cpp     ****         {
 454:Menus.cpp     ****             this->menuStateGlide = 0;
 455:Menus.cpp     ****         }
 456:Menus.cpp     ****     }
 457:Menus.cpp     ****     if(this->menuStateGlide == 0)
 4153              		.loc 2 457 5 is_stmt 1 view .LVU1098
 4154              	.LBB1233:
 4155 005c 002B     		cmp	r3, #0
 4156 005e 52D0     		beq	.L288
 458:Menus.cpp     ****     {
 459:Menus.cpp     ****         if(this->glideInit > 100)
 460:Menus.cpp     ****         {
 461:Menus.cpp     ****             this->glideInit = 100;
 462:Menus.cpp     ****         }
 463:Menus.cpp     ****         if(this->glideInit < -100)
 464:Menus.cpp     ****         {
 465:Menus.cpp     ****             this->glideInit = -100;
 466:Menus.cpp     ****         }
 467:Menus.cpp     **** 
 468:Menus.cpp     ****         int glideScale;
 469:Menus.cpp     ****         glideScale = screen.Height() - ((this->glideInit + 212) * 0.15);
 470:Menus.cpp     ****         this->glideInit += this->encoderRight.Increment();
 471:Menus.cpp     ****         circleGlidePosition = glideScale;
 472:Menus.cpp     **** 
 473:Menus.cpp     ****         sprintf(this->buffPitchGlide, "Init_%d%%", this->glideInit);
 474:Menus.cpp     **** 
 475:Menus.cpp     **** 
 476:Menus.cpp     ****         //(this->analogRead * 24) - 12;
 477:Menus.cpp     **** 
 478:Menus.cpp     ****         screen.DrawRect(0, 0, 66, 13, true, false);
 479:Menus.cpp     ****     }
 480:Menus.cpp     ****     else if(this->menuStateGlide == 1)
 4157              		.loc 2 480 10 view .LVU1099
 4158 0060 012B     		cmp	r3, #1
 4159 0062 00F09481 		beq	.L287
 4160              	.LBB1234:
ARM GAS  C:\Users\VINCIU~1\AppData\Local\Temp\ccdhDWPe.s 			page 113


 473:Menus.cpp     **** 
 4161              		.loc 2 473 23 is_stmt 0 view .LVU1100
 4162 0066 06F58275 		add	r5, r6, #260
 4163              	.L349:
 473:Menus.cpp     **** 
 4164              		.loc 2 473 23 view .LVU1101
 4165              	.LBE1234:
 481:Menus.cpp     ****     {
 482:Menus.cpp     ****         if(this->glideTime >= 100)
 483:Menus.cpp     ****         {
 484:Menus.cpp     ****             this->glideTime = 100;
 485:Menus.cpp     ****         }
 486:Menus.cpp     ****         if(this->glideTime <= 0)
 487:Menus.cpp     ****         {
 488:Menus.cpp     ****             this->glideTime = 0;
 489:Menus.cpp     ****         }
 490:Menus.cpp     ****         if(circleGlidePosition >= 100)
 491:Menus.cpp     ****         {
 492:Menus.cpp     ****             circleGlidePosition = 100;
 493:Menus.cpp     ****         }
 494:Menus.cpp     ****         if(circleGlidePosition <= 0)
 495:Menus.cpp     ****         {
 496:Menus.cpp     ****             circleGlidePosition = 0;
 497:Menus.cpp     ****         }
 498:Menus.cpp     ****         if(circleGlideTimePosition >= 100)
 499:Menus.cpp     ****         {
 500:Menus.cpp     ****             circleGlideTimePosition = 100;
 501:Menus.cpp     ****         }
 502:Menus.cpp     ****         if(circleGlideTimePosition <= 10)
 503:Menus.cpp     ****         {
 504:Menus.cpp     ****             circleGlideTimePosition = 10;
 505:Menus.cpp     ****         }
 506:Menus.cpp     ****         circleGlideTimePosition += this->encoderRight.Increment();
 507:Menus.cpp     ****         ;
 508:Menus.cpp     ****         this->glideTime += this->encoderRight.Increment();
 509:Menus.cpp     ****         sprintf(this->buffPitchTime, "Time_%d%%", (int)this->glideTime);
 4166              		.loc 2 509 23 view .LVU1102
 4167 006a 06F58E77 		add	r7, r6, #284
 4168              	.L297:
 4169              		.loc 2 509 23 view .LVU1103
 4170              	.LBE1233:
 510:Menus.cpp     ****         screen.DrawRect(67, 0, screen.Width() - 2, 13, true, false);
 511:Menus.cpp     ****     }
 512:Menus.cpp     **** 
 513:Menus.cpp     ****     screen.SetCursor(6, 4);
 4171              		.loc 2 513 5 is_stmt 1 view .LVU1104
 4172              	.LVL257:
 4173              	.LBB1296:
 4174              	.LBI1296:
 131:../../libdaisy/src/hid/disp/display.h ****     {
 4175              		.loc 5 131 10 view .LVU1105
 4176              	.LBB1297:
 133:../../libdaisy/src/hid/disp/display.h ****         currentY_ = (y >= Height()) ? Height() - 1 : y;
 4177              		.loc 5 133 9 view .LVU1106
 134:../../libdaisy/src/hid/disp/display.h ****     }
 4178              		.loc 5 134 9 view .LVU1107
 4179              	.LBE1297:
ARM GAS  C:\Users\VINCIU~1\AppData\Local\Temp\ccdhDWPe.s 			page 114


 4180              	.LBE1296:
 514:Menus.cpp     ****     screen.WriteString(buffPitchGlide, Font_6x8, true);
 4181              		.loc 2 514 23 is_stmt 0 view .LVU1108
 4182 006e 2946     		mov	r1, r5
 4183              	.LBB1300:
 4184              	.LBB1298:
 133:../../libdaisy/src/hid/disp/display.h ****         currentY_ = (y >= Height()) ? Height() - 1 : y;
 4185              		.loc 5 133 19 view .LVU1109
 4186 0070 BC4B     		ldr	r3, .L355
 4187              	.LBE1298:
 4188              	.LBE1300:
 4189              		.loc 2 514 23 view .LVU1110
 4190 0072 BD4D     		ldr	r5, .L355+4
 4191 0074 4FF00109 		mov	r9, #1
 4192              	.LBB1301:
 4193              	.LBB1299:
 133:../../libdaisy/src/hid/disp/display.h ****         currentY_ = (y >= Height()) ? Height() - 1 : y;
 4194              		.loc 5 133 19 view .LVU1111
 4195 0078 6360     		str	r3, [r4, #4]
 4196              	.LVL258:
 133:../../libdaisy/src/hid/disp/display.h ****         currentY_ = (y >= Height()) ? Height() - 1 : y;
 4197              		.loc 5 133 19 view .LVU1112
 4198              	.LBE1299:
 4199              	.LBE1301:
 4200              		.loc 2 514 5 is_stmt 1 view .LVU1113
 4201              		.loc 2 514 23 is_stmt 0 view .LVU1114
 4202 007a 2046     		mov	r0, r4
 4203 007c CDF80090 		str	r9, [sp]
 4204 0080 95E80C00 		ldm	r5, {r2, r3}
 4205 0084 FFF7FEFF 		bl	_ZN5daisy25OneBitGraphicsDisplayImplINS_11OledDisplayINS_13SSD130xDriverILj128ELj64ENS_24SSD130
 4206              	.LVL259:
 515:Menus.cpp     ****     screen.SetCursor(73, 4);
 4207              		.loc 2 515 5 is_stmt 1 view .LVU1115
 4208              	.LBB1302:
 4209              	.LBI1302:
 131:../../libdaisy/src/hid/disp/display.h ****     {
 4210              		.loc 5 131 10 view .LVU1116
 4211              	.LBB1303:
 133:../../libdaisy/src/hid/disp/display.h ****         currentY_ = (y >= Height()) ? Height() - 1 : y;
 4212              		.loc 5 133 9 view .LVU1117
 134:../../libdaisy/src/hid/disp/display.h ****     }
 4213              		.loc 5 134 9 view .LVU1118
 133:../../libdaisy/src/hid/disp/display.h ****         currentY_ = (y >= Height()) ? Height() - 1 : y;
 4214              		.loc 5 133 19 is_stmt 0 view .LVU1119
 4215 0088 B84B     		ldr	r3, .L355+8
 4216              	.LBE1303:
 4217              	.LBE1302:
 516:Menus.cpp     ****     screen.WriteString(buffPitchTime, Font_6x8, true);
 4218              		.loc 2 516 23 view .LVU1120
 4219 008a CDF80090 		str	r9, [sp]
 4220 008e 3946     		mov	r1, r7
 4221              	.LBB1305:
 4222              	.LBB1304:
 133:../../libdaisy/src/hid/disp/display.h ****         currentY_ = (y >= Height()) ? Height() - 1 : y;
 4223              		.loc 5 133 19 view .LVU1121
 4224 0090 6360     		str	r3, [r4, #4]
 4225              	.LVL260:
ARM GAS  C:\Users\VINCIU~1\AppData\Local\Temp\ccdhDWPe.s 			page 115


 133:../../libdaisy/src/hid/disp/display.h ****         currentY_ = (y >= Height()) ? Height() - 1 : y;
 4226              		.loc 5 133 19 view .LVU1122
 4227              	.LBE1304:
 4228              	.LBE1305:
 4229              		.loc 2 516 5 is_stmt 1 view .LVU1123
 4230              		.loc 2 516 23 is_stmt 0 view .LVU1124
 4231 0092 2046     		mov	r0, r4
 4232 0094 95E80C00 		ldm	r5, {r2, r3}
 4233 0098 FFF7FEFF 		bl	_ZN5daisy25OneBitGraphicsDisplayImplINS_11OledDisplayINS_13SSD130xDriverILj128ELj64ENS_24SSD130
 4234              	.LVL261:
 517:Menus.cpp     ****     screen.DrawLine(margin,
 4235              		.loc 2 517 5 is_stmt 1 view .LVU1125
 4236              		.loc 2 517 20 is_stmt 0 view .LVU1126
 4237 009c 96ED227A 		vldr.32	s14, [r6, #136]
 4238 00a0 D6ED237A 		vldr.32	s15, [r6, #140]
 4239 00a4 BCEEC77A 		vcvt.u32.f32	s14, s14
 4240 00a8 FCEEE77A 		vcvt.u32.f32	s15, s15
 4241              	.LBB1306:
 4242              	.LBB1307:
 188:../../libdaisy/src/hid/disp/display.h ****         int_fast16_t signX  = ((x1 < x2) ? 1 : -1);
 4243              		.loc 5 188 52 view .LVU1127
 4244 00ac 17EE103A 		vmov	r3, s14	@ int
 4245              	.LBE1307:
 4246              	.LBE1306:
 4247              		.loc 2 517 20 view .LVU1128
 4248 00b0 8DED057A 		vstr.32	s14, [sp, #20]	@ int
 4249 00b4 17EE908A 		vmov	r8, s15	@ int
 4250              	.LVL262:
 4251              	.LBB1347:
 4252              	.LBI1306:
 181:../../libdaisy/src/hid/disp/display.h ****                   uint_fast8_t y1,
 4253              		.loc 5 181 10 is_stmt 1 view .LVU1129
 4254              	.LBB1342:
 188:../../libdaisy/src/hid/disp/display.h ****         int_fast16_t signX  = ((x1 < x2) ? 1 : -1);
 4255              		.loc 5 188 52 is_stmt 0 view .LVU1130
 4256 00b8 C3F1200A 		rsb	r10, r3, #32
 187:../../libdaisy/src/hid/disp/display.h ****         int_fast16_t deltaY = abs((int_fast16_t)y2 - (int_fast16_t)y1);
 4257              		.loc 5 187 52 view .LVU1131
 4258 00bc A8F10A07 		sub	r7, r8, #10
 188:../../libdaisy/src/hid/disp/display.h ****         int_fast16_t signX  = ((x1 < x2) ? 1 : -1);
 4259              		.loc 5 188 22 view .LVU1132
 4260 00c0 BAF1000F 		cmp	r10, #0
 4261 00c4 B8BF     		it	lt
 4262 00c6 CAF1000A 		rsblt	r10, r10, #0
 187:../../libdaisy/src/hid/disp/display.h ****         int_fast16_t deltaY = abs((int_fast16_t)y2 - (int_fast16_t)y1);
 4263              		.loc 5 187 22 view .LVU1133
 4264 00ca 002F     		cmp	r7, #0
 4265 00cc B8BF     		it	lt
 4266 00ce 7F42     		rsblt	r7, r7, #0
 4267              	.LVL263:
 189:../../libdaisy/src/hid/disp/display.h ****         int_fast16_t signY  = ((y1 < y2) ? 1 : -1);
 4268              		.loc 5 189 42 view .LVU1134
 4269 00d0 B8F10A0F 		cmp	r8, #10
 4270 00d4 40F22D81 		bls	.L305
 4271              	.LVL264:
 190:../../libdaisy/src/hid/disp/display.h ****         int_fast16_t error  = deltaX - deltaY;
 4272              		.loc 5 190 42 view .LVU1135
ARM GAS  C:\Users\VINCIU~1\AppData\Local\Temp\ccdhDWPe.s 			page 116


 4273 00d8 1F2B     		cmp	r3, #31
 191:../../libdaisy/src/hid/disp/display.h ****         int_fast16_t error2;
 4274              		.loc 5 191 22 view .LVU1136
 4275 00da A7EB0A01 		sub	r1, r7, r10
 4276              	.LVL265:
 4277              	.LBB1308:
 4278              	.LBI1308:
 4279              		.loc 1 41 10 is_stmt 1 view .LVU1137
 4280              	.LBB1309:
  42:../../libdaisy/src/hid/disp/oled_display.h ****     {
  43:../../libdaisy/src/hid/disp/oled_display.h ****         driver_.DrawPixel(x, y, on);
 4281              		.loc 1 43 26 is_stmt 0 view .LVU1138
 4282 00de 04F10805 		add	r5, r4, #8
 4283              	.LBE1309:
 4284              	.LBE1308:
 190:../../libdaisy/src/hid/disp/display.h ****         int_fast16_t error  = deltaX - deltaY;
 4285              		.loc 5 190 42 view .LVU1139
 4286 00e2 40F23881 		bls	.L306
 4287              	.LVL266:
 4288              	.LBB1329:
 4289              	.LBB1322:
 4290              	.LBB1310:
 4291              	.LBI1310:
 239:../../libdaisy/src/dev/oled_ssd130x.h ****     {
 4292              		.loc 6 239 10 is_stmt 1 view .LVU1140
 4293              	.LBB1311:
 241:../../libdaisy/src/dev/oled_ssd130x.h ****             return;
 4294              		.loc 6 241 9 is_stmt 0 view .LVU1141
 4295 00e6 B8F17F0F 		cmp	r8, #127
 4296              	.LBE1311:
 4297              	.LBE1310:
 4298              	.LBE1322:
 4299              	.LBE1329:
 189:../../libdaisy/src/hid/disp/display.h ****         int_fast16_t signY  = ((y1 < y2) ? 1 : -1);
 4300              		.loc 5 189 42 view .LVU1142
 4301 00ea CDF81C90 		str	r9, [sp, #28]
 4302              	.LBB1330:
 4303              	.LBB1323:
 4304              	.LBB1316:
 4305              	.LBB1312:
 241:../../libdaisy/src/dev/oled_ssd130x.h ****             return;
 4306              		.loc 6 241 9 view .LVU1143
 4307 00ee 40F28380 		bls	.L320
 4308              	.LBE1312:
 4309              	.LBE1316:
 4310              	.LBE1323:
 4311              	.LBE1330:
 190:../../libdaisy/src/hid/disp/display.h ****         int_fast16_t error  = deltaX - deltaY;
 4312              		.loc 5 190 42 view .LVU1144
 4313 00f2 4FF0FF33 		mov	r3, #-1
 4314              	.LVL267:
 190:../../libdaisy/src/hid/disp/display.h ****         int_fast16_t error  = deltaX - deltaY;
 4315              		.loc 5 190 42 view .LVU1145
 4316 00f6 0693     		str	r3, [sp, #24]
 4317 00f8 8EE0     		b	.L307
 4318              	.LVL268:
 4319              	.L352:
ARM GAS  C:\Users\VINCIU~1\AppData\Local\Temp\ccdhDWPe.s 			page 117


 190:../../libdaisy/src/hid/disp/display.h ****         int_fast16_t error  = deltaX - deltaY;
 4320              		.loc 5 190 42 view .LVU1146
 4321              	.LBE1342:
 4322              	.LBE1347:
 451:Menus.cpp     ****         if(this->menuStateGlide > 1)
 4323              		.loc 2 451 9 is_stmt 1 view .LVU1147
 451:Menus.cpp     ****         if(this->menuStateGlide > 1)
 4324              		.loc 2 451 53 is_stmt 0 view .LVU1148
 4325 00fa 0133     		adds	r3, r3, #1
 452:Menus.cpp     ****         {
 4326              		.loc 2 452 9 view .LVU1149
 4327 00fc 012B     		cmp	r3, #1
 451:Menus.cpp     ****         if(this->menuStateGlide > 1)
 4328              		.loc 2 451 30 view .LVU1150
 4329 00fe 3367     		str	r3, [r6, #112]
 452:Menus.cpp     ****         {
 4330              		.loc 2 452 9 is_stmt 1 view .LVU1151
 4331 0100 ACDD     		ble	.L289
 4332              	.L290:
 454:Menus.cpp     ****         }
 4333              		.loc 2 454 13 view .LVU1152
 454:Menus.cpp     ****         }
 4334              		.loc 2 454 34 is_stmt 0 view .LVU1153
 4335 0102 0023     		movs	r3, #0
 4336 0104 3367     		str	r3, [r6, #112]
 457:Menus.cpp     ****     {
 4337              		.loc 2 457 5 is_stmt 1 view .LVU1154
 4338              	.L288:
 4339              	.LBB1348:
 4340              	.LBB1290:
 459:Menus.cpp     ****         {
 4341              		.loc 2 459 9 view .LVU1155
 459:Menus.cpp     ****         {
 4342              		.loc 2 459 18 is_stmt 0 view .LVU1156
 4343 0106 D6F89030 		ldr	r3, [r6, #144]
 459:Menus.cpp     ****         {
 4344              		.loc 2 459 9 view .LVU1157
 4345 010a 642B     		cmp	r3, #100
 4346 010c 69DC     		bgt	.L321
 463:Menus.cpp     ****         {
 4347              		.loc 2 463 9 is_stmt 1 view .LVU1158
 4348 010e 13F1640F 		cmn	r3, #100
 4349 0112 80F29C81 		bge	.L353
 4350 0116 DFED967A 		vldr.32	s15, .L355+12
 4351 011a 6FF06303 		mvn	r3, #99
 4352              	.L292:
 468:Menus.cpp     ****         glideScale = screen.Height() - ((this->glideInit + 212) * 0.15);
 4353              		.loc 2 468 9 view .LVU1159
 469:Menus.cpp     ****         this->glideInit += this->encoderRight.Increment();
 4354              		.loc 2 469 9 view .LVU1160
 4355              	.LVL269:
 470:Menus.cpp     ****         circleGlidePosition = glideScale;
 4356              		.loc 2 470 9 view .LVU1161
 4357              	.LBB1235:
 4358              	.LBI1235:
  41:../../libdaisy/src/hid/encoder.h ****     /** Returns true if the encoder was just pressed.
 4359              		.loc 3 41 20 view .LVU1162
ARM GAS  C:\Users\VINCIU~1\AppData\Local\Temp\ccdhDWPe.s 			page 118


 4360              	.LBB1236:
  41:../../libdaisy/src/hid/encoder.h ****     /** Returns true if the encoder was just pressed.
 4361              		.loc 3 41 40 view .LVU1163
  41:../../libdaisy/src/hid/encoder.h ****     /** Returns true if the encoder was just pressed.
 4362              		.loc 3 41 40 is_stmt 0 view .LVU1164
 4363              	.LBE1236:
 4364              	.LBE1235:
 470:Menus.cpp     ****         circleGlidePosition = glideScale;
 4365              		.loc 2 470 25 view .LVU1165
 4366 011e B26C     		ldr	r2, [r6, #72]
 473:Menus.cpp     **** 
 4367              		.loc 2 473 23 view .LVU1166
 4368 0120 06F58275 		add	r5, r6, #260
 473:Menus.cpp     **** 
 4369              		.loc 2 473 16 view .LVU1167
 4370 0124 9349     		ldr	r1, .L355+16
 470:Menus.cpp     ****         circleGlidePosition = glideScale;
 4371              		.loc 2 470 25 view .LVU1168
 4372 0126 1A44     		add	r2, r2, r3
 473:Menus.cpp     **** 
 4373              		.loc 2 473 16 view .LVU1169
 4374 0128 2846     		mov	r0, r5
 471:Menus.cpp     **** 
 4375              		.loc 2 471 29 view .LVU1170
 4376 012a C6ED227A 		vstr.32	s15, [r6, #136]
 470:Menus.cpp     ****         circleGlidePosition = glideScale;
 4377              		.loc 2 470 25 view .LVU1171
 4378 012e C6F89020 		str	r2, [r6, #144]
 4379              	.LVL270:
 471:Menus.cpp     **** 
 4380              		.loc 2 471 9 is_stmt 1 view .LVU1172
 473:Menus.cpp     **** 
 4381              		.loc 2 473 9 view .LVU1173
 473:Menus.cpp     **** 
 4382              		.loc 2 473 16 is_stmt 0 view .LVU1174
 4383 0132 FFF7FEFF 		bl	sprintf
 4384              	.LVL271:
 478:Menus.cpp     ****     }
 4385              		.loc 2 478 9 is_stmt 1 view .LVU1175
 4386              	.LBB1237:
 4387              	.LBI1237:
 217:../../libdaisy/src/hid/disp/display.h ****                   uint_fast8_t y1,
 4388              		.loc 5 217 10 view .LVU1176
 4389              	.LBB1238:
 4390              	.LBI1238:
 181:../../libdaisy/src/hid/disp/display.h ****                   uint_fast8_t y1,
 4391              		.loc 5 181 10 view .LVU1177
 4392              	.LBB1239:
 4393              	.LBB1240:
 4394              	.LBI1240:
  41:../../libdaisy/src/hid/disp/oled_display.h ****     {
 4395              		.loc 1 41 10 view .LVU1178
 4396              	.LBB1241:
 4397              	.LBI1241:
 239:../../libdaisy/src/dev/oled_ssd130x.h ****     {
 4398              		.loc 6 239 10 view .LVU1179
 4399              	.LBB1242:
ARM GAS  C:\Users\VINCIU~1\AppData\Local\Temp\ccdhDWPe.s 			page 119


 244:../../libdaisy/src/dev/oled_ssd130x.h ****         else
 4400              		.loc 6 244 42 is_stmt 0 view .LVU1180
 4401 0136 94F85620 		ldrb	r2, [r4, #86]	@ zero_extendqisi2
 4402 013a 04F11303 		add	r3, r4, #19
 4403 013e 04F15501 		add	r1, r4, #85
 4404 0142 42F00102 		orr	r2, r2, #1
 4405 0146 84F85620 		strb	r2, [r4, #86]
 4406              	.LVL272:
 244:../../libdaisy/src/dev/oled_ssd130x.h ****         else
 4407              		.loc 6 244 42 view .LVU1181
 4408              	.LBE1242:
 4409              	.LBE1241:
 4410              	.LBE1240:
 199:../../libdaisy/src/hid/disp/display.h ****         {
 4411              		.loc 5 199 26 is_stmt 1 view .LVU1182
 4412              	.L293:
 4413              	.LBB1243:
 4414              	.LBI1243:
  41:../../libdaisy/src/hid/disp/oled_display.h ****     {
 4415              		.loc 1 41 10 view .LVU1183
 4416              	.LBB1244:
 4417              	.LBI1244:
 239:../../libdaisy/src/dev/oled_ssd130x.h ****     {
 4418              		.loc 6 239 10 view .LVU1184
 4419              	.LBB1245:
 244:../../libdaisy/src/dev/oled_ssd130x.h ****         else
 4420              		.loc 6 244 42 is_stmt 0 view .LVU1185
 4421 014a 13F8012F 		ldrb	r2, [r3, #1]!	@ zero_extendqisi2
 244:../../libdaisy/src/dev/oled_ssd130x.h ****         else
 4422              		.loc 6 244 42 view .LVU1186
 4423 014e 42F00102 		orr	r2, r2, #1
 4424              	.LBE1245:
 4425              	.LBE1244:
 4426              	.LBE1243:
 199:../../libdaisy/src/hid/disp/display.h ****         {
 4427              		.loc 5 199 26 view .LVU1187
 4428 0152 9942     		cmp	r1, r3
 4429              	.LBB1248:
 4430              	.LBB1247:
 4431              	.LBB1246:
 244:../../libdaisy/src/dev/oled_ssd130x.h ****         else
 4432              		.loc 6 244 42 view .LVU1188
 4433 0154 1A70     		strb	r2, [r3]
 4434              	.LVL273:
 244:../../libdaisy/src/dev/oled_ssd130x.h ****         else
 4435              		.loc 6 244 42 view .LVU1189
 4436              	.LBE1246:
 4437              	.LBE1247:
 4438              	.LBE1248:
 199:../../libdaisy/src/hid/disp/display.h ****         {
 4439              		.loc 5 199 26 is_stmt 1 view .LVU1190
 4440 0156 F8D1     		bne	.L293
 4441              	.LVL274:
 199:../../libdaisy/src/hid/disp/display.h ****         {
 4442              		.loc 5 199 26 is_stmt 0 view .LVU1191
 4443              	.LBE1239:
 4444              	.LBE1238:
ARM GAS  C:\Users\VINCIU~1\AppData\Local\Temp\ccdhDWPe.s 			page 120


 4445              	.LBB1249:
 4446              	.LBI1249:
 181:../../libdaisy/src/hid/disp/display.h ****                   uint_fast8_t y1,
 4447              		.loc 5 181 10 is_stmt 1 view .LVU1192
 4448              	.LBB1250:
 4449              	.LBB1251:
 4450              	.LBI1251:
  41:../../libdaisy/src/hid/disp/oled_display.h ****     {
 4451              		.loc 1 41 10 view .LVU1193
 4452              	.LBB1252:
 4453              	.LBI1252:
 239:../../libdaisy/src/dev/oled_ssd130x.h ****     {
 4454              		.loc 6 239 10 view .LVU1194
 4455              	.LBB1253:
 244:../../libdaisy/src/dev/oled_ssd130x.h ****         else
 4456              		.loc 6 244 42 is_stmt 0 view .LVU1195
 4457 0158 94F8D620 		ldrb	r2, [r4, #214]	@ zero_extendqisi2
 4458 015c 0023     		movs	r3, #0
 4459 015e 42F02002 		orr	r2, r2, #32
 4460 0162 84F8D620 		strb	r2, [r4, #214]
 4461              	.LVL275:
 244:../../libdaisy/src/dev/oled_ssd130x.h ****         else
 4462              		.loc 6 244 42 view .LVU1196
 4463              	.LBE1253:
 4464              	.LBE1252:
 4465              	.LBE1251:
 199:../../libdaisy/src/hid/disp/display.h ****         {
 4466              		.loc 5 199 26 is_stmt 1 view .LVU1197
 4467              	.L294:
 4468              	.LBB1254:
 4469              	.LBI1254:
  41:../../libdaisy/src/hid/disp/oled_display.h ****     {
 4470              		.loc 1 41 10 view .LVU1198
 4471              	.LBB1255:
 4472              	.LBI1255:
 239:../../libdaisy/src/dev/oled_ssd130x.h ****     {
 4473              		.loc 6 239 10 view .LVU1199
 4474              	.LBB1256:
 244:../../libdaisy/src/dev/oled_ssd130x.h ****         else
 4475              		.loc 6 244 28 is_stmt 0 view .LVU1200
 4476 0166 D908     		lsrs	r1, r3, #3
 244:../../libdaisy/src/dev/oled_ssd130x.h ****         else
 4477              		.loc 6 244 54 view .LVU1201
 4478 0168 03F00700 		and	r0, r3, #7
 244:../../libdaisy/src/dev/oled_ssd130x.h ****         else
 4479              		.loc 6 244 48 view .LVU1202
 4480 016c 0122     		movs	r2, #1
 244:../../libdaisy/src/dev/oled_ssd130x.h ****         else
 4481              		.loc 6 244 42 view .LVU1203
 4482 016e 04EBC111 		add	r1, r4, r1, lsl #7
 4483              	.LBE1256:
 4484              	.LBE1255:
 4485              	.LBE1254:
 212:../../libdaisy/src/hid/disp/display.h ****             }
 4486              		.loc 5 212 20 view .LVU1204
 4487 0172 1344     		add	r3, r3, r2
 4488              	.LVL276:
ARM GAS  C:\Users\VINCIU~1\AppData\Local\Temp\ccdhDWPe.s 			page 121


 4489              	.LBB1261:
 4490              	.LBB1259:
 4491              	.LBB1257:
 244:../../libdaisy/src/dev/oled_ssd130x.h ****         else
 4492              		.loc 6 244 48 view .LVU1205
 4493 0174 8240     		lsls	r2, r2, r0
 244:../../libdaisy/src/dev/oled_ssd130x.h ****         else
 4494              		.loc 6 244 42 view .LVU1206
 4495 0176 91F85600 		ldrb	r0, [r1, #86]	@ zero_extendqisi2
 4496              	.LBE1257:
 4497              	.LBE1259:
 4498              	.LBE1261:
 199:../../libdaisy/src/hid/disp/display.h ****         {
 4499              		.loc 5 199 26 view .LVU1207
 4500 017a 0D2B     		cmp	r3, #13
 4501              	.LBB1262:
 4502              	.LBB1260:
 4503              	.LBB1258:
 244:../../libdaisy/src/dev/oled_ssd130x.h ****         else
 4504              		.loc 6 244 42 view .LVU1208
 4505 017c 42EA0002 		orr	r2, r2, r0
 4506 0180 81F85620 		strb	r2, [r1, #86]
 4507              	.LVL277:
 244:../../libdaisy/src/dev/oled_ssd130x.h ****         else
 4508              		.loc 6 244 42 view .LVU1209
 4509              	.LBE1258:
 4510              	.LBE1260:
 4511              	.LBE1262:
 199:../../libdaisy/src/hid/disp/display.h ****         {
 4512              		.loc 5 199 26 is_stmt 1 view .LVU1210
 4513 0184 EFD1     		bne	.L294
 4514              	.LVL278:
 199:../../libdaisy/src/hid/disp/display.h ****         {
 4515              		.loc 5 199 26 is_stmt 0 view .LVU1211
 4516              	.LBE1250:
 4517              	.LBE1249:
 4518              	.LBB1263:
 4519              	.LBI1263:
 181:../../libdaisy/src/hid/disp/display.h ****                   uint_fast8_t y1,
 4520              		.loc 5 181 10 is_stmt 1 view .LVU1212
 4521              	.LBB1264:
 4522              	.LBB1265:
 4523              	.LBI1265:
  41:../../libdaisy/src/hid/disp/oled_display.h ****     {
 4524              		.loc 1 41 10 view .LVU1213
 4525              	.LBB1266:
 4526              	.LBI1266:
 239:../../libdaisy/src/dev/oled_ssd130x.h ****     {
 4527              		.loc 6 239 10 view .LVU1214
 4528              	.LBB1267:
 244:../../libdaisy/src/dev/oled_ssd130x.h ****         else
 4529              		.loc 6 244 42 is_stmt 0 view .LVU1215
 4530 0186 94F89420 		ldrb	r2, [r4, #148]	@ zero_extendqisi2
 4531 018a 04F1D701 		add	r1, r4, #215
 4532 018e 04F19507 		add	r7, r4, #149
 4533 0192 42F02002 		orr	r2, r2, #32
 4534 0196 84F89420 		strb	r2, [r4, #148]
ARM GAS  C:\Users\VINCIU~1\AppData\Local\Temp\ccdhDWPe.s 			page 122


 4535              	.LVL279:
 244:../../libdaisy/src/dev/oled_ssd130x.h ****         else
 4536              		.loc 6 244 42 view .LVU1216
 4537              	.LBE1267:
 4538              	.LBE1266:
 4539              	.LBE1265:
 199:../../libdaisy/src/hid/disp/display.h ****         {
 4540              		.loc 5 199 26 is_stmt 1 view .LVU1217
 4541              	.L295:
 4542              	.LBB1268:
 4543              	.LBI1268:
  41:../../libdaisy/src/hid/disp/oled_display.h ****     {
 4544              		.loc 1 41 10 view .LVU1218
 4545              	.LBB1269:
 4546              	.LBI1269:
 239:../../libdaisy/src/dev/oled_ssd130x.h ****     {
 4547              		.loc 6 239 10 view .LVU1219
 4548              	.LBB1270:
 244:../../libdaisy/src/dev/oled_ssd130x.h ****         else
 4549              		.loc 6 244 42 is_stmt 0 view .LVU1220
 4550 019a 11F8010D 		ldrb	r0, [r1, #-1]!	@ zero_extendqisi2
 244:../../libdaisy/src/dev/oled_ssd130x.h ****         else
 4551              		.loc 6 244 42 view .LVU1221
 4552 019e 40F02000 		orr	r0, r0, #32
 4553              	.LBE1270:
 4554              	.LBE1269:
 4555              	.LBE1268:
 199:../../libdaisy/src/hid/disp/display.h ****         {
 4556              		.loc 5 199 26 view .LVU1222
 4557 01a2 8F42     		cmp	r7, r1
 4558              	.LBB1273:
 4559              	.LBB1272:
 4560              	.LBB1271:
 244:../../libdaisy/src/dev/oled_ssd130x.h ****         else
 4561              		.loc 6 244 42 view .LVU1223
 4562 01a4 0870     		strb	r0, [r1]
 4563              	.LVL280:
 244:../../libdaisy/src/dev/oled_ssd130x.h ****         else
 4564              		.loc 6 244 42 view .LVU1224
 4565              	.LBE1271:
 4566              	.LBE1272:
 4567              	.LBE1273:
 199:../../libdaisy/src/hid/disp/display.h ****         {
 4568              		.loc 5 199 26 is_stmt 1 view .LVU1225
 4569 01a6 F8D1     		bne	.L295
 4570              	.LVL281:
 199:../../libdaisy/src/hid/disp/display.h ****         {
 4571              		.loc 5 199 26 is_stmt 0 view .LVU1226
 4572              	.LBE1264:
 4573              	.LBE1263:
 4574              	.LBB1274:
 4575              	.LBI1274:
 181:../../libdaisy/src/hid/disp/display.h ****                   uint_fast8_t y1,
 4576              		.loc 5 181 10 is_stmt 1 view .LVU1227
 4577              	.LBB1275:
 4578              	.LBB1276:
 4579              	.LBI1276:
ARM GAS  C:\Users\VINCIU~1\AppData\Local\Temp\ccdhDWPe.s 			page 123


  41:../../libdaisy/src/hid/disp/oled_display.h ****     {
 4580              		.loc 1 41 10 view .LVU1228
 4581              	.LBB1277:
 4582              	.LBI1277:
 239:../../libdaisy/src/dev/oled_ssd130x.h ****     {
 4583              		.loc 6 239 10 view .LVU1229
 4584              	.LBB1278:
 244:../../libdaisy/src/dev/oled_ssd130x.h ****         else
 4585              		.loc 6 244 42 is_stmt 0 view .LVU1230
 4586 01a8 217D     		ldrb	r1, [r4, #20]	@ zero_extendqisi2
 4587 01aa 0120     		movs	r0, #1
 4588 01ac 41F00101 		orr	r1, r1, #1
 4589 01b0 2175     		strb	r1, [r4, #20]
 4590              	.LVL282:
 244:../../libdaisy/src/dev/oled_ssd130x.h ****         else
 4591              		.loc 6 244 42 view .LVU1231
 4592              	.LBE1278:
 4593              	.LBE1277:
 4594              	.LBE1276:
 199:../../libdaisy/src/hid/disp/display.h ****         {
 4595              		.loc 5 199 26 is_stmt 1 view .LVU1232
 4596 01b2 02E0     		b	.L298
 4597              	.LVL283:
 4598              	.L296:
 4599              	.LBB1279:
 4600              	.LBB1280:
 4601              	.LBB1281:
 244:../../libdaisy/src/dev/oled_ssd130x.h ****         else
 4602              		.loc 6 244 42 is_stmt 0 view .LVU1233
 4603 01b4 04EBC012 		add	r2, r4, r0, lsl #7
 4604 01b8 127D     		ldrb	r2, [r2, #20]	@ zero_extendqisi2
 4605              	.LVL284:
 4606              	.L298:
 244:../../libdaisy/src/dev/oled_ssd130x.h ****         else
 4607              		.loc 6 244 42 view .LVU1234
 4608              	.LBE1281:
 4609              	.LBE1280:
 4610              	.LBI1279:
  41:../../libdaisy/src/hid/disp/oled_display.h ****     {
 4611              		.loc 1 41 10 is_stmt 1 view .LVU1235
 4612              	.LBB1285:
 4613              	.LBI1280:
 239:../../libdaisy/src/dev/oled_ssd130x.h ****     {
 4614              		.loc 6 239 10 view .LVU1236
 4615              	.LBB1282:
 244:../../libdaisy/src/dev/oled_ssd130x.h ****         else
 4616              		.loc 6 244 54 is_stmt 0 view .LVU1237
 4617 01ba 03F00707 		and	r7, r3, #7
 244:../../libdaisy/src/dev/oled_ssd130x.h ****         else
 4618              		.loc 6 244 48 view .LVU1238
 4619 01be 0121     		movs	r1, #1
 244:../../libdaisy/src/dev/oled_ssd130x.h ****         else
 4620              		.loc 6 244 42 view .LVU1239
 4621 01c0 04EBC010 		add	r0, r4, r0, lsl #7
 4622              	.LBE1282:
 4623              	.LBE1285:
 4624              	.LBE1279:
ARM GAS  C:\Users\VINCIU~1\AppData\Local\Temp\ccdhDWPe.s 			page 124


 199:../../libdaisy/src/hid/disp/display.h ****         {
 4625              		.loc 5 199 26 view .LVU1240
 4626 01c4 013B     		subs	r3, r3, #1
 4627              	.LVL285:
 4628              	.LBB1288:
 4629              	.LBB1286:
 4630              	.LBB1283:
 244:../../libdaisy/src/dev/oled_ssd130x.h ****         else
 4631              		.loc 6 244 48 view .LVU1241
 4632 01c6 01FA07F1 		lsl	r1, r1, r7
 244:../../libdaisy/src/dev/oled_ssd130x.h ****         else
 4633              		.loc 6 244 42 view .LVU1242
 4634 01ca 42EA0102 		orr	r2, r2, r1
 4635 01ce 0275     		strb	r2, [r0, #20]
 4636              	.LVL286:
 244:../../libdaisy/src/dev/oled_ssd130x.h ****         else
 4637              		.loc 6 244 42 view .LVU1243
 4638              	.LBE1283:
 4639              	.LBE1286:
 4640              	.LBE1288:
 199:../../libdaisy/src/hid/disp/display.h ****         {
 4641              		.loc 5 199 26 is_stmt 1 view .LVU1244
 4642              	.LBB1289:
 4643              	.LBB1287:
 4644              	.LBB1284:
 244:../../libdaisy/src/dev/oled_ssd130x.h ****         else
 4645              		.loc 6 244 28 is_stmt 0 view .LVU1245
 4646 01d0 4FEAD300 		lsr	r0, r3, #3
 4647              	.LBE1284:
 4648              	.LBE1287:
 4649              	.LBE1289:
 199:../../libdaisy/src/hid/disp/display.h ****         {
 4650              		.loc 5 199 26 view .LVU1246
 4651 01d4 EED1     		bne	.L296
 4652 01d6 48E7     		b	.L349
 4653              	.LVL287:
 4654              	.L280:
 199:../../libdaisy/src/hid/disp/display.h ****         {
 4655              		.loc 5 199 26 view .LVU1247
 4656              	.LBE1275:
 4657              	.LBE1274:
 4658              	.LBE1237:
 4659              	.LBE1290:
 4660              	.LBE1348:
 4661              	.LBB1349:
 4662              	.LBB1227:
 4663              	.LBB1225:
 4664              	.LBB1223:
 4665              	.LBB1221:
 4666              	.LBB1220:
 246:../../libdaisy/src/dev/oled_ssd130x.h ****     }
 4667              		.loc 6 246 42 view .LVU1248
 4668 01d8 21F00101 		bic	r1, r1, #1
 4669 01dc 82F81412 		strb	r1, [r2, #532]
 4670 01e0 29E7     		b	.L281
 4671              	.LVL288:
 4672              	.L321:
ARM GAS  C:\Users\VINCIU~1\AppData\Local\Temp\ccdhDWPe.s 			page 125


 246:../../libdaisy/src/dev/oled_ssd130x.h ****     }
 4673              		.loc 6 246 42 view .LVU1249
 4674              	.LBE1220:
 4675              	.LBE1221:
 4676              	.LBE1223:
 4677              	.LBE1225:
 4678              	.LBE1227:
 4679              	.LBE1349:
 4680              	.LBB1350:
 4681              	.LBB1291:
 4682 01e2 F3EE017A 		vmov.f32	s15, #1.7e+1
 4683 01e6 6423     		movs	r3, #100
 4684 01e8 99E7     		b	.L292
 4685              	.LVL289:
 4686              	.L354:
 246:../../libdaisy/src/dev/oled_ssd130x.h ****     }
 4687              		.loc 6 246 42 view .LVU1250
 4688              	.LBE1291:
 4689              	.LBE1350:
 4690              	.LBB1351:
 4691              	.LBB1343:
 189:../../libdaisy/src/hid/disp/display.h ****         int_fast16_t signY  = ((y1 < y2) ? 1 : -1);
 4692              		.loc 5 189 42 view .LVU1251
 4693 01ea 4FF0FF33 		mov	r3, #-1
 191:../../libdaisy/src/hid/disp/display.h ****         int_fast16_t error2;
 4694              		.loc 5 191 22 view .LVU1252
 4695 01ee A7EB0A01 		sub	r1, r7, r10
 4696              	.LVL290:
 4697              	.LBB1331:
  41:../../libdaisy/src/hid/disp/oled_display.h ****     {
 4698              		.loc 1 41 10 is_stmt 1 view .LVU1253
 4699              	.LBB1324:
 4700              		.loc 1 43 26 is_stmt 0 view .LVU1254
 4701 01f2 04F10805 		add	r5, r4, #8
 4702              	.LVL291:
 4703              	.LBB1317:
 239:../../libdaisy/src/dev/oled_ssd130x.h ****     {
 4704              		.loc 6 239 10 is_stmt 1 view .LVU1255
 4705              	.LBE1317:
 4706              	.LBE1324:
 4707              	.LBE1331:
 189:../../libdaisy/src/hid/disp/display.h ****         int_fast16_t signY  = ((y1 < y2) ? 1 : -1);
 4708              		.loc 5 189 42 is_stmt 0 view .LVU1256
 4709 01f6 0793     		str	r3, [sp, #28]
 4710              	.LVL292:
 4711              	.L320:
 190:../../libdaisy/src/hid/disp/display.h ****         int_fast16_t error  = deltaX - deltaY;
 4712              		.loc 5 190 42 view .LVU1257
 4713 01f8 4FF0FF33 		mov	r3, #-1
 4714 01fc 0693     		str	r3, [sp, #24]
 4715              	.LVL293:
 4716              	.L316:
 4717              	.LBB1332:
 4718              	.LBB1325:
 4719              	.LBB1318:
 4720              	.LBB1313:
 244:../../libdaisy/src/dev/oled_ssd130x.h ****         else
ARM GAS  C:\Users\VINCIU~1\AppData\Local\Temp\ccdhDWPe.s 			page 126


 4721              		.loc 6 244 42 view .LVU1258
 4722 01fe 08F50073 		add	r3, r8, #512
 4723 0202 2344     		add	r3, r3, r4
 4724 0204 1A7D     		ldrb	r2, [r3, #20]	@ zero_extendqisi2
 4725 0206 42F00102 		orr	r2, r2, #1
 4726 020a 1A75     		strb	r2, [r3, #20]
 4727              	.LVL294:
 244:../../libdaisy/src/dev/oled_ssd130x.h ****         else
 4728              		.loc 6 244 42 view .LVU1259
 4729              	.LBE1313:
 4730              	.LBE1318:
 4731              	.LBE1325:
 4732              	.LBE1332:
 199:../../libdaisy/src/hid/disp/display.h ****         {
 4733              		.loc 5 199 26 is_stmt 1 view .LVU1260
 4734 020c 059B     		ldr	r3, [sp, #20]
 4735 020e 202B     		cmp	r3, #32
 4736 0210 02D1     		bne	.L307
 199:../../libdaisy/src/hid/disp/display.h ****         {
 4737              		.loc 5 199 26 is_stmt 0 view .LVU1261
 4738 0212 B8F10A0F 		cmp	r8, #10
 4739 0216 2AD0     		beq	.L308
 4740              	.L307:
 4741              	.LVL295:
 203:../../libdaisy/src/hid/disp/display.h ****             {
 4742              		.loc 5 203 23 view .LVU1262
 4743 0218 CAF10009 		rsb	r9, r10, #0
 4744              	.LBE1343:
 4745              	.LBE1351:
 4746              		.loc 2 517 20 view .LVU1263
 4747 021c 059A     		ldr	r2, [sp, #20]
 4748              	.LBB1352:
 4749              	.LBB1344:
 203:../../libdaisy/src/hid/disp/display.h ****             {
 4750              		.loc 5 203 23 view .LVU1264
 4751 021e 4FF00A0C 		mov	ip, #10
 4752              	.L311:
 4753              	.LVL296:
 4754              	.LBB1333:
 4755              	.LBI1333:
  41:../../libdaisy/src/hid/disp/oled_display.h ****     {
 4756              		.loc 1 41 10 is_stmt 1 view .LVU1265
 4757              	.LBB1334:
 4758              	.LBI1334:
 239:../../libdaisy/src/dev/oled_ssd130x.h ****     {
 4759              		.loc 6 239 10 view .LVU1266
 4760              	.LBB1335:
 244:../../libdaisy/src/dev/oled_ssd130x.h ****         else
 4761              		.loc 6 244 48 is_stmt 0 view .LVU1267
 4762 0222 4FF0010B 		mov	fp, #1
 244:../../libdaisy/src/dev/oled_ssd130x.h ****         else
 4763              		.loc 6 244 28 view .LVU1268
 4764 0226 D308     		lsrs	r3, r2, #3
 244:../../libdaisy/src/dev/oled_ssd130x.h ****         else
 4765              		.loc 6 244 54 view .LVU1269
 4766 0228 02F00700 		and	r0, r2, #7
 241:../../libdaisy/src/dev/oled_ssd130x.h ****             return;
ARM GAS  C:\Users\VINCIU~1\AppData\Local\Temp\ccdhDWPe.s 			page 127


 4767              		.loc 6 241 9 view .LVU1270
 4768 022c BCF17F0F 		cmp	ip, #127
 244:../../libdaisy/src/dev/oled_ssd130x.h ****         else
 4769              		.loc 6 244 42 view .LVU1271
 4770 0230 0CEBC313 		add	r3, ip, r3, lsl #7
 4771              	.LBE1335:
 4772              	.LBE1334:
 4773              	.LBE1333:
 202:../../libdaisy/src/hid/disp/display.h ****             if(error2 > -deltaY)
 4774              		.loc 5 202 20 view .LVU1272
 4775 0234 01FA0BFE 		lsl	lr, r1, fp
 4776              	.LVL297:
 4777              	.LBB1338:
 4778              	.LBB1337:
 4779              	.LBB1336:
 244:../../libdaisy/src/dev/oled_ssd130x.h ****         else
 4780              		.loc 6 244 48 view .LVU1273
 4781 0238 0BFA00F0 		lsl	r0, fp, r0
 241:../../libdaisy/src/dev/oled_ssd130x.h ****             return;
 4782              		.loc 6 241 9 view .LVU1274
 4783 023c 07D8     		bhi	.L312
 4784 023e 3F2A     		cmp	r2, #63
 244:../../libdaisy/src/dev/oled_ssd130x.h ****         else
 4785              		.loc 6 244 42 view .LVU1275
 4786 0240 2344     		add	r3, r3, r4
 241:../../libdaisy/src/dev/oled_ssd130x.h ****             return;
 4787              		.loc 6 241 9 view .LVU1276
 4788 0242 04D8     		bhi	.L312
 244:../../libdaisy/src/dev/oled_ssd130x.h ****         else
 4789              		.loc 6 244 42 view .LVU1277
 4790 0244 93F814B0 		ldrb	fp, [r3, #20]	@ zero_extendqisi2
 4791 0248 40EA0B00 		orr	r0, r0, fp
 4792 024c 1875     		strb	r0, [r3, #20]
 4793              	.L312:
 244:../../libdaisy/src/dev/oled_ssd130x.h ****         else
 4794              		.loc 6 244 42 view .LVU1278
 4795              	.LBE1336:
 4796              	.LBE1337:
 4797              	.LBE1338:
 203:../../libdaisy/src/hid/disp/display.h ****             {
 4798              		.loc 5 203 13 view .LVU1279
 4799 024e B9EB410F 		cmp	r9, r1, lsl #1
 4800 0252 03DA     		bge	.L313
 206:../../libdaisy/src/hid/disp/display.h ****             }
 4801              		.loc 5 206 20 view .LVU1280
 4802 0254 079B     		ldr	r3, [sp, #28]
 205:../../libdaisy/src/hid/disp/display.h ****                 x1 += signX;
 4803              		.loc 5 205 23 view .LVU1281
 4804 0256 A1EB0A01 		sub	r1, r1, r10
 4805              	.LVL298:
 206:../../libdaisy/src/hid/disp/display.h ****             }
 4806              		.loc 5 206 20 view .LVU1282
 4807 025a 9C44     		add	ip, ip, r3
 4808              	.LVL299:
 4809              	.L313:
 209:../../libdaisy/src/hid/disp/display.h ****             {
 4810              		.loc 5 209 13 view .LVU1283
ARM GAS  C:\Users\VINCIU~1\AppData\Local\Temp\ccdhDWPe.s 			page 128


 4811 025c 7745     		cmp	r7, lr
 4812 025e 02DD     		ble	.L314
 212:../../libdaisy/src/hid/disp/display.h ****             }
 4813              		.loc 5 212 20 view .LVU1284
 4814 0260 069B     		ldr	r3, [sp, #24]
 211:../../libdaisy/src/hid/disp/display.h ****                 y1 += signY;
 4815              		.loc 5 211 23 view .LVU1285
 4816 0262 3944     		add	r1, r1, r7
 4817              	.LVL300:
 212:../../libdaisy/src/hid/disp/display.h ****             }
 4818              		.loc 5 212 20 view .LVU1286
 4819 0264 1A44     		add	r2, r2, r3
 4820              	.LVL301:
 4821              	.L314:
 199:../../libdaisy/src/hid/disp/display.h ****         {
 4822              		.loc 5 199 26 is_stmt 1 view .LVU1287
 4823 0266 E045     		cmp	r8, ip
 4824 0268 DBD1     		bne	.L311
 199:../../libdaisy/src/hid/disp/display.h ****         {
 4825              		.loc 5 199 26 is_stmt 0 view .LVU1288
 4826 026a 202A     		cmp	r2, #32
 4827 026c D9D1     		bne	.L311
 4828              	.LVL302:
 4829              	.L308:
 199:../../libdaisy/src/hid/disp/display.h ****         {
 4830              		.loc 5 199 26 view .LVU1289
 4831              	.LBE1344:
 4832              	.LBE1352:
 518:Menus.cpp     ****                     circleGlidePosition,
 519:Menus.cpp     ****                     circleGlideTimePosition,
 520:Menus.cpp     ****                     screen.Height() / 2,
 521:Menus.cpp     ****                     true);
 522:Menus.cpp     ****     screen.DrawCircle(margin, circleGlidePosition, 3, true);
 4833              		.loc 2 522 5 is_stmt 1 view .LVU1290
 4834              	.LBB1353:
 4835              	.LBI1353:
 100:../../libdaisy/src/hid/disp/display.h ****     {
 4836              		.loc 5 100 5 view .LVU1291
 4837              	.LBB1354:
 102:../../libdaisy/src/hid/disp/display.h ****     };
 4838              		.loc 5 102 9 view .LVU1292
 102:../../libdaisy/src/hid/disp/display.h ****     };
 4839              		.loc 5 102 41 is_stmt 0 view .LVU1293
 4840 026e 2368     		ldr	r3, [r4]
 102:../../libdaisy/src/hid/disp/display.h ****     };
 4841              		.loc 5 102 16 view .LVU1294
 4842 0270 4FF00109 		mov	r9, #1
 4843 0274 0027     		movs	r7, #0
 4844 0276 4FF4B478 		mov	r8, #360
 4845 027a 2046     		mov	r0, r4
 4846 027c 059A     		ldr	r2, [sp, #20]
 4847 027e 0097     		str	r7, [sp]
 4848 0280 0A21     		movs	r1, #10
 4849 0282 CDE90189 		strd	r8, r9, [sp, #4]
 4850 0286 D3F820A0 		ldr	r10, [r3, #32]
 4851 028a 0323     		movs	r3, #3
 4852 028c D047     		blx	r10
ARM GAS  C:\Users\VINCIU~1\AppData\Local\Temp\ccdhDWPe.s 			page 129


 4853              	.LVL303:
 102:../../libdaisy/src/hid/disp/display.h ****     };
 4854              		.loc 5 102 16 view .LVU1295
 4855              	.LBE1354:
 4856              	.LBE1353:
 523:Menus.cpp     ****     screen.DrawCircle(circleGlideTimePosition, screen.Height() / 2, 3, true);
 4857              		.loc 2 523 5 is_stmt 1 view .LVU1296
 4858              	.LBB1355:
 4859              	.LBI1355:
 100:../../libdaisy/src/hid/disp/display.h ****     {
 4860              		.loc 5 100 5 view .LVU1297
 4861              	.LBB1356:
 102:../../libdaisy/src/hid/disp/display.h ****     };
 4862              		.loc 5 102 9 view .LVU1298
 4863              	.LBE1356:
 4864              	.LBE1355:
 4865              		.loc 2 523 22 is_stmt 0 view .LVU1299
 4866 028e D6ED237A 		vldr.32	s15, [r6, #140]
 4867              	.LBB1359:
 4868              	.LBB1357:
 102:../../libdaisy/src/hid/disp/display.h ****     };
 4869              		.loc 5 102 16 view .LVU1300
 4870 0292 0097     		str	r7, [sp]
 4871              	.LVL304:
 102:../../libdaisy/src/hid/disp/display.h ****     };
 4872              		.loc 5 102 16 view .LVU1301
 4873 0294 2046     		mov	r0, r4
 4874 0296 FCEEE77A 		vcvt.u32.f32	s15, s15
 4875              	.LVL305:
 102:../../libdaisy/src/hid/disp/display.h ****     };
 4876              		.loc 5 102 16 view .LVU1302
 4877 029a 0323     		movs	r3, #3
 4878 029c 2022     		movs	r2, #32
 4879              	.LBE1357:
 4880              	.LBE1359:
 4881              	.LBB1360:
 4882              	.LBB1361:
 4883              	.LBB1362:
 4884              	.LBB1363:
 4885              	.LBB1364:
 111:../../libdaisy/src/dev/oled_ssd130x.h ****         spi_.BlockingTransmit(&cmd, 1);
 4886              		.loc 6 111 24 view .LVU1303
 4887 029e 05F10807 		add	r7, r5, #8
 4888              	.LBE1364:
 4889              	.LBE1363:
 4890              	.LBE1362:
 4891              	.LBE1361:
 4892              	.LBE1360:
 4893              	.LBB1384:
 4894              	.LBB1358:
 102:../../libdaisy/src/hid/disp/display.h ****     };
 4895              		.loc 5 102 16 view .LVU1304
 4896 02a2 CDE90189 		strd	r8, r9, [sp, #4]
 102:../../libdaisy/src/hid/disp/display.h ****     };
 4897              		.loc 5 102 41 view .LVU1305
 4898 02a6 2668     		ldr	r6, [r4]
 4899              	.LVL306:
ARM GAS  C:\Users\VINCIU~1\AppData\Local\Temp\ccdhDWPe.s 			page 130


 102:../../libdaisy/src/hid/disp/display.h ****     };
 4900              		.loc 5 102 16 view .LVU1306
 4901 02a8 17EE901A 		vmov	r1, s15	@ int
 4902 02ac 05F20C49 		addw	r9, r5, #1036
 4903 02b0 346A     		ldr	r4, [r6, #32]
 4904              	.LVL307:
 102:../../libdaisy/src/hid/disp/display.h ****     };
 4905              		.loc 5 102 16 view .LVU1307
 4906 02b2 05F10C06 		add	r6, r5, #12
 4907 02b6 A047     		blx	r4
 4908              	.LVL308:
 102:../../libdaisy/src/hid/disp/display.h ****     };
 4909              		.loc 5 102 16 view .LVU1308
 4910              	.LBE1358:
 4911              	.LBE1384:
 524:Menus.cpp     **** 
 525:Menus.cpp     **** 
 526:Menus.cpp     ****     screen.Update();
 4912              		.loc 2 526 5 is_stmt 1 view .LVU1309
 4913              	.LBB1385:
 4914              	.LBI1360:
  44:../../libdaisy/src/hid/disp/oled_display.h ****     }
  45:../../libdaisy/src/hid/disp/oled_display.h **** 
  46:../../libdaisy/src/hid/disp/oled_display.h ****     /** 
  47:../../libdaisy/src/hid/disp/oled_display.h ****     Writes the current display buffer to the OLED device using SPI or I2C depending on 
  48:../../libdaisy/src/hid/disp/oled_display.h ****     how the object was initialized.
  49:../../libdaisy/src/hid/disp/oled_display.h ****     */
  50:../../libdaisy/src/hid/disp/oled_display.h ****     void Update() override { driver_.Update(); }
 4915              		.loc 1 50 10 view .LVU1310
 4916              	.LBB1383:
 4917              	.LBI1361:
 260:../../libdaisy/src/dev/oled_ssd130x.h ****     {
 4918              		.loc 6 260 10 view .LVU1311
 4919              	.LBB1382:
 4920              		.loc 6 270 22 view .LVU1312
 4921              	.LBB1369:
 4922              	.LBB1365:
 111:../../libdaisy/src/dev/oled_ssd130x.h ****         spi_.BlockingTransmit(&cmd, 1);
 4923              		.loc 6 111 24 is_stmt 0 view .LVU1313
 4924 02b8 B024     		movs	r4, #176
 4925              	.LVL309:
 4926              	.L315:
 111:../../libdaisy/src/dev/oled_ssd130x.h ****         spi_.BlockingTransmit(&cmd, 1);
 4927              		.loc 6 111 24 view .LVU1314
 4928 02ba 4FF00008 		mov	r8, #0
 111:../../libdaisy/src/dev/oled_ssd130x.h ****         spi_.BlockingTransmit(&cmd, 1);
 4929              		.loc 6 111 23 view .LVU1315
 4930 02be 3846     		mov	r0, r7
 4931 02c0 8DF82740 		strb	r4, [sp, #39]
 4932              	.LVL310:
 111:../../libdaisy/src/dev/oled_ssd130x.h ****         spi_.BlockingTransmit(&cmd, 1);
 4933              		.loc 6 111 23 view .LVU1316
 4934              	.LBE1365:
 4935              	.LBI1363:
 109:../../libdaisy/src/dev/oled_ssd130x.h ****     {
 4936              		.loc 6 109 10 is_stmt 1 view .LVU1317
 4937              	.LBB1366:
ARM GAS  C:\Users\VINCIU~1\AppData\Local\Temp\ccdhDWPe.s 			page 131


 111:../../libdaisy/src/dev/oled_ssd130x.h ****         spi_.BlockingTransmit(&cmd, 1);
 4938              		.loc 6 111 9 view .LVU1318
 4939              	.LBE1366:
 4940              	.LBE1369:
 4941              		.loc 6 270 22 is_stmt 0 view .LVU1319
 4942 02c4 0134     		adds	r4, r4, #1
 4943              	.LVL311:
 4944              	.LBB1370:
 4945              	.LBB1367:
 111:../../libdaisy/src/dev/oled_ssd130x.h ****         spi_.BlockingTransmit(&cmd, 1);
 4946              		.loc 6 111 23 view .LVU1320
 4947 02c6 4146     		mov	r1, r8
 4948 02c8 FFF7FEFF 		bl	dsy_gpio_write
 4949              	.LVL312:
 112:../../libdaisy/src/dev/oled_ssd130x.h ****     };
 4950              		.loc 6 112 9 is_stmt 1 view .LVU1321
 112:../../libdaisy/src/dev/oled_ssd130x.h ****     };
 4951              		.loc 6 112 30 is_stmt 0 view .LVU1322
 4952 02cc 6423     		movs	r3, #100
 4953 02ce 0122     		movs	r2, #1
 4954 02d0 0DF12701 		add	r1, sp, #39
 4955 02d4 2846     		mov	r0, r5
 4956              	.LBE1367:
 4957              	.LBE1370:
 4958              		.loc 6 270 22 view .LVU1323
 4959 02d6 E4B2     		uxtb	r4, r4
 4960              	.LBB1371:
 4961              	.LBB1368:
 112:../../libdaisy/src/dev/oled_ssd130x.h ****     };
 4962              		.loc 6 112 30 view .LVU1324
 4963 02d8 FFF7FEFF 		bl	_ZN5daisy9SpiHandle16BlockingTransmitEPhjm
 4964              	.LVL313:
 112:../../libdaisy/src/dev/oled_ssd130x.h ****     };
 4965              		.loc 6 112 30 view .LVU1325
 4966              	.LBE1368:
 4967              	.LBE1371:
 4968              	.LBB1372:
 4969              	.LBB1373:
 111:../../libdaisy/src/dev/oled_ssd130x.h ****         spi_.BlockingTransmit(&cmd, 1);
 4970              		.loc 6 111 23 view .LVU1326
 4971 02dc 4146     		mov	r1, r8
 4972 02de 3846     		mov	r0, r7
 4973 02e0 8DF82780 		strb	r8, [sp, #39]
 4974              	.LVL314:
 111:../../libdaisy/src/dev/oled_ssd130x.h ****         spi_.BlockingTransmit(&cmd, 1);
 4975              		.loc 6 111 23 view .LVU1327
 4976              	.LBE1373:
 4977              	.LBI1372:
 109:../../libdaisy/src/dev/oled_ssd130x.h ****     {
 4978              		.loc 6 109 10 is_stmt 1 view .LVU1328
 4979              	.LBB1374:
 111:../../libdaisy/src/dev/oled_ssd130x.h ****         spi_.BlockingTransmit(&cmd, 1);
 4980              		.loc 6 111 9 view .LVU1329
 111:../../libdaisy/src/dev/oled_ssd130x.h ****         spi_.BlockingTransmit(&cmd, 1);
 4981              		.loc 6 111 23 is_stmt 0 view .LVU1330
 4982 02e4 FFF7FEFF 		bl	dsy_gpio_write
 4983              	.LVL315:
ARM GAS  C:\Users\VINCIU~1\AppData\Local\Temp\ccdhDWPe.s 			page 132


 112:../../libdaisy/src/dev/oled_ssd130x.h ****     };
 4984              		.loc 6 112 9 is_stmt 1 view .LVU1331
 112:../../libdaisy/src/dev/oled_ssd130x.h ****     };
 4985              		.loc 6 112 30 is_stmt 0 view .LVU1332
 4986 02e8 0122     		movs	r2, #1
 4987 02ea 6423     		movs	r3, #100
 4988 02ec 0DF12701 		add	r1, sp, #39
 4989 02f0 2846     		mov	r0, r5
 4990 02f2 FFF7FEFF 		bl	_ZN5daisy9SpiHandle16BlockingTransmitEPhjm
 4991              	.LVL316:
 112:../../libdaisy/src/dev/oled_ssd130x.h ****     };
 4992              		.loc 6 112 30 view .LVU1333
 4993 02f6 1023     		movs	r3, #16
 4994              	.LBE1374:
 4995              	.LBE1372:
 4996              	.LBB1375:
 4997              	.LBB1376:
 111:../../libdaisy/src/dev/oled_ssd130x.h ****         spi_.BlockingTransmit(&cmd, 1);
 4998              		.loc 6 111 23 view .LVU1334
 4999 02f8 4146     		mov	r1, r8
 5000 02fa 3846     		mov	r0, r7
 5001 02fc 8DF82730 		strb	r3, [sp, #39]
 5002              	.LVL317:
 111:../../libdaisy/src/dev/oled_ssd130x.h ****         spi_.BlockingTransmit(&cmd, 1);
 5003              		.loc 6 111 23 view .LVU1335
 5004              	.LBE1376:
 5005              	.LBI1375:
 109:../../libdaisy/src/dev/oled_ssd130x.h ****     {
 5006              		.loc 6 109 10 is_stmt 1 view .LVU1336
 5007              	.LBB1377:
 111:../../libdaisy/src/dev/oled_ssd130x.h ****         spi_.BlockingTransmit(&cmd, 1);
 5008              		.loc 6 111 9 view .LVU1337
 111:../../libdaisy/src/dev/oled_ssd130x.h ****         spi_.BlockingTransmit(&cmd, 1);
 5009              		.loc 6 111 23 is_stmt 0 view .LVU1338
 5010 0300 FFF7FEFF 		bl	dsy_gpio_write
 5011              	.LVL318:
 112:../../libdaisy/src/dev/oled_ssd130x.h ****     };
 5012              		.loc 6 112 9 is_stmt 1 view .LVU1339
 112:../../libdaisy/src/dev/oled_ssd130x.h ****     };
 5013              		.loc 6 112 30 is_stmt 0 view .LVU1340
 5014 0304 6423     		movs	r3, #100
 5015 0306 0122     		movs	r2, #1
 5016 0308 0DF12701 		add	r1, sp, #39
 5017 030c 2846     		mov	r0, r5
 5018 030e FFF7FEFF 		bl	_ZN5daisy9SpiHandle16BlockingTransmitEPhjm
 5019              	.LVL319:
 112:../../libdaisy/src/dev/oled_ssd130x.h ****     };
 5020              		.loc 6 112 30 view .LVU1341
 5021              	.LBE1377:
 5022              	.LBE1375:
 5023              	.LBB1378:
 5024              	.LBI1378:
 115:../../libdaisy/src/dev/oled_ssd130x.h ****     {
 5025              		.loc 6 115 10 is_stmt 1 view .LVU1342
 5026              	.LBB1379:
 117:../../libdaisy/src/dev/oled_ssd130x.h ****         spi_.BlockingTransmit(buff, size);
 5027              		.loc 6 117 9 view .LVU1343
ARM GAS  C:\Users\VINCIU~1\AppData\Local\Temp\ccdhDWPe.s 			page 133


 117:../../libdaisy/src/dev/oled_ssd130x.h ****         spi_.BlockingTransmit(buff, size);
 5028              		.loc 6 117 23 is_stmt 0 view .LVU1344
 5029 0312 0121     		movs	r1, #1
 5030 0314 3846     		mov	r0, r7
 5031 0316 FFF7FEFF 		bl	dsy_gpio_write
 5032              	.LVL320:
 118:../../libdaisy/src/dev/oled_ssd130x.h ****     };
 5033              		.loc 6 118 9 is_stmt 1 view .LVU1345
 118:../../libdaisy/src/dev/oled_ssd130x.h ****     };
 5034              		.loc 6 118 30 is_stmt 0 view .LVU1346
 5035 031a 8022     		movs	r2, #128
 5036 031c 3146     		mov	r1, r6
 5037 031e 6423     		movs	r3, #100
 5038              	.LBE1379:
 5039              	.LBE1378:
 5040              		.loc 6 270 22 view .LVU1347
 5041 0320 1644     		add	r6, r6, r2
 5042              	.LVL321:
 5043              	.LBB1381:
 5044              	.LBB1380:
 118:../../libdaisy/src/dev/oled_ssd130x.h ****     };
 5045              		.loc 6 118 30 view .LVU1348
 5046 0322 2846     		mov	r0, r5
 5047 0324 FFF7FEFF 		bl	_ZN5daisy9SpiHandle16BlockingTransmitEPhjm
 5048              	.LVL322:
 118:../../libdaisy/src/dev/oled_ssd130x.h ****     };
 5049              		.loc 6 118 30 view .LVU1349
 5050              	.LBE1380:
 5051              	.LBE1381:
 5052              		.loc 6 270 9 is_stmt 1 view .LVU1350
 5053              		.loc 6 270 22 view .LVU1351
 5054 0328 4E45     		cmp	r6, r9
 5055 032a C6D1     		bne	.L315
 5056              	.LBE1382:
 5057              	.LBE1383:
 5058              	.LBE1385:
 527:Menus.cpp     **** }
 5059              		.loc 2 527 1 is_stmt 0 view .LVU1352
 5060 032c 0BB0     		add	sp, sp, #44
 5061              		.cfi_remember_state
 5062              		.cfi_def_cfa_offset 36
 5063              		@ sp needed
 5064 032e BDE8F08F 		pop	{r4, r5, r6, r7, r8, r9, r10, fp, pc}
 5065              	.LVL323:
 5066              	.L305:
 5067              		.cfi_restore_state
 5068              	.LBB1386:
 5069              	.LBB1345:
 190:../../libdaisy/src/hid/disp/display.h ****         int_fast16_t error  = deltaX - deltaY;
 5070              		.loc 5 190 42 view .LVU1353
 5071 0332 059B     		ldr	r3, [sp, #20]
 5072              	.LVL324:
 190:../../libdaisy/src/hid/disp/display.h ****         int_fast16_t error  = deltaX - deltaY;
 5073              		.loc 5 190 42 view .LVU1354
 5074 0334 1F2B     		cmp	r3, #31
 5075 0336 3FF658AF 		bhi	.L354
 5076              	.LVL325:
ARM GAS  C:\Users\VINCIU~1\AppData\Local\Temp\ccdhDWPe.s 			page 134


 189:../../libdaisy/src/hid/disp/display.h ****         int_fast16_t signY  = ((y1 < y2) ? 1 : -1);
 5077              		.loc 5 189 42 view .LVU1355
 5078 033a 4FF0FF33 		mov	r3, #-1
 191:../../libdaisy/src/hid/disp/display.h ****         int_fast16_t error2;
 5079              		.loc 5 191 22 view .LVU1356
 5080 033e A7EB0A01 		sub	r1, r7, r10
 5081              	.LVL326:
 5082              	.LBB1339:
  41:../../libdaisy/src/hid/disp/oled_display.h ****     {
 5083              		.loc 1 41 10 is_stmt 1 view .LVU1357
 5084              	.LBB1326:
  43:../../libdaisy/src/hid/disp/oled_display.h ****     }
 5085              		.loc 1 43 26 is_stmt 0 view .LVU1358
 5086 0342 04F10805 		add	r5, r4, #8
 5087              	.LVL327:
 5088              	.LBB1319:
 239:../../libdaisy/src/dev/oled_ssd130x.h ****     {
 5089              		.loc 6 239 10 is_stmt 1 view .LVU1359
 5090              	.LBE1319:
 5091              	.LBE1326:
 5092              	.LBE1339:
 190:../../libdaisy/src/hid/disp/display.h ****         int_fast16_t error  = deltaX - deltaY;
 5093              		.loc 5 190 42 is_stmt 0 view .LVU1360
 5094 0346 CDF81890 		str	r9, [sp, #24]
 189:../../libdaisy/src/hid/disp/display.h ****         int_fast16_t signY  = ((y1 < y2) ? 1 : -1);
 5095              		.loc 5 189 42 view .LVU1361
 5096 034a 0793     		str	r3, [sp, #28]
 5097 034c 57E7     		b	.L316
 5098              	.LVL328:
 5099              	.L351:
 189:../../libdaisy/src/hid/disp/display.h ****         int_fast16_t signY  = ((y1 < y2) ? 1 : -1);
 5100              		.loc 5 189 42 view .LVU1362
 5101              	.LBE1345:
 5102              	.LBE1386:
 442:Menus.cpp     ****         if(this->menuStateGlide < 0)
 5103              		.loc 2 442 9 is_stmt 1 view .LVU1363
 443:Menus.cpp     ****         {
 5104              		.loc 2 443 9 view .LVU1364
 5105 034e 013B     		subs	r3, r3, #1
 5106 0350 16D4     		bmi	.L285
 442:Menus.cpp     ****         if(this->menuStateGlide < 0)
 5107              		.loc 2 442 30 is_stmt 0 view .LVU1365
 5108 0352 3367     		str	r3, [r6, #112]
 5109 0354 7EE6     		b	.L286
 5110              	.LVL329:
 5111              	.L306:
 5112              	.LBB1387:
 5113              	.LBB1346:
 5114              	.LBB1340:
 5115              	.LBB1327:
 5116              	.LBB1320:
 239:../../libdaisy/src/dev/oled_ssd130x.h ****     {
 5117              		.loc 6 239 10 is_stmt 1 view .LVU1366
 5118              	.LBB1314:
 241:../../libdaisy/src/dev/oled_ssd130x.h ****             return;
 5119              		.loc 6 241 9 is_stmt 0 view .LVU1367
 5120 0356 B8F17F0F 		cmp	r8, #127
ARM GAS  C:\Users\VINCIU~1\AppData\Local\Temp\ccdhDWPe.s 			page 135


 5121              	.LBE1314:
 5122              	.LBE1320:
 5123              	.LBE1327:
 5124              	.LBE1340:
 190:../../libdaisy/src/hid/disp/display.h ****         int_fast16_t error  = deltaX - deltaY;
 5125              		.loc 5 190 42 view .LVU1368
 5126 035a CDE90699 		strd	r9, r9, [sp, #24]
 5127              	.LBB1341:
 5128              	.LBB1328:
 5129              	.LBB1321:
 5130              	.LBB1315:
 241:../../libdaisy/src/dev/oled_ssd130x.h ****             return;
 5131              		.loc 6 241 9 view .LVU1369
 5132 035e 3FF65BAF 		bhi	.L307
 5133 0362 4CE7     		b	.L316
 5134              	.L356:
 5135              		.align	2
 5136              	.L355:
 5137 0364 06000400 		.word	262150
 5138 0368 00000000 		.word	Font_6x8
 5139 036c 49000400 		.word	262217
 5140 0370 00003C42 		.word	1111228416
 5141 0374 00000000 		.word	.LC5
 5142 0378 00000000 		.word	0
 5143 037c 0000C842 		.word	1120403456
 5144              	.LVL330:
 5145              	.L285:
 241:../../libdaisy/src/dev/oled_ssd130x.h ****             return;
 5146              		.loc 6 241 9 view .LVU1370
 5147              	.LBE1315:
 5148              	.LBE1321:
 5149              	.LBE1328:
 5150              	.LBE1341:
 5151              	.LBE1346:
 5152              	.LBE1387:
 445:Menus.cpp     ****         }
 5153              		.loc 2 445 13 is_stmt 1 view .LVU1371
 448:Menus.cpp     **** 
 5154              		.loc 2 448 5 is_stmt 0 view .LVU1372
 5155 0380 96F86130 		ldrb	r3, [r6, #97]	@ zero_extendqisi2
 445:Menus.cpp     ****         }
 5156              		.loc 2 445 34 view .LVU1373
 5157 0384 0122     		movs	r2, #1
 448:Menus.cpp     **** 
 5158              		.loc 2 448 5 view .LVU1374
 5159 0386 7F2B     		cmp	r3, #127
 445:Menus.cpp     ****         }
 5160              		.loc 2 445 34 view .LVU1375
 5161 0388 3267     		str	r2, [r6, #112]
 448:Menus.cpp     **** 
 5162              		.loc 2 448 5 is_stmt 1 view .LVU1376
 5163              	.LVL331:
 5164              	.LBB1388:
 5165              		.loc 4 69 17 view .LVU1377
 5166              	.LBB1232:
 5167              		.loc 4 69 38 view .LVU1378
 5168              		.loc 4 69 38 is_stmt 0 view .LVU1379
ARM GAS  C:\Users\VINCIU~1\AppData\Local\Temp\ccdhDWPe.s 			page 136


 5169              	.LBE1232:
 5170              	.LBE1388:
 448:Menus.cpp     **** 
 5171              		.loc 2 448 5 view .LVU1380
 5172 038a 3FF4BAAE 		beq	.L290
 5173              	.L287:
 5174              	.LBB1389:
 482:Menus.cpp     ****         {
 5175              		.loc 2 482 9 is_stmt 1 view .LVU1381
 482:Menus.cpp     ****         {
 5176              		.loc 2 482 18 is_stmt 0 view .LVU1382
 5177 038e D6ED257A 		vldr.32	s15, [r6, #148]
 482:Menus.cpp     ****         {
 5178              		.loc 2 482 9 view .LVU1383
 5179 0392 1FED067A 		vldr.32	s14, .L355+24
 5180 0396 F4EEC77A 		vcmpe.f32	s15, s14
 5181 039a F1EE10FA 		vmrs	APSR_nzcv, FPSCR
 5182 039e 47DA     		bge	.L323
 486:Menus.cpp     ****         {
 5183              		.loc 2 486 9 is_stmt 1 view .LVU1384
 5184 03a0 F5EEC07A 		vcmpe.f32	s15, #0
 5185 03a4 F1EE10FA 		vmrs	APSR_nzcv, FPSCR
 5186 03a8 01D8     		bhi	.L299
 5187 03aa 5FED0D7A 		vldr.32	s15, .L355+20
 5188              	.L299:
 490:Menus.cpp     ****         {
 5189              		.loc 2 490 9 view .LVU1385
 490:Menus.cpp     ****         {
 5190              		.loc 2 490 12 is_stmt 0 view .LVU1386
 5191 03ae 96ED227A 		vldr.32	s14, [r6, #136]
 490:Menus.cpp     ****         {
 5192              		.loc 2 490 9 view .LVU1387
 5193 03b2 5FED0E6A 		vldr.32	s13, .L355+24
 5194 03b6 B4EEE67A 		vcmpe.f32	s14, s13
 5195 03ba F1EE10FA 		vmrs	APSR_nzcv, FPSCR
 5196 03be 3DDB     		blt	.L345
 492:Menus.cpp     ****         }
 5197              		.loc 2 492 13 is_stmt 1 view .LVU1388
 492:Menus.cpp     ****         }
 5198              		.loc 2 492 33 is_stmt 0 view .LVU1389
 5199 03c0 C6ED226A 		vstr.32	s13, [r6, #136]
 494:Menus.cpp     ****         {
 5200              		.loc 2 494 9 is_stmt 1 view .LVU1390
 5201              	.L302:
 498:Menus.cpp     ****         {
 5202              		.loc 2 498 9 view .LVU1391
 498:Menus.cpp     ****         {
 5203              		.loc 2 498 12 is_stmt 0 view .LVU1392
 5204 03c4 D6ED236A 		vldr.32	s13, [r6, #140]
 498:Menus.cpp     ****         {
 5205              		.loc 2 498 9 view .LVU1393
 5206 03c8 1FED147A 		vldr.32	s14, .L355+24
 5207 03cc F4EEC76A 		vcmpe.f32	s13, s14
 5208 03d0 F1EE10FA 		vmrs	APSR_nzcv, FPSCR
 5209 03d4 2FDA     		bge	.L325
 502:Menus.cpp     ****         {
 5210              		.loc 2 502 9 is_stmt 1 view .LVU1394
ARM GAS  C:\Users\VINCIU~1\AppData\Local\Temp\ccdhDWPe.s 			page 137


 5211 03d6 B2EE047A 		vmov.f32	s14, #1.0e+1
 5212 03da F4EE476A 		vcmp.f32	s13, s14
 5213 03de F1EE10FA 		vmrs	APSR_nzcv, FPSCR
 5214 03e2 98BF     		it	ls
 5215 03e4 F0EE476A 		vmovls.f32	s13, s14
 5216              	.L304:
 506:Menus.cpp     ****         ;
 5217              		.loc 2 506 9 view .LVU1395
 5218              	.LVL332:
 5219              	.LBB1292:
 5220              	.LBI1292:
  41:../../libdaisy/src/hid/encoder.h ****     /** Returns true if the encoder was just pressed.
 5221              		.loc 3 41 20 view .LVU1396
 5222              	.LBB1293:
  41:../../libdaisy/src/hid/encoder.h ****     /** Returns true if the encoder was just pressed.
 5223              		.loc 3 41 40 view .LVU1397
  41:../../libdaisy/src/hid/encoder.h ****     /** Returns true if the encoder was just pressed.
 5224              		.loc 3 41 40 is_stmt 0 view .LVU1398
 5225              	.LBE1293:
 5226              	.LBE1292:
 506:Menus.cpp     ****         ;
 5227              		.loc 2 506 33 view .LVU1399
 5228 03e8 96ED127A 		vldr.32	s14, [r6, #72]	@ int
 509:Menus.cpp     ****         screen.DrawRect(67, 0, screen.Width() - 2, 13, true, false);
 5229              		.loc 2 509 23 view .LVU1400
 5230 03ec 06F58E77 		add	r7, r6, #284
 509:Menus.cpp     ****         screen.DrawRect(67, 0, screen.Width() - 2, 13, true, false);
 5231              		.loc 2 509 16 view .LVU1401
 5232 03f0 2349     		ldr	r1, .L357+16
 5233              	.LBB1294:
 473:Menus.cpp     **** 
 5234              		.loc 2 473 23 view .LVU1402
 5235 03f2 06F58275 		add	r5, r6, #260
 5236              	.LBE1294:
 506:Menus.cpp     ****         ;
 5237              		.loc 2 506 33 view .LVU1403
 5238 03f6 B8EEC77A 		vcvt.f32.s32	s14, s14
 509:Menus.cpp     ****         screen.DrawRect(67, 0, screen.Width() - 2, 13, true, false);
 5239              		.loc 2 509 16 view .LVU1404
 5240 03fa 3846     		mov	r0, r7
 508:Menus.cpp     ****         sprintf(this->buffPitchTime, "Time_%d%%", (int)this->glideTime);
 5241              		.loc 2 508 25 view .LVU1405
 5242 03fc 77EE277A 		vadd.f32	s15, s14, s15
 506:Menus.cpp     ****         ;
 5243              		.loc 2 506 33 view .LVU1406
 5244 0400 37EE267A 		vadd.f32	s14, s14, s13
 509:Menus.cpp     ****         screen.DrawRect(67, 0, screen.Width() - 2, 13, true, false);
 5245              		.loc 2 509 16 view .LVU1407
 5246 0404 FDEEE76A 		vcvt.s32.f32	s13, s15
 508:Menus.cpp     ****         sprintf(this->buffPitchTime, "Time_%d%%", (int)this->glideTime);
 5247              		.loc 2 508 25 view .LVU1408
 5248 0408 C6ED257A 		vstr.32	s15, [r6, #148]
 506:Menus.cpp     ****         ;
 5249              		.loc 2 506 33 view .LVU1409
 5250 040c 86ED237A 		vstr.32	s14, [r6, #140]
 507:Menus.cpp     ****         this->glideTime += this->encoderRight.Increment();
 5251              		.loc 2 507 9 is_stmt 1 view .LVU1410
ARM GAS  C:\Users\VINCIU~1\AppData\Local\Temp\ccdhDWPe.s 			page 138


 508:Menus.cpp     ****         sprintf(this->buffPitchTime, "Time_%d%%", (int)this->glideTime);
 5252              		.loc 2 508 9 view .LVU1411
 5253              	.LVL333:
 508:Menus.cpp     ****         sprintf(this->buffPitchTime, "Time_%d%%", (int)this->glideTime);
 5254              		.loc 2 508 9 is_stmt 0 view .LVU1412
 5255              	.LBE1389:
  41:../../libdaisy/src/hid/encoder.h ****     /** Returns true if the encoder was just pressed.
 5256              		.loc 3 41 40 is_stmt 1 view .LVU1413
 5257              	.LBB1390:
 509:Menus.cpp     ****         screen.DrawRect(67, 0, screen.Width() - 2, 13, true, false);
 5258              		.loc 2 509 9 view .LVU1414
 509:Menus.cpp     ****         screen.DrawRect(67, 0, screen.Width() - 2, 13, true, false);
 5259              		.loc 2 509 16 is_stmt 0 view .LVU1415
 5260 0410 16EE902A 		vmov	r2, s13	@ int
 5261 0414 FFF7FEFF 		bl	sprintf
 5262              	.LVL334:
 510:Menus.cpp     ****     }
 5263              		.loc 2 510 9 is_stmt 1 view .LVU1416
 510:Menus.cpp     ****     }
 5264              		.loc 2 510 24 is_stmt 0 view .LVU1417
 5265 0418 0123     		movs	r3, #1
 5266 041a 0022     		movs	r2, #0
 5267 041c 4321     		movs	r1, #67
 5268 041e 2046     		mov	r0, r4
 5269 0420 CDE90132 		strd	r3, r2, [sp, #4]
 5270 0424 0D23     		movs	r3, #13
 5271 0426 0093     		str	r3, [sp]
 5272 0428 7E23     		movs	r3, #126
 5273 042a FFF7FEFF 		bl	_ZN5daisy25OneBitGraphicsDisplayImplINS_11OledDisplayINS_13SSD130xDriverILj128ELj64ENS_24SSD130
 5274              	.LVL335:
 5275 042e 1EE6     		b	.L297
 5276              	.L323:
 510:Menus.cpp     ****     }
 5277              		.loc 2 510 24 view .LVU1418
 5278 0430 F0EE477A 		vmov.f32	s15, s14
 5279 0434 BBE7     		b	.L299
 5280              	.L325:
 510:Menus.cpp     ****     }
 5281              		.loc 2 510 24 view .LVU1419
 5282 0436 F0EE476A 		vmov.f32	s13, s14
 5283 043a D5E7     		b	.L304
 5284              	.L345:
 494:Menus.cpp     ****         {
 5285              		.loc 2 494 9 is_stmt 1 view .LVU1420
 5286 043c B5EEC07A 		vcmpe.f32	s14, #0
 5287 0440 0023     		movs	r3, #0
 5288 0442 F1EE10FA 		vmrs	APSR_nzcv, FPSCR
 496:Menus.cpp     ****         }
 5289              		.loc 2 496 13 view .LVU1421
 496:Menus.cpp     ****         }
 5290              		.loc 2 496 33 is_stmt 0 view .LVU1422
 5291 0446 98BF     		it	ls
 5292 0448 C6F88830 		strls	r3, [r6, #136]	@ float
 5293 044c BAE7     		b	.L302
 5294              	.L353:
 5295              	.LBB1295:
 469:Menus.cpp     ****         this->glideInit += this->encoderRight.Increment();
ARM GAS  C:\Users\VINCIU~1\AppData\Local\Temp\ccdhDWPe.s 			page 139


 5296              		.loc 2 469 58 view .LVU1423
 5297 044e 03F1D402 		add	r2, r3, #212
 469:Menus.cpp     ****         this->glideInit += this->encoderRight.Increment();
 5298              		.loc 2 469 65 view .LVU1424
 5299 0452 06EE902A 		vmov	s13, r2	@ int
 469:Menus.cpp     ****         this->glideInit += this->encoderRight.Increment();
 5300              		.loc 2 469 38 view .LVU1425
 5301 0456 9FED065B 		vldr.64	d5, .L357
 5302 045a 9FED077B 		vldr.64	d7, .L357+8
 469:Menus.cpp     ****         this->glideInit += this->encoderRight.Increment();
 5303              		.loc 2 469 65 view .LVU1426
 5304 045e B8EEE66B 		vcvt.f64.s32	d6, s13
 469:Menus.cpp     ****         this->glideInit += this->encoderRight.Increment();
 5305              		.loc 2 469 38 view .LVU1427
 5306 0462 A6EE457B 		vfms.f64	d7, d6, d5
 469:Menus.cpp     ****         this->glideInit += this->encoderRight.Increment();
 5307              		.loc 2 469 20 view .LVU1428
 5308 0466 FDEEC77B 		vcvt.s32.f64	s15, d7
 471:Menus.cpp     **** 
 5309              		.loc 2 471 29 view .LVU1429
 5310 046a F8EEE77A 		vcvt.f32.s32	s15, s15
 5311 046e 56E6     		b	.L292
 5312              	.L358:
 5313              		.align	3
 5314              	.L357:
 5315 0470 33333333 		.word	858993459
 5316 0474 3333C33F 		.word	1069757235
 5317 0478 00000000 		.word	0
 5318 047c 00005040 		.word	1078984704
 5319 0480 0C000000 		.word	.LC6
 5320              	.LBE1295:
 5321              	.LBE1390:
 5322              		.cfi_endproc
 5323              	.LFE4040:
 5325              		.section	.rodata._ZN5Menus5Menu3E23OledDisplayExtravaganzaPN7daisysp10OscillatorERNS1_4AdsrE.str1.
 5326              		.align	2
 5327              	.LC7:
 5328 0000 4100     		.ascii	"A\000"
 5329 0002 0000     		.align	2
 5330              	.LC8:
 5331 0004 4400     		.ascii	"D\000"
 5332 0006 0000     		.align	2
 5333              	.LC9:
 5334 0008 5300     		.ascii	"S\000"
 5335 000a 0000     		.align	2
 5336              	.LC10:
 5337 000c 5200     		.ascii	"R\000"
 5338              		.section	.text._ZN5Menus5Menu3E23OledDisplayExtravaganzaPN7daisysp10OscillatorERNS1_4AdsrE,"ax",%p
 5339              		.align	1
 5340              		.p2align 2,,3
 5341              		.global	_ZN5Menus5Menu3E23OledDisplayExtravaganzaPN7daisysp10OscillatorERNS1_4AdsrE
 5342              		.syntax unified
 5343              		.thumb
 5344              		.thumb_func
 5345              		.fpu fpv5-d16
 5347              	_ZN5Menus5Menu3E23OledDisplayExtravaganzaPN7daisysp10OscillatorERNS1_4AdsrE:
 5348              	.LVL336:
ARM GAS  C:\Users\VINCIU~1\AppData\Local\Temp\ccdhDWPe.s 			page 140


 5349              	.LFB4041:
 528:Menus.cpp     **** 
 529:Menus.cpp     **** 
 530:Menus.cpp     **** void Menus::Menu3(OledDisplayExtravaganza screen,
 531:Menus.cpp     ****                   daisysp::Oscillator     osc[],
 532:Menus.cpp     ****                   daisysp::Adsr&          env)
 533:Menus.cpp     **** {
 5350              		.loc 2 533 1 is_stmt 1 view -0
 5351              		.cfi_startproc
 5352              		@ args = 0, pretend = 0, frame = 24
 5353              		@ frame_needed = 0, uses_anonymous_args = 0
 5354              		.loc 2 533 1 is_stmt 0 view .LVU1431
 5355 0000 2DE9F04F 		push	{r4, r5, r6, r7, r8, r9, r10, fp, lr}
 5356              		.cfi_def_cfa_offset 36
 5357              		.cfi_offset 4, -36
 5358              		.cfi_offset 5, -32
 5359              		.cfi_offset 6, -28
 5360              		.cfi_offset 7, -24
 5361              		.cfi_offset 8, -20
 5362              		.cfi_offset 9, -16
 5363              		.cfi_offset 10, -12
 5364              		.cfi_offset 11, -8
 5365              		.cfi_offset 14, -4
 5366 0004 0C46     		mov	r4, r1
 5367 0006 0746     		mov	r7, r0
 534:Menus.cpp     ****     screen.Fill(false);
 5368              		.loc 2 534 5 is_stmt 1 view .LVU1432
 5369              	.LVL337:
 5370              	.LBB1664:
 5371              	.LBI1664:
  33:../../libdaisy/src/hid/disp/oled_display.h **** 
 5372              		.loc 1 33 10 view .LVU1433
 5373              	.LBB1665:
 5374              	.LBI1665:
 249:../../libdaisy/src/dev/oled_ssd130x.h ****     {
 5375              		.loc 6 249 10 view .LVU1434
 5376              	.LBB1666:
 251:../../libdaisy/src/dev/oled_ssd130x.h ****         {
 5377              		.loc 6 251 29 view .LVU1435
 5378              	.LBE1666:
 5379              	.LBE1665:
 5380              	.LBE1664:
 533:Menus.cpp     ****     screen.Fill(false);
 5381              		.loc 2 533 1 is_stmt 0 view .LVU1436
 5382 0008 8BB0     		sub	sp, sp, #44
 5383              		.cfi_def_cfa_offset 80
 5384              	.LBB1671:
 5385              	.LBB1669:
 5386              	.LBB1667:
 253:../../libdaisy/src/dev/oled_ssd130x.h ****         }
 5387              		.loc 6 253 24 view .LVU1437
 5388 000a 4FF48062 		mov	r2, #1024
 5389              	.LVL338:
 253:../../libdaisy/src/dev/oled_ssd130x.h ****         }
 5390              		.loc 6 253 24 view .LVU1438
 5391 000e 0021     		movs	r1, #0
 5392              	.LVL339:
ARM GAS  C:\Users\VINCIU~1\AppData\Local\Temp\ccdhDWPe.s 			page 141


 253:../../libdaisy/src/dev/oled_ssd130x.h ****         }
 5393              		.loc 6 253 24 view .LVU1439
 5394 0010 04F11400 		add	r0, r4, #20
 5395              	.LVL340:
 253:../../libdaisy/src/dev/oled_ssd130x.h ****         }
 5396              		.loc 6 253 24 view .LVU1440
 5397              	.LBE1667:
 5398              	.LBE1669:
 5399              	.LBE1671:
 533:Menus.cpp     ****     screen.Fill(false);
 5400              		.loc 2 533 1 view .LVU1441
 5401 0014 1D46     		mov	r5, r3
 5402              	.LBB1672:
 5403              	.LBB1670:
 5404              	.LBB1668:
 253:../../libdaisy/src/dev/oled_ssd130x.h ****         }
 5405              		.loc 6 253 24 view .LVU1442
 5406 0016 FFF7FEFF 		bl	memset
 5407              	.LVL341:
 253:../../libdaisy/src/dev/oled_ssd130x.h ****         }
 5408              		.loc 6 253 24 view .LVU1443
 5409              	.LBE1668:
 5410              	.LBE1670:
 5411              	.LBE1672:
 535:Menus.cpp     ****     if(this->buttonLeft.RisingEdge())
 5412              		.loc 2 535 5 is_stmt 1 view .LVU1444
 5413              	.LBB1673:
 5414              	.LBI1673:
 5415              		.loc 4 69 17 view .LVU1445
 5416              	.LBB1674:
 5417              		.loc 4 69 38 view .LVU1446
 5418              		.loc 4 69 38 is_stmt 0 view .LVU1447
 5419              	.LBE1674:
 5420              	.LBE1673:
 5421              		.loc 2 535 5 view .LVU1448
 5422 001a 97F85130 		ldrb	r3, [r7, #81]	@ zero_extendqisi2
 5423 001e 7F2B     		cmp	r3, #127
 536:Menus.cpp     **** 
 537:Menus.cpp     ****     {
 538:Menus.cpp     ****         this->menuStateEnv = this->menuStateEnv - 1;
 5424              		.loc 2 538 49 view .LVU1449
 5425 0020 D7F8AC31 		ldr	r3, [r7, #428]
 535:Menus.cpp     ****     if(this->buttonLeft.RisingEdge())
 5426              		.loc 2 535 5 view .LVU1450
 5427 0024 00F0E383 		beq	.L524
 5428              	.L362:
 539:Menus.cpp     ****         if(this->menuStateEnv < 0)
 540:Menus.cpp     ****         {
 541:Menus.cpp     ****             this->menuStateEnv = 3;
 542:Menus.cpp     ****         }
 543:Menus.cpp     ****     }
 544:Menus.cpp     ****     if(this->buttonRight.RisingEdge())
 5429              		.loc 2 544 5 is_stmt 1 view .LVU1451
 5430              	.LVL342:
 5431              	.LBB1675:
 5432              	.LBI1675:
 5433              		.loc 4 69 17 view .LVU1452
ARM GAS  C:\Users\VINCIU~1\AppData\Local\Temp\ccdhDWPe.s 			page 142


 5434              	.LBB1676:
 5435              		.loc 4 69 38 view .LVU1453
 5436              		.loc 4 69 38 is_stmt 0 view .LVU1454
 5437              	.LBE1676:
 5438              	.LBE1675:
 5439              		.loc 2 544 5 view .LVU1455
 5440 0028 97F86120 		ldrb	r2, [r7, #97]	@ zero_extendqisi2
 5441 002c 7F2A     		cmp	r2, #127
 5442 002e 00F00D82 		beq	.L525
 5443              	.L366:
 545:Menus.cpp     **** 
 546:Menus.cpp     ****     {
 547:Menus.cpp     ****         this->menuStateEnv = this->menuStateEnv + 1;
 548:Menus.cpp     ****         if(this->menuStateEnv > 3)
 549:Menus.cpp     ****         {
 550:Menus.cpp     ****             this->menuStateEnv = 0;
 551:Menus.cpp     ****         }
 552:Menus.cpp     ****     }
 553:Menus.cpp     ****     if(menuStateEnv == 0)
 5444              		.loc 2 553 5 is_stmt 1 view .LVU1456
 5445 0032 002B     		cmp	r3, #0
 5446 0034 00F01382 		beq	.L365
 554:Menus.cpp     ****     {
 555:Menus.cpp     ****         this->attackTime += this->encoderRight.Increment() * 3.3;
 556:Menus.cpp     ****         env.SetTime(daisysp::ADSR_SEG_ATTACK, this->attackTime / 100);
 557:Menus.cpp     ****         this->attackTimeScaleDraw += this->encoderRight.Increment();
 558:Menus.cpp     ****         if(attackTimeScaleDraw >= screen.Width() / 4)
 559:Menus.cpp     ****         {
 560:Menus.cpp     ****             attackTimeScaleDraw = screen.Width() / 4;
 561:Menus.cpp     ****         }
 562:Menus.cpp     ****         if(attackTimeScaleDraw <= 0)
 563:Menus.cpp     ****         {
 564:Menus.cpp     ****             attackTimeScaleDraw = 0;
 565:Menus.cpp     ****         }
 566:Menus.cpp     ****         if(attackTime >= 100)
 567:Menus.cpp     ****         {
 568:Menus.cpp     ****             attackTime = 100;
 569:Menus.cpp     ****         }
 570:Menus.cpp     ****         if(attackTime <= 0)
 571:Menus.cpp     ****         {
 572:Menus.cpp     ****             attackTime = 0;
 573:Menus.cpp     ****         }
 574:Menus.cpp     ****         screen.DrawRect(28, 0, 40, 13, true, false);
 575:Menus.cpp     ****     }
 576:Menus.cpp     ****     if(menuStateEnv == 1)
 5447              		.loc 2 576 5 view .LVU1457
 5448 0038 012B     		cmp	r3, #1
 5449 003a 00F0A282 		beq	.L526
 5450              	.L381:
 577:Menus.cpp     ****     {
 578:Menus.cpp     ****         this->decayTime += this->encoderRight.Increment() * 3.3;
 579:Menus.cpp     ****         env.SetTime(daisysp::ADSR_SEG_DECAY, this->decayTime / 100);
 580:Menus.cpp     ****         this->decayTimeScaleDraw += this->encoderRight.Increment();
 581:Menus.cpp     ****         if(decayTimeScaleDraw >= screen.Width() / 4)
 582:Menus.cpp     ****         {
 583:Menus.cpp     ****             decayTimeScaleDraw = screen.Width() / 4;
 584:Menus.cpp     ****         }
ARM GAS  C:\Users\VINCIU~1\AppData\Local\Temp\ccdhDWPe.s 			page 143


 585:Menus.cpp     ****         if(decayTimeScaleDraw <= 0)
 586:Menus.cpp     ****         {
 587:Menus.cpp     ****             decayTimeScaleDraw = 0;
 588:Menus.cpp     ****         }
 589:Menus.cpp     ****         if(decayTime >= 100)
 590:Menus.cpp     ****         {
 591:Menus.cpp     ****             decayTime = 100;
 592:Menus.cpp     ****         }
 593:Menus.cpp     ****         if(decayTime <= 0)
 594:Menus.cpp     ****         {
 595:Menus.cpp     ****             decayTime = 0;
 596:Menus.cpp     ****         }
 597:Menus.cpp     ****         screen.DrawRect(44, 0, 56, 13, true, false);
 598:Menus.cpp     ****     }
 599:Menus.cpp     ****     if(menuStateEnv == 2)
 5451              		.loc 2 599 5 view .LVU1458
 5452 003e 022B     		cmp	r3, #2
 5453 0040 00F0ED82 		beq	.L527
 5454              	.L390:
 600:Menus.cpp     ****     {
 601:Menus.cpp     ****         this->sustatinLevel += this->encoderRight.Increment() * 3.3;
 602:Menus.cpp     ****         env.SetSustainLevel(this->sustatinLevel / 100);
 603:Menus.cpp     ****         this->sustatinLevelScaleDraw += this->encoderRight.Increment();
 604:Menus.cpp     ****         if(this->sustatinLevelScaleDraw >= screen.Width() / 4)
 605:Menus.cpp     ****         {
 606:Menus.cpp     ****             this->sustatinLevelScaleDraw = screen.Width() / 4;
 607:Menus.cpp     ****         }
 608:Menus.cpp     ****         if(this->sustatinLevelScaleDraw <= 0)
 609:Menus.cpp     ****         {
 610:Menus.cpp     ****             this->sustatinLevelScaleDraw = 0;
 611:Menus.cpp     ****         }
 612:Menus.cpp     ****         if(this->sustatinLevel >= 100)
 613:Menus.cpp     ****         {
 614:Menus.cpp     ****             this->sustatinLevel = 100;
 615:Menus.cpp     ****         }
 616:Menus.cpp     ****         if(this->sustatinLevel <= 0)
 617:Menus.cpp     ****         {
 618:Menus.cpp     ****             this->sustatinLevel = 0;
 619:Menus.cpp     ****         }
 620:Menus.cpp     ****         screen.DrawRect(60, 0, 72, 13, true, false);
 621:Menus.cpp     ****     }
 622:Menus.cpp     ****     if(menuStateEnv == 3)
 5455              		.loc 2 622 5 view .LVU1459
 5456 0044 032B     		cmp	r3, #3
 5457 0046 00F08A83 		beq	.L364
 5458              	.L404:
 623:Menus.cpp     ****     {
 624:Menus.cpp     ****         this->releaseTime += this->encoderRight.Increment() * 3.3;
 625:Menus.cpp     ****         env.SetTime(daisysp::ADSR_SEG_RELEASE, this->releaseTime / 100);
 626:Menus.cpp     ****         this->releaseTimeScaleDraw += this->encoderRight.Increment();
 627:Menus.cpp     ****         if(this->releaseTimeScaleDraw >= screen.Width() / 4)
 628:Menus.cpp     ****         {
 629:Menus.cpp     ****             this->releaseTimeScaleDraw = screen.Width() / 4;
 630:Menus.cpp     ****         }
 631:Menus.cpp     ****         if(this->releaseTimeScaleDraw <= 0)
 632:Menus.cpp     ****         {
 633:Menus.cpp     ****             this->releaseTimeScaleDraw = 0;
ARM GAS  C:\Users\VINCIU~1\AppData\Local\Temp\ccdhDWPe.s 			page 144


 634:Menus.cpp     ****         }
 635:Menus.cpp     ****         if(this->releaseTime >= 100)
 636:Menus.cpp     ****         {
 637:Menus.cpp     ****             this->releaseTime = 100;
 638:Menus.cpp     ****         }
 639:Menus.cpp     ****         if(this->releaseTime <= 0)
 640:Menus.cpp     ****         {
 641:Menus.cpp     ****             this->releaseTime = 0;
 642:Menus.cpp     ****         }
 643:Menus.cpp     ****         screen.DrawRect(76, 0, 88, 13, true, false);
 644:Menus.cpp     ****     }
 645:Menus.cpp     **** 
 646:Menus.cpp     ****     screen.SetCursor(32, 4);
 5459              		.loc 2 646 5 view .LVU1460
 5460              	.LVL343:
 5461              	.LBB1678:
 5462              	.LBI1678:
 131:../../libdaisy/src/hid/disp/display.h ****     {
 5463              		.loc 5 131 10 view .LVU1461
 5464              	.LBB1679:
 133:../../libdaisy/src/hid/disp/display.h ****         currentY_ = (y >= Height()) ? Height() - 1 : y;
 5465              		.loc 5 133 9 view .LVU1462
 134:../../libdaisy/src/hid/disp/display.h ****     }
 5466              		.loc 5 134 9 view .LVU1463
 5467              	.LBE1679:
 5468              	.LBE1678:
 647:Menus.cpp     ****     screen.WriteString("A", Font_6x8, true);
 5469              		.loc 2 647 23 is_stmt 0 view .LVU1464
 5470 004a BB4D     		ldr	r5, .L533
 5471              	.LVL344:
 5472              		.loc 2 647 23 view .LVU1465
 5473 004c 0126     		movs	r6, #1
 5474              	.LBB1682:
 5475              	.LBB1680:
 133:../../libdaisy/src/hid/disp/display.h ****         currentY_ = (y >= Height()) ? Height() - 1 : y;
 5476              		.loc 5 133 19 view .LVU1466
 5477 004e BB4B     		ldr	r3, .L533+4
 5478              	.LBE1680:
 5479              	.LBE1682:
 5480              		.loc 2 647 23 view .LVU1467
 5481 0050 2046     		mov	r0, r4
 5482 0052 0096     		str	r6, [sp]
 5483 0054 BA49     		ldr	r1, .L533+8
 5484              	.LBB1683:
 5485              	.LBB1681:
 133:../../libdaisy/src/hid/disp/display.h ****         currentY_ = (y >= Height()) ? Height() - 1 : y;
 5486              		.loc 5 133 19 view .LVU1468
 5487 0056 6360     		str	r3, [r4, #4]
 5488              	.LVL345:
 133:../../libdaisy/src/hid/disp/display.h ****         currentY_ = (y >= Height()) ? Height() - 1 : y;
 5489              		.loc 5 133 19 view .LVU1469
 5490              	.LBE1681:
 5491              	.LBE1683:
 5492              		.loc 2 647 5 is_stmt 1 view .LVU1470
 5493              		.loc 2 647 23 is_stmt 0 view .LVU1471
 5494 0058 95E80C00 		ldm	r5, {r2, r3}
 5495 005c FFF7FEFF 		bl	_ZN5daisy25OneBitGraphicsDisplayImplINS_11OledDisplayINS_13SSD130xDriverILj128ELj64ENS_24SSD130
ARM GAS  C:\Users\VINCIU~1\AppData\Local\Temp\ccdhDWPe.s 			page 145


 5496              	.LVL346:
 648:Menus.cpp     ****     screen.SetCursor(48, 4);
 5497              		.loc 2 648 5 is_stmt 1 view .LVU1472
 5498              	.LBB1684:
 5499              	.LBI1684:
 131:../../libdaisy/src/hid/disp/display.h ****     {
 5500              		.loc 5 131 10 view .LVU1473
 5501              	.LBB1685:
 133:../../libdaisy/src/hid/disp/display.h ****         currentY_ = (y >= Height()) ? Height() - 1 : y;
 5502              		.loc 5 133 9 view .LVU1474
 134:../../libdaisy/src/hid/disp/display.h ****     }
 5503              		.loc 5 134 9 view .LVU1475
 133:../../libdaisy/src/hid/disp/display.h ****         currentY_ = (y >= Height()) ? Height() - 1 : y;
 5504              		.loc 5 133 19 is_stmt 0 view .LVU1476
 5505 0060 B84B     		ldr	r3, .L533+12
 5506              	.LBE1685:
 5507              	.LBE1684:
 649:Menus.cpp     ****     screen.WriteString("D", Font_6x8, true);
 5508              		.loc 2 649 23 view .LVU1477
 5509 0062 0096     		str	r6, [sp]
 5510 0064 2046     		mov	r0, r4
 5511 0066 B849     		ldr	r1, .L533+16
 5512              	.LBB1687:
 5513              	.LBB1686:
 133:../../libdaisy/src/hid/disp/display.h ****         currentY_ = (y >= Height()) ? Height() - 1 : y;
 5514              		.loc 5 133 19 view .LVU1478
 5515 0068 6360     		str	r3, [r4, #4]
 5516              	.LVL347:
 133:../../libdaisy/src/hid/disp/display.h ****         currentY_ = (y >= Height()) ? Height() - 1 : y;
 5517              		.loc 5 133 19 view .LVU1479
 5518              	.LBE1686:
 5519              	.LBE1687:
 5520              		.loc 2 649 5 is_stmt 1 view .LVU1480
 5521              		.loc 2 649 23 is_stmt 0 view .LVU1481
 5522 006a 95E80C00 		ldm	r5, {r2, r3}
 5523 006e FFF7FEFF 		bl	_ZN5daisy25OneBitGraphicsDisplayImplINS_11OledDisplayINS_13SSD130xDriverILj128ELj64ENS_24SSD130
 5524              	.LVL348:
 650:Menus.cpp     ****     screen.SetCursor(64, 4);
 5525              		.loc 2 650 5 is_stmt 1 view .LVU1482
 5526              	.LBB1688:
 5527              	.LBI1688:
 131:../../libdaisy/src/hid/disp/display.h ****     {
 5528              		.loc 5 131 10 view .LVU1483
 5529              	.LBB1689:
 133:../../libdaisy/src/hid/disp/display.h ****         currentY_ = (y >= Height()) ? Height() - 1 : y;
 5530              		.loc 5 133 9 view .LVU1484
 134:../../libdaisy/src/hid/disp/display.h ****     }
 5531              		.loc 5 134 9 view .LVU1485
 133:../../libdaisy/src/hid/disp/display.h ****         currentY_ = (y >= Height()) ? Height() - 1 : y;
 5532              		.loc 5 133 19 is_stmt 0 view .LVU1486
 5533 0072 B64B     		ldr	r3, .L533+20
 5534              	.LBE1689:
 5535              	.LBE1688:
 651:Menus.cpp     ****     screen.WriteString("S", Font_6x8, true);
 5536              		.loc 2 651 23 view .LVU1487
 5537 0074 0096     		str	r6, [sp]
 5538 0076 2046     		mov	r0, r4
ARM GAS  C:\Users\VINCIU~1\AppData\Local\Temp\ccdhDWPe.s 			page 146


 5539 0078 B549     		ldr	r1, .L533+24
 5540              	.LBB1691:
 5541              	.LBB1690:
 133:../../libdaisy/src/hid/disp/display.h ****         currentY_ = (y >= Height()) ? Height() - 1 : y;
 5542              		.loc 5 133 19 view .LVU1488
 5543 007a 6360     		str	r3, [r4, #4]
 5544              	.LVL349:
 133:../../libdaisy/src/hid/disp/display.h ****         currentY_ = (y >= Height()) ? Height() - 1 : y;
 5545              		.loc 5 133 19 view .LVU1489
 5546              	.LBE1690:
 5547              	.LBE1691:
 5548              		.loc 2 651 5 is_stmt 1 view .LVU1490
 5549              		.loc 2 651 23 is_stmt 0 view .LVU1491
 5550 007c 95E80C00 		ldm	r5, {r2, r3}
 5551 0080 FFF7FEFF 		bl	_ZN5daisy25OneBitGraphicsDisplayImplINS_11OledDisplayINS_13SSD130xDriverILj128ELj64ENS_24SSD130
 5552              	.LVL350:
 652:Menus.cpp     ****     screen.SetCursor(80, 4);
 5553              		.loc 2 652 5 is_stmt 1 view .LVU1492
 5554              	.LBB1692:
 5555              	.LBI1692:
 131:../../libdaisy/src/hid/disp/display.h ****     {
 5556              		.loc 5 131 10 view .LVU1493
 5557              	.LBB1693:
 133:../../libdaisy/src/hid/disp/display.h ****         currentY_ = (y >= Height()) ? Height() - 1 : y;
 5558              		.loc 5 133 9 view .LVU1494
 134:../../libdaisy/src/hid/disp/display.h ****     }
 5559              		.loc 5 134 9 view .LVU1495
 133:../../libdaisy/src/hid/disp/display.h ****         currentY_ = (y >= Height()) ? Height() - 1 : y;
 5560              		.loc 5 133 19 is_stmt 0 view .LVU1496
 5561 0084 B349     		ldr	r1, .L533+28
 5562              	.LBE1693:
 5563              	.LBE1692:
 653:Menus.cpp     ****     screen.WriteString("R", Font_6x8, true);
 5564              		.loc 2 653 23 view .LVU1497
 5565 0086 2046     		mov	r0, r4
 5566 0088 95E80C00 		ldm	r5, {r2, r3}
 5567 008c 0096     		str	r6, [sp]
 5568              	.LBB1695:
 5569              	.LBB1696:
 5570              	.LBB1697:
 5571              	.LBB1698:
  43:../../libdaisy/src/hid/disp/oled_display.h ****     }
 5572              		.loc 1 43 26 view .LVU1498
 5573 008e 04F10805 		add	r5, r4, #8
 5574              	.LBE1698:
 5575              	.LBE1697:
 5576              	.LBE1696:
 5577              	.LBE1695:
 5578              	.LBB1723:
 5579              	.LBB1694:
 133:../../libdaisy/src/hid/disp/display.h ****         currentY_ = (y >= Height()) ? Height() - 1 : y;
 5580              		.loc 5 133 19 view .LVU1499
 5581 0092 6160     		str	r1, [r4, #4]
 5582              	.LVL351:
 133:../../libdaisy/src/hid/disp/display.h ****         currentY_ = (y >= Height()) ? Height() - 1 : y;
 5583              		.loc 5 133 19 view .LVU1500
 5584              	.LBE1694:
ARM GAS  C:\Users\VINCIU~1\AppData\Local\Temp\ccdhDWPe.s 			page 147


 5585              	.LBE1723:
 5586              		.loc 2 653 5 is_stmt 1 view .LVU1501
 5587              		.loc 2 653 23 is_stmt 0 view .LVU1502
 5588 0094 B049     		ldr	r1, .L533+32
 5589 0096 FFF7FEFF 		bl	_ZN5daisy25OneBitGraphicsDisplayImplINS_11OledDisplayINS_13SSD130xDriverILj128ELj64ENS_24SSD130
 5590              	.LVL352:
 654:Menus.cpp     ****     screen.DrawLine(0, screen.Height() - 5, attackTimeScaleDraw, 25, true);
 5591              		.loc 2 654 5 is_stmt 1 view .LVU1503
 5592              		.loc 2 654 45 is_stmt 0 view .LVU1504
 5593 009a D7ED697A 		vldr.32	s15, [r7, #420]
 5594              		.loc 2 654 20 view .LVU1505
 5595 009e BCEEE77A 		vcvt.u32.f32	s14, s15
 5596 00a2 17EE101A 		vmov	r1, s14	@ int
 5597              	.LVL353:
 5598              	.LBB1724:
 5599              	.LBI1695:
 181:../../libdaisy/src/hid/disp/display.h ****                   uint_fast8_t y1,
 5600              		.loc 5 181 10 is_stmt 1 view .LVU1506
 5601              	.LBB1721:
 187:../../libdaisy/src/hid/disp/display.h ****         int_fast16_t deltaY = abs((int_fast16_t)y2 - (int_fast16_t)y1);
 5602              		.loc 5 187 22 is_stmt 0 view .LVU1507
 5603 00a6 81EAE179 		eor	r9, r1, r1, asr #31
 5604 00aa A9EBE179 		sub	r9, r9, r1, asr #31
 5605              	.LVL354:
 191:../../libdaisy/src/hid/disp/display.h ****         int_fast16_t error2;
 5606              		.loc 5 191 22 view .LVU1508
 5607 00ae A9F1220C 		sub	ip, r9, #34
 5608              	.LVL355:
 5609              	.LBB1710:
 5610              	.LBI1697:
  41:../../libdaisy/src/hid/disp/oled_display.h ****     {
 5611              		.loc 1 41 10 is_stmt 1 view .LVU1509
 5612              	.LBE1710:
 189:../../libdaisy/src/hid/disp/display.h ****         int_fast16_t signY  = ((y1 < y2) ? 1 : -1);
 5613              		.loc 5 189 42 is_stmt 0 view .LVU1510
 5614 00b2 0029     		cmp	r1, #0
 5615 00b4 00F09B81 		beq	.L414
 5616              	.LVL356:
 5617              	.LBB1711:
 5618              	.LBB1706:
 5619              	.LBB1699:
 5620              	.LBI1699:
 239:../../libdaisy/src/dev/oled_ssd130x.h ****     {
 5621              		.loc 6 239 10 is_stmt 1 view .LVU1511
 5622              	.LBB1700:
 241:../../libdaisy/src/dev/oled_ssd130x.h ****             return;
 5623              		.loc 6 241 9 is_stmt 0 view .LVU1512
 5624 00b8 7F29     		cmp	r1, #127
 5625              	.LBE1700:
 5626              	.LBE1699:
 5627              	.LBE1706:
 5628              	.LBE1711:
 189:../../libdaisy/src/hid/disp/display.h ****         int_fast16_t signY  = ((y1 < y2) ? 1 : -1);
 5629              		.loc 5 189 42 view .LVU1513
 5630 00ba B046     		mov	r8, r6
 5631              	.LBB1712:
 5632              	.LBB1707:
ARM GAS  C:\Users\VINCIU~1\AppData\Local\Temp\ccdhDWPe.s 			page 148


 5633              	.LBB1703:
 5634              	.LBB1701:
 241:../../libdaisy/src/dev/oled_ssd130x.h ****             return;
 5635              		.loc 6 241 9 view .LVU1514
 5636 00bc 40F29981 		bls	.L453
 5637              	.LVL357:
 5638              	.L415:
 241:../../libdaisy/src/dev/oled_ssd130x.h ****             return;
 5639              		.loc 6 241 9 view .LVU1515
 5640              	.LBE1701:
 5641              	.LBE1703:
 5642              	.LBE1707:
 5643              	.LBE1712:
 199:../../libdaisy/src/hid/disp/display.h ****         {
 5644              		.loc 5 199 26 is_stmt 1 view .LVU1516
 189:../../libdaisy/src/hid/disp/display.h ****         int_fast16_t signY  = ((y1 < y2) ? 1 : -1);
 5645              		.loc 5 189 42 is_stmt 0 view .LVU1517
 5646 00c0 3B20     		movs	r0, #59
 5647 00c2 0026     		movs	r6, #0
 5648              	.LVL358:
 5649              	.L416:
 5650              	.LBB1713:
 5651              	.LBI1713:
  41:../../libdaisy/src/hid/disp/oled_display.h ****     {
 5652              		.loc 1 41 10 is_stmt 1 view .LVU1518
 5653              	.LBB1714:
 5654              	.LBI1714:
 239:../../libdaisy/src/dev/oled_ssd130x.h ****     {
 5655              		.loc 6 239 10 view .LVU1519
 5656              	.LBB1715:
 244:../../libdaisy/src/dev/oled_ssd130x.h ****         else
 5657              		.loc 6 244 28 is_stmt 0 view .LVU1520
 5658 00c4 C308     		lsrs	r3, r0, #3
 244:../../libdaisy/src/dev/oled_ssd130x.h ****         else
 5659              		.loc 6 244 48 view .LVU1521
 5660 00c6 0122     		movs	r2, #1
 244:../../libdaisy/src/dev/oled_ssd130x.h ****         else
 5661              		.loc 6 244 54 view .LVU1522
 5662 00c8 00F0070A 		and	r10, r0, #7
 241:../../libdaisy/src/dev/oled_ssd130x.h ****             return;
 5663              		.loc 6 241 9 view .LVU1523
 5664 00cc 7F2E     		cmp	r6, #127
 244:../../libdaisy/src/dev/oled_ssd130x.h ****         else
 5665              		.loc 6 244 42 view .LVU1524
 5666 00ce 06EBC313 		add	r3, r6, r3, lsl #7
 5667              	.LBE1715:
 5668              	.LBE1714:
 5669              	.LBE1713:
 202:../../libdaisy/src/hid/disp/display.h ****             if(error2 > -deltaY)
 5670              		.loc 5 202 20 view .LVU1525
 5671 00d2 0CFA02FE 		lsl	lr, ip, r2
 5672              	.LVL359:
 5673              	.LBB1718:
 5674              	.LBB1717:
 5675              	.LBB1716:
 244:../../libdaisy/src/dev/oled_ssd130x.h ****         else
 5676              		.loc 6 244 48 view .LVU1526
ARM GAS  C:\Users\VINCIU~1\AppData\Local\Temp\ccdhDWPe.s 			page 149


 5677 00d6 02FA0AF2 		lsl	r2, r2, r10
 244:../../libdaisy/src/dev/oled_ssd130x.h ****         else
 5678              		.loc 6 244 42 view .LVU1527
 5679 00da 2344     		add	r3, r3, r4
 241:../../libdaisy/src/dev/oled_ssd130x.h ****             return;
 5680              		.loc 6 241 9 view .LVU1528
 5681 00dc 06D8     		bhi	.L419
 241:../../libdaisy/src/dev/oled_ssd130x.h ****             return;
 5682              		.loc 6 241 9 view .LVU1529
 5683 00de 3F28     		cmp	r0, #63
 5684 00e0 04D8     		bhi	.L419
 244:../../libdaisy/src/dev/oled_ssd130x.h ****         else
 5685              		.loc 6 244 42 view .LVU1530
 5686 00e2 93F814A0 		ldrb	r10, [r3, #20]	@ zero_extendqisi2
 5687 00e6 42EA0A02 		orr	r2, r2, r10
 5688 00ea 1A75     		strb	r2, [r3, #20]
 5689              	.L419:
 5690              	.LBE1716:
 5691              	.LBE1717:
 5692              	.LBE1718:
 203:../../libdaisy/src/hid/disp/display.h ****             {
 5693              		.loc 5 203 13 view .LVU1531
 5694 00ec 1EF1210F 		cmn	lr, #33
 5695 00f0 C0F28781 		blt	.L420
 209:../../libdaisy/src/hid/disp/display.h ****             {
 5696              		.loc 5 209 13 view .LVU1532
 5697 00f4 F145     		cmp	r9, lr
 206:../../libdaisy/src/hid/disp/display.h ****             }
 5698              		.loc 5 206 20 view .LVU1533
 5699 00f6 4644     		add	r6, r6, r8
 5700              	.LVL360:
 205:../../libdaisy/src/hid/disp/display.h ****                 x1 += signX;
 5701              		.loc 5 205 23 view .LVU1534
 5702 00f8 ACF1220C 		sub	ip, ip, #34
 5703              	.LVL361:
 209:../../libdaisy/src/hid/disp/display.h ****             {
 5704              		.loc 5 209 13 view .LVU1535
 5705 00fc 00F38181 		bgt	.L420
 5706              	.L421:
 199:../../libdaisy/src/hid/disp/display.h ****         {
 5707              		.loc 5 199 26 is_stmt 1 view .LVU1536
 5708 0100 B142     		cmp	r1, r6
 5709 0102 DFD1     		bne	.L416
 199:../../libdaisy/src/hid/disp/display.h ****         {
 5710              		.loc 5 199 26 is_stmt 0 view .LVU1537
 5711 0104 1928     		cmp	r0, #25
 5712 0106 DDD1     		bne	.L416
 5713              	.LVL362:
 199:../../libdaisy/src/hid/disp/display.h ****         {
 5714              		.loc 5 199 26 view .LVU1538
 5715              	.LBE1721:
 5716              	.LBE1724:
 655:Menus.cpp     ****     screen.DrawLine(attackTimeScaleDraw,
 5717              		.loc 2 655 5 is_stmt 1 view .LVU1539
 656:Menus.cpp     ****                     25,
 657:Menus.cpp     ****                     attackTimeScaleDraw + decayTimeScaleDraw,
 658:Menus.cpp     ****                     (screen.Height() - 5) - sustatinLevelScaleDraw,
ARM GAS  C:\Users\VINCIU~1\AppData\Local\Temp\ccdhDWPe.s 			page 150


 5718              		.loc 2 658 43 is_stmt 0 view .LVU1540
 5719 0108 D7ED726A 		vldr.32	s13, [r7, #456]
 5720 010c 9FED937A 		vldr.32	s14, .L533+36
 657:Menus.cpp     ****                     (screen.Height() - 5) - sustatinLevelScaleDraw,
 5721              		.loc 2 657 41 view .LVU1541
 5722 0110 97ED6E6A 		vldr.32	s12, [r7, #440]
 5723              		.loc 2 658 43 view .LVU1542
 5724 0114 37EE667A 		vsub.f32	s14, s14, s13
 657:Menus.cpp     ****                     (screen.Height() - 5) - sustatinLevelScaleDraw,
 5725              		.loc 2 657 41 view .LVU1543
 5726 0118 77EE867A 		vadd.f32	s15, s15, s12
 655:Menus.cpp     ****     screen.DrawLine(attackTimeScaleDraw,
 5727              		.loc 2 655 20 view .LVU1544
 5728 011c BCEEC77A 		vcvt.u32.f32	s14, s14
 5729 0120 FCEEE76A 		vcvt.u32.f32	s13, s15
 5730 0124 17EE102A 		vmov	r2, s14	@ int
 5731 0128 16EE906A 		vmov	r6, s13	@ int
 5732              	.LVL363:
 5733              	.LBB1725:
 5734              	.LBI1725:
 181:../../libdaisy/src/hid/disp/display.h ****                   uint_fast8_t y1,
 5735              		.loc 5 181 10 is_stmt 1 view .LVU1545
 5736              	.LBB1726:
 188:../../libdaisy/src/hid/disp/display.h ****         int_fast16_t signX  = ((x1 < x2) ? 1 : -1);
 5737              		.loc 5 188 52 is_stmt 0 view .LVU1546
 5738 012c A2F11903 		sub	r3, r2, #25
 187:../../libdaisy/src/hid/disp/display.h ****         int_fast16_t deltaY = abs((int_fast16_t)y2 - (int_fast16_t)y1);
 5739              		.loc 5 187 52 view .LVU1547
 5740 0130 A6EB010E 		sub	lr, r6, r1
 188:../../libdaisy/src/hid/disp/display.h ****         int_fast16_t signX  = ((x1 < x2) ? 1 : -1);
 5741              		.loc 5 188 22 view .LVU1548
 5742 0134 83EAE370 		eor	r0, r3, r3, asr #31
 187:../../libdaisy/src/hid/disp/display.h ****         int_fast16_t deltaY = abs((int_fast16_t)y2 - (int_fast16_t)y1);
 5743              		.loc 5 187 22 view .LVU1549
 5744 0138 BEF1000F 		cmp	lr, #0
 188:../../libdaisy/src/hid/disp/display.h ****         int_fast16_t signX  = ((x1 < x2) ? 1 : -1);
 5745              		.loc 5 188 22 view .LVU1550
 5746 013c A0EBE370 		sub	r0, r0, r3, asr #31
 187:../../libdaisy/src/hid/disp/display.h ****         int_fast16_t deltaY = abs((int_fast16_t)y2 - (int_fast16_t)y1);
 5747              		.loc 5 187 22 view .LVU1551
 5748 0140 B8BF     		it	lt
 5749 0142 CEF1000E 		rsblt	lr, lr, #0
 5750              	.LVL364:
 188:../../libdaisy/src/hid/disp/display.h ****         int_fast16_t signX  = ((x1 < x2) ? 1 : -1);
 5751              		.loc 5 188 22 view .LVU1552
 5752 0146 0346     		mov	r3, r0
 5753 0148 0490     		str	r0, [sp, #16]
 5754              	.LVL365:
 189:../../libdaisy/src/hid/disp/display.h ****         int_fast16_t signY  = ((y1 < y2) ? 1 : -1);
 5755              		.loc 5 189 42 view .LVU1553
 5756 014a B142     		cmp	r1, r6
 5757 014c 34BF     		ite	cc
 5758 014e 0120     		movcc	r0, #1
 5759 0150 4FF0FF30 		movcs	r0, #-1
 5760              	.LVL366:
 190:../../libdaisy/src/hid/disp/display.h ****         int_fast16_t error  = deltaX - deltaY;
 5761              		.loc 5 190 42 view .LVU1554
ARM GAS  C:\Users\VINCIU~1\AppData\Local\Temp\ccdhDWPe.s 			page 151


 5762 0154 192A     		cmp	r2, #25
 189:../../libdaisy/src/hid/disp/display.h ****         int_fast16_t signY  = ((y1 < y2) ? 1 : -1);
 5763              		.loc 5 189 42 view .LVU1555
 5764 0156 0590     		str	r0, [sp, #20]
 5765              	.LVL367:
 190:../../libdaisy/src/hid/disp/display.h ****         int_fast16_t error  = deltaX - deltaY;
 5766              		.loc 5 190 42 view .LVU1556
 5767 0158 00F25D81 		bhi	.L423
 5768              	.LVL368:
 191:../../libdaisy/src/hid/disp/display.h ****         int_fast16_t error2;
 5769              		.loc 5 191 22 view .LVU1557
 5770 015c AEEB030C 		sub	ip, lr, r3
 5771              	.LVL369:
 5772              	.LBB1727:
 5773              	.LBI1727:
  41:../../libdaisy/src/hid/disp/oled_display.h ****     {
 5774              		.loc 1 41 10 is_stmt 1 view .LVU1558
 5775              	.LBB1728:
 5776              	.LBI1728:
 239:../../libdaisy/src/dev/oled_ssd130x.h ****     {
 5777              		.loc 6 239 10 view .LVU1559
 5778              	.LBB1729:
 241:../../libdaisy/src/dev/oled_ssd130x.h ****             return;
 5779              		.loc 6 241 9 is_stmt 0 view .LVU1560
 5780 0160 7F2E     		cmp	r6, #127
 5781              	.LBE1729:
 5782              	.LBE1728:
 5783              	.LBE1727:
 190:../../libdaisy/src/hid/disp/display.h ****         int_fast16_t error  = deltaX - deltaY;
 5784              		.loc 5 190 42 view .LVU1561
 5785 0162 4FF0FF33 		mov	r3, #-1
 5786              	.LVL370:
 190:../../libdaisy/src/hid/disp/display.h ****         int_fast16_t error  = deltaX - deltaY;
 5787              		.loc 5 190 42 view .LVU1562
 5788 0166 0693     		str	r3, [sp, #24]
 5789              	.LBB1736:
 5790              	.LBB1733:
 5791              	.LBB1730:
 241:../../libdaisy/src/dev/oled_ssd130x.h ****             return;
 5792              		.loc 6 241 9 view .LVU1563
 5793 0168 0DD8     		bhi	.L424
 5794              	.LVL371:
 5795              	.L456:
 244:../../libdaisy/src/dev/oled_ssd130x.h ****         else
 5796              		.loc 6 244 28 view .LVU1564
 5797 016a D308     		lsrs	r3, r2, #3
 244:../../libdaisy/src/dev/oled_ssd130x.h ****         else
 5798              		.loc 6 244 54 view .LVU1565
 5799 016c 02F00708 		and	r8, r2, #7
 244:../../libdaisy/src/dev/oled_ssd130x.h ****         else
 5800              		.loc 6 244 48 view .LVU1566
 5801 0170 0120     		movs	r0, #1
 5802              	.LVL372:
 244:../../libdaisy/src/dev/oled_ssd130x.h ****         else
 5803              		.loc 6 244 42 view .LVU1567
 5804 0172 06EBC313 		add	r3, r6, r3, lsl #7
 244:../../libdaisy/src/dev/oled_ssd130x.h ****         else
ARM GAS  C:\Users\VINCIU~1\AppData\Local\Temp\ccdhDWPe.s 			page 152


 5805              		.loc 6 244 48 view .LVU1568
 5806 0176 00FA08F0 		lsl	r0, r0, r8
 244:../../libdaisy/src/dev/oled_ssd130x.h ****         else
 5807              		.loc 6 244 42 view .LVU1569
 5808 017a 2344     		add	r3, r3, r4
 5809 017c 93F81480 		ldrb	r8, [r3, #20]	@ zero_extendqisi2
 5810 0180 40EA0800 		orr	r0, r0, r8
 5811 0184 1875     		strb	r0, [r3, #20]
 5812              	.L424:
 5813              	.LVL373:
 244:../../libdaisy/src/dev/oled_ssd130x.h ****         else
 5814              		.loc 6 244 42 view .LVU1570
 5815              	.LBE1730:
 5816              	.LBE1733:
 5817              	.LBE1736:
 199:../../libdaisy/src/hid/disp/display.h ****         {
 5818              		.loc 5 199 26 is_stmt 1 view .LVU1571
 5819 0186 192A     		cmp	r2, #25
 5820 0188 08BF     		it	eq
 5821 018a B142     		cmpeq	r1, r6
 5822 018c 0CBF     		ite	eq
 5823 018e 0123     		moveq	r3, #1
 5824 0190 0023     		movne	r3, #0
 5825 0192 0793     		str	r3, [sp, #28]
 5826 0194 00F05E83 		beq	.L528
 5827              	.L426:
 5828              	.LVL374:
 203:../../libdaisy/src/hid/disp/display.h ****             {
 5829              		.loc 5 203 23 is_stmt 0 view .LVU1572
 5830 0198 049B     		ldr	r3, [sp, #16]
 5831 019a 1920     		movs	r0, #25
 5832 019c C3F1000A 		rsb	r10, r3, #0
 5833              	.L428:
 5834              	.LVL375:
 5835              	.LBB1737:
 5836              	.LBI1737:
  41:../../libdaisy/src/hid/disp/oled_display.h ****     {
 5837              		.loc 1 41 10 is_stmt 1 view .LVU1573
 5838              	.LBB1738:
 5839              	.LBI1738:
 239:../../libdaisy/src/dev/oled_ssd130x.h ****     {
 5840              		.loc 6 239 10 view .LVU1574
 5841              	.LBB1739:
 244:../../libdaisy/src/dev/oled_ssd130x.h ****         else
 5842              		.loc 6 244 48 is_stmt 0 view .LVU1575
 5843 01a0 4FF0010B 		mov	fp, #1
 244:../../libdaisy/src/dev/oled_ssd130x.h ****         else
 5844              		.loc 6 244 28 view .LVU1576
 5845 01a4 C308     		lsrs	r3, r0, #3
 244:../../libdaisy/src/dev/oled_ssd130x.h ****         else
 5846              		.loc 6 244 54 view .LVU1577
 5847 01a6 00F00708 		and	r8, r0, #7
 241:../../libdaisy/src/dev/oled_ssd130x.h ****             return;
 5848              		.loc 6 241 9 view .LVU1578
 5849 01aa 7F29     		cmp	r1, #127
 244:../../libdaisy/src/dev/oled_ssd130x.h ****         else
 5850              		.loc 6 244 42 view .LVU1579
ARM GAS  C:\Users\VINCIU~1\AppData\Local\Temp\ccdhDWPe.s 			page 153


 5851 01ac 01EBC313 		add	r3, r1, r3, lsl #7
 5852              	.LBE1739:
 5853              	.LBE1738:
 5854              	.LBE1737:
 202:../../libdaisy/src/hid/disp/display.h ****             if(error2 > -deltaY)
 5855              		.loc 5 202 20 view .LVU1580
 5856 01b0 0CFA0BF9 		lsl	r9, ip, fp
 5857              	.LVL376:
 5858              	.LBB1742:
 5859              	.LBB1741:
 5860              	.LBB1740:
 244:../../libdaisy/src/dev/oled_ssd130x.h ****         else
 5861              		.loc 6 244 48 view .LVU1581
 5862 01b4 0BFA08F8 		lsl	r8, fp, r8
 241:../../libdaisy/src/dev/oled_ssd130x.h ****             return;
 5863              		.loc 6 241 9 view .LVU1582
 5864 01b8 08D8     		bhi	.L429
 5865 01ba 3F28     		cmp	r0, #63
 244:../../libdaisy/src/dev/oled_ssd130x.h ****         else
 5866              		.loc 6 244 42 view .LVU1583
 5867 01bc 2344     		add	r3, r3, r4
 241:../../libdaisy/src/dev/oled_ssd130x.h ****             return;
 5868              		.loc 6 241 9 view .LVU1584
 5869 01be 05D8     		bhi	.L429
 244:../../libdaisy/src/dev/oled_ssd130x.h ****         else
 5870              		.loc 6 244 42 view .LVU1585
 5871 01c0 93F814B0 		ldrb	fp, [r3, #20]	@ zero_extendqisi2
 5872 01c4 48EA0B08 		orr	r8, r8, fp
 5873 01c8 83F81480 		strb	r8, [r3, #20]
 5874              	.L429:
 244:../../libdaisy/src/dev/oled_ssd130x.h ****         else
 5875              		.loc 6 244 42 view .LVU1586
 5876              	.LBE1740:
 5877              	.LBE1741:
 5878              	.LBE1742:
 203:../../libdaisy/src/hid/disp/display.h ****             {
 5879              		.loc 5 203 13 view .LVU1587
 5880 01cc BAEB4C0F 		cmp	r10, ip, lsl #1
 5881 01d0 04DA     		bge	.L430
 205:../../libdaisy/src/hid/disp/display.h ****                 x1 += signX;
 5882              		.loc 5 205 23 view .LVU1588
 5883 01d2 049B     		ldr	r3, [sp, #16]
 5884 01d4 ACEB030C 		sub	ip, ip, r3
 5885              	.LVL377:
 206:../../libdaisy/src/hid/disp/display.h ****             }
 5886              		.loc 5 206 20 view .LVU1589
 5887 01d8 059B     		ldr	r3, [sp, #20]
 5888 01da 1944     		add	r1, r1, r3
 5889              	.LVL378:
 5890              	.L430:
 209:../../libdaisy/src/hid/disp/display.h ****             {
 5891              		.loc 5 209 13 view .LVU1590
 5892 01dc CE45     		cmp	lr, r9
 5893 01de 02DD     		ble	.L431
 212:../../libdaisy/src/hid/disp/display.h ****             }
 5894              		.loc 5 212 20 view .LVU1591
 5895 01e0 069B     		ldr	r3, [sp, #24]
ARM GAS  C:\Users\VINCIU~1\AppData\Local\Temp\ccdhDWPe.s 			page 154


 211:../../libdaisy/src/hid/disp/display.h ****                 y1 += signY;
 5896              		.loc 5 211 23 view .LVU1592
 5897 01e2 F444     		add	ip, ip, lr
 5898              	.LVL379:
 212:../../libdaisy/src/hid/disp/display.h ****             }
 5899              		.loc 5 212 20 view .LVU1593
 5900 01e4 1844     		add	r0, r0, r3
 5901              	.LVL380:
 5902              	.L431:
 199:../../libdaisy/src/hid/disp/display.h ****         {
 5903              		.loc 5 199 26 is_stmt 1 view .LVU1594
 5904 01e6 8E42     		cmp	r6, r1
 5905 01e8 DAD1     		bne	.L428
 199:../../libdaisy/src/hid/disp/display.h ****         {
 5906              		.loc 5 199 26 is_stmt 0 view .LVU1595
 5907 01ea 8242     		cmp	r2, r0
 5908 01ec D8D1     		bne	.L428
 5909              	.LVL381:
 5910              	.L425:
 199:../../libdaisy/src/hid/disp/display.h ****         {
 5911              		.loc 5 199 26 view .LVU1596
 5912              	.LBE1726:
 5913              	.LBE1725:
 659:Menus.cpp     ****                     true);
 660:Menus.cpp     **** 
 661:Menus.cpp     ****     screen.DrawLine(attackTimeScaleDraw + decayTimeScaleDraw,
 5914              		.loc 2 661 5 is_stmt 1 view .LVU1597
 662:Menus.cpp     ****                     (screen.Height() - 5) - sustatinLevelScaleDraw,
 663:Menus.cpp     ****                     attackTimeScaleDraw + decayTimeScaleDraw
 664:Menus.cpp     ****                         + screen.Width() / 4,
 5915              		.loc 2 664 25 is_stmt 0 view .LVU1598
 5916 01ee 9FED5C7A 		vldr.32	s14, .L533+40
 5917 01f2 77EE877A 		vadd.f32	s15, s15, s14
 661:Menus.cpp     ****                     (screen.Height() - 5) - sustatinLevelScaleDraw,
 5918              		.loc 2 661 20 view .LVU1599
 5919 01f6 BCEEE77A 		vcvt.u32.f32	s14, s15
 5920 01fa 17EE101A 		vmov	r1, s14	@ int
 5921              	.LVL382:
 5922              	.LBB1748:
 5923              	.LBI1748:
 181:../../libdaisy/src/hid/disp/display.h ****                   uint_fast8_t y1,
 5924              		.loc 5 181 10 is_stmt 1 view .LVU1600
 5925              	.LBB1749:
 187:../../libdaisy/src/hid/disp/display.h ****         int_fast16_t deltaY = abs((int_fast16_t)y2 - (int_fast16_t)y1);
 5926              		.loc 5 187 52 is_stmt 0 view .LVU1601
 5927 01fe A1EB0608 		sub	r8, r1, r6
 187:../../libdaisy/src/hid/disp/display.h ****         int_fast16_t deltaY = abs((int_fast16_t)y2 - (int_fast16_t)y1);
 5928              		.loc 5 187 22 view .LVU1602
 5929 0202 B8F1000F 		cmp	r8, #0
 5930 0206 B8BF     		it	lt
 5931 0208 C8F10008 		rsblt	r8, r8, #0
 5932              	.LVL383:
 189:../../libdaisy/src/hid/disp/display.h ****         int_fast16_t signY  = ((y1 < y2) ? 1 : -1);
 5933              		.loc 5 189 42 view .LVU1603
 5934 020c 8E42     		cmp	r6, r1
 5935 020e C0F01381 		bcc	.L432
 5936              	.LVL384:
ARM GAS  C:\Users\VINCIU~1\AppData\Local\Temp\ccdhDWPe.s 			page 155


 5937              	.LBB1750:
 5938              	.LBI1750:
  41:../../libdaisy/src/hid/disp/oled_display.h ****     {
 5939              		.loc 1 41 10 is_stmt 1 view .LVU1604
 5940              	.LBB1751:
 5941              	.LBI1751:
 239:../../libdaisy/src/dev/oled_ssd130x.h ****     {
 5942              		.loc 6 239 10 view .LVU1605
 5943              	.LBB1752:
 241:../../libdaisy/src/dev/oled_ssd130x.h ****             return;
 5944              		.loc 6 241 9 is_stmt 0 view .LVU1606
 5945 0212 7F29     		cmp	r1, #127
 5946              	.LBE1752:
 5947              	.LBE1751:
 5948              	.LBE1750:
 189:../../libdaisy/src/hid/disp/display.h ****         int_fast16_t signY  = ((y1 < y2) ? 1 : -1);
 5949              		.loc 5 189 42 view .LVU1607
 5950 0214 4FF0FF39 		mov	r9, #-1
 5951              	.LBB1759:
 5952              	.LBB1756:
 5953              	.LBB1753:
 241:../../libdaisy/src/dev/oled_ssd130x.h ****             return;
 5954              		.loc 6 241 9 view .LVU1608
 5955 0218 0FD8     		bhi	.L433
 5956 021a 079B     		ldr	r3, [sp, #28]
 5957 021c 6BB9     		cbnz	r3, .L433
 5958              	.LVL385:
 5959              	.L455:
 244:../../libdaisy/src/dev/oled_ssd130x.h ****         else
 5960              		.loc 6 244 28 view .LVU1609
 5961 021e D308     		lsrs	r3, r2, #3
 244:../../libdaisy/src/dev/oled_ssd130x.h ****         else
 5962              		.loc 6 244 54 view .LVU1610
 5963 0220 02F0070C 		and	ip, r2, #7
 244:../../libdaisy/src/dev/oled_ssd130x.h ****         else
 5964              		.loc 6 244 48 view .LVU1611
 5965 0224 0120     		movs	r0, #1
 244:../../libdaisy/src/dev/oled_ssd130x.h ****         else
 5966              		.loc 6 244 42 view .LVU1612
 5967 0226 01EBC313 		add	r3, r1, r3, lsl #7
 244:../../libdaisy/src/dev/oled_ssd130x.h ****         else
 5968              		.loc 6 244 48 view .LVU1613
 5969 022a 00FA0CF0 		lsl	r0, r0, ip
 244:../../libdaisy/src/dev/oled_ssd130x.h ****         else
 5970              		.loc 6 244 42 view .LVU1614
 5971 022e 2344     		add	r3, r3, r4
 5972 0230 93F814C0 		ldrb	ip, [r3, #20]	@ zero_extendqisi2
 5973 0234 40EA0C00 		orr	r0, r0, ip
 5974 0238 1875     		strb	r0, [r3, #20]
 5975              	.L433:
 5976              	.LVL386:
 244:../../libdaisy/src/dev/oled_ssd130x.h ****         else
 5977              		.loc 6 244 42 view .LVU1615
 5978              	.LBE1753:
 5979              	.LBE1756:
 5980              	.LBE1759:
 199:../../libdaisy/src/hid/disp/display.h ****         {
ARM GAS  C:\Users\VINCIU~1\AppData\Local\Temp\ccdhDWPe.s 			page 156


 5981              		.loc 5 199 26 is_stmt 1 view .LVU1616
 5982 023a 8E42     		cmp	r6, r1
 5983 023c 22D0     		beq	.L434
 5984              	.L435:
 5985              	.LVL387:
 187:../../libdaisy/src/hid/disp/display.h ****         int_fast16_t deltaY = abs((int_fast16_t)y2 - (int_fast16_t)y1);
 5986              		.loc 5 187 22 is_stmt 0 view .LVU1617
 5987 023e C646     		mov	lr, r8
 5988              	.LBE1749:
 5989              	.LBE1748:
 655:Menus.cpp     ****                     25,
 5990              		.loc 2 655 20 view .LVU1618
 5991 0240 9446     		mov	ip, r2
 5992              	.L437:
 5993              	.LVL388:
 5994              	.LBB1767:
 5995              	.LBB1765:
 5996              	.LBB1760:
 5997              	.LBI1760:
  41:../../libdaisy/src/hid/disp/oled_display.h ****     {
 5998              		.loc 1 41 10 is_stmt 1 view .LVU1619
 5999              	.LBB1761:
 6000              	.LBI1761:
 239:../../libdaisy/src/dev/oled_ssd130x.h ****     {
 6001              		.loc 6 239 10 view .LVU1620
 6002              	.LBB1762:
 244:../../libdaisy/src/dev/oled_ssd130x.h ****         else
 6003              		.loc 6 244 28 is_stmt 0 view .LVU1621
 6004 0242 4FEADC03 		lsr	r3, ip, #3
 244:../../libdaisy/src/dev/oled_ssd130x.h ****         else
 6005              		.loc 6 244 54 view .LVU1622
 6006 0246 0CF0070A 		and	r10, ip, #7
 244:../../libdaisy/src/dev/oled_ssd130x.h ****         else
 6007              		.loc 6 244 48 view .LVU1623
 6008 024a 0120     		movs	r0, #1
 241:../../libdaisy/src/dev/oled_ssd130x.h ****             return;
 6009              		.loc 6 241 9 view .LVU1624
 6010 024c 7F2E     		cmp	r6, #127
 244:../../libdaisy/src/dev/oled_ssd130x.h ****         else
 6011              		.loc 6 244 42 view .LVU1625
 6012 024e 06EBC313 		add	r3, r6, r3, lsl #7
 244:../../libdaisy/src/dev/oled_ssd130x.h ****         else
 6013              		.loc 6 244 48 view .LVU1626
 6014 0252 00FA0AF0 		lsl	r0, r0, r10
 241:../../libdaisy/src/dev/oled_ssd130x.h ****             return;
 6015              		.loc 6 241 9 view .LVU1627
 6016 0256 08D8     		bhi	.L438
 6017 0258 BCF13F0F 		cmp	ip, #63
 244:../../libdaisy/src/dev/oled_ssd130x.h ****         else
 6018              		.loc 6 244 42 view .LVU1628
 6019 025c 2344     		add	r3, r3, r4
 241:../../libdaisy/src/dev/oled_ssd130x.h ****             return;
 6020              		.loc 6 241 9 view .LVU1629
 6021 025e 04D8     		bhi	.L438
 244:../../libdaisy/src/dev/oled_ssd130x.h ****         else
 6022              		.loc 6 244 42 view .LVU1630
 6023 0260 93F814A0 		ldrb	r10, [r3, #20]	@ zero_extendqisi2
ARM GAS  C:\Users\VINCIU~1\AppData\Local\Temp\ccdhDWPe.s 			page 157


 6024 0264 40EA0A00 		orr	r0, r0, r10
 6025 0268 1875     		strb	r0, [r3, #20]
 6026              	.L438:
 244:../../libdaisy/src/dev/oled_ssd130x.h ****         else
 6027              		.loc 6 244 42 view .LVU1631
 6028              	.LBE1762:
 6029              	.LBE1761:
 6030              	.LBE1760:
 203:../../libdaisy/src/hid/disp/display.h ****             {
 6031              		.loc 5 203 13 view .LVU1632
 6032 026a 5FEA4E03 		lsls	r3, lr, #1
 206:../../libdaisy/src/hid/disp/display.h ****             }
 6033              		.loc 5 206 20 view .LVU1633
 6034 026e 18BF     		it	ne
 6035 0270 4E44     		addne	r6, r6, r9
 6036              	.LVL389:
 209:../../libdaisy/src/hid/disp/display.h ****             {
 6037              		.loc 5 209 13 view .LVU1634
 6038 0272 9845     		cmp	r8, r3
 6039 0274 02DD     		ble	.L440
 211:../../libdaisy/src/hid/disp/display.h ****                 y1 += signY;
 6040              		.loc 5 211 23 view .LVU1635
 6041 0276 C644     		add	lr, lr, r8
 6042              	.LVL390:
 212:../../libdaisy/src/hid/disp/display.h ****             }
 6043              		.loc 5 212 20 view .LVU1636
 6044 0278 0CF1FF3C 		add	ip, ip, #-1
 6045              	.LVL391:
 6046              	.L440:
 199:../../libdaisy/src/hid/disp/display.h ****         {
 6047              		.loc 5 199 26 is_stmt 1 view .LVU1637
 6048 027c B142     		cmp	r1, r6
 6049 027e E0D1     		bne	.L437
 199:../../libdaisy/src/hid/disp/display.h ****         {
 6050              		.loc 5 199 26 is_stmt 0 view .LVU1638
 6051 0280 6245     		cmp	r2, ip
 6052 0282 DED1     		bne	.L437
 6053              	.LVL392:
 6054              	.L434:
 199:../../libdaisy/src/hid/disp/display.h ****         {
 6055              		.loc 5 199 26 view .LVU1639
 6056              	.LBE1765:
 6057              	.LBE1767:
 665:Menus.cpp     ****                     (screen.Height() - 5) - sustatinLevelScaleDraw,
 666:Menus.cpp     ****                     true);
 667:Menus.cpp     ****     screen.DrawLine(attackTimeScaleDraw + decayTimeScaleDraw
 6058              		.loc 2 667 5 is_stmt 1 view .LVU1640
 668:Menus.cpp     ****                         + screen.Width() / 4,
 669:Menus.cpp     ****                     (screen.Height() - 5) - sustatinLevelScaleDraw,
 670:Menus.cpp     ****                     attackTimeScaleDraw + decayTimeScaleDraw
 671:Menus.cpp     ****                         + screen.Width() / 4 + releaseTimeScaleDraw,
 6059              		.loc 2 671 46 is_stmt 0 view .LVU1641
 6060 0284 97ED767A 		vldr.32	s14, [r7, #472]
 6061              	.LBB1768:
 6062              	.LBB1769:
 188:../../libdaisy/src/hid/disp/display.h ****         int_fast16_t signX  = ((x1 < x2) ? 1 : -1);
 6063              		.loc 5 188 52 view .LVU1642
ARM GAS  C:\Users\VINCIU~1\AppData\Local\Temp\ccdhDWPe.s 			page 158


 6064 0288 C2F13B08 		rsb	r8, r2, #59
 6065              	.LBE1769:
 6066              	.LBE1768:
 6067              		.loc 2 671 46 view .LVU1643
 6068 028c 77EE877A 		vadd.f32	s15, s15, s14
 667:Menus.cpp     ****                         + screen.Width() / 4,
 6069              		.loc 2 667 20 view .LVU1644
 6070 0290 FCEEE77A 		vcvt.u32.f32	s15, s15
 6071 0294 17EE90CA 		vmov	ip, s15	@ int
 6072              	.LVL393:
 6073              	.LBB1794:
 6074              	.LBI1768:
 181:../../libdaisy/src/hid/disp/display.h ****                   uint_fast8_t y1,
 6075              		.loc 5 181 10 is_stmt 1 view .LVU1645
 6076              	.LBB1792:
 187:../../libdaisy/src/hid/disp/display.h ****         int_fast16_t deltaY = abs((int_fast16_t)y2 - (int_fast16_t)y1);
 6077              		.loc 5 187 52 is_stmt 0 view .LVU1646
 6078 0298 ACEB010E 		sub	lr, ip, r1
 187:../../libdaisy/src/hid/disp/display.h ****         int_fast16_t deltaY = abs((int_fast16_t)y2 - (int_fast16_t)y1);
 6079              		.loc 5 187 22 view .LVU1647
 6080 029c BEF1000F 		cmp	lr, #0
 6081 02a0 B8BF     		it	lt
 6082 02a2 CEF1000E 		rsblt	lr, lr, #0
 6083              	.LVL394:
 188:../../libdaisy/src/hid/disp/display.h ****         int_fast16_t signX  = ((x1 < x2) ? 1 : -1);
 6084              		.loc 5 188 22 view .LVU1648
 6085 02a6 B8F1000F 		cmp	r8, #0
 6086 02aa B8BF     		it	lt
 6087 02ac C8F10008 		rsblt	r8, r8, #0
 6088              	.LVL395:
 189:../../libdaisy/src/hid/disp/display.h ****         int_fast16_t signY  = ((y1 < y2) ? 1 : -1);
 6089              		.loc 5 189 42 view .LVU1649
 6090 02b0 6145     		cmp	r1, ip
 6091 02b2 34BF     		ite	cc
 6092 02b4 4FF0010A 		movcc	r10, #1
 6093 02b8 4FF0FF3A 		movcs	r10, #-1
 6094              	.LVL396:
 190:../../libdaisy/src/hid/disp/display.h ****         int_fast16_t error  = deltaX - deltaY;
 6095              		.loc 5 190 42 view .LVU1650
 6096 02bc 3A2A     		cmp	r2, #58
 191:../../libdaisy/src/hid/disp/display.h ****         int_fast16_t error2;
 6097              		.loc 5 191 22 view .LVU1651
 6098 02be AEEB0800 		sub	r0, lr, r8
 190:../../libdaisy/src/hid/disp/display.h ****         int_fast16_t error  = deltaX - deltaY;
 6099              		.loc 5 190 42 view .LVU1652
 6100 02c2 40F2A180 		bls	.L442
 6101              	.LVL397:
 6102              	.LBB1770:
 6103              	.LBI1770:
  41:../../libdaisy/src/hid/disp/oled_display.h ****     {
 6104              		.loc 1 41 10 is_stmt 1 view .LVU1653
 6105              	.LBB1771:
 6106              	.LBI1771:
 239:../../libdaisy/src/dev/oled_ssd130x.h ****     {
 6107              		.loc 6 239 10 view .LVU1654
 6108              	.LBE1771:
 6109              	.LBE1770:
ARM GAS  C:\Users\VINCIU~1\AppData\Local\Temp\ccdhDWPe.s 			page 159


 190:../../libdaisy/src/hid/disp/display.h ****         int_fast16_t error  = deltaX - deltaY;
 6110              		.loc 5 190 42 is_stmt 0 view .LVU1655
 6111 02c6 4FF0FF33 		mov	r3, #-1
 6112              	.LBB1781:
 6113              	.LBB1776:
 6114              	.LBB1772:
 241:../../libdaisy/src/dev/oled_ssd130x.h ****             return;
 6115              		.loc 6 241 9 view .LVU1656
 6116 02ca BCF17F0F 		cmp	ip, #127
 6117              	.LBE1772:
 6118              	.LBE1776:
 6119              	.LBE1781:
 190:../../libdaisy/src/hid/disp/display.h ****         int_fast16_t error  = deltaX - deltaY;
 6120              		.loc 5 190 42 view .LVU1657
 6121 02ce 0493     		str	r3, [sp, #16]
 6122              	.LBB1782:
 6123              	.LBB1777:
 6124              	.LBB1773:
 241:../../libdaisy/src/dev/oled_ssd130x.h ****             return;
 6125              		.loc 6 241 9 view .LVU1658
 6126 02d0 06D8     		bhi	.L443
 6127              	.LVL398:
 6128              	.L454:
 244:../../libdaisy/src/dev/oled_ssd130x.h ****         else
 6129              		.loc 6 244 42 view .LVU1659
 6130 02d2 0CF56073 		add	r3, ip, #896
 6131 02d6 2344     		add	r3, r3, r4
 6132 02d8 1E7D     		ldrb	r6, [r3, #20]	@ zero_extendqisi2
 6133 02da 46F00806 		orr	r6, r6, #8
 6134 02de 1E75     		strb	r6, [r3, #20]
 6135              	.L443:
 6136              	.LVL399:
 244:../../libdaisy/src/dev/oled_ssd130x.h ****         else
 6137              		.loc 6 244 42 view .LVU1660
 6138              	.LBE1773:
 6139              	.LBE1777:
 6140              	.LBE1782:
 199:../../libdaisy/src/hid/disp/display.h ****         {
 6141              		.loc 5 199 26 is_stmt 1 view .LVU1661
 6142 02e0 6145     		cmp	r1, ip
 6143 02e2 01D1     		bne	.L446
 6144 02e4 3B2A     		cmp	r2, #59
 6145 02e6 3FD0     		beq	.L444
 6146              	.L446:
 6147              	.LVL400:
 203:../../libdaisy/src/hid/disp/display.h ****             {
 6148              		.loc 5 203 23 is_stmt 0 view .LVU1662
 6149 02e8 C8F10009 		rsb	r9, r8, #0
 6150              	.LVL401:
 6151              	.L448:
 6152              	.LBB1783:
 6153              	.LBI1783:
  41:../../libdaisy/src/hid/disp/oled_display.h ****     {
 6154              		.loc 1 41 10 is_stmt 1 view .LVU1663
 6155              	.LBB1784:
 6156              	.LBI1784:
 239:../../libdaisy/src/dev/oled_ssd130x.h ****     {
ARM GAS  C:\Users\VINCIU~1\AppData\Local\Temp\ccdhDWPe.s 			page 160


 6157              		.loc 6 239 10 view .LVU1664
 6158              	.LBB1785:
 244:../../libdaisy/src/dev/oled_ssd130x.h ****         else
 6159              		.loc 6 244 48 is_stmt 0 view .LVU1665
 6160 02ec 4FF0010B 		mov	fp, #1
 244:../../libdaisy/src/dev/oled_ssd130x.h ****         else
 6161              		.loc 6 244 28 view .LVU1666
 6162 02f0 D308     		lsrs	r3, r2, #3
 244:../../libdaisy/src/dev/oled_ssd130x.h ****         else
 6163              		.loc 6 244 54 view .LVU1667
 6164 02f2 02F00706 		and	r6, r2, #7
 241:../../libdaisy/src/dev/oled_ssd130x.h ****             return;
 6165              		.loc 6 241 9 view .LVU1668
 6166 02f6 7F29     		cmp	r1, #127
 244:../../libdaisy/src/dev/oled_ssd130x.h ****         else
 6167              		.loc 6 244 42 view .LVU1669
 6168 02f8 01EBC313 		add	r3, r1, r3, lsl #7
 6169              	.LBE1785:
 6170              	.LBE1784:
 6171              	.LBE1783:
 202:../../libdaisy/src/hid/disp/display.h ****             if(error2 > -deltaY)
 6172              		.loc 5 202 20 view .LVU1670
 6173 02fc 00FA0BF7 		lsl	r7, r0, fp
 6174              	.LVL402:
 6175              	.LBB1788:
 6176              	.LBB1787:
 6177              	.LBB1786:
 244:../../libdaisy/src/dev/oled_ssd130x.h ****         else
 6178              		.loc 6 244 48 view .LVU1671
 6179 0300 0BFA06F6 		lsl	r6, fp, r6
 241:../../libdaisy/src/dev/oled_ssd130x.h ****             return;
 6180              		.loc 6 241 9 view .LVU1672
 6181 0304 07D8     		bhi	.L449
 6182 0306 3F2A     		cmp	r2, #63
 244:../../libdaisy/src/dev/oled_ssd130x.h ****         else
 6183              		.loc 6 244 42 view .LVU1673
 6184 0308 2344     		add	r3, r3, r4
 241:../../libdaisy/src/dev/oled_ssd130x.h ****             return;
 6185              		.loc 6 241 9 view .LVU1674
 6186 030a 04D8     		bhi	.L449
 244:../../libdaisy/src/dev/oled_ssd130x.h ****         else
 6187              		.loc 6 244 42 view .LVU1675
 6188 030c 93F814B0 		ldrb	fp, [r3, #20]	@ zero_extendqisi2
 6189 0310 46EA0B06 		orr	r6, r6, fp
 6190 0314 1E75     		strb	r6, [r3, #20]
 6191              	.L449:
 244:../../libdaisy/src/dev/oled_ssd130x.h ****         else
 6192              		.loc 6 244 42 view .LVU1676
 6193              	.LBE1786:
 6194              	.LBE1787:
 6195              	.LBE1788:
 203:../../libdaisy/src/hid/disp/display.h ****             {
 6196              		.loc 5 203 13 view .LVU1677
 6197 0316 B9EB400F 		cmp	r9, r0, lsl #1
 6198 031a 02DA     		bge	.L450
 205:../../libdaisy/src/hid/disp/display.h ****                 x1 += signX;
 6199              		.loc 5 205 23 view .LVU1678
ARM GAS  C:\Users\VINCIU~1\AppData\Local\Temp\ccdhDWPe.s 			page 161


 6200 031c A0EB0800 		sub	r0, r0, r8
 6201              	.LVL403:
 206:../../libdaisy/src/hid/disp/display.h ****             }
 6202              		.loc 5 206 20 view .LVU1679
 6203 0320 5144     		add	r1, r1, r10
 6204              	.LVL404:
 6205              	.L450:
 209:../../libdaisy/src/hid/disp/display.h ****             {
 6206              		.loc 5 209 13 view .LVU1680
 6207 0322 BE45     		cmp	lr, r7
 6208 0324 02DD     		ble	.L451
 212:../../libdaisy/src/hid/disp/display.h ****             }
 6209              		.loc 5 212 20 view .LVU1681
 6210 0326 049B     		ldr	r3, [sp, #16]
 211:../../libdaisy/src/hid/disp/display.h ****                 y1 += signY;
 6211              		.loc 5 211 23 view .LVU1682
 6212 0328 7044     		add	r0, r0, lr
 6213              	.LVL405:
 212:../../libdaisy/src/hid/disp/display.h ****             }
 6214              		.loc 5 212 20 view .LVU1683
 6215 032a 1A44     		add	r2, r2, r3
 6216              	.LVL406:
 6217              	.L451:
 199:../../libdaisy/src/hid/disp/display.h ****         {
 6218              		.loc 5 199 26 is_stmt 1 view .LVU1684
 6219 032c 8C45     		cmp	ip, r1
 6220 032e DDD1     		bne	.L448
 199:../../libdaisy/src/hid/disp/display.h ****         {
 6221              		.loc 5 199 26 is_stmt 0 view .LVU1685
 6222 0330 3B2A     		cmp	r2, #59
 6223 0332 DBD1     		bne	.L448
 6224 0334 18E0     		b	.L534
 6225              	.L535:
 6226 0336 00BF     		.align	2
 6227              	.L533:
 6228 0338 00000000 		.word	Font_6x8
 6229 033c 20000400 		.word	262176
 6230 0340 00000000 		.word	.LC7
 6231 0344 30000400 		.word	262192
 6232 0348 04000000 		.word	.LC8
 6233 034c 40000400 		.word	262208
 6234 0350 08000000 		.word	.LC9
 6235 0354 50000400 		.word	262224
 6236 0358 0C000000 		.word	.LC10
 6237 035c 00006C42 		.word	1114374144
 6238 0360 00000042 		.word	1107296256
 6239 0364 0000C842 		.word	1120403456
 6240              	.L534:
 6241              	.LVL407:
 6242              	.L444:
 199:../../libdaisy/src/hid/disp/display.h ****         {
 6243              		.loc 5 199 26 view .LVU1686
 6244              	.LBE1792:
 6245              	.LBE1794:
 6246              	.LBB1795:
 6247              	.LBB1796:
 6248              	.LBB1797:
ARM GAS  C:\Users\VINCIU~1\AppData\Local\Temp\ccdhDWPe.s 			page 162


 6249              	.LBB1798:
 6250              	.LBB1799:
 111:../../libdaisy/src/dev/oled_ssd130x.h ****         spi_.BlockingTransmit(&cmd, 1);
 6251              		.loc 6 111 24 view .LVU1687
 6252 0368 05F10807 		add	r7, r5, #8
 6253 036c 05F10C06 		add	r6, r5, #12
 6254 0370 05F20C49 		addw	r9, r5, #1036
 6255 0374 B024     		movs	r4, #176
 6256              	.LVL408:
 6257              	.L452:
 111:../../libdaisy/src/dev/oled_ssd130x.h ****         spi_.BlockingTransmit(&cmd, 1);
 6258              		.loc 6 111 24 view .LVU1688
 6259 0376 4FF00008 		mov	r8, #0
 111:../../libdaisy/src/dev/oled_ssd130x.h ****         spi_.BlockingTransmit(&cmd, 1);
 6260              		.loc 6 111 23 view .LVU1689
 6261 037a 3846     		mov	r0, r7
 6262 037c 8DF82740 		strb	r4, [sp, #39]
 6263              	.LVL409:
 111:../../libdaisy/src/dev/oled_ssd130x.h ****         spi_.BlockingTransmit(&cmd, 1);
 6264              		.loc 6 111 23 view .LVU1690
 6265              	.LBE1799:
 6266              	.LBI1798:
 109:../../libdaisy/src/dev/oled_ssd130x.h ****     {
 6267              		.loc 6 109 10 is_stmt 1 view .LVU1691
 6268              	.LBB1800:
 111:../../libdaisy/src/dev/oled_ssd130x.h ****         spi_.BlockingTransmit(&cmd, 1);
 6269              		.loc 6 111 9 view .LVU1692
 6270              	.LBE1800:
 6271              	.LBE1798:
 6272              		.loc 6 270 22 is_stmt 0 view .LVU1693
 6273 0380 0134     		adds	r4, r4, #1
 6274              	.LVL410:
 6275              	.LBB1803:
 6276              	.LBB1801:
 111:../../libdaisy/src/dev/oled_ssd130x.h ****         spi_.BlockingTransmit(&cmd, 1);
 6277              		.loc 6 111 23 view .LVU1694
 6278 0382 4146     		mov	r1, r8
 6279 0384 FFF7FEFF 		bl	dsy_gpio_write
 6280              	.LVL411:
 112:../../libdaisy/src/dev/oled_ssd130x.h ****     };
 6281              		.loc 6 112 9 is_stmt 1 view .LVU1695
 112:../../libdaisy/src/dev/oled_ssd130x.h ****     };
 6282              		.loc 6 112 30 is_stmt 0 view .LVU1696
 6283 0388 6423     		movs	r3, #100
 6284 038a 0122     		movs	r2, #1
 6285 038c 0DF12701 		add	r1, sp, #39
 6286 0390 2846     		mov	r0, r5
 6287              	.LBE1801:
 6288              	.LBE1803:
 6289              		.loc 6 270 22 view .LVU1697
 6290 0392 E4B2     		uxtb	r4, r4
 6291              	.LBB1804:
 6292              	.LBB1802:
 112:../../libdaisy/src/dev/oled_ssd130x.h ****     };
 6293              		.loc 6 112 30 view .LVU1698
 6294 0394 FFF7FEFF 		bl	_ZN5daisy9SpiHandle16BlockingTransmitEPhjm
 6295              	.LVL412:
ARM GAS  C:\Users\VINCIU~1\AppData\Local\Temp\ccdhDWPe.s 			page 163


 112:../../libdaisy/src/dev/oled_ssd130x.h ****     };
 6296              		.loc 6 112 30 view .LVU1699
 6297              	.LBE1802:
 6298              	.LBE1804:
 6299              	.LBB1805:
 6300              	.LBB1806:
 111:../../libdaisy/src/dev/oled_ssd130x.h ****         spi_.BlockingTransmit(&cmd, 1);
 6301              		.loc 6 111 23 view .LVU1700
 6302 0398 4146     		mov	r1, r8
 6303 039a 3846     		mov	r0, r7
 6304 039c 8DF82780 		strb	r8, [sp, #39]
 6305              	.LVL413:
 111:../../libdaisy/src/dev/oled_ssd130x.h ****         spi_.BlockingTransmit(&cmd, 1);
 6306              		.loc 6 111 23 view .LVU1701
 6307              	.LBE1806:
 6308              	.LBI1805:
 109:../../libdaisy/src/dev/oled_ssd130x.h ****     {
 6309              		.loc 6 109 10 is_stmt 1 view .LVU1702
 6310              	.LBB1807:
 111:../../libdaisy/src/dev/oled_ssd130x.h ****         spi_.BlockingTransmit(&cmd, 1);
 6311              		.loc 6 111 9 view .LVU1703
 111:../../libdaisy/src/dev/oled_ssd130x.h ****         spi_.BlockingTransmit(&cmd, 1);
 6312              		.loc 6 111 23 is_stmt 0 view .LVU1704
 6313 03a0 FFF7FEFF 		bl	dsy_gpio_write
 6314              	.LVL414:
 112:../../libdaisy/src/dev/oled_ssd130x.h ****     };
 6315              		.loc 6 112 9 is_stmt 1 view .LVU1705
 112:../../libdaisy/src/dev/oled_ssd130x.h ****     };
 6316              		.loc 6 112 30 is_stmt 0 view .LVU1706
 6317 03a4 0122     		movs	r2, #1
 6318 03a6 6423     		movs	r3, #100
 6319 03a8 0DF12701 		add	r1, sp, #39
 6320 03ac 2846     		mov	r0, r5
 6321 03ae FFF7FEFF 		bl	_ZN5daisy9SpiHandle16BlockingTransmitEPhjm
 6322              	.LVL415:
 112:../../libdaisy/src/dev/oled_ssd130x.h ****     };
 6323              		.loc 6 112 30 view .LVU1707
 6324 03b2 1023     		movs	r3, #16
 6325              	.LBE1807:
 6326              	.LBE1805:
 6327              	.LBB1808:
 6328              	.LBB1809:
 111:../../libdaisy/src/dev/oled_ssd130x.h ****         spi_.BlockingTransmit(&cmd, 1);
 6329              		.loc 6 111 23 view .LVU1708
 6330 03b4 4146     		mov	r1, r8
 6331 03b6 3846     		mov	r0, r7
 6332 03b8 8DF82730 		strb	r3, [sp, #39]
 6333              	.LVL416:
 111:../../libdaisy/src/dev/oled_ssd130x.h ****         spi_.BlockingTransmit(&cmd, 1);
 6334              		.loc 6 111 23 view .LVU1709
 6335              	.LBE1809:
 6336              	.LBI1808:
 109:../../libdaisy/src/dev/oled_ssd130x.h ****     {
 6337              		.loc 6 109 10 is_stmt 1 view .LVU1710
 6338              	.LBB1810:
 111:../../libdaisy/src/dev/oled_ssd130x.h ****         spi_.BlockingTransmit(&cmd, 1);
 6339              		.loc 6 111 9 view .LVU1711
ARM GAS  C:\Users\VINCIU~1\AppData\Local\Temp\ccdhDWPe.s 			page 164


 111:../../libdaisy/src/dev/oled_ssd130x.h ****         spi_.BlockingTransmit(&cmd, 1);
 6340              		.loc 6 111 23 is_stmt 0 view .LVU1712
 6341 03bc FFF7FEFF 		bl	dsy_gpio_write
 6342              	.LVL417:
 112:../../libdaisy/src/dev/oled_ssd130x.h ****     };
 6343              		.loc 6 112 9 is_stmt 1 view .LVU1713
 112:../../libdaisy/src/dev/oled_ssd130x.h ****     };
 6344              		.loc 6 112 30 is_stmt 0 view .LVU1714
 6345 03c0 6423     		movs	r3, #100
 6346 03c2 0122     		movs	r2, #1
 6347 03c4 0DF12701 		add	r1, sp, #39
 6348 03c8 2846     		mov	r0, r5
 6349 03ca FFF7FEFF 		bl	_ZN5daisy9SpiHandle16BlockingTransmitEPhjm
 6350              	.LVL418:
 112:../../libdaisy/src/dev/oled_ssd130x.h ****     };
 6351              		.loc 6 112 30 view .LVU1715
 6352              	.LBE1810:
 6353              	.LBE1808:
 6354              	.LBB1811:
 6355              	.LBI1811:
 115:../../libdaisy/src/dev/oled_ssd130x.h ****     {
 6356              		.loc 6 115 10 is_stmt 1 view .LVU1716
 6357              	.LBB1812:
 117:../../libdaisy/src/dev/oled_ssd130x.h ****         spi_.BlockingTransmit(buff, size);
 6358              		.loc 6 117 9 view .LVU1717
 117:../../libdaisy/src/dev/oled_ssd130x.h ****         spi_.BlockingTransmit(buff, size);
 6359              		.loc 6 117 23 is_stmt 0 view .LVU1718
 6360 03ce 0121     		movs	r1, #1
 6361 03d0 3846     		mov	r0, r7
 6362 03d2 FFF7FEFF 		bl	dsy_gpio_write
 6363              	.LVL419:
 118:../../libdaisy/src/dev/oled_ssd130x.h ****     };
 6364              		.loc 6 118 9 is_stmt 1 view .LVU1719
 118:../../libdaisy/src/dev/oled_ssd130x.h ****     };
 6365              		.loc 6 118 30 is_stmt 0 view .LVU1720
 6366 03d6 8022     		movs	r2, #128
 6367 03d8 3146     		mov	r1, r6
 6368 03da 6423     		movs	r3, #100
 6369              	.LBE1812:
 6370              	.LBE1811:
 6371              		.loc 6 270 22 view .LVU1721
 6372 03dc 1644     		add	r6, r6, r2
 6373              	.LVL420:
 6374              	.LBB1814:
 6375              	.LBB1813:
 118:../../libdaisy/src/dev/oled_ssd130x.h ****     };
 6376              		.loc 6 118 30 view .LVU1722
 6377 03de 2846     		mov	r0, r5
 6378 03e0 FFF7FEFF 		bl	_ZN5daisy9SpiHandle16BlockingTransmitEPhjm
 6379              	.LVL421:
 118:../../libdaisy/src/dev/oled_ssd130x.h ****     };
 6380              		.loc 6 118 30 view .LVU1723
 6381              	.LBE1813:
 6382              	.LBE1814:
 6383              		.loc 6 270 9 is_stmt 1 view .LVU1724
 6384              		.loc 6 270 22 view .LVU1725
 6385 03e4 4E45     		cmp	r6, r9
ARM GAS  C:\Users\VINCIU~1\AppData\Local\Temp\ccdhDWPe.s 			page 165


 6386 03e6 C6D1     		bne	.L452
 6387              	.LBE1797:
 6388              	.LBE1796:
 6389              	.LBE1795:
 672:Menus.cpp     ****                     screen.Height() - 5,
 673:Menus.cpp     ****                     true);
 674:Menus.cpp     **** 
 675:Menus.cpp     **** 
 676:Menus.cpp     ****     screen.Update();
 677:Menus.cpp     **** }
 6390              		.loc 2 677 1 is_stmt 0 view .LVU1726
 6391 03e8 0BB0     		add	sp, sp, #44
 6392              		.cfi_remember_state
 6393              		.cfi_def_cfa_offset 36
 6394              		@ sp needed
 6395 03ea BDE8F08F 		pop	{r4, r5, r6, r7, r8, r9, r10, fp, pc}
 6396              	.LVL422:
 6397              	.L414:
 6398              		.cfi_restore_state
 6399              	.LBB1815:
 6400              	.LBB1722:
 6401              	.LBB1719:
 6402              	.LBB1708:
 6403              	.LBB1704:
 239:../../libdaisy/src/dev/oled_ssd130x.h ****     {
 6404              		.loc 6 239 10 is_stmt 1 view .LVU1727
 6405              	.LBE1704:
 6406              	.LBE1708:
 6407              	.LBE1719:
 189:../../libdaisy/src/hid/disp/display.h ****         int_fast16_t signY  = ((y1 < y2) ? 1 : -1);
 6408              		.loc 5 189 42 is_stmt 0 view .LVU1728
 6409 03ee 4FF0FF38 		mov	r8, #-1
 6410              	.LVL423:
 6411              	.L453:
 6412              	.LBB1720:
 6413              	.LBB1709:
 6414              	.LBB1705:
 6415              	.LBB1702:
 244:../../libdaisy/src/dev/oled_ssd130x.h ****         else
 6416              		.loc 6 244 42 view .LVU1729
 6417 03f2 01F5C073 		add	r3, r1, #384
 6418 03f6 2344     		add	r3, r3, r4
 6419 03f8 1A7D     		ldrb	r2, [r3, #20]	@ zero_extendqisi2
 6420 03fa 42F00202 		orr	r2, r2, #2
 6421 03fe 1A75     		strb	r2, [r3, #20]
 6422 0400 5EE6     		b	.L415
 6423              	.LVL424:
 6424              	.L420:
 244:../../libdaisy/src/dev/oled_ssd130x.h ****         else
 6425              		.loc 6 244 42 view .LVU1730
 6426              	.LBE1702:
 6427              	.LBE1705:
 6428              	.LBE1709:
 6429              	.LBE1720:
 211:../../libdaisy/src/hid/disp/display.h ****                 y1 += signY;
 6430              		.loc 5 211 23 view .LVU1731
 6431 0402 CC44     		add	ip, ip, r9
ARM GAS  C:\Users\VINCIU~1\AppData\Local\Temp\ccdhDWPe.s 			page 166


 6432              	.LVL425:
 212:../../libdaisy/src/hid/disp/display.h ****             }
 6433              		.loc 5 212 20 view .LVU1732
 6434 0404 0138     		subs	r0, r0, #1
 6435              	.LVL426:
 212:../../libdaisy/src/hid/disp/display.h ****             }
 6436              		.loc 5 212 20 view .LVU1733
 6437 0406 7BE6     		b	.L421
 6438              	.LVL427:
 6439              	.L442:
 212:../../libdaisy/src/hid/disp/display.h ****             }
 6440              		.loc 5 212 20 view .LVU1734
 6441              	.LBE1722:
 6442              	.LBE1815:
 6443              	.LBB1816:
 6444              	.LBB1793:
 6445              	.LBB1789:
  41:../../libdaisy/src/hid/disp/oled_display.h ****     {
 6446              		.loc 1 41 10 is_stmt 1 view .LVU1735
 6447              	.LBB1778:
 239:../../libdaisy/src/dev/oled_ssd130x.h ****     {
 6448              		.loc 6 239 10 view .LVU1736
 6449              	.LBE1778:
 6450              	.LBE1789:
 190:../../libdaisy/src/hid/disp/display.h ****         int_fast16_t error  = deltaX - deltaY;
 6451              		.loc 5 190 42 is_stmt 0 view .LVU1737
 6452 0408 0123     		movs	r3, #1
 6453              	.LBB1790:
 6454              	.LBB1779:
 6455              	.LBB1774:
 241:../../libdaisy/src/dev/oled_ssd130x.h ****             return;
 6456              		.loc 6 241 9 view .LVU1738
 6457 040a BCF17F0F 		cmp	ip, #127
 6458              	.LBE1774:
 6459              	.LBE1779:
 6460              	.LBE1790:
 190:../../libdaisy/src/hid/disp/display.h ****         int_fast16_t error  = deltaX - deltaY;
 6461              		.loc 5 190 42 view .LVU1739
 6462 040e 0493     		str	r3, [sp, #16]
 6463              	.LBB1791:
 6464              	.LBB1780:
 6465              	.LBB1775:
 241:../../libdaisy/src/dev/oled_ssd130x.h ****             return;
 6466              		.loc 6 241 9 view .LVU1740
 6467 0410 7FF65FAF 		bls	.L454
 6468 0414 68E7     		b	.L446
 6469              	.LVL428:
 6470              	.L423:
 241:../../libdaisy/src/dev/oled_ssd130x.h ****             return;
 6471              		.loc 6 241 9 view .LVU1741
 6472              	.LBE1775:
 6473              	.LBE1780:
 6474              	.LBE1791:
 6475              	.LBE1793:
 6476              	.LBE1816:
 6477              	.LBB1817:
 6478              	.LBB1745:
ARM GAS  C:\Users\VINCIU~1\AppData\Local\Temp\ccdhDWPe.s 			page 167


 191:../../libdaisy/src/hid/disp/display.h ****         int_fast16_t error2;
 6479              		.loc 5 191 22 view .LVU1742
 6480 0416 049B     		ldr	r3, [sp, #16]
 6481              	.LVL429:
 6482              	.LBB1743:
 6483              	.LBB1734:
 6484              	.LBB1731:
 241:../../libdaisy/src/dev/oled_ssd130x.h ****             return;
 6485              		.loc 6 241 28 view .LVU1743
 6486 0418 3F2A     		cmp	r2, #63
 6487              	.LBE1731:
 6488              	.LBE1734:
 6489              	.LBE1743:
 191:../../libdaisy/src/hid/disp/display.h ****         int_fast16_t error2;
 6490              		.loc 5 191 22 view .LVU1744
 6491 041a AEEB030C 		sub	ip, lr, r3
 6492              	.LVL430:
 6493              	.LBB1744:
  41:../../libdaisy/src/hid/disp/oled_display.h ****     {
 6494              		.loc 1 41 10 is_stmt 1 view .LVU1745
 6495              	.LBB1735:
 239:../../libdaisy/src/dev/oled_ssd130x.h ****     {
 6496              		.loc 6 239 10 view .LVU1746
 6497              	.LBB1732:
 241:../../libdaisy/src/dev/oled_ssd130x.h ****             return;
 6498              		.loc 6 241 28 is_stmt 0 view .LVU1747
 6499 041e 94BF     		ite	ls
 6500 0420 0023     		movls	r3, #0
 6501 0422 0123     		movhi	r3, #1
 241:../../libdaisy/src/dev/oled_ssd130x.h ****             return;
 6502              		.loc 6 241 9 view .LVU1748
 6503 0424 7F2E     		cmp	r6, #127
 241:../../libdaisy/src/dev/oled_ssd130x.h ****             return;
 6504              		.loc 6 241 28 view .LVU1749
 6505 0426 0793     		str	r3, [sp, #28]
 241:../../libdaisy/src/dev/oled_ssd130x.h ****             return;
 6506              		.loc 6 241 9 view .LVU1750
 6507 0428 00F2FC81 		bhi	.L468
 6508 042c 002B     		cmp	r3, #0
 6509 042e 40F0F981 		bne	.L468
 6510              	.LBE1732:
 6511              	.LBE1735:
 6512              	.LBE1744:
 190:../../libdaisy/src/hid/disp/display.h ****         int_fast16_t error  = deltaX - deltaY;
 6513              		.loc 5 190 42 view .LVU1751
 6514 0432 0123     		movs	r3, #1
 6515 0434 0693     		str	r3, [sp, #24]
 6516 0436 98E6     		b	.L456
 6517              	.LVL431:
 6518              	.L432:
 190:../../libdaisy/src/hid/disp/display.h ****         int_fast16_t error  = deltaX - deltaY;
 6519              		.loc 5 190 42 view .LVU1752
 6520              	.LBE1745:
 6521              	.LBE1817:
 6522              	.LBB1818:
 6523              	.LBB1766:
 6524              	.LBB1763:
ARM GAS  C:\Users\VINCIU~1\AppData\Local\Temp\ccdhDWPe.s 			page 168


  41:../../libdaisy/src/hid/disp/oled_display.h ****     {
 6525              		.loc 1 41 10 is_stmt 1 view .LVU1753
 6526              	.LBB1757:
 239:../../libdaisy/src/dev/oled_ssd130x.h ****     {
 6527              		.loc 6 239 10 view .LVU1754
 6528              	.LBB1754:
 241:../../libdaisy/src/dev/oled_ssd130x.h ****             return;
 6529              		.loc 6 241 9 is_stmt 0 view .LVU1755
 6530 0438 7F29     		cmp	r1, #127
 6531              	.LBE1754:
 6532              	.LBE1757:
 6533              	.LBE1763:
 189:../../libdaisy/src/hid/disp/display.h ****         int_fast16_t signY  = ((y1 < y2) ? 1 : -1);
 6534              		.loc 5 189 42 view .LVU1756
 6535 043a 4FF00109 		mov	r9, #1
 6536              	.LBB1764:
 6537              	.LBB1758:
 6538              	.LBB1755:
 241:../../libdaisy/src/dev/oled_ssd130x.h ****             return;
 6539              		.loc 6 241 9 view .LVU1757
 6540 043e 3FF6FEAE 		bhi	.L435
 6541 0442 079B     		ldr	r3, [sp, #28]
 6542 0444 002B     		cmp	r3, #0
 6543 0446 3FF4EAAE 		beq	.L455
 6544 044a F8E6     		b	.L435
 6545              	.LVL432:
 6546              	.L525:
 241:../../libdaisy/src/dev/oled_ssd130x.h ****             return;
 6547              		.loc 6 241 9 view .LVU1758
 6548              	.LBE1755:
 6549              	.LBE1758:
 6550              	.LBE1764:
 6551              	.LBE1766:
 6552              	.LBE1818:
 547:Menus.cpp     ****         if(this->menuStateEnv > 3)
 6553              		.loc 2 547 9 is_stmt 1 view .LVU1759
 547:Menus.cpp     ****         if(this->menuStateEnv > 3)
 6554              		.loc 2 547 49 is_stmt 0 view .LVU1760
 6555 044c 0133     		adds	r3, r3, #1
 548:Menus.cpp     ****         {
 6556              		.loc 2 548 9 view .LVU1761
 6557 044e 032B     		cmp	r3, #3
 547:Menus.cpp     ****         if(this->menuStateEnv > 3)
 6558              		.loc 2 547 28 view .LVU1762
 6559 0450 C7F8AC31 		str	r3, [r7, #428]
 548:Menus.cpp     ****         {
 6560              		.loc 2 548 9 is_stmt 1 view .LVU1763
 6561 0454 7FF7EDAD 		ble	.L366
 6562              	.L363:
 550:Menus.cpp     ****         }
 6563              		.loc 2 550 13 view .LVU1764
 550:Menus.cpp     ****         }
 6564              		.loc 2 550 32 is_stmt 0 view .LVU1765
 6565 0458 0023     		movs	r3, #0
 6566 045a C7F8AC31 		str	r3, [r7, #428]
 553:Menus.cpp     ****     {
 6567              		.loc 2 553 5 is_stmt 1 view .LVU1766
ARM GAS  C:\Users\VINCIU~1\AppData\Local\Temp\ccdhDWPe.s 			page 169


 6568              	.L365:
 555:Menus.cpp     ****         env.SetTime(daisysp::ADSR_SEG_ATTACK, this->attackTime / 100);
 6569              		.loc 2 555 9 view .LVU1767
 6570              	.LVL433:
 6571              	.LBB1819:
 6572              	.LBI1819:
  41:../../libdaisy/src/hid/encoder.h ****     /** Returns true if the encoder was just pressed.
 6573              		.loc 3 41 20 view .LVU1768
 6574              	.LBB1820:
  41:../../libdaisy/src/hid/encoder.h ****     /** Returns true if the encoder was just pressed.
 6575              		.loc 3 41 40 view .LVU1769
  41:../../libdaisy/src/hid/encoder.h ****     /** Returns true if the encoder was just pressed.
 6576              		.loc 3 41 40 is_stmt 0 view .LVU1770
 6577              	.LBE1820:
 6578              	.LBE1819:
 555:Menus.cpp     ****         env.SetTime(daisysp::ADSR_SEG_ATTACK, this->attackTime / 100);
 6579              		.loc 2 555 26 view .LVU1771
 6580 045e 97ED667A 		vldr.32	s14, [r7, #408]
 556:Menus.cpp     ****         this->attackTimeScaleDraw += this->encoderRight.Increment();
 6581              		.loc 2 556 20 view .LVU1772
 6582 0462 0121     		movs	r1, #1
 555:Menus.cpp     ****         env.SetTime(daisysp::ADSR_SEG_ATTACK, this->attackTime / 100);
 6583              		.loc 2 555 60 view .LVU1773
 6584 0464 D7ED127A 		vldr.32	s15, [r7, #72]	@ int
 556:Menus.cpp     ****         this->attackTimeScaleDraw += this->encoderRight.Increment();
 6585              		.loc 2 556 20 view .LVU1774
 6586 0468 2846     		mov	r0, r5
 6587 046a 1FED420A 		vldr.32	s0, .L533+44
 555:Menus.cpp     ****         env.SetTime(daisysp::ADSR_SEG_ATTACK, this->attackTime / 100);
 6588              		.loc 2 555 60 view .LVU1775
 6589 046e B8EEE76B 		vcvt.f64.s32	d6, s15
 555:Menus.cpp     ****         env.SetTime(daisysp::ADSR_SEG_ATTACK, this->attackTime / 100);
 6590              		.loc 2 555 26 view .LVU1776
 6591 0472 B7EEC77A 		vcvt.f64.f32	d7, s14
 6592 0476 9FEDE65B 		vldr.64	d5, .L536
 6593 047a A6EE057B 		vfma.f64	d7, d6, d5
 6594 047e B7EEC77B 		vcvt.f32.f64	s14, d7
 556:Menus.cpp     ****         this->attackTimeScaleDraw += this->encoderRight.Increment();
 6595              		.loc 2 556 20 view .LVU1777
 6596 0482 87EE000A 		vdiv.f32	s0, s14, s0
 555:Menus.cpp     ****         env.SetTime(daisysp::ADSR_SEG_ATTACK, this->attackTime / 100);
 6597              		.loc 2 555 26 view .LVU1778
 6598 0486 87ED667A 		vstr.32	s14, [r7, #408]
 556:Menus.cpp     ****         this->attackTimeScaleDraw += this->encoderRight.Increment();
 6599              		.loc 2 556 9 is_stmt 1 view .LVU1779
 556:Menus.cpp     ****         this->attackTimeScaleDraw += this->encoderRight.Increment();
 6600              		.loc 2 556 20 is_stmt 0 view .LVU1780
 6601 048a FFF7FEFF 		bl	_ZN7daisysp4Adsr7SetTimeEif
 6602              	.LVL434:
 557:Menus.cpp     ****         if(attackTimeScaleDraw >= screen.Width() / 4)
 6603              		.loc 2 557 9 is_stmt 1 view .LVU1781
 6604              	.LBB1821:
 6605              	.LBI1821:
  41:../../libdaisy/src/hid/encoder.h ****     /** Returns true if the encoder was just pressed.
 6606              		.loc 3 41 20 view .LVU1782
 6607              	.LBB1822:
  41:../../libdaisy/src/hid/encoder.h ****     /** Returns true if the encoder was just pressed.
ARM GAS  C:\Users\VINCIU~1\AppData\Local\Temp\ccdhDWPe.s 			page 170


 6608              		.loc 3 41 40 view .LVU1783
  41:../../libdaisy/src/hid/encoder.h ****     /** Returns true if the encoder was just pressed.
 6609              		.loc 3 41 40 is_stmt 0 view .LVU1784
 6610              	.LBE1822:
 6611              	.LBE1821:
 557:Menus.cpp     ****         if(attackTimeScaleDraw >= screen.Width() / 4)
 6612              		.loc 2 557 35 view .LVU1785
 6613 048e D7ED127A 		vldr.32	s15, [r7, #72]	@ int
 6614 0492 D7ED696A 		vldr.32	s13, [r7, #420]
 558:Menus.cpp     ****         {
 6615              		.loc 2 558 9 view .LVU1786
 6616 0496 9FEDE07A 		vldr.32	s14, .L536+8
 557:Menus.cpp     ****         if(attackTimeScaleDraw >= screen.Width() / 4)
 6617              		.loc 2 557 35 view .LVU1787
 6618 049a F8EEE77A 		vcvt.f32.s32	s15, s15
 6619 049e 77EEA67A 		vadd.f32	s15, s15, s13
 558:Menus.cpp     ****         {
 6620              		.loc 2 558 9 is_stmt 1 view .LVU1788
 6621 04a2 F4EEC77A 		vcmpe.f32	s15, s14
 6622 04a6 F1EE10FA 		vmrs	APSR_nzcv, FPSCR
 6623 04aa 80F2A881 		bge	.L529
 562:Menus.cpp     ****         {
 6624              		.loc 2 562 9 view .LVU1789
 6625 04ae F5EEC07A 		vcmpe.f32	s15, #0
 6626 04b2 0023     		movs	r3, #0
 6627 04b4 F1EE10FA 		vmrs	APSR_nzcv, FPSCR
 557:Menus.cpp     ****         if(attackTimeScaleDraw >= screen.Width() / 4)
 6628              		.loc 2 557 35 is_stmt 0 view .LVU1790
 6629 04b8 8CBF     		ite	hi
 6630 04ba C7ED697A 		vstrhi.32	s15, [r7, #420]
 564:Menus.cpp     ****         }
 6631              		.loc 2 564 13 is_stmt 1 view .LVU1791
 564:Menus.cpp     ****         }
 6632              		.loc 2 564 33 is_stmt 0 view .LVU1792
 6633 04be C7F8A431 		strls	r3, [r7, #420]	@ float
 6634              	.L370:
 566:Menus.cpp     ****         {
 6635              		.loc 2 566 9 is_stmt 1 view .LVU1793
 566:Menus.cpp     ****         {
 6636              		.loc 2 566 12 is_stmt 0 view .LVU1794
 6637 04c2 D7ED667A 		vldr.32	s15, [r7, #408]
 566:Menus.cpp     ****         {
 6638              		.loc 2 566 9 view .LVU1795
 6639 04c6 9FEDD57A 		vldr.32	s14, .L536+12
 6640 04ca F4EEC77A 		vcmpe.f32	s15, s14
 6641 04ce F1EE10FA 		vmrs	APSR_nzcv, FPSCR
 6642 04d2 C0F2B381 		blt	.L515
 568:Menus.cpp     ****         }
 6643              		.loc 2 568 13 is_stmt 1 view .LVU1796
 568:Menus.cpp     ****         }
 6644              		.loc 2 568 24 is_stmt 0 view .LVU1797
 6645 04d6 87ED667A 		vstr.32	s14, [r7, #408]
 570:Menus.cpp     ****         {
 6646              		.loc 2 570 9 is_stmt 1 view .LVU1798
 6647              	.L374:
 574:Menus.cpp     ****     }
 6648              		.loc 2 574 9 view .LVU1799
ARM GAS  C:\Users\VINCIU~1\AppData\Local\Temp\ccdhDWPe.s 			page 171


 6649              	.LVL435:
 6650              	.LBB1823:
 6651              	.LBI1823:
 217:../../libdaisy/src/hid/disp/display.h ****                   uint_fast8_t y1,
 6652              		.loc 5 217 10 view .LVU1800
 6653              	.LBB1824:
 6654              	.LBI1824:
 181:../../libdaisy/src/hid/disp/display.h ****                   uint_fast8_t y1,
 6655              		.loc 5 181 10 view .LVU1801
 6656              	.LBB1825:
 6657              	.LBB1826:
 6658              	.LBI1826:
  41:../../libdaisy/src/hid/disp/oled_display.h ****     {
 6659              		.loc 1 41 10 view .LVU1802
 6660              	.LBB1827:
 6661              	.LBI1827:
 239:../../libdaisy/src/dev/oled_ssd130x.h ****     {
 6662              		.loc 6 239 10 view .LVU1803
 6663              	.LBB1828:
 244:../../libdaisy/src/dev/oled_ssd130x.h ****         else
 6664              		.loc 6 244 42 is_stmt 0 view .LVU1804
 6665 04da 94F83C20 		ldrb	r2, [r4, #60]	@ zero_extendqisi2
 6666 04de 04F12F03 		add	r3, r4, #47
 6667 04e2 04F13B01 		add	r1, r4, #59
 6668 04e6 42F00102 		orr	r2, r2, #1
 6669 04ea 84F83C20 		strb	r2, [r4, #60]
 6670              	.LVL436:
 244:../../libdaisy/src/dev/oled_ssd130x.h ****         else
 6671              		.loc 6 244 42 view .LVU1805
 6672              	.LBE1828:
 6673              	.LBE1827:
 6674              	.LBE1826:
 199:../../libdaisy/src/hid/disp/display.h ****         {
 6675              		.loc 5 199 26 is_stmt 1 view .LVU1806
 6676              	.L376:
 6677              	.LBB1829:
 6678              	.LBI1829:
  41:../../libdaisy/src/hid/disp/oled_display.h ****     {
 6679              		.loc 1 41 10 view .LVU1807
 6680              	.LBB1830:
 6681              	.LBI1830:
 239:../../libdaisy/src/dev/oled_ssd130x.h ****     {
 6682              		.loc 6 239 10 view .LVU1808
 6683              	.LBB1831:
 244:../../libdaisy/src/dev/oled_ssd130x.h ****         else
 6684              		.loc 6 244 42 is_stmt 0 view .LVU1809
 6685 04ee 13F8012F 		ldrb	r2, [r3, #1]!	@ zero_extendqisi2
 6686              	.LVL437:
 244:../../libdaisy/src/dev/oled_ssd130x.h ****         else
 6687              		.loc 6 244 42 view .LVU1810
 6688 04f2 42F00102 		orr	r2, r2, #1
 6689              	.LBE1831:
 6690              	.LBE1830:
 6691              	.LBE1829:
 199:../../libdaisy/src/hid/disp/display.h ****         {
 6692              		.loc 5 199 26 view .LVU1811
 6693 04f6 9942     		cmp	r1, r3
ARM GAS  C:\Users\VINCIU~1\AppData\Local\Temp\ccdhDWPe.s 			page 172


 6694              	.LBB1834:
 6695              	.LBB1833:
 6696              	.LBB1832:
 244:../../libdaisy/src/dev/oled_ssd130x.h ****         else
 6697              		.loc 6 244 42 view .LVU1812
 6698 04f8 1A70     		strb	r2, [r3]
 6699              	.LVL438:
 244:../../libdaisy/src/dev/oled_ssd130x.h ****         else
 6700              		.loc 6 244 42 view .LVU1813
 6701              	.LBE1832:
 6702              	.LBE1833:
 6703              	.LBE1834:
 199:../../libdaisy/src/hid/disp/display.h ****         {
 6704              		.loc 5 199 26 is_stmt 1 view .LVU1814
 6705 04fa F8D1     		bne	.L376
 6706              	.LVL439:
 199:../../libdaisy/src/hid/disp/display.h ****         {
 6707              		.loc 5 199 26 is_stmt 0 view .LVU1815
 6708              	.LBE1825:
 6709              	.LBE1824:
 6710              	.LBB1835:
 6711              	.LBI1835:
 181:../../libdaisy/src/hid/disp/display.h ****                   uint_fast8_t y1,
 6712              		.loc 5 181 10 is_stmt 1 view .LVU1816
 6713              	.LBB1836:
 6714              	.LBB1837:
 6715              	.LBI1837:
  41:../../libdaisy/src/hid/disp/oled_display.h ****     {
 6716              		.loc 1 41 10 view .LVU1817
 6717              	.LBB1838:
 6718              	.LBI1838:
 239:../../libdaisy/src/dev/oled_ssd130x.h ****     {
 6719              		.loc 6 239 10 view .LVU1818
 6720              	.LBB1839:
 244:../../libdaisy/src/dev/oled_ssd130x.h ****         else
 6721              		.loc 6 244 42 is_stmt 0 view .LVU1819
 6722 04fc 94F8BC30 		ldrb	r3, [r4, #188]	@ zero_extendqisi2
 6723 0500 0022     		movs	r2, #0
 6724 0502 43F02003 		orr	r3, r3, #32
 6725 0506 84F8BC30 		strb	r3, [r4, #188]
 6726              	.LVL440:
 244:../../libdaisy/src/dev/oled_ssd130x.h ****         else
 6727              		.loc 6 244 42 view .LVU1820
 6728              	.LBE1839:
 6729              	.LBE1838:
 6730              	.LBE1837:
 199:../../libdaisy/src/hid/disp/display.h ****         {
 6731              		.loc 5 199 26 is_stmt 1 view .LVU1821
 6732              	.L377:
 6733              	.LBB1840:
 6734              	.LBI1840:
  41:../../libdaisy/src/hid/disp/oled_display.h ****     {
 6735              		.loc 1 41 10 view .LVU1822
 6736              	.LBB1841:
 6737              	.LBI1841:
 239:../../libdaisy/src/dev/oled_ssd130x.h ****     {
 6738              		.loc 6 239 10 view .LVU1823
ARM GAS  C:\Users\VINCIU~1\AppData\Local\Temp\ccdhDWPe.s 			page 173


 6739              	.LBB1842:
 244:../../libdaisy/src/dev/oled_ssd130x.h ****         else
 6740              		.loc 6 244 28 is_stmt 0 view .LVU1824
 6741 050a D108     		lsrs	r1, r2, #3
 244:../../libdaisy/src/dev/oled_ssd130x.h ****         else
 6742              		.loc 6 244 54 view .LVU1825
 6743 050c 02F00700 		and	r0, r2, #7
 244:../../libdaisy/src/dev/oled_ssd130x.h ****         else
 6744              		.loc 6 244 48 view .LVU1826
 6745 0510 0123     		movs	r3, #1
 244:../../libdaisy/src/dev/oled_ssd130x.h ****         else
 6746              		.loc 6 244 42 view .LVU1827
 6747 0512 04EBC111 		add	r1, r4, r1, lsl #7
 6748              	.LBE1842:
 6749              	.LBE1841:
 6750              	.LBE1840:
 212:../../libdaisy/src/hid/disp/display.h ****             }
 6751              		.loc 5 212 20 view .LVU1828
 6752 0516 1A44     		add	r2, r2, r3
 6753              	.LVL441:
 6754              	.LBB1847:
 6755              	.LBB1845:
 6756              	.LBB1843:
 244:../../libdaisy/src/dev/oled_ssd130x.h ****         else
 6757              		.loc 6 244 48 view .LVU1829
 6758 0518 8340     		lsls	r3, r3, r0
 244:../../libdaisy/src/dev/oled_ssd130x.h ****         else
 6759              		.loc 6 244 42 view .LVU1830
 6760 051a 91F83C00 		ldrb	r0, [r1, #60]	@ zero_extendqisi2
 6761              	.LBE1843:
 6762              	.LBE1845:
 6763              	.LBE1847:
 199:../../libdaisy/src/hid/disp/display.h ****         {
 6764              		.loc 5 199 26 view .LVU1831
 6765 051e 0D2A     		cmp	r2, #13
 6766              	.LBB1848:
 6767              	.LBB1846:
 6768              	.LBB1844:
 244:../../libdaisy/src/dev/oled_ssd130x.h ****         else
 6769              		.loc 6 244 42 view .LVU1832
 6770 0520 43EA0003 		orr	r3, r3, r0
 6771 0524 81F83C30 		strb	r3, [r1, #60]
 6772              	.LVL442:
 244:../../libdaisy/src/dev/oled_ssd130x.h ****         else
 6773              		.loc 6 244 42 view .LVU1833
 6774              	.LBE1844:
 6775              	.LBE1846:
 6776              	.LBE1848:
 199:../../libdaisy/src/hid/disp/display.h ****         {
 6777              		.loc 5 199 26 is_stmt 1 view .LVU1834
 6778 0528 EFD1     		bne	.L377
 6779              	.LVL443:
 199:../../libdaisy/src/hid/disp/display.h ****         {
 6780              		.loc 5 199 26 is_stmt 0 view .LVU1835
 6781              	.LBE1836:
 6782              	.LBE1835:
 6783              	.LBB1849:
ARM GAS  C:\Users\VINCIU~1\AppData\Local\Temp\ccdhDWPe.s 			page 174


 6784              	.LBI1849:
 181:../../libdaisy/src/hid/disp/display.h ****                   uint_fast8_t y1,
 6785              		.loc 5 181 10 is_stmt 1 view .LVU1836
 6786              	.LBB1850:
 6787              	.LBB1851:
 6788              	.LBI1851:
  41:../../libdaisy/src/hid/disp/oled_display.h ****     {
 6789              		.loc 1 41 10 view .LVU1837
 6790              	.LBB1852:
 6791              	.LBI1852:
 239:../../libdaisy/src/dev/oled_ssd130x.h ****     {
 6792              		.loc 6 239 10 view .LVU1838
 6793              	.LBB1853:
 244:../../libdaisy/src/dev/oled_ssd130x.h ****         else
 6794              		.loc 6 244 42 is_stmt 0 view .LVU1839
 6795 052a 94F8B010 		ldrb	r1, [r4, #176]	@ zero_extendqisi2
 6796 052e 04F1BD03 		add	r3, r4, #189
 6797 0532 04F1B100 		add	r0, r4, #177
 6798 0536 41F02001 		orr	r1, r1, #32
 6799 053a 84F8B010 		strb	r1, [r4, #176]
 6800              	.LVL444:
 244:../../libdaisy/src/dev/oled_ssd130x.h ****         else
 6801              		.loc 6 244 42 view .LVU1840
 6802              	.LBE1853:
 6803              	.LBE1852:
 6804              	.LBE1851:
 199:../../libdaisy/src/hid/disp/display.h ****         {
 6805              		.loc 5 199 26 is_stmt 1 view .LVU1841
 6806              	.L378:
 6807              	.LBB1854:
 6808              	.LBI1854:
  41:../../libdaisy/src/hid/disp/oled_display.h ****     {
 6809              		.loc 1 41 10 view .LVU1842
 6810              	.LBB1855:
 6811              	.LBI1855:
 239:../../libdaisy/src/dev/oled_ssd130x.h ****     {
 6812              		.loc 6 239 10 view .LVU1843
 6813              	.LBB1856:
 244:../../libdaisy/src/dev/oled_ssd130x.h ****         else
 6814              		.loc 6 244 42 is_stmt 0 view .LVU1844
 6815 053e 13F8011D 		ldrb	r1, [r3, #-1]!	@ zero_extendqisi2
 6816              	.LVL445:
 244:../../libdaisy/src/dev/oled_ssd130x.h ****         else
 6817              		.loc 6 244 42 view .LVU1845
 6818 0542 41F02001 		orr	r1, r1, #32
 6819              	.LBE1856:
 6820              	.LBE1855:
 6821              	.LBE1854:
 199:../../libdaisy/src/hid/disp/display.h ****         {
 6822              		.loc 5 199 26 view .LVU1846
 6823 0546 9842     		cmp	r0, r3
 6824              	.LBB1859:
 6825              	.LBB1858:
 6826              	.LBB1857:
 244:../../libdaisy/src/dev/oled_ssd130x.h ****         else
 6827              		.loc 6 244 42 view .LVU1847
 6828 0548 1970     		strb	r1, [r3]
ARM GAS  C:\Users\VINCIU~1\AppData\Local\Temp\ccdhDWPe.s 			page 175


 6829              	.LVL446:
 244:../../libdaisy/src/dev/oled_ssd130x.h ****         else
 6830              		.loc 6 244 42 view .LVU1848
 6831              	.LBE1857:
 6832              	.LBE1858:
 6833              	.LBE1859:
 199:../../libdaisy/src/hid/disp/display.h ****         {
 6834              		.loc 5 199 26 is_stmt 1 view .LVU1849
 6835 054a F8D1     		bne	.L378
 6836              	.LVL447:
 199:../../libdaisy/src/hid/disp/display.h ****         {
 6837              		.loc 5 199 26 is_stmt 0 view .LVU1850
 6838              	.LBE1850:
 6839              	.LBE1849:
 6840              	.LBB1860:
 6841              	.LBI1860:
 181:../../libdaisy/src/hid/disp/display.h ****                   uint_fast8_t y1,
 6842              		.loc 5 181 10 is_stmt 1 view .LVU1851
 6843              	.LBB1861:
 6844              	.LBB1862:
 6845              	.LBI1862:
  41:../../libdaisy/src/hid/disp/oled_display.h ****     {
 6846              		.loc 1 41 10 view .LVU1852
 6847              	.LBB1863:
 6848              	.LBI1863:
 239:../../libdaisy/src/dev/oled_ssd130x.h ****     {
 6849              		.loc 6 239 10 view .LVU1853
 6850              	.LBB1864:
 244:../../libdaisy/src/dev/oled_ssd130x.h ****         else
 6851              		.loc 6 244 42 is_stmt 0 view .LVU1854
 6852 054c 94F83030 		ldrb	r3, [r4, #48]	@ zero_extendqisi2
 6853 0550 43F00103 		orr	r3, r3, #1
 6854 0554 84F83030 		strb	r3, [r4, #48]
 6855              	.LVL448:
 244:../../libdaisy/src/dev/oled_ssd130x.h ****         else
 6856              		.loc 6 244 42 view .LVU1855
 6857              	.LBE1864:
 6858              	.LBE1863:
 6859              	.LBE1862:
 199:../../libdaisy/src/hid/disp/display.h ****         {
 6860              		.loc 5 199 26 is_stmt 1 view .LVU1856
 6861              	.L379:
 6862              	.LBB1865:
 6863              	.LBI1865:
  41:../../libdaisy/src/hid/disp/oled_display.h ****     {
 6864              		.loc 1 41 10 view .LVU1857
 6865              	.LBB1866:
 6866              	.LBI1866:
 239:../../libdaisy/src/dev/oled_ssd130x.h ****     {
 6867              		.loc 6 239 10 view .LVU1858
 6868              	.LBB1867:
 244:../../libdaisy/src/dev/oled_ssd130x.h ****         else
 6869              		.loc 6 244 28 is_stmt 0 view .LVU1859
 6870 0558 D108     		lsrs	r1, r2, #3
 244:../../libdaisy/src/dev/oled_ssd130x.h ****         else
 6871              		.loc 6 244 54 view .LVU1860
 6872 055a 02F00700 		and	r0, r2, #7
ARM GAS  C:\Users\VINCIU~1\AppData\Local\Temp\ccdhDWPe.s 			page 176


 244:../../libdaisy/src/dev/oled_ssd130x.h ****         else
 6873              		.loc 6 244 48 view .LVU1861
 6874 055e 0123     		movs	r3, #1
 6875              	.LBE1867:
 6876              	.LBE1866:
 6877              	.LBE1865:
 199:../../libdaisy/src/hid/disp/display.h ****         {
 6878              		.loc 5 199 26 view .LVU1862
 6879 0560 013A     		subs	r2, r2, #1
 6880              	.LVL449:
 6881              	.LBB1870:
 6882              	.LBB1869:
 6883              	.LBB1868:
 244:../../libdaisy/src/dev/oled_ssd130x.h ****         else
 6884              		.loc 6 244 42 view .LVU1863
 6885 0562 04EBC111 		add	r1, r4, r1, lsl #7
 244:../../libdaisy/src/dev/oled_ssd130x.h ****         else
 6886              		.loc 6 244 48 view .LVU1864
 6887 0566 03FA00F3 		lsl	r3, r3, r0
 244:../../libdaisy/src/dev/oled_ssd130x.h ****         else
 6888              		.loc 6 244 42 view .LVU1865
 6889 056a 91F83000 		ldrb	r0, [r1, #48]	@ zero_extendqisi2
 6890 056e 43EA0003 		orr	r3, r3, r0
 6891 0572 81F83030 		strb	r3, [r1, #48]
 6892              	.LVL450:
 244:../../libdaisy/src/dev/oled_ssd130x.h ****         else
 6893              		.loc 6 244 42 view .LVU1866
 6894              	.LBE1868:
 6895              	.LBE1869:
 6896              	.LBE1870:
 199:../../libdaisy/src/hid/disp/display.h ****         {
 6897              		.loc 5 199 26 is_stmt 1 view .LVU1867
 6898 0576 EFD1     		bne	.L379
 6899              	.LBE1861:
 6900              	.LBE1860:
 6901              	.LBE1823:
 576:Menus.cpp     ****     {
 6902              		.loc 2 576 8 is_stmt 0 view .LVU1868
 6903 0578 D7F8AC31 		ldr	r3, [r7, #428]
 6904              	.LVL451:
 576:Menus.cpp     ****     {
 6905              		.loc 2 576 5 is_stmt 1 view .LVU1869
 6906 057c 012B     		cmp	r3, #1
 6907 057e 7FF45EAD 		bne	.L381
 6908              	.LVL452:
 6909              	.L526:
 578:Menus.cpp     ****         env.SetTime(daisysp::ADSR_SEG_DECAY, this->decayTime / 100);
 6910              		.loc 2 578 9 view .LVU1870
 6911              	.LBB1871:
 6912              	.LBI1871:
  41:../../libdaisy/src/hid/encoder.h ****     /** Returns true if the encoder was just pressed.
 6913              		.loc 3 41 20 view .LVU1871
 6914              	.LBB1872:
  41:../../libdaisy/src/hid/encoder.h ****     /** Returns true if the encoder was just pressed.
 6915              		.loc 3 41 40 view .LVU1872
  41:../../libdaisy/src/hid/encoder.h ****     /** Returns true if the encoder was just pressed.
 6916              		.loc 3 41 40 is_stmt 0 view .LVU1873
ARM GAS  C:\Users\VINCIU~1\AppData\Local\Temp\ccdhDWPe.s 			page 177


 6917              	.LBE1872:
 6918              	.LBE1871:
 578:Menus.cpp     ****         env.SetTime(daisysp::ADSR_SEG_DECAY, this->decayTime / 100);
 6919              		.loc 2 578 25 view .LVU1874
 6920 0582 97ED6D7A 		vldr.32	s14, [r7, #436]
 579:Menus.cpp     ****         this->decayTimeScaleDraw += this->encoderRight.Increment();
 6921              		.loc 2 579 20 view .LVU1875
 6922 0586 0221     		movs	r1, #2
 578:Menus.cpp     ****         env.SetTime(daisysp::ADSR_SEG_DECAY, this->decayTime / 100);
 6923              		.loc 2 578 59 view .LVU1876
 6924 0588 D7ED127A 		vldr.32	s15, [r7, #72]	@ int
 579:Menus.cpp     ****         this->decayTimeScaleDraw += this->encoderRight.Increment();
 6925              		.loc 2 579 20 view .LVU1877
 6926 058c 2846     		mov	r0, r5
 6927 058e 9FEDA30A 		vldr.32	s0, .L536+12
 578:Menus.cpp     ****         env.SetTime(daisysp::ADSR_SEG_DECAY, this->decayTime / 100);
 6928              		.loc 2 578 59 view .LVU1878
 6929 0592 B8EEE76B 		vcvt.f64.s32	d6, s15
 578:Menus.cpp     ****         env.SetTime(daisysp::ADSR_SEG_DECAY, this->decayTime / 100);
 6930              		.loc 2 578 25 view .LVU1879
 6931 0596 B7EEC77A 		vcvt.f64.f32	d7, s14
 6932 059a 9FED9D5B 		vldr.64	d5, .L536
 6933 059e A6EE057B 		vfma.f64	d7, d6, d5
 6934 05a2 B7EEC77B 		vcvt.f32.f64	s14, d7
 579:Menus.cpp     ****         this->decayTimeScaleDraw += this->encoderRight.Increment();
 6935              		.loc 2 579 20 view .LVU1880
 6936 05a6 87EE000A 		vdiv.f32	s0, s14, s0
 578:Menus.cpp     ****         env.SetTime(daisysp::ADSR_SEG_DECAY, this->decayTime / 100);
 6937              		.loc 2 578 25 view .LVU1881
 6938 05aa 87ED6D7A 		vstr.32	s14, [r7, #436]
 579:Menus.cpp     ****         this->decayTimeScaleDraw += this->encoderRight.Increment();
 6939              		.loc 2 579 9 is_stmt 1 view .LVU1882
 579:Menus.cpp     ****         this->decayTimeScaleDraw += this->encoderRight.Increment();
 6940              		.loc 2 579 20 is_stmt 0 view .LVU1883
 6941 05ae FFF7FEFF 		bl	_ZN7daisysp4Adsr7SetTimeEif
 6942              	.LVL453:
 580:Menus.cpp     ****         if(decayTimeScaleDraw >= screen.Width() / 4)
 6943              		.loc 2 580 9 is_stmt 1 view .LVU1884
 6944              	.LBB1873:
 6945              	.LBI1873:
  41:../../libdaisy/src/hid/encoder.h ****     /** Returns true if the encoder was just pressed.
 6946              		.loc 3 41 20 view .LVU1885
 6947              	.LBB1874:
  41:../../libdaisy/src/hid/encoder.h ****     /** Returns true if the encoder was just pressed.
 6948              		.loc 3 41 40 view .LVU1886
  41:../../libdaisy/src/hid/encoder.h ****     /** Returns true if the encoder was just pressed.
 6949              		.loc 3 41 40 is_stmt 0 view .LVU1887
 6950              	.LBE1874:
 6951              	.LBE1873:
 580:Menus.cpp     ****         if(decayTimeScaleDraw >= screen.Width() / 4)
 6952              		.loc 2 580 34 view .LVU1888
 6953 05b2 D7ED127A 		vldr.32	s15, [r7, #72]	@ int
 6954 05b6 D7ED6E6A 		vldr.32	s13, [r7, #440]
 581:Menus.cpp     ****         {
 6955              		.loc 2 581 9 view .LVU1889
 6956 05ba 9FED977A 		vldr.32	s14, .L536+8
 580:Menus.cpp     ****         if(decayTimeScaleDraw >= screen.Width() / 4)
ARM GAS  C:\Users\VINCIU~1\AppData\Local\Temp\ccdhDWPe.s 			page 178


 6957              		.loc 2 580 34 view .LVU1890
 6958 05be F8EEE77A 		vcvt.f32.s32	s15, s15
 6959 05c2 77EEA67A 		vadd.f32	s15, s15, s13
 581:Menus.cpp     ****         {
 6960              		.loc 2 581 9 is_stmt 1 view .LVU1891
 6961 05c6 F4EEC77A 		vcmpe.f32	s15, s14
 6962 05ca F1EE10FA 		vmrs	APSR_nzcv, FPSCR
 6963 05ce 80F21981 		bge	.L530
 585:Menus.cpp     ****         {
 6964              		.loc 2 585 9 view .LVU1892
 6965 05d2 F5EEC07A 		vcmpe.f32	s15, #0
 6966 05d6 0023     		movs	r3, #0
 6967 05d8 F1EE10FA 		vmrs	APSR_nzcv, FPSCR
 580:Menus.cpp     ****         if(decayTimeScaleDraw >= screen.Width() / 4)
 6968              		.loc 2 580 34 is_stmt 0 view .LVU1893
 6969 05dc 8CBF     		ite	hi
 6970 05de C7ED6E7A 		vstrhi.32	s15, [r7, #440]
 587:Menus.cpp     ****         }
 6971              		.loc 2 587 13 is_stmt 1 view .LVU1894
 587:Menus.cpp     ****         }
 6972              		.loc 2 587 32 is_stmt 0 view .LVU1895
 6973 05e2 C7F8B831 		strls	r3, [r7, #440]	@ float
 6974              	.L384:
 589:Menus.cpp     ****         {
 6975              		.loc 2 589 9 is_stmt 1 view .LVU1896
 589:Menus.cpp     ****         {
 6976              		.loc 2 589 12 is_stmt 0 view .LVU1897
 6977 05e6 D7ED6D7A 		vldr.32	s15, [r7, #436]
 589:Menus.cpp     ****         {
 6978              		.loc 2 589 9 view .LVU1898
 6979 05ea 9FED8C7A 		vldr.32	s14, .L536+12
 6980 05ee F4EEC77A 		vcmpe.f32	s15, s14
 6981 05f2 F1EE10FA 		vmrs	APSR_nzcv, FPSCR
 6982 05f6 C0F23081 		blt	.L517
 591:Menus.cpp     ****         }
 6983              		.loc 2 591 13 is_stmt 1 view .LVU1899
 591:Menus.cpp     ****         }
 6984              		.loc 2 591 23 is_stmt 0 view .LVU1900
 6985 05fa 87ED6D7A 		vstr.32	s14, [r7, #436]
 593:Menus.cpp     ****         {
 6986              		.loc 2 593 9 is_stmt 1 view .LVU1901
 6987              	.L388:
 597:Menus.cpp     ****     }
 6988              		.loc 2 597 9 view .LVU1902
 597:Menus.cpp     ****     }
 6989              		.loc 2 597 24 is_stmt 0 view .LVU1903
 6990 05fe 0022     		movs	r2, #0
 6991 0600 0121     		movs	r1, #1
 6992 0602 0D23     		movs	r3, #13
 6993 0604 2046     		mov	r0, r4
 6994 0606 CDE90112 		strd	r1, r2, [sp, #4]
 6995 060a 0093     		str	r3, [sp]
 6996 060c 2C21     		movs	r1, #44
 6997 060e 3823     		movs	r3, #56
 6998 0610 FFF7FEFF 		bl	_ZN5daisy25OneBitGraphicsDisplayImplINS_11OledDisplayINS_13SSD130xDriverILj128ELj64ENS_24SSD130
 6999              	.LVL454:
 599:Menus.cpp     ****     {
ARM GAS  C:\Users\VINCIU~1\AppData\Local\Temp\ccdhDWPe.s 			page 179


 7000              		.loc 2 599 8 view .LVU1904
 7001 0614 D7F8AC31 		ldr	r3, [r7, #428]
 599:Menus.cpp     ****     {
 7002              		.loc 2 599 5 is_stmt 1 view .LVU1905
 7003 0618 022B     		cmp	r3, #2
 7004 061a 7FF413AD 		bne	.L390
 7005              	.L527:
 601:Menus.cpp     ****         env.SetSustainLevel(this->sustatinLevel / 100);
 7006              		.loc 2 601 9 view .LVU1906
 7007              	.LVL455:
 7008              	.LBB1875:
 7009              	.LBI1875:
  41:../../libdaisy/src/hid/encoder.h ****     /** Returns true if the encoder was just pressed.
 7010              		.loc 3 41 20 view .LVU1907
 7011              	.LBB1876:
  41:../../libdaisy/src/hid/encoder.h ****     /** Returns true if the encoder was just pressed.
 7012              		.loc 3 41 40 view .LVU1908
 7013              	.LBE1876:
 7014              	.LBE1875:
 601:Menus.cpp     ****         env.SetSustainLevel(this->sustatinLevel / 100);
 7015              		.loc 2 601 29 is_stmt 0 view .LVU1909
 7016 061e 97ED707A 		vldr.32	s14, [r7, #448]
 7017              	.LBB1878:
 7018              	.LBB1877:
  41:../../libdaisy/src/hid/encoder.h ****     /** Returns true if the encoder was just pressed.
 7019              		.loc 3 41 47 view .LVU1910
 7020 0622 D7ED126A 		vldr.32	s13, [r7, #72]	@ int
 7021              	.LVL456:
  41:../../libdaisy/src/hid/encoder.h ****     /** Returns true if the encoder was just pressed.
 7022              		.loc 3 41 47 view .LVU1911
 7023              	.LBE1877:
 7024              	.LBE1878:
 601:Menus.cpp     ****         env.SetSustainLevel(this->sustatinLevel / 100);
 7025              		.loc 2 601 29 view .LVU1912
 7026 0626 B7EEC77A 		vcvt.f64.f32	d7, s14
 602:Menus.cpp     ****         this->sustatinLevelScaleDraw += this->encoderRight.Increment();
 7027              		.loc 2 602 28 view .LVU1913
 7028 062a DFED7C5A 		vldr.32	s11, .L536+12
 601:Menus.cpp     ****         env.SetSustainLevel(this->sustatinLevel / 100);
 7029              		.loc 2 601 63 view .LVU1914
 7030 062e B8EEE63B 		vcvt.f64.s32	d3, s13
 601:Menus.cpp     ****         env.SetSustainLevel(this->sustatinLevel / 100);
 7031              		.loc 2 601 29 view .LVU1915
 7032 0632 9FED774B 		vldr.64	d4, .L536
 7033 0636 A3EE047B 		vfma.f64	d7, d3, d4
 7034 063a B7EEC77B 		vcvt.f32.f64	s14, d7
 602:Menus.cpp     ****         this->sustatinLevelScaleDraw += this->encoderRight.Increment();
 7035              		.loc 2 602 28 view .LVU1916
 7036 063e 87EE256A 		vdiv.f32	s12, s14, s11
 601:Menus.cpp     ****         env.SetSustainLevel(this->sustatinLevel / 100);
 7037              		.loc 2 601 29 view .LVU1917
 7038 0642 87ED707A 		vstr.32	s14, [r7, #448]
 602:Menus.cpp     ****         this->sustatinLevelScaleDraw += this->encoderRight.Increment();
 7039              		.loc 2 602 9 is_stmt 1 view .LVU1918
 7040              	.LVL457:
 7041              	.LBB1879:
 7042              	.LBI1879:
ARM GAS  C:\Users\VINCIU~1\AppData\Local\Temp\ccdhDWPe.s 			page 180


 7043              		.file 8 "../../DaisySP/Source/Control/adsr.h"
   1:../../DaisySP/Source/Control/adsr.h **** #pragma once
   2:../../DaisySP/Source/Control/adsr.h **** #ifndef DSY_ADSR_H
   3:../../DaisySP/Source/Control/adsr.h **** #define DSY_ADSR_H
   4:../../DaisySP/Source/Control/adsr.h **** 
   5:../../DaisySP/Source/Control/adsr.h **** #include <stdint.h>
   6:../../DaisySP/Source/Control/adsr.h **** #ifdef __cplusplus
   7:../../DaisySP/Source/Control/adsr.h **** 
   8:../../DaisySP/Source/Control/adsr.h **** namespace daisysp
   9:../../DaisySP/Source/Control/adsr.h **** {
  10:../../DaisySP/Source/Control/adsr.h **** /** Distinct stages that the phase of the envelope can be located in.
  11:../../DaisySP/Source/Control/adsr.h **** - IDLE   = located at phase location 0, and not currently running
  12:../../DaisySP/Source/Control/adsr.h **** - ATTACK  = First segment of envelope where phase moves from 0 to 1
  13:../../DaisySP/Source/Control/adsr.h **** - DECAY   = Second segment of envelope where phase moves from 1 to SUSTAIN value
  14:../../DaisySP/Source/Control/adsr.h **** - RELEASE =     Fourth segment of envelop where phase moves from SUSTAIN to 0
  15:../../DaisySP/Source/Control/adsr.h **** */
  16:../../DaisySP/Source/Control/adsr.h **** enum
  17:../../DaisySP/Source/Control/adsr.h **** {
  18:../../DaisySP/Source/Control/adsr.h ****     ADSR_SEG_IDLE    = 0,
  19:../../DaisySP/Source/Control/adsr.h ****     ADSR_SEG_ATTACK  = 1,
  20:../../DaisySP/Source/Control/adsr.h ****     ADSR_SEG_DECAY   = 2,
  21:../../DaisySP/Source/Control/adsr.h ****     ADSR_SEG_RELEASE = 4
  22:../../DaisySP/Source/Control/adsr.h **** };
  23:../../DaisySP/Source/Control/adsr.h **** 
  24:../../DaisySP/Source/Control/adsr.h **** 
  25:../../DaisySP/Source/Control/adsr.h **** /** adsr envelope module
  26:../../DaisySP/Source/Control/adsr.h **** 
  27:../../DaisySP/Source/Control/adsr.h **** Original author(s) : Paul Batchelor
  28:../../DaisySP/Source/Control/adsr.h **** 
  29:../../DaisySP/Source/Control/adsr.h **** Ported from Soundpipe by Ben Sergentanis, May 2020
  30:../../DaisySP/Source/Control/adsr.h ****  
  31:../../DaisySP/Source/Control/adsr.h **** Remake by Steffan DIedrichsen, May 2021
  32:../../DaisySP/Source/Control/adsr.h **** */
  33:../../DaisySP/Source/Control/adsr.h **** class Adsr
  34:../../DaisySP/Source/Control/adsr.h **** {
  35:../../DaisySP/Source/Control/adsr.h ****   public:
  36:../../DaisySP/Source/Control/adsr.h ****     Adsr() {}
  37:../../DaisySP/Source/Control/adsr.h ****     ~Adsr() {}
  38:../../DaisySP/Source/Control/adsr.h ****     /** Initializes the Adsr module.
  39:../../DaisySP/Source/Control/adsr.h ****         \param sample_rate - The sample rate of the audio engine being run. 
  40:../../DaisySP/Source/Control/adsr.h ****     */
  41:../../DaisySP/Source/Control/adsr.h ****     void Init(float sample_rate, int blockSize = 1);
  42:../../DaisySP/Source/Control/adsr.h ****     /**
  43:../../DaisySP/Source/Control/adsr.h ****      \function Retrigger forces the envelope back to attack phase
  44:../../DaisySP/Source/Control/adsr.h ****      \param hard  resets the history to zero, results in a click.
  45:../../DaisySP/Source/Control/adsr.h ****      */
  46:../../DaisySP/Source/Control/adsr.h ****     void Retrigger(bool hard);
  47:../../DaisySP/Source/Control/adsr.h ****     /** Processes one sample through the filter and returns one sample.
  48:../../DaisySP/Source/Control/adsr.h ****         \param gate - trigger the envelope, hold it to sustain 
  49:../../DaisySP/Source/Control/adsr.h ****     */
  50:../../DaisySP/Source/Control/adsr.h ****     float Process(bool gate);
  51:../../DaisySP/Source/Control/adsr.h ****     /** Sets time
  52:../../DaisySP/Source/Control/adsr.h ****         Set time per segment in seconds
  53:../../DaisySP/Source/Control/adsr.h ****     */
  54:../../DaisySP/Source/Control/adsr.h ****     void SetTime(int seg, float time);
  55:../../DaisySP/Source/Control/adsr.h ****     void SetAttackTime(float timeInS, float shape = 0.0f);
  56:../../DaisySP/Source/Control/adsr.h ****     void SetDecayTime(float timeInS);
ARM GAS  C:\Users\VINCIU~1\AppData\Local\Temp\ccdhDWPe.s 			page 181


  57:../../DaisySP/Source/Control/adsr.h ****     void SetReleaseTime(float timeInS);
  58:../../DaisySP/Source/Control/adsr.h **** 
  59:../../DaisySP/Source/Control/adsr.h ****   private:
  60:../../DaisySP/Source/Control/adsr.h ****     void SetTimeConstant(float timeInS, float& time, float& coeff);
  61:../../DaisySP/Source/Control/adsr.h **** 
  62:../../DaisySP/Source/Control/adsr.h ****   public:
  63:../../DaisySP/Source/Control/adsr.h ****     /** Sustain level
  64:../../DaisySP/Source/Control/adsr.h ****         \param sus_level - sets sustain level, 0...1.0
  65:../../DaisySP/Source/Control/adsr.h ****     */
  66:../../DaisySP/Source/Control/adsr.h ****     inline void SetSustainLevel(float sus_level)
 7044              		.loc 8 66 17 view .LVU1919
 7045              	.LBB1880:
  67:../../DaisySP/Source/Control/adsr.h ****     {
  68:../../DaisySP/Source/Control/adsr.h ****         sus_level = (sus_level <= 0.f) ? -0.01f // forces envelope into idle
 7046              		.loc 8 68 9 view .LVU1920
 7047              		.loc 8 68 40 is_stmt 0 view .LVU1921
 7048 0646 B5EEC06A 		vcmpe.f32	s12, #0
 7049 064a F1EE10FA 		vmrs	APSR_nzcv, FPSCR
 7050 064e 40F2FE80 		bls	.L457
  69:../../DaisySP/Source/Control/adsr.h ****                                        : (sus_level > 1.f) ? 1.f : sus_level;
 7051              		.loc 8 69 60 view .LVU1922
 7052 0652 F7EE007A 		vmov.f32	s15, #1.0e+0
 7053 0656 B4EE676A 		vcmp.f32	s12, s15
 7054 065a F1EE10FA 		vmrs	APSR_nzcv, FPSCR
 7055 065e 37FE866A 		vselgt.f32	s12, s15, s12
 7056              	.LVL458:
 7057              	.L391:
  70:../../DaisySP/Source/Control/adsr.h ****         sus_level_ = sus_level;
 7058              		.loc 8 70 9 is_stmt 1 view .LVU1923
 7059              	.LBE1880:
 7060              	.LBE1879:
 603:Menus.cpp     ****         if(this->sustatinLevelScaleDraw >= screen.Width() / 4)
 7061              		.loc 2 603 38 is_stmt 0 view .LVU1924
 7062 0662 F8EEE67A 		vcvt.f32.s32	s15, s13
 7063              	.LBB1883:
 7064              	.LBB1881:
 7065              		.loc 8 70 20 view .LVU1925
 7066 0666 85ED006A 		vstr.32	s12, [r5]
 7067              	.LVL459:
 7068              		.loc 8 70 20 view .LVU1926
 7069              	.LBE1881:
 7070              	.LBE1883:
 603:Menus.cpp     ****         if(this->sustatinLevelScaleDraw >= screen.Width() / 4)
 7071              		.loc 2 603 9 is_stmt 1 view .LVU1927
  41:../../libdaisy/src/hid/encoder.h ****     /** Returns true if the encoder was just pressed.
 7072              		.loc 3 41 40 view .LVU1928
 603:Menus.cpp     ****         if(this->sustatinLevelScaleDraw >= screen.Width() / 4)
 7073              		.loc 2 603 38 is_stmt 0 view .LVU1929
 7074 066a D7ED726A 		vldr.32	s13, [r7, #456]
 604:Menus.cpp     ****         {
 7075              		.loc 2 604 9 view .LVU1930
 7076 066e 9FED6A7A 		vldr.32	s14, .L536+8
 603:Menus.cpp     ****         if(this->sustatinLevelScaleDraw >= screen.Width() / 4)
 7077              		.loc 2 603 38 view .LVU1931
 7078 0672 77EEA67A 		vadd.f32	s15, s15, s13
 604:Menus.cpp     ****         {
 7079              		.loc 2 604 9 is_stmt 1 view .LVU1932
ARM GAS  C:\Users\VINCIU~1\AppData\Local\Temp\ccdhDWPe.s 			page 182


 7080 0676 F4EEC77A 		vcmpe.f32	s15, s14
 7081 067a F1EE10FA 		vmrs	APSR_nzcv, FPSCR
 7082 067e 80F2BB80 		bge	.L531
 608:Menus.cpp     ****         {
 7083              		.loc 2 608 9 view .LVU1933
 7084 0682 F5EEC07A 		vcmpe.f32	s15, #0
 7085 0686 0023     		movs	r3, #0
 7086 0688 F1EE10FA 		vmrs	APSR_nzcv, FPSCR
 603:Menus.cpp     ****         if(this->sustatinLevelScaleDraw >= screen.Width() / 4)
 7087              		.loc 2 603 38 is_stmt 0 view .LVU1934
 7088 068c 8CBF     		ite	hi
 7089 068e C7ED727A 		vstrhi.32	s15, [r7, #456]
 610:Menus.cpp     ****         }
 7090              		.loc 2 610 13 is_stmt 1 view .LVU1935
 610:Menus.cpp     ****         }
 7091              		.loc 2 610 42 is_stmt 0 view .LVU1936
 7092 0692 C7F8C831 		strls	r3, [r7, #456]	@ float
 7093              	.L394:
 612:Menus.cpp     ****         {
 7094              		.loc 2 612 9 is_stmt 1 view .LVU1937
 612:Menus.cpp     ****         {
 7095              		.loc 2 612 18 is_stmt 0 view .LVU1938
 7096 0696 D7ED707A 		vldr.32	s15, [r7, #448]
 612:Menus.cpp     ****         {
 7097              		.loc 2 612 9 view .LVU1939
 7098 069a 9FED607A 		vldr.32	s14, .L536+12
 7099 069e F4EEC77A 		vcmpe.f32	s15, s14
 7100 06a2 F1EE10FA 		vmrs	APSR_nzcv, FPSCR
 7101 06a6 C0F2C080 		blt	.L519
 614:Menus.cpp     ****         }
 7102              		.loc 2 614 13 is_stmt 1 view .LVU1940
 614:Menus.cpp     ****         }
 7103              		.loc 2 614 33 is_stmt 0 view .LVU1941
 7104 06aa 87ED707A 		vstr.32	s14, [r7, #448]
 616:Menus.cpp     ****         {
 7105              		.loc 2 616 9 is_stmt 1 view .LVU1942
 7106              	.L398:
 620:Menus.cpp     ****     }
 7107              		.loc 2 620 9 view .LVU1943
 7108              	.LVL460:
 7109              	.LBB1884:
 7110              	.LBI1884:
 217:../../libdaisy/src/hid/disp/display.h ****                   uint_fast8_t y1,
 7111              		.loc 5 217 10 view .LVU1944
 7112              	.LBB1885:
 7113              	.LBI1885:
 181:../../libdaisy/src/hid/disp/display.h ****                   uint_fast8_t y1,
 7114              		.loc 5 181 10 view .LVU1945
 7115              	.LBB1886:
 7116              	.LBB1887:
 7117              	.LBI1887:
  41:../../libdaisy/src/hid/disp/oled_display.h ****     {
 7118              		.loc 1 41 10 view .LVU1946
 7119              	.LBB1888:
 7120              	.LBI1888:
 239:../../libdaisy/src/dev/oled_ssd130x.h ****     {
 7121              		.loc 6 239 10 view .LVU1947
ARM GAS  C:\Users\VINCIU~1\AppData\Local\Temp\ccdhDWPe.s 			page 183


 7122              	.LBB1889:
 244:../../libdaisy/src/dev/oled_ssd130x.h ****         else
 7123              		.loc 6 244 42 is_stmt 0 view .LVU1948
 7124 06ae 94F85C20 		ldrb	r2, [r4, #92]	@ zero_extendqisi2
 7125 06b2 04F14F03 		add	r3, r4, #79
 7126 06b6 04F15B01 		add	r1, r4, #91
 7127 06ba 42F00102 		orr	r2, r2, #1
 7128 06be 84F85C20 		strb	r2, [r4, #92]
 7129              	.LVL461:
 244:../../libdaisy/src/dev/oled_ssd130x.h ****         else
 7130              		.loc 6 244 42 view .LVU1949
 7131              	.LBE1889:
 7132              	.LBE1888:
 7133              	.LBE1887:
 199:../../libdaisy/src/hid/disp/display.h ****         {
 7134              		.loc 5 199 26 is_stmt 1 view .LVU1950
 7135              	.L400:
 7136              	.LBB1890:
 7137              	.LBI1890:
  41:../../libdaisy/src/hid/disp/oled_display.h ****     {
 7138              		.loc 1 41 10 view .LVU1951
 7139              	.LBB1891:
 7140              	.LBI1891:
 239:../../libdaisy/src/dev/oled_ssd130x.h ****     {
 7141              		.loc 6 239 10 view .LVU1952
 7142              	.LBB1892:
 244:../../libdaisy/src/dev/oled_ssd130x.h ****         else
 7143              		.loc 6 244 42 is_stmt 0 view .LVU1953
 7144 06c2 13F8012F 		ldrb	r2, [r3, #1]!	@ zero_extendqisi2
 7145              	.LVL462:
 244:../../libdaisy/src/dev/oled_ssd130x.h ****         else
 7146              		.loc 6 244 42 view .LVU1954
 7147 06c6 42F00102 		orr	r2, r2, #1
 7148              	.LBE1892:
 7149              	.LBE1891:
 7150              	.LBE1890:
 199:../../libdaisy/src/hid/disp/display.h ****         {
 7151              		.loc 5 199 26 view .LVU1955
 7152 06ca 9942     		cmp	r1, r3
 7153              	.LBB1895:
 7154              	.LBB1894:
 7155              	.LBB1893:
 244:../../libdaisy/src/dev/oled_ssd130x.h ****         else
 7156              		.loc 6 244 42 view .LVU1956
 7157 06cc 1A70     		strb	r2, [r3]
 7158              	.LVL463:
 244:../../libdaisy/src/dev/oled_ssd130x.h ****         else
 7159              		.loc 6 244 42 view .LVU1957
 7160              	.LBE1893:
 7161              	.LBE1894:
 7162              	.LBE1895:
 199:../../libdaisy/src/hid/disp/display.h ****         {
 7163              		.loc 5 199 26 is_stmt 1 view .LVU1958
 7164 06ce F8D1     		bne	.L400
 7165              	.LVL464:
 199:../../libdaisy/src/hid/disp/display.h ****         {
 7166              		.loc 5 199 26 is_stmt 0 view .LVU1959
ARM GAS  C:\Users\VINCIU~1\AppData\Local\Temp\ccdhDWPe.s 			page 184


 7167              	.LBE1886:
 7168              	.LBE1885:
 7169              	.LBB1896:
 7170              	.LBI1896:
 181:../../libdaisy/src/hid/disp/display.h ****                   uint_fast8_t y1,
 7171              		.loc 5 181 10 is_stmt 1 view .LVU1960
 7172              	.LBB1897:
 7173              	.LBB1898:
 7174              	.LBI1898:
  41:../../libdaisy/src/hid/disp/oled_display.h ****     {
 7175              		.loc 1 41 10 view .LVU1961
 7176              	.LBB1899:
 7177              	.LBI1899:
 239:../../libdaisy/src/dev/oled_ssd130x.h ****     {
 7178              		.loc 6 239 10 view .LVU1962
 7179              	.LBB1900:
 244:../../libdaisy/src/dev/oled_ssd130x.h ****         else
 7180              		.loc 6 244 42 is_stmt 0 view .LVU1963
 7181 06d0 94F8DC20 		ldrb	r2, [r4, #220]	@ zero_extendqisi2
 7182 06d4 0023     		movs	r3, #0
 7183 06d6 42F02002 		orr	r2, r2, #32
 7184 06da 84F8DC20 		strb	r2, [r4, #220]
 7185              	.LVL465:
 244:../../libdaisy/src/dev/oled_ssd130x.h ****         else
 7186              		.loc 6 244 42 view .LVU1964
 7187              	.LBE1900:
 7188              	.LBE1899:
 7189              	.LBE1898:
 199:../../libdaisy/src/hid/disp/display.h ****         {
 7190              		.loc 5 199 26 is_stmt 1 view .LVU1965
 7191              	.L401:
 7192              	.LBB1901:
 7193              	.LBI1901:
  41:../../libdaisy/src/hid/disp/oled_display.h ****     {
 7194              		.loc 1 41 10 view .LVU1966
 7195              	.LBB1902:
 7196              	.LBI1902:
 239:../../libdaisy/src/dev/oled_ssd130x.h ****     {
 7197              		.loc 6 239 10 view .LVU1967
 7198              	.LBB1903:
 244:../../libdaisy/src/dev/oled_ssd130x.h ****         else
 7199              		.loc 6 244 28 is_stmt 0 view .LVU1968
 7200 06de D908     		lsrs	r1, r3, #3
 244:../../libdaisy/src/dev/oled_ssd130x.h ****         else
 7201              		.loc 6 244 54 view .LVU1969
 7202 06e0 03F00700 		and	r0, r3, #7
 244:../../libdaisy/src/dev/oled_ssd130x.h ****         else
 7203              		.loc 6 244 48 view .LVU1970
 7204 06e4 0122     		movs	r2, #1
 244:../../libdaisy/src/dev/oled_ssd130x.h ****         else
 7205              		.loc 6 244 42 view .LVU1971
 7206 06e6 04EBC111 		add	r1, r4, r1, lsl #7
 7207              	.LBE1903:
 7208              	.LBE1902:
 7209              	.LBE1901:
 212:../../libdaisy/src/hid/disp/display.h ****             }
 7210              		.loc 5 212 20 view .LVU1972
ARM GAS  C:\Users\VINCIU~1\AppData\Local\Temp\ccdhDWPe.s 			page 185


 7211 06ea 1344     		add	r3, r3, r2
 7212              	.LVL466:
 7213              	.LBB1908:
 7214              	.LBB1906:
 7215              	.LBB1904:
 244:../../libdaisy/src/dev/oled_ssd130x.h ****         else
 7216              		.loc 6 244 48 view .LVU1973
 7217 06ec 8240     		lsls	r2, r2, r0
 244:../../libdaisy/src/dev/oled_ssd130x.h ****         else
 7218              		.loc 6 244 42 view .LVU1974
 7219 06ee 91F85C00 		ldrb	r0, [r1, #92]	@ zero_extendqisi2
 7220              	.LBE1904:
 7221              	.LBE1906:
 7222              	.LBE1908:
 199:../../libdaisy/src/hid/disp/display.h ****         {
 7223              		.loc 5 199 26 view .LVU1975
 7224 06f2 0D2B     		cmp	r3, #13
 7225              	.LBB1909:
 7226              	.LBB1907:
 7227              	.LBB1905:
 244:../../libdaisy/src/dev/oled_ssd130x.h ****         else
 7228              		.loc 6 244 42 view .LVU1976
 7229 06f4 42EA0002 		orr	r2, r2, r0
 7230 06f8 81F85C20 		strb	r2, [r1, #92]
 7231              	.LVL467:
 244:../../libdaisy/src/dev/oled_ssd130x.h ****         else
 7232              		.loc 6 244 42 view .LVU1977
 7233              	.LBE1905:
 7234              	.LBE1907:
 7235              	.LBE1909:
 199:../../libdaisy/src/hid/disp/display.h ****         {
 7236              		.loc 5 199 26 is_stmt 1 view .LVU1978
 7237 06fc EFD1     		bne	.L401
 7238              	.LVL468:
 199:../../libdaisy/src/hid/disp/display.h ****         {
 7239              		.loc 5 199 26 is_stmt 0 view .LVU1979
 7240              	.LBE1897:
 7241              	.LBE1896:
 7242              	.LBB1910:
 7243              	.LBI1910:
 181:../../libdaisy/src/hid/disp/display.h ****                   uint_fast8_t y1,
 7244              		.loc 5 181 10 is_stmt 1 view .LVU1980
 7245              	.LBB1911:
 7246              	.LBB1912:
 7247              	.LBI1912:
  41:../../libdaisy/src/hid/disp/oled_display.h ****     {
 7248              		.loc 1 41 10 view .LVU1981
 7249              	.LBB1913:
 7250              	.LBI1913:
 239:../../libdaisy/src/dev/oled_ssd130x.h ****     {
 7251              		.loc 6 239 10 view .LVU1982
 7252              	.LBB1914:
 244:../../libdaisy/src/dev/oled_ssd130x.h ****         else
 7253              		.loc 6 244 42 is_stmt 0 view .LVU1983
 7254 06fe 94F8D010 		ldrb	r1, [r4, #208]	@ zero_extendqisi2
 7255 0702 04F1DD02 		add	r2, r4, #221
 7256 0706 04F1D100 		add	r0, r4, #209
ARM GAS  C:\Users\VINCIU~1\AppData\Local\Temp\ccdhDWPe.s 			page 186


 7257 070a 41F02001 		orr	r1, r1, #32
 7258 070e 84F8D010 		strb	r1, [r4, #208]
 7259              	.LVL469:
 244:../../libdaisy/src/dev/oled_ssd130x.h ****         else
 7260              		.loc 6 244 42 view .LVU1984
 7261              	.LBE1914:
 7262              	.LBE1913:
 7263              	.LBE1912:
 199:../../libdaisy/src/hid/disp/display.h ****         {
 7264              		.loc 5 199 26 is_stmt 1 view .LVU1985
 7265              	.L402:
 7266              	.LBB1915:
 7267              	.LBI1915:
  41:../../libdaisy/src/hid/disp/oled_display.h ****     {
 7268              		.loc 1 41 10 view .LVU1986
 7269              	.LBB1916:
 7270              	.LBI1916:
 239:../../libdaisy/src/dev/oled_ssd130x.h ****     {
 7271              		.loc 6 239 10 view .LVU1987
 7272              	.LBB1917:
 244:../../libdaisy/src/dev/oled_ssd130x.h ****         else
 7273              		.loc 6 244 42 is_stmt 0 view .LVU1988
 7274 0712 12F8011D 		ldrb	r1, [r2, #-1]!	@ zero_extendqisi2
 7275              	.LVL470:
 244:../../libdaisy/src/dev/oled_ssd130x.h ****         else
 7276              		.loc 6 244 42 view .LVU1989
 7277 0716 41F02001 		orr	r1, r1, #32
 7278              	.LBE1917:
 7279              	.LBE1916:
 7280              	.LBE1915:
 199:../../libdaisy/src/hid/disp/display.h ****         {
 7281              		.loc 5 199 26 view .LVU1990
 7282 071a 9042     		cmp	r0, r2
 7283              	.LBB1920:
 7284              	.LBB1919:
 7285              	.LBB1918:
 244:../../libdaisy/src/dev/oled_ssd130x.h ****         else
 7286              		.loc 6 244 42 view .LVU1991
 7287 071c 1170     		strb	r1, [r2]
 7288              	.LVL471:
 244:../../libdaisy/src/dev/oled_ssd130x.h ****         else
 7289              		.loc 6 244 42 view .LVU1992
 7290              	.LBE1918:
 7291              	.LBE1919:
 7292              	.LBE1920:
 199:../../libdaisy/src/hid/disp/display.h ****         {
 7293              		.loc 5 199 26 is_stmt 1 view .LVU1993
 7294 071e F8D1     		bne	.L402
 7295              	.LVL472:
 199:../../libdaisy/src/hid/disp/display.h ****         {
 7296              		.loc 5 199 26 is_stmt 0 view .LVU1994
 7297              	.LBE1911:
 7298              	.LBE1910:
 7299              	.LBB1921:
 7300              	.LBI1921:
 181:../../libdaisy/src/hid/disp/display.h ****                   uint_fast8_t y1,
 7301              		.loc 5 181 10 is_stmt 1 view .LVU1995
ARM GAS  C:\Users\VINCIU~1\AppData\Local\Temp\ccdhDWPe.s 			page 187


 7302              	.LBB1922:
 7303              	.LBB1923:
 7304              	.LBI1923:
  41:../../libdaisy/src/hid/disp/oled_display.h ****     {
 7305              		.loc 1 41 10 view .LVU1996
 7306              	.LBB1924:
 7307              	.LBI1924:
 239:../../libdaisy/src/dev/oled_ssd130x.h ****     {
 7308              		.loc 6 239 10 view .LVU1997
 7309              	.LBB1925:
 244:../../libdaisy/src/dev/oled_ssd130x.h ****         else
 7310              		.loc 6 244 42 is_stmt 0 view .LVU1998
 7311 0720 94F85020 		ldrb	r2, [r4, #80]	@ zero_extendqisi2
 7312 0724 42F00102 		orr	r2, r2, #1
 7313 0728 84F85020 		strb	r2, [r4, #80]
 7314              	.LVL473:
 244:../../libdaisy/src/dev/oled_ssd130x.h ****         else
 7315              		.loc 6 244 42 view .LVU1999
 7316              	.LBE1925:
 7317              	.LBE1924:
 7318              	.LBE1923:
 199:../../libdaisy/src/hid/disp/display.h ****         {
 7319              		.loc 5 199 26 is_stmt 1 view .LVU2000
 7320              	.L403:
 7321              	.LBB1926:
 7322              	.LBI1926:
  41:../../libdaisy/src/hid/disp/oled_display.h ****     {
 7323              		.loc 1 41 10 view .LVU2001
 7324              	.LBB1927:
 7325              	.LBI1927:
 239:../../libdaisy/src/dev/oled_ssd130x.h ****     {
 7326              		.loc 6 239 10 view .LVU2002
 7327              	.LBB1928:
 244:../../libdaisy/src/dev/oled_ssd130x.h ****         else
 7328              		.loc 6 244 28 is_stmt 0 view .LVU2003
 7329 072c D908     		lsrs	r1, r3, #3
 244:../../libdaisy/src/dev/oled_ssd130x.h ****         else
 7330              		.loc 6 244 54 view .LVU2004
 7331 072e 03F00700 		and	r0, r3, #7
 244:../../libdaisy/src/dev/oled_ssd130x.h ****         else
 7332              		.loc 6 244 48 view .LVU2005
 7333 0732 0122     		movs	r2, #1
 7334              	.LBE1928:
 7335              	.LBE1927:
 7336              	.LBE1926:
 199:../../libdaisy/src/hid/disp/display.h ****         {
 7337              		.loc 5 199 26 view .LVU2006
 7338 0734 013B     		subs	r3, r3, #1
 7339              	.LVL474:
 7340              	.LBB1931:
 7341              	.LBB1930:
 7342              	.LBB1929:
 244:../../libdaisy/src/dev/oled_ssd130x.h ****         else
 7343              		.loc 6 244 42 view .LVU2007
 7344 0736 04EBC111 		add	r1, r4, r1, lsl #7
 244:../../libdaisy/src/dev/oled_ssd130x.h ****         else
 7345              		.loc 6 244 48 view .LVU2008
ARM GAS  C:\Users\VINCIU~1\AppData\Local\Temp\ccdhDWPe.s 			page 188


 7346 073a 02FA00F2 		lsl	r2, r2, r0
 244:../../libdaisy/src/dev/oled_ssd130x.h ****         else
 7347              		.loc 6 244 42 view .LVU2009
 7348 073e 91F85000 		ldrb	r0, [r1, #80]	@ zero_extendqisi2
 7349 0742 42EA0002 		orr	r2, r2, r0
 7350 0746 81F85020 		strb	r2, [r1, #80]
 7351              	.LVL475:
 244:../../libdaisy/src/dev/oled_ssd130x.h ****         else
 7352              		.loc 6 244 42 view .LVU2010
 7353              	.LBE1929:
 7354              	.LBE1930:
 7355              	.LBE1931:
 199:../../libdaisy/src/hid/disp/display.h ****         {
 7356              		.loc 5 199 26 is_stmt 1 view .LVU2011
 7357 074a EFD1     		bne	.L403
 7358 074c 7DE4     		b	.L404
 7359              	.LVL476:
 7360              	.L361:
 199:../../libdaisy/src/hid/disp/display.h ****         {
 7361              		.loc 5 199 26 is_stmt 0 view .LVU2012
 7362              	.LBE1922:
 7363              	.LBE1921:
 7364              	.LBE1884:
 541:Menus.cpp     ****         }
 7365              		.loc 2 541 13 is_stmt 1 view .LVU2013
 544:Menus.cpp     **** 
 7366              		.loc 2 544 5 is_stmt 0 view .LVU2014
 7367 074e 97F86130 		ldrb	r3, [r7, #97]	@ zero_extendqisi2
 541:Menus.cpp     ****         }
 7368              		.loc 2 541 32 view .LVU2015
 7369 0752 0322     		movs	r2, #3
 544:Menus.cpp     **** 
 7370              		.loc 2 544 5 view .LVU2016
 7371 0754 7F2B     		cmp	r3, #127
 541:Menus.cpp     ****         }
 7372              		.loc 2 541 32 view .LVU2017
 7373 0756 C7F8AC21 		str	r2, [r7, #428]
 544:Menus.cpp     **** 
 7374              		.loc 2 544 5 is_stmt 1 view .LVU2018
 7375              	.LVL477:
 7376              	.LBB1932:
 7377              		.loc 4 69 17 view .LVU2019
 7378              	.LBB1677:
 7379              		.loc 4 69 38 view .LVU2020
 7380              		.loc 4 69 38 is_stmt 0 view .LVU2021
 7381              	.LBE1677:
 7382              	.LBE1932:
 544:Menus.cpp     **** 
 7383              		.loc 2 544 5 view .LVU2022
 7384 075a 3FF47DAE 		beq	.L363
 7385              	.L364:
 624:Menus.cpp     ****         env.SetTime(daisysp::ADSR_SEG_RELEASE, this->releaseTime / 100);
 7386              		.loc 2 624 9 is_stmt 1 view .LVU2023
 7387              	.LVL478:
 7388              	.LBB1933:
 7389              	.LBI1933:
  41:../../libdaisy/src/hid/encoder.h ****     /** Returns true if the encoder was just pressed.
ARM GAS  C:\Users\VINCIU~1\AppData\Local\Temp\ccdhDWPe.s 			page 189


 7390              		.loc 3 41 20 view .LVU2024
 7391              	.LBB1934:
  41:../../libdaisy/src/hid/encoder.h ****     /** Returns true if the encoder was just pressed.
 7392              		.loc 3 41 40 view .LVU2025
  41:../../libdaisy/src/hid/encoder.h ****     /** Returns true if the encoder was just pressed.
 7393              		.loc 3 41 40 is_stmt 0 view .LVU2026
 7394              	.LBE1934:
 7395              	.LBE1933:
 624:Menus.cpp     ****         env.SetTime(daisysp::ADSR_SEG_RELEASE, this->releaseTime / 100);
 7396              		.loc 2 624 27 view .LVU2027
 7397 075e 97ED747A 		vldr.32	s14, [r7, #464]
 625:Menus.cpp     ****         this->releaseTimeScaleDraw += this->encoderRight.Increment();
 7398              		.loc 2 625 20 view .LVU2028
 7399 0762 0421     		movs	r1, #4
 624:Menus.cpp     ****         env.SetTime(daisysp::ADSR_SEG_RELEASE, this->releaseTime / 100);
 7400              		.loc 2 624 61 view .LVU2029
 7401 0764 D7ED127A 		vldr.32	s15, [r7, #72]	@ int
 625:Menus.cpp     ****         this->releaseTimeScaleDraw += this->encoderRight.Increment();
 7402              		.loc 2 625 20 view .LVU2030
 7403 0768 2846     		mov	r0, r5
 7404 076a 9FED2C0A 		vldr.32	s0, .L536+12
 624:Menus.cpp     ****         env.SetTime(daisysp::ADSR_SEG_RELEASE, this->releaseTime / 100);
 7405              		.loc 2 624 61 view .LVU2031
 7406 076e B8EEE76B 		vcvt.f64.s32	d6, s15
 624:Menus.cpp     ****         env.SetTime(daisysp::ADSR_SEG_RELEASE, this->releaseTime / 100);
 7407              		.loc 2 624 27 view .LVU2032
 7408 0772 B7EEC77A 		vcvt.f64.f32	d7, s14
 7409 0776 9FED265B 		vldr.64	d5, .L536
 7410 077a A6EE057B 		vfma.f64	d7, d6, d5
 7411 077e B7EEC77B 		vcvt.f32.f64	s14, d7
 625:Menus.cpp     ****         this->releaseTimeScaleDraw += this->encoderRight.Increment();
 7412              		.loc 2 625 20 view .LVU2033
 7413 0782 87EE000A 		vdiv.f32	s0, s14, s0
 624:Menus.cpp     ****         env.SetTime(daisysp::ADSR_SEG_RELEASE, this->releaseTime / 100);
 7414              		.loc 2 624 27 view .LVU2034
 7415 0786 87ED747A 		vstr.32	s14, [r7, #464]
 625:Menus.cpp     ****         this->releaseTimeScaleDraw += this->encoderRight.Increment();
 7416              		.loc 2 625 9 is_stmt 1 view .LVU2035
 625:Menus.cpp     ****         this->releaseTimeScaleDraw += this->encoderRight.Increment();
 7417              		.loc 2 625 20 is_stmt 0 view .LVU2036
 7418 078a FFF7FEFF 		bl	_ZN7daisysp4Adsr7SetTimeEif
 7419              	.LVL479:
 626:Menus.cpp     ****         if(this->releaseTimeScaleDraw >= screen.Width() / 4)
 7420              		.loc 2 626 9 is_stmt 1 view .LVU2037
 7421              	.LBB1935:
 7422              	.LBI1935:
  41:../../libdaisy/src/hid/encoder.h ****     /** Returns true if the encoder was just pressed.
 7423              		.loc 3 41 20 view .LVU2038
 7424              	.LBB1936:
  41:../../libdaisy/src/hid/encoder.h ****     /** Returns true if the encoder was just pressed.
 7425              		.loc 3 41 40 view .LVU2039
  41:../../libdaisy/src/hid/encoder.h ****     /** Returns true if the encoder was just pressed.
 7426              		.loc 3 41 40 is_stmt 0 view .LVU2040
 7427              	.LBE1936:
 7428              	.LBE1935:
 626:Menus.cpp     ****         if(this->releaseTimeScaleDraw >= screen.Width() / 4)
 7429              		.loc 2 626 36 view .LVU2041
ARM GAS  C:\Users\VINCIU~1\AppData\Local\Temp\ccdhDWPe.s 			page 190


 7430 078e D7ED127A 		vldr.32	s15, [r7, #72]	@ int
 7431 0792 D7ED766A 		vldr.32	s13, [r7, #472]
 627:Menus.cpp     ****         {
 7432              		.loc 2 627 9 view .LVU2042
 7433 0796 9FED207A 		vldr.32	s14, .L536+8
 626:Menus.cpp     ****         if(this->releaseTimeScaleDraw >= screen.Width() / 4)
 7434              		.loc 2 626 36 view .LVU2043
 7435 079a F8EEE77A 		vcvt.f32.s32	s15, s15
 7436 079e 77EEA67A 		vadd.f32	s15, s15, s13
 627:Menus.cpp     ****         {
 7437              		.loc 2 627 9 is_stmt 1 view .LVU2044
 7438 07a2 F4EEC77A 		vcmpe.f32	s15, s14
 7439 07a6 F1EE10FA 		vmrs	APSR_nzcv, FPSCR
 7440 07aa 2EDA     		bge	.L532
 631:Menus.cpp     ****         {
 7441              		.loc 2 631 9 view .LVU2045
 7442 07ac F5EEC07A 		vcmpe.f32	s15, #0
 7443 07b0 0023     		movs	r3, #0
 7444 07b2 F1EE10FA 		vmrs	APSR_nzcv, FPSCR
 626:Menus.cpp     ****         if(this->releaseTimeScaleDraw >= screen.Width() / 4)
 7445              		.loc 2 626 36 is_stmt 0 view .LVU2046
 7446 07b6 8CBF     		ite	hi
 7447 07b8 C7ED767A 		vstrhi.32	s15, [r7, #472]
 633:Menus.cpp     ****         }
 7448              		.loc 2 633 13 is_stmt 1 view .LVU2047
 633:Menus.cpp     ****         }
 7449              		.loc 2 633 40 is_stmt 0 view .LVU2048
 7450 07bc C7F8D831 		strls	r3, [r7, #472]	@ float
 7451              	.L408:
 635:Menus.cpp     ****         {
 7452              		.loc 2 635 9 is_stmt 1 view .LVU2049
 635:Menus.cpp     ****         {
 7453              		.loc 2 635 18 is_stmt 0 view .LVU2050
 7454 07c0 D7ED747A 		vldr.32	s15, [r7, #464]
 635:Menus.cpp     ****         {
 7455              		.loc 2 635 9 view .LVU2051
 7456 07c4 9FED157A 		vldr.32	s14, .L536+12
 7457 07c8 F4EEC77A 		vcmpe.f32	s15, s14
 7458 07cc F1EE10FA 		vmrs	APSR_nzcv, FPSCR
 7459 07d0 4CDB     		blt	.L521
 637:Menus.cpp     ****         }
 7460              		.loc 2 637 13 is_stmt 1 view .LVU2052
 637:Menus.cpp     ****         }
 7461              		.loc 2 637 31 is_stmt 0 view .LVU2053
 7462 07d2 87ED747A 		vstr.32	s14, [r7, #464]
 639:Menus.cpp     ****         {
 7463              		.loc 2 639 9 is_stmt 1 view .LVU2054
 7464              	.L412:
 643:Menus.cpp     ****     }
 7465              		.loc 2 643 9 view .LVU2055
 643:Menus.cpp     ****     }
 7466              		.loc 2 643 24 is_stmt 0 view .LVU2056
 7467 07d6 0022     		movs	r2, #0
 7468 07d8 0120     		movs	r0, #1
 7469 07da 0D21     		movs	r1, #13
 7470 07dc 5823     		movs	r3, #88
 7471 07de CDE90102 		strd	r0, r2, [sp, #4]
ARM GAS  C:\Users\VINCIU~1\AppData\Local\Temp\ccdhDWPe.s 			page 191


 7472 07e2 0091     		str	r1, [sp]
 7473 07e4 2046     		mov	r0, r4
 7474 07e6 4C21     		movs	r1, #76
 7475 07e8 FFF7FEFF 		bl	_ZN5daisy25OneBitGraphicsDisplayImplINS_11OledDisplayINS_13SSD130xDriverILj128ELj64ENS_24SSD130
 7476              	.LVL480:
 7477 07ec 2DE4     		b	.L404
 7478              	.L524:
 538:Menus.cpp     ****         if(this->menuStateEnv < 0)
 7479              		.loc 2 538 9 is_stmt 1 view .LVU2057
 539:Menus.cpp     ****         {
 7480              		.loc 2 539 9 view .LVU2058
 7481 07ee 013B     		subs	r3, r3, #1
 7482 07f0 ADD4     		bmi	.L361
 538:Menus.cpp     ****         if(this->menuStateEnv < 0)
 7483              		.loc 2 538 28 is_stmt 0 view .LVU2059
 7484 07f2 C7F8AC31 		str	r3, [r7, #428]
 7485 07f6 17E4     		b	.L362
 7486              	.L531:
 606:Menus.cpp     ****         }
 7487              		.loc 2 606 13 is_stmt 1 view .LVU2060
 606:Menus.cpp     ****         }
 7488              		.loc 2 606 42 is_stmt 0 view .LVU2061
 7489 07f8 87ED727A 		vstr.32	s14, [r7, #456]
 608:Menus.cpp     ****         {
 7490              		.loc 2 608 9 is_stmt 1 view .LVU2062
 7491 07fc 4BE7     		b	.L394
 7492              	.L529:
 560:Menus.cpp     ****         }
 7493              		.loc 2 560 13 view .LVU2063
 560:Menus.cpp     ****         }
 7494              		.loc 2 560 33 is_stmt 0 view .LVU2064
 7495 07fe 87ED697A 		vstr.32	s14, [r7, #420]
 562:Menus.cpp     ****         {
 7496              		.loc 2 562 9 is_stmt 1 view .LVU2065
 7497 0802 5EE6     		b	.L370
 7498              	.L530:
 583:Menus.cpp     ****         }
 7499              		.loc 2 583 13 view .LVU2066
 583:Menus.cpp     ****         }
 7500              		.loc 2 583 32 is_stmt 0 view .LVU2067
 7501 0804 87ED6E7A 		vstr.32	s14, [r7, #440]
 585:Menus.cpp     ****         {
 7502              		.loc 2 585 9 is_stmt 1 view .LVU2068
 7503 0808 EDE6     		b	.L384
 7504              	.L532:
 629:Menus.cpp     ****         }
 7505              		.loc 2 629 13 view .LVU2069
 629:Menus.cpp     ****         }
 7506              		.loc 2 629 40 is_stmt 0 view .LVU2070
 7507 080a 87ED767A 		vstr.32	s14, [r7, #472]
 631:Menus.cpp     ****         {
 7508              		.loc 2 631 9 is_stmt 1 view .LVU2071
 7509 080e D7E7     		b	.L408
 7510              	.L537:
 7511              		.align	3
 7512              	.L536:
 7513 0810 66666666 		.word	1717986918
ARM GAS  C:\Users\VINCIU~1\AppData\Local\Temp\ccdhDWPe.s 			page 192


 7514 0814 66660A40 		.word	1074423398
 7515 0818 00000042 		.word	1107296256
 7516 081c 0000C842 		.word	1120403456
 7517 0820 0AD723BC 		.word	-1138501878
 7518              	.LVL481:
 7519              	.L468:
 7520              	.LBB1937:
 7521              	.LBB1746:
 190:../../libdaisy/src/hid/disp/display.h ****         int_fast16_t error  = deltaX - deltaY;
 7522              		.loc 5 190 42 is_stmt 0 view .LVU2072
 7523 0824 0123     		movs	r3, #1
 7524 0826 0693     		str	r3, [sp, #24]
 7525 0828 B6E4     		b	.L426
 7526              	.LVL482:
 7527              	.L519:
 190:../../libdaisy/src/hid/disp/display.h ****         int_fast16_t error  = deltaX - deltaY;
 7528              		.loc 5 190 42 view .LVU2073
 7529              	.LBE1746:
 7530              	.LBE1937:
 616:Menus.cpp     ****         {
 7531              		.loc 2 616 9 is_stmt 1 view .LVU2074
 7532 082a F5EEC07A 		vcmpe.f32	s15, #0
 7533 082e 0023     		movs	r3, #0
 7534 0830 F1EE10FA 		vmrs	APSR_nzcv, FPSCR
 618:Menus.cpp     ****         }
 7535              		.loc 2 618 13 view .LVU2075
 618:Menus.cpp     ****         }
 7536              		.loc 2 618 33 is_stmt 0 view .LVU2076
 7537 0834 98BF     		it	ls
 7538 0836 C7F8C031 		strls	r3, [r7, #448]	@ float
 7539 083a 38E7     		b	.L398
 7540              	.L515:
 570:Menus.cpp     ****         {
 7541              		.loc 2 570 9 is_stmt 1 view .LVU2077
 7542 083c F5EEC07A 		vcmpe.f32	s15, #0
 7543 0840 0023     		movs	r3, #0
 7544 0842 F1EE10FA 		vmrs	APSR_nzcv, FPSCR
 572:Menus.cpp     ****         }
 7545              		.loc 2 572 13 view .LVU2078
 572:Menus.cpp     ****         }
 7546              		.loc 2 572 24 is_stmt 0 view .LVU2079
 7547 0846 98BF     		it	ls
 7548 0848 C7F89831 		strls	r3, [r7, #408]	@ float
 7549 084c 45E6     		b	.L374
 7550              	.LVL483:
 7551              	.L457:
 7552              	.LBB1938:
 7553              	.LBB1882:
  68:../../DaisySP/Source/Control/adsr.h ****                                        : (sus_level > 1.f) ? 1.f : sus_level;
 7554              		.loc 8 68 40 view .LVU2080
 7555 084e 1FED0C6A 		vldr.32	s12, .L536+16
 7556              	.LVL484:
  68:../../DaisySP/Source/Control/adsr.h ****                                        : (sus_level > 1.f) ? 1.f : sus_level;
 7557              		.loc 8 68 40 view .LVU2081
 7558 0852 06E7     		b	.L391
 7559              	.LVL485:
 7560              	.L528:
ARM GAS  C:\Users\VINCIU~1\AppData\Local\Temp\ccdhDWPe.s 			page 193


  68:../../DaisySP/Source/Control/adsr.h ****                                        : (sus_level > 1.f) ? 1.f : sus_level;
 7561              		.loc 8 68 40 view .LVU2082
 7562              	.LBE1882:
 7563              	.LBE1938:
 7564              	.LBB1939:
 7565              	.LBB1747:
 199:../../libdaisy/src/hid/disp/display.h ****         {
 7566              		.loc 5 199 26 view .LVU2083
 7567 0854 0023     		movs	r3, #0
 7568 0856 0793     		str	r3, [sp, #28]
 7569 0858 C9E4     		b	.L425
 7570              	.LVL486:
 7571              	.L517:
 199:../../libdaisy/src/hid/disp/display.h ****         {
 7572              		.loc 5 199 26 view .LVU2084
 7573              	.LBE1747:
 7574              	.LBE1939:
 593:Menus.cpp     ****         {
 7575              		.loc 2 593 9 is_stmt 1 view .LVU2085
 7576 085a F5EEC07A 		vcmpe.f32	s15, #0
 7577 085e 0023     		movs	r3, #0
 7578 0860 F1EE10FA 		vmrs	APSR_nzcv, FPSCR
 595:Menus.cpp     ****         }
 7579              		.loc 2 595 13 view .LVU2086
 595:Menus.cpp     ****         }
 7580              		.loc 2 595 23 is_stmt 0 view .LVU2087
 7581 0864 98BF     		it	ls
 7582 0866 C7F8B431 		strls	r3, [r7, #436]	@ float
 7583 086a C8E6     		b	.L388
 7584              	.L521:
 639:Menus.cpp     ****         {
 7585              		.loc 2 639 9 is_stmt 1 view .LVU2088
 7586 086c F5EEC07A 		vcmpe.f32	s15, #0
 7587 0870 0023     		movs	r3, #0
 7588 0872 F1EE10FA 		vmrs	APSR_nzcv, FPSCR
 641:Menus.cpp     ****         }
 7589              		.loc 2 641 13 view .LVU2089
 641:Menus.cpp     ****         }
 7590              		.loc 2 641 31 is_stmt 0 view .LVU2090
 7591 0876 98BF     		it	ls
 7592 0878 C7F8D031 		strls	r3, [r7, #464]	@ float
 7593 087c ABE7     		b	.L412
 7594              		.cfi_endproc
 7595              	.LFE4041:
 7597 087e 00BF     		.section	.text._ZN5Menus5Menu4E23OledDisplayExtravaganzaPN7daisysp10OscillatorERNS1_4AdsrE,"ax",%p
 7598              		.align	1
 7599              		.p2align 2,,3
 7600              		.global	_ZN5Menus5Menu4E23OledDisplayExtravaganzaPN7daisysp10OscillatorERNS1_4AdsrE
 7601              		.syntax unified
 7602              		.thumb
 7603              		.thumb_func
 7604              		.fpu fpv5-d16
 7606              	_ZN5Menus5Menu4E23OledDisplayExtravaganzaPN7daisysp10OscillatorERNS1_4AdsrE:
 7607              	.LVL487:
 7608              	.LFB4042:
 678:Menus.cpp     **** 
 679:Menus.cpp     **** void Menus::Menu4(OledDisplayExtravaganza screen,
ARM GAS  C:\Users\VINCIU~1\AppData\Local\Temp\ccdhDWPe.s 			page 194


 680:Menus.cpp     ****                   daisysp::Oscillator     osc[],
 681:Menus.cpp     ****                   daisysp::Adsr&          env)
 682:Menus.cpp     **** {
 7609              		.loc 2 682 1 is_stmt 1 view -0
 7610              		.cfi_startproc
 7611              		@ args = 0, pretend = 0, frame = 24
 7612              		@ frame_needed = 0, uses_anonymous_args = 0
 7613              		.loc 2 682 1 is_stmt 0 view .LVU2092
 7614 0000 2DE9F04F 		push	{r4, r5, r6, r7, r8, r9, r10, fp, lr}
 7615              		.cfi_def_cfa_offset 36
 7616              		.cfi_offset 4, -36
 7617              		.cfi_offset 5, -32
 7618              		.cfi_offset 6, -28
 7619              		.cfi_offset 7, -24
 7620              		.cfi_offset 8, -20
 7621              		.cfi_offset 9, -16
 7622              		.cfi_offset 10, -12
 7623              		.cfi_offset 11, -8
 7624              		.cfi_offset 14, -4
 7625 0004 0C46     		mov	r4, r1
 7626 0006 0746     		mov	r7, r0
 683:Menus.cpp     ****     screen.Fill(true);
 7627              		.loc 2 683 5 is_stmt 1 view .LVU2093
 7628              	.LVL488:
 7629              	.LBB2142:
 7630              	.LBI2142:
  33:../../libdaisy/src/hid/disp/oled_display.h **** 
 7631              		.loc 1 33 10 view .LVU2094
 7632              	.LBB2143:
 7633              	.LBI2143:
 249:../../libdaisy/src/dev/oled_ssd130x.h ****     {
 7634              		.loc 6 249 10 view .LVU2095
 7635              	.LBB2144:
 251:../../libdaisy/src/dev/oled_ssd130x.h ****         {
 7636              		.loc 6 251 29 view .LVU2096
 253:../../libdaisy/src/dev/oled_ssd130x.h ****         }
 7637              		.loc 6 253 24 is_stmt 0 view .LVU2097
 7638 0008 4FF48062 		mov	r2, #1024
 7639              	.LVL489:
 253:../../libdaisy/src/dev/oled_ssd130x.h ****         }
 7640              		.loc 6 253 24 view .LVU2098
 7641              	.LBE2144:
 7642              	.LBE2143:
 7643              	.LBE2142:
 682:Menus.cpp     ****     screen.Fill(true);
 7644              		.loc 2 682 1 view .LVU2099
 7645 000c 8BB0     		sub	sp, sp, #44
 7646              		.cfi_def_cfa_offset 80
 7647              	.LBB2149:
 7648              	.LBB2147:
 7649              	.LBB2145:
 253:../../libdaisy/src/dev/oled_ssd130x.h ****         }
 7650              		.loc 6 253 24 view .LVU2100
 7651 000e FF21     		movs	r1, #255
 7652              	.LVL490:
 253:../../libdaisy/src/dev/oled_ssd130x.h ****         }
 7653              		.loc 6 253 24 view .LVU2101
ARM GAS  C:\Users\VINCIU~1\AppData\Local\Temp\ccdhDWPe.s 			page 195


 7654 0010 04F11400 		add	r0, r4, #20
 7655              	.LVL491:
 253:../../libdaisy/src/dev/oled_ssd130x.h ****         }
 7656              		.loc 6 253 24 view .LVU2102
 7657              	.LBE2145:
 7658              	.LBE2147:
 7659              	.LBE2149:
 682:Menus.cpp     ****     screen.Fill(true);
 7660              		.loc 2 682 1 view .LVU2103
 7661 0014 1D46     		mov	r5, r3
 7662              	.LBB2150:
 7663              	.LBB2148:
 7664              	.LBB2146:
 253:../../libdaisy/src/dev/oled_ssd130x.h ****         }
 7665              		.loc 6 253 24 view .LVU2104
 7666 0016 FFF7FEFF 		bl	memset
 7667              	.LVL492:
 253:../../libdaisy/src/dev/oled_ssd130x.h ****         }
 7668              		.loc 6 253 24 view .LVU2105
 7669              	.LBE2146:
 7670              	.LBE2148:
 7671              	.LBE2150:
 684:Menus.cpp     ****     if(this->buttonLeft.RisingEdge())
 7672              		.loc 2 684 5 is_stmt 1 view .LVU2106
 7673              	.LBB2151:
 7674              	.LBI2151:
 7675              		.loc 4 69 17 view .LVU2107
 7676              	.LBB2152:
 7677              		.loc 4 69 38 view .LVU2108
 7678              		.loc 4 69 38 is_stmt 0 view .LVU2109
 7679              	.LBE2152:
 7680              	.LBE2151:
 7681              		.loc 2 684 5 view .LVU2110
 7682 001a 97F85130 		ldrb	r3, [r7, #81]	@ zero_extendqisi2
 685:Menus.cpp     **** 
 686:Menus.cpp     ****     {
 687:Menus.cpp     ****         this->menuStateEnvFilter = this->menuStateEnvFilter  - 1;
 7683              		.loc 2 687 62 view .LVU2111
 7684 001e D7F8B021 		ldr	r2, [r7, #432]
 684:Menus.cpp     ****     if(this->buttonLeft.RisingEdge())
 7685              		.loc 2 684 5 view .LVU2112
 7686 0022 7F2B     		cmp	r3, #127
 7687 0024 00F09B83 		beq	.L698
 7688              	.L541:
 688:Menus.cpp     ****         if(this->menuStateEnvFilter  < 0)
 689:Menus.cpp     ****         {
 690:Menus.cpp     ****             this->menuStateEnvFilter  = 3;
 691:Menus.cpp     ****         }
 692:Menus.cpp     ****     }
 693:Menus.cpp     ****     if(this->buttonRight.RisingEdge())
 7689              		.loc 2 693 5 is_stmt 1 view .LVU2113
 7690              	.LVL493:
 7691              	.LBB2153:
 7692              	.LBI2153:
 7693              		.loc 4 69 17 view .LVU2114
 7694              	.LBB2154:
 7695              		.loc 4 69 38 view .LVU2115
ARM GAS  C:\Users\VINCIU~1\AppData\Local\Temp\ccdhDWPe.s 			page 196


 7696              		.loc 4 69 38 is_stmt 0 view .LVU2116
 7697              	.LBE2154:
 7698              	.LBE2153:
 7699              		.loc 2 693 5 view .LVU2117
 7700 0028 97F86130 		ldrb	r3, [r7, #97]	@ zero_extendqisi2
 7701 002c 7F2B     		cmp	r3, #127
 7702 002e 00F00782 		beq	.L699
 7703              	.L545:
 694:Menus.cpp     **** 
 695:Menus.cpp     ****     {
 696:Menus.cpp     ****         this->menuStateEnvFilter  = this->menuStateEnvFilter  + 1;
 697:Menus.cpp     ****         if(this->menuStateEnvFilter  > 3)
 698:Menus.cpp     ****         {
 699:Menus.cpp     ****             this->menuStateEnvFilter  = 0;
 700:Menus.cpp     ****         }
 701:Menus.cpp     ****     }
 702:Menus.cpp     ****     if(this->menuStateEnvFilter  == 0)
 7704              		.loc 2 702 5 is_stmt 1 view .LVU2118
 7705 0032 002A     		cmp	r2, #0
 7706 0034 00F00D82 		beq	.L544
 703:Menus.cpp     ****     {
 704:Menus.cpp     ****         this->attackTimeFilter += this->encoderRight.Increment() * 3.3;
 705:Menus.cpp     ****         env.SetTime(daisysp::ADSR_SEG_ATTACK, this->attackTimeFilter / 100);
 706:Menus.cpp     ****         this->attackTimeFilterScaleDraw += this->encoderRight.Increment();
 707:Menus.cpp     ****         if( this->attackTimeFilterScaleDraw >= screen.Width() / 4)
 708:Menus.cpp     ****         {
 709:Menus.cpp     ****              this->attackTimeFilterScaleDraw = screen.Width() / 4;
 710:Menus.cpp     ****         }
 711:Menus.cpp     ****         if( this->attackTimeFilterScaleDraw <= 0)
 712:Menus.cpp     ****         {
 713:Menus.cpp     ****             this->attackTimeFilterScaleDraw = 0;
 714:Menus.cpp     ****         }
 715:Menus.cpp     ****         if(attackTimeFilter >= 100)
 716:Menus.cpp     ****         {
 717:Menus.cpp     ****             attackTimeFilter = 100;
 718:Menus.cpp     ****         }
 719:Menus.cpp     ****         if(attackTimeFilter <= 0)
 720:Menus.cpp     ****         {
 721:Menus.cpp     ****             attackTimeFilter = 0;
 722:Menus.cpp     ****         }
 723:Menus.cpp     ****         screen.DrawRect(28, 0, 40, 13, false, false);
 724:Menus.cpp     ****     }
 725:Menus.cpp     ****     if(this->menuStateEnvFilter  == 1)
 7707              		.loc 2 725 5 view .LVU2119
 7708 0038 012A     		cmp	r2, #1
 7709 003a 00F05782 		beq	.L700
 7710              	.L555:
 726:Menus.cpp     ****     {
 727:Menus.cpp     ****         this->decayTimeFilter += this->encoderRight.Increment() * 3.3;
 728:Menus.cpp     ****         env.SetTime(daisysp::ADSR_SEG_DECAY, this->decayTimeFilter / 100);
 729:Menus.cpp     ****         this->decayTimeScaleFilterDraw += this->encoderRight.Increment();
 730:Menus.cpp     ****         if(this->decayTimeScaleFilterDraw >= screen.Width() / 4)
 731:Menus.cpp     ****         {
 732:Menus.cpp     ****             this->decayTimeScaleFilterDraw = screen.Width() / 4;
 733:Menus.cpp     ****         }
 734:Menus.cpp     ****         if(this->decayTimeScaleFilterDraw <= 0)
 735:Menus.cpp     ****         {
ARM GAS  C:\Users\VINCIU~1\AppData\Local\Temp\ccdhDWPe.s 			page 197


 736:Menus.cpp     ****             this->decayTimeScaleFilterDraw = 0;
 737:Menus.cpp     ****         }
 738:Menus.cpp     ****         if(decayTimeFilter >= 100)
 739:Menus.cpp     ****         {
 740:Menus.cpp     ****             decayTimeFilter = 100;
 741:Menus.cpp     ****         }
 742:Menus.cpp     ****         if(decayTimeFilter <= 0)
 743:Menus.cpp     ****         {
 744:Menus.cpp     ****             decayTimeFilter = 0;
 745:Menus.cpp     ****         }
 746:Menus.cpp     ****         screen.DrawRect(44, 0, 56, 13, false, false);
 747:Menus.cpp     ****     }
 748:Menus.cpp     ****     if(this->menuStateEnvFilter  == 2)
 7711              		.loc 2 748 5 view .LVU2120
 7712 003e 022A     		cmp	r2, #2
 7713 0040 00F0A182 		beq	.L701
 7714              	.L543:
 749:Menus.cpp     ****     {
 750:Menus.cpp     ****         this->sustatinLevelFilter += this->encoderRight.Increment() * 3.3;
 751:Menus.cpp     ****         env.SetSustainLevel(this->sustatinLevelFilter / 100);
 752:Menus.cpp     ****         this->sustatinLevelScaleFilterDraw += this->encoderRight.Increment();
 753:Menus.cpp     ****         if(this->sustatinLevelScaleFilterDraw >= screen.Width() / 4)
 754:Menus.cpp     ****         {
 755:Menus.cpp     ****            this->sustatinLevelScaleFilterDraw= screen.Width() / 4;
 756:Menus.cpp     ****         }
 757:Menus.cpp     ****         if(this->sustatinLevelScaleFilterDraw <= 0)
 758:Menus.cpp     ****         {
 759:Menus.cpp     ****             this->sustatinLevelScaleFilterDraw = 0;
 760:Menus.cpp     ****         }
 761:Menus.cpp     ****         if(this->sustatinLevelFilter >= 100)
 762:Menus.cpp     ****         {
 763:Menus.cpp     ****             this->sustatinLevelFilter = 100;
 764:Menus.cpp     ****         }
 765:Menus.cpp     ****         if(this->sustatinLevelFilter <= 0)
 766:Menus.cpp     ****         {
 767:Menus.cpp     ****             this->sustatinLevelFilter = 0;
 768:Menus.cpp     ****         }
 769:Menus.cpp     ****         screen.DrawRect(60, 0, 72, 13, false, false);
 770:Menus.cpp     ****     }
 771:Menus.cpp     ****     if(this->menuStateEnvFilter  == 3)
 7715              		.loc 2 771 5 view .LVU2121
 7716 0044 032A     		cmp	r2, #3
 7717 0046 00F03F83 		beq	.L687
 7718              	.L577:
 772:Menus.cpp     ****     {
 773:Menus.cpp     ****         this->releaseTimeFilter += this->encoderRight.Increment() * 3.3;
 774:Menus.cpp     ****         env.SetTime(daisysp::ADSR_SEG_RELEASE, this->releaseTime / 100);
 775:Menus.cpp     ****         this->releaseTimeScaleDraw += this->encoderRight.Increment();
 776:Menus.cpp     ****         if(this->releaseTimeScaleFilterDraw >= screen.Width() / 4)
 777:Menus.cpp     ****         {
 778:Menus.cpp     ****             this->releaseTimeScaleFilterDraw = screen.Width() / 4;
 779:Menus.cpp     ****         }
 780:Menus.cpp     ****         if(this->releaseTimeScaleFilterDraw <= 0)
 781:Menus.cpp     ****         {
 782:Menus.cpp     ****             this->releaseTimeScaleFilterDraw = 0;
 783:Menus.cpp     ****         }
 784:Menus.cpp     ****         if(this->releaseTimeFilter >= 100)
ARM GAS  C:\Users\VINCIU~1\AppData\Local\Temp\ccdhDWPe.s 			page 198


 785:Menus.cpp     ****         {
 786:Menus.cpp     ****             this->releaseTimeFilter = 100;
 787:Menus.cpp     ****         }
 788:Menus.cpp     ****         if(this->releaseTimeFilter <= 0)
 789:Menus.cpp     ****         {
 790:Menus.cpp     ****             this->releaseTimeFilter = 0;
 791:Menus.cpp     ****         }
 792:Menus.cpp     ****         screen.DrawRect(76, 0, 88, 13, false, false);
 793:Menus.cpp     ****     }
 794:Menus.cpp     **** 
 795:Menus.cpp     ****     screen.SetCursor(32, 4);
 7719              		.loc 2 795 5 view .LVU2122
 7720              	.LVL494:
 7721              	.LBB2156:
 7722              	.LBI2156:
 131:../../libdaisy/src/hid/disp/display.h ****     {
 7723              		.loc 5 131 10 view .LVU2123
 7724              	.LBB2157:
 133:../../libdaisy/src/hid/disp/display.h ****         currentY_ = (y >= Height()) ? Height() - 1 : y;
 7725              		.loc 5 133 9 view .LVU2124
 134:../../libdaisy/src/hid/disp/display.h ****     }
 7726              		.loc 5 134 9 view .LVU2125
 7727              	.LBE2157:
 7728              	.LBE2156:
 796:Menus.cpp     ****     screen.WriteString("A", Font_6x8, false);
 7729              		.loc 2 796 23 is_stmt 0 view .LVU2126
 7730 004a B84D     		ldr	r5, .L707
 7731              	.LVL495:
 7732              		.loc 2 796 23 view .LVU2127
 7733 004c 0026     		movs	r6, #0
 7734              	.LBB2160:
 7735              	.LBB2158:
 133:../../libdaisy/src/hid/disp/display.h ****         currentY_ = (y >= Height()) ? Height() - 1 : y;
 7736              		.loc 5 133 19 view .LVU2128
 7737 004e B84B     		ldr	r3, .L707+4
 7738              	.LBE2158:
 7739              	.LBE2160:
 7740              		.loc 2 796 23 view .LVU2129
 7741 0050 2046     		mov	r0, r4
 7742 0052 0096     		str	r6, [sp]
 7743 0054 B749     		ldr	r1, .L707+8
 7744              	.LBB2161:
 7745              	.LBB2159:
 133:../../libdaisy/src/hid/disp/display.h ****         currentY_ = (y >= Height()) ? Height() - 1 : y;
 7746              		.loc 5 133 19 view .LVU2130
 7747 0056 6360     		str	r3, [r4, #4]
 7748              	.LVL496:
 133:../../libdaisy/src/hid/disp/display.h ****         currentY_ = (y >= Height()) ? Height() - 1 : y;
 7749              		.loc 5 133 19 view .LVU2131
 7750              	.LBE2159:
 7751              	.LBE2161:
 7752              		.loc 2 796 5 is_stmt 1 view .LVU2132
 7753              		.loc 2 796 23 is_stmt 0 view .LVU2133
 7754 0058 95E80C00 		ldm	r5, {r2, r3}
 7755 005c FFF7FEFF 		bl	_ZN5daisy25OneBitGraphicsDisplayImplINS_11OledDisplayINS_13SSD130xDriverILj128ELj64ENS_24SSD130
 7756              	.LVL497:
 797:Menus.cpp     ****     screen.SetCursor(48, 4);
ARM GAS  C:\Users\VINCIU~1\AppData\Local\Temp\ccdhDWPe.s 			page 199


 7757              		.loc 2 797 5 is_stmt 1 view .LVU2134
 7758              	.LBB2162:
 7759              	.LBI2162:
 131:../../libdaisy/src/hid/disp/display.h ****     {
 7760              		.loc 5 131 10 view .LVU2135
 7761              	.LBB2163:
 133:../../libdaisy/src/hid/disp/display.h ****         currentY_ = (y >= Height()) ? Height() - 1 : y;
 7762              		.loc 5 133 9 view .LVU2136
 134:../../libdaisy/src/hid/disp/display.h ****     }
 7763              		.loc 5 134 9 view .LVU2137
 133:../../libdaisy/src/hid/disp/display.h ****         currentY_ = (y >= Height()) ? Height() - 1 : y;
 7764              		.loc 5 133 19 is_stmt 0 view .LVU2138
 7765 0060 B54B     		ldr	r3, .L707+12
 7766              	.LBE2163:
 7767              	.LBE2162:
 798:Menus.cpp     ****     screen.WriteString("D", Font_6x8, false);
 7768              		.loc 2 798 23 view .LVU2139
 7769 0062 0096     		str	r6, [sp]
 7770 0064 2046     		mov	r0, r4
 7771 0066 B549     		ldr	r1, .L707+16
 7772              	.LBB2165:
 7773              	.LBB2164:
 133:../../libdaisy/src/hid/disp/display.h ****         currentY_ = (y >= Height()) ? Height() - 1 : y;
 7774              		.loc 5 133 19 view .LVU2140
 7775 0068 6360     		str	r3, [r4, #4]
 7776              	.LVL498:
 133:../../libdaisy/src/hid/disp/display.h ****         currentY_ = (y >= Height()) ? Height() - 1 : y;
 7777              		.loc 5 133 19 view .LVU2141
 7778              	.LBE2164:
 7779              	.LBE2165:
 7780              		.loc 2 798 5 is_stmt 1 view .LVU2142
 7781              		.loc 2 798 23 is_stmt 0 view .LVU2143
 7782 006a 95E80C00 		ldm	r5, {r2, r3}
 7783 006e FFF7FEFF 		bl	_ZN5daisy25OneBitGraphicsDisplayImplINS_11OledDisplayINS_13SSD130xDriverILj128ELj64ENS_24SSD130
 7784              	.LVL499:
 799:Menus.cpp     ****     screen.SetCursor(64, 4);
 7785              		.loc 2 799 5 is_stmt 1 view .LVU2144
 7786              	.LBB2166:
 7787              	.LBI2166:
 131:../../libdaisy/src/hid/disp/display.h ****     {
 7788              		.loc 5 131 10 view .LVU2145
 7789              	.LBB2167:
 133:../../libdaisy/src/hid/disp/display.h ****         currentY_ = (y >= Height()) ? Height() - 1 : y;
 7790              		.loc 5 133 9 view .LVU2146
 134:../../libdaisy/src/hid/disp/display.h ****     }
 7791              		.loc 5 134 9 view .LVU2147
 133:../../libdaisy/src/hid/disp/display.h ****         currentY_ = (y >= Height()) ? Height() - 1 : y;
 7792              		.loc 5 133 19 is_stmt 0 view .LVU2148
 7793 0072 B34B     		ldr	r3, .L707+20
 7794              	.LBE2167:
 7795              	.LBE2166:
 800:Menus.cpp     ****     screen.WriteString("S", Font_6x8, false);
 7796              		.loc 2 800 23 view .LVU2149
 7797 0074 0096     		str	r6, [sp]
 7798 0076 2046     		mov	r0, r4
 7799 0078 B249     		ldr	r1, .L707+24
 7800              	.LBB2169:
ARM GAS  C:\Users\VINCIU~1\AppData\Local\Temp\ccdhDWPe.s 			page 200


 7801              	.LBB2168:
 133:../../libdaisy/src/hid/disp/display.h ****         currentY_ = (y >= Height()) ? Height() - 1 : y;
 7802              		.loc 5 133 19 view .LVU2150
 7803 007a 6360     		str	r3, [r4, #4]
 7804              	.LVL500:
 133:../../libdaisy/src/hid/disp/display.h ****         currentY_ = (y >= Height()) ? Height() - 1 : y;
 7805              		.loc 5 133 19 view .LVU2151
 7806              	.LBE2168:
 7807              	.LBE2169:
 7808              		.loc 2 800 5 is_stmt 1 view .LVU2152
 7809              		.loc 2 800 23 is_stmt 0 view .LVU2153
 7810 007c 95E80C00 		ldm	r5, {r2, r3}
 7811 0080 FFF7FEFF 		bl	_ZN5daisy25OneBitGraphicsDisplayImplINS_11OledDisplayINS_13SSD130xDriverILj128ELj64ENS_24SSD130
 7812              	.LVL501:
 801:Menus.cpp     ****     screen.SetCursor(80, 4);
 7813              		.loc 2 801 5 is_stmt 1 view .LVU2154
 7814              	.LBB2170:
 7815              	.LBI2170:
 131:../../libdaisy/src/hid/disp/display.h ****     {
 7816              		.loc 5 131 10 view .LVU2155
 7817              	.LBB2171:
 133:../../libdaisy/src/hid/disp/display.h ****         currentY_ = (y >= Height()) ? Height() - 1 : y;
 7818              		.loc 5 133 9 view .LVU2156
 134:../../libdaisy/src/hid/disp/display.h ****     }
 7819              		.loc 5 134 9 view .LVU2157
 133:../../libdaisy/src/hid/disp/display.h ****         currentY_ = (y >= Height()) ? Height() - 1 : y;
 7820              		.loc 5 133 19 is_stmt 0 view .LVU2158
 7821 0084 B049     		ldr	r1, .L707+28
 7822              	.LBE2171:
 7823              	.LBE2170:
 802:Menus.cpp     ****     screen.WriteString("R", Font_6x8, false);
 7824              		.loc 2 802 23 view .LVU2159
 7825 0086 0096     		str	r6, [sp]
 7826 0088 2046     		mov	r0, r4
 7827              	.LBB2173:
 7828              	.LBB2172:
 133:../../libdaisy/src/hid/disp/display.h ****         currentY_ = (y >= Height()) ? Height() - 1 : y;
 7829              		.loc 5 133 19 view .LVU2160
 7830 008a 6160     		str	r1, [r4, #4]
 7831              	.LVL502:
 133:../../libdaisy/src/hid/disp/display.h ****         currentY_ = (y >= Height()) ? Height() - 1 : y;
 7832              		.loc 5 133 19 view .LVU2161
 7833              	.LBE2172:
 7834              	.LBE2173:
 7835              		.loc 2 802 5 is_stmt 1 view .LVU2162
 7836              		.loc 2 802 23 is_stmt 0 view .LVU2163
 7837 008c AF49     		ldr	r1, .L707+32
 7838 008e 95E80C00 		ldm	r5, {r2, r3}
 7839 0092 FFF7FEFF 		bl	_ZN5daisy25OneBitGraphicsDisplayImplINS_11OledDisplayINS_13SSD130xDriverILj128ELj64ENS_24SSD130
 7840              	.LVL503:
 803:Menus.cpp     ****     screen.DrawLine(0, screen.Height() - 5, attackTimeFilterScaleDraw, 25, false);
 7841              		.loc 2 803 5 is_stmt 1 view .LVU2164
 7842              		.loc 2 803 45 is_stmt 0 view .LVU2165
 7843 0096 D7ED6A7A 		vldr.32	s15, [r7, #424]
 7844              	.LBB2174:
 7845              	.LBB2175:
 7846              	.LBB2176:
ARM GAS  C:\Users\VINCIU~1\AppData\Local\Temp\ccdhDWPe.s 			page 201


 7847              	.LBB2177:
  43:../../libdaisy/src/hid/disp/oled_display.h ****     }
 7848              		.loc 1 43 26 view .LVU2166
 7849 009a 04F10805 		add	r5, r4, #8
 7850              	.LBE2177:
 7851              	.LBE2176:
 7852              	.LBE2175:
 7853              	.LBE2174:
 7854              		.loc 2 803 20 view .LVU2167
 7855 009e BCEEE77A 		vcvt.u32.f32	s14, s15
 7856 00a2 17EE101A 		vmov	r1, s14	@ int
 7857              	.LVL504:
 7858              	.LBB2212:
 7859              	.LBI2174:
 181:../../libdaisy/src/hid/disp/display.h ****                   uint_fast8_t y1,
 7860              		.loc 5 181 10 is_stmt 1 view .LVU2168
 7861              	.LBB2210:
 187:../../libdaisy/src/hid/disp/display.h ****         int_fast16_t deltaY = abs((int_fast16_t)y2 - (int_fast16_t)y1);
 7862              		.loc 5 187 22 is_stmt 0 view .LVU2169
 7863 00a6 81EAE178 		eor	r8, r1, r1, asr #31
 7864 00aa A8EBE178 		sub	r8, r8, r1, asr #31
 7865              	.LVL505:
 191:../../libdaisy/src/hid/disp/display.h ****         int_fast16_t error2;
 7866              		.loc 5 191 22 view .LVU2170
 7867 00ae A8F1220C 		sub	ip, r8, #34
 7868              	.LVL506:
 7869              	.LBB2191:
 7870              	.LBI2176:
  41:../../libdaisy/src/hid/disp/oled_display.h ****     {
 7871              		.loc 1 41 10 is_stmt 1 view .LVU2171
 7872              	.LBE2191:
 189:../../libdaisy/src/hid/disp/display.h ****         int_fast16_t signY  = ((y1 < y2) ? 1 : -1);
 7873              		.loc 5 189 42 is_stmt 0 view .LVU2172
 7874 00b2 0029     		cmp	r1, #0
 7875 00b4 00F09581 		beq	.L587
 7876              	.LVL507:
 7877              	.LBB2192:
 7878              	.LBB2187:
 7879              	.LBB2178:
 7880              	.LBI2178:
 239:../../libdaisy/src/dev/oled_ssd130x.h ****     {
 7881              		.loc 6 239 10 is_stmt 1 view .LVU2173
 7882              	.LBB2179:
 241:../../libdaisy/src/dev/oled_ssd130x.h ****             return;
 7883              		.loc 6 241 9 is_stmt 0 view .LVU2174
 7884 00b8 7F29     		cmp	r1, #127
 7885              	.LBE2179:
 7886              	.LBE2178:
 7887              	.LBE2187:
 7888              	.LBE2192:
 189:../../libdaisy/src/hid/disp/display.h ****         int_fast16_t signY  = ((y1 < y2) ? 1 : -1);
 7889              		.loc 5 189 42 view .LVU2175
 7890 00ba 4FF00109 		mov	r9, #1
 7891              	.LBB2193:
 7892              	.LBB2188:
 7893              	.LBB2184:
 7894              	.LBB2182:
ARM GAS  C:\Users\VINCIU~1\AppData\Local\Temp\ccdhDWPe.s 			page 202


 241:../../libdaisy/src/dev/oled_ssd130x.h ****             return;
 7895              		.loc 6 241 9 view .LVU2176
 7896 00be 40F29281 		bls	.L626
 7897              	.LVL508:
 7898              	.L588:
 241:../../libdaisy/src/dev/oled_ssd130x.h ****             return;
 7899              		.loc 6 241 9 view .LVU2177
 7900              	.LBE2182:
 7901              	.LBE2184:
 7902              	.LBE2188:
 7903              	.LBE2193:
 199:../../libdaisy/src/hid/disp/display.h ****         {
 7904              		.loc 5 199 26 is_stmt 1 view .LVU2178
 189:../../libdaisy/src/hid/disp/display.h ****         int_fast16_t signY  = ((y1 < y2) ? 1 : -1);
 7905              		.loc 5 189 42 is_stmt 0 view .LVU2179
 7906 00c2 3B22     		movs	r2, #59
 7907 00c4 0020     		movs	r0, #0
 7908              	.LVL509:
 7909              	.L589:
 7910              	.LBB2194:
 7911              	.LBI2194:
  41:../../libdaisy/src/hid/disp/oled_display.h ****     {
 7912              		.loc 1 41 10 is_stmt 1 view .LVU2180
 7913              	.LBB2195:
 7914              	.LBI2195:
 239:../../libdaisy/src/dev/oled_ssd130x.h ****     {
 7915              		.loc 6 239 10 view .LVU2181
 7916              	.LBB2196:
 7917              	.LBB2197:
 7918              	.LBI2197:
 239:../../libdaisy/src/dev/oled_ssd130x.h ****     {
 7919              		.loc 6 239 10 view .LVU2182
 7920              	.LBB2198:
 246:../../libdaisy/src/dev/oled_ssd130x.h ****     }
 7921              		.loc 6 246 28 is_stmt 0 view .LVU2183
 7922 00c6 D308     		lsrs	r3, r2, #3
 246:../../libdaisy/src/dev/oled_ssd130x.h ****     }
 7923              		.loc 6 246 49 view .LVU2184
 7924 00c8 0126     		movs	r6, #1
 246:../../libdaisy/src/dev/oled_ssd130x.h ****     }
 7925              		.loc 6 246 55 view .LVU2185
 7926 00ca 02F0070A 		and	r10, r2, #7
 7927              	.LBE2198:
 7928              	.LBE2197:
 241:../../libdaisy/src/dev/oled_ssd130x.h ****             return;
 7929              		.loc 6 241 9 view .LVU2186
 7930 00ce 7F28     		cmp	r0, #127
 7931              	.LBB2202:
 7932              	.LBB2199:
 246:../../libdaisy/src/dev/oled_ssd130x.h ****     }
 7933              		.loc 6 246 42 view .LVU2187
 7934 00d0 00EBC313 		add	r3, r0, r3, lsl #7
 7935              	.LBE2199:
 7936              	.LBE2202:
 7937              	.LBE2196:
 7938              	.LBE2195:
 7939              	.LBE2194:
ARM GAS  C:\Users\VINCIU~1\AppData\Local\Temp\ccdhDWPe.s 			page 203


 202:../../libdaisy/src/hid/disp/display.h ****             if(error2 > -deltaY)
 7940              		.loc 5 202 20 view .LVU2188
 7941 00d4 0CFA06FE 		lsl	lr, ip, r6
 7942              	.LVL510:
 7943              	.LBB2207:
 7944              	.LBB2206:
 7945              	.LBB2205:
 7946              	.LBB2203:
 7947              	.LBB2200:
 246:../../libdaisy/src/dev/oled_ssd130x.h ****     }
 7948              		.loc 6 246 49 view .LVU2189
 7949 00d8 06FA0AF6 		lsl	r6, r6, r10
 246:../../libdaisy/src/dev/oled_ssd130x.h ****     }
 7950              		.loc 6 246 42 view .LVU2190
 7951 00dc 2344     		add	r3, r3, r4
 7952              	.LBE2200:
 7953              	.LBE2203:
 241:../../libdaisy/src/dev/oled_ssd130x.h ****             return;
 7954              		.loc 6 241 9 view .LVU2191
 7955 00de 06D8     		bhi	.L592
 241:../../libdaisy/src/dev/oled_ssd130x.h ****             return;
 7956              		.loc 6 241 9 view .LVU2192
 7957 00e0 3F2A     		cmp	r2, #63
 7958 00e2 04D8     		bhi	.L592
 7959              	.LBB2204:
 7960              	.LBB2201:
 246:../../libdaisy/src/dev/oled_ssd130x.h ****     }
 7961              		.loc 6 246 42 view .LVU2193
 7962 00e4 93F814A0 		ldrb	r10, [r3, #20]	@ zero_extendqisi2
 7963 00e8 2AEA0606 		bic	r6, r10, r6
 7964 00ec 1E75     		strb	r6, [r3, #20]
 7965              	.L592:
 7966              	.LBE2201:
 7967              	.LBE2204:
 7968              	.LBE2205:
 7969              	.LBE2206:
 7970              	.LBE2207:
 203:../../libdaisy/src/hid/disp/display.h ****             {
 7971              		.loc 5 203 13 view .LVU2194
 7972 00ee 1EF1210F 		cmn	lr, #33
 7973 00f2 C0F28081 		blt	.L593
 209:../../libdaisy/src/hid/disp/display.h ****             {
 7974              		.loc 5 209 13 view .LVU2195
 7975 00f6 F045     		cmp	r8, lr
 206:../../libdaisy/src/hid/disp/display.h ****             }
 7976              		.loc 5 206 20 view .LVU2196
 7977 00f8 4844     		add	r0, r0, r9
 7978              	.LVL511:
 205:../../libdaisy/src/hid/disp/display.h ****                 x1 += signX;
 7979              		.loc 5 205 23 view .LVU2197
 7980 00fa ACF1220C 		sub	ip, ip, #34
 7981              	.LVL512:
 209:../../libdaisy/src/hid/disp/display.h ****             {
 7982              		.loc 5 209 13 view .LVU2198
 7983 00fe 00F37A81 		bgt	.L593
 7984              	.L594:
 199:../../libdaisy/src/hid/disp/display.h ****         {
ARM GAS  C:\Users\VINCIU~1\AppData\Local\Temp\ccdhDWPe.s 			page 204


 7985              		.loc 5 199 26 is_stmt 1 view .LVU2199
 7986 0102 8142     		cmp	r1, r0
 7987 0104 DFD1     		bne	.L589
 199:../../libdaisy/src/hid/disp/display.h ****         {
 7988              		.loc 5 199 26 is_stmt 0 view .LVU2200
 7989 0106 192A     		cmp	r2, #25
 7990 0108 DDD1     		bne	.L589
 7991              	.LVL513:
 199:../../libdaisy/src/hid/disp/display.h ****         {
 7992              		.loc 5 199 26 view .LVU2201
 7993              	.LBE2210:
 7994              	.LBE2212:
 804:Menus.cpp     ****     screen.DrawLine(attackTimeFilterScaleDraw,
 7995              		.loc 2 804 5 is_stmt 1 view .LVU2202
 805:Menus.cpp     ****                     25,
 806:Menus.cpp     ****                     attackTimeFilterScaleDraw + decayTimeScaleFilterDraw,
 807:Menus.cpp     ****                     (screen.Height() - 5) - sustatinLevelScaleFilterDraw,
 7996              		.loc 2 807 43 is_stmt 0 view .LVU2203
 7997 010a D7ED736A 		vldr.32	s13, [r7, #460]
 7998 010e 9FED907A 		vldr.32	s14, .L707+36
 806:Menus.cpp     ****                     (screen.Height() - 5) - sustatinLevelScaleFilterDraw,
 7999              		.loc 2 806 47 view .LVU2204
 8000 0112 97ED6F6A 		vldr.32	s12, [r7, #444]
 8001              		.loc 2 807 43 view .LVU2205
 8002 0116 37EE667A 		vsub.f32	s14, s14, s13
 806:Menus.cpp     ****                     (screen.Height() - 5) - sustatinLevelScaleFilterDraw,
 8003              		.loc 2 806 47 view .LVU2206
 8004 011a 77EE867A 		vadd.f32	s15, s15, s12
 804:Menus.cpp     ****     screen.DrawLine(attackTimeFilterScaleDraw,
 8005              		.loc 2 804 20 view .LVU2207
 8006 011e BCEEC77A 		vcvt.u32.f32	s14, s14
 8007 0122 FCEEE76A 		vcvt.u32.f32	s13, s15
 8008 0126 17EE102A 		vmov	r2, s14	@ int
 8009 012a 16EE906A 		vmov	r6, s13	@ int
 8010              	.LVL514:
 8011              	.LBB2213:
 8012              	.LBI2213:
 181:../../libdaisy/src/hid/disp/display.h ****                   uint_fast8_t y1,
 8013              		.loc 5 181 10 is_stmt 1 view .LVU2208
 8014              	.LBB2214:
 188:../../libdaisy/src/hid/disp/display.h ****         int_fast16_t signX  = ((x1 < x2) ? 1 : -1);
 8015              		.loc 5 188 52 is_stmt 0 view .LVU2209
 8016 012e A2F11903 		sub	r3, r2, #25
 187:../../libdaisy/src/hid/disp/display.h ****         int_fast16_t deltaY = abs((int_fast16_t)y2 - (int_fast16_t)y1);
 8017              		.loc 5 187 52 view .LVU2210
 8018 0132 A6EB0108 		sub	r8, r6, r1
 188:../../libdaisy/src/hid/disp/display.h ****         int_fast16_t signX  = ((x1 < x2) ? 1 : -1);
 8019              		.loc 5 188 22 view .LVU2211
 8020 0136 83EAE370 		eor	r0, r3, r3, asr #31
 187:../../libdaisy/src/hid/disp/display.h ****         int_fast16_t deltaY = abs((int_fast16_t)y2 - (int_fast16_t)y1);
 8021              		.loc 5 187 22 view .LVU2212
 8022 013a B8F1000F 		cmp	r8, #0
 188:../../libdaisy/src/hid/disp/display.h ****         int_fast16_t signX  = ((x1 < x2) ? 1 : -1);
 8023              		.loc 5 188 22 view .LVU2213
 8024 013e A0EBE370 		sub	r0, r0, r3, asr #31
 187:../../libdaisy/src/hid/disp/display.h ****         int_fast16_t deltaY = abs((int_fast16_t)y2 - (int_fast16_t)y1);
 8025              		.loc 5 187 22 view .LVU2214
ARM GAS  C:\Users\VINCIU~1\AppData\Local\Temp\ccdhDWPe.s 			page 205


 8026 0142 B8BF     		it	lt
 8027 0144 C8F10008 		rsblt	r8, r8, #0
 8028              	.LVL515:
 188:../../libdaisy/src/hid/disp/display.h ****         int_fast16_t signX  = ((x1 < x2) ? 1 : -1);
 8029              		.loc 5 188 22 view .LVU2215
 8030 0148 0346     		mov	r3, r0
 8031 014a 0490     		str	r0, [sp, #16]
 8032              	.LVL516:
 189:../../libdaisy/src/hid/disp/display.h ****         int_fast16_t signY  = ((y1 < y2) ? 1 : -1);
 8033              		.loc 5 189 42 view .LVU2216
 8034 014c B142     		cmp	r1, r6
 8035 014e 34BF     		ite	cc
 8036 0150 0120     		movcc	r0, #1
 8037 0152 4FF0FF30 		movcs	r0, #-1
 8038              	.LVL517:
 190:../../libdaisy/src/hid/disp/display.h ****         int_fast16_t error  = deltaX - deltaY;
 8039              		.loc 5 190 42 view .LVU2217
 8040 0156 192A     		cmp	r2, #25
 189:../../libdaisy/src/hid/disp/display.h ****         int_fast16_t signY  = ((y1 < y2) ? 1 : -1);
 8041              		.loc 5 189 42 view .LVU2218
 8042 0158 0590     		str	r0, [sp, #20]
 8043              	.LVL518:
 190:../../libdaisy/src/hid/disp/display.h ****         int_fast16_t error  = deltaX - deltaY;
 8044              		.loc 5 190 42 view .LVU2219
 8045 015a 00F25681 		bhi	.L596
 8046              	.LVL519:
 191:../../libdaisy/src/hid/disp/display.h ****         int_fast16_t error2;
 8047              		.loc 5 191 22 view .LVU2220
 8048 015e A8EB030C 		sub	ip, r8, r3
 8049              	.LVL520:
 8050              	.LBB2215:
 8051              	.LBI2215:
  41:../../libdaisy/src/hid/disp/oled_display.h ****     {
 8052              		.loc 1 41 10 is_stmt 1 view .LVU2221
 8053              	.LBB2216:
 8054              	.LBI2216:
 239:../../libdaisy/src/dev/oled_ssd130x.h ****     {
 8055              		.loc 6 239 10 view .LVU2222
 8056              	.LBB2217:
 241:../../libdaisy/src/dev/oled_ssd130x.h ****             return;
 8057              		.loc 6 241 9 is_stmt 0 view .LVU2223
 8058 0162 7F2E     		cmp	r6, #127
 8059              	.LBE2217:
 8060              	.LBE2216:
 8061              	.LBE2215:
 190:../../libdaisy/src/hid/disp/display.h ****         int_fast16_t error  = deltaX - deltaY;
 8062              		.loc 5 190 42 view .LVU2224
 8063 0164 4FF0FF33 		mov	r3, #-1
 8064              	.LVL521:
 190:../../libdaisy/src/hid/disp/display.h ****         int_fast16_t error  = deltaX - deltaY;
 8065              		.loc 5 190 42 view .LVU2225
 8066 0168 0693     		str	r3, [sp, #24]
 8067              	.LBB2226:
 8068              	.LBB2223:
 8069              	.LBB2220:
 241:../../libdaisy/src/dev/oled_ssd130x.h ****             return;
 8070              		.loc 6 241 9 view .LVU2226
ARM GAS  C:\Users\VINCIU~1\AppData\Local\Temp\ccdhDWPe.s 			page 206


 8071 016a 0CD8     		bhi	.L597
 8072              	.LVL522:
 8073              	.L629:
 8074              	.LBB2218:
 8075              	.LBI2218:
 239:../../libdaisy/src/dev/oled_ssd130x.h ****     {
 8076              		.loc 6 239 10 is_stmt 1 view .LVU2227
 8077              	.LBB2219:
 246:../../libdaisy/src/dev/oled_ssd130x.h ****     }
 8078              		.loc 6 246 28 is_stmt 0 view .LVU2228
 8079 016c D308     		lsrs	r3, r2, #3
 246:../../libdaisy/src/dev/oled_ssd130x.h ****     }
 8080              		.loc 6 246 49 view .LVU2229
 8081 016e 0120     		movs	r0, #1
 8082              	.LVL523:
 246:../../libdaisy/src/dev/oled_ssd130x.h ****     }
 8083              		.loc 6 246 55 view .LVU2230
 8084 0170 02F0070E 		and	lr, r2, #7
 246:../../libdaisy/src/dev/oled_ssd130x.h ****     }
 8085              		.loc 6 246 42 view .LVU2231
 8086 0174 06EBC313 		add	r3, r6, r3, lsl #7
 246:../../libdaisy/src/dev/oled_ssd130x.h ****     }
 8087              		.loc 6 246 49 view .LVU2232
 8088 0178 00FA0EFE 		lsl	lr, r0, lr
 246:../../libdaisy/src/dev/oled_ssd130x.h ****     }
 8089              		.loc 6 246 42 view .LVU2233
 8090 017c 2344     		add	r3, r3, r4
 8091 017e 187D     		ldrb	r0, [r3, #20]	@ zero_extendqisi2
 8092 0180 20EA0E00 		bic	r0, r0, lr
 8093 0184 1875     		strb	r0, [r3, #20]
 8094              	.LVL524:
 8095              	.L597:
 246:../../libdaisy/src/dev/oled_ssd130x.h ****     }
 8096              		.loc 6 246 42 view .LVU2234
 8097              	.LBE2219:
 8098              	.LBE2218:
 8099              	.LBE2220:
 8100              	.LBE2223:
 8101              	.LBE2226:
 199:../../libdaisy/src/hid/disp/display.h ****         {
 8102              		.loc 5 199 26 is_stmt 1 view .LVU2235
 8103 0186 192A     		cmp	r2, #25
 8104 0188 08BF     		it	eq
 8105 018a B142     		cmpeq	r1, r6
 8106 018c 0CBF     		ite	eq
 8107 018e 0123     		moveq	r3, #1
 8108 0190 0023     		movne	r3, #0
 8109 0192 0793     		str	r3, [sp, #28]
 8110 0194 00F00C83 		beq	.L702
 8111              	.L599:
 8112              	.LVL525:
 203:../../libdaisy/src/hid/disp/display.h ****             {
 8113              		.loc 5 203 23 is_stmt 0 view .LVU2236
 8114 0198 049B     		ldr	r3, [sp, #16]
 8115 019a 1920     		movs	r0, #25
 8116 019c C3F1000A 		rsb	r10, r3, #0
 8117              	.L601:
ARM GAS  C:\Users\VINCIU~1\AppData\Local\Temp\ccdhDWPe.s 			page 207


 8118              	.LVL526:
 8119              	.LBB2227:
 8120              	.LBI2227:
  41:../../libdaisy/src/hid/disp/oled_display.h ****     {
 8121              		.loc 1 41 10 is_stmt 1 view .LVU2237
 8122              	.LBB2228:
 8123              	.LBI2228:
 239:../../libdaisy/src/dev/oled_ssd130x.h ****     {
 8124              		.loc 6 239 10 view .LVU2238
 8125              	.LBB2229:
 8126              	.LBB2230:
 8127              	.LBI2230:
 239:../../libdaisy/src/dev/oled_ssd130x.h ****     {
 8128              		.loc 6 239 10 view .LVU2239
 8129              	.LBB2231:
 246:../../libdaisy/src/dev/oled_ssd130x.h ****     }
 8130              		.loc 6 246 49 is_stmt 0 view .LVU2240
 8131 01a0 4FF0010B 		mov	fp, #1
 246:../../libdaisy/src/dev/oled_ssd130x.h ****     }
 8132              		.loc 6 246 28 view .LVU2241
 8133 01a4 C308     		lsrs	r3, r0, #3
 246:../../libdaisy/src/dev/oled_ssd130x.h ****     }
 8134              		.loc 6 246 55 view .LVU2242
 8135 01a6 00F0070E 		and	lr, r0, #7
 8136              	.LBE2231:
 8137              	.LBE2230:
 241:../../libdaisy/src/dev/oled_ssd130x.h ****             return;
 8138              		.loc 6 241 9 view .LVU2243
 8139 01aa 7F29     		cmp	r1, #127
 8140              	.LBE2229:
 8141              	.LBE2228:
 8142              	.LBE2227:
 202:../../libdaisy/src/hid/disp/display.h ****             if(error2 > -deltaY)
 8143              		.loc 5 202 20 view .LVU2244
 8144 01ac 0CFA0BF9 		lsl	r9, ip, fp
 8145              	.LVL527:
 8146              	.LBB2240:
 8147              	.LBB2239:
 8148              	.LBB2238:
 8149              	.LBB2235:
 8150              	.LBB2232:
 246:../../libdaisy/src/dev/oled_ssd130x.h ****     }
 8151              		.loc 6 246 42 view .LVU2245
 8152 01b0 01EBC313 		add	r3, r1, r3, lsl #7
 246:../../libdaisy/src/dev/oled_ssd130x.h ****     }
 8153              		.loc 6 246 49 view .LVU2246
 8154 01b4 0BFA0EFB 		lsl	fp, fp, lr
 8155              	.LBE2232:
 8156              	.LBE2235:
 241:../../libdaisy/src/dev/oled_ssd130x.h ****             return;
 8157              		.loc 6 241 9 view .LVU2247
 8158 01b8 08D8     		bhi	.L602
 8159 01ba 3F28     		cmp	r0, #63
 8160              	.LBB2236:
 8161              	.LBB2233:
 246:../../libdaisy/src/dev/oled_ssd130x.h ****     }
 8162              		.loc 6 246 42 view .LVU2248
ARM GAS  C:\Users\VINCIU~1\AppData\Local\Temp\ccdhDWPe.s 			page 208


 8163 01bc 2344     		add	r3, r3, r4
 8164              	.LBE2233:
 8165              	.LBE2236:
 241:../../libdaisy/src/dev/oled_ssd130x.h ****             return;
 8166              		.loc 6 241 9 view .LVU2249
 8167 01be 05D8     		bhi	.L602
 8168              	.LBB2237:
 8169              	.LBB2234:
 246:../../libdaisy/src/dev/oled_ssd130x.h ****     }
 8170              		.loc 6 246 42 view .LVU2250
 8171 01c0 93F814E0 		ldrb	lr, [r3, #20]	@ zero_extendqisi2
 8172 01c4 2EEA0B0E 		bic	lr, lr, fp
 8173 01c8 83F814E0 		strb	lr, [r3, #20]
 8174              	.L602:
 246:../../libdaisy/src/dev/oled_ssd130x.h ****     }
 8175              		.loc 6 246 42 view .LVU2251
 8176              	.LBE2234:
 8177              	.LBE2237:
 8178              	.LBE2238:
 8179              	.LBE2239:
 8180              	.LBE2240:
 203:../../libdaisy/src/hid/disp/display.h ****             {
 8181              		.loc 5 203 13 view .LVU2252
 8182 01cc BAEB4C0F 		cmp	r10, ip, lsl #1
 8183 01d0 04DA     		bge	.L603
 205:../../libdaisy/src/hid/disp/display.h ****                 x1 += signX;
 8184              		.loc 5 205 23 view .LVU2253
 8185 01d2 049B     		ldr	r3, [sp, #16]
 8186 01d4 ACEB030C 		sub	ip, ip, r3
 8187              	.LVL528:
 206:../../libdaisy/src/hid/disp/display.h ****             }
 8188              		.loc 5 206 20 view .LVU2254
 8189 01d8 059B     		ldr	r3, [sp, #20]
 8190 01da 1944     		add	r1, r1, r3
 8191              	.LVL529:
 8192              	.L603:
 209:../../libdaisy/src/hid/disp/display.h ****             {
 8193              		.loc 5 209 13 view .LVU2255
 8194 01dc C845     		cmp	r8, r9
 8195 01de 02DD     		ble	.L604
 212:../../libdaisy/src/hid/disp/display.h ****             }
 8196              		.loc 5 212 20 view .LVU2256
 8197 01e0 069B     		ldr	r3, [sp, #24]
 211:../../libdaisy/src/hid/disp/display.h ****                 y1 += signY;
 8198              		.loc 5 211 23 view .LVU2257
 8199 01e2 C444     		add	ip, ip, r8
 8200              	.LVL530:
 212:../../libdaisy/src/hid/disp/display.h ****             }
 8201              		.loc 5 212 20 view .LVU2258
 8202 01e4 1844     		add	r0, r0, r3
 8203              	.LVL531:
 8204              	.L604:
 199:../../libdaisy/src/hid/disp/display.h ****         {
 8205              		.loc 5 199 26 is_stmt 1 view .LVU2259
 8206 01e6 8E42     		cmp	r6, r1
 8207 01e8 DAD1     		bne	.L601
 199:../../libdaisy/src/hid/disp/display.h ****         {
ARM GAS  C:\Users\VINCIU~1\AppData\Local\Temp\ccdhDWPe.s 			page 209


 8208              		.loc 5 199 26 is_stmt 0 view .LVU2260
 8209 01ea 8242     		cmp	r2, r0
 8210 01ec D8D1     		bne	.L601
 8211              	.LVL532:
 8212              	.L598:
 199:../../libdaisy/src/hid/disp/display.h ****         {
 8213              		.loc 5 199 26 view .LVU2261
 8214              	.LBE2214:
 8215              	.LBE2213:
 808:Menus.cpp     ****                     false);
 809:Menus.cpp     **** 
 810:Menus.cpp     ****     screen.DrawLine(attackTimeFilterScaleDraw + decayTimeScaleFilterDraw,
 8216              		.loc 2 810 5 is_stmt 1 view .LVU2262
 811:Menus.cpp     ****                     (screen.Height() - 5) - sustatinLevelScaleFilterDraw,
 812:Menus.cpp     ****                     attackTimeFilterScaleDraw + decayTimeScaleFilterDraw
 813:Menus.cpp     ****                         + screen.Width() / 4,
 8217              		.loc 2 813 25 is_stmt 0 view .LVU2263
 8218 01ee 9FED597A 		vldr.32	s14, .L707+40
 8219 01f2 77EE877A 		vadd.f32	s15, s15, s14
 810:Menus.cpp     ****                     (screen.Height() - 5) - sustatinLevelScaleFilterDraw,
 8220              		.loc 2 810 20 view .LVU2264
 8221 01f6 BCEEE77A 		vcvt.u32.f32	s14, s15
 8222 01fa 17EE101A 		vmov	r1, s14	@ int
 8223              	.LVL533:
 8224              	.LBB2246:
 8225              	.LBI2246:
 181:../../libdaisy/src/hid/disp/display.h ****                   uint_fast8_t y1,
 8226              		.loc 5 181 10 is_stmt 1 view .LVU2265
 8227              	.LBB2247:
 187:../../libdaisy/src/hid/disp/display.h ****         int_fast16_t deltaY = abs((int_fast16_t)y2 - (int_fast16_t)y1);
 8228              		.loc 5 187 52 is_stmt 0 view .LVU2266
 8229 01fe A1EB0608 		sub	r8, r1, r6
 187:../../libdaisy/src/hid/disp/display.h ****         int_fast16_t deltaY = abs((int_fast16_t)y2 - (int_fast16_t)y1);
 8230              		.loc 5 187 22 view .LVU2267
 8231 0202 B8F1000F 		cmp	r8, #0
 8232 0206 B8BF     		it	lt
 8233 0208 C8F10008 		rsblt	r8, r8, #0
 8234              	.LVL534:
 189:../../libdaisy/src/hid/disp/display.h ****         int_fast16_t signY  = ((y1 < y2) ? 1 : -1);
 8235              		.loc 5 189 42 view .LVU2268
 8236 020c 8E42     		cmp	r6, r1
 8237 020e C0F00D81 		bcc	.L605
 8238              	.LVL535:
 8239              	.LBB2248:
 8240              	.LBI2248:
  41:../../libdaisy/src/hid/disp/oled_display.h ****     {
 8241              		.loc 1 41 10 is_stmt 1 view .LVU2269
 8242              	.LBB2249:
 8243              	.LBI2249:
 239:../../libdaisy/src/dev/oled_ssd130x.h ****     {
 8244              		.loc 6 239 10 view .LVU2270
 8245              	.LBB2250:
 241:../../libdaisy/src/dev/oled_ssd130x.h ****             return;
 8246              		.loc 6 241 9 is_stmt 0 view .LVU2271
 8247 0212 7F29     		cmp	r1, #127
 8248              	.LBE2250:
 8249              	.LBE2249:
ARM GAS  C:\Users\VINCIU~1\AppData\Local\Temp\ccdhDWPe.s 			page 210


 8250              	.LBE2248:
 189:../../libdaisy/src/hid/disp/display.h ****         int_fast16_t signY  = ((y1 < y2) ? 1 : -1);
 8251              		.loc 5 189 42 view .LVU2272
 8252 0214 4FF0FF39 		mov	r9, #-1
 8253              	.LBB2259:
 8254              	.LBB2256:
 8255              	.LBB2253:
 241:../../libdaisy/src/dev/oled_ssd130x.h ****             return;
 8256              		.loc 6 241 9 view .LVU2273
 8257 0218 0ED8     		bhi	.L606
 8258 021a 079B     		ldr	r3, [sp, #28]
 8259 021c 63B9     		cbnz	r3, .L606
 8260              	.LVL536:
 8261              	.L628:
 8262              	.LBB2251:
 8263              	.LBI2251:
 239:../../libdaisy/src/dev/oled_ssd130x.h ****     {
 8264              		.loc 6 239 10 is_stmt 1 view .LVU2274
 8265              	.LBB2252:
 246:../../libdaisy/src/dev/oled_ssd130x.h ****     }
 8266              		.loc 6 246 28 is_stmt 0 view .LVU2275
 8267 021e D308     		lsrs	r3, r2, #3
 246:../../libdaisy/src/dev/oled_ssd130x.h ****     }
 8268              		.loc 6 246 49 view .LVU2276
 8269 0220 0120     		movs	r0, #1
 246:../../libdaisy/src/dev/oled_ssd130x.h ****     }
 8270              		.loc 6 246 55 view .LVU2277
 8271 0222 02F0070C 		and	ip, r2, #7
 246:../../libdaisy/src/dev/oled_ssd130x.h ****     }
 8272              		.loc 6 246 42 view .LVU2278
 8273 0226 01EBC313 		add	r3, r1, r3, lsl #7
 246:../../libdaisy/src/dev/oled_ssd130x.h ****     }
 8274              		.loc 6 246 49 view .LVU2279
 8275 022a 00FA0CFC 		lsl	ip, r0, ip
 246:../../libdaisy/src/dev/oled_ssd130x.h ****     }
 8276              		.loc 6 246 42 view .LVU2280
 8277 022e 2344     		add	r3, r3, r4
 8278 0230 187D     		ldrb	r0, [r3, #20]	@ zero_extendqisi2
 8279 0232 20EA0C00 		bic	r0, r0, ip
 8280 0236 1875     		strb	r0, [r3, #20]
 8281              	.LVL537:
 8282              	.L606:
 246:../../libdaisy/src/dev/oled_ssd130x.h ****     }
 8283              		.loc 6 246 42 view .LVU2281
 8284              	.LBE2252:
 8285              	.LBE2251:
 8286              	.LBE2253:
 8287              	.LBE2256:
 8288              	.LBE2259:
 199:../../libdaisy/src/hid/disp/display.h ****         {
 8289              		.loc 5 199 26 is_stmt 1 view .LVU2282
 8290 0238 8E42     		cmp	r6, r1
 8291 023a 21D0     		beq	.L607
 8292              	.L608:
 8293              	.LVL538:
 187:../../libdaisy/src/hid/disp/display.h ****         int_fast16_t deltaY = abs((int_fast16_t)y2 - (int_fast16_t)y1);
 8294              		.loc 5 187 22 is_stmt 0 view .LVU2283
ARM GAS  C:\Users\VINCIU~1\AppData\Local\Temp\ccdhDWPe.s 			page 211


 8295 023c C646     		mov	lr, r8
 8296              	.LBE2247:
 8297              	.LBE2246:
 804:Menus.cpp     ****                     25,
 8298              		.loc 2 804 20 view .LVU2284
 8299 023e 1046     		mov	r0, r2
 8300              	.L610:
 8301              	.LVL539:
 8302              	.LBB2275:
 8303              	.LBB2273:
 8304              	.LBB2260:
 8305              	.LBI2260:
  41:../../libdaisy/src/hid/disp/oled_display.h ****     {
 8306              		.loc 1 41 10 is_stmt 1 view .LVU2285
 8307              	.LBB2261:
 8308              	.LBI2261:
 239:../../libdaisy/src/dev/oled_ssd130x.h ****     {
 8309              		.loc 6 239 10 view .LVU2286
 8310              	.LBB2262:
 8311              	.LBB2263:
 8312              	.LBI2263:
 239:../../libdaisy/src/dev/oled_ssd130x.h ****     {
 8313              		.loc 6 239 10 view .LVU2287
 8314              	.LBB2264:
 246:../../libdaisy/src/dev/oled_ssd130x.h ****     }
 8315              		.loc 6 246 28 is_stmt 0 view .LVU2288
 8316 0240 C308     		lsrs	r3, r0, #3
 246:../../libdaisy/src/dev/oled_ssd130x.h ****     }
 8317              		.loc 6 246 55 view .LVU2289
 8318 0242 00F0070A 		and	r10, r0, #7
 246:../../libdaisy/src/dev/oled_ssd130x.h ****     }
 8319              		.loc 6 246 49 view .LVU2290
 8320 0246 4FF0010C 		mov	ip, #1
 8321              	.LBE2264:
 8322              	.LBE2263:
 241:../../libdaisy/src/dev/oled_ssd130x.h ****             return;
 8323              		.loc 6 241 9 view .LVU2291
 8324 024a 7F2E     		cmp	r6, #127
 8325              	.LBB2268:
 8326              	.LBB2265:
 246:../../libdaisy/src/dev/oled_ssd130x.h ****     }
 8327              		.loc 6 246 42 view .LVU2292
 8328 024c 06EBC313 		add	r3, r6, r3, lsl #7
 246:../../libdaisy/src/dev/oled_ssd130x.h ****     }
 8329              		.loc 6 246 49 view .LVU2293
 8330 0250 0CFA0AFC 		lsl	ip, ip, r10
 8331              	.LBE2265:
 8332              	.LBE2268:
 241:../../libdaisy/src/dev/oled_ssd130x.h ****             return;
 8333              		.loc 6 241 9 view .LVU2294
 8334 0254 08D8     		bhi	.L611
 8335 0256 3F28     		cmp	r0, #63
 8336              	.LBB2269:
 8337              	.LBB2266:
 246:../../libdaisy/src/dev/oled_ssd130x.h ****     }
 8338              		.loc 6 246 42 view .LVU2295
 8339 0258 2344     		add	r3, r3, r4
ARM GAS  C:\Users\VINCIU~1\AppData\Local\Temp\ccdhDWPe.s 			page 212


 8340              	.LBE2266:
 8341              	.LBE2269:
 241:../../libdaisy/src/dev/oled_ssd130x.h ****             return;
 8342              		.loc 6 241 9 view .LVU2296
 8343 025a 05D8     		bhi	.L611
 8344              	.LBB2270:
 8345              	.LBB2267:
 246:../../libdaisy/src/dev/oled_ssd130x.h ****     }
 8346              		.loc 6 246 42 view .LVU2297
 8347 025c 93F814A0 		ldrb	r10, [r3, #20]	@ zero_extendqisi2
 8348 0260 2AEA0C0C 		bic	ip, r10, ip
 8349 0264 83F814C0 		strb	ip, [r3, #20]
 8350              	.L611:
 246:../../libdaisy/src/dev/oled_ssd130x.h ****     }
 8351              		.loc 6 246 42 view .LVU2298
 8352              	.LBE2267:
 8353              	.LBE2270:
 8354              	.LBE2262:
 8355              	.LBE2261:
 8356              	.LBE2260:
 203:../../libdaisy/src/hid/disp/display.h ****             {
 8357              		.loc 5 203 13 view .LVU2299
 8358 0268 5FEA4E03 		lsls	r3, lr, #1
 206:../../libdaisy/src/hid/disp/display.h ****             }
 8359              		.loc 5 206 20 view .LVU2300
 8360 026c 18BF     		it	ne
 8361 026e 4E44     		addne	r6, r6, r9
 8362              	.LVL540:
 209:../../libdaisy/src/hid/disp/display.h ****             {
 8363              		.loc 5 209 13 view .LVU2301
 8364 0270 9845     		cmp	r8, r3
 8365 0272 01DD     		ble	.L613
 211:../../libdaisy/src/hid/disp/display.h ****                 y1 += signY;
 8366              		.loc 5 211 23 view .LVU2302
 8367 0274 C644     		add	lr, lr, r8
 8368              	.LVL541:
 212:../../libdaisy/src/hid/disp/display.h ****             }
 8369              		.loc 5 212 20 view .LVU2303
 8370 0276 0138     		subs	r0, r0, #1
 8371              	.LVL542:
 8372              	.L613:
 199:../../libdaisy/src/hid/disp/display.h ****         {
 8373              		.loc 5 199 26 is_stmt 1 view .LVU2304
 8374 0278 B142     		cmp	r1, r6
 8375 027a E1D1     		bne	.L610
 199:../../libdaisy/src/hid/disp/display.h ****         {
 8376              		.loc 5 199 26 is_stmt 0 view .LVU2305
 8377 027c 8242     		cmp	r2, r0
 8378 027e DFD1     		bne	.L610
 8379              	.LVL543:
 8380              	.L607:
 199:../../libdaisy/src/hid/disp/display.h ****         {
 8381              		.loc 5 199 26 view .LVU2306
 8382              	.LBE2273:
 8383              	.LBE2275:
 814:Menus.cpp     ****                     (screen.Height() - 5) - sustatinLevelScaleFilterDraw,
 815:Menus.cpp     ****                     false);
ARM GAS  C:\Users\VINCIU~1\AppData\Local\Temp\ccdhDWPe.s 			page 213


 816:Menus.cpp     ****     screen.DrawLine(attackTimeFilterScaleDraw + decayTimeScaleFilterDraw
 8384              		.loc 2 816 5 is_stmt 1 view .LVU2307
 817:Menus.cpp     ****                         + screen.Width() / 4,
 818:Menus.cpp     ****                     (screen.Height() - 5) - sustatinLevelScaleFilterDraw,
 819:Menus.cpp     ****                     attackTimeFilterScaleDraw + decayTimeScaleFilterDraw
 820:Menus.cpp     ****                         + screen.Width() / 4 + releaseTimeScaleFilterDraw,
 8385              		.loc 2 820 46 is_stmt 0 view .LVU2308
 8386 0280 97ED777A 		vldr.32	s14, [r7, #476]
 8387              	.LBB2276:
 8388              	.LBB2277:
 188:../../libdaisy/src/hid/disp/display.h ****         int_fast16_t signX  = ((x1 < x2) ? 1 : -1);
 8389              		.loc 5 188 52 view .LVU2309
 8390 0284 C2F13B08 		rsb	r8, r2, #59
 8391              	.LBE2277:
 8392              	.LBE2276:
 8393              		.loc 2 820 46 view .LVU2310
 8394 0288 77EE877A 		vadd.f32	s15, s15, s14
 8395              	.LBB2313:
 8396              	.LBB2310:
 188:../../libdaisy/src/hid/disp/display.h ****         int_fast16_t signX  = ((x1 < x2) ? 1 : -1);
 8397              		.loc 5 188 22 view .LVU2311
 8398 028c B8F1000F 		cmp	r8, #0
 8399 0290 B8BF     		it	lt
 8400 0292 C8F10008 		rsblt	r8, r8, #0
 8401              	.LBE2310:
 8402              	.LBE2313:
 816:Menus.cpp     ****                         + screen.Width() / 4,
 8403              		.loc 2 816 20 view .LVU2312
 8404 0296 FCEEE77A 		vcvt.u32.f32	s15, s15
 8405 029a 17EE90EA 		vmov	lr, s15	@ int
 8406              	.LVL544:
 8407              	.LBB2314:
 8408              	.LBI2276:
 181:../../libdaisy/src/hid/disp/display.h ****                   uint_fast8_t y1,
 8409              		.loc 5 181 10 is_stmt 1 view .LVU2313
 8410              	.LBB2311:
 187:../../libdaisy/src/hid/disp/display.h ****         int_fast16_t deltaY = abs((int_fast16_t)y2 - (int_fast16_t)y1);
 8411              		.loc 5 187 52 is_stmt 0 view .LVU2314
 8412 029e AEEB0106 		sub	r6, lr, r1
 187:../../libdaisy/src/hid/disp/display.h ****         int_fast16_t deltaY = abs((int_fast16_t)y2 - (int_fast16_t)y1);
 8413              		.loc 5 187 22 view .LVU2315
 8414 02a2 002E     		cmp	r6, #0
 8415 02a4 B8BF     		it	lt
 8416 02a6 7642     		rsblt	r6, r6, #0
 8417              	.LVL545:
 189:../../libdaisy/src/hid/disp/display.h ****         int_fast16_t signY  = ((y1 < y2) ? 1 : -1);
 8418              		.loc 5 189 42 view .LVU2316
 8419 02a8 7145     		cmp	r1, lr
 8420 02aa 34BF     		ite	cc
 8421 02ac 4FF0010A 		movcc	r10, #1
 8422 02b0 4FF0FF3A 		movcs	r10, #-1
 8423              	.LVL546:
 190:../../libdaisy/src/hid/disp/display.h ****         int_fast16_t error  = deltaX - deltaY;
 8424              		.loc 5 190 42 view .LVU2317
 8425 02b4 3A2A     		cmp	r2, #58
 191:../../libdaisy/src/hid/disp/display.h ****         int_fast16_t error2;
 8426              		.loc 5 191 22 view .LVU2318
ARM GAS  C:\Users\VINCIU~1\AppData\Local\Temp\ccdhDWPe.s 			page 214


 8427 02b6 A6EB0800 		sub	r0, r6, r8
 190:../../libdaisy/src/hid/disp/display.h ****         int_fast16_t error  = deltaX - deltaY;
 8428              		.loc 5 190 42 view .LVU2319
 8429 02ba 40F29F80 		bls	.L615
 8430              	.LVL547:
 8431              	.LBB2278:
 8432              	.LBI2278:
  41:../../libdaisy/src/hid/disp/oled_display.h ****     {
 8433              		.loc 1 41 10 is_stmt 1 view .LVU2320
 8434              	.LBB2279:
 8435              	.LBI2279:
 239:../../libdaisy/src/dev/oled_ssd130x.h ****     {
 8436              		.loc 6 239 10 view .LVU2321
 8437              	.LBE2279:
 8438              	.LBE2278:
 190:../../libdaisy/src/hid/disp/display.h ****         int_fast16_t error  = deltaX - deltaY;
 8439              		.loc 5 190 42 is_stmt 0 view .LVU2322
 8440 02be 4FF0FF33 		mov	r3, #-1
 8441              	.LBB2291:
 8442              	.LBB2286:
 8443              	.LBB2280:
 241:../../libdaisy/src/dev/oled_ssd130x.h ****             return;
 8444              		.loc 6 241 9 view .LVU2323
 8445 02c2 BEF17F0F 		cmp	lr, #127
 8446              	.LBE2280:
 8447              	.LBE2286:
 8448              	.LBE2291:
 190:../../libdaisy/src/hid/disp/display.h ****         int_fast16_t error  = deltaX - deltaY;
 8449              		.loc 5 190 42 view .LVU2324
 8450 02c6 0493     		str	r3, [sp, #16]
 8451              	.LBB2292:
 8452              	.LBB2287:
 8453              	.LBB2283:
 241:../../libdaisy/src/dev/oled_ssd130x.h ****             return;
 8454              		.loc 6 241 9 view .LVU2325
 8455 02c8 06D8     		bhi	.L616
 8456              	.LVL548:
 8457              	.L627:
 8458              	.LBB2281:
 8459              	.LBI2281:
 239:../../libdaisy/src/dev/oled_ssd130x.h ****     {
 8460              		.loc 6 239 10 is_stmt 1 view .LVU2326
 8461              	.LBB2282:
 246:../../libdaisy/src/dev/oled_ssd130x.h ****     }
 8462              		.loc 6 246 42 is_stmt 0 view .LVU2327
 8463 02ca 0EF56073 		add	r3, lr, #896
 8464 02ce 2344     		add	r3, r3, r4
 8465 02d0 1F7D     		ldrb	r7, [r3, #20]	@ zero_extendqisi2
 8466              	.LVL549:
 246:../../libdaisy/src/dev/oled_ssd130x.h ****     }
 8467              		.loc 6 246 42 view .LVU2328
 8468 02d2 27F00807 		bic	r7, r7, #8
 8469 02d6 1F75     		strb	r7, [r3, #20]
 8470              	.LVL550:
 8471              	.L616:
 246:../../libdaisy/src/dev/oled_ssd130x.h ****     }
 8472              		.loc 6 246 42 view .LVU2329
ARM GAS  C:\Users\VINCIU~1\AppData\Local\Temp\ccdhDWPe.s 			page 215


 8473              	.LBE2282:
 8474              	.LBE2281:
 8475              	.LBE2283:
 8476              	.LBE2287:
 8477              	.LBE2292:
 199:../../libdaisy/src/hid/disp/display.h ****         {
 8478              		.loc 5 199 26 is_stmt 1 view .LVU2330
 8479 02d8 7145     		cmp	r1, lr
 8480 02da 01D1     		bne	.L619
 8481 02dc 3B2A     		cmp	r2, #59
 8482 02de 3DD0     		beq	.L617
 8483              	.L619:
 8484              	.LVL551:
 203:../../libdaisy/src/hid/disp/display.h ****             {
 8485              		.loc 5 203 23 is_stmt 0 view .LVU2331
 8486 02e0 C8F10009 		rsb	r9, r8, #0
 8487              	.L621:
 8488              	.LVL552:
 8489              	.LBB2293:
 8490              	.LBI2293:
  41:../../libdaisy/src/hid/disp/oled_display.h ****     {
 8491              		.loc 1 41 10 is_stmt 1 view .LVU2332
 8492              	.LBB2294:
 8493              	.LBI2294:
 239:../../libdaisy/src/dev/oled_ssd130x.h ****     {
 8494              		.loc 6 239 10 view .LVU2333
 8495              	.LBB2295:
 8496              	.LBB2296:
 8497              	.LBI2296:
 239:../../libdaisy/src/dev/oled_ssd130x.h ****     {
 8498              		.loc 6 239 10 view .LVU2334
 8499              	.LBB2297:
 246:../../libdaisy/src/dev/oled_ssd130x.h ****     }
 8500              		.loc 6 246 49 is_stmt 0 view .LVU2335
 8501 02e4 4FF0010B 		mov	fp, #1
 246:../../libdaisy/src/dev/oled_ssd130x.h ****     }
 8502              		.loc 6 246 28 view .LVU2336
 8503 02e8 D308     		lsrs	r3, r2, #3
 246:../../libdaisy/src/dev/oled_ssd130x.h ****     }
 8504              		.loc 6 246 55 view .LVU2337
 8505 02ea 02F00707 		and	r7, r2, #7
 8506              	.LBE2297:
 8507              	.LBE2296:
 241:../../libdaisy/src/dev/oled_ssd130x.h ****             return;
 8508              		.loc 6 241 9 view .LVU2338
 8509 02ee 7F29     		cmp	r1, #127
 8510              	.LBE2295:
 8511              	.LBE2294:
 8512              	.LBE2293:
 202:../../libdaisy/src/hid/disp/display.h ****             if(error2 > -deltaY)
 8513              		.loc 5 202 20 view .LVU2339
 8514 02f0 00FA0BFC 		lsl	ip, r0, fp
 8515              	.LVL553:
 8516              	.LBB2306:
 8517              	.LBB2305:
 8518              	.LBB2304:
 8519              	.LBB2301:
ARM GAS  C:\Users\VINCIU~1\AppData\Local\Temp\ccdhDWPe.s 			page 216


 8520              	.LBB2298:
 246:../../libdaisy/src/dev/oled_ssd130x.h ****     }
 8521              		.loc 6 246 42 view .LVU2340
 8522 02f4 01EBC313 		add	r3, r1, r3, lsl #7
 246:../../libdaisy/src/dev/oled_ssd130x.h ****     }
 8523              		.loc 6 246 49 view .LVU2341
 8524 02f8 0BFA07FB 		lsl	fp, fp, r7
 8525              	.LBE2298:
 8526              	.LBE2301:
 241:../../libdaisy/src/dev/oled_ssd130x.h ****             return;
 8527              		.loc 6 241 9 view .LVU2342
 8528 02fc 06D8     		bhi	.L622
 8529 02fe 3F2A     		cmp	r2, #63
 8530              	.LBB2302:
 8531              	.LBB2299:
 246:../../libdaisy/src/dev/oled_ssd130x.h ****     }
 8532              		.loc 6 246 42 view .LVU2343
 8533 0300 2344     		add	r3, r3, r4
 8534              	.LBE2299:
 8535              	.LBE2302:
 241:../../libdaisy/src/dev/oled_ssd130x.h ****             return;
 8536              		.loc 6 241 9 view .LVU2344
 8537 0302 03D8     		bhi	.L622
 8538              	.LBB2303:
 8539              	.LBB2300:
 246:../../libdaisy/src/dev/oled_ssd130x.h ****     }
 8540              		.loc 6 246 42 view .LVU2345
 8541 0304 1F7D     		ldrb	r7, [r3, #20]	@ zero_extendqisi2
 8542 0306 27EA0B07 		bic	r7, r7, fp
 8543 030a 1F75     		strb	r7, [r3, #20]
 8544              	.L622:
 246:../../libdaisy/src/dev/oled_ssd130x.h ****     }
 8545              		.loc 6 246 42 view .LVU2346
 8546              	.LBE2300:
 8547              	.LBE2303:
 8548              	.LBE2304:
 8549              	.LBE2305:
 8550              	.LBE2306:
 203:../../libdaisy/src/hid/disp/display.h ****             {
 8551              		.loc 5 203 13 view .LVU2347
 8552 030c B9EB400F 		cmp	r9, r0, lsl #1
 8553 0310 02DA     		bge	.L623
 205:../../libdaisy/src/hid/disp/display.h ****                 x1 += signX;
 8554              		.loc 5 205 23 view .LVU2348
 8555 0312 A0EB0800 		sub	r0, r0, r8
 8556              	.LVL554:
 206:../../libdaisy/src/hid/disp/display.h ****             }
 8557              		.loc 5 206 20 view .LVU2349
 8558 0316 5144     		add	r1, r1, r10
 8559              	.LVL555:
 8560              	.L623:
 209:../../libdaisy/src/hid/disp/display.h ****             {
 8561              		.loc 5 209 13 view .LVU2350
 8562 0318 6645     		cmp	r6, ip
 8563 031a 02DD     		ble	.L624
 212:../../libdaisy/src/hid/disp/display.h ****             }
 8564              		.loc 5 212 20 view .LVU2351
ARM GAS  C:\Users\VINCIU~1\AppData\Local\Temp\ccdhDWPe.s 			page 217


 8565 031c 049B     		ldr	r3, [sp, #16]
 211:../../libdaisy/src/hid/disp/display.h ****                 y1 += signY;
 8566              		.loc 5 211 23 view .LVU2352
 8567 031e 3044     		add	r0, r0, r6
 8568              	.LVL556:
 212:../../libdaisy/src/hid/disp/display.h ****             }
 8569              		.loc 5 212 20 view .LVU2353
 8570 0320 1A44     		add	r2, r2, r3
 8571              	.LVL557:
 8572              	.L624:
 199:../../libdaisy/src/hid/disp/display.h ****         {
 8573              		.loc 5 199 26 is_stmt 1 view .LVU2354
 8574 0322 8E45     		cmp	lr, r1
 8575 0324 DED1     		bne	.L621
 199:../../libdaisy/src/hid/disp/display.h ****         {
 8576              		.loc 5 199 26 is_stmt 0 view .LVU2355
 8577 0326 3B2A     		cmp	r2, #59
 8578 0328 DCD1     		bne	.L621
 8579 032a 17E0     		b	.L708
 8580              	.L709:
 8581              		.align	2
 8582              	.L707:
 8583 032c 00000000 		.word	Font_6x8
 8584 0330 20000400 		.word	262176
 8585 0334 00000000 		.word	.LC7
 8586 0338 30000400 		.word	262192
 8587 033c 04000000 		.word	.LC8
 8588 0340 40000400 		.word	262208
 8589 0344 08000000 		.word	.LC9
 8590 0348 50000400 		.word	262224
 8591 034c 0C000000 		.word	.LC10
 8592 0350 00006C42 		.word	1114374144
 8593 0354 00000042 		.word	1107296256
 8594 0358 0000C842 		.word	1120403456
 8595              	.L708:
 8596              	.LVL558:
 8597              	.L617:
 199:../../libdaisy/src/hid/disp/display.h ****         {
 8598              		.loc 5 199 26 view .LVU2356
 8599              	.LBE2311:
 8600              	.LBE2314:
 8601              	.LBB2315:
 8602              	.LBB2316:
 8603              	.LBB2317:
 8604              	.LBB2318:
 8605              	.LBB2319:
 111:../../libdaisy/src/dev/oled_ssd130x.h ****         spi_.BlockingTransmit(&cmd, 1);
 8606              		.loc 6 111 24 view .LVU2357
 8607 035c 05F10807 		add	r7, r5, #8
 8608 0360 05F10C06 		add	r6, r5, #12
 8609              	.LVL559:
 111:../../libdaisy/src/dev/oled_ssd130x.h ****         spi_.BlockingTransmit(&cmd, 1);
 8610              		.loc 6 111 24 view .LVU2358
 8611 0364 05F20C49 		addw	r9, r5, #1036
 8612 0368 B024     		movs	r4, #176
 8613              	.LVL560:
 8614              	.L625:
ARM GAS  C:\Users\VINCIU~1\AppData\Local\Temp\ccdhDWPe.s 			page 218


 111:../../libdaisy/src/dev/oled_ssd130x.h ****         spi_.BlockingTransmit(&cmd, 1);
 8615              		.loc 6 111 24 view .LVU2359
 8616 036a 4FF00008 		mov	r8, #0
 111:../../libdaisy/src/dev/oled_ssd130x.h ****         spi_.BlockingTransmit(&cmd, 1);
 8617              		.loc 6 111 23 view .LVU2360
 8618 036e 3846     		mov	r0, r7
 8619 0370 8DF82740 		strb	r4, [sp, #39]
 8620              	.LVL561:
 111:../../libdaisy/src/dev/oled_ssd130x.h ****         spi_.BlockingTransmit(&cmd, 1);
 8621              		.loc 6 111 23 view .LVU2361
 8622              	.LBE2319:
 8623              	.LBI2318:
 109:../../libdaisy/src/dev/oled_ssd130x.h ****     {
 8624              		.loc 6 109 10 is_stmt 1 view .LVU2362
 8625              	.LBB2320:
 111:../../libdaisy/src/dev/oled_ssd130x.h ****         spi_.BlockingTransmit(&cmd, 1);
 8626              		.loc 6 111 9 view .LVU2363
 8627              	.LBE2320:
 8628              	.LBE2318:
 8629              		.loc 6 270 22 is_stmt 0 view .LVU2364
 8630 0374 0134     		adds	r4, r4, #1
 8631              	.LVL562:
 8632              	.LBB2323:
 8633              	.LBB2321:
 111:../../libdaisy/src/dev/oled_ssd130x.h ****         spi_.BlockingTransmit(&cmd, 1);
 8634              		.loc 6 111 23 view .LVU2365
 8635 0376 4146     		mov	r1, r8
 8636 0378 FFF7FEFF 		bl	dsy_gpio_write
 8637              	.LVL563:
 112:../../libdaisy/src/dev/oled_ssd130x.h ****     };
 8638              		.loc 6 112 9 is_stmt 1 view .LVU2366
 112:../../libdaisy/src/dev/oled_ssd130x.h ****     };
 8639              		.loc 6 112 30 is_stmt 0 view .LVU2367
 8640 037c 6423     		movs	r3, #100
 8641 037e 0122     		movs	r2, #1
 8642 0380 0DF12701 		add	r1, sp, #39
 8643 0384 2846     		mov	r0, r5
 8644              	.LBE2321:
 8645              	.LBE2323:
 8646              		.loc 6 270 22 view .LVU2368
 8647 0386 E4B2     		uxtb	r4, r4
 8648              	.LBB2324:
 8649              	.LBB2322:
 112:../../libdaisy/src/dev/oled_ssd130x.h ****     };
 8650              		.loc 6 112 30 view .LVU2369
 8651 0388 FFF7FEFF 		bl	_ZN5daisy9SpiHandle16BlockingTransmitEPhjm
 8652              	.LVL564:
 112:../../libdaisy/src/dev/oled_ssd130x.h ****     };
 8653              		.loc 6 112 30 view .LVU2370
 8654              	.LBE2322:
 8655              	.LBE2324:
 8656              	.LBB2325:
 8657              	.LBB2326:
 111:../../libdaisy/src/dev/oled_ssd130x.h ****         spi_.BlockingTransmit(&cmd, 1);
 8658              		.loc 6 111 23 view .LVU2371
 8659 038c 4146     		mov	r1, r8
 8660 038e 3846     		mov	r0, r7
ARM GAS  C:\Users\VINCIU~1\AppData\Local\Temp\ccdhDWPe.s 			page 219


 8661 0390 8DF82780 		strb	r8, [sp, #39]
 8662              	.LVL565:
 111:../../libdaisy/src/dev/oled_ssd130x.h ****         spi_.BlockingTransmit(&cmd, 1);
 8663              		.loc 6 111 23 view .LVU2372
 8664              	.LBE2326:
 8665              	.LBI2325:
 109:../../libdaisy/src/dev/oled_ssd130x.h ****     {
 8666              		.loc 6 109 10 is_stmt 1 view .LVU2373
 8667              	.LBB2327:
 111:../../libdaisy/src/dev/oled_ssd130x.h ****         spi_.BlockingTransmit(&cmd, 1);
 8668              		.loc 6 111 9 view .LVU2374
 111:../../libdaisy/src/dev/oled_ssd130x.h ****         spi_.BlockingTransmit(&cmd, 1);
 8669              		.loc 6 111 23 is_stmt 0 view .LVU2375
 8670 0394 FFF7FEFF 		bl	dsy_gpio_write
 8671              	.LVL566:
 112:../../libdaisy/src/dev/oled_ssd130x.h ****     };
 8672              		.loc 6 112 9 is_stmt 1 view .LVU2376
 112:../../libdaisy/src/dev/oled_ssd130x.h ****     };
 8673              		.loc 6 112 30 is_stmt 0 view .LVU2377
 8674 0398 0122     		movs	r2, #1
 8675 039a 6423     		movs	r3, #100
 8676 039c 0DF12701 		add	r1, sp, #39
 8677 03a0 2846     		mov	r0, r5
 8678 03a2 FFF7FEFF 		bl	_ZN5daisy9SpiHandle16BlockingTransmitEPhjm
 8679              	.LVL567:
 112:../../libdaisy/src/dev/oled_ssd130x.h ****     };
 8680              		.loc 6 112 30 view .LVU2378
 8681 03a6 1023     		movs	r3, #16
 8682              	.LBE2327:
 8683              	.LBE2325:
 8684              	.LBB2328:
 8685              	.LBB2329:
 111:../../libdaisy/src/dev/oled_ssd130x.h ****         spi_.BlockingTransmit(&cmd, 1);
 8686              		.loc 6 111 23 view .LVU2379
 8687 03a8 4146     		mov	r1, r8
 8688 03aa 3846     		mov	r0, r7
 8689 03ac 8DF82730 		strb	r3, [sp, #39]
 8690              	.LVL568:
 111:../../libdaisy/src/dev/oled_ssd130x.h ****         spi_.BlockingTransmit(&cmd, 1);
 8691              		.loc 6 111 23 view .LVU2380
 8692              	.LBE2329:
 8693              	.LBI2328:
 109:../../libdaisy/src/dev/oled_ssd130x.h ****     {
 8694              		.loc 6 109 10 is_stmt 1 view .LVU2381
 8695              	.LBB2330:
 111:../../libdaisy/src/dev/oled_ssd130x.h ****         spi_.BlockingTransmit(&cmd, 1);
 8696              		.loc 6 111 9 view .LVU2382
 111:../../libdaisy/src/dev/oled_ssd130x.h ****         spi_.BlockingTransmit(&cmd, 1);
 8697              		.loc 6 111 23 is_stmt 0 view .LVU2383
 8698 03b0 FFF7FEFF 		bl	dsy_gpio_write
 8699              	.LVL569:
 112:../../libdaisy/src/dev/oled_ssd130x.h ****     };
 8700              		.loc 6 112 9 is_stmt 1 view .LVU2384
 112:../../libdaisy/src/dev/oled_ssd130x.h ****     };
 8701              		.loc 6 112 30 is_stmt 0 view .LVU2385
 8702 03b4 6423     		movs	r3, #100
 8703 03b6 0122     		movs	r2, #1
ARM GAS  C:\Users\VINCIU~1\AppData\Local\Temp\ccdhDWPe.s 			page 220


 8704 03b8 0DF12701 		add	r1, sp, #39
 8705 03bc 2846     		mov	r0, r5
 8706 03be FFF7FEFF 		bl	_ZN5daisy9SpiHandle16BlockingTransmitEPhjm
 8707              	.LVL570:
 112:../../libdaisy/src/dev/oled_ssd130x.h ****     };
 8708              		.loc 6 112 30 view .LVU2386
 8709              	.LBE2330:
 8710              	.LBE2328:
 8711              	.LBB2331:
 8712              	.LBI2331:
 115:../../libdaisy/src/dev/oled_ssd130x.h ****     {
 8713              		.loc 6 115 10 is_stmt 1 view .LVU2387
 8714              	.LBB2332:
 117:../../libdaisy/src/dev/oled_ssd130x.h ****         spi_.BlockingTransmit(buff, size);
 8715              		.loc 6 117 9 view .LVU2388
 117:../../libdaisy/src/dev/oled_ssd130x.h ****         spi_.BlockingTransmit(buff, size);
 8716              		.loc 6 117 23 is_stmt 0 view .LVU2389
 8717 03c2 0121     		movs	r1, #1
 8718 03c4 3846     		mov	r0, r7
 8719 03c6 FFF7FEFF 		bl	dsy_gpio_write
 8720              	.LVL571:
 118:../../libdaisy/src/dev/oled_ssd130x.h ****     };
 8721              		.loc 6 118 9 is_stmt 1 view .LVU2390
 118:../../libdaisy/src/dev/oled_ssd130x.h ****     };
 8722              		.loc 6 118 30 is_stmt 0 view .LVU2391
 8723 03ca 8022     		movs	r2, #128
 8724 03cc 3146     		mov	r1, r6
 8725 03ce 6423     		movs	r3, #100
 8726              	.LBE2332:
 8727              	.LBE2331:
 8728              		.loc 6 270 22 view .LVU2392
 8729 03d0 1644     		add	r6, r6, r2
 8730              	.LVL572:
 8731              	.LBB2334:
 8732              	.LBB2333:
 118:../../libdaisy/src/dev/oled_ssd130x.h ****     };
 8733              		.loc 6 118 30 view .LVU2393
 8734 03d2 2846     		mov	r0, r5
 8735 03d4 FFF7FEFF 		bl	_ZN5daisy9SpiHandle16BlockingTransmitEPhjm
 8736              	.LVL573:
 118:../../libdaisy/src/dev/oled_ssd130x.h ****     };
 8737              		.loc 6 118 30 view .LVU2394
 8738              	.LBE2333:
 8739              	.LBE2334:
 8740              		.loc 6 270 9 is_stmt 1 view .LVU2395
 8741              		.loc 6 270 22 view .LVU2396
 8742 03d8 4E45     		cmp	r6, r9
 8743 03da C6D1     		bne	.L625
 8744              	.LBE2317:
 8745              	.LBE2316:
 8746              	.LBE2315:
 821:Menus.cpp     ****                     screen.Height() - 5,
 822:Menus.cpp     ****                     false);
 823:Menus.cpp     **** 
 824:Menus.cpp     **** 
 825:Menus.cpp     ****     screen.Update();
 826:Menus.cpp     **** }...
ARM GAS  C:\Users\VINCIU~1\AppData\Local\Temp\ccdhDWPe.s 			page 221


 8747              		.loc 2 826 1 is_stmt 0 view .LVU2397
 8748 03dc 0BB0     		add	sp, sp, #44
 8749              		.cfi_remember_state
 8750              		.cfi_def_cfa_offset 36
 8751              		@ sp needed
 8752 03de BDE8F08F 		pop	{r4, r5, r6, r7, r8, r9, r10, fp, pc}
 8753              	.LVL574:
 8754              	.L587:
 8755              		.cfi_restore_state
 8756              	.LBB2335:
 8757              	.LBB2211:
 8758              	.LBB2208:
 8759              	.LBB2189:
 8760              	.LBB2185:
 239:../../libdaisy/src/dev/oled_ssd130x.h ****     {
 8761              		.loc 6 239 10 is_stmt 1 view .LVU2398
 8762              	.LBE2185:
 8763              	.LBE2189:
 8764              	.LBE2208:
 189:../../libdaisy/src/hid/disp/display.h ****         int_fast16_t signY  = ((y1 < y2) ? 1 : -1);
 8765              		.loc 5 189 42 is_stmt 0 view .LVU2399
 8766 03e2 4FF0FF39 		mov	r9, #-1
 8767              	.LVL575:
 8768              	.L626:
 8769              	.LBB2209:
 8770              	.LBB2190:
 8771              	.LBB2186:
 8772              	.LBB2183:
 8773              	.LBB2180:
 8774              	.LBI2180:
 239:../../libdaisy/src/dev/oled_ssd130x.h ****     {
 8775              		.loc 6 239 10 is_stmt 1 view .LVU2400
 8776              	.LBB2181:
 246:../../libdaisy/src/dev/oled_ssd130x.h ****     }
 8777              		.loc 6 246 42 is_stmt 0 view .LVU2401
 8778 03e6 01F5C073 		add	r3, r1, #384
 8779 03ea 2344     		add	r3, r3, r4
 8780 03ec 1A7D     		ldrb	r2, [r3, #20]	@ zero_extendqisi2
 8781 03ee 22F00202 		bic	r2, r2, #2
 8782 03f2 1A75     		strb	r2, [r3, #20]
 8783 03f4 65E6     		b	.L588
 8784              	.LVL576:
 8785              	.L593:
 246:../../libdaisy/src/dev/oled_ssd130x.h ****     }
 8786              		.loc 6 246 42 view .LVU2402
 8787              	.LBE2181:
 8788              	.LBE2180:
 8789              	.LBE2183:
 8790              	.LBE2186:
 8791              	.LBE2190:
 8792              	.LBE2209:
 211:../../libdaisy/src/hid/disp/display.h ****                 y1 += signY;
 8793              		.loc 5 211 23 view .LVU2403
 8794 03f6 C444     		add	ip, ip, r8
 8795              	.LVL577:
 212:../../libdaisy/src/hid/disp/display.h ****             }
 8796              		.loc 5 212 20 view .LVU2404
ARM GAS  C:\Users\VINCIU~1\AppData\Local\Temp\ccdhDWPe.s 			page 222


 8797 03f8 013A     		subs	r2, r2, #1
 8798              	.LVL578:
 212:../../libdaisy/src/hid/disp/display.h ****             }
 8799              		.loc 5 212 20 view .LVU2405
 8800 03fa 82E6     		b	.L594
 8801              	.LVL579:
 8802              	.L615:
 212:../../libdaisy/src/hid/disp/display.h ****             }
 8803              		.loc 5 212 20 view .LVU2406
 8804              	.LBE2211:
 8805              	.LBE2335:
 8806              	.LBB2336:
 8807              	.LBB2312:
 8808              	.LBB2307:
  41:../../libdaisy/src/hid/disp/oled_display.h ****     {
 8809              		.loc 1 41 10 is_stmt 1 view .LVU2407
 8810              	.LBB2288:
 239:../../libdaisy/src/dev/oled_ssd130x.h ****     {
 8811              		.loc 6 239 10 view .LVU2408
 8812              	.LBE2288:
 8813              	.LBE2307:
 190:../../libdaisy/src/hid/disp/display.h ****         int_fast16_t error  = deltaX - deltaY;
 8814              		.loc 5 190 42 is_stmt 0 view .LVU2409
 8815 03fc 0123     		movs	r3, #1
 8816              	.LBB2308:
 8817              	.LBB2289:
 8818              	.LBB2284:
 241:../../libdaisy/src/dev/oled_ssd130x.h ****             return;
 8819              		.loc 6 241 9 view .LVU2410
 8820 03fe BEF17F0F 		cmp	lr, #127
 8821              	.LBE2284:
 8822              	.LBE2289:
 8823              	.LBE2308:
 190:../../libdaisy/src/hid/disp/display.h ****         int_fast16_t error  = deltaX - deltaY;
 8824              		.loc 5 190 42 view .LVU2411
 8825 0402 0493     		str	r3, [sp, #16]
 8826              	.LBB2309:
 8827              	.LBB2290:
 8828              	.LBB2285:
 241:../../libdaisy/src/dev/oled_ssd130x.h ****             return;
 8829              		.loc 6 241 9 view .LVU2412
 8830 0404 7FF661AF 		bls	.L627
 8831 0408 6AE7     		b	.L619
 8832              	.LVL580:
 8833              	.L596:
 241:../../libdaisy/src/dev/oled_ssd130x.h ****             return;
 8834              		.loc 6 241 9 view .LVU2413
 8835              	.LBE2285:
 8836              	.LBE2290:
 8837              	.LBE2309:
 8838              	.LBE2312:
 8839              	.LBE2336:
 8840              	.LBB2337:
 8841              	.LBB2243:
 191:../../libdaisy/src/hid/disp/display.h ****         int_fast16_t error2;
 8842              		.loc 5 191 22 view .LVU2414
 8843 040a 049B     		ldr	r3, [sp, #16]
ARM GAS  C:\Users\VINCIU~1\AppData\Local\Temp\ccdhDWPe.s 			page 223


 8844              	.LVL581:
 8845              	.LBB2241:
 8846              	.LBB2224:
 8847              	.LBB2221:
 241:../../libdaisy/src/dev/oled_ssd130x.h ****             return;
 8848              		.loc 6 241 28 view .LVU2415
 8849 040c 3F2A     		cmp	r2, #63
 8850              	.LBE2221:
 8851              	.LBE2224:
 8852              	.LBE2241:
 191:../../libdaisy/src/hid/disp/display.h ****         int_fast16_t error2;
 8853              		.loc 5 191 22 view .LVU2416
 8854 040e A8EB030C 		sub	ip, r8, r3
 8855              	.LVL582:
 8856              	.LBB2242:
  41:../../libdaisy/src/hid/disp/oled_display.h ****     {
 8857              		.loc 1 41 10 is_stmt 1 view .LVU2417
 8858              	.LBB2225:
 239:../../libdaisy/src/dev/oled_ssd130x.h ****     {
 8859              		.loc 6 239 10 view .LVU2418
 8860              	.LBB2222:
 241:../../libdaisy/src/dev/oled_ssd130x.h ****             return;
 8861              		.loc 6 241 28 is_stmt 0 view .LVU2419
 8862 0412 94BF     		ite	ls
 8863 0414 0023     		movls	r3, #0
 8864 0416 0123     		movhi	r3, #1
 241:../../libdaisy/src/dev/oled_ssd130x.h ****             return;
 8865              		.loc 6 241 9 view .LVU2420
 8866 0418 7F2E     		cmp	r6, #127
 241:../../libdaisy/src/dev/oled_ssd130x.h ****             return;
 8867              		.loc 6 241 28 view .LVU2421
 8868 041a 0793     		str	r3, [sp, #28]
 241:../../libdaisy/src/dev/oled_ssd130x.h ****             return;
 8869              		.loc 6 241 9 view .LVU2422
 8870 041c 00F2B081 		bhi	.L641
 8871 0420 002B     		cmp	r3, #0
 8872 0422 40F0AD81 		bne	.L641
 8873              	.LBE2222:
 8874              	.LBE2225:
 8875              	.LBE2242:
 190:../../libdaisy/src/hid/disp/display.h ****         int_fast16_t error  = deltaX - deltaY;
 8876              		.loc 5 190 42 view .LVU2423
 8877 0426 0123     		movs	r3, #1
 8878 0428 0693     		str	r3, [sp, #24]
 8879 042a 9FE6     		b	.L629
 8880              	.LVL583:
 8881              	.L605:
 190:../../libdaisy/src/hid/disp/display.h ****         int_fast16_t error  = deltaX - deltaY;
 8882              		.loc 5 190 42 view .LVU2424
 8883              	.LBE2243:
 8884              	.LBE2337:
 8885              	.LBB2338:
 8886              	.LBB2274:
 8887              	.LBB2271:
  41:../../libdaisy/src/hid/disp/oled_display.h ****     {
 8888              		.loc 1 41 10 is_stmt 1 view .LVU2425
 8889              	.LBB2257:
ARM GAS  C:\Users\VINCIU~1\AppData\Local\Temp\ccdhDWPe.s 			page 224


 239:../../libdaisy/src/dev/oled_ssd130x.h ****     {
 8890              		.loc 6 239 10 view .LVU2426
 8891              	.LBB2254:
 241:../../libdaisy/src/dev/oled_ssd130x.h ****             return;
 8892              		.loc 6 241 9 is_stmt 0 view .LVU2427
 8893 042c 7F29     		cmp	r1, #127
 8894              	.LBE2254:
 8895              	.LBE2257:
 8896              	.LBE2271:
 189:../../libdaisy/src/hid/disp/display.h ****         int_fast16_t signY  = ((y1 < y2) ? 1 : -1);
 8897              		.loc 5 189 42 view .LVU2428
 8898 042e 4FF00109 		mov	r9, #1
 8899              	.LBB2272:
 8900              	.LBB2258:
 8901              	.LBB2255:
 241:../../libdaisy/src/dev/oled_ssd130x.h ****             return;
 8902              		.loc 6 241 9 view .LVU2429
 8903 0432 3FF603AF 		bhi	.L608
 8904 0436 079B     		ldr	r3, [sp, #28]
 8905 0438 002B     		cmp	r3, #0
 8906 043a 3FF4F0AE 		beq	.L628
 8907 043e FDE6     		b	.L608
 8908              	.LVL584:
 8909              	.L699:
 241:../../libdaisy/src/dev/oled_ssd130x.h ****             return;
 8910              		.loc 6 241 9 view .LVU2430
 8911              	.LBE2255:
 8912              	.LBE2258:
 8913              	.LBE2272:
 8914              	.LBE2274:
 8915              	.LBE2338:
 696:Menus.cpp     ****         this->menuStateEnvFilter  = this->menuStateEnvFilter  + 1;
 8916              		.loc 2 696 9 is_stmt 1 view .LVU2431
 696:Menus.cpp     ****         this->menuStateEnvFilter  = this->menuStateEnvFilter  + 1;
 8917              		.loc 2 696 63 is_stmt 0 view .LVU2432
 8918 0440 0132     		adds	r2, r2, #1
 697:Menus.cpp     ****         if(this->menuStateEnvFilter  > 3)
 8919              		.loc 2 697 9 view .LVU2433
 8920 0442 032A     		cmp	r2, #3
 696:Menus.cpp     ****         this->menuStateEnvFilter  = this->menuStateEnvFilter  + 1;
 8921              		.loc 2 696 35 view .LVU2434
 8922 0444 C7F8B021 		str	r2, [r7, #432]
 697:Menus.cpp     ****         if(this->menuStateEnvFilter  > 3)
 8923              		.loc 2 697 9 is_stmt 1 view .LVU2435
 8924 0448 7FF7F3AD 		ble	.L545
 8925              	.L542:
 699:Menus.cpp     ****             this->menuStateEnvFilter  = 0;
 8926              		.loc 2 699 13 view .LVU2436
 699:Menus.cpp     ****             this->menuStateEnvFilter  = 0;
 8927              		.loc 2 699 39 is_stmt 0 view .LVU2437
 8928 044c 0023     		movs	r3, #0
 8929 044e C7F8B031 		str	r3, [r7, #432]
 702:Menus.cpp     ****     if(this->menuStateEnvFilter  == 0)
 8930              		.loc 2 702 5 is_stmt 1 view .LVU2438
 8931              	.L544:
 704:Menus.cpp     ****         this->attackTimeFilter += this->encoderRight.Increment() * 3.3;
 8932              		.loc 2 704 9 view .LVU2439
ARM GAS  C:\Users\VINCIU~1\AppData\Local\Temp\ccdhDWPe.s 			page 225


 8933              	.LVL585:
 8934              	.LBB2339:
 8935              	.LBI2339:
  41:../../libdaisy/src/hid/encoder.h ****     /** Returns true if the encoder was just pressed.
 8936              		.loc 3 41 20 view .LVU2440
 8937              	.LBB2340:
  41:../../libdaisy/src/hid/encoder.h ****     /** Returns true if the encoder was just pressed.
 8938              		.loc 3 41 40 view .LVU2441
  41:../../libdaisy/src/hid/encoder.h ****     /** Returns true if the encoder was just pressed.
 8939              		.loc 3 41 40 is_stmt 0 view .LVU2442
 8940              	.LBE2340:
 8941              	.LBE2339:
 704:Menus.cpp     ****         this->attackTimeFilter += this->encoderRight.Increment() * 3.3;
 8942              		.loc 2 704 32 view .LVU2443
 8943 0452 97ED677A 		vldr.32	s14, [r7, #412]
 705:Menus.cpp     ****         env.SetTime(daisysp::ADSR_SEG_ATTACK, this->attackTimeFilter / 100);
 8944              		.loc 2 705 20 view .LVU2444
 8945 0456 0121     		movs	r1, #1
 704:Menus.cpp     ****         this->attackTimeFilter += this->encoderRight.Increment() * 3.3;
 8946              		.loc 2 704 66 view .LVU2445
 8947 0458 D7ED127A 		vldr.32	s15, [r7, #72]	@ int
 705:Menus.cpp     ****         env.SetTime(daisysp::ADSR_SEG_ATTACK, this->attackTimeFilter / 100);
 8948              		.loc 2 705 20 view .LVU2446
 8949 045c 2846     		mov	r0, r5
 8950 045e 1FED420A 		vldr.32	s0, .L707+44
 704:Menus.cpp     ****         this->attackTimeFilter += this->encoderRight.Increment() * 3.3;
 8951              		.loc 2 704 66 view .LVU2447
 8952 0462 B8EEE76B 		vcvt.f64.s32	d6, s15
 704:Menus.cpp     ****         this->attackTimeFilter += this->encoderRight.Increment() * 3.3;
 8953              		.loc 2 704 32 view .LVU2448
 8954 0466 B7EEC77A 		vcvt.f64.f32	d7, s14
 8955 046a 9FEDDD5B 		vldr.64	d5, .L710
 8956 046e A6EE057B 		vfma.f64	d7, d6, d5
 8957 0472 B7EEC77B 		vcvt.f32.f64	s14, d7
 705:Menus.cpp     ****         env.SetTime(daisysp::ADSR_SEG_ATTACK, this->attackTimeFilter / 100);
 8958              		.loc 2 705 20 view .LVU2449
 8959 0476 87EE000A 		vdiv.f32	s0, s14, s0
 704:Menus.cpp     ****         this->attackTimeFilter += this->encoderRight.Increment() * 3.3;
 8960              		.loc 2 704 32 view .LVU2450
 8961 047a 87ED677A 		vstr.32	s14, [r7, #412]
 705:Menus.cpp     ****         env.SetTime(daisysp::ADSR_SEG_ATTACK, this->attackTimeFilter / 100);
 8962              		.loc 2 705 9 is_stmt 1 view .LVU2451
 705:Menus.cpp     ****         env.SetTime(daisysp::ADSR_SEG_ATTACK, this->attackTimeFilter / 100);
 8963              		.loc 2 705 20 is_stmt 0 view .LVU2452
 8964 047e FFF7FEFF 		bl	_ZN7daisysp4Adsr7SetTimeEif
 8965              	.LVL586:
 706:Menus.cpp     ****         this->attackTimeFilterScaleDraw += this->encoderRight.Increment();
 8966              		.loc 2 706 9 is_stmt 1 view .LVU2453
 8967              	.LBB2341:
 8968              	.LBI2341:
  41:../../libdaisy/src/hid/encoder.h ****     /** Returns true if the encoder was just pressed.
 8969              		.loc 3 41 20 view .LVU2454
 8970              	.LBB2342:
  41:../../libdaisy/src/hid/encoder.h ****     /** Returns true if the encoder was just pressed.
 8971              		.loc 3 41 40 view .LVU2455
  41:../../libdaisy/src/hid/encoder.h ****     /** Returns true if the encoder was just pressed.
 8972              		.loc 3 41 40 is_stmt 0 view .LVU2456
ARM GAS  C:\Users\VINCIU~1\AppData\Local\Temp\ccdhDWPe.s 			page 226


 8973              	.LBE2342:
 8974              	.LBE2341:
 706:Menus.cpp     ****         this->attackTimeFilterScaleDraw += this->encoderRight.Increment();
 8975              		.loc 2 706 41 view .LVU2457
 8976 0482 D7ED127A 		vldr.32	s15, [r7, #72]	@ int
 8977 0486 D7ED6A6A 		vldr.32	s13, [r7, #424]
 707:Menus.cpp     ****         if( this->attackTimeFilterScaleDraw >= screen.Width() / 4)
 8978              		.loc 2 707 9 view .LVU2458
 8979 048a 9FEDD77A 		vldr.32	s14, .L710+8
 706:Menus.cpp     ****         this->attackTimeFilterScaleDraw += this->encoderRight.Increment();
 8980              		.loc 2 706 41 view .LVU2459
 8981 048e F8EEE77A 		vcvt.f32.s32	s15, s15
 8982 0492 77EEA67A 		vadd.f32	s15, s15, s13
 707:Menus.cpp     ****         if( this->attackTimeFilterScaleDraw >= screen.Width() / 4)
 8983              		.loc 2 707 9 is_stmt 1 view .LVU2460
 8984 0496 F4EEC77A 		vcmpe.f32	s15, s14
 8985 049a F1EE10FA 		vmrs	APSR_nzcv, FPSCR
 8986 049e 80F26681 		bge	.L703
 711:Menus.cpp     ****         if( this->attackTimeFilterScaleDraw <= 0)
 8987              		.loc 2 711 9 view .LVU2461
 8988 04a2 F5EEC07A 		vcmpe.f32	s15, #0
 8989 04a6 0023     		movs	r3, #0
 8990 04a8 F1EE10FA 		vmrs	APSR_nzcv, FPSCR
 706:Menus.cpp     ****         this->attackTimeFilterScaleDraw += this->encoderRight.Increment();
 8991              		.loc 2 706 41 is_stmt 0 view .LVU2462
 8992 04ac 8CBF     		ite	hi
 8993 04ae C7ED6A7A 		vstrhi.32	s15, [r7, #424]
 713:Menus.cpp     ****             this->attackTimeFilterScaleDraw = 0;
 8994              		.loc 2 713 13 is_stmt 1 view .LVU2463
 713:Menus.cpp     ****             this->attackTimeFilterScaleDraw = 0;
 8995              		.loc 2 713 45 is_stmt 0 view .LVU2464
 8996 04b2 C7F8A831 		strls	r3, [r7, #424]	@ float
 8997              	.L549:
 715:Menus.cpp     ****         if(attackTimeFilter >= 100)
 8998              		.loc 2 715 9 is_stmt 1 view .LVU2465
 715:Menus.cpp     ****         if(attackTimeFilter >= 100)
 8999              		.loc 2 715 12 is_stmt 0 view .LVU2466
 9000 04b6 D7ED677A 		vldr.32	s15, [r7, #412]
 715:Menus.cpp     ****         if(attackTimeFilter >= 100)
 9001              		.loc 2 715 9 view .LVU2467
 9002 04ba 9FEDCC7A 		vldr.32	s14, .L710+12
 9003 04be F4EEC77A 		vcmpe.f32	s15, s14
 9004 04c2 F1EE10FA 		vmrs	APSR_nzcv, FPSCR
 9005 04c6 C0F26781 		blt	.L689
 717:Menus.cpp     ****             attackTimeFilter = 100;
 9006              		.loc 2 717 13 is_stmt 1 view .LVU2468
 717:Menus.cpp     ****             attackTimeFilter = 100;
 9007              		.loc 2 717 30 is_stmt 0 view .LVU2469
 9008 04ca 87ED677A 		vstr.32	s14, [r7, #412]
 719:Menus.cpp     ****         if(attackTimeFilter <= 0)
 9009              		.loc 2 719 9 is_stmt 1 view .LVU2470
 9010              	.L553:
 723:Menus.cpp     ****         screen.DrawRect(28, 0, 40, 13, false, false);
 9011              		.loc 2 723 9 view .LVU2471
 723:Menus.cpp     ****         screen.DrawRect(28, 0, 40, 13, false, false);
 9012              		.loc 2 723 24 is_stmt 0 view .LVU2472
 9013 04ce 0022     		movs	r2, #0
ARM GAS  C:\Users\VINCIU~1\AppData\Local\Temp\ccdhDWPe.s 			page 227


 9014 04d0 0D23     		movs	r3, #13
 9015 04d2 1C21     		movs	r1, #28
 9016 04d4 2046     		mov	r0, r4
 9017 04d6 0093     		str	r3, [sp]
 9018 04d8 2823     		movs	r3, #40
 9019 04da CDE90122 		strd	r2, r2, [sp, #4]
 9020 04de FFF7FEFF 		bl	_ZN5daisy25OneBitGraphicsDisplayImplINS_11OledDisplayINS_13SSD130xDriverILj128ELj64ENS_24SSD130
 9021              	.LVL587:
 725:Menus.cpp     ****     if(this->menuStateEnvFilter  == 1)
 9022              		.loc 2 725 14 view .LVU2473
 9023 04e2 D7F8B021 		ldr	r2, [r7, #432]
 725:Menus.cpp     ****     if(this->menuStateEnvFilter  == 1)
 9024              		.loc 2 725 5 is_stmt 1 view .LVU2474
 9025 04e6 012A     		cmp	r2, #1
 9026 04e8 7FF4A9AD 		bne	.L555
 9027              	.L700:
 727:Menus.cpp     ****         this->decayTimeFilter += this->encoderRight.Increment() * 3.3;
 9028              		.loc 2 727 9 view .LVU2475
 9029              	.LVL588:
 9030              	.LBB2343:
 9031              	.LBI2343:
  41:../../libdaisy/src/hid/encoder.h ****     /** Returns true if the encoder was just pressed.
 9032              		.loc 3 41 20 view .LVU2476
 9033              	.LBB2344:
  41:../../libdaisy/src/hid/encoder.h ****     /** Returns true if the encoder was just pressed.
 9034              		.loc 3 41 40 view .LVU2477
  41:../../libdaisy/src/hid/encoder.h ****     /** Returns true if the encoder was just pressed.
 9035              		.loc 3 41 40 is_stmt 0 view .LVU2478
 9036              	.LBE2344:
 9037              	.LBE2343:
 727:Menus.cpp     ****         this->decayTimeFilter += this->encoderRight.Increment() * 3.3;
 9038              		.loc 2 727 31 view .LVU2479
 9039 04ec 97ED687A 		vldr.32	s14, [r7, #416]
 728:Menus.cpp     ****         env.SetTime(daisysp::ADSR_SEG_DECAY, this->decayTimeFilter / 100);
 9040              		.loc 2 728 20 view .LVU2480
 9041 04f0 0221     		movs	r1, #2
 727:Menus.cpp     ****         this->decayTimeFilter += this->encoderRight.Increment() * 3.3;
 9042              		.loc 2 727 65 view .LVU2481
 9043 04f2 D7ED127A 		vldr.32	s15, [r7, #72]	@ int
 728:Menus.cpp     ****         env.SetTime(daisysp::ADSR_SEG_DECAY, this->decayTimeFilter / 100);
 9044              		.loc 2 728 20 view .LVU2482
 9045 04f6 2846     		mov	r0, r5
 9046 04f8 9FEDBC0A 		vldr.32	s0, .L710+12
 727:Menus.cpp     ****         this->decayTimeFilter += this->encoderRight.Increment() * 3.3;
 9047              		.loc 2 727 65 view .LVU2483
 9048 04fc B8EEE76B 		vcvt.f64.s32	d6, s15
 727:Menus.cpp     ****         this->decayTimeFilter += this->encoderRight.Increment() * 3.3;
 9049              		.loc 2 727 31 view .LVU2484
 9050 0500 B7EEC77A 		vcvt.f64.f32	d7, s14
 9051 0504 9FEDB65B 		vldr.64	d5, .L710
 9052 0508 A6EE057B 		vfma.f64	d7, d6, d5
 9053 050c B7EEC77B 		vcvt.f32.f64	s14, d7
 728:Menus.cpp     ****         env.SetTime(daisysp::ADSR_SEG_DECAY, this->decayTimeFilter / 100);
 9054              		.loc 2 728 20 view .LVU2485
 9055 0510 87EE000A 		vdiv.f32	s0, s14, s0
 727:Menus.cpp     ****         this->decayTimeFilter += this->encoderRight.Increment() * 3.3;
 9056              		.loc 2 727 31 view .LVU2486
ARM GAS  C:\Users\VINCIU~1\AppData\Local\Temp\ccdhDWPe.s 			page 228


 9057 0514 87ED687A 		vstr.32	s14, [r7, #416]
 728:Menus.cpp     ****         env.SetTime(daisysp::ADSR_SEG_DECAY, this->decayTimeFilter / 100);
 9058              		.loc 2 728 9 is_stmt 1 view .LVU2487
 728:Menus.cpp     ****         env.SetTime(daisysp::ADSR_SEG_DECAY, this->decayTimeFilter / 100);
 9059              		.loc 2 728 20 is_stmt 0 view .LVU2488
 9060 0518 FFF7FEFF 		bl	_ZN7daisysp4Adsr7SetTimeEif
 9061              	.LVL589:
 729:Menus.cpp     ****         this->decayTimeScaleFilterDraw += this->encoderRight.Increment();
 9062              		.loc 2 729 9 is_stmt 1 view .LVU2489
 9063              	.LBB2345:
 9064              	.LBI2345:
  41:../../libdaisy/src/hid/encoder.h ****     /** Returns true if the encoder was just pressed.
 9065              		.loc 3 41 20 view .LVU2490
 9066              	.LBB2346:
  41:../../libdaisy/src/hid/encoder.h ****     /** Returns true if the encoder was just pressed.
 9067              		.loc 3 41 40 view .LVU2491
  41:../../libdaisy/src/hid/encoder.h ****     /** Returns true if the encoder was just pressed.
 9068              		.loc 3 41 40 is_stmt 0 view .LVU2492
 9069              	.LBE2346:
 9070              	.LBE2345:
 729:Menus.cpp     ****         this->decayTimeScaleFilterDraw += this->encoderRight.Increment();
 9071              		.loc 2 729 40 view .LVU2493
 9072 051c D7ED127A 		vldr.32	s15, [r7, #72]	@ int
 9073 0520 D7ED6F6A 		vldr.32	s13, [r7, #444]
 730:Menus.cpp     ****         if(this->decayTimeScaleFilterDraw >= screen.Width() / 4)
 9074              		.loc 2 730 9 view .LVU2494
 9075 0524 9FEDB07A 		vldr.32	s14, .L710+8
 729:Menus.cpp     ****         this->decayTimeScaleFilterDraw += this->encoderRight.Increment();
 9076              		.loc 2 729 40 view .LVU2495
 9077 0528 F8EEE77A 		vcvt.f32.s32	s15, s15
 9078 052c 77EEA67A 		vadd.f32	s15, s15, s13
 730:Menus.cpp     ****         if(this->decayTimeScaleFilterDraw >= screen.Width() / 4)
 9079              		.loc 2 730 9 is_stmt 1 view .LVU2496
 9080 0530 F4EEC77A 		vcmpe.f32	s15, s14
 9081 0534 F1EE10FA 		vmrs	APSR_nzcv, FPSCR
 9082 0538 80F21C81 		bge	.L704
 734:Menus.cpp     ****         if(this->decayTimeScaleFilterDraw <= 0)
 9083              		.loc 2 734 9 view .LVU2497
 9084 053c F5EEC07A 		vcmpe.f32	s15, #0
 9085 0540 0023     		movs	r3, #0
 9086 0542 F1EE10FA 		vmrs	APSR_nzcv, FPSCR
 729:Menus.cpp     ****         this->decayTimeScaleFilterDraw += this->encoderRight.Increment();
 9087              		.loc 2 729 40 is_stmt 0 view .LVU2498
 9088 0546 8CBF     		ite	hi
 9089 0548 C7ED6F7A 		vstrhi.32	s15, [r7, #444]
 736:Menus.cpp     ****             this->decayTimeScaleFilterDraw = 0;
 9090              		.loc 2 736 13 is_stmt 1 view .LVU2499
 736:Menus.cpp     ****             this->decayTimeScaleFilterDraw = 0;
 9091              		.loc 2 736 44 is_stmt 0 view .LVU2500
 9092 054c C7F8BC31 		strls	r3, [r7, #444]	@ float
 9093              	.L558:
 738:Menus.cpp     ****         if(decayTimeFilter >= 100)
 9094              		.loc 2 738 9 is_stmt 1 view .LVU2501
 738:Menus.cpp     ****         if(decayTimeFilter >= 100)
 9095              		.loc 2 738 12 is_stmt 0 view .LVU2502
 9096 0550 D7ED687A 		vldr.32	s15, [r7, #416]
 738:Menus.cpp     ****         if(decayTimeFilter >= 100)
ARM GAS  C:\Users\VINCIU~1\AppData\Local\Temp\ccdhDWPe.s 			page 229


 9097              		.loc 2 738 9 view .LVU2503
 9098 0554 9FEDA57A 		vldr.32	s14, .L710+12
 9099 0558 F4EEC77A 		vcmpe.f32	s15, s14
 9100 055c F1EE10FA 		vmrs	APSR_nzcv, FPSCR
 9101 0560 C0F22981 		blt	.L691
 740:Menus.cpp     ****             decayTimeFilter = 100;
 9102              		.loc 2 740 13 is_stmt 1 view .LVU2504
 740:Menus.cpp     ****             decayTimeFilter = 100;
 9103              		.loc 2 740 29 is_stmt 0 view .LVU2505
 9104 0564 87ED687A 		vstr.32	s14, [r7, #416]
 742:Menus.cpp     ****         if(decayTimeFilter <= 0)
 9105              		.loc 2 742 9 is_stmt 1 view .LVU2506
 9106              	.L562:
 746:Menus.cpp     ****         screen.DrawRect(44, 0, 56, 13, false, false);
 9107              		.loc 2 746 9 view .LVU2507
 746:Menus.cpp     ****         screen.DrawRect(44, 0, 56, 13, false, false);
 9108              		.loc 2 746 24 is_stmt 0 view .LVU2508
 9109 0568 0022     		movs	r2, #0
 9110 056a 0D23     		movs	r3, #13
 9111 056c 2C21     		movs	r1, #44
 9112 056e 2046     		mov	r0, r4
 9113 0570 0093     		str	r3, [sp]
 9114 0572 3823     		movs	r3, #56
 9115 0574 CDE90122 		strd	r2, r2, [sp, #4]
 9116 0578 FFF7FEFF 		bl	_ZN5daisy25OneBitGraphicsDisplayImplINS_11OledDisplayINS_13SSD130xDriverILj128ELj64ENS_24SSD130
 9117              	.LVL590:
 748:Menus.cpp     ****     if(this->menuStateEnvFilter  == 2)
 9118              		.loc 2 748 14 view .LVU2509
 9119 057c D7F8B021 		ldr	r2, [r7, #432]
 748:Menus.cpp     ****     if(this->menuStateEnvFilter  == 2)
 9120              		.loc 2 748 5 is_stmt 1 view .LVU2510
 9121 0580 022A     		cmp	r2, #2
 9122 0582 7FF45FAD 		bne	.L543
 9123              	.L701:
 750:Menus.cpp     ****         this->sustatinLevelFilter += this->encoderRight.Increment() * 3.3;
 9124              		.loc 2 750 9 view .LVU2511
 9125              	.LVL591:
 9126              	.LBB2347:
 9127              	.LBI2347:
  41:../../libdaisy/src/hid/encoder.h ****     /** Returns true if the encoder was just pressed.
 9128              		.loc 3 41 20 view .LVU2512
 9129              	.LBB2348:
  41:../../libdaisy/src/hid/encoder.h ****     /** Returns true if the encoder was just pressed.
 9130              		.loc 3 41 40 view .LVU2513
 9131              	.LBE2348:
 9132              	.LBE2347:
 750:Menus.cpp     ****         this->sustatinLevelFilter += this->encoderRight.Increment() * 3.3;
 9133              		.loc 2 750 35 is_stmt 0 view .LVU2514
 9134 0586 97ED717A 		vldr.32	s14, [r7, #452]
 9135              	.LBB2350:
 9136              	.LBB2349:
  41:../../libdaisy/src/hid/encoder.h ****     /** Returns true if the encoder was just pressed.
 9137              		.loc 3 41 47 view .LVU2515
 9138 058a D7ED126A 		vldr.32	s13, [r7, #72]	@ int
 9139              	.LVL592:
  41:../../libdaisy/src/hid/encoder.h ****     /** Returns true if the encoder was just pressed.
 9140              		.loc 3 41 47 view .LVU2516
ARM GAS  C:\Users\VINCIU~1\AppData\Local\Temp\ccdhDWPe.s 			page 230


 9141              	.LBE2349:
 9142              	.LBE2350:
 750:Menus.cpp     ****         this->sustatinLevelFilter += this->encoderRight.Increment() * 3.3;
 9143              		.loc 2 750 35 view .LVU2517
 9144 058e B7EEC77A 		vcvt.f64.f32	d7, s14
 751:Menus.cpp     ****         env.SetSustainLevel(this->sustatinLevelFilter / 100);
 9145              		.loc 2 751 28 view .LVU2518
 9146 0592 DFED965A 		vldr.32	s11, .L710+12
 750:Menus.cpp     ****         this->sustatinLevelFilter += this->encoderRight.Increment() * 3.3;
 9147              		.loc 2 750 69 view .LVU2519
 9148 0596 B8EEE63B 		vcvt.f64.s32	d3, s13
 750:Menus.cpp     ****         this->sustatinLevelFilter += this->encoderRight.Increment() * 3.3;
 9149              		.loc 2 750 35 view .LVU2520
 9150 059a 9FED914B 		vldr.64	d4, .L710
 9151 059e A3EE047B 		vfma.f64	d7, d3, d4
 9152 05a2 B7EEC77B 		vcvt.f32.f64	s14, d7
 751:Menus.cpp     ****         env.SetSustainLevel(this->sustatinLevelFilter / 100);
 9153              		.loc 2 751 28 view .LVU2521
 9154 05a6 87EE256A 		vdiv.f32	s12, s14, s11
 750:Menus.cpp     ****         this->sustatinLevelFilter += this->encoderRight.Increment() * 3.3;
 9155              		.loc 2 750 35 view .LVU2522
 9156 05aa 87ED717A 		vstr.32	s14, [r7, #452]
 751:Menus.cpp     ****         env.SetSustainLevel(this->sustatinLevelFilter / 100);
 9157              		.loc 2 751 9 is_stmt 1 view .LVU2523
 9158              	.LVL593:
 9159              	.LBB2351:
 9160              	.LBI2351:
  66:../../DaisySP/Source/Control/adsr.h ****     {
 9161              		.loc 8 66 17 view .LVU2524
 9162              	.LBB2352:
  68:../../DaisySP/Source/Control/adsr.h ****                                        : (sus_level > 1.f) ? 1.f : sus_level;
 9163              		.loc 8 68 9 view .LVU2525
  68:../../DaisySP/Source/Control/adsr.h ****                                        : (sus_level > 1.f) ? 1.f : sus_level;
 9164              		.loc 8 68 40 is_stmt 0 view .LVU2526
 9165 05ae B5EEC06A 		vcmpe.f32	s12, #0
 9166 05b2 F1EE10FA 		vmrs	APSR_nzcv, FPSCR
 9167 05b6 40F2F880 		bls	.L630
  69:../../DaisySP/Source/Control/adsr.h ****         sus_level_ = sus_level;
 9168              		.loc 8 69 60 view .LVU2527
 9169 05ba F7EE007A 		vmov.f32	s15, #1.0e+0
 9170 05be B4EE676A 		vcmp.f32	s12, s15
 9171 05c2 F1EE10FA 		vmrs	APSR_nzcv, FPSCR
 9172 05c6 37FE866A 		vselgt.f32	s12, s15, s12
 9173              	.LVL594:
 9174              	.L564:
 9175              		.loc 8 70 9 is_stmt 1 view .LVU2528
 9176              	.LBE2352:
 9177              	.LBE2351:
 752:Menus.cpp     ****         this->sustatinLevelScaleFilterDraw += this->encoderRight.Increment();
 9178              		.loc 2 752 44 is_stmt 0 view .LVU2529
 9179 05ca F8EEE67A 		vcvt.f32.s32	s15, s13
 9180              	.LBB2355:
 9181              	.LBB2353:
 9182              		.loc 8 70 20 view .LVU2530
 9183 05ce 85ED006A 		vstr.32	s12, [r5]
 9184              	.LVL595:
 9185              		.loc 8 70 20 view .LVU2531
ARM GAS  C:\Users\VINCIU~1\AppData\Local\Temp\ccdhDWPe.s 			page 231


 9186              	.LBE2353:
 9187              	.LBE2355:
 752:Menus.cpp     ****         this->sustatinLevelScaleFilterDraw += this->encoderRight.Increment();
 9188              		.loc 2 752 9 is_stmt 1 view .LVU2532
  41:../../libdaisy/src/hid/encoder.h ****     /** Returns true if the encoder was just pressed.
 9189              		.loc 3 41 40 view .LVU2533
 752:Menus.cpp     ****         this->sustatinLevelScaleFilterDraw += this->encoderRight.Increment();
 9190              		.loc 2 752 44 is_stmt 0 view .LVU2534
 9191 05d2 D7ED736A 		vldr.32	s13, [r7, #460]
 753:Menus.cpp     ****         if(this->sustatinLevelScaleFilterDraw >= screen.Width() / 4)
 9192              		.loc 2 753 9 view .LVU2535
 9193 05d6 9FED847A 		vldr.32	s14, .L710+8
 752:Menus.cpp     ****         this->sustatinLevelScaleFilterDraw += this->encoderRight.Increment();
 9194              		.loc 2 752 44 view .LVU2536
 9195 05da 77EEA67A 		vadd.f32	s15, s15, s13
 753:Menus.cpp     ****         if(this->sustatinLevelScaleFilterDraw >= screen.Width() / 4)
 9196              		.loc 2 753 9 is_stmt 1 view .LVU2537
 9197 05de F4EEC77A 		vcmpe.f32	s15, s14
 9198 05e2 F1EE10FA 		vmrs	APSR_nzcv, FPSCR
 9199 05e6 80F2BF80 		bge	.L705
 757:Menus.cpp     ****         if(this->sustatinLevelScaleFilterDraw <= 0)
 9200              		.loc 2 757 9 view .LVU2538
 9201 05ea F5EEC07A 		vcmpe.f32	s15, #0
 9202 05ee 0023     		movs	r3, #0
 9203 05f0 F1EE10FA 		vmrs	APSR_nzcv, FPSCR
 752:Menus.cpp     ****         this->sustatinLevelScaleFilterDraw += this->encoderRight.Increment();
 9204              		.loc 2 752 44 is_stmt 0 view .LVU2539
 9205 05f4 8CBF     		ite	hi
 9206 05f6 C7ED737A 		vstrhi.32	s15, [r7, #460]
 759:Menus.cpp     ****             this->sustatinLevelScaleFilterDraw = 0;
 9207              		.loc 2 759 13 is_stmt 1 view .LVU2540
 759:Menus.cpp     ****             this->sustatinLevelScaleFilterDraw = 0;
 9208              		.loc 2 759 48 is_stmt 0 view .LVU2541
 9209 05fa C7F8CC31 		strls	r3, [r7, #460]	@ float
 9210              	.L567:
 761:Menus.cpp     ****         if(this->sustatinLevelFilter >= 100)
 9211              		.loc 2 761 9 is_stmt 1 view .LVU2542
 761:Menus.cpp     ****         if(this->sustatinLevelFilter >= 100)
 9212              		.loc 2 761 18 is_stmt 0 view .LVU2543
 9213 05fe D7ED717A 		vldr.32	s15, [r7, #452]
 761:Menus.cpp     ****         if(this->sustatinLevelFilter >= 100)
 9214              		.loc 2 761 9 view .LVU2544
 9215 0602 9FED7A7A 		vldr.32	s14, .L710+12
 9216 0606 F4EEC77A 		vcmpe.f32	s15, s14
 9217 060a F1EE10FA 		vmrs	APSR_nzcv, FPSCR
 9218 060e C0F2BA80 		blt	.L693
 763:Menus.cpp     ****             this->sustatinLevelFilter = 100;
 9219              		.loc 2 763 13 is_stmt 1 view .LVU2545
 763:Menus.cpp     ****             this->sustatinLevelFilter = 100;
 9220              		.loc 2 763 39 is_stmt 0 view .LVU2546
 9221 0612 87ED717A 		vstr.32	s14, [r7, #452]
 765:Menus.cpp     ****         if(this->sustatinLevelFilter <= 0)
 9222              		.loc 2 765 9 is_stmt 1 view .LVU2547
 9223              	.L571:
 769:Menus.cpp     ****         screen.DrawRect(60, 0, 72, 13, false, false);
 9224              		.loc 2 769 9 view .LVU2548
 9225              	.LVL596:
ARM GAS  C:\Users\VINCIU~1\AppData\Local\Temp\ccdhDWPe.s 			page 232


 9226              	.LBB2356:
 9227              	.LBI2356:
 217:../../libdaisy/src/hid/disp/display.h ****                   uint_fast8_t y1,
 9228              		.loc 5 217 10 view .LVU2549
 9229              	.LBB2357:
 9230              	.LBI2357:
 181:../../libdaisy/src/hid/disp/display.h ****                   uint_fast8_t y1,
 9231              		.loc 5 181 10 view .LVU2550
 9232              	.LBB2358:
 9233              	.LBB2359:
 9234              	.LBI2359:
  41:../../libdaisy/src/hid/disp/oled_display.h ****     {
 9235              		.loc 1 41 10 view .LVU2551
 9236              	.LBB2360:
 9237              	.LBI2360:
 239:../../libdaisy/src/dev/oled_ssd130x.h ****     {
 9238              		.loc 6 239 10 view .LVU2552
 9239              	.LBB2361:
 9240              	.LBI2361:
 239:../../libdaisy/src/dev/oled_ssd130x.h ****     {
 9241              		.loc 6 239 10 view .LVU2553
 9242              	.LBB2362:
 246:../../libdaisy/src/dev/oled_ssd130x.h ****     }
 9243              		.loc 6 246 42 is_stmt 0 view .LVU2554
 9244 0616 94F85C20 		ldrb	r2, [r4, #92]	@ zero_extendqisi2
 9245 061a 04F14F03 		add	r3, r4, #79
 9246 061e 04F15B01 		add	r1, r4, #91
 9247 0622 22F00102 		bic	r2, r2, #1
 9248 0626 84F85C20 		strb	r2, [r4, #92]
 9249              	.LVL597:
 246:../../libdaisy/src/dev/oled_ssd130x.h ****     }
 9250              		.loc 6 246 42 view .LVU2555
 9251              	.LBE2362:
 9252              	.LBE2361:
 9253              	.LBE2360:
 9254              	.LBE2359:
 199:../../libdaisy/src/hid/disp/display.h ****         {
 9255              		.loc 5 199 26 is_stmt 1 view .LVU2556
 9256              	.L573:
 9257              	.LBB2363:
 9258              	.LBI2363:
  41:../../libdaisy/src/hid/disp/oled_display.h ****     {
 9259              		.loc 1 41 10 view .LVU2557
 9260              	.LBB2364:
 9261              	.LBI2364:
 239:../../libdaisy/src/dev/oled_ssd130x.h ****     {
 9262              		.loc 6 239 10 view .LVU2558
 9263              	.LBB2365:
 9264              	.LBI2365:
 239:../../libdaisy/src/dev/oled_ssd130x.h ****     {
 9265              		.loc 6 239 10 view .LVU2559
 9266              	.LBB2366:
 246:../../libdaisy/src/dev/oled_ssd130x.h ****     }
 9267              		.loc 6 246 42 is_stmt 0 view .LVU2560
 9268 062a 13F8012F 		ldrb	r2, [r3, #1]!	@ zero_extendqisi2
 9269              	.LVL598:
 246:../../libdaisy/src/dev/oled_ssd130x.h ****     }
ARM GAS  C:\Users\VINCIU~1\AppData\Local\Temp\ccdhDWPe.s 			page 233


 9270              		.loc 6 246 42 view .LVU2561
 9271 062e 22F00102 		bic	r2, r2, #1
 9272              	.LBE2366:
 9273              	.LBE2365:
 9274              	.LBE2364:
 9275              	.LBE2363:
 199:../../libdaisy/src/hid/disp/display.h ****         {
 9276              		.loc 5 199 26 view .LVU2562
 9277 0632 9942     		cmp	r1, r3
 9278              	.LBB2370:
 9279              	.LBB2369:
 9280              	.LBB2368:
 9281              	.LBB2367:
 246:../../libdaisy/src/dev/oled_ssd130x.h ****     }
 9282              		.loc 6 246 42 view .LVU2563
 9283 0634 1A70     		strb	r2, [r3]
 9284              	.LVL599:
 246:../../libdaisy/src/dev/oled_ssd130x.h ****     }
 9285              		.loc 6 246 42 view .LVU2564
 9286              	.LBE2367:
 9287              	.LBE2368:
 9288              	.LBE2369:
 9289              	.LBE2370:
 199:../../libdaisy/src/hid/disp/display.h ****         {
 9290              		.loc 5 199 26 is_stmt 1 view .LVU2565
 9291 0636 F8D1     		bne	.L573
 9292              	.LVL600:
 199:../../libdaisy/src/hid/disp/display.h ****         {
 9293              		.loc 5 199 26 is_stmt 0 view .LVU2566
 9294              	.LBE2358:
 9295              	.LBE2357:
 9296              	.LBB2371:
 9297              	.LBI2371:
 181:../../libdaisy/src/hid/disp/display.h ****                   uint_fast8_t y1,
 9298              		.loc 5 181 10 is_stmt 1 view .LVU2567
 9299              	.LBB2372:
 9300              	.LBB2373:
 9301              	.LBI2373:
  41:../../libdaisy/src/hid/disp/oled_display.h ****     {
 9302              		.loc 1 41 10 view .LVU2568
 9303              	.LBB2374:
 9304              	.LBI2374:
 239:../../libdaisy/src/dev/oled_ssd130x.h ****     {
 9305              		.loc 6 239 10 view .LVU2569
 9306              	.LBB2375:
 9307              	.LBI2375:
 239:../../libdaisy/src/dev/oled_ssd130x.h ****     {
 9308              		.loc 6 239 10 view .LVU2570
 9309              	.LBB2376:
 246:../../libdaisy/src/dev/oled_ssd130x.h ****     }
 9310              		.loc 6 246 42 is_stmt 0 view .LVU2571
 9311 0638 94F8DC20 		ldrb	r2, [r4, #220]	@ zero_extendqisi2
 9312 063c 0023     		movs	r3, #0
 9313 063e 22F02002 		bic	r2, r2, #32
 9314 0642 84F8DC20 		strb	r2, [r4, #220]
 9315              	.LVL601:
 246:../../libdaisy/src/dev/oled_ssd130x.h ****     }
ARM GAS  C:\Users\VINCIU~1\AppData\Local\Temp\ccdhDWPe.s 			page 234


 9316              		.loc 6 246 42 view .LVU2572
 9317              	.LBE2376:
 9318              	.LBE2375:
 9319              	.LBE2374:
 9320              	.LBE2373:
 199:../../libdaisy/src/hid/disp/display.h ****         {
 9321              		.loc 5 199 26 is_stmt 1 view .LVU2573
 9322              	.L574:
 9323              	.LBB2377:
 9324              	.LBI2377:
  41:../../libdaisy/src/hid/disp/oled_display.h ****     {
 9325              		.loc 1 41 10 view .LVU2574
 9326              	.LBB2378:
 9327              	.LBI2378:
 239:../../libdaisy/src/dev/oled_ssd130x.h ****     {
 9328              		.loc 6 239 10 view .LVU2575
 9329              	.LBB2379:
 9330              	.LBI2379:
 239:../../libdaisy/src/dev/oled_ssd130x.h ****     {
 9331              		.loc 6 239 10 view .LVU2576
 9332              	.LBB2380:
 246:../../libdaisy/src/dev/oled_ssd130x.h ****     }
 9333              		.loc 6 246 28 is_stmt 0 view .LVU2577
 9334 0646 DA08     		lsrs	r2, r3, #3
 246:../../libdaisy/src/dev/oled_ssd130x.h ****     }
 9335              		.loc 6 246 49 view .LVU2578
 9336 0648 0121     		movs	r1, #1
 246:../../libdaisy/src/dev/oled_ssd130x.h ****     }
 9337              		.loc 6 246 55 view .LVU2579
 9338 064a 03F00700 		and	r0, r3, #7
 246:../../libdaisy/src/dev/oled_ssd130x.h ****     }
 9339              		.loc 6 246 42 view .LVU2580
 9340 064e 04EBC212 		add	r2, r4, r2, lsl #7
 9341              	.LBE2380:
 9342              	.LBE2379:
 9343              	.LBE2378:
 9344              	.LBE2377:
 212:../../libdaisy/src/hid/disp/display.h ****             }
 9345              		.loc 5 212 20 view .LVU2581
 9346 0652 0B44     		add	r3, r3, r1
 9347              	.LVL602:
 9348              	.LBB2387:
 9349              	.LBB2385:
 9350              	.LBB2383:
 9351              	.LBB2381:
 246:../../libdaisy/src/dev/oled_ssd130x.h ****     }
 9352              		.loc 6 246 49 view .LVU2582
 9353 0654 01FA00F0 		lsl	r0, r1, r0
 246:../../libdaisy/src/dev/oled_ssd130x.h ****     }
 9354              		.loc 6 246 42 view .LVU2583
 9355 0658 92F85C10 		ldrb	r1, [r2, #92]	@ zero_extendqisi2
 9356              	.LBE2381:
 9357              	.LBE2383:
 9358              	.LBE2385:
 9359              	.LBE2387:
 199:../../libdaisy/src/hid/disp/display.h ****         {
 9360              		.loc 5 199 26 view .LVU2584
ARM GAS  C:\Users\VINCIU~1\AppData\Local\Temp\ccdhDWPe.s 			page 235


 9361 065c 0D2B     		cmp	r3, #13
 9362              	.LBB2388:
 9363              	.LBB2386:
 9364              	.LBB2384:
 9365              	.LBB2382:
 246:../../libdaisy/src/dev/oled_ssd130x.h ****     }
 9366              		.loc 6 246 42 view .LVU2585
 9367 065e 21EA0001 		bic	r1, r1, r0
 9368 0662 82F85C10 		strb	r1, [r2, #92]
 9369              	.LVL603:
 246:../../libdaisy/src/dev/oled_ssd130x.h ****     }
 9370              		.loc 6 246 42 view .LVU2586
 9371              	.LBE2382:
 9372              	.LBE2384:
 9373              	.LBE2386:
 9374              	.LBE2388:
 199:../../libdaisy/src/hid/disp/display.h ****         {
 9375              		.loc 5 199 26 is_stmt 1 view .LVU2587
 9376 0666 EED1     		bne	.L574
 9377              	.LVL604:
 199:../../libdaisy/src/hid/disp/display.h ****         {
 9378              		.loc 5 199 26 is_stmt 0 view .LVU2588
 9379              	.LBE2372:
 9380              	.LBE2371:
 9381              	.LBB2389:
 9382              	.LBI2389:
 181:../../libdaisy/src/hid/disp/display.h ****                   uint_fast8_t y1,
 9383              		.loc 5 181 10 is_stmt 1 view .LVU2589
 9384              	.LBB2390:
 9385              	.LBB2391:
 9386              	.LBI2391:
  41:../../libdaisy/src/hid/disp/oled_display.h ****     {
 9387              		.loc 1 41 10 view .LVU2590
 9388              	.LBB2392:
 9389              	.LBI2392:
 239:../../libdaisy/src/dev/oled_ssd130x.h ****     {
 9390              		.loc 6 239 10 view .LVU2591
 9391              	.LBB2393:
 9392              	.LBI2393:
 239:../../libdaisy/src/dev/oled_ssd130x.h ****     {
 9393              		.loc 6 239 10 view .LVU2592
 9394              	.LBB2394:
 246:../../libdaisy/src/dev/oled_ssd130x.h ****     }
 9395              		.loc 6 246 42 is_stmt 0 view .LVU2593
 9396 0668 94F8D010 		ldrb	r1, [r4, #208]	@ zero_extendqisi2
 9397 066c 04F1DD02 		add	r2, r4, #221
 9398 0670 04F1D100 		add	r0, r4, #209
 9399 0674 21F02001 		bic	r1, r1, #32
 9400 0678 84F8D010 		strb	r1, [r4, #208]
 9401              	.LVL605:
 246:../../libdaisy/src/dev/oled_ssd130x.h ****     }
 9402              		.loc 6 246 42 view .LVU2594
 9403              	.LBE2394:
 9404              	.LBE2393:
 9405              	.LBE2392:
 9406              	.LBE2391:
 199:../../libdaisy/src/hid/disp/display.h ****         {
ARM GAS  C:\Users\VINCIU~1\AppData\Local\Temp\ccdhDWPe.s 			page 236


 9407              		.loc 5 199 26 is_stmt 1 view .LVU2595
 9408              	.L575:
 9409              	.LBB2395:
 9410              	.LBI2395:
  41:../../libdaisy/src/hid/disp/oled_display.h ****     {
 9411              		.loc 1 41 10 view .LVU2596
 9412              	.LBB2396:
 9413              	.LBI2396:
 239:../../libdaisy/src/dev/oled_ssd130x.h ****     {
 9414              		.loc 6 239 10 view .LVU2597
 9415              	.LBB2397:
 9416              	.LBI2397:
 239:../../libdaisy/src/dev/oled_ssd130x.h ****     {
 9417              		.loc 6 239 10 view .LVU2598
 9418              	.LBB2398:
 246:../../libdaisy/src/dev/oled_ssd130x.h ****     }
 9419              		.loc 6 246 42 is_stmt 0 view .LVU2599
 9420 067c 12F8011D 		ldrb	r1, [r2, #-1]!	@ zero_extendqisi2
 9421              	.LVL606:
 246:../../libdaisy/src/dev/oled_ssd130x.h ****     }
 9422              		.loc 6 246 42 view .LVU2600
 9423 0680 21F02001 		bic	r1, r1, #32
 9424              	.LBE2398:
 9425              	.LBE2397:
 9426              	.LBE2396:
 9427              	.LBE2395:
 199:../../libdaisy/src/hid/disp/display.h ****         {
 9428              		.loc 5 199 26 view .LVU2601
 9429 0684 9042     		cmp	r0, r2
 9430              	.LBB2402:
 9431              	.LBB2401:
 9432              	.LBB2400:
 9433              	.LBB2399:
 246:../../libdaisy/src/dev/oled_ssd130x.h ****     }
 9434              		.loc 6 246 42 view .LVU2602
 9435 0686 1170     		strb	r1, [r2]
 9436              	.LVL607:
 246:../../libdaisy/src/dev/oled_ssd130x.h ****     }
 9437              		.loc 6 246 42 view .LVU2603
 9438              	.LBE2399:
 9439              	.LBE2400:
 9440              	.LBE2401:
 9441              	.LBE2402:
 199:../../libdaisy/src/hid/disp/display.h ****         {
 9442              		.loc 5 199 26 is_stmt 1 view .LVU2604
 9443 0688 F8D1     		bne	.L575
 9444              	.LVL608:
 199:../../libdaisy/src/hid/disp/display.h ****         {
 9445              		.loc 5 199 26 is_stmt 0 view .LVU2605
 9446              	.LBE2390:
 9447              	.LBE2389:
 9448              	.LBB2403:
 9449              	.LBI2403:
 181:../../libdaisy/src/hid/disp/display.h ****                   uint_fast8_t y1,
 9450              		.loc 5 181 10 is_stmt 1 view .LVU2606
 9451              	.LBB2404:
 9452              	.LBB2405:
ARM GAS  C:\Users\VINCIU~1\AppData\Local\Temp\ccdhDWPe.s 			page 237


 9453              	.LBI2405:
  41:../../libdaisy/src/hid/disp/oled_display.h ****     {
 9454              		.loc 1 41 10 view .LVU2607
 9455              	.LBB2406:
 9456              	.LBI2406:
 239:../../libdaisy/src/dev/oled_ssd130x.h ****     {
 9457              		.loc 6 239 10 view .LVU2608
 9458              	.LBB2407:
 9459              	.LBI2407:
 239:../../libdaisy/src/dev/oled_ssd130x.h ****     {
 9460              		.loc 6 239 10 view .LVU2609
 9461              	.LBB2408:
 246:../../libdaisy/src/dev/oled_ssd130x.h ****     }
 9462              		.loc 6 246 42 is_stmt 0 view .LVU2610
 9463 068a 94F85020 		ldrb	r2, [r4, #80]	@ zero_extendqisi2
 9464 068e 22F00102 		bic	r2, r2, #1
 9465 0692 84F85020 		strb	r2, [r4, #80]
 9466              	.LVL609:
 246:../../libdaisy/src/dev/oled_ssd130x.h ****     }
 9467              		.loc 6 246 42 view .LVU2611
 9468              	.LBE2408:
 9469              	.LBE2407:
 9470              	.LBE2406:
 9471              	.LBE2405:
 199:../../libdaisy/src/hid/disp/display.h ****         {
 9472              		.loc 5 199 26 is_stmt 1 view .LVU2612
 9473              	.L576:
 9474              	.LBB2409:
 9475              	.LBI2409:
  41:../../libdaisy/src/hid/disp/oled_display.h ****     {
 9476              		.loc 1 41 10 view .LVU2613
 9477              	.LBB2410:
 9478              	.LBI2410:
 239:../../libdaisy/src/dev/oled_ssd130x.h ****     {
 9479              		.loc 6 239 10 view .LVU2614
 9480              	.LBB2411:
 9481              	.LBI2411:
 239:../../libdaisy/src/dev/oled_ssd130x.h ****     {
 9482              		.loc 6 239 10 view .LVU2615
 9483              	.LBB2412:
 246:../../libdaisy/src/dev/oled_ssd130x.h ****     }
 9484              		.loc 6 246 28 is_stmt 0 view .LVU2616
 9485 0696 DA08     		lsrs	r2, r3, #3
 246:../../libdaisy/src/dev/oled_ssd130x.h ****     }
 9486              		.loc 6 246 55 view .LVU2617
 9487 0698 03F00700 		and	r0, r3, #7
 246:../../libdaisy/src/dev/oled_ssd130x.h ****     }
 9488              		.loc 6 246 49 view .LVU2618
 9489 069c 0121     		movs	r1, #1
 9490              	.LBE2412:
 9491              	.LBE2411:
 9492              	.LBE2410:
 9493              	.LBE2409:
 199:../../libdaisy/src/hid/disp/display.h ****         {
 9494              		.loc 5 199 26 view .LVU2619
 9495 069e 013B     		subs	r3, r3, #1
 9496              	.LVL610:
ARM GAS  C:\Users\VINCIU~1\AppData\Local\Temp\ccdhDWPe.s 			page 238


 9497              	.LBB2416:
 9498              	.LBB2415:
 9499              	.LBB2414:
 9500              	.LBB2413:
 246:../../libdaisy/src/dev/oled_ssd130x.h ****     }
 9501              		.loc 6 246 42 view .LVU2620
 9502 06a0 04EBC212 		add	r2, r4, r2, lsl #7
 246:../../libdaisy/src/dev/oled_ssd130x.h ****     }
 9503              		.loc 6 246 49 view .LVU2621
 9504 06a4 01FA00F0 		lsl	r0, r1, r0
 246:../../libdaisy/src/dev/oled_ssd130x.h ****     }
 9505              		.loc 6 246 42 view .LVU2622
 9506 06a8 92F85010 		ldrb	r1, [r2, #80]	@ zero_extendqisi2
 9507 06ac 21EA0001 		bic	r1, r1, r0
 9508 06b0 82F85010 		strb	r1, [r2, #80]
 9509              	.LVL611:
 246:../../libdaisy/src/dev/oled_ssd130x.h ****     }
 9510              		.loc 6 246 42 view .LVU2623
 9511              	.LBE2413:
 9512              	.LBE2414:
 9513              	.LBE2415:
 9514              	.LBE2416:
 199:../../libdaisy/src/hid/disp/display.h ****         {
 9515              		.loc 5 199 26 is_stmt 1 view .LVU2624
 9516 06b4 EFD1     		bne	.L576
 9517 06b6 C8E4     		b	.L577
 9518              	.LVL612:
 9519              	.L540:
 199:../../libdaisy/src/hid/disp/display.h ****         {
 9520              		.loc 5 199 26 is_stmt 0 view .LVU2625
 9521              	.LBE2404:
 9522              	.LBE2403:
 9523              	.LBE2356:
 690:Menus.cpp     ****             this->menuStateEnvFilter  = 3;
 9524              		.loc 2 690 13 is_stmt 1 view .LVU2626
 693:Menus.cpp     ****     if(this->buttonRight.RisingEdge())
 9525              		.loc 2 693 5 is_stmt 0 view .LVU2627
 9526 06b8 97F86130 		ldrb	r3, [r7, #97]	@ zero_extendqisi2
 690:Menus.cpp     ****             this->menuStateEnvFilter  = 3;
 9527              		.loc 2 690 39 view .LVU2628
 9528 06bc 0322     		movs	r2, #3
 693:Menus.cpp     ****     if(this->buttonRight.RisingEdge())
 9529              		.loc 2 693 5 view .LVU2629
 9530 06be 7F2B     		cmp	r3, #127
 690:Menus.cpp     ****             this->menuStateEnvFilter  = 3;
 9531              		.loc 2 690 39 view .LVU2630
 9532 06c0 C7F8B021 		str	r2, [r7, #432]
 693:Menus.cpp     ****     if(this->buttonRight.RisingEdge())
 9533              		.loc 2 693 5 is_stmt 1 view .LVU2631
 9534              	.LVL613:
 9535              	.LBB2417:
 9536              		.loc 4 69 17 view .LVU2632
 9537              	.LBB2155:
 9538              		.loc 4 69 38 view .LVU2633
 9539              		.loc 4 69 38 is_stmt 0 view .LVU2634
 9540              	.LBE2155:
 9541              	.LBE2417:
ARM GAS  C:\Users\VINCIU~1\AppData\Local\Temp\ccdhDWPe.s 			page 239


 693:Menus.cpp     ****     if(this->buttonRight.RisingEdge())
 9542              		.loc 2 693 5 view .LVU2635
 9543 06c4 3FF4C2AE 		beq	.L542
 9544              	.L687:
 773:Menus.cpp     ****         this->releaseTimeFilter += this->encoderRight.Increment() * 3.3;
 9545              		.loc 2 773 9 is_stmt 1 view .LVU2636
 9546              	.LVL614:
 9547              	.LBB2418:
 9548              	.LBI2418:
  41:../../libdaisy/src/hid/encoder.h ****     /** Returns true if the encoder was just pressed.
 9549              		.loc 3 41 20 view .LVU2637
 9550              	.LBB2419:
  41:../../libdaisy/src/hid/encoder.h ****     /** Returns true if the encoder was just pressed.
 9551              		.loc 3 41 40 view .LVU2638
  41:../../libdaisy/src/hid/encoder.h ****     /** Returns true if the encoder was just pressed.
 9552              		.loc 3 41 40 is_stmt 0 view .LVU2639
 9553              	.LBE2419:
 9554              	.LBE2418:
 773:Menus.cpp     ****         this->releaseTimeFilter += this->encoderRight.Increment() * 3.3;
 9555              		.loc 2 773 33 view .LVU2640
 9556 06c8 97ED757A 		vldr.32	s14, [r7, #468]
 774:Menus.cpp     ****         env.SetTime(daisysp::ADSR_SEG_RELEASE, this->releaseTime / 100);
 9557              		.loc 2 774 20 view .LVU2641
 9558 06cc 0421     		movs	r1, #4
 773:Menus.cpp     ****         this->releaseTimeFilter += this->encoderRight.Increment() * 3.3;
 9559              		.loc 2 773 67 view .LVU2642
 9560 06ce D7ED127A 		vldr.32	s15, [r7, #72]	@ int
 774:Menus.cpp     ****         env.SetTime(daisysp::ADSR_SEG_RELEASE, this->releaseTime / 100);
 9561              		.loc 2 774 20 view .LVU2643
 9562 06d2 2846     		mov	r0, r5
 9563 06d4 97ED740A 		vldr.32	s0, [r7, #464]
 773:Menus.cpp     ****         this->releaseTimeFilter += this->encoderRight.Increment() * 3.3;
 9564              		.loc 2 773 67 view .LVU2644
 9565 06d8 B8EEE76B 		vcvt.f64.s32	d6, s15
 774:Menus.cpp     ****         env.SetTime(daisysp::ADSR_SEG_RELEASE, this->releaseTime / 100);
 9566              		.loc 2 774 20 view .LVU2645
 9567 06dc DFED435A 		vldr.32	s11, .L710+12
 773:Menus.cpp     ****         this->releaseTimeFilter += this->encoderRight.Increment() * 3.3;
 9568              		.loc 2 773 33 view .LVU2646
 9569 06e0 B7EEC77A 		vcvt.f64.f32	d7, s14
 774:Menus.cpp     ****         env.SetTime(daisysp::ADSR_SEG_RELEASE, this->releaseTime / 100);
 9570              		.loc 2 774 20 view .LVU2647
 9571 06e4 80EE250A 		vdiv.f32	s0, s0, s11
 773:Menus.cpp     ****         this->releaseTimeFilter += this->encoderRight.Increment() * 3.3;
 9572              		.loc 2 773 33 view .LVU2648
 9573 06e8 9FED3D4B 		vldr.64	d4, .L710
 9574 06ec A6EE047B 		vfma.f64	d7, d6, d4
 9575 06f0 B7EEC77B 		vcvt.f32.f64	s14, d7
 9576 06f4 87ED757A 		vstr.32	s14, [r7, #468]
 774:Menus.cpp     ****         env.SetTime(daisysp::ADSR_SEG_RELEASE, this->releaseTime / 100);
 9577              		.loc 2 774 9 is_stmt 1 view .LVU2649
 774:Menus.cpp     ****         env.SetTime(daisysp::ADSR_SEG_RELEASE, this->releaseTime / 100);
 9578              		.loc 2 774 20 is_stmt 0 view .LVU2650
 9579 06f8 FFF7FEFF 		bl	_ZN7daisysp4Adsr7SetTimeEif
 9580              	.LVL615:
 775:Menus.cpp     ****         this->releaseTimeScaleDraw += this->encoderRight.Increment();
 9581              		.loc 2 775 9 is_stmt 1 view .LVU2651
ARM GAS  C:\Users\VINCIU~1\AppData\Local\Temp\ccdhDWPe.s 			page 240


 9582              	.LBB2420:
 9583              	.LBI2420:
  41:../../libdaisy/src/hid/encoder.h ****     /** Returns true if the encoder was just pressed.
 9584              		.loc 3 41 20 view .LVU2652
 9585              	.LBB2421:
  41:../../libdaisy/src/hid/encoder.h ****     /** Returns true if the encoder was just pressed.
 9586              		.loc 3 41 40 view .LVU2653
  41:../../libdaisy/src/hid/encoder.h ****     /** Returns true if the encoder was just pressed.
 9587              		.loc 3 41 40 is_stmt 0 view .LVU2654
 9588              	.LBE2421:
 9589              	.LBE2420:
 776:Menus.cpp     ****         if(this->releaseTimeScaleFilterDraw >= screen.Width() / 4)
 9590              		.loc 2 776 18 view .LVU2655
 9591 06fc D7ED776A 		vldr.32	s13, [r7, #476]
 775:Menus.cpp     ****         this->releaseTimeScaleDraw += this->encoderRight.Increment();
 9592              		.loc 2 775 36 view .LVU2656
 9593 0700 97ED127A 		vldr.32	s14, [r7, #72]	@ int
 776:Menus.cpp     ****         if(this->releaseTimeScaleFilterDraw >= screen.Width() / 4)
 9594              		.loc 2 776 9 view .LVU2657
 9595 0704 9FED386A 		vldr.32	s12, .L710+8
 775:Menus.cpp     ****         this->releaseTimeScaleDraw += this->encoderRight.Increment();
 9596              		.loc 2 775 36 view .LVU2658
 9597 0708 B8EEC77A 		vcvt.f32.s32	s14, s14
 9598 070c D7ED767A 		vldr.32	s15, [r7, #472]
 776:Menus.cpp     ****         if(this->releaseTimeScaleFilterDraw >= screen.Width() / 4)
 9599              		.loc 2 776 9 view .LVU2659
 9600 0710 F4EEC66A 		vcmpe.f32	s13, s12
 775:Menus.cpp     ****         this->releaseTimeScaleDraw += this->encoderRight.Increment();
 9601              		.loc 2 775 36 view .LVU2660
 9602 0714 77EE877A 		vadd.f32	s15, s15, s14
 776:Menus.cpp     ****         if(this->releaseTimeScaleFilterDraw >= screen.Width() / 4)
 9603              		.loc 2 776 9 view .LVU2661
 9604 0718 F1EE10FA 		vmrs	APSR_nzcv, FPSCR
 775:Menus.cpp     ****         this->releaseTimeScaleDraw += this->encoderRight.Increment();
 9605              		.loc 2 775 36 view .LVU2662
 9606 071c C7ED767A 		vstr.32	s15, [r7, #472]
 776:Menus.cpp     ****         if(this->releaseTimeScaleFilterDraw >= screen.Width() / 4)
 9607              		.loc 2 776 9 is_stmt 1 view .LVU2663
 9608 0720 2BDA     		bge	.L706
 780:Menus.cpp     ****         if(this->releaseTimeScaleFilterDraw <= 0)
 9609              		.loc 2 780 9 view .LVU2664
 9610 0722 F5EEC06A 		vcmpe.f32	s13, #0
 9611 0726 0023     		movs	r3, #0
 9612 0728 F1EE10FA 		vmrs	APSR_nzcv, FPSCR
 782:Menus.cpp     ****             this->releaseTimeScaleFilterDraw = 0;
 9613              		.loc 2 782 13 view .LVU2665
 782:Menus.cpp     ****             this->releaseTimeScaleFilterDraw = 0;
 9614              		.loc 2 782 46 is_stmt 0 view .LVU2666
 9615 072c 98BF     		it	ls
 9616 072e C7F8DC31 		strls	r3, [r7, #476]	@ float
 9617              	.L581:
 784:Menus.cpp     ****         if(this->releaseTimeFilter >= 100)
 9618              		.loc 2 784 9 is_stmt 1 view .LVU2667
 784:Menus.cpp     ****         if(this->releaseTimeFilter >= 100)
 9619              		.loc 2 784 18 is_stmt 0 view .LVU2668
 9620 0732 D7ED757A 		vldr.32	s15, [r7, #468]
 784:Menus.cpp     ****         if(this->releaseTimeFilter >= 100)
ARM GAS  C:\Users\VINCIU~1\AppData\Local\Temp\ccdhDWPe.s 			page 241


 9621              		.loc 2 784 9 view .LVU2669
 9622 0736 9FED2D7A 		vldr.32	s14, .L710+12
 9623 073a F4EEC77A 		vcmpe.f32	s15, s14
 9624 073e F1EE10FA 		vmrs	APSR_nzcv, FPSCR
 9625 0742 41DB     		blt	.L695
 786:Menus.cpp     ****             this->releaseTimeFilter = 100;
 9626              		.loc 2 786 13 is_stmt 1 view .LVU2670
 786:Menus.cpp     ****             this->releaseTimeFilter = 100;
 9627              		.loc 2 786 37 is_stmt 0 view .LVU2671
 9628 0744 87ED757A 		vstr.32	s14, [r7, #468]
 788:Menus.cpp     ****         if(this->releaseTimeFilter <= 0)
 9629              		.loc 2 788 9 is_stmt 1 view .LVU2672
 9630              	.L585:
 792:Menus.cpp     ****         screen.DrawRect(76, 0, 88, 13, false, false);
 9631              		.loc 2 792 9 view .LVU2673
 792:Menus.cpp     ****         screen.DrawRect(76, 0, 88, 13, false, false);
 9632              		.loc 2 792 24 is_stmt 0 view .LVU2674
 9633 0748 0022     		movs	r2, #0
 9634 074a 0D21     		movs	r1, #13
 9635 074c 5823     		movs	r3, #88
 9636 074e 2046     		mov	r0, r4
 9637 0750 0091     		str	r1, [sp]
 9638 0752 4C21     		movs	r1, #76
 9639 0754 CDE90122 		strd	r2, r2, [sp, #4]
 9640 0758 FFF7FEFF 		bl	_ZN5daisy25OneBitGraphicsDisplayImplINS_11OledDisplayINS_13SSD130xDriverILj128ELj64ENS_24SSD130
 9641              	.LVL616:
 9642 075c 75E4     		b	.L577
 9643              	.L698:
 687:Menus.cpp     ****         this->menuStateEnvFilter = this->menuStateEnvFilter  - 1;
 9644              		.loc 2 687 9 is_stmt 1 view .LVU2675
 688:Menus.cpp     ****         if(this->menuStateEnvFilter  < 0)
 9645              		.loc 2 688 9 view .LVU2676
 9646 075e 013A     		subs	r2, r2, #1
 9647 0760 AAD4     		bmi	.L540
 687:Menus.cpp     ****         this->menuStateEnvFilter = this->menuStateEnvFilter  - 1;
 9648              		.loc 2 687 34 is_stmt 0 view .LVU2677
 9649 0762 C7F8B021 		str	r2, [r7, #432]
 9650 0766 5FE4     		b	.L541
 9651              	.L705:
 755:Menus.cpp     ****            this->sustatinLevelScaleFilterDraw= screen.Width() / 4;
 9652              		.loc 2 755 12 is_stmt 1 view .LVU2678
 755:Menus.cpp     ****            this->sustatinLevelScaleFilterDraw= screen.Width() / 4;
 9653              		.loc 2 755 46 is_stmt 0 view .LVU2679
 9654 0768 87ED737A 		vstr.32	s14, [r7, #460]
 757:Menus.cpp     ****         if(this->sustatinLevelScaleFilterDraw <= 0)
 9655              		.loc 2 757 9 is_stmt 1 view .LVU2680
 9656 076c 47E7     		b	.L567
 9657              	.L703:
 709:Menus.cpp     ****              this->attackTimeFilterScaleDraw = screen.Width() / 4;
 9658              		.loc 2 709 14 view .LVU2681
 709:Menus.cpp     ****              this->attackTimeFilterScaleDraw = screen.Width() / 4;
 9659              		.loc 2 709 46 is_stmt 0 view .LVU2682
 9660 076e 87ED6A7A 		vstr.32	s14, [r7, #424]
 711:Menus.cpp     ****         if( this->attackTimeFilterScaleDraw <= 0)
 9661              		.loc 2 711 9 is_stmt 1 view .LVU2683
 9662 0772 A0E6     		b	.L549
 9663              	.L704:
ARM GAS  C:\Users\VINCIU~1\AppData\Local\Temp\ccdhDWPe.s 			page 242


 732:Menus.cpp     ****             this->decayTimeScaleFilterDraw = screen.Width() / 4;
 9664              		.loc 2 732 13 view .LVU2684
 732:Menus.cpp     ****             this->decayTimeScaleFilterDraw = screen.Width() / 4;
 9665              		.loc 2 732 44 is_stmt 0 view .LVU2685
 9666 0774 87ED6F7A 		vstr.32	s14, [r7, #444]
 734:Menus.cpp     ****         if(this->decayTimeScaleFilterDraw <= 0)
 9667              		.loc 2 734 9 is_stmt 1 view .LVU2686
 9668 0778 EAE6     		b	.L558
 9669              	.L706:
 778:Menus.cpp     ****             this->releaseTimeScaleFilterDraw = screen.Width() / 4;
 9670              		.loc 2 778 13 view .LVU2687
 778:Menus.cpp     ****             this->releaseTimeScaleFilterDraw = screen.Width() / 4;
 9671              		.loc 2 778 46 is_stmt 0 view .LVU2688
 9672 077a 87ED776A 		vstr.32	s12, [r7, #476]
 780:Menus.cpp     ****         if(this->releaseTimeScaleFilterDraw <= 0)
 9673              		.loc 2 780 9 is_stmt 1 view .LVU2689
 9674 077e D8E7     		b	.L581
 9675              	.LVL617:
 9676              	.L641:
 9677              	.LBB2422:
 9678              	.LBB2244:
 190:../../libdaisy/src/hid/disp/display.h ****         int_fast16_t error  = deltaX - deltaY;
 9679              		.loc 5 190 42 is_stmt 0 view .LVU2690
 9680 0780 0123     		movs	r3, #1
 9681 0782 0693     		str	r3, [sp, #24]
 9682 0784 08E5     		b	.L599
 9683              	.LVL618:
 9684              	.L693:
 190:../../libdaisy/src/hid/disp/display.h ****         int_fast16_t error  = deltaX - deltaY;
 9685              		.loc 5 190 42 view .LVU2691
 9686              	.LBE2244:
 9687              	.LBE2422:
 765:Menus.cpp     ****         if(this->sustatinLevelFilter <= 0)
 9688              		.loc 2 765 9 is_stmt 1 view .LVU2692
 9689 0786 F5EEC07A 		vcmpe.f32	s15, #0
 9690 078a 0023     		movs	r3, #0
 9691 078c F1EE10FA 		vmrs	APSR_nzcv, FPSCR
 767:Menus.cpp     ****             this->sustatinLevelFilter = 0;
 9692              		.loc 2 767 13 view .LVU2693
 767:Menus.cpp     ****             this->sustatinLevelFilter = 0;
 9693              		.loc 2 767 39 is_stmt 0 view .LVU2694
 9694 0790 98BF     		it	ls
 9695 0792 C7F8C431 		strls	r3, [r7, #452]	@ float
 9696 0796 3EE7     		b	.L571
 9697              	.L689:
 719:Menus.cpp     ****         if(attackTimeFilter <= 0)
 9698              		.loc 2 719 9 is_stmt 1 view .LVU2695
 9699 0798 F5EEC07A 		vcmpe.f32	s15, #0
 9700 079c 0023     		movs	r3, #0
 9701 079e F1EE10FA 		vmrs	APSR_nzcv, FPSCR
 721:Menus.cpp     ****             attackTimeFilter = 0;
 9702              		.loc 2 721 13 view .LVU2696
 721:Menus.cpp     ****             attackTimeFilter = 0;
 9703              		.loc 2 721 30 is_stmt 0 view .LVU2697
 9704 07a2 98BF     		it	ls
 9705 07a4 C7F89C31 		strls	r3, [r7, #412]	@ float
 9706 07a8 91E6     		b	.L553
ARM GAS  C:\Users\VINCIU~1\AppData\Local\Temp\ccdhDWPe.s 			page 243


 9707              	.LVL619:
 9708              	.L630:
 9709              	.LBB2423:
 9710              	.LBB2354:
  68:../../DaisySP/Source/Control/adsr.h ****                                        : (sus_level > 1.f) ? 1.f : sus_level;
 9711              		.loc 8 68 40 view .LVU2698
 9712 07aa 9FED116A 		vldr.32	s12, .L710+16
 9713              	.LVL620:
  68:../../DaisySP/Source/Control/adsr.h ****                                        : (sus_level > 1.f) ? 1.f : sus_level;
 9714              		.loc 8 68 40 view .LVU2699
 9715 07ae 0CE7     		b	.L564
 9716              	.LVL621:
 9717              	.L702:
  68:../../DaisySP/Source/Control/adsr.h ****                                        : (sus_level > 1.f) ? 1.f : sus_level;
 9718              		.loc 8 68 40 view .LVU2700
 9719              	.LBE2354:
 9720              	.LBE2423:
 9721              	.LBB2424:
 9722              	.LBB2245:
 199:../../libdaisy/src/hid/disp/display.h ****         {
 9723              		.loc 5 199 26 view .LVU2701
 9724 07b0 0023     		movs	r3, #0
 9725 07b2 0793     		str	r3, [sp, #28]
 9726 07b4 1BE5     		b	.L598
 9727              	.LVL622:
 9728              	.L691:
 199:../../libdaisy/src/hid/disp/display.h ****         {
 9729              		.loc 5 199 26 view .LVU2702
 9730              	.LBE2245:
 9731              	.LBE2424:
 742:Menus.cpp     ****         if(decayTimeFilter <= 0)
 9732              		.loc 2 742 9 is_stmt 1 view .LVU2703
 9733 07b6 F5EEC07A 		vcmpe.f32	s15, #0
 9734 07ba 0023     		movs	r3, #0
 9735 07bc F1EE10FA 		vmrs	APSR_nzcv, FPSCR
 744:Menus.cpp     ****             decayTimeFilter = 0;
 9736              		.loc 2 744 13 view .LVU2704
 744:Menus.cpp     ****             decayTimeFilter = 0;
 9737              		.loc 2 744 29 is_stmt 0 view .LVU2705
 9738 07c0 98BF     		it	ls
 9739 07c2 C7F8A031 		strls	r3, [r7, #416]	@ float
 9740 07c6 CFE6     		b	.L562
 9741              	.L695:
 788:Menus.cpp     ****         if(this->releaseTimeFilter <= 0)
 9742              		.loc 2 788 9 is_stmt 1 view .LVU2706
 9743 07c8 F5EEC07A 		vcmpe.f32	s15, #0
 9744 07cc 0023     		movs	r3, #0
 9745 07ce F1EE10FA 		vmrs	APSR_nzcv, FPSCR
 790:Menus.cpp     ****             this->releaseTimeFilter = 0;
 9746              		.loc 2 790 13 view .LVU2707
 790:Menus.cpp     ****             this->releaseTimeFilter = 0;
 9747              		.loc 2 790 37 is_stmt 0 view .LVU2708
 9748 07d2 98BF     		it	ls
 9749 07d4 C7F8D431 		strls	r3, [r7, #468]	@ float
 9750 07d8 B6E7     		b	.L585
 9751              	.L711:
 9752 07da 00BFAFF3 		.align	3
ARM GAS  C:\Users\VINCIU~1\AppData\Local\Temp\ccdhDWPe.s 			page 244


 9752      0080
 9753              	.L710:
 9754 07e0 66666666 		.word	1717986918
 9755 07e4 66660A40 		.word	1074423398
 9756 07e8 00000042 		.word	1107296256
 9757 07ec 0000C842 		.word	1120403456
 9758 07f0 0AD723BC 		.word	-1138501878
 9759              		.cfi_endproc
 9760              	.LFE4042:
 9762              		.text
 9763              	.Letext0:
 9764              		.file 9 "c:\\users\\vin\355cius\\documents\\daisytoolchain-0.3.1\\windows\\arm-none-eabi\\include\
 9765              		.file 10 "c:\\users\\vin\355cius\\documents\\daisytoolchain-0.3.1\\windows\\arm-none-eabi\\include
 9766              		.file 11 "c:\\users\\vin\355cius\\documents\\daisytoolchain-0.3.1\\windows\\arm-none-eabi\\include
 9767              		.file 12 "c:\\users\\vin\355cius\\documents\\daisytoolchain-0.3.1\\windows\\lib\\gcc\\arm-none-eab
 9768              		.file 13 "c:\\users\\vin\355cius\\documents\\daisytoolchain-0.3.1\\windows\\arm-none-eabi\\include
 9769              		.file 14 "c:\\users\\vin\355cius\\documents\\daisytoolchain-0.3.1\\windows\\arm-none-eabi\\include
 9770              		.file 15 "c:\\users\\vin\355cius\\documents\\daisytoolchain-0.3.1\\windows\\arm-none-eabi\\include
 9771              		.file 16 "c:\\users\\vin\355cius\\documents\\daisytoolchain-0.3.1\\windows\\arm-none-eabi\\include
 9772              		.file 17 "c:\\users\\vin\355cius\\documents\\daisytoolchain-0.3.1\\windows\\arm-none-eabi\\include
 9773              		.file 18 "c:\\users\\vin\355cius\\documents\\daisytoolchain-0.3.1\\windows\\arm-none-eabi\\include
 9774              		.file 19 "c:\\users\\vin\355cius\\documents\\daisytoolchain-0.3.1\\windows\\arm-none-eabi\\include
 9775              		.file 20 "c:\\users\\vin\355cius\\documents\\daisytoolchain-0.3.1\\windows\\arm-none-eabi\\include
 9776              		.file 21 "c:\\users\\vin\355cius\\documents\\daisytoolchain-0.3.1\\windows\\arm-none-eabi\\include
 9777              		.file 22 "c:\\users\\vin\355cius\\documents\\daisytoolchain-0.3.1\\windows\\arm-none-eabi\\include
 9778              		.file 23 "c:\\users\\vin\355cius\\documents\\daisytoolchain-0.3.1\\windows\\arm-none-eabi\\include
 9779              		.file 24 "c:\\users\\vin\355cius\\documents\\daisytoolchain-0.3.1\\windows\\arm-none-eabi\\include
 9780              		.file 25 "c:\\users\\vin\355cius\\documents\\daisytoolchain-0.3.1\\windows\\arm-none-eabi\\include
 9781              		.file 26 "c:\\users\\vin\355cius\\documents\\daisytoolchain-0.3.1\\windows\\arm-none-eabi\\include
 9782              		.file 27 "c:\\users\\vin\355cius\\documents\\daisytoolchain-0.3.1\\windows\\arm-none-eabi\\include
 9783              		.file 28 "c:\\users\\vin\355cius\\documents\\daisytoolchain-0.3.1\\windows\\arm-none-eabi\\include
 9784              		.file 29 "c:\\users\\vin\355cius\\documents\\daisytoolchain-0.3.1\\windows\\arm-none-eabi\\include
 9785              		.file 30 "c:\\users\\vin\355cius\\documents\\daisytoolchain-0.3.1\\windows\\arm-none-eabi\\include
 9786              		.file 31 "c:\\users\\vin\355cius\\documents\\daisytoolchain-0.3.1\\windows\\arm-none-eabi\\include
 9787              		.file 32 "c:\\users\\vin\355cius\\documents\\daisytoolchain-0.3.1\\windows\\arm-none-eabi\\include
 9788              		.file 33 "c:\\users\\vin\355cius\\documents\\daisytoolchain-0.3.1\\windows\\arm-none-eabi\\include
 9789              		.file 34 "c:\\users\\vin\355cius\\documents\\daisytoolchain-0.3.1\\windows\\arm-none-eabi\\include
 9790              		.file 35 "c:\\users\\vin\355cius\\documents\\daisytoolchain-0.3.1\\windows\\arm-none-eabi\\include
 9791              		.file 36 "c:\\users\\vin\355cius\\documents\\daisytoolchain-0.3.1\\windows\\arm-none-eabi\\include
 9792              		.file 37 "c:\\users\\vin\355cius\\documents\\daisytoolchain-0.3.1\\windows\\arm-none-eabi\\include
 9793              		.file 38 "../../libdaisy/src/daisy_core.h"
 9794              		.file 39 "../../libdaisy/src/per/tim.h"
 9795              		.file 40 "../../libdaisy/src/per/spi.h"
 9796              		.file 41 "../../libdaisy/src/util/wav_format.h"
 9797              		.file 42 "../../libdaisy/src/per/gpio.h"
 9798              		.file 43 "c:\\users\\vin\355cius\\documents\\daisytoolchain-0.3.1\\windows\\lib\\gcc\\arm-none-eab
 9799              		.file 44 "c:\\users\\vin\355cius\\documents\\daisytoolchain-0.3.1\\windows\\arm-none-eabi\\include
 9800              		.file 45 "../../libdaisy/src/util/oled_fonts.h"
 9801              		.file 46 "../../DaisySP/Source/Control/adenv.h"
 9802              		.file 47 "../../DaisySP/Source/Utility/dsp.h"
 9803              		.file 48 "c:\\users\\vin\355cius\\documents\\daisytoolchain-0.3.1\\windows\\arm-none-eabi\\include
 9804              		.file 49 "c:\\users\\vin\355cius\\documents\\daisytoolchain-0.3.1\\windows\\arm-none-eabi\\include
 9805              		.file 50 "c:\\users\\vin\355cius\\documents\\daisytoolchain-0.3.1\\windows\\arm-none-eabi\\include
 9806              		.file 51 "Menus.h"
 9807              		.file 52 "OledDisplayExtravaganza.h"
 9808              		.file 53 "<built-in>"
 9809              		.file 54 "../../libdaisy/src/dev/sr_595.h"
ARM GAS  C:\Users\VINCIU~1\AppData\Local\Temp\ccdhDWPe.s 			page 245


ARM GAS  C:\Users\VINCIU~1\AppData\Local\Temp\ccdhDWPe.s 			page 246


DEFINED SYMBOLS
                            *ABS*:00000000 Menus.cpp
C:\Users\VINCIU~1\AppData\Local\Temp\ccdhDWPe.s:17     .text._ZNK5daisy11OledDisplayINS_13SSD130xDriverILj128ELj64ENS_24SSD130x4WireSpiTransportEEEE5WidthEv:00000000 $t
C:\Users\VINCIU~1\AppData\Local\Temp\ccdhDWPe.s:26     .text._ZNK5daisy11OledDisplayINS_13SSD130xDriverILj128ELj64ENS_24SSD130x4WireSpiTransportEEEE5WidthEv:00000000 _ZNK5daisy11OledDisplayINS_13SSD130xDriverILj128ELj64ENS_24SSD130x4WireSpiTransportEEEE5WidthEv
C:\Users\VINCIU~1\AppData\Local\Temp\ccdhDWPe.s:44     .text._ZNK5daisy11OledDisplayINS_13SSD130xDriverILj128ELj64ENS_24SSD130x4WireSpiTransportEEEE6HeightEv:00000000 $t
C:\Users\VINCIU~1\AppData\Local\Temp\ccdhDWPe.s:52     .text._ZNK5daisy11OledDisplayINS_13SSD130xDriverILj128ELj64ENS_24SSD130x4WireSpiTransportEEEE6HeightEv:00000000 _ZNK5daisy11OledDisplayINS_13SSD130xDriverILj128ELj64ENS_24SSD130x4WireSpiTransportEEEE6HeightEv
C:\Users\VINCIU~1\AppData\Local\Temp\ccdhDWPe.s:69     .rodata._ZN5MenusC2Ev.str1.4:00000000 $d
C:\Users\VINCIU~1\AppData\Local\Temp\ccdhDWPe.s:73     .text._ZN5MenusC2Ev:00000000 $t
C:\Users\VINCIU~1\AppData\Local\Temp\ccdhDWPe.s:81     .text._ZN5MenusC2Ev:00000000 _ZN5MenusC2Ev
C:\Users\VINCIU~1\AppData\Local\Temp\ccdhDWPe.s:221    .text._ZN5MenusC2Ev:00000060 $d
C:\Users\VINCIU~1\AppData\Local\Temp\ccdhDWPe.s:81     .text._ZN5MenusC2Ev:00000000 _ZN5MenusC1Ev
C:\Users\VINCIU~1\AppData\Local\Temp\ccdhDWPe.s:229    .text._ZN5Menus10WaveSelectEf:00000000 $t
C:\Users\VINCIU~1\AppData\Local\Temp\ccdhDWPe.s:237    .text._ZN5Menus10WaveSelectEf:00000000 _ZN5Menus10WaveSelectEf
C:\Users\VINCIU~1\AppData\Local\Temp\ccdhDWPe.s:312    .text._ZN5Menus9OscSelectEf:00000000 $t
C:\Users\VINCIU~1\AppData\Local\Temp\ccdhDWPe.s:320    .text._ZN5Menus9OscSelectEf:00000000 _ZN5Menus9OscSelectEf
C:\Users\VINCIU~1\AppData\Local\Temp\ccdhDWPe.s:386    .text._ZN5daisy25OneBitGraphicsDisplayImplINS_11OledDisplayINS_13SSD130xDriverILj128ELj64ENS_24SSD130x4WireSpiTransportEEEEEE11WriteStringEPKc7FontDefb:00000000 $t
C:\Users\VINCIU~1\AppData\Local\Temp\ccdhDWPe.s:394    .text._ZN5daisy25OneBitGraphicsDisplayImplINS_11OledDisplayINS_13SSD130xDriverILj128ELj64ENS_24SSD130x4WireSpiTransportEEEEEE11WriteStringEPKc7FontDefb:00000000 _ZN5daisy25OneBitGraphicsDisplayImplINS_11OledDisplayINS_13SSD130xDriverILj128ELj64ENS_24SSD130x4WireSpiTransportEEEEEE11WriteStringEPKc7FontDefb
C:\Users\VINCIU~1\AppData\Local\Temp\ccdhDWPe.s:853    .text._ZN5daisy25OneBitGraphicsDisplayImplINS_11OledDisplayINS_13SSD130xDriverILj128ELj64ENS_24SSD130x4WireSpiTransportEEEEEE11WriteStringEPKc7FontDefb:000001b8 $d
C:\Users\VINCIU~1\AppData\Local\Temp\ccdhDWPe.s:863    .text._ZN5daisy25OneBitGraphicsDisplayImplINS_11OledDisplayINS_13SSD130xDriverILj128ELj64ENS_24SSD130x4WireSpiTransportEEEEEE8DrawRectEjjjjbb:00000000 $t
C:\Users\VINCIU~1\AppData\Local\Temp\ccdhDWPe.s:871    .text._ZN5daisy25OneBitGraphicsDisplayImplINS_11OledDisplayINS_13SSD130xDriverILj128ELj64ENS_24SSD130x4WireSpiTransportEEEEEE8DrawRectEjjjjbb:00000000 _ZN5daisy25OneBitGraphicsDisplayImplINS_11OledDisplayINS_13SSD130xDriverILj128ELj64ENS_24SSD130x4WireSpiTransportEEEEEE8DrawRectEjjjjbb
C:\Users\VINCIU~1\AppData\Local\Temp\ccdhDWPe.s:1981   .rodata._ZN5Menus5Menu1E23OledDisplayExtravaganzaPN7daisysp10OscillatorE.str1.4:00000000 $d
C:\Users\VINCIU~1\AppData\Local\Temp\ccdhDWPe.s:1994   .text._ZN5Menus5Menu1E23OledDisplayExtravaganzaPN7daisysp10OscillatorE:00000000 $t
C:\Users\VINCIU~1\AppData\Local\Temp\ccdhDWPe.s:2002   .text._ZN5Menus5Menu1E23OledDisplayExtravaganzaPN7daisysp10OscillatorE:00000000 _ZN5Menus5Menu1E23OledDisplayExtravaganzaPN7daisysp10OscillatorE
C:\Users\VINCIU~1\AppData\Local\Temp\ccdhDWPe.s:2813   .text._ZN5Menus5Menu1E23OledDisplayExtravaganzaPN7daisysp10OscillatorE:00000358 $d
C:\Users\VINCIU~1\AppData\Local\Temp\ccdhDWPe.s:2833   .text._ZN5Menus5Menu1E23OledDisplayExtravaganzaPN7daisysp10OscillatorE:00000398 $t
C:\Users\VINCIU~1\AppData\Local\Temp\ccdhDWPe.s:3886   .text._ZN5Menus5Menu1E23OledDisplayExtravaganzaPN7daisysp10OscillatorE:0000071c $d
C:\Users\VINCIU~1\AppData\Local\Temp\ccdhDWPe.s:3906   .text._ZN5Menus5Menu1E23OledDisplayExtravaganzaPN7daisysp10OscillatorE:00000738 $t
C:\Users\VINCIU~1\AppData\Local\Temp\ccdhDWPe.s:3982   .rodata._ZN5Menus5Menu2E23OledDisplayExtravaganzaPN7daisysp10OscillatorE.str1.4:00000000 $d
C:\Users\VINCIU~1\AppData\Local\Temp\ccdhDWPe.s:3989   .text._ZN5Menus5Menu2E23OledDisplayExtravaganzaPN7daisysp10OscillatorE:00000000 $t
C:\Users\VINCIU~1\AppData\Local\Temp\ccdhDWPe.s:3997   .text._ZN5Menus5Menu2E23OledDisplayExtravaganzaPN7daisysp10OscillatorE:00000000 _ZN5Menus5Menu2E23OledDisplayExtravaganzaPN7daisysp10OscillatorE
C:\Users\VINCIU~1\AppData\Local\Temp\ccdhDWPe.s:5137   .text._ZN5Menus5Menu2E23OledDisplayExtravaganzaPN7daisysp10OscillatorE:00000364 $d
C:\Users\VINCIU~1\AppData\Local\Temp\ccdhDWPe.s:5155   .text._ZN5Menus5Menu2E23OledDisplayExtravaganzaPN7daisysp10OscillatorE:00000380 $t
C:\Users\VINCIU~1\AppData\Local\Temp\ccdhDWPe.s:5315   .text._ZN5Menus5Menu2E23OledDisplayExtravaganzaPN7daisysp10OscillatorE:00000470 $d
C:\Users\VINCIU~1\AppData\Local\Temp\ccdhDWPe.s:5326   .rodata._ZN5Menus5Menu3E23OledDisplayExtravaganzaPN7daisysp10OscillatorERNS1_4AdsrE.str1.4:00000000 $d
C:\Users\VINCIU~1\AppData\Local\Temp\ccdhDWPe.s:5339   .text._ZN5Menus5Menu3E23OledDisplayExtravaganzaPN7daisysp10OscillatorERNS1_4AdsrE:00000000 $t
C:\Users\VINCIU~1\AppData\Local\Temp\ccdhDWPe.s:5347   .text._ZN5Menus5Menu3E23OledDisplayExtravaganzaPN7daisysp10OscillatorERNS1_4AdsrE:00000000 _ZN5Menus5Menu3E23OledDisplayExtravaganzaPN7daisysp10OscillatorERNS1_4AdsrE
C:\Users\VINCIU~1\AppData\Local\Temp\ccdhDWPe.s:6228   .text._ZN5Menus5Menu3E23OledDisplayExtravaganzaPN7daisysp10OscillatorERNS1_4AdsrE:00000338 $d
C:\Users\VINCIU~1\AppData\Local\Temp\ccdhDWPe.s:6252   .text._ZN5Menus5Menu3E23OledDisplayExtravaganzaPN7daisysp10OscillatorERNS1_4AdsrE:00000368 $t
C:\Users\VINCIU~1\AppData\Local\Temp\ccdhDWPe.s:7513   .text._ZN5Menus5Menu3E23OledDisplayExtravaganzaPN7daisysp10OscillatorERNS1_4AdsrE:00000810 $d
C:\Users\VINCIU~1\AppData\Local\Temp\ccdhDWPe.s:7523   .text._ZN5Menus5Menu3E23OledDisplayExtravaganzaPN7daisysp10OscillatorERNS1_4AdsrE:00000824 $t
C:\Users\VINCIU~1\AppData\Local\Temp\ccdhDWPe.s:7598   .text._ZN5Menus5Menu4E23OledDisplayExtravaganzaPN7daisysp10OscillatorERNS1_4AdsrE:00000000 $t
C:\Users\VINCIU~1\AppData\Local\Temp\ccdhDWPe.s:7606   .text._ZN5Menus5Menu4E23OledDisplayExtravaganzaPN7daisysp10OscillatorERNS1_4AdsrE:00000000 _ZN5Menus5Menu4E23OledDisplayExtravaganzaPN7daisysp10OscillatorERNS1_4AdsrE
C:\Users\VINCIU~1\AppData\Local\Temp\ccdhDWPe.s:8583   .text._ZN5Menus5Menu4E23OledDisplayExtravaganzaPN7daisysp10OscillatorERNS1_4AdsrE:0000032c $d
C:\Users\VINCIU~1\AppData\Local\Temp\ccdhDWPe.s:8607   .text._ZN5Menus5Menu4E23OledDisplayExtravaganzaPN7daisysp10OscillatorERNS1_4AdsrE:0000035c $t
C:\Users\VINCIU~1\AppData\Local\Temp\ccdhDWPe.s:9754   .text._ZN5Menus5Menu4E23OledDisplayExtravaganzaPN7daisysp10OscillatorERNS1_4AdsrE:000007e0 $d

UNDEFINED SYMBOLS
sprintf
memset
_ZN23OledDisplayExtravaganza20drawHorizontalToggleEfffbbPKc
_ZN23OledDisplayExtravaganza10drawSliderEffffff
_ZN23OledDisplayExtravaganza18drawVerticalToggleEfffbbPKc
_ZN23OledDisplayExtravaganza9WaveIconsEiiiib
Font_7x10
Font_6x8
dsy_gpio_write
_ZN5daisy9SpiHandle16BlockingTransmitEPhjm
ARM GAS  C:\Users\VINCIU~1\AppData\Local\Temp\ccdhDWPe.s 			page 247


_ZN7daisysp4Adsr7SetTimeEif
