ARM GAS  C:\Users\VINCIU~1\AppData\Local\Temp\ccnesEGk.s 			page 1


   1              		.cpu cortex-m7
   2              		.eabi_attribute 28, 1
   3              		.eabi_attribute 20, 1
   4              		.eabi_attribute 21, 1
   5              		.eabi_attribute 23, 3
   6              		.eabi_attribute 24, 1
   7              		.eabi_attribute 25, 1
   8              		.eabi_attribute 26, 1
   9              		.eabi_attribute 30, 2
  10              		.eabi_attribute 34, 1
  11              		.eabi_attribute 18, 4
  12              		.file	"Menus.cpp"
  13              		.text
  14              	.Ltext0:
  15              		.cfi_sections	.debug_frame
  16              		.section	.text._ZNK5daisy11OledDisplayINS_13SSD130xDriverILj128ELj64ENS_24SSD130x4WireSpiTransport
  17              		.align	1
  18              		.p2align 2,,3
  19              		.weak	_ZNK5daisy11OledDisplayINS_13SSD130xDriverILj128ELj64ENS_24SSD130x4WireSpiTransportEEEE5Widt
  20              		.arch armv7e-m
  21              		.syntax unified
  22              		.thumb
  23              		.thumb_func
  24              		.fpu fpv5-d16
  26              	_ZNK5daisy11OledDisplayINS_13SSD130xDriverILj128ELj64ENS_24SSD130x4WireSpiTransportEEEE5WidthEv:
  27              	.LVL0:
  28              	.LFB4339:
  29              		.file 1 "../../libdaisy/src/hid/disp/oled_display.h"
   1:../../libdaisy/src/hid/disp/oled_display.h **** #pragma once
   2:../../libdaisy/src/hid/disp/oled_display.h **** #ifndef DSY_OLED_DISPLAY_H
   3:../../libdaisy/src/hid/disp/oled_display.h **** #define DSY_OLED_DISPLAY_H /**< Macro */
   4:../../libdaisy/src/hid/disp/oled_display.h **** 
   5:../../libdaisy/src/hid/disp/oled_display.h **** #include "display.h"
   6:../../libdaisy/src/hid/disp/oled_display.h **** 
   7:../../libdaisy/src/hid/disp/oled_display.h **** namespace daisy
   8:../../libdaisy/src/hid/disp/oled_display.h **** {
   9:../../libdaisy/src/hid/disp/oled_display.h **** /** 
  10:../../libdaisy/src/hid/disp/oled_display.h ****  * This class is for drawing to a monochrome OLED display. 
  11:../../libdaisy/src/hid/disp/oled_display.h **** */
  12:../../libdaisy/src/hid/disp/oled_display.h **** template <typename DisplayDriver>
  13:../../libdaisy/src/hid/disp/oled_display.h **** class OledDisplay : public OneBitGraphicsDisplayImpl<OledDisplay<DisplayDriver>>
  14:../../libdaisy/src/hid/disp/oled_display.h **** {
  15:../../libdaisy/src/hid/disp/oled_display.h ****   public:
  16:../../libdaisy/src/hid/disp/oled_display.h ****     OledDisplay() {}
  17:../../libdaisy/src/hid/disp/oled_display.h ****     virtual ~OledDisplay() {}
  18:../../libdaisy/src/hid/disp/oled_display.h **** 
  19:../../libdaisy/src/hid/disp/oled_display.h ****     struct Config
  20:../../libdaisy/src/hid/disp/oled_display.h ****     {
  21:../../libdaisy/src/hid/disp/oled_display.h ****         typename DisplayDriver::Config driver_config;
  22:../../libdaisy/src/hid/disp/oled_display.h ****     };
  23:../../libdaisy/src/hid/disp/oled_display.h **** 
  24:../../libdaisy/src/hid/disp/oled_display.h ****     void Init(Config config) { driver_.Init(config.driver_config); }
  25:../../libdaisy/src/hid/disp/oled_display.h **** 
  26:../../libdaisy/src/hid/disp/oled_display.h ****     uint16_t Height() const override { return driver_.Height(); }
  27:../../libdaisy/src/hid/disp/oled_display.h ****     uint16_t Width() const override { return driver_.Width(); }
  30              		.loc 1 27 14 view -0
  31              		.cfi_startproc
ARM GAS  C:\Users\VINCIU~1\AppData\Local\Temp\ccnesEGk.s 			page 2


  32              		@ args = 0, pretend = 0, frame = 0
  33              		@ frame_needed = 0, uses_anonymous_args = 0
  34              		@ link register save eliminated.
  35              		.loc 1 27 63 is_stmt 0 view .LVU1
  36 0000 8020     		movs	r0, #128
  37              	.LVL1:
  38              		.loc 1 27 63 view .LVU2
  39 0002 7047     		bx	lr
  40              		.cfi_endproc
  41              	.LFE4339:
  43              		.section	.text._ZNK5daisy11OledDisplayINS_13SSD130xDriverILj128ELj64ENS_24SSD130x4WireSpiTransport
  44              		.align	1
  45              		.p2align 2,,3
  46              		.weak	_ZNK5daisy11OledDisplayINS_13SSD130xDriverILj128ELj64ENS_24SSD130x4WireSpiTransportEEEE6Heig
  47              		.syntax unified
  48              		.thumb
  49              		.thumb_func
  50              		.fpu fpv5-d16
  52              	_ZNK5daisy11OledDisplayINS_13SSD130xDriverILj128ELj64ENS_24SSD130x4WireSpiTransportEEEE6HeightEv:
  53              	.LVL2:
  54              	.LFB4340:
  26:../../libdaisy/src/hid/disp/oled_display.h ****     uint16_t Width() const override { return driver_.Width(); }
  55              		.loc 1 26 14 is_stmt 1 view -0
  56              		.cfi_startproc
  57              		@ args = 0, pretend = 0, frame = 0
  58              		@ frame_needed = 0, uses_anonymous_args = 0
  59              		@ link register save eliminated.
  26:../../libdaisy/src/hid/disp/oled_display.h ****     uint16_t Width() const override { return driver_.Width(); }
  60              		.loc 1 26 65 is_stmt 0 view .LVU4
  61 0000 4020     		movs	r0, #64
  62              	.LVL3:
  26:../../libdaisy/src/hid/disp/oled_display.h ****     uint16_t Width() const override { return driver_.Width(); }
  63              		.loc 1 26 65 view .LVU5
  64 0002 7047     		bx	lr
  65              		.cfi_endproc
  66              	.LFE4340:
  68              		.section	.rodata._ZN5MenusC2Ev.str1.4,"aMS",%progbits,1
  69              		.align	2
  70              	.LC0:
  71 0000 54696D65 		.ascii	"Time_0%%\000"
  71      5F302525 
  71      00
  72              		.section	.text._ZN5MenusC2Ev,"ax",%progbits
  73              		.align	1
  74              		.p2align 2,,3
  75              		.global	_ZN5MenusC2Ev
  76              		.syntax unified
  77              		.thumb
  78              		.thumb_func
  79              		.fpu fpv5-d16
  81              	_ZN5MenusC2Ev:
  82              	.LVL4:
  83              	.LFB4035:
  84              		.file 2 "Menus.cpp"
   1:Menus.cpp     **** #include "Menus.h"
   2:Menus.cpp     **** 
   3:Menus.cpp     **** 
ARM GAS  C:\Users\VINCIU~1\AppData\Local\Temp\ccnesEGk.s 			page 3


   4:Menus.cpp     **** Menus::Menus()
  85              		.loc 2 4 1 is_stmt 1 view -0
  86              		.cfi_startproc
  87              		@ args = 0, pretend = 0, frame = 0
  88              		@ frame_needed = 0, uses_anonymous_args = 0
  89              	.LBB295:
   5:Menus.cpp     **** {
   6:Menus.cpp     ****     this->on                      = true;
  90              		.loc 2 6 35 is_stmt 0 view .LVU7
  91 0000 0122     		movs	r2, #1
   7:Menus.cpp     ****     this->analogRead              = 0;
   8:Menus.cpp     ****     this->analogLastRead          = 0;
   9:Menus.cpp     ****     this->updateValue             = false;
  92              		.loc 2 9 35 view .LVU8
  93 0002 0023     		movs	r3, #0
  10:Menus.cpp     ****     this->menuState               = 0;
  11:Menus.cpp     ****     this->menuStateGlide          = 0;
  12:Menus.cpp     ****     this->menuStateEnv            = 0;
  13:Menus.cpp     ****     this->menuStateEnvFilter      = 0;
  14:Menus.cpp     ****     this->OscSelector             = true;
  15:Menus.cpp     ****     this->synthOn                 = 1;
  16:Menus.cpp     ****     this->synthOn2                = 1;
  17:Menus.cpp     ****     this->freqFine2               = 0;
  18:Menus.cpp     ****     this->freqFine                = 0;
  19:Menus.cpp     ****     this->analogRead              = 0;
  20:Menus.cpp     ****     this->glideTime               = 1;
  21:Menus.cpp     ****     this->circleGlideTimePosition = 10;
  22:Menus.cpp     ****     this->state                   = 1;
  23:Menus.cpp     ****     this->stateWave               = 0;
  24:Menus.cpp     ****     this->toggleState             = 1;
  25:Menus.cpp     ****     this->toggleState2            = 1;
  26:Menus.cpp     ****     this->setWave                 = 0;
  27:Menus.cpp     ****     this->setWave2                = 0;
  28:Menus.cpp     ****     this->attackTime              = 0.1f;
  29:Menus.cpp     ****     this->attackTime              = 0.5f;
  94              		.loc 2 29 35 view .LVU9
  95 0004 4FF07C5C 		mov	ip, #1056964608
  21:Menus.cpp     ****     this->state                   = 1;
  96              		.loc 2 21 35 view .LVU10
  97 0008 1549     		ldr	r1, .L6
  98              	.LBE295:
   4:Menus.cpp     **** {
  99              		.loc 2 4 1 view .LVU11
 100 000a 10B5     		push	{r4, lr}
 101              		.cfi_def_cfa_offset 8
 102              		.cfi_offset 4, -8
 103              		.cfi_offset 14, -4
 104              	.LBB302:
  23:Menus.cpp     ****     this->toggleState             = 1;
 105              		.loc 2 23 35 view .LVU12
 106 000c C0E96023 		strd	r2, r3, [r0, #384]
 107              	.LBE302:
   4:Menus.cpp     **** {
 108              		.loc 2 4 1 view .LVU13
 109 0010 0446     		mov	r4, r0
 110              	.LVL5:
 111              	.LBB303:
ARM GAS  C:\Users\VINCIU~1\AppData\Local\Temp\ccnesEGk.s 			page 4


 112              	.LBB296:
 113              	.LBI296:
 114              		.file 3 "../../libdaisy/src/hid/encoder.h"
   1:../../libdaisy/src/hid/encoder.h **** #pragma once
   2:../../libdaisy/src/hid/encoder.h **** #ifndef DSY_ENCODER_H
   3:../../libdaisy/src/hid/encoder.h **** #define DSY_ENCODER_H
   4:../../libdaisy/src/hid/encoder.h **** #include "daisy_core.h"
   5:../../libdaisy/src/hid/encoder.h **** #include "per/gpio.h"
   6:../../libdaisy/src/hid/encoder.h **** #include "hid/switch.h"
   7:../../libdaisy/src/hid/encoder.h **** 
   8:../../libdaisy/src/hid/encoder.h **** namespace daisy
   9:../../libdaisy/src/hid/encoder.h **** {
  10:../../libdaisy/src/hid/encoder.h **** /** 
  11:../../libdaisy/src/hid/encoder.h ****     @brief Generic Class for handling Quadrature Encoders \n 
  12:../../libdaisy/src/hid/encoder.h ****     Inspired/influenced by Mutable Instruments (pichenettes) Encoder classes
  13:../../libdaisy/src/hid/encoder.h ****     @author Stephen Hensley
  14:../../libdaisy/src/hid/encoder.h ****     @date December 2019
  15:../../libdaisy/src/hid/encoder.h ****     @ingroup controls
  16:../../libdaisy/src/hid/encoder.h **** */
  17:../../libdaisy/src/hid/encoder.h **** class Encoder
  18:../../libdaisy/src/hid/encoder.h **** {
  19:../../libdaisy/src/hid/encoder.h ****   public:
  20:../../libdaisy/src/hid/encoder.h ****     Encoder() {}
 115              		.loc 3 20 5 is_stmt 1 view .LVU14
 116              	.LBB297:
 117              	.LBI297:
 118              		.file 4 "../../libdaisy/src/hid/switch.h"
   1:../../libdaisy/src/hid/switch.h **** #pragma once
   2:../../libdaisy/src/hid/switch.h **** #ifndef DSY_SWITCH_H
   3:../../libdaisy/src/hid/switch.h **** #define DSY_SWITCH_H
   4:../../libdaisy/src/hid/switch.h **** #include "daisy_core.h"
   5:../../libdaisy/src/hid/switch.h **** #include "per/gpio.h"
   6:../../libdaisy/src/hid/switch.h **** 
   7:../../libdaisy/src/hid/switch.h **** namespace daisy
   8:../../libdaisy/src/hid/switch.h **** {
   9:../../libdaisy/src/hid/switch.h **** /** 
  10:../../libdaisy/src/hid/switch.h ****     Generic Class for handling momentary/latching switches \n 
  11:../../libdaisy/src/hid/switch.h ****     Inspired/influenced by Mutable Instruments (pichenettes) Switch classes
  12:../../libdaisy/src/hid/switch.h ****     @author Stephen Hensley
  13:../../libdaisy/src/hid/switch.h ****     @date December 2019
  14:../../libdaisy/src/hid/switch.h ****     @ingroup controls
  15:../../libdaisy/src/hid/switch.h **** */
  16:../../libdaisy/src/hid/switch.h **** class Switch
  17:../../libdaisy/src/hid/switch.h **** {
  18:../../libdaisy/src/hid/switch.h ****   public:
  19:../../libdaisy/src/hid/switch.h ****     /** Specifies the expected behavior of the switch */
  20:../../libdaisy/src/hid/switch.h ****     enum Type
  21:../../libdaisy/src/hid/switch.h ****     {
  22:../../libdaisy/src/hid/switch.h ****         TYPE_TOGGLE,    /**< & */
  23:../../libdaisy/src/hid/switch.h ****         TYPE_MOMENTARY, /**< & */
  24:../../libdaisy/src/hid/switch.h ****     };
  25:../../libdaisy/src/hid/switch.h ****     /** Specifies whether the pressed is HIGH or LOW. */
  26:../../libdaisy/src/hid/switch.h ****     enum Polarity
  27:../../libdaisy/src/hid/switch.h ****     {
  28:../../libdaisy/src/hid/switch.h ****         POLARITY_NORMAL,   /**< & */
  29:../../libdaisy/src/hid/switch.h ****         POLARITY_INVERTED, /**< & */
  30:../../libdaisy/src/hid/switch.h ****     };
ARM GAS  C:\Users\VINCIU~1\AppData\Local\Temp\ccnesEGk.s 			page 5


  31:../../libdaisy/src/hid/switch.h **** 
  32:../../libdaisy/src/hid/switch.h ****     /** Specifies whether to use built-in Pull Up/Down resistors to hold button at a given state wh
  33:../../libdaisy/src/hid/switch.h ****     enum Pull
  34:../../libdaisy/src/hid/switch.h ****     {
  35:../../libdaisy/src/hid/switch.h ****         PULL_UP,   /**< & */
  36:../../libdaisy/src/hid/switch.h ****         PULL_DOWN, /**< & */
  37:../../libdaisy/src/hid/switch.h ****         PULL_NONE, /**< & */
  38:../../libdaisy/src/hid/switch.h ****     };
  39:../../libdaisy/src/hid/switch.h **** 
  40:../../libdaisy/src/hid/switch.h ****     Switch() {}
 119              		.loc 4 40 5 view .LVU15
 120              		.loc 4 40 5 is_stmt 0 view .LVU16
 121              	.LBE297:
 122              	.LBE296:
 123              	.LBB298:
 124              	.LBI298:
 125              		.loc 3 20 5 is_stmt 1 view .LVU17
 126              	.LBB299:
 127              	.LBI299:
 128              		.loc 4 40 5 view .LVU18
 129              		.loc 4 40 5 is_stmt 0 view .LVU19
 130              	.LBE299:
 131              	.LBE298:
 132              	.LBB300:
 133              	.LBI300:
 134              		.loc 4 40 5 is_stmt 1 view .LVU20
 135              		.loc 4 40 5 is_stmt 0 view .LVU21
 136              	.LBE300:
 137              	.LBB301:
 138              	.LBI301:
 139              		.loc 4 40 5 is_stmt 1 view .LVU22
 140              		.loc 4 40 5 is_stmt 0 view .LVU23
 141              	.LBE301:
   6:Menus.cpp     ****     this->analogRead              = 0;
 142              		.loc 2 6 5 is_stmt 1 view .LVU24
   9:Menus.cpp     ****     this->menuState               = 0;
 143              		.loc 2 9 35 is_stmt 0 view .LVU25
 144 0012 0372     		strb	r3, [r0, #8]
  20:Menus.cpp     ****     this->circleGlideTimePosition = 10;
 145              		.loc 2 20 35 view .LVU26
 146 0014 4FF07E5E 		mov	lr, #1065353216
   6:Menus.cpp     ****     this->analogRead              = 0;
 147              		.loc 2 6 35 view .LVU27
 148 0018 80F8E021 		strb	r2, [r0, #480]
   7:Menus.cpp     ****     this->analogLastRead          = 0;
 149              		.loc 2 7 5 is_stmt 1 view .LVU28
  14:Menus.cpp     ****     this->synthOn                 = 1;
 150              		.loc 2 14 35 is_stmt 0 view .LVU29
 151 001c 80F87420 		strb	r2, [r0, #116]
  20:Menus.cpp     ****     this->circleGlideTimePosition = 10;
 152              		.loc 2 20 35 view .LVU30
 153 0020 C0F894E0 		str	lr, [r0, #148]	@ float
  21:Menus.cpp     ****     this->state                   = 1;
 154              		.loc 2 21 35 view .LVU31
 155 0024 C0F88C10 		str	r1, [r0, #140]	@ float
  30:Menus.cpp     ****     this->attackTimeScaleDraw     = 0.5f;
  31:Menus.cpp     ****     sprintf(this->buffPitchTime, "Time_0%%");
ARM GAS  C:\Users\VINCIU~1\AppData\Local\Temp\ccnesEGk.s 			page 6


 156              		.loc 2 31 12 view .LVU32
 157 0028 0E49     		ldr	r1, .L6+4
  11:Menus.cpp     ****     this->menuStateEnv            = 0;
 158              		.loc 2 11 35 view .LVU33
 159 002a C0E91B33 		strd	r3, r3, [r0, #108]
  13:Menus.cpp     ****     this->OscSelector             = true;
 160              		.loc 2 13 35 view .LVU34
 161 002e C0E96B33 		strd	r3, r3, [r0, #428]
  27:Menus.cpp     ****     this->attackTime              = 0.1f;
 162              		.loc 2 27 35 view .LVU35
 163 0032 C0E96433 		strd	r3, r3, [r0, #400]
   7:Menus.cpp     ****     this->analogLastRead          = 0;
 164              		.loc 2 7 35 view .LVU36
 165 0036 0023     		movs	r3, #0
  16:Menus.cpp     ****     this->freqFine2               = 0;
 166              		.loc 2 16 35 view .LVU37
 167 0038 C0E95B22 		strd	r2, r2, [r0, #364]
  25:Menus.cpp     ****     this->setWave                 = 0;
 168              		.loc 2 25 35 view .LVU38
 169 003c C0E96222 		strd	r2, r2, [r0, #392]
  29:Menus.cpp     ****     this->attackTimeScaleDraw     = 0.5f;
 170              		.loc 2 29 35 view .LVU39
 171 0040 C4F898C1 		str	ip, [r4, #408]	@ float
 172              		.loc 2 31 12 view .LVU40
 173 0044 00F58E70 		add	r0, r0, #284
 174              	.LVL6:
  30:Menus.cpp     ****     sprintf(this->buffPitchTime, "Time_0%%");
 175              		.loc 2 30 35 view .LVU41
 176 0048 C4F8A4C1 		str	ip, [r4, #420]	@ float
   7:Menus.cpp     ****     this->analogLastRead          = 0;
 177              		.loc 2 7 35 view .LVU42
 178 004c 2360     		str	r3, [r4]	@ float
   8:Menus.cpp     ****     this->updateValue             = false;
 179              		.loc 2 8 5 is_stmt 1 view .LVU43
   8:Menus.cpp     ****     this->updateValue             = false;
 180              		.loc 2 8 35 is_stmt 0 view .LVU44
 181 004e 6360     		str	r3, [r4, #4]	@ float
   9:Menus.cpp     ****     this->menuState               = 0;
 182              		.loc 2 9 5 is_stmt 1 view .LVU45
  10:Menus.cpp     ****     this->menuStateGlide          = 0;
 183              		.loc 2 10 5 view .LVU46
  11:Menus.cpp     ****     this->menuStateEnv            = 0;
 184              		.loc 2 11 5 view .LVU47
  12:Menus.cpp     ****     this->menuStateEnvFilter      = 0;
 185              		.loc 2 12 5 view .LVU48
  13:Menus.cpp     ****     this->OscSelector             = true;
 186              		.loc 2 13 5 view .LVU49
  14:Menus.cpp     ****     this->synthOn                 = 1;
 187              		.loc 2 14 5 view .LVU50
  15:Menus.cpp     ****     this->synthOn2                = 1;
 188              		.loc 2 15 5 view .LVU51
  16:Menus.cpp     ****     this->freqFine2               = 0;
 189              		.loc 2 16 5 view .LVU52
  17:Menus.cpp     ****     this->freqFine                = 0;
 190              		.loc 2 17 5 view .LVU53
  17:Menus.cpp     ****     this->freqFine                = 0;
 191              		.loc 2 17 35 is_stmt 0 view .LVU54
ARM GAS  C:\Users\VINCIU~1\AppData\Local\Temp\ccnesEGk.s 			page 7


 192 0050 C4F87831 		str	r3, [r4, #376]	@ float
  18:Menus.cpp     ****     this->analogRead              = 0;
 193              		.loc 2 18 5 is_stmt 1 view .LVU55
  18:Menus.cpp     ****     this->analogRead              = 0;
 194              		.loc 2 18 35 is_stmt 0 view .LVU56
 195 0054 C4F87431 		str	r3, [r4, #372]	@ float
  19:Menus.cpp     ****     this->glideTime               = 1;
 196              		.loc 2 19 5 is_stmt 1 view .LVU57
  20:Menus.cpp     ****     this->circleGlideTimePosition = 10;
 197              		.loc 2 20 5 view .LVU58
  21:Menus.cpp     ****     this->state                   = 1;
 198              		.loc 2 21 5 view .LVU59
  22:Menus.cpp     ****     this->stateWave               = 0;
 199              		.loc 2 22 5 view .LVU60
  23:Menus.cpp     ****     this->toggleState             = 1;
 200              		.loc 2 23 5 view .LVU61
  24:Menus.cpp     ****     this->toggleState2            = 1;
 201              		.loc 2 24 5 view .LVU62
  25:Menus.cpp     ****     this->setWave                 = 0;
 202              		.loc 2 25 5 view .LVU63
  26:Menus.cpp     ****     this->setWave2                = 0;
 203              		.loc 2 26 5 view .LVU64
  27:Menus.cpp     ****     this->attackTime              = 0.1f;
 204              		.loc 2 27 5 view .LVU65
  28:Menus.cpp     ****     this->attackTime              = 0.5f;
 205              		.loc 2 28 5 view .LVU66
  29:Menus.cpp     ****     this->attackTimeScaleDraw     = 0.5f;
 206              		.loc 2 29 5 view .LVU67
  30:Menus.cpp     ****     sprintf(this->buffPitchTime, "Time_0%%");
 207              		.loc 2 30 5 view .LVU68
 208              		.loc 2 31 5 view .LVU69
 209              		.loc 2 31 12 is_stmt 0 view .LVU70
 210 0058 FFF7FEFF 		bl	sprintf
 211              	.LVL7:
 212              	.LBE303:
  32:Menus.cpp     **** }
 213              		.loc 2 32 1 view .LVU71
 214 005c 2046     		mov	r0, r4
 215 005e 10BD     		pop	{r4, pc}
 216              	.LVL8:
 217              	.L7:
 218              		.loc 2 32 1 view .LVU72
 219              		.align	2
 220              	.L6:
 221 0060 00002041 		.word	1092616192
 222 0064 00000000 		.word	.LC0
 223              		.cfi_endproc
 224              	.LFE4035:
 226              		.global	_ZN5MenusC1Ev
 227              		.thumb_set _ZN5MenusC1Ev,_ZN5MenusC2Ev
 228              		.section	.text._ZN5Menus12SplashScreenE23OledDisplayExtravaganza,"ax",%progbits
 229              		.align	1
 230              		.p2align 2,,3
 231              		.global	_ZN5Menus12SplashScreenE23OledDisplayExtravaganza
 232              		.syntax unified
 233              		.thumb
 234              		.thumb_func
ARM GAS  C:\Users\VINCIU~1\AppData\Local\Temp\ccnesEGk.s 			page 8


 235              		.fpu fpv5-d16
 237              	_ZN5Menus12SplashScreenE23OledDisplayExtravaganza:
 238              	.LVL9:
 239              	.LFB4037:
  33:Menus.cpp     **** 
  34:Menus.cpp     **** void Menus::SplashScreen(OledDisplayExtravaganza screen)
  35:Menus.cpp     **** {
 240              		.loc 2 35 1 is_stmt 1 view -0
 241              		.cfi_startproc
 242              		@ args = 0, pretend = 0, frame = 9224
 243              		@ frame_needed = 0, uses_anonymous_args = 0
  36:Menus.cpp     ****     screen.Fill(false);
 244              		.loc 2 36 5 view .LVU74
 245              	.LBB328:
 246              	.LBI328:
  28:../../libdaisy/src/hid/disp/oled_display.h **** 
  29:../../libdaisy/src/hid/disp/oled_display.h ****     /** 
  30:../../libdaisy/src/hid/disp/oled_display.h ****     Fills the entire display with either on/off.
  31:../../libdaisy/src/hid/disp/oled_display.h ****     \param on Sets on or off.
  32:../../libdaisy/src/hid/disp/oled_display.h ****     */
  33:../../libdaisy/src/hid/disp/oled_display.h ****     void Fill(bool on) override { driver_.Fill(on); }
 247              		.loc 1 33 10 view .LVU75
 248              	.LBB329:
 249              	.LBI329:
 250              		.file 5 "../../libdaisy/src/dev/oled_ssd130x.h"
   1:../../libdaisy/src/dev/oled_ssd130x.h **** #pragma once
   2:../../libdaisy/src/dev/oled_ssd130x.h **** #ifndef SA_OLED_SSD130X_H
   3:../../libdaisy/src/dev/oled_ssd130x.h **** #define SA_OLED_SSD130X_H /**< & */
   4:../../libdaisy/src/dev/oled_ssd130x.h **** 
   5:../../libdaisy/src/dev/oled_ssd130x.h **** #include "per/i2c.h"
   6:../../libdaisy/src/dev/oled_ssd130x.h **** #include "per/spi.h"
   7:../../libdaisy/src/dev/oled_ssd130x.h **** #include "per/gpio.h"
   8:../../libdaisy/src/dev/oled_ssd130x.h **** #include "sys/system.h"
   9:../../libdaisy/src/dev/oled_ssd130x.h **** 
  10:../../libdaisy/src/dev/oled_ssd130x.h **** namespace daisy
  11:../../libdaisy/src/dev/oled_ssd130x.h **** {
  12:../../libdaisy/src/dev/oled_ssd130x.h **** /**
  13:../../libdaisy/src/dev/oled_ssd130x.h ****  * I2C Transport for SSD1306 / SSD1309 OLED display devices
  14:../../libdaisy/src/dev/oled_ssd130x.h ****  */
  15:../../libdaisy/src/dev/oled_ssd130x.h **** class SSD130xI2CTransport
  16:../../libdaisy/src/dev/oled_ssd130x.h **** {
  17:../../libdaisy/src/dev/oled_ssd130x.h ****   public:
  18:../../libdaisy/src/dev/oled_ssd130x.h ****     struct Config
  19:../../libdaisy/src/dev/oled_ssd130x.h ****     {
  20:../../libdaisy/src/dev/oled_ssd130x.h ****         I2CHandle::Config i2c_config;
  21:../../libdaisy/src/dev/oled_ssd130x.h ****         uint8_t           i2c_address;
  22:../../libdaisy/src/dev/oled_ssd130x.h ****         void              Defaults()
  23:../../libdaisy/src/dev/oled_ssd130x.h ****         {
  24:../../libdaisy/src/dev/oled_ssd130x.h ****             i2c_config.periph         = I2CHandle::Config::Peripheral::I2C_1;
  25:../../libdaisy/src/dev/oled_ssd130x.h ****             i2c_config.speed          = I2CHandle::Config::Speed::I2C_1MHZ;
  26:../../libdaisy/src/dev/oled_ssd130x.h ****             i2c_config.mode           = I2CHandle::Config::Mode::I2C_MASTER;
  27:../../libdaisy/src/dev/oled_ssd130x.h ****             i2c_config.pin_config.scl = {DSY_GPIOB, 8};
  28:../../libdaisy/src/dev/oled_ssd130x.h ****             i2c_config.pin_config.sda = {DSY_GPIOB, 9};
  29:../../libdaisy/src/dev/oled_ssd130x.h ****             i2c_address               = 0x3C;
  30:../../libdaisy/src/dev/oled_ssd130x.h ****         }
  31:../../libdaisy/src/dev/oled_ssd130x.h ****     };
  32:../../libdaisy/src/dev/oled_ssd130x.h ****     void Init(const Config& config)
ARM GAS  C:\Users\VINCIU~1\AppData\Local\Temp\ccnesEGk.s 			page 9


  33:../../libdaisy/src/dev/oled_ssd130x.h ****     {
  34:../../libdaisy/src/dev/oled_ssd130x.h ****         i2c_address_ = config.i2c_address;
  35:../../libdaisy/src/dev/oled_ssd130x.h ****         i2c_.Init(config.i2c_config);
  36:../../libdaisy/src/dev/oled_ssd130x.h ****     };
  37:../../libdaisy/src/dev/oled_ssd130x.h ****     void SendCommand(uint8_t cmd)
  38:../../libdaisy/src/dev/oled_ssd130x.h ****     {
  39:../../libdaisy/src/dev/oled_ssd130x.h ****         uint8_t buf[2] = {0X00, cmd};
  40:../../libdaisy/src/dev/oled_ssd130x.h ****         i2c_.TransmitBlocking(i2c_address_, buf, 2, 1000);
  41:../../libdaisy/src/dev/oled_ssd130x.h ****     };
  42:../../libdaisy/src/dev/oled_ssd130x.h **** 
  43:../../libdaisy/src/dev/oled_ssd130x.h ****     void SendData(uint8_t* buff, size_t size)
  44:../../libdaisy/src/dev/oled_ssd130x.h ****     {
  45:../../libdaisy/src/dev/oled_ssd130x.h ****         for(size_t i = 0; i < size; i++)
  46:../../libdaisy/src/dev/oled_ssd130x.h ****         {
  47:../../libdaisy/src/dev/oled_ssd130x.h ****             uint8_t buf[2] = {0X40, buff[i]};
  48:../../libdaisy/src/dev/oled_ssd130x.h ****             i2c_.TransmitBlocking(i2c_address_, buf, 2, 1000);
  49:../../libdaisy/src/dev/oled_ssd130x.h ****         }
  50:../../libdaisy/src/dev/oled_ssd130x.h ****     };
  51:../../libdaisy/src/dev/oled_ssd130x.h **** 
  52:../../libdaisy/src/dev/oled_ssd130x.h ****   private:
  53:../../libdaisy/src/dev/oled_ssd130x.h ****     daisy::I2CHandle i2c_;
  54:../../libdaisy/src/dev/oled_ssd130x.h ****     uint8_t          i2c_address_;
  55:../../libdaisy/src/dev/oled_ssd130x.h **** };
  56:../../libdaisy/src/dev/oled_ssd130x.h **** 
  57:../../libdaisy/src/dev/oled_ssd130x.h **** /**
  58:../../libdaisy/src/dev/oled_ssd130x.h ****  * 4 Wire SPI Transport for SSD1306 / SSD1309 OLED display devices
  59:../../libdaisy/src/dev/oled_ssd130x.h ****  */
  60:../../libdaisy/src/dev/oled_ssd130x.h **** class SSD130x4WireSpiTransport
  61:../../libdaisy/src/dev/oled_ssd130x.h **** {
  62:../../libdaisy/src/dev/oled_ssd130x.h ****   public:
  63:../../libdaisy/src/dev/oled_ssd130x.h ****     struct Config
  64:../../libdaisy/src/dev/oled_ssd130x.h ****     {
  65:../../libdaisy/src/dev/oled_ssd130x.h ****         struct
  66:../../libdaisy/src/dev/oled_ssd130x.h ****         {
  67:../../libdaisy/src/dev/oled_ssd130x.h ****             dsy_gpio_pin dc;    /**< & */
  68:../../libdaisy/src/dev/oled_ssd130x.h ****             dsy_gpio_pin reset; /**< & */
  69:../../libdaisy/src/dev/oled_ssd130x.h ****         } pin_config;
  70:../../libdaisy/src/dev/oled_ssd130x.h ****         void Defaults()
  71:../../libdaisy/src/dev/oled_ssd130x.h ****         {
  72:../../libdaisy/src/dev/oled_ssd130x.h ****             pin_config.dc    = {DSY_GPIOB, 4};
  73:../../libdaisy/src/dev/oled_ssd130x.h ****             pin_config.reset = {DSY_GPIOB, 15};
  74:../../libdaisy/src/dev/oled_ssd130x.h ****         }
  75:../../libdaisy/src/dev/oled_ssd130x.h ****     };
  76:../../libdaisy/src/dev/oled_ssd130x.h ****     void Init(const Config& config)
  77:../../libdaisy/src/dev/oled_ssd130x.h ****     {
  78:../../libdaisy/src/dev/oled_ssd130x.h ****         // Initialize both GPIO
  79:../../libdaisy/src/dev/oled_ssd130x.h ****         pin_dc_.mode = DSY_GPIO_MODE_OUTPUT_PP;
  80:../../libdaisy/src/dev/oled_ssd130x.h ****         pin_dc_.pin  = config.pin_config.dc;
  81:../../libdaisy/src/dev/oled_ssd130x.h ****         dsy_gpio_init(&pin_dc_);
  82:../../libdaisy/src/dev/oled_ssd130x.h ****         pin_reset_.mode = DSY_GPIO_MODE_OUTPUT_PP;
  83:../../libdaisy/src/dev/oled_ssd130x.h ****         pin_reset_.pin  = config.pin_config.reset;
  84:../../libdaisy/src/dev/oled_ssd130x.h ****         dsy_gpio_init(&pin_reset_);
  85:../../libdaisy/src/dev/oled_ssd130x.h ****         // Initialize SPI
  86:../../libdaisy/src/dev/oled_ssd130x.h ****         SpiHandle::Config spi_config;
  87:../../libdaisy/src/dev/oled_ssd130x.h ****         spi_config.periph    = SpiHandle::Config::Peripheral::SPI_1;
  88:../../libdaisy/src/dev/oled_ssd130x.h ****         spi_config.mode      = SpiHandle::Config::Mode::MASTER;
  89:../../libdaisy/src/dev/oled_ssd130x.h ****         spi_config.direction = SpiHandle::Config::Direction::TWO_LINES_TX_ONLY;
ARM GAS  C:\Users\VINCIU~1\AppData\Local\Temp\ccnesEGk.s 			page 10


  90:../../libdaisy/src/dev/oled_ssd130x.h ****         spi_config.datasize  = 8;
  91:../../libdaisy/src/dev/oled_ssd130x.h ****         spi_config.clock_polarity = SpiHandle::Config::ClockPolarity::LOW;
  92:../../libdaisy/src/dev/oled_ssd130x.h ****         spi_config.clock_phase    = SpiHandle::Config::ClockPhase::ONE_EDGE;
  93:../../libdaisy/src/dev/oled_ssd130x.h ****         spi_config.nss            = SpiHandle::Config::NSS::HARD_OUTPUT;
  94:../../libdaisy/src/dev/oled_ssd130x.h ****         spi_config.baud_prescaler = SpiHandle::Config::BaudPrescaler::PS_8;
  95:../../libdaisy/src/dev/oled_ssd130x.h **** 
  96:../../libdaisy/src/dev/oled_ssd130x.h ****         spi_config.pin_config.sclk = {DSY_GPIOG, 11};
  97:../../libdaisy/src/dev/oled_ssd130x.h ****         spi_config.pin_config.miso = {DSY_GPIOX, 0};
  98:../../libdaisy/src/dev/oled_ssd130x.h ****         spi_config.pin_config.mosi = {DSY_GPIOB, 5};
  99:../../libdaisy/src/dev/oled_ssd130x.h ****         spi_config.pin_config.nss  = {DSY_GPIOG, 10};
 100:../../libdaisy/src/dev/oled_ssd130x.h **** 
 101:../../libdaisy/src/dev/oled_ssd130x.h ****         spi_.Init(spi_config);
 102:../../libdaisy/src/dev/oled_ssd130x.h **** 
 103:../../libdaisy/src/dev/oled_ssd130x.h ****         // Reset and Configure OLED.
 104:../../libdaisy/src/dev/oled_ssd130x.h ****         dsy_gpio_write(&pin_reset_, 0);
 105:../../libdaisy/src/dev/oled_ssd130x.h ****         System::Delay(10);
 106:../../libdaisy/src/dev/oled_ssd130x.h ****         dsy_gpio_write(&pin_reset_, 1);
 107:../../libdaisy/src/dev/oled_ssd130x.h ****         System::Delay(10);
 108:../../libdaisy/src/dev/oled_ssd130x.h ****     };
 109:../../libdaisy/src/dev/oled_ssd130x.h ****     void SendCommand(uint8_t cmd)
 110:../../libdaisy/src/dev/oled_ssd130x.h ****     {
 111:../../libdaisy/src/dev/oled_ssd130x.h ****         dsy_gpio_write(&pin_dc_, 0);
 112:../../libdaisy/src/dev/oled_ssd130x.h ****         spi_.BlockingTransmit(&cmd, 1);
 113:../../libdaisy/src/dev/oled_ssd130x.h ****     };
 114:../../libdaisy/src/dev/oled_ssd130x.h **** 
 115:../../libdaisy/src/dev/oled_ssd130x.h ****     void SendData(uint8_t* buff, size_t size)
 116:../../libdaisy/src/dev/oled_ssd130x.h ****     {
 117:../../libdaisy/src/dev/oled_ssd130x.h ****         dsy_gpio_write(&pin_dc_, 1);
 118:../../libdaisy/src/dev/oled_ssd130x.h ****         spi_.BlockingTransmit(buff, size);
 119:../../libdaisy/src/dev/oled_ssd130x.h ****     };
 120:../../libdaisy/src/dev/oled_ssd130x.h **** 
 121:../../libdaisy/src/dev/oled_ssd130x.h ****   private:
 122:../../libdaisy/src/dev/oled_ssd130x.h ****     SpiHandle spi_;
 123:../../libdaisy/src/dev/oled_ssd130x.h ****     dsy_gpio  pin_reset_;
 124:../../libdaisy/src/dev/oled_ssd130x.h ****     dsy_gpio  pin_dc_;
 125:../../libdaisy/src/dev/oled_ssd130x.h **** };
 126:../../libdaisy/src/dev/oled_ssd130x.h **** 
 127:../../libdaisy/src/dev/oled_ssd130x.h **** 
 128:../../libdaisy/src/dev/oled_ssd130x.h **** /**
 129:../../libdaisy/src/dev/oled_ssd130x.h ****  * A driver implementation for the SSD1306/SSD1309
 130:../../libdaisy/src/dev/oled_ssd130x.h ****  */
 131:../../libdaisy/src/dev/oled_ssd130x.h **** template <size_t width, size_t height, typename Transport>
 132:../../libdaisy/src/dev/oled_ssd130x.h **** class SSD130xDriver
 133:../../libdaisy/src/dev/oled_ssd130x.h **** {
 134:../../libdaisy/src/dev/oled_ssd130x.h ****   public:
 135:../../libdaisy/src/dev/oled_ssd130x.h ****     struct Config
 136:../../libdaisy/src/dev/oled_ssd130x.h ****     {
 137:../../libdaisy/src/dev/oled_ssd130x.h ****         typename Transport::Config transport_config;
 138:../../libdaisy/src/dev/oled_ssd130x.h ****     };
 139:../../libdaisy/src/dev/oled_ssd130x.h **** 
 140:../../libdaisy/src/dev/oled_ssd130x.h ****     void Init(Config config)
 141:../../libdaisy/src/dev/oled_ssd130x.h ****     {
 142:../../libdaisy/src/dev/oled_ssd130x.h ****         transport_.Init(config.transport_config);
 143:../../libdaisy/src/dev/oled_ssd130x.h **** 
 144:../../libdaisy/src/dev/oled_ssd130x.h ****         // Init routine...
 145:../../libdaisy/src/dev/oled_ssd130x.h **** 
 146:../../libdaisy/src/dev/oled_ssd130x.h ****         // Display Off
ARM GAS  C:\Users\VINCIU~1\AppData\Local\Temp\ccnesEGk.s 			page 11


 147:../../libdaisy/src/dev/oled_ssd130x.h ****         transport_.SendCommand(0xaE);
 148:../../libdaisy/src/dev/oled_ssd130x.h ****         // Dimension dependent commands...
 149:../../libdaisy/src/dev/oled_ssd130x.h ****         switch(height)
 150:../../libdaisy/src/dev/oled_ssd130x.h ****         {
 151:../../libdaisy/src/dev/oled_ssd130x.h ****             case 16:
 152:../../libdaisy/src/dev/oled_ssd130x.h ****                 // Display Clock Divide Ratio
 153:../../libdaisy/src/dev/oled_ssd130x.h ****                 transport_.SendCommand(0xD5);
 154:../../libdaisy/src/dev/oled_ssd130x.h ****                 transport_.SendCommand(0x60);
 155:../../libdaisy/src/dev/oled_ssd130x.h ****                 // Multiplex Ratio
 156:../../libdaisy/src/dev/oled_ssd130x.h ****                 transport_.SendCommand(0xA8);
 157:../../libdaisy/src/dev/oled_ssd130x.h ****                 transport_.SendCommand(0x0F);
 158:../../libdaisy/src/dev/oled_ssd130x.h ****                 // COM Pins
 159:../../libdaisy/src/dev/oled_ssd130x.h ****                 transport_.SendCommand(0xDA);
 160:../../libdaisy/src/dev/oled_ssd130x.h ****                 transport_.SendCommand(0x02);
 161:../../libdaisy/src/dev/oled_ssd130x.h ****                 break;
 162:../../libdaisy/src/dev/oled_ssd130x.h ****             case 32:
 163:../../libdaisy/src/dev/oled_ssd130x.h ****                 // Display Clock Divide Ratio
 164:../../libdaisy/src/dev/oled_ssd130x.h ****                 transport_.SendCommand(0xD5);
 165:../../libdaisy/src/dev/oled_ssd130x.h ****                 transport_.SendCommand(0x80);
 166:../../libdaisy/src/dev/oled_ssd130x.h ****                 // Multiplex Ratio
 167:../../libdaisy/src/dev/oled_ssd130x.h ****                 transport_.SendCommand(0xA8);
 168:../../libdaisy/src/dev/oled_ssd130x.h ****                 transport_.SendCommand(0x1F);
 169:../../libdaisy/src/dev/oled_ssd130x.h ****                 // COM Pins
 170:../../libdaisy/src/dev/oled_ssd130x.h ****                 transport_.SendCommand(0xDA);
 171:../../libdaisy/src/dev/oled_ssd130x.h ****                 if(width == 64)
 172:../../libdaisy/src/dev/oled_ssd130x.h ****                 {
 173:../../libdaisy/src/dev/oled_ssd130x.h ****                     transport_.SendCommand(0x12);
 174:../../libdaisy/src/dev/oled_ssd130x.h ****                 }
 175:../../libdaisy/src/dev/oled_ssd130x.h ****                 else
 176:../../libdaisy/src/dev/oled_ssd130x.h ****                 {
 177:../../libdaisy/src/dev/oled_ssd130x.h ****                     transport_.SendCommand(0x02);
 178:../../libdaisy/src/dev/oled_ssd130x.h ****                 }
 179:../../libdaisy/src/dev/oled_ssd130x.h **** 
 180:../../libdaisy/src/dev/oled_ssd130x.h ****                 break;
 181:../../libdaisy/src/dev/oled_ssd130x.h ****             case 48:
 182:../../libdaisy/src/dev/oled_ssd130x.h ****                 // Display Clock Divide Ratio
 183:../../libdaisy/src/dev/oled_ssd130x.h ****                 transport_.SendCommand(0xD5);
 184:../../libdaisy/src/dev/oled_ssd130x.h ****                 transport_.SendCommand(0x80);
 185:../../libdaisy/src/dev/oled_ssd130x.h ****                 // Multiplex Ratio
 186:../../libdaisy/src/dev/oled_ssd130x.h ****                 transport_.SendCommand(0xA8);
 187:../../libdaisy/src/dev/oled_ssd130x.h ****                 transport_.SendCommand(0x2F);
 188:../../libdaisy/src/dev/oled_ssd130x.h ****                 // COM Pins
 189:../../libdaisy/src/dev/oled_ssd130x.h ****                 transport_.SendCommand(0xDA);
 190:../../libdaisy/src/dev/oled_ssd130x.h ****                 transport_.SendCommand(0x12);
 191:../../libdaisy/src/dev/oled_ssd130x.h ****                 break;
 192:../../libdaisy/src/dev/oled_ssd130x.h ****             default: // 128
 193:../../libdaisy/src/dev/oled_ssd130x.h ****                 // Display Clock Divide Ratio
 194:../../libdaisy/src/dev/oled_ssd130x.h ****                 transport_.SendCommand(0xD5);
 195:../../libdaisy/src/dev/oled_ssd130x.h ****                 transport_.SendCommand(0x80);
 196:../../libdaisy/src/dev/oled_ssd130x.h ****                 // Multiplex Ratio
 197:../../libdaisy/src/dev/oled_ssd130x.h ****                 transport_.SendCommand(0xA8);
 198:../../libdaisy/src/dev/oled_ssd130x.h ****                 transport_.SendCommand(0x3F);
 199:../../libdaisy/src/dev/oled_ssd130x.h ****                 // COM Pins
 200:../../libdaisy/src/dev/oled_ssd130x.h ****                 transport_.SendCommand(0xDA);
 201:../../libdaisy/src/dev/oled_ssd130x.h ****                 transport_.SendCommand(0x12);
 202:../../libdaisy/src/dev/oled_ssd130x.h ****                 break;
 203:../../libdaisy/src/dev/oled_ssd130x.h ****         }
ARM GAS  C:\Users\VINCIU~1\AppData\Local\Temp\ccnesEGk.s 			page 12


 204:../../libdaisy/src/dev/oled_ssd130x.h **** 
 205:../../libdaisy/src/dev/oled_ssd130x.h ****         // Display Offset
 206:../../libdaisy/src/dev/oled_ssd130x.h ****         transport_.SendCommand(0xD3);
 207:../../libdaisy/src/dev/oled_ssd130x.h ****         transport_.SendCommand(0x00);
 208:../../libdaisy/src/dev/oled_ssd130x.h ****         // Start Line Address
 209:../../libdaisy/src/dev/oled_ssd130x.h ****         transport_.SendCommand(0x40);
 210:../../libdaisy/src/dev/oled_ssd130x.h ****         // Normal Display
 211:../../libdaisy/src/dev/oled_ssd130x.h ****         transport_.SendCommand(0xA6);
 212:../../libdaisy/src/dev/oled_ssd130x.h ****         // All On Resume
 213:../../libdaisy/src/dev/oled_ssd130x.h ****         transport_.SendCommand(0xA4);
 214:../../libdaisy/src/dev/oled_ssd130x.h ****         // Charge Pump
 215:../../libdaisy/src/dev/oled_ssd130x.h ****         transport_.SendCommand(0x8D);
 216:../../libdaisy/src/dev/oled_ssd130x.h ****         transport_.SendCommand(0x14);
 217:../../libdaisy/src/dev/oled_ssd130x.h ****         // Set Segment Remap
 218:../../libdaisy/src/dev/oled_ssd130x.h ****         transport_.SendCommand(0xA1);
 219:../../libdaisy/src/dev/oled_ssd130x.h ****         // COM Output Scan Direction
 220:../../libdaisy/src/dev/oled_ssd130x.h ****         transport_.SendCommand(0xC8);
 221:../../libdaisy/src/dev/oled_ssd130x.h ****         // Contrast Control
 222:../../libdaisy/src/dev/oled_ssd130x.h ****         transport_.SendCommand(0x81);
 223:../../libdaisy/src/dev/oled_ssd130x.h ****         transport_.SendCommand(0x8F);
 224:../../libdaisy/src/dev/oled_ssd130x.h ****         // Pre Charge
 225:../../libdaisy/src/dev/oled_ssd130x.h ****         transport_.SendCommand(0xD9);
 226:../../libdaisy/src/dev/oled_ssd130x.h ****         transport_.SendCommand(0x25);
 227:../../libdaisy/src/dev/oled_ssd130x.h ****         // VCOM Detect
 228:../../libdaisy/src/dev/oled_ssd130x.h ****         transport_.SendCommand(0xDB);
 229:../../libdaisy/src/dev/oled_ssd130x.h ****         transport_.SendCommand(0x34);
 230:../../libdaisy/src/dev/oled_ssd130x.h **** 
 231:../../libdaisy/src/dev/oled_ssd130x.h **** 
 232:../../libdaisy/src/dev/oled_ssd130x.h ****         // Display On
 233:../../libdaisy/src/dev/oled_ssd130x.h ****         transport_.SendCommand(0xAF); //--turn on oled panel
 234:../../libdaisy/src/dev/oled_ssd130x.h ****     };
 235:../../libdaisy/src/dev/oled_ssd130x.h **** 
 236:../../libdaisy/src/dev/oled_ssd130x.h ****     size_t Width() const { return width; };
 237:../../libdaisy/src/dev/oled_ssd130x.h ****     size_t Height() const { return height; };
 238:../../libdaisy/src/dev/oled_ssd130x.h **** 
 239:../../libdaisy/src/dev/oled_ssd130x.h ****     void DrawPixel(uint_fast8_t x, uint_fast8_t y, bool on)
 240:../../libdaisy/src/dev/oled_ssd130x.h ****     {
 241:../../libdaisy/src/dev/oled_ssd130x.h ****         if(x >= width || y >= height)
 242:../../libdaisy/src/dev/oled_ssd130x.h ****             return;
 243:../../libdaisy/src/dev/oled_ssd130x.h ****         if(on)
 244:../../libdaisy/src/dev/oled_ssd130x.h ****             buffer_[x + (y / 8) * width] |= (1 << (y % 8));
 245:../../libdaisy/src/dev/oled_ssd130x.h ****         else
 246:../../libdaisy/src/dev/oled_ssd130x.h ****             buffer_[x + (y / 8) * width] &= ~(1 << (y % 8));
 247:../../libdaisy/src/dev/oled_ssd130x.h ****     }
 248:../../libdaisy/src/dev/oled_ssd130x.h **** 
 249:../../libdaisy/src/dev/oled_ssd130x.h ****     void Fill(bool on)
 251              		.loc 5 249 10 view .LVU76
 252              	.LBB330:
 250:../../libdaisy/src/dev/oled_ssd130x.h ****     {
 251:../../libdaisy/src/dev/oled_ssd130x.h ****         for(size_t i = 0; i < sizeof(buffer_); i++)
 253              		.loc 5 251 29 view .LVU77
 254              	.LBE330:
 255              	.LBE329:
 256              	.LBE328:
  35:Menus.cpp     ****     screen.Fill(false);
 257              		.loc 2 35 1 is_stmt 0 view .LVU78
 258 0000 2DE9F04F 		push	{r4, r5, r6, r7, r8, r9, r10, fp, lr}
ARM GAS  C:\Users\VINCIU~1\AppData\Local\Temp\ccnesEGk.s 			page 13


 259              		.cfi_def_cfa_offset 36
 260              		.cfi_offset 4, -36
 261              		.cfi_offset 5, -32
 262              		.cfi_offset 6, -28
 263              		.cfi_offset 7, -24
 264              		.cfi_offset 8, -20
 265              		.cfi_offset 9, -16
 266              		.cfi_offset 10, -12
 267              		.cfi_offset 11, -8
 268              		.cfi_offset 14, -4
 269 0004 ADF5105D 		sub	sp, sp, #9216
 270              		.cfi_def_cfa_offset 9252
 271 0008 0C46     		mov	r4, r1
 272              	.LBB335:
 273              	.LBB333:
 274              	.LBB331:
 252:../../libdaisy/src/dev/oled_ssd130x.h ****         {
 253:../../libdaisy/src/dev/oled_ssd130x.h ****             buffer_[i] = on ? 0xff : 0x00;
 275              		.loc 5 253 24 view .LVU79
 276 000a 0021     		movs	r1, #0
 277              	.LVL10:
 278              		.loc 5 253 24 view .LVU80
 279 000c 4FF48062 		mov	r2, #1024
 280              	.LBE331:
 281              	.LBE333:
 282              	.LBE335:
  35:Menus.cpp     ****     screen.Fill(false);
 283              		.loc 2 35 1 view .LVU81
 284 0010 83B0     		sub	sp, sp, #12
 285              		.cfi_def_cfa_offset 9264
 286 0012 04F1140B 		add	fp, r4, #20
  37:Menus.cpp     **** 
  38:Menus.cpp     ****     /**
  39:Menus.cpp     ****  * Made with Marlin Bitmap Converter
  40:Menus.cpp     ****  * https://marlinfw.org/tools/u8glib/converter.html
  41:Menus.cpp     ****  *
  42:Menus.cpp     ****  * This bitmap from the file 'pt.png'
  43:Menus.cpp     ****  */
  44:Menus.cpp     ****     
  45:Menus.cpp     ****     const unsigned char pt[] = {
  46:Menus.cpp     **** 0xff, 0xff, 0xff, 0xff, 0xff, 0xff, 0xff, 0xff, 0xff, 0xff, 0xff, 0xff, 0xff, 0xff, 0xff, 0xff, 
  47:Menus.cpp     **** 	0xff, 0xff, 0xff, 0xff, 0xff, 0xff, 0xff, 0xff, 0xff, 0xff, 0xff, 0xff, 0xff, 0xff, 0xff, 0xff, 
  48:Menus.cpp     **** 	0xff, 0xff, 0xff, 0xff, 0xff, 0xff, 0xff, 0xff, 0xff, 0xff, 0xff, 0xff, 0xff, 0xff, 0xff, 0xff, 
  49:Menus.cpp     **** 	0xff, 0xff, 0xff, 0xff, 0xff, 0xff, 0xff, 0xfb, 0xff, 0xff, 0xff, 0xff, 0xff, 0xff, 0xff, 0xff, 
  50:Menus.cpp     **** 	0xff, 0xff, 0xff, 0xff, 0xff, 0xff, 0xff, 0xfb, 0xff, 0xff, 0xff, 0xff, 0xff, 0xff, 0xff, 0xff, 
  51:Menus.cpp     **** 	0xff, 0xff, 0xff, 0xff, 0xff, 0xff, 0xff, 0xf1, 0xff, 0xff, 0xff, 0xff, 0xff, 0xff, 0xff, 0xff, 
  52:Menus.cpp     **** 	0xff, 0xff, 0xff, 0xff, 0xff, 0xff, 0xff, 0xf1, 0xff, 0xff, 0xff, 0xff, 0xff, 0xff, 0xff, 0xff, 
  53:Menus.cpp     **** 	0xff, 0xff, 0xff, 0xff, 0xff, 0xff, 0xff, 0xf1, 0xff, 0xff, 0xff, 0xff, 0xff, 0xff, 0xff, 0xff, 
  54:Menus.cpp     **** 	0xff, 0xff, 0xff, 0xff, 0xff, 0xff, 0xff, 0xe0, 0xff, 0xff, 0xff, 0xff, 0xff, 0xff, 0xff, 0xff, 
  55:Menus.cpp     **** 	0xff, 0xff, 0xff, 0xff, 0xff, 0xff, 0xff, 0xe0, 0xff, 0xff, 0xff, 0xff, 0xff, 0xff, 0xff, 0xff, 
  56:Menus.cpp     **** 	0xff, 0xff, 0xff, 0xff, 0xff, 0xff, 0xff, 0xe0, 0xff, 0xff, 0xff, 0xff, 0xff, 0xff, 0xff, 0xff, 
  57:Menus.cpp     **** 	0xff, 0xff, 0xff, 0xff, 0xff, 0xff, 0xff, 0xc0, 0x7f, 0xff, 0xff, 0xff, 0xff, 0xff, 0xff, 0xff, 
  58:Menus.cpp     **** 	0xff, 0xff, 0xff, 0xff, 0xff, 0xff, 0xff, 0xc0, 0x7f, 0xff, 0xff, 0xff, 0xff, 0xff, 0xff, 0xff, 
  59:Menus.cpp     **** 	0xff, 0xff, 0xff, 0xff, 0xff, 0xff, 0xff, 0xc0, 0x7f, 0xff, 0xff, 0xff, 0xff, 0xff, 0xff, 0xff, 
  60:Menus.cpp     **** 	0xff, 0xff, 0xff, 0xff, 0xff, 0xff, 0xff, 0x80, 0x3f, 0xff, 0xff, 0xff, 0xff, 0xff, 0xff, 0xff, 
  61:Menus.cpp     **** 	0xff, 0xff, 0xff, 0xff, 0xff, 0xff, 0xff, 0x80, 0x3f, 0xff, 0xff, 0xff, 0xff, 0xff, 0xff, 0xff, 
  62:Menus.cpp     **** 	0xff, 0xff, 0xff, 0xff, 0xff, 0xff, 0xff, 0x80, 0x3f, 0xff, 0xff, 0xff, 0xff, 0xff, 0xff, 0xff, 
ARM GAS  C:\Users\VINCIU~1\AppData\Local\Temp\ccnesEGk.s 			page 14


  63:Menus.cpp     **** 	0xff, 0xff, 0xff, 0xff, 0xff, 0xff, 0xff, 0x00, 0x1f, 0xff, 0xff, 0xff, 0xff, 0xff, 0xff, 0xff, 
  64:Menus.cpp     **** 	0xff, 0xff, 0xff, 0xff, 0xff, 0xff, 0xff, 0x00, 0x1f, 0xff, 0xff, 0xff, 0xff, 0xff, 0xff, 0xff, 
  65:Menus.cpp     **** 	0xff, 0xff, 0xff, 0xff, 0xff, 0xff, 0xff, 0x00, 0x1f, 0xff, 0xff, 0xff, 0xff, 0xff, 0xff, 0xff, 
  66:Menus.cpp     **** 	0xff, 0xff, 0xff, 0xff, 0xff, 0xff, 0xfe, 0x00, 0x0f, 0xff, 0xff, 0xff, 0xff, 0xff, 0xff, 0xff, 
  67:Menus.cpp     **** 	0xff, 0xff, 0xff, 0xff, 0xff, 0xff, 0xfe, 0x00, 0x0f, 0xff, 0xff, 0xff, 0xff, 0xff, 0xff, 0xff, 
  68:Menus.cpp     **** 	0xff, 0xff, 0xff, 0xff, 0xff, 0xff, 0xfe, 0x00, 0x0f, 0xff, 0xff, 0xff, 0xff, 0xff, 0xff, 0xff, 
  69:Menus.cpp     **** 	0xff, 0xff, 0xff, 0xff, 0xff, 0xff, 0xfc, 0x00, 0x07, 0xff, 0xff, 0xff, 0xff, 0xff, 0xff, 0xff, 
  70:Menus.cpp     **** 	0xff, 0xff, 0xff, 0xff, 0xff, 0xff, 0xfc, 0x00, 0x07, 0xff, 0xff, 0xff, 0xff, 0xff, 0xff, 0xff, 
  71:Menus.cpp     **** 	0xff, 0xff, 0xff, 0xfe, 0x00, 0x00, 0x00, 0x00, 0x00, 0x00, 0x00, 0x0f, 0xff, 0xff, 0xff, 0xff, 
  72:Menus.cpp     **** 	0xff, 0xff, 0xff, 0xff, 0x80, 0x00, 0x00, 0x00, 0x00, 0x00, 0x00, 0x3f, 0xff, 0xff, 0xff, 0xff, 
  73:Menus.cpp     **** 	0xff, 0xff, 0xff, 0xff, 0xc0, 0x00, 0x00, 0x00, 0x00, 0x00, 0x00, 0x7f, 0xff, 0xff, 0xff, 0xff, 
  74:Menus.cpp     **** 	0xff, 0xff, 0xff, 0xff, 0xf0, 0x00, 0x00, 0x00, 0x00, 0x00, 0x00, 0xff, 0xff, 0xff, 0xff, 0xff, 
  75:Menus.cpp     **** 	0xff, 0xff, 0xff, 0xff, 0xf8, 0x00, 0x00, 0x00, 0x00, 0x00, 0x03, 0xff, 0xff, 0xff, 0xff, 0xff, 
  76:Menus.cpp     **** 	0xff, 0xff, 0xff, 0xff, 0xfc, 0x00, 0x00, 0x00, 0x00, 0x00, 0x07, 0xff, 0xff, 0xff, 0xff, 0xff, 
  77:Menus.cpp     **** 	0xff, 0xff, 0xff, 0xff, 0xff, 0x00, 0x07, 0xf1, 0xff, 0x80, 0x1f, 0xff, 0xff, 0xff, 0xff, 0xff, 
  78:Menus.cpp     **** 	0xff, 0xff, 0xff, 0xff, 0xff, 0x80, 0x07, 0xfd, 0xff, 0xc0, 0x3f, 0xff, 0xff, 0xff, 0xff, 0xff, 
  79:Menus.cpp     **** 	0xff, 0xff, 0xff, 0xff, 0xff, 0xc0, 0x07, 0x1c, 0x1c, 0x00, 0x7f, 0xff, 0xff, 0xff, 0xff, 0xff, 
  80:Menus.cpp     **** 	0xff, 0xff, 0xff, 0xff, 0xff, 0xf0, 0x06, 0x0c, 0x1c, 0x01, 0xff, 0xff, 0xff, 0xff, 0xff, 0xff, 
  81:Menus.cpp     **** 	0xff, 0xff, 0xff, 0xff, 0xff, 0xf8, 0x06, 0x0c, 0x1c, 0x03, 0xff, 0xff, 0xff, 0xff, 0xff, 0xff, 
  82:Menus.cpp     **** 	0xff, 0xff, 0xff, 0xff, 0xff, 0xfe, 0x07, 0x1c, 0x1c, 0x0f, 0xff, 0xff, 0xff, 0xff, 0xff, 0xff, 
  83:Menus.cpp     **** 	0xff, 0xff, 0xff, 0xff, 0xff, 0xff, 0x07, 0xfc, 0x1c, 0x1f, 0xff, 0xff, 0xff, 0xff, 0xff, 0xff, 
  84:Menus.cpp     **** 	0xff, 0xff, 0xff, 0xff, 0xff, 0xff, 0x87, 0xf0, 0x1c, 0x3f, 0xff, 0xff, 0xff, 0xff, 0xff, 0xff, 
  85:Menus.cpp     **** 	0xff, 0xff, 0xff, 0xff, 0xff, 0xff, 0x87, 0x00, 0x1c, 0x3f, 0xff, 0xff, 0xff, 0xff, 0xff, 0xff, 
  86:Menus.cpp     **** 	0xff, 0xff, 0xff, 0xff, 0xff, 0xff, 0x86, 0x00, 0x1c, 0x3f, 0xff, 0xff, 0xff, 0xff, 0xff, 0xff, 
  87:Menus.cpp     **** 	0xff, 0xff, 0xff, 0xff, 0xff, 0xff, 0x87, 0x00, 0x1c, 0x1f, 0xff, 0xff, 0xff, 0xff, 0xff, 0xff, 
  88:Menus.cpp     **** 	0xff, 0xff, 0xff, 0xff, 0xff, 0xff, 0x06, 0x00, 0x18, 0x1f, 0xff, 0xff, 0xff, 0xff, 0xff, 0xff, 
  89:Menus.cpp     **** 	0xff, 0xff, 0xff, 0xff, 0xff, 0xff, 0x00, 0x00, 0x00, 0x1f, 0xff, 0xff, 0xff, 0xff, 0xff, 0xff, 
  90:Menus.cpp     **** 	0xff, 0xff, 0xff, 0xff, 0xff, 0xff, 0x00, 0x00, 0x00, 0x0f, 0xff, 0xff, 0xff, 0xff, 0xff, 0xff, 
  91:Menus.cpp     **** 	0xff, 0xff, 0xff, 0xff, 0xff, 0xfe, 0x00, 0x00, 0x00, 0x0f, 0xff, 0xff, 0xff, 0xff, 0xff, 0xff, 
  92:Menus.cpp     **** 	0xff, 0xff, 0xff, 0xff, 0xff, 0xfe, 0x00, 0x00, 0x00, 0x0f, 0xff, 0xff, 0xff, 0xff, 0xff, 0xff, 
  93:Menus.cpp     **** 	0xff, 0xff, 0xff, 0xff, 0xff, 0xfe, 0x00, 0x04, 0x00, 0x07, 0xff, 0xff, 0xff, 0xff, 0xff, 0xff, 
  94:Menus.cpp     **** 	0xff, 0xff, 0xff, 0xff, 0xff, 0xfc, 0x00, 0x0e, 0x00, 0x07, 0xff, 0xff, 0xff, 0xff, 0xff, 0xff, 
  95:Menus.cpp     **** 	0xff, 0xff, 0xff, 0xff, 0xff, 0xfc, 0x00, 0x3f, 0x80, 0x07, 0xff, 0xff, 0xff, 0xff, 0xff, 0xff, 
  96:Menus.cpp     **** 	0xff, 0xff, 0xff, 0xff, 0xff, 0xfc, 0x00, 0x7f, 0xc0, 0x03, 0xff, 0xff, 0xff, 0xff, 0xff, 0xff, 
  97:Menus.cpp     **** 	0xff, 0xff, 0xff, 0xff, 0xff, 0xf8, 0x01, 0xff, 0xf0, 0x03, 0xff, 0xff, 0xff, 0xff, 0xff, 0xff, 
  98:Menus.cpp     **** 	0xff, 0xff, 0xff, 0xff, 0xff, 0xf8, 0x03, 0xff, 0xf8, 0x03, 0xff, 0xff, 0xff, 0xff, 0xff, 0xff, 
  99:Menus.cpp     **** 	0xff, 0xff, 0xff, 0xff, 0xff, 0xf8, 0x07, 0xff, 0xfc, 0x01, 0xff, 0xff, 0xff, 0xff, 0xff, 0xff, 
 100:Menus.cpp     **** 	0xff, 0xff, 0xff, 0xff, 0xff, 0xf0, 0x1f, 0xff, 0xff, 0x01, 0xff, 0xff, 0xff, 0xff, 0xff, 0xff, 
 101:Menus.cpp     **** 	0xff, 0xff, 0xff, 0xff, 0xff, 0xf0, 0x3f, 0xff, 0xff, 0x81, 0xff, 0xff, 0xff, 0xff, 0xff, 0xff, 
 102:Menus.cpp     **** 	0xff, 0xff, 0xff, 0xff, 0xff, 0xf0, 0xff, 0xff, 0xff, 0xe1, 0xff, 0xff, 0xff, 0xff, 0xff, 0xff, 
 103:Menus.cpp     **** 	0xff, 0xff, 0xff, 0xff, 0xff, 0xe1, 0xff, 0xff, 0xff, 0xf0, 0xff, 0xff, 0xff, 0xff, 0xff, 0xff, 
 104:Menus.cpp     **** 	0xff, 0xff, 0xff, 0xff, 0xff, 0xe3, 0xff, 0xff, 0xff, 0xf8, 0xff, 0xff, 0xff, 0xff, 0xff, 0xff, 
 105:Menus.cpp     **** 	0xff, 0xff, 0xff, 0xff, 0xff, 0xef, 0xff, 0xff, 0xff, 0xfe, 0x7f, 0xff, 0xff, 0xff, 0xff, 0xff, 
 106:Menus.cpp     **** 	0xff, 0xff, 0xff, 0xff, 0xff, 0xff, 0xff, 0xff, 0xff, 0xff, 0x7f, 0xff, 0xff, 0xff, 0xff, 0xff, 
 107:Menus.cpp     **** 	0xff, 0xff, 0xff, 0xff, 0xff, 0xff, 0xff, 0xff, 0xff, 0xff, 0xff, 0xff, 0xff, 0xff, 0xff, 0xff, 
 108:Menus.cpp     **** 	0xff, 0xff, 0xff, 0xff, 0xff, 0xff, 0xff, 0xff, 0xff, 0xff, 0xff, 0xff, 0xff, 0xff, 0xff, 0xff, 
 109:Menus.cpp     **** 	0xff, 0xff, 0xff, 0xff, 0xff, 0xff, 0xff, 0xff, 0xff, 0xff, 0xff, 0xff, 0xff, 0xff, 0xff, 0xff};
 110:Menus.cpp     **** 
 111:Menus.cpp     ****         unsigned char bits[sizeof(pt)*8]={};
 287              		.loc 2 111 23 view .LVU82
 288 0016 0E46     		mov	r6, r1
  45:Menus.cpp     **** 0xff, 0xff, 0xff, 0xff, 0xff, 0xff, 0xff, 0xff, 0xff, 0xff, 0xff, 0xff, 0xff, 0xff, 0xff, 0xff, 
 289              		.loc 2 45 25 view .LVU83
 290 0018 02AF     		add	r7, sp, #8
 291              	.LBB336:
 292              	.LBB334:
 293              	.LBB332:
ARM GAS  C:\Users\VINCIU~1\AppData\Local\Temp\ccnesEGk.s 			page 15


 294              		.loc 5 253 24 view .LVU84
 295 001a 5846     		mov	r0, fp
 296              	.LVL11:
 297              		.loc 5 253 24 view .LVU85
 298 001c FFF7FEFF 		bl	memset
 299              	.LVL12:
 300              		.loc 5 253 24 view .LVU86
 301              	.LBE332:
 302              	.LBE334:
 303              	.LBE336:
  45:Menus.cpp     **** 0xff, 0xff, 0xff, 0xff, 0xff, 0xff, 0xff, 0xff, 0xff, 0xff, 0xff, 0xff, 0xff, 0xff, 0xff, 0xff, 
 304              		.loc 2 45 5 is_stmt 1 view .LVU87
  45:Menus.cpp     **** 0xff, 0xff, 0xff, 0xff, 0xff, 0xff, 0xff, 0xff, 0xff, 0xff, 0xff, 0xff, 0xff, 0xff, 0xff, 0xff, 
 305              		.loc 2 45 25 is_stmt 0 view .LVU88
 306 0020 4FF48062 		mov	r2, #1024
 307 0024 4749     		ldr	r1, .L24
 308 0026 3846     		mov	r0, r7
 309 0028 FFF7FEFF 		bl	memcpy
 310              	.LVL13:
 311              		.loc 2 111 9 is_stmt 1 view .LVU89
 312              		.loc 2 111 23 is_stmt 0 view .LVU90
 313 002c 0DF58160 		add	r0, sp, #1032
 314 0030 41F6FC72 		movw	r2, #8188
 315 0034 3146     		mov	r1, r6
 316 0036 40F8046B 		str	r6, [r0], #4
 317 003a FFF7FEFF 		bl	memset
 318              	.LVL14:
 112:Menus.cpp     **** 
 113:Menus.cpp     ****     for(int i = 0; i < (sizeof(pt) * 8)-1; i++)
 319              		.loc 2 113 5 is_stmt 1 view .LVU91
 320              	.LBB337:
 321              		.loc 2 113 22 view .LVU92
 322              		.loc 2 113 13 is_stmt 0 view .LVU93
 323 003e 3246     		mov	r2, r6
 324 0040 0DF20740 		addw	r0, sp, #1031
 325              	.LBE337:
 111:Menus.cpp     **** 
 326              		.loc 2 111 23 view .LVU94
 327 0044 FF21     		movs	r1, #255
 328 0046 00E0     		b	.L10
 329              	.LVL15:
 330              	.L21:
 331              	.LBB338:
 114:Menus.cpp     ****     {
 115:Menus.cpp     ****         bits[i] = ((128>> (i % 8)) & (pt[i/8])) ;
 332              		.loc 2 115 45 view .LVU95
 333 0048 B95D     		ldrb	r1, [r7, r6]	@ zero_extendqisi2
 334              	.LVL16:
 335              	.L10:
 336              		.loc 2 115 9 is_stmt 1 discriminator 2 view .LVU96
 337              		.loc 2 115 30 is_stmt 0 discriminator 2 view .LVU97
 338 004a 02F00706 		and	r6, r2, #7
 339              		.loc 2 115 24 discriminator 2 view .LVU98
 340 004e 8023     		movs	r3, #128
 113:Menus.cpp     ****     {
 341              		.loc 2 113 5 discriminator 2 view .LVU99
 342 0050 0132     		adds	r2, r2, #1
ARM GAS  C:\Users\VINCIU~1\AppData\Local\Temp\ccnesEGk.s 			page 16


 343              	.LVL17:
 113:Menus.cpp     ****     {
 344              		.loc 2 113 22 discriminator 2 view .LVU100
 345 0052 41F6FF7C 		movw	ip, #8191
 346              		.loc 2 115 24 discriminator 2 view .LVU101
 347 0056 3341     		asrs	r3, r3, r6
 113:Menus.cpp     ****     {
 348              		.loc 2 113 22 discriminator 2 view .LVU102
 349 0058 6245     		cmp	r2, ip
 350              		.loc 2 115 43 discriminator 2 view .LVU103
 351 005a 4FEAE206 		asr	r6, r2, #3
 352              		.loc 2 115 36 discriminator 2 view .LVU104
 353 005e 03EA0103 		and	r3, r3, r1
 354              		.loc 2 115 17 discriminator 2 view .LVU105
 355 0062 00F8013F 		strb	r3, [r0, #1]!
 113:Menus.cpp     ****     {
 356              		.loc 2 113 5 is_stmt 1 discriminator 2 view .LVU106
 113:Menus.cpp     ****     {
 357              		.loc 2 113 22 discriminator 2 view .LVU107
 358 0066 EFD1     		bne	.L21
 359 0068 0DF58166 		add	r6, sp, #1032
 360 006c 0DF59167 		add	r7, sp, #1160
 361              	.LBE338:
 362              	.LBB339:
 116:Menus.cpp     ****     }
 117:Menus.cpp     **** 
 118:Menus.cpp     ****     for(int x = 0; x < screen.Width(); x++)
 363              		.loc 2 118 13 is_stmt 0 view .LVU108
 364 0070 0020     		movs	r0, #0
 365              	.L14:
 366              	.LVL18:
 367              	.LBB340:
 119:Menus.cpp     ****     {
 120:Menus.cpp     ****         for(int y = 0; y < screen.Height(); y++)
 368              		.loc 2 120 26 is_stmt 1 view .LVU109
 369              		.loc 2 120 17 is_stmt 0 view .LVU110
 370 0072 0023     		movs	r3, #0
 371 0074 08E0     		b	.L13
 372              	.LVL19:
 373              	.L23:
 374              	.LBB341:
 375              	.LBB342:
 376              	.LBB343:
 244:../../libdaisy/src/dev/oled_ssd130x.h ****         else
 377              		.loc 5 244 42 view .LVU111
 378 0076 9CF814E0 		ldrb	lr, [ip, #20]	@ zero_extendqisi2
 379              	.LBE343:
 380              	.LBE342:
 381              	.LBE341:
 382              		.loc 2 120 9 view .LVU112
 383 007a 0133     		adds	r3, r3, #1
 384              	.LVL20:
 385              	.LBB363:
 386              	.LBB357:
 387              	.LBB351:
 244:../../libdaisy/src/dev/oled_ssd130x.h ****         else
 388              		.loc 5 244 42 view .LVU113
ARM GAS  C:\Users\VINCIU~1\AppData\Local\Temp\ccnesEGk.s 			page 17


 389 007c 41EA0E01 		orr	r1, r1, lr
 390              	.LBE351:
 391              	.LBE357:
 392              	.LBE363:
 393              		.loc 2 120 26 view .LVU114
 394 0080 402B     		cmp	r3, #64
 395              	.LBB364:
 396              	.LBB358:
 397              	.LBB352:
 244:../../libdaisy/src/dev/oled_ssd130x.h ****         else
 398              		.loc 5 244 42 view .LVU115
 399 0082 8CF81410 		strb	r1, [ip, #20]
 400              	.LVL21:
 244:../../libdaisy/src/dev/oled_ssd130x.h ****         else
 401              		.loc 5 244 42 view .LVU116
 402              	.LBE352:
 403              	.LBE358:
 404              	.LBE364:
 405              		.loc 2 120 9 is_stmt 1 view .LVU117
 406              		.loc 2 120 26 view .LVU118
 407 0086 19D0     		beq	.L22
 408              	.LVL22:
 409              	.L13:
 121:Menus.cpp     ****         {
 122:Menus.cpp     ****             screen.DrawPixel(x,y,bits[x+y*screen.Width()]);
 410              		.loc 2 122 13 discriminator 2 view .LVU119
 411              	.LBB365:
 412              	.LBI341:
  34:../../libdaisy/src/hid/disp/oled_display.h **** 
  35:../../libdaisy/src/hid/disp/oled_display.h ****     /**
  36:../../libdaisy/src/hid/disp/oled_display.h ****     Sets the pixel at the specified coordinate to be on/off.
  37:../../libdaisy/src/hid/disp/oled_display.h ****     \param x   x Coordinate
  38:../../libdaisy/src/hid/disp/oled_display.h ****     \param y   y coordinate
  39:../../libdaisy/src/hid/disp/oled_display.h ****     \param on  on or off
  40:../../libdaisy/src/hid/disp/oled_display.h ****     */
  41:../../libdaisy/src/hid/disp/oled_display.h ****     void DrawPixel(uint_fast8_t x, uint_fast8_t y, bool on) override
 413              		.loc 1 41 10 discriminator 2 view .LVU120
 414              	.LBB359:
 415              	.LBI342:
 239:../../libdaisy/src/dev/oled_ssd130x.h ****     {
 416              		.loc 5 239 10 discriminator 2 view .LVU121
 417              	.LBB353:
 418              	.LBB344:
 419              	.LBI344:
 239:../../libdaisy/src/dev/oled_ssd130x.h ****     {
 420              		.loc 5 239 10 discriminator 2 view .LVU122
 239:../../libdaisy/src/dev/oled_ssd130x.h ****     {
 421              		.loc 5 239 10 is_stmt 0 discriminator 2 view .LVU123
 422              	.LBE344:
 244:../../libdaisy/src/dev/oled_ssd130x.h ****         else
 423              		.loc 5 244 28 discriminator 2 view .LVU124
 424 0088 4FEAD30C 		lsr	ip, r3, #3
 244:../../libdaisy/src/dev/oled_ssd130x.h ****         else
 425              		.loc 5 244 54 discriminator 2 view .LVU125
 426 008c 03F00701 		and	r1, r3, #7
 427              	.LBE353:
 428              	.LBE359:
ARM GAS  C:\Users\VINCIU~1\AppData\Local\Temp\ccnesEGk.s 			page 18


 429              	.LBE365:
 430              		.loc 2 122 57 discriminator 2 view .LVU126
 431 0090 4FEAC318 		lsl	r8, r3, #7
 432              	.LBB366:
 433              	.LBB360:
 434              	.LBB354:
 244:../../libdaisy/src/dev/oled_ssd130x.h ****         else
 435              		.loc 5 244 48 discriminator 2 view .LVU127
 436 0094 4FF0010E 		mov	lr, #1
 244:../../libdaisy/src/dev/oled_ssd130x.h ****         else
 437              		.loc 5 244 42 discriminator 2 view .LVU128
 438 0098 00EBCC1C 		add	ip, r0, ip, lsl #7
 243:../../libdaisy/src/dev/oled_ssd130x.h ****             buffer_[x + (y / 8) * width] |= (1 << (y % 8));
 439              		.loc 5 243 9 discriminator 2 view .LVU129
 440 009c 16F80850 		ldrb	r5, [r6, r8]	@ zero_extendqisi2
 244:../../libdaisy/src/dev/oled_ssd130x.h ****         else
 441              		.loc 5 244 48 discriminator 2 view .LVU130
 442 00a0 0EFA01F1 		lsl	r1, lr, r1
 244:../../libdaisy/src/dev/oled_ssd130x.h ****         else
 443              		.loc 5 244 42 discriminator 2 view .LVU131
 444 00a4 A444     		add	ip, ip, r4
 243:../../libdaisy/src/dev/oled_ssd130x.h ****             buffer_[x + (y / 8) * width] |= (1 << (y % 8));
 445              		.loc 5 243 9 discriminator 2 view .LVU132
 446 00a6 002D     		cmp	r5, #0
 447 00a8 E5D1     		bne	.L23
 448              	.LBB348:
 449              	.LBB345:
 246:../../libdaisy/src/dev/oled_ssd130x.h ****     }
 450              		.loc 5 246 42 view .LVU133
 451 00aa 9CF814A0 		ldrb	r10, [ip, #20]	@ zero_extendqisi2
 452              	.LBE345:
 453              	.LBE348:
 454              	.LBE354:
 455              	.LBE360:
 456              	.LBE366:
 120:Menus.cpp     ****         {
 457              		.loc 2 120 9 view .LVU134
 458 00ae 0133     		adds	r3, r3, #1
 459              	.LVL23:
 460              	.LBB367:
 461              	.LBB361:
 462              	.LBB355:
 463              	.LBB349:
 464              	.LBB346:
 246:../../libdaisy/src/dev/oled_ssd130x.h ****     }
 465              		.loc 5 246 42 view .LVU135
 466 00b0 2AEA0109 		bic	r9, r10, r1
 467              	.LBE346:
 468              	.LBE349:
 469              	.LBE355:
 470              	.LBE361:
 471              	.LBE367:
 120:Menus.cpp     ****         {
 472              		.loc 2 120 26 view .LVU136
 473 00b4 402B     		cmp	r3, #64
 474              	.LBB368:
 475              	.LBB362:
ARM GAS  C:\Users\VINCIU~1\AppData\Local\Temp\ccnesEGk.s 			page 19


 476              	.LBB356:
 477              	.LBB350:
 478              	.LBB347:
 246:../../libdaisy/src/dev/oled_ssd130x.h ****     }
 479              		.loc 5 246 42 view .LVU137
 480 00b6 8CF81490 		strb	r9, [ip, #20]
 481              	.LVL24:
 246:../../libdaisy/src/dev/oled_ssd130x.h ****     }
 482              		.loc 5 246 42 view .LVU138
 483              	.LBE347:
 484              	.LBE350:
 485              	.LBE356:
 486              	.LBE362:
 487              	.LBE368:
 120:Menus.cpp     ****         {
 488              		.loc 2 120 9 is_stmt 1 view .LVU139
 120:Menus.cpp     ****         {
 489              		.loc 2 120 26 view .LVU140
 490 00ba E5D1     		bne	.L13
 491              	.L22:
 120:Menus.cpp     ****         {
 492              		.loc 2 120 26 is_stmt 0 view .LVU141
 493              	.LBE340:
 118:Menus.cpp     ****     {
 494              		.loc 2 118 5 is_stmt 1 discriminator 2 view .LVU142
 118:Menus.cpp     ****     {
 495              		.loc 2 118 22 is_stmt 0 discriminator 2 view .LVU143
 496 00bc 0136     		adds	r6, r6, #1
 118:Menus.cpp     ****     {
 497              		.loc 2 118 5 discriminator 2 view .LVU144
 498 00be 0130     		adds	r0, r0, #1
 499              	.LVL25:
 118:Menus.cpp     ****     {
 500              		.loc 2 118 22 is_stmt 1 discriminator 2 view .LVU145
 501 00c0 B742     		cmp	r7, r6
 502 00c2 D6D1     		bne	.L14
 503              	.LBE339:
 504              	.LBB369:
 505              	.LBB370:
 506              	.LBB371:
 507              	.LBB372:
 508              	.LBB373:
 111:../../libdaisy/src/dev/oled_ssd130x.h ****         spi_.BlockingTransmit(&cmd, 1);
 509              		.loc 5 111 24 is_stmt 0 view .LVU146
 510 00c4 04F10808 		add	r8, r4, #8
 511 00c8 5D46     		mov	r5, fp
 512 00ca 1034     		adds	r4, r4, #16
 513              	.LVL26:
 112:../../libdaisy/src/dev/oled_ssd130x.h ****     };
 514              		.loc 5 112 30 view .LVU147
 515 00cc B026     		movs	r6, #176
 516              	.LVL27:
 517              	.L15:
 112:../../libdaisy/src/dev/oled_ssd130x.h ****     };
 518              		.loc 5 112 30 view .LVU148
 519 00ce 4FF00009 		mov	r9, #0
 520 00d2 0DF10707 		add	r7, sp, #7
ARM GAS  C:\Users\VINCIU~1\AppData\Local\Temp\ccnesEGk.s 			page 20


 111:../../libdaisy/src/dev/oled_ssd130x.h ****         spi_.BlockingTransmit(&cmd, 1);
 521              		.loc 5 111 23 view .LVU149
 522 00d6 2046     		mov	r0, r4
 523 00d8 3E70     		strb	r6, [r7]
 524              	.LVL28:
 111:../../libdaisy/src/dev/oled_ssd130x.h ****         spi_.BlockingTransmit(&cmd, 1);
 525              		.loc 5 111 23 view .LVU150
 526              	.LBE373:
 527              	.LBI372:
 109:../../libdaisy/src/dev/oled_ssd130x.h ****     {
 528              		.loc 5 109 10 is_stmt 1 view .LVU151
 529              	.LBB374:
 111:../../libdaisy/src/dev/oled_ssd130x.h ****         spi_.BlockingTransmit(&cmd, 1);
 530              		.loc 5 111 9 view .LVU152
 111:../../libdaisy/src/dev/oled_ssd130x.h ****         spi_.BlockingTransmit(&cmd, 1);
 531              		.loc 5 111 23 is_stmt 0 view .LVU153
 532 00da 4946     		mov	r1, r9
 533              	.LBE374:
 534              	.LBE372:
 254:../../libdaisy/src/dev/oled_ssd130x.h ****         }
 255:../../libdaisy/src/dev/oled_ssd130x.h ****     };
 256:../../libdaisy/src/dev/oled_ssd130x.h **** 
 257:../../libdaisy/src/dev/oled_ssd130x.h ****     /**
 258:../../libdaisy/src/dev/oled_ssd130x.h ****      * Update the display 
 259:../../libdaisy/src/dev/oled_ssd130x.h ****     */
 260:../../libdaisy/src/dev/oled_ssd130x.h ****     void Update()
 261:../../libdaisy/src/dev/oled_ssd130x.h ****     {
 262:../../libdaisy/src/dev/oled_ssd130x.h ****         uint8_t i;
 263:../../libdaisy/src/dev/oled_ssd130x.h ****         uint8_t high_column_addr;
 264:../../libdaisy/src/dev/oled_ssd130x.h ****         switch(height)
 265:../../libdaisy/src/dev/oled_ssd130x.h ****         {
 266:../../libdaisy/src/dev/oled_ssd130x.h ****             case 32: high_column_addr = 0x12; break;
 267:../../libdaisy/src/dev/oled_ssd130x.h **** 
 268:../../libdaisy/src/dev/oled_ssd130x.h ****             default: high_column_addr = 0x10; break;
 269:../../libdaisy/src/dev/oled_ssd130x.h ****         }
 270:../../libdaisy/src/dev/oled_ssd130x.h ****         for(i = 0; i < (height / 8); i++)
 535              		.loc 5 270 22 view .LVU154
 536 00dc 0136     		adds	r6, r6, #1
 537              	.LVL29:
 538              	.LBB377:
 539              	.LBB375:
 111:../../libdaisy/src/dev/oled_ssd130x.h ****         spi_.BlockingTransmit(&cmd, 1);
 540              		.loc 5 111 23 view .LVU155
 541 00de FFF7FEFF 		bl	dsy_gpio_write
 542              	.LVL30:
 112:../../libdaisy/src/dev/oled_ssd130x.h ****     };
 543              		.loc 5 112 9 is_stmt 1 view .LVU156
 112:../../libdaisy/src/dev/oled_ssd130x.h ****     };
 544              		.loc 5 112 30 is_stmt 0 view .LVU157
 545 00e2 6423     		movs	r3, #100
 546 00e4 0122     		movs	r2, #1
 547 00e6 3946     		mov	r1, r7
 548 00e8 4046     		mov	r0, r8
 549              	.LBE375:
 550              	.LBE377:
 551              		.loc 5 270 22 view .LVU158
 552 00ea F6B2     		uxtb	r6, r6
ARM GAS  C:\Users\VINCIU~1\AppData\Local\Temp\ccnesEGk.s 			page 21


 553              	.LBB378:
 554              	.LBB376:
 112:../../libdaisy/src/dev/oled_ssd130x.h ****     };
 555              		.loc 5 112 30 view .LVU159
 556 00ec FFF7FEFF 		bl	_ZN5daisy9SpiHandle16BlockingTransmitEPhjm
 557              	.LVL31:
 112:../../libdaisy/src/dev/oled_ssd130x.h ****     };
 558              		.loc 5 112 30 view .LVU160
 559              	.LBE376:
 560              	.LBE378:
 561              	.LBB379:
 562              	.LBB380:
 111:../../libdaisy/src/dev/oled_ssd130x.h ****         spi_.BlockingTransmit(&cmd, 1);
 563              		.loc 5 111 23 view .LVU161
 564 00f0 4946     		mov	r1, r9
 565 00f2 2046     		mov	r0, r4
 566 00f4 87F80090 		strb	r9, [r7]
 567              	.LVL32:
 111:../../libdaisy/src/dev/oled_ssd130x.h ****         spi_.BlockingTransmit(&cmd, 1);
 568              		.loc 5 111 23 view .LVU162
 569              	.LBE380:
 570              	.LBI379:
 109:../../libdaisy/src/dev/oled_ssd130x.h ****     {
 571              		.loc 5 109 10 is_stmt 1 view .LVU163
 572              	.LBB381:
 111:../../libdaisy/src/dev/oled_ssd130x.h ****         spi_.BlockingTransmit(&cmd, 1);
 573              		.loc 5 111 9 view .LVU164
 111:../../libdaisy/src/dev/oled_ssd130x.h ****         spi_.BlockingTransmit(&cmd, 1);
 574              		.loc 5 111 23 is_stmt 0 view .LVU165
 575 00f8 FFF7FEFF 		bl	dsy_gpio_write
 576              	.LVL33:
 112:../../libdaisy/src/dev/oled_ssd130x.h ****     };
 577              		.loc 5 112 9 is_stmt 1 view .LVU166
 112:../../libdaisy/src/dev/oled_ssd130x.h ****     };
 578              		.loc 5 112 30 is_stmt 0 view .LVU167
 579 00fc 0122     		movs	r2, #1
 580 00fe 6423     		movs	r3, #100
 581 0100 3946     		mov	r1, r7
 582 0102 4046     		mov	r0, r8
 583 0104 FFF7FEFF 		bl	_ZN5daisy9SpiHandle16BlockingTransmitEPhjm
 584              	.LVL34:
 112:../../libdaisy/src/dev/oled_ssd130x.h ****     };
 585              		.loc 5 112 30 view .LVU168
 586 0108 1023     		movs	r3, #16
 587              	.LBE381:
 588              	.LBE379:
 589              	.LBB382:
 590              	.LBB383:
 111:../../libdaisy/src/dev/oled_ssd130x.h ****         spi_.BlockingTransmit(&cmd, 1);
 591              		.loc 5 111 23 view .LVU169
 592 010a 4946     		mov	r1, r9
 593 010c 2046     		mov	r0, r4
 594 010e 3B70     		strb	r3, [r7]
 595              	.LVL35:
 111:../../libdaisy/src/dev/oled_ssd130x.h ****         spi_.BlockingTransmit(&cmd, 1);
 596              		.loc 5 111 23 view .LVU170
 597              	.LBE383:
ARM GAS  C:\Users\VINCIU~1\AppData\Local\Temp\ccnesEGk.s 			page 22


 598              	.LBI382:
 109:../../libdaisy/src/dev/oled_ssd130x.h ****     {
 599              		.loc 5 109 10 is_stmt 1 view .LVU171
 600              	.LBB384:
 111:../../libdaisy/src/dev/oled_ssd130x.h ****         spi_.BlockingTransmit(&cmd, 1);
 601              		.loc 5 111 9 view .LVU172
 111:../../libdaisy/src/dev/oled_ssd130x.h ****         spi_.BlockingTransmit(&cmd, 1);
 602              		.loc 5 111 23 is_stmt 0 view .LVU173
 603 0110 FFF7FEFF 		bl	dsy_gpio_write
 604              	.LVL36:
 112:../../libdaisy/src/dev/oled_ssd130x.h ****     };
 605              		.loc 5 112 9 is_stmt 1 view .LVU174
 112:../../libdaisy/src/dev/oled_ssd130x.h ****     };
 606              		.loc 5 112 30 is_stmt 0 view .LVU175
 607 0114 6423     		movs	r3, #100
 608 0116 0122     		movs	r2, #1
 609 0118 3946     		mov	r1, r7
 610 011a 4046     		mov	r0, r8
 611 011c FFF7FEFF 		bl	_ZN5daisy9SpiHandle16BlockingTransmitEPhjm
 612              	.LVL37:
 112:../../libdaisy/src/dev/oled_ssd130x.h ****     };
 613              		.loc 5 112 30 view .LVU176
 614              	.LBE384:
 615              	.LBE382:
 616              	.LBB385:
 617              	.LBI385:
 115:../../libdaisy/src/dev/oled_ssd130x.h ****     {
 618              		.loc 5 115 10 is_stmt 1 view .LVU177
 619              	.LBB386:
 117:../../libdaisy/src/dev/oled_ssd130x.h ****         spi_.BlockingTransmit(buff, size);
 620              		.loc 5 117 9 view .LVU178
 117:../../libdaisy/src/dev/oled_ssd130x.h ****         spi_.BlockingTransmit(buff, size);
 621              		.loc 5 117 23 is_stmt 0 view .LVU179
 622 0120 0121     		movs	r1, #1
 623 0122 2046     		mov	r0, r4
 624 0124 FFF7FEFF 		bl	dsy_gpio_write
 625              	.LVL38:
 118:../../libdaisy/src/dev/oled_ssd130x.h ****     };
 626              		.loc 5 118 9 is_stmt 1 view .LVU180
 118:../../libdaisy/src/dev/oled_ssd130x.h ****     };
 627              		.loc 5 118 30 is_stmt 0 view .LVU181
 628 0128 8022     		movs	r2, #128
 629 012a 2946     		mov	r1, r5
 630 012c 6423     		movs	r3, #100
 631 012e 4046     		mov	r0, r8
 632              	.LBE386:
 633              	.LBE385:
 634              		.loc 5 270 22 view .LVU182
 635 0130 1544     		add	r5, r5, r2
 636              	.LVL39:
 637              	.LBB388:
 638              	.LBB387:
 118:../../libdaisy/src/dev/oled_ssd130x.h ****     };
 639              		.loc 5 118 30 view .LVU183
 640 0132 FFF7FEFF 		bl	_ZN5daisy9SpiHandle16BlockingTransmitEPhjm
 641              	.LVL40:
 118:../../libdaisy/src/dev/oled_ssd130x.h ****     };
ARM GAS  C:\Users\VINCIU~1\AppData\Local\Temp\ccnesEGk.s 			page 23


 642              		.loc 5 118 30 view .LVU184
 643              	.LBE387:
 644              	.LBE388:
 645              		.loc 5 270 9 is_stmt 1 view .LVU185
 646              		.loc 5 270 22 view .LVU186
 647 0136 B82E     		cmp	r6, #184
 648 0138 C9D1     		bne	.L15
 649              	.LBE371:
 650              	.LBE370:
 651              	.LBE369:
 123:Menus.cpp     ****         }
 124:Menus.cpp     ****     }
 125:Menus.cpp     ****     screen.Update();
 126:Menus.cpp     **** }
 652              		.loc 2 126 1 is_stmt 0 view .LVU187
 653 013a 0DF5105D 		add	sp, sp, #9216
 654 013e 03B0     		add	sp, sp, #12
 655              		.cfi_def_cfa_offset 36
 656              		@ sp needed
 657 0140 BDE8F08F 		pop	{r4, r5, r6, r7, r8, r9, r10, fp, pc}
 658              	.LVL41:
 659              	.L25:
 660              		.loc 2 126 1 view .LVU188
 661              		.align	2
 662              	.L24:
 663 0144 00000000 		.word	.LANCHOR0
 664              		.cfi_endproc
 665              	.LFE4037:
 667              		.section	.text._ZN5Menus10WaveSelectEf,"ax",%progbits
 668              		.align	1
 669              		.p2align 2,,3
 670              		.global	_ZN5Menus10WaveSelectEf
 671              		.syntax unified
 672              		.thumb
 673              		.thumb_func
 674              		.fpu fpv5-d16
 676              	_ZN5Menus10WaveSelectEf:
 677              	.LVL42:
 678              	.LFB4038:
 127:Menus.cpp     **** 
 128:Menus.cpp     **** 
 129:Menus.cpp     **** int Menus::WaveSelect(float select)
 130:Menus.cpp     **** {
 679              		.loc 2 130 1 is_stmt 1 view -0
 680              		.cfi_startproc
 681              		@ args = 0, pretend = 0, frame = 0
 682              		@ frame_needed = 0, uses_anonymous_args = 0
 683              		@ link register save eliminated.
 131:Menus.cpp     ****     this->stateWave += this->encoderRight.Increment();
 684              		.loc 2 131 5 view .LVU190
 685              		.loc 2 131 21 is_stmt 0 view .LVU191
 686 0000 D0F88431 		ldr	r3, [r0, #388]
 130:Menus.cpp     ****     this->stateWave += this->encoderRight.Increment();
 687              		.loc 2 130 1 view .LVU192
 688 0004 0246     		mov	r2, r0
 689              	.LVL43:
 690              	.LBB389:
ARM GAS  C:\Users\VINCIU~1\AppData\Local\Temp\ccnesEGk.s 			page 24


 691              	.LBI389:
  21:../../libdaisy/src/hid/encoder.h ****     ~Encoder() {}
  22:../../libdaisy/src/hid/encoder.h **** 
  23:../../libdaisy/src/hid/encoder.h ****     /** Initializes the encoder with the specified hardware pins.
  24:../../libdaisy/src/hid/encoder.h **** */
  25:../../libdaisy/src/hid/encoder.h ****     //
  26:../../libdaisy/src/hid/encoder.h ****     /** Update rate should be the rate at which Debounce() gets called
  27:../../libdaisy/src/hid/encoder.h **** in Hertz.
  28:../../libdaisy/src/hid/encoder.h **** */
  29:../../libdaisy/src/hid/encoder.h ****     //
  30:../../libdaisy/src/hid/encoder.h ****     void
  31:../../libdaisy/src/hid/encoder.h ****     Init(dsy_gpio_pin a, dsy_gpio_pin b, dsy_gpio_pin click, float update_rate);
  32:../../libdaisy/src/hid/encoder.h ****     /** Called at update_rate to debounce and handle timing for the switch.
  33:../../libdaisy/src/hid/encoder.h **** */
  34:../../libdaisy/src/hid/encoder.h ****     //
  35:../../libdaisy/src/hid/encoder.h ****     /** In order for events not to be missed, its important that the Edge/Pressed checks
  36:../../libdaisy/src/hid/encoder.h **** be made at the same rate as the debounce function is being called.
  37:../../libdaisy/src/hid/encoder.h **** */
  38:../../libdaisy/src/hid/encoder.h ****     void Debounce();
  39:../../libdaisy/src/hid/encoder.h ****     /** Returns +1 if the encoder was turned clockwise, -1 if it was turned counter-clockwise, or 0
  40:../../libdaisy/src/hid/encoder.h **** */
  41:../../libdaisy/src/hid/encoder.h ****     inline int32_t Increment() const { return inc_; }
 692              		.loc 3 41 20 is_stmt 1 view .LVU193
 693              	.LBB390:
 694              		.loc 3 41 40 view .LVU194
 695              		.loc 3 41 40 is_stmt 0 view .LVU195
 696              	.LBE390:
 697              	.LBE389:
 698              		.loc 2 131 21 view .LVU196
 699 0006 806C     		ldr	r0, [r0, #72]
 700              	.LVL44:
 701              		.loc 2 131 21 view .LVU197
 702 0008 1844     		add	r0, r0, r3
 132:Menus.cpp     ****     int state;
 703              		.loc 2 132 5 is_stmt 1 view .LVU198
 133:Menus.cpp     ****     if(this->stateWave > 3)
 704              		.loc 2 133 5 view .LVU199
 705 000a 0328     		cmp	r0, #3
 706 000c 04DD     		ble	.L27
 134:Menus.cpp     ****     {
 135:Menus.cpp     ****         this->stateWave = 3;
 707              		.loc 2 135 9 view .LVU200
 708              		.loc 2 135 25 is_stmt 0 view .LVU201
 709 000e 0323     		movs	r3, #3
 136:Menus.cpp     ****     }
 137:Menus.cpp     ****     if(this->stateWave < 0)
 138:Menus.cpp     ****     {
 139:Menus.cpp     ****         this->stateWave = 0;
 140:Menus.cpp     ****     }
 141:Menus.cpp     **** 
 142:Menus.cpp     ****     if(this->stateWave == 0)
 143:Menus.cpp     ****     {
 144:Menus.cpp     ****         state = 0;
 145:Menus.cpp     ****         return state;
 146:Menus.cpp     ****     }
 147:Menus.cpp     ****     else if(this->stateWave == 1)
 148:Menus.cpp     ****     {
ARM GAS  C:\Users\VINCIU~1\AppData\Local\Temp\ccnesEGk.s 			page 25


 149:Menus.cpp     ****         state = 1;
 150:Menus.cpp     ****         return state;
 151:Menus.cpp     ****     }
 152:Menus.cpp     ****     else if(this->stateWave == 2)
 153:Menus.cpp     ****     {
 154:Menus.cpp     ****         state = 2;
 155:Menus.cpp     ****         return state;
 156:Menus.cpp     ****     }
 157:Menus.cpp     ****     else if(this->stateWave == 3)
 158:Menus.cpp     ****     {
 159:Menus.cpp     ****         state = 3;
 160:Menus.cpp     ****         return state;
 710              		.loc 2 160 16 view .LVU202
 711 0010 1846     		mov	r0, r3
 135:Menus.cpp     ****     }
 712              		.loc 2 135 25 view .LVU203
 713 0012 C2F88431 		str	r3, [r2, #388]
 137:Menus.cpp     ****     {
 714              		.loc 2 137 5 is_stmt 1 view .LVU204
 142:Menus.cpp     ****     {
 715              		.loc 2 142 5 view .LVU205
 147:Menus.cpp     ****     {
 716              		.loc 2 147 10 view .LVU206
 717 0016 7047     		bx	lr
 718              	.L27:
 137:Menus.cpp     ****     {
 719              		.loc 2 137 5 view .LVU207
 720 0018 0028     		cmp	r0, #0
 721 001a 04DA     		bge	.L29
 139:Menus.cpp     ****     }
 722              		.loc 2 139 9 view .LVU208
 139:Menus.cpp     ****     }
 723              		.loc 2 139 25 is_stmt 0 view .LVU209
 724 001c 0023     		movs	r3, #0
 145:Menus.cpp     ****     }
 725              		.loc 2 145 16 view .LVU210
 726 001e 1846     		mov	r0, r3
 139:Menus.cpp     ****     }
 727              		.loc 2 139 25 view .LVU211
 728 0020 C2F88431 		str	r3, [r2, #388]
 142:Menus.cpp     ****     {
 729              		.loc 2 142 5 is_stmt 1 view .LVU212
 730 0024 7047     		bx	lr
 731              	.L29:
 131:Menus.cpp     ****     int state;
 732              		.loc 2 131 21 is_stmt 0 view .LVU213
 733 0026 C2F88401 		str	r0, [r2, #388]
 142:Menus.cpp     ****     {
 734              		.loc 2 142 5 is_stmt 1 view .LVU214
 735 002a 04D0     		beq	.L26
 147:Menus.cpp     ****     {
 736              		.loc 2 147 10 view .LVU215
 737 002c 0128     		cmp	r0, #1
 738 002e 02D0     		beq	.L26
 152:Menus.cpp     ****     {
 739              		.loc 2 152 10 view .LVU216
 740              		.loc 2 160 16 is_stmt 0 view .LVU217
ARM GAS  C:\Users\VINCIU~1\AppData\Local\Temp\ccnesEGk.s 			page 26


 741 0030 0228     		cmp	r0, #2
 742 0032 18BF     		it	ne
 743 0034 0320     		movne	r0, #3
 744              	.L26:
 161:Menus.cpp     ****     }
 162:Menus.cpp     **** }
 745              		.loc 2 162 1 view .LVU218
 746 0036 7047     		bx	lr
 747              		.cfi_endproc
 748              	.LFE4038:
 750              		.section	.text._ZN5Menus9OscSelectEf,"ax",%progbits
 751              		.align	1
 752              		.p2align 2,,3
 753              		.global	_ZN5Menus9OscSelectEf
 754              		.syntax unified
 755              		.thumb
 756              		.thumb_func
 757              		.fpu fpv5-d16
 759              	_ZN5Menus9OscSelectEf:
 760              	.LVL45:
 761              	.LFB4039:
 163:Menus.cpp     **** 
 164:Menus.cpp     **** bool Menus::OscSelect(float select)
 165:Menus.cpp     **** {
 762              		.loc 2 165 1 is_stmt 1 view -0
 763              		.cfi_startproc
 764              		@ args = 0, pretend = 0, frame = 0
 765              		@ frame_needed = 0, uses_anonymous_args = 0
 766              		@ link register save eliminated.
 166:Menus.cpp     ****     this->state += this->encoderRight.Increment();
 767              		.loc 2 166 5 view .LVU220
 768              		.loc 2 166 17 is_stmt 0 view .LVU221
 769 0000 D0F88021 		ldr	r2, [r0, #384]
 165:Menus.cpp     ****     this->state += this->encoderRight.Increment();
 770              		.loc 2 165 1 view .LVU222
 771 0004 0346     		mov	r3, r0
 772              	.LVL46:
 773              	.LBB391:
 774              	.LBI391:
 775              		.loc 3 41 20 is_stmt 1 view .LVU223
 776              	.LBB392:
 777              		.loc 3 41 40 view .LVU224
 778              		.loc 3 41 40 is_stmt 0 view .LVU225
 779              	.LBE392:
 780              	.LBE391:
 781              		.loc 2 166 17 view .LVU226
 782 0006 816C     		ldr	r1, [r0, #72]
 783 0008 0A44     		add	r2, r2, r1
 167:Menus.cpp     ****     if(this->state > 1)
 784              		.loc 2 167 5 is_stmt 1 view .LVU227
 785 000a 012A     		cmp	r2, #1
 786 000c 04DD     		ble	.L39
 787              	.L35:
 168:Menus.cpp     ****     {
 169:Menus.cpp     ****         this->state = 1;
 170:Menus.cpp     ****     }
 171:Menus.cpp     ****     if(this->state < 0)
ARM GAS  C:\Users\VINCIU~1\AppData\Local\Temp\ccnesEGk.s 			page 27


 172:Menus.cpp     ****     {
 173:Menus.cpp     ****         this->state = 0;
 174:Menus.cpp     ****     }
 175:Menus.cpp     **** 
 176:Menus.cpp     **** 
 177:Menus.cpp     ****     if(this->state == 1)
 178:Menus.cpp     ****     {
 179:Menus.cpp     ****         state = true;
 788              		.loc 2 179 15 is_stmt 0 view .LVU228
 789 000e 0122     		movs	r2, #1
 180:Menus.cpp     ****         return state;
 790              		.loc 2 180 16 view .LVU229
 791 0010 1046     		mov	r0, r2
 792              	.LVL47:
 793              		.loc 2 180 16 view .LVU230
 794 0012 C3F88021 		str	r2, [r3, #384]
 181:Menus.cpp     ****     }
 182:Menus.cpp     ****     else
 183:Menus.cpp     ****     {
 184:Menus.cpp     ****         state = false;
 185:Menus.cpp     ****         return state;
 186:Menus.cpp     ****     }
 187:Menus.cpp     **** }
 795              		.loc 2 187 1 view .LVU231
 796 0016 7047     		bx	lr
 797              	.LVL48:
 798              	.L39:
 171:Menus.cpp     ****     {
 799              		.loc 2 171 5 is_stmt 1 view .LVU232
 800 0018 002A     		cmp	r2, #0
 801 001a 04DA     		bge	.L40
 802              	.L38:
 184:Menus.cpp     ****         return state;
 803              		.loc 2 184 15 is_stmt 0 view .LVU233
 804 001c 0022     		movs	r2, #0
 185:Menus.cpp     ****     }
 805              		.loc 2 185 16 view .LVU234
 806 001e 1046     		mov	r0, r2
 807              	.LVL49:
 185:Menus.cpp     ****     }
 808              		.loc 2 185 16 view .LVU235
 809 0020 C3F88021 		str	r2, [r3, #384]
 810              		.loc 2 187 1 view .LVU236
 811 0024 7047     		bx	lr
 812              	.LVL50:
 813              	.L40:
 177:Menus.cpp     ****     {
 814              		.loc 2 177 5 view .LVU237
 815 0026 012A     		cmp	r2, #1
 166:Menus.cpp     ****     if(this->state > 1)
 816              		.loc 2 166 17 view .LVU238
 817 0028 C0F88021 		str	r2, [r0, #384]
 177:Menus.cpp     ****     {
 818              		.loc 2 177 5 is_stmt 1 view .LVU239
 819 002c EFD0     		beq	.L35
 820 002e F5E7     		b	.L38
 821              		.cfi_endproc
ARM GAS  C:\Users\VINCIU~1\AppData\Local\Temp\ccnesEGk.s 			page 28


 822              	.LFE4039:
 824              		.section	.text._ZN5Menus5Menu4E23OledDisplayExtravaganzaPN7daisysp10OscillatorERNS1_4AdsrE,"ax",%p
 825              		.align	1
 826              		.p2align 2,,3
 827              		.global	_ZN5Menus5Menu4E23OledDisplayExtravaganzaPN7daisysp10OscillatorERNS1_4AdsrE
 828              		.syntax unified
 829              		.thumb
 830              		.thumb_func
 831              		.fpu fpv5-d16
 833              	_ZN5Menus5Menu4E23OledDisplayExtravaganzaPN7daisysp10OscillatorERNS1_4AdsrE:
 834              	.LVL51:
 835              	.LFB4043:
 188:Menus.cpp     **** 
 189:Menus.cpp     **** void Menus::Menu1(OledDisplayExtravaganza screen, daisysp::Oscillator osc[])
 190:Menus.cpp     **** 
 191:Menus.cpp     **** {
 192:Menus.cpp     ****     screen.Fill(!on);
 193:Menus.cpp     ****     if(this->buttonLeft.RisingEdge())
 194:Menus.cpp     **** 
 195:Menus.cpp     ****     {
 196:Menus.cpp     ****         menuState = menuState - 1;
 197:Menus.cpp     ****         if(menuState < 0)
 198:Menus.cpp     ****         {
 199:Menus.cpp     ****             menuState = 3;
 200:Menus.cpp     ****         }
 201:Menus.cpp     ****     }
 202:Menus.cpp     ****     if(this->buttonRight.RisingEdge())
 203:Menus.cpp     **** 
 204:Menus.cpp     ****     {
 205:Menus.cpp     ****         menuState = menuState + 1;
 206:Menus.cpp     ****         if(menuState > 3)
 207:Menus.cpp     ****         {
 208:Menus.cpp     ****             menuState = 0;
 209:Menus.cpp     ****         }
 210:Menus.cpp     ****     }
 211:Menus.cpp     **** 
 212:Menus.cpp     ****     screen.drawHorizontalToggle(46, 13, 8, on, this->OscSelector, "");
 213:Menus.cpp     **** 
 214:Menus.cpp     ****     if(this->OscSelector == true)
 215:Menus.cpp     ****     {
 216:Menus.cpp     ****         screen.drawSlider(70, 7, 50, 3, on, ((this->drawSliderSemi)) / 40);
 217:Menus.cpp     ****         screen.drawSlider(70, 40, 50, 3, on, drawSliderFine);
 218:Menus.cpp     ****         screen.drawVerticalToggle(13, 51, 8, on, this->toggleOsc, "");
 219:Menus.cpp     ****         screen.WaveIcons(35, 42, 55, this->selectedWave, on);
 220:Menus.cpp     ****         screen.SetCursor(70, 17);
 221:Menus.cpp     ****         screen.WriteString(this->buff, Font_6x8, true);
 222:Menus.cpp     ****         screen.SetCursor(70, 50);
 223:Menus.cpp     ****         screen.WriteString(this->buffFine, Font_6x8, true);
 224:Menus.cpp     ****     }
 225:Menus.cpp     ****     else
 226:Menus.cpp     ****     {
 227:Menus.cpp     ****         screen.drawSlider(70, 7, 50, 3, false, (this->drawSliderSemi2) / 40);
 228:Menus.cpp     ****         screen.drawSlider(70, 40, 50, 3, false, drawSliderFine2);
 229:Menus.cpp     ****         screen.drawVerticalToggle(13, 51, 8, false, this->toggleOsc2, "");
 230:Menus.cpp     ****         screen.WaveIcons(35, 42, 55, this->selectedWave2, false);
 231:Menus.cpp     ****         screen.SetCursor(70, 17);
 232:Menus.cpp     ****         screen.WriteString(this->buff2, Font_6x8, false);
ARM GAS  C:\Users\VINCIU~1\AppData\Local\Temp\ccnesEGk.s 			page 29


 233:Menus.cpp     ****         screen.SetCursor(70, 50);
 234:Menus.cpp     ****         screen.WriteString(this->buffFine2, Font_6x8, false);
 235:Menus.cpp     ****     }
 236:Menus.cpp     **** 
 237:Menus.cpp     **** 
 238:Menus.cpp     ****     screen.SetCursor(4, 8);
 239:Menus.cpp     ****     screen.WriteString("Osc", Font_7x10, on);
 240:Menus.cpp     **** 
 241:Menus.cpp     **** 
 242:Menus.cpp     ****     for(int i = 0; i < screen.Width(); i++)
 243:Menus.cpp     ****     {
 244:Menus.cpp     ****         screen.DrawPixel(i * 3, (screen.Height() / 2) - 3, on);
 245:Menus.cpp     ****     }
 246:Menus.cpp     ****     for(int i = 0; i < screen.Height(); i++)
 247:Menus.cpp     ****     {
 248:Menus.cpp     ****         screen.DrawPixel(60, i * 2, on);
 249:Menus.cpp     ****     }
 250:Menus.cpp     ****     for(int i = screen.Height() / 4 - 1; i < screen.Height(); i++)
 251:Menus.cpp     ****     {
 252:Menus.cpp     ****         screen.DrawPixel(29, i * 2, on);
 253:Menus.cpp     ****     }
 254:Menus.cpp     **** 
 255:Menus.cpp     ****     if(encoderLeft.RisingEdge())
 256:Menus.cpp     ****     {
 257:Menus.cpp     ****         this->OscSelector = !this->OscSelector;
 258:Menus.cpp     ****         on                = this->OscSelector;
 259:Menus.cpp     ****     }
 260:Menus.cpp     ****     else if(menuState == 0)
 261:Menus.cpp     ****     {
 262:Menus.cpp     ****         if(this->OscSelector == true)
 263:Menus.cpp     ****         {
 264:Menus.cpp     ****             if(this->noteSemiAdd > 32)
 265:Menus.cpp     ****             {
 266:Menus.cpp     ****                 this->noteSemiAdd = 32;
 267:Menus.cpp     ****             }
 268:Menus.cpp     ****             if(this->noteSemiAdd < 0)
 269:Menus.cpp     ****             {
 270:Menus.cpp     ****                 this->noteSemiAdd = 0;
 271:Menus.cpp     ****             }
 272:Menus.cpp     ****             if(this->drawSliderSemi >= 40)
 273:Menus.cpp     ****             {
 274:Menus.cpp     ****                 this->drawSliderSemi = 40;
 275:Menus.cpp     ****             }
 276:Menus.cpp     ****             if(this->drawSliderSemi < 0)
 277:Menus.cpp     ****             {
 278:Menus.cpp     ****                 this->drawSliderSemi = 0;
 279:Menus.cpp     ****             }
 280:Menus.cpp     ****             this->noteSemiAdd += this->encoderRight.Increment();
 281:Menus.cpp     ****             this->drawSliderSemi
 282:Menus.cpp     ****                 += (((float)this->encoderRight.Increment()) / 32) * 40;
 283:Menus.cpp     ****             sprintf(this->buff, "Semi_%dst", this->noteSemiAdd);
 284:Menus.cpp     ****         }
 285:Menus.cpp     ****         else
 286:Menus.cpp     ****         {
 287:Menus.cpp     ****             if(this->noteSemiAdd2 > 32)
 288:Menus.cpp     ****             {
 289:Menus.cpp     ****                 this->noteSemiAdd2 = 32;
ARM GAS  C:\Users\VINCIU~1\AppData\Local\Temp\ccnesEGk.s 			page 30


 290:Menus.cpp     ****             }
 291:Menus.cpp     ****             if(this->noteSemiAdd2 < 0)
 292:Menus.cpp     ****             {
 293:Menus.cpp     ****                 this->noteSemiAdd2 = 0;
 294:Menus.cpp     ****             }
 295:Menus.cpp     ****             if(this->drawSliderSemi2 >= 40)
 296:Menus.cpp     ****             {
 297:Menus.cpp     ****                 this->drawSliderSemi2 = 40;
 298:Menus.cpp     ****             }
 299:Menus.cpp     ****             if(this->drawSliderSemi2 < 0)
 300:Menus.cpp     ****             {
 301:Menus.cpp     ****                 this->drawSliderSemi2 = 0;
 302:Menus.cpp     ****             }
 303:Menus.cpp     ****             this->noteSemiAdd2 += (float)this->encoderRight.Increment();
 304:Menus.cpp     ****             this->drawSliderSemi2
 305:Menus.cpp     ****                 += (((float)this->encoderRight.Increment()) / 32) * 40;
 306:Menus.cpp     ****             sprintf(this->buff2, "Semi_%dst", this->noteSemiAdd2);
 307:Menus.cpp     ****         }
 308:Menus.cpp     **** 
 309:Menus.cpp     **** 
 310:Menus.cpp     ****         screen.DrawRect(
 311:Menus.cpp     ****             60, 0, screen.Width() - 1, screen.Height() / 2 - 3, on, false);
 312:Menus.cpp     ****     }
 313:Menus.cpp     ****     else if(menuState == 1)
 314:Menus.cpp     ****     {
 315:Menus.cpp     ****         if(this->OscSelector == true)
 316:Menus.cpp     **** 
 317:Menus.cpp     ****         {
 318:Menus.cpp     ****             if(this->encoderRight.Increment() == 1)
 319:Menus.cpp     ****             {
 320:Menus.cpp     ****                 synthOn         = 1;
 321:Menus.cpp     ****                 this->toggleOsc = false;
 322:Menus.cpp     ****             }
 323:Menus.cpp     ****             if(this->encoderRight.Increment() == -1)
 324:Menus.cpp     ****             {
 325:Menus.cpp     ****                 synthOn         = 0;
 326:Menus.cpp     ****                 this->toggleOsc = true;
 327:Menus.cpp     ****             }
 328:Menus.cpp     ****         }
 329:Menus.cpp     ****         else
 330:Menus.cpp     ****         {
 331:Menus.cpp     ****             if(this->encoderRight.Increment() == 1)
 332:Menus.cpp     ****             {
 333:Menus.cpp     ****                 synthOn2         = 1;
 334:Menus.cpp     ****                 this->toggleOsc2 = false;
 335:Menus.cpp     ****             }
 336:Menus.cpp     ****             if(this->encoderRight.Increment() == -1)
 337:Menus.cpp     ****             {
 338:Menus.cpp     ****                 synthOn2         = 0;
 339:Menus.cpp     ****                 this->toggleOsc2 = true;
 340:Menus.cpp     ****             }
 341:Menus.cpp     ****         }
 342:Menus.cpp     **** 
 343:Menus.cpp     ****         screen.DrawRect(
 344:Menus.cpp     ****             0, screen.Height() / 2 - 3, 29, screen.Height() - 1, on, false);
 345:Menus.cpp     ****     }
 346:Menus.cpp     ****     else if(menuState == 2)
ARM GAS  C:\Users\VINCIU~1\AppData\Local\Temp\ccnesEGk.s 			page 31


 347:Menus.cpp     ****     {
 348:Menus.cpp     ****         if(this->OscSelector == true)
 349:Menus.cpp     ****         {
 350:Menus.cpp     ****             this->setWave += this->encoderRight.Increment();
 351:Menus.cpp     ****             if(setWave > 3)
 352:Menus.cpp     ****             {
 353:Menus.cpp     ****                 this->setWave = 3;
 354:Menus.cpp     ****             }
 355:Menus.cpp     ****             if(this->setWave < 0)
 356:Menus.cpp     ****             {
 357:Menus.cpp     ****                 this->setWave = 0;
 358:Menus.cpp     ****             }
 359:Menus.cpp     ****             if(this->setWave == 0)
 360:Menus.cpp     ****             {
 361:Menus.cpp     ****                 for(int i = 0; i < 2; i++)
 362:Menus.cpp     ****                 {
 363:Menus.cpp     ****                     selectedWave = setWave;
 364:Menus.cpp     ****                     osc[0].SetWaveform(osc[0].WAVE_SIN);
 365:Menus.cpp     ****                 }
 366:Menus.cpp     ****             }
 367:Menus.cpp     ****             else if(setWave == 1)
 368:Menus.cpp     ****             {
 369:Menus.cpp     ****                 for(int i = 0; i < 2; i++)
 370:Menus.cpp     ****                 {
 371:Menus.cpp     ****                     selectedWave = setWave;
 372:Menus.cpp     ****                     osc[0].SetWaveform(osc[0].WAVE_TRI);
 373:Menus.cpp     ****                 }
 374:Menus.cpp     ****             }
 375:Menus.cpp     ****             else if(setWave == 2)
 376:Menus.cpp     ****             {
 377:Menus.cpp     ****                 for(int i = 0; i < 2; i++)
 378:Menus.cpp     ****                 {
 379:Menus.cpp     ****                     selectedWave = setWave;
 380:Menus.cpp     ****                     osc[0].SetWaveform(osc[0].WAVE_SQUARE);
 381:Menus.cpp     ****                 }
 382:Menus.cpp     ****             }
 383:Menus.cpp     ****             else if(setWave == 3)
 384:Menus.cpp     ****             {
 385:Menus.cpp     ****                 for(int i = 0; i < 2; i++)
 386:Menus.cpp     ****                 {
 387:Menus.cpp     ****                     selectedWave = setWave;
 388:Menus.cpp     ****                     osc[0].SetWaveform(osc[0].WAVE_SAW);
 389:Menus.cpp     ****                 }
 390:Menus.cpp     ****             }
 391:Menus.cpp     ****         }
 392:Menus.cpp     ****         {
 393:Menus.cpp     ****             if(this->OscSelector == false)
 394:Menus.cpp     ****             {
 395:Menus.cpp     ****                 if(setWave2 > 3)
 396:Menus.cpp     ****                 {
 397:Menus.cpp     ****                     this->setWave2 = 3;
 398:Menus.cpp     ****                 }
 399:Menus.cpp     ****                 if(this->setWave2 < 0)
 400:Menus.cpp     ****                 {
 401:Menus.cpp     ****                     this->setWave2 = 0;
 402:Menus.cpp     ****                 }
 403:Menus.cpp     ****                 this->setWave2 += this->encoderRight.Increment();
ARM GAS  C:\Users\VINCIU~1\AppData\Local\Temp\ccnesEGk.s 			page 32


 404:Menus.cpp     ****                 if(setWave2 > 3)
 405:Menus.cpp     ****                 {
 406:Menus.cpp     ****                     this->setWave2 = 3;
 407:Menus.cpp     ****                 }
 408:Menus.cpp     ****                 if(this->setWave2 < 0)
 409:Menus.cpp     ****                 {
 410:Menus.cpp     ****                     this->setWave2 = 0;
 411:Menus.cpp     ****                 }
 412:Menus.cpp     ****                 if(this->setWave2 == 0)
 413:Menus.cpp     ****                 {
 414:Menus.cpp     ****                     for(int i = 0; i < 2; i++)
 415:Menus.cpp     ****                     {
 416:Menus.cpp     ****                         selectedWave2 = setWave2;
 417:Menus.cpp     ****                         osc[1].SetWaveform(osc[1].WAVE_SIN);
 418:Menus.cpp     ****                     }
 419:Menus.cpp     ****                 }
 420:Menus.cpp     ****                 else if(setWave2 == 1)
 421:Menus.cpp     ****                 {
 422:Menus.cpp     ****                     for(int i = 0; i < 2; i++)
 423:Menus.cpp     ****                     {
 424:Menus.cpp     ****                         selectedWave2 = setWave2;
 425:Menus.cpp     ****                         osc[1].SetWaveform(osc[1].WAVE_TRI);
 426:Menus.cpp     ****                     }
 427:Menus.cpp     ****                 }
 428:Menus.cpp     ****                 else if(setWave2 == 2)
 429:Menus.cpp     ****                 {
 430:Menus.cpp     ****                     for(int i = 0; i < 2; i++)
 431:Menus.cpp     ****                     {
 432:Menus.cpp     ****                         selectedWave2 = setWave2;
 433:Menus.cpp     ****                         osc[1].SetWaveform(osc[1].WAVE_SQUARE);
 434:Menus.cpp     ****                     }
 435:Menus.cpp     ****                 }
 436:Menus.cpp     ****                 else if(setWave2 == 3)
 437:Menus.cpp     ****                 {
 438:Menus.cpp     ****                     for(int i = 0; i < 2; i++)
 439:Menus.cpp     ****                     {
 440:Menus.cpp     ****                         selectedWave2 = setWave2;
 441:Menus.cpp     ****                         osc[1].SetWaveform(osc[1].WAVE_SAW);
 442:Menus.cpp     ****                     }
 443:Menus.cpp     ****                 }
 444:Menus.cpp     ****             }
 445:Menus.cpp     **** 
 446:Menus.cpp     **** 
 447:Menus.cpp     ****             screen.DrawRect(29,
 448:Menus.cpp     ****                             screen.Height() / 2 - 3,
 449:Menus.cpp     ****                             60,
 450:Menus.cpp     ****                             screen.Height() - 1,
 451:Menus.cpp     ****                             on,
 452:Menus.cpp     ****                             false);
 453:Menus.cpp     ****         }
 454:Menus.cpp     ****     }
 455:Menus.cpp     ****     else if(menuState == 3)
 456:Menus.cpp     ****     {
 457:Menus.cpp     ****         /*  this->noteSemiAdd
 458:Menus.cpp     ****                 += (((float)this->encoderRight.Increment()) / 32) * 40;
 459:Menus.cpp     ****             this->drawSliderSemi
 460:Menus.cpp     ****                 += ((float)this->encoderRight.Increment()) / 32; */
ARM GAS  C:\Users\VINCIU~1\AppData\Local\Temp\ccnesEGk.s 			page 33


 461:Menus.cpp     **** 
 462:Menus.cpp     **** 
 463:Menus.cpp     ****         if(this->OscSelector == true)
 464:Menus.cpp     ****         {
 465:Menus.cpp     ****             if(this->freqFine >= 1)
 466:Menus.cpp     ****             {
 467:Menus.cpp     ****                 this->freqFine = 1;
 468:Menus.cpp     ****             }
 469:Menus.cpp     ****             if(this->freqFine < 0)
 470:Menus.cpp     ****             {
 471:Menus.cpp     ****                 this->freqFine = 0;
 472:Menus.cpp     ****             }
 473:Menus.cpp     ****             if(this->drawSliderFine >= 1)
 474:Menus.cpp     ****             {
 475:Menus.cpp     ****                 this->drawSliderFine = 1;
 476:Menus.cpp     ****             }
 477:Menus.cpp     ****             if(this->drawSliderFine < 0)
 478:Menus.cpp     ****             {
 479:Menus.cpp     ****                 this->drawSliderFine = 0;
 480:Menus.cpp     ****             }
 481:Menus.cpp     **** 
 482:Menus.cpp     ****             this->freqFine += (((float)this->encoderRight.Increment()) / 32);
 483:Menus.cpp     ****             this->drawSliderFine
 484:Menus.cpp     ****                 += (((float)this->encoderRight.Increment()) / 32);
 485:Menus.cpp     ****             sprintf(this->buffFine, "Fine_%d%%", (int)(freqFine * 100));
 486:Menus.cpp     ****         }
 487:Menus.cpp     ****         else
 488:Menus.cpp     ****         {
 489:Menus.cpp     ****             if(this->freqFine2 > 1)
 490:Menus.cpp     ****             {
 491:Menus.cpp     ****                 this->freqFine2 = 1;
 492:Menus.cpp     ****             }
 493:Menus.cpp     ****             if(this->freqFine2 < 0)
 494:Menus.cpp     ****             {
 495:Menus.cpp     ****                 this->freqFine2 = 0;
 496:Menus.cpp     ****             }
 497:Menus.cpp     ****             if(this->drawSliderFine2 >= 1)
 498:Menus.cpp     ****             {
 499:Menus.cpp     ****                 this->drawSliderFine2 = 1;
 500:Menus.cpp     ****             }
 501:Menus.cpp     ****             if(this->drawSliderFine2 < 0)
 502:Menus.cpp     ****             {
 503:Menus.cpp     ****                 this->drawSliderFine2 = 0;
 504:Menus.cpp     ****             }
 505:Menus.cpp     **** 
 506:Menus.cpp     ****             this->freqFine2 += (((float)this->encoderRight.Increment()) / 32);
 507:Menus.cpp     ****             this->drawSliderFine2
 508:Menus.cpp     ****                 += (((float)this->encoderRight.Increment()) / 32);
 509:Menus.cpp     ****             sprintf(this->buffFine2, "Fine_%d%%", (int)(freqFine2 * 100));
 510:Menus.cpp     ****         }
 511:Menus.cpp     **** 
 512:Menus.cpp     ****         screen.DrawRect(60,
 513:Menus.cpp     ****                         screen.Height() / 2 - 3,
 514:Menus.cpp     ****                         screen.Width() - 1,
 515:Menus.cpp     ****                         screen.Height() - 1,
 516:Menus.cpp     ****                         on,
 517:Menus.cpp     ****                         false);
ARM GAS  C:\Users\VINCIU~1\AppData\Local\Temp\ccnesEGk.s 			page 34


 518:Menus.cpp     ****     }
 519:Menus.cpp     ****     //noteCross            = noteCross + (this->drawSliderSemi * 100);
 520:Menus.cpp     ****     screen.Update();
 521:Menus.cpp     **** }
 522:Menus.cpp     **** 
 523:Menus.cpp     **** void Menus::Menu2(OledDisplayExtravaganza screen, daisysp::Oscillator osc[])
 524:Menus.cpp     **** {
 525:Menus.cpp     ****     screen.Fill(false);
 526:Menus.cpp     ****     float margin = 10;
 527:Menus.cpp     ****     float glideInit;
 528:Menus.cpp     ****     float offset = (screen.Height() / 4);
 529:Menus.cpp     ****     glideInit    = (offset + (this->analogRead * screen.Height() * 0.625));
 530:Menus.cpp     ****     for(int i = 0; i < screen.Width(); i++)
 531:Menus.cpp     ****     {
 532:Menus.cpp     ****         screen.DrawPixel(i * 3, (screen.Height() / 2), on);
 533:Menus.cpp     ****     }
 534:Menus.cpp     ****     if(this->buttonLeft.RisingEdge())
 535:Menus.cpp     **** 
 536:Menus.cpp     ****     {
 537:Menus.cpp     ****         this->menuStateGlide = this->menuStateGlide - 1;
 538:Menus.cpp     ****         if(this->menuStateGlide < 0)
 539:Menus.cpp     ****         {
 540:Menus.cpp     ****             this->menuStateGlide = 1;
 541:Menus.cpp     ****         }
 542:Menus.cpp     ****     }
 543:Menus.cpp     ****     if(this->buttonRight.RisingEdge())
 544:Menus.cpp     **** 
 545:Menus.cpp     ****     {
 546:Menus.cpp     ****         this->menuStateGlide = this->menuStateGlide + 1;
 547:Menus.cpp     ****         if(this->menuStateGlide > 1)
 548:Menus.cpp     ****         {
 549:Menus.cpp     ****             this->menuStateGlide = 0;
 550:Menus.cpp     ****         }
 551:Menus.cpp     ****     }
 552:Menus.cpp     ****     if(this->menuStateGlide == 0)
 553:Menus.cpp     ****     {
 554:Menus.cpp     ****         if(this->glideInit > 100)
 555:Menus.cpp     ****         {
 556:Menus.cpp     ****             this->glideInit = 100;
 557:Menus.cpp     ****         }
 558:Menus.cpp     ****         if(this->glideInit < -100)
 559:Menus.cpp     ****         {
 560:Menus.cpp     ****             this->glideInit = -100;
 561:Menus.cpp     ****         }
 562:Menus.cpp     **** 
 563:Menus.cpp     ****         int glideScale;
 564:Menus.cpp     ****         glideScale = screen.Height() - ((this->glideInit + 212) * 0.15);
 565:Menus.cpp     ****         this->glideInit += this->encoderRight.Increment();
 566:Menus.cpp     ****         circleGlidePosition = glideScale;
 567:Menus.cpp     **** 
 568:Menus.cpp     ****         sprintf(this->buffPitchGlide, "Init_%d%%", this->glideInit);
 569:Menus.cpp     **** 
 570:Menus.cpp     **** 
 571:Menus.cpp     ****         //(this->analogRead * 24) - 12;
 572:Menus.cpp     **** 
 573:Menus.cpp     ****         screen.DrawRect(0, 0, 66, 13, true, false);
 574:Menus.cpp     ****     }
ARM GAS  C:\Users\VINCIU~1\AppData\Local\Temp\ccnesEGk.s 			page 35


 575:Menus.cpp     ****     else if(this->menuStateGlide == 1)
 576:Menus.cpp     ****     {
 577:Menus.cpp     ****         if(this->glideTime >= 100)
 578:Menus.cpp     ****         {
 579:Menus.cpp     ****             this->glideTime = 100;
 580:Menus.cpp     ****         }
 581:Menus.cpp     ****         if(this->glideTime <= 0)
 582:Menus.cpp     ****         {
 583:Menus.cpp     ****             this->glideTime = 0;
 584:Menus.cpp     ****         }
 585:Menus.cpp     ****         if(circleGlidePosition >= 100)
 586:Menus.cpp     ****         {
 587:Menus.cpp     ****             circleGlidePosition = 100;
 588:Menus.cpp     ****         }
 589:Menus.cpp     ****         if(circleGlidePosition <= 0)
 590:Menus.cpp     ****         {
 591:Menus.cpp     ****             circleGlidePosition = 0;
 592:Menus.cpp     ****         }
 593:Menus.cpp     ****         if(circleGlideTimePosition >= 100)
 594:Menus.cpp     ****         {
 595:Menus.cpp     ****             circleGlideTimePosition = 100;
 596:Menus.cpp     ****         }
 597:Menus.cpp     ****         if(circleGlideTimePosition <= 10)
 598:Menus.cpp     ****         {
 599:Menus.cpp     ****             circleGlideTimePosition = 10;
 600:Menus.cpp     ****         }
 601:Menus.cpp     ****         circleGlideTimePosition += this->encoderRight.Increment();
 602:Menus.cpp     ****         ;
 603:Menus.cpp     ****         this->glideTime += this->encoderRight.Increment();
 604:Menus.cpp     ****         sprintf(this->buffPitchTime, "Time_%d%%", (int)this->glideTime);
 605:Menus.cpp     ****         screen.DrawRect(67, 0, screen.Width() - 2, 13, true, false);
 606:Menus.cpp     ****     }
 607:Menus.cpp     **** 
 608:Menus.cpp     ****     screen.SetCursor(6, 4);
 609:Menus.cpp     ****     screen.WriteString(buffPitchGlide, Font_6x8, true);
 610:Menus.cpp     ****     screen.SetCursor(73, 4);
 611:Menus.cpp     ****     screen.WriteString(buffPitchTime, Font_6x8, true);
 612:Menus.cpp     ****     screen.DrawLine(margin,
 613:Menus.cpp     ****                     circleGlidePosition,
 614:Menus.cpp     ****                     circleGlideTimePosition,
 615:Menus.cpp     ****                     screen.Height() / 2,
 616:Menus.cpp     ****                     true);
 617:Menus.cpp     ****     screen.DrawCircle(margin, circleGlidePosition, 3, true);
 618:Menus.cpp     ****     screen.DrawCircle(circleGlideTimePosition, screen.Height() / 2, 3, true);
 619:Menus.cpp     **** 
 620:Menus.cpp     **** 
 621:Menus.cpp     ****     screen.Update();
 622:Menus.cpp     **** }
 623:Menus.cpp     **** 
 624:Menus.cpp     **** 
 625:Menus.cpp     **** void Menus::Menu3(OledDisplayExtravaganza screen,
 626:Menus.cpp     ****                   daisysp::Oscillator     osc[],
 627:Menus.cpp     ****                   daisysp::Adsr&          env)
 628:Menus.cpp     **** {
 629:Menus.cpp     ****     screen.Fill(false);
 630:Menus.cpp     ****     if(this->buttonLeft.RisingEdge())
 631:Menus.cpp     **** 
ARM GAS  C:\Users\VINCIU~1\AppData\Local\Temp\ccnesEGk.s 			page 36


 632:Menus.cpp     ****     {
 633:Menus.cpp     ****         this->menuStateEnv = this->menuStateEnv - 1;
 634:Menus.cpp     ****         if(this->menuStateEnv < 0)
 635:Menus.cpp     ****         {
 636:Menus.cpp     ****             this->menuStateEnv = 3;
 637:Menus.cpp     ****         }
 638:Menus.cpp     ****     }
 639:Menus.cpp     ****     if(this->buttonRight.RisingEdge())
 640:Menus.cpp     **** 
 641:Menus.cpp     ****     {
 642:Menus.cpp     ****         this->menuStateEnv = this->menuStateEnv + 1;
 643:Menus.cpp     ****         if(this->menuStateEnv > 3)
 644:Menus.cpp     ****         {
 645:Menus.cpp     ****             this->menuStateEnv = 0;
 646:Menus.cpp     ****         }
 647:Menus.cpp     ****     }
 648:Menus.cpp     ****     if(menuStateEnv == 0)
 649:Menus.cpp     ****     {
 650:Menus.cpp     ****         this->attackTime += this->encoderRight.Increment() * 3.3;
 651:Menus.cpp     ****         env.SetTime(daisysp::ADSR_SEG_ATTACK, this->attackTime / 100);
 652:Menus.cpp     ****         this->attackTimeScaleDraw += this->encoderRight.Increment();
 653:Menus.cpp     ****         if(attackTimeScaleDraw >= screen.Width() / 4)
 654:Menus.cpp     ****         {
 655:Menus.cpp     ****             attackTimeScaleDraw = screen.Width() / 4;
 656:Menus.cpp     ****         }
 657:Menus.cpp     ****         if(attackTimeScaleDraw <= 0)
 658:Menus.cpp     ****         {
 659:Menus.cpp     ****             attackTimeScaleDraw = 0;
 660:Menus.cpp     ****         }
 661:Menus.cpp     ****         if(attackTime >= 100)
 662:Menus.cpp     ****         {
 663:Menus.cpp     ****             attackTime = 100;
 664:Menus.cpp     ****         }
 665:Menus.cpp     ****         if(attackTime <= 0)
 666:Menus.cpp     ****         {
 667:Menus.cpp     ****             attackTime = 0;
 668:Menus.cpp     ****         }
 669:Menus.cpp     ****         screen.DrawRect(28, 0, 40, 13, true, false);
 670:Menus.cpp     ****     }
 671:Menus.cpp     ****     if(menuStateEnv == 1)
 672:Menus.cpp     ****     {
 673:Menus.cpp     ****         this->decayTime += this->encoderRight.Increment() * 3.3;
 674:Menus.cpp     ****         env.SetTime(daisysp::ADSR_SEG_DECAY, this->decayTime / 100);
 675:Menus.cpp     ****         this->decayTimeScaleDraw += this->encoderRight.Increment();
 676:Menus.cpp     ****         if(decayTimeScaleDraw >= screen.Width() / 4)
 677:Menus.cpp     ****         {
 678:Menus.cpp     ****             decayTimeScaleDraw = screen.Width() / 4;
 679:Menus.cpp     ****         }
 680:Menus.cpp     ****         if(decayTimeScaleDraw <= 0)
 681:Menus.cpp     ****         {
 682:Menus.cpp     ****             decayTimeScaleDraw = 0;
 683:Menus.cpp     ****         }
 684:Menus.cpp     ****         if(decayTime >= 100)
 685:Menus.cpp     ****         {
 686:Menus.cpp     ****             decayTime = 100;
 687:Menus.cpp     ****         }
 688:Menus.cpp     ****         if(decayTime <= 0)
ARM GAS  C:\Users\VINCIU~1\AppData\Local\Temp\ccnesEGk.s 			page 37


 689:Menus.cpp     ****         {
 690:Menus.cpp     ****             decayTime = 0;
 691:Menus.cpp     ****         }
 692:Menus.cpp     ****         screen.DrawRect(44, 0, 56, 13, true, false);
 693:Menus.cpp     ****     }
 694:Menus.cpp     ****     if(menuStateEnv == 2)
 695:Menus.cpp     ****     {
 696:Menus.cpp     ****         this->sustatinLevel += this->encoderRight.Increment() * 3.3;
 697:Menus.cpp     ****         env.SetSustainLevel(this->sustatinLevel / 100);
 698:Menus.cpp     ****         this->sustatinLevelScaleDraw += this->encoderRight.Increment();
 699:Menus.cpp     ****         if(this->sustatinLevelScaleDraw >= screen.Width() / 4)
 700:Menus.cpp     ****         {
 701:Menus.cpp     ****             this->sustatinLevelScaleDraw = screen.Width() / 4;
 702:Menus.cpp     ****         }
 703:Menus.cpp     ****         if(this->sustatinLevelScaleDraw <= 0)
 704:Menus.cpp     ****         {
 705:Menus.cpp     ****             this->sustatinLevelScaleDraw = 0;
 706:Menus.cpp     ****         }
 707:Menus.cpp     ****         if(this->sustatinLevel >= 100)
 708:Menus.cpp     ****         {
 709:Menus.cpp     ****             this->sustatinLevel = 100;
 710:Menus.cpp     ****         }
 711:Menus.cpp     ****         if(this->sustatinLevel <= 0)
 712:Menus.cpp     ****         {
 713:Menus.cpp     ****             this->sustatinLevel = 0;
 714:Menus.cpp     ****         }
 715:Menus.cpp     ****         screen.DrawRect(60, 0, 72, 13, true, false);
 716:Menus.cpp     ****     }
 717:Menus.cpp     ****     if(menuStateEnv == 3)
 718:Menus.cpp     ****     {
 719:Menus.cpp     ****         this->releaseTime += this->encoderRight.Increment() * 3.3;
 720:Menus.cpp     ****         env.SetTime(daisysp::ADSR_SEG_RELEASE, this->releaseTime / 100);
 721:Menus.cpp     ****         this->releaseTimeScaleDraw += this->encoderRight.Increment();
 722:Menus.cpp     ****         if(this->releaseTimeScaleDraw >= screen.Width() / 4)
 723:Menus.cpp     ****         {
 724:Menus.cpp     ****             this->releaseTimeScaleDraw = screen.Width() / 4;
 725:Menus.cpp     ****         }
 726:Menus.cpp     ****         if(this->releaseTimeScaleDraw <= 0)
 727:Menus.cpp     ****         {
 728:Menus.cpp     ****             this->releaseTimeScaleDraw = 0;
 729:Menus.cpp     ****         }
 730:Menus.cpp     ****         if(this->releaseTime >= 100)
 731:Menus.cpp     ****         {
 732:Menus.cpp     ****             this->releaseTime = 100;
 733:Menus.cpp     ****         }
 734:Menus.cpp     ****         if(this->releaseTime <= 0)
 735:Menus.cpp     ****         {
 736:Menus.cpp     ****             this->releaseTime = 0;
 737:Menus.cpp     ****         }
 738:Menus.cpp     ****         screen.DrawRect(76, 0, 88, 13, true, false);
 739:Menus.cpp     ****     }
 740:Menus.cpp     **** 
 741:Menus.cpp     ****     screen.SetCursor(32, 4);
 742:Menus.cpp     ****     screen.WriteString("A", Font_6x8, true);
 743:Menus.cpp     ****     screen.SetCursor(48, 4);
 744:Menus.cpp     ****     screen.WriteString("D", Font_6x8, true);
 745:Menus.cpp     ****     screen.SetCursor(64, 4);
ARM GAS  C:\Users\VINCIU~1\AppData\Local\Temp\ccnesEGk.s 			page 38


 746:Menus.cpp     ****     screen.WriteString("S", Font_6x8, true);
 747:Menus.cpp     ****     screen.SetCursor(80, 4);
 748:Menus.cpp     ****     screen.WriteString("R", Font_6x8, true);
 749:Menus.cpp     ****     screen.DrawLine(0, screen.Height() - 5, attackTimeScaleDraw, 25, true);
 750:Menus.cpp     ****     screen.DrawLine(attackTimeScaleDraw,
 751:Menus.cpp     ****                     25,
 752:Menus.cpp     ****                     attackTimeScaleDraw + decayTimeScaleDraw,
 753:Menus.cpp     ****                     (screen.Height() - 5) - sustatinLevelScaleDraw,
 754:Menus.cpp     ****                     true);
 755:Menus.cpp     **** 
 756:Menus.cpp     ****     screen.DrawLine(attackTimeScaleDraw + decayTimeScaleDraw,
 757:Menus.cpp     ****                     (screen.Height() - 5) - sustatinLevelScaleDraw,
 758:Menus.cpp     ****                     attackTimeScaleDraw + decayTimeScaleDraw
 759:Menus.cpp     ****                         + screen.Width() / 4,
 760:Menus.cpp     ****                     (screen.Height() - 5) - sustatinLevelScaleDraw,
 761:Menus.cpp     ****                     true);
 762:Menus.cpp     ****     screen.DrawLine(attackTimeScaleDraw + decayTimeScaleDraw
 763:Menus.cpp     ****                         + screen.Width() / 4,
 764:Menus.cpp     ****                     (screen.Height() - 5) - sustatinLevelScaleDraw,
 765:Menus.cpp     ****                     attackTimeScaleDraw + decayTimeScaleDraw
 766:Menus.cpp     ****                         + screen.Width() / 4 + releaseTimeScaleDraw,
 767:Menus.cpp     ****                     screen.Height() - 5,
 768:Menus.cpp     ****                     true);
 769:Menus.cpp     **** 
 770:Menus.cpp     **** 
 771:Menus.cpp     ****     screen.Update();
 772:Menus.cpp     **** }
 773:Menus.cpp     **** 
 774:Menus.cpp     **** void Menus::Menu4(OledDisplayExtravaganza screen,
 775:Menus.cpp     ****                   daisysp::Oscillator     osc[],
 776:Menus.cpp     ****                   daisysp::Adsr&          env)
 777:Menus.cpp     **** {
 836              		.loc 2 777 1 view -0
 837              		.cfi_startproc
 838              		@ args = 0, pretend = 0, frame = 8
 839              		@ frame_needed = 0, uses_anonymous_args = 0
 778:Menus.cpp     ****     screen.Fill(true);
 840              		.loc 2 778 5 view .LVU241
 841              	.LBB408:
 842              	.LBI408:
  33:../../libdaisy/src/hid/disp/oled_display.h **** 
 843              		.loc 1 33 10 view .LVU242
 844              	.LBB409:
 845              	.LBI409:
 249:../../libdaisy/src/dev/oled_ssd130x.h ****     {
 846              		.loc 5 249 10 view .LVU243
 847              	.LBB410:
 251:../../libdaisy/src/dev/oled_ssd130x.h ****         {
 848              		.loc 5 251 29 view .LVU244
 849              	.LBE410:
 850              	.LBE409:
 851              	.LBE408:
 777:Menus.cpp     ****     screen.Fill(true);
 852              		.loc 2 777 1 is_stmt 0 view .LVU245
 853 0000 2DE9F041 		push	{r4, r5, r6, r7, r8, lr}
 854              		.cfi_def_cfa_offset 24
 855              		.cfi_offset 4, -24
ARM GAS  C:\Users\VINCIU~1\AppData\Local\Temp\ccnesEGk.s 			page 39


 856              		.cfi_offset 5, -20
 857              		.cfi_offset 6, -16
 858              		.cfi_offset 7, -12
 859              		.cfi_offset 8, -8
 860              		.cfi_offset 14, -4
 861 0004 0D46     		mov	r5, r1
 862 0006 82B0     		sub	sp, sp, #8
 863              		.cfi_def_cfa_offset 32
 864              	.LBB415:
 865              	.LBB413:
 866              	.LBB411:
 253:../../libdaisy/src/dev/oled_ssd130x.h ****         }
 867              		.loc 5 253 24 view .LVU246
 868 0008 4FF48062 		mov	r2, #1024
 869              	.LVL52:
 253:../../libdaisy/src/dev/oled_ssd130x.h ****         }
 870              		.loc 5 253 24 view .LVU247
 871 000c FF21     		movs	r1, #255
 872              	.LVL53:
 253:../../libdaisy/src/dev/oled_ssd130x.h ****         }
 873              		.loc 5 253 24 view .LVU248
 874 000e 05F11400 		add	r0, r5, #20
 875              	.LVL54:
 253:../../libdaisy/src/dev/oled_ssd130x.h ****         }
 876              		.loc 5 253 24 view .LVU249
 877              	.LBE411:
 878              	.LBE413:
 879              	.LBE415:
 880              	.LBB416:
 881              	.LBB417:
 882              	.LBB418:
 883              	.LBB419:
 884              	.LBB420:
 111:../../libdaisy/src/dev/oled_ssd130x.h ****         spi_.BlockingTransmit(&cmd, 1);
 885              		.loc 5 111 24 view .LVU250
 886 0012 05F10806 		add	r6, r5, #8
 112:../../libdaisy/src/dev/oled_ssd130x.h ****     };
 887              		.loc 5 112 30 view .LVU251
 888 0016 B024     		movs	r4, #176
 111:../../libdaisy/src/dev/oled_ssd130x.h ****         spi_.BlockingTransmit(&cmd, 1);
 889              		.loc 5 111 24 view .LVU252
 890 0018 1035     		adds	r5, r5, #16
 891              	.LVL55:
 111:../../libdaisy/src/dev/oled_ssd130x.h ****         spi_.BlockingTransmit(&cmd, 1);
 892              		.loc 5 111 24 view .LVU253
 893 001a 8046     		mov	r8, r0
 894              	.LBE420:
 895              	.LBE419:
 896              	.LBE418:
 897              	.LBE417:
 898              	.LBE416:
 899              	.LBB440:
 900              	.LBB414:
 901              	.LBB412:
 253:../../libdaisy/src/dev/oled_ssd130x.h ****         }
 902              		.loc 5 253 24 view .LVU254
 903 001c FFF7FEFF 		bl	memset
ARM GAS  C:\Users\VINCIU~1\AppData\Local\Temp\ccnesEGk.s 			page 40


 904              	.LVL56:
 905              	.L42:
 253:../../libdaisy/src/dev/oled_ssd130x.h ****         }
 906              		.loc 5 253 24 view .LVU255
 907 0020 0027     		movs	r7, #0
 908              	.LBE412:
 909              	.LBE414:
 910              	.LBE440:
 911              	.LBB441:
 912              	.LBB439:
 913              	.LBB438:
 914              	.LBB425:
 915              	.LBB421:
 111:../../libdaisy/src/dev/oled_ssd130x.h ****         spi_.BlockingTransmit(&cmd, 1);
 916              		.loc 5 111 23 view .LVU256
 917 0022 2846     		mov	r0, r5
 918 0024 8DF80740 		strb	r4, [sp, #7]
 919              	.LVL57:
 111:../../libdaisy/src/dev/oled_ssd130x.h ****         spi_.BlockingTransmit(&cmd, 1);
 920              		.loc 5 111 23 view .LVU257
 921              	.LBE421:
 922              	.LBI419:
 109:../../libdaisy/src/dev/oled_ssd130x.h ****     {
 923              		.loc 5 109 10 is_stmt 1 view .LVU258
 924              	.LBB422:
 111:../../libdaisy/src/dev/oled_ssd130x.h ****         spi_.BlockingTransmit(&cmd, 1);
 925              		.loc 5 111 9 view .LVU259
 926              	.LBE422:
 927              	.LBE425:
 928              		.loc 5 270 22 is_stmt 0 view .LVU260
 929 0028 0134     		adds	r4, r4, #1
 930              	.LVL58:
 931              	.LBB426:
 932              	.LBB423:
 111:../../libdaisy/src/dev/oled_ssd130x.h ****         spi_.BlockingTransmit(&cmd, 1);
 933              		.loc 5 111 23 view .LVU261
 934 002a 3946     		mov	r1, r7
 935 002c FFF7FEFF 		bl	dsy_gpio_write
 936              	.LVL59:
 112:../../libdaisy/src/dev/oled_ssd130x.h ****     };
 937              		.loc 5 112 9 is_stmt 1 view .LVU262
 112:../../libdaisy/src/dev/oled_ssd130x.h ****     };
 938              		.loc 5 112 30 is_stmt 0 view .LVU263
 939 0030 6423     		movs	r3, #100
 940 0032 0122     		movs	r2, #1
 941 0034 0DF10701 		add	r1, sp, #7
 942 0038 3046     		mov	r0, r6
 943              	.LBE423:
 944              	.LBE426:
 945              		.loc 5 270 22 view .LVU264
 946 003a E4B2     		uxtb	r4, r4
 947              	.LBB427:
 948              	.LBB424:
 112:../../libdaisy/src/dev/oled_ssd130x.h ****     };
 949              		.loc 5 112 30 view .LVU265
 950 003c FFF7FEFF 		bl	_ZN5daisy9SpiHandle16BlockingTransmitEPhjm
 951              	.LVL60:
ARM GAS  C:\Users\VINCIU~1\AppData\Local\Temp\ccnesEGk.s 			page 41


 112:../../libdaisy/src/dev/oled_ssd130x.h ****     };
 952              		.loc 5 112 30 view .LVU266
 953              	.LBE424:
 954              	.LBE427:
 955              	.LBB428:
 956              	.LBB429:
 111:../../libdaisy/src/dev/oled_ssd130x.h ****         spi_.BlockingTransmit(&cmd, 1);
 957              		.loc 5 111 23 view .LVU267
 958 0040 3946     		mov	r1, r7
 959 0042 2846     		mov	r0, r5
 960 0044 8DF80770 		strb	r7, [sp, #7]
 961              	.LVL61:
 111:../../libdaisy/src/dev/oled_ssd130x.h ****         spi_.BlockingTransmit(&cmd, 1);
 962              		.loc 5 111 23 view .LVU268
 963              	.LBE429:
 964              	.LBI428:
 109:../../libdaisy/src/dev/oled_ssd130x.h ****     {
 965              		.loc 5 109 10 is_stmt 1 view .LVU269
 966              	.LBB430:
 111:../../libdaisy/src/dev/oled_ssd130x.h ****         spi_.BlockingTransmit(&cmd, 1);
 967              		.loc 5 111 9 view .LVU270
 111:../../libdaisy/src/dev/oled_ssd130x.h ****         spi_.BlockingTransmit(&cmd, 1);
 968              		.loc 5 111 23 is_stmt 0 view .LVU271
 969 0048 FFF7FEFF 		bl	dsy_gpio_write
 970              	.LVL62:
 112:../../libdaisy/src/dev/oled_ssd130x.h ****     };
 971              		.loc 5 112 9 is_stmt 1 view .LVU272
 112:../../libdaisy/src/dev/oled_ssd130x.h ****     };
 972              		.loc 5 112 30 is_stmt 0 view .LVU273
 973 004c 0122     		movs	r2, #1
 974 004e 6423     		movs	r3, #100
 975 0050 0DF10701 		add	r1, sp, #7
 976 0054 3046     		mov	r0, r6
 977 0056 FFF7FEFF 		bl	_ZN5daisy9SpiHandle16BlockingTransmitEPhjm
 978              	.LVL63:
 112:../../libdaisy/src/dev/oled_ssd130x.h ****     };
 979              		.loc 5 112 30 view .LVU274
 980 005a 1023     		movs	r3, #16
 981              	.LBE430:
 982              	.LBE428:
 983              	.LBB431:
 984              	.LBB432:
 111:../../libdaisy/src/dev/oled_ssd130x.h ****         spi_.BlockingTransmit(&cmd, 1);
 985              		.loc 5 111 23 view .LVU275
 986 005c 3946     		mov	r1, r7
 987 005e 2846     		mov	r0, r5
 988 0060 8DF80730 		strb	r3, [sp, #7]
 989              	.LVL64:
 111:../../libdaisy/src/dev/oled_ssd130x.h ****         spi_.BlockingTransmit(&cmd, 1);
 990              		.loc 5 111 23 view .LVU276
 991              	.LBE432:
 992              	.LBI431:
 109:../../libdaisy/src/dev/oled_ssd130x.h ****     {
 993              		.loc 5 109 10 is_stmt 1 view .LVU277
 994              	.LBB433:
 111:../../libdaisy/src/dev/oled_ssd130x.h ****         spi_.BlockingTransmit(&cmd, 1);
 995              		.loc 5 111 9 view .LVU278
ARM GAS  C:\Users\VINCIU~1\AppData\Local\Temp\ccnesEGk.s 			page 42


 111:../../libdaisy/src/dev/oled_ssd130x.h ****         spi_.BlockingTransmit(&cmd, 1);
 996              		.loc 5 111 23 is_stmt 0 view .LVU279
 997 0064 FFF7FEFF 		bl	dsy_gpio_write
 998              	.LVL65:
 112:../../libdaisy/src/dev/oled_ssd130x.h ****     };
 999              		.loc 5 112 9 is_stmt 1 view .LVU280
 112:../../libdaisy/src/dev/oled_ssd130x.h ****     };
 1000              		.loc 5 112 30 is_stmt 0 view .LVU281
 1001 0068 6423     		movs	r3, #100
 1002 006a 0122     		movs	r2, #1
 1003 006c 0DF10701 		add	r1, sp, #7
 1004 0070 3046     		mov	r0, r6
 1005 0072 FFF7FEFF 		bl	_ZN5daisy9SpiHandle16BlockingTransmitEPhjm
 1006              	.LVL66:
 112:../../libdaisy/src/dev/oled_ssd130x.h ****     };
 1007              		.loc 5 112 30 view .LVU282
 1008              	.LBE433:
 1009              	.LBE431:
 1010              	.LBB434:
 1011              	.LBI434:
 115:../../libdaisy/src/dev/oled_ssd130x.h ****     {
 1012              		.loc 5 115 10 is_stmt 1 view .LVU283
 1013              	.LBB435:
 117:../../libdaisy/src/dev/oled_ssd130x.h ****         spi_.BlockingTransmit(buff, size);
 1014              		.loc 5 117 9 view .LVU284
 117:../../libdaisy/src/dev/oled_ssd130x.h ****         spi_.BlockingTransmit(buff, size);
 1015              		.loc 5 117 23 is_stmt 0 view .LVU285
 1016 0076 0121     		movs	r1, #1
 1017 0078 2846     		mov	r0, r5
 1018 007a FFF7FEFF 		bl	dsy_gpio_write
 1019              	.LVL67:
 118:../../libdaisy/src/dev/oled_ssd130x.h ****     };
 1020              		.loc 5 118 9 is_stmt 1 view .LVU286
 118:../../libdaisy/src/dev/oled_ssd130x.h ****     };
 1021              		.loc 5 118 30 is_stmt 0 view .LVU287
 1022 007e 8022     		movs	r2, #128
 1023 0080 4146     		mov	r1, r8
 1024 0082 6423     		movs	r3, #100
 1025 0084 3046     		mov	r0, r6
 1026              	.LBE435:
 1027              	.LBE434:
 1028              		.loc 5 270 22 view .LVU288
 1029 0086 9044     		add	r8, r8, r2
 1030              	.LVL68:
 1031              	.LBB437:
 1032              	.LBB436:
 118:../../libdaisy/src/dev/oled_ssd130x.h ****     };
 1033              		.loc 5 118 30 view .LVU289
 1034 0088 FFF7FEFF 		bl	_ZN5daisy9SpiHandle16BlockingTransmitEPhjm
 1035              	.LVL69:
 118:../../libdaisy/src/dev/oled_ssd130x.h ****     };
 1036              		.loc 5 118 30 view .LVU290
 1037              	.LBE436:
 1038              	.LBE437:
 1039              		.loc 5 270 9 is_stmt 1 view .LVU291
 1040              		.loc 5 270 22 view .LVU292
 1041 008c B82C     		cmp	r4, #184
ARM GAS  C:\Users\VINCIU~1\AppData\Local\Temp\ccnesEGk.s 			page 43


 1042 008e C7D1     		bne	.L42
 1043              	.LBE438:
 1044              	.LBE439:
 1045              	.LBE441:
 779:Menus.cpp     ****     // MENIS & CREDITS & MAP CV PORT
 780:Menus.cpp     ****     screen.Update();
 781:Menus.cpp     **** }...
 1046              		.loc 2 781 1 is_stmt 0 view .LVU293
 1047 0090 02B0     		add	sp, sp, #8
 1048              		.cfi_def_cfa_offset 24
 1049              		@ sp needed
 1050 0092 BDE8F081 		pop	{r4, r5, r6, r7, r8, pc}
 1051              		.loc 2 781 1 view .LVU294
 1052              		.cfi_endproc
 1053              	.LFE4043:
 1055 0096 00BF     		.section	.text._ZN5daisy25OneBitGraphicsDisplayImplINS_11OledDisplayINS_13SSD130xDriverILj128ELj64
 1056              		.align	1
 1057              		.p2align 2,,3
 1058              		.weak	_ZN5daisy25OneBitGraphicsDisplayImplINS_11OledDisplayINS_13SSD130xDriverILj128ELj64ENS_24SSD
 1059              		.syntax unified
 1060              		.thumb
 1061              		.thumb_func
 1062              		.fpu fpv5-d16
 1064              	_ZN5daisy25OneBitGraphicsDisplayImplINS_11OledDisplayINS_13SSD130xDriverILj128ELj64ENS_24SSD130x4Wi
 1065              	.LVL70:
 1066              	.LFB4343:
 1067              		.file 6 "../../libdaisy/src/hid/disp/display.h"
   1:../../libdaisy/src/hid/disp/display.h **** #pragma once
   2:../../libdaisy/src/hid/disp/display.h **** #ifndef DSY_DISPLAY_H
   3:../../libdaisy/src/hid/disp/display.h **** #define DSY_DISPLAY_H /**< Macro */
   4:../../libdaisy/src/hid/disp/display.h **** #include <cmath>
   5:../../libdaisy/src/hid/disp/display.h **** #include "util/oled_fonts.h"
   6:../../libdaisy/src/hid/disp/display.h **** #include "daisy_core.h"
   7:../../libdaisy/src/hid/disp/display.h **** 
   8:../../libdaisy/src/hid/disp/display.h **** #ifndef deg2rad
   9:../../libdaisy/src/hid/disp/display.h **** #define deg2rad(deg) ((deg)*3.141592 / 180.0)
  10:../../libdaisy/src/hid/disp/display.h **** #endif
  11:../../libdaisy/src/hid/disp/display.h **** 
  12:../../libdaisy/src/hid/disp/display.h **** namespace daisy
  13:../../libdaisy/src/hid/disp/display.h **** {
  14:../../libdaisy/src/hid/disp/display.h **** /** 
  15:../../libdaisy/src/hid/disp/display.h ****  * This interface is used as a base class for all types of 1bit-per-pixel
  16:../../libdaisy/src/hid/disp/display.h ****  * graphics displays.
  17:../../libdaisy/src/hid/disp/display.h **** */
  18:../../libdaisy/src/hid/disp/display.h **** class OneBitGraphicsDisplay
  19:../../libdaisy/src/hid/disp/display.h **** {
  20:../../libdaisy/src/hid/disp/display.h ****   public:
  21:../../libdaisy/src/hid/disp/display.h ****     OneBitGraphicsDisplay() {}
  22:../../libdaisy/src/hid/disp/display.h ****     virtual ~OneBitGraphicsDisplay() {}
  23:../../libdaisy/src/hid/disp/display.h **** 
  24:../../libdaisy/src/hid/disp/display.h ****     virtual uint16_t Height() const = 0;
  25:../../libdaisy/src/hid/disp/display.h ****     virtual uint16_t Width() const  = 0;
  26:../../libdaisy/src/hid/disp/display.h **** 
  27:../../libdaisy/src/hid/disp/display.h ****     size_t CurrentX() { return currentX_; };
  28:../../libdaisy/src/hid/disp/display.h ****     size_t CurrentY() { return currentY_; };
  29:../../libdaisy/src/hid/disp/display.h **** 
  30:../../libdaisy/src/hid/disp/display.h ****     /** 
ARM GAS  C:\Users\VINCIU~1\AppData\Local\Temp\ccnesEGk.s 			page 44


  31:../../libdaisy/src/hid/disp/display.h ****     Fills the entire display with either on/off.
  32:../../libdaisy/src/hid/disp/display.h ****     \param on Sets on or off.
  33:../../libdaisy/src/hid/disp/display.h ****     */
  34:../../libdaisy/src/hid/disp/display.h ****     virtual void Fill(bool on) = 0;
  35:../../libdaisy/src/hid/disp/display.h **** 
  36:../../libdaisy/src/hid/disp/display.h ****     /**
  37:../../libdaisy/src/hid/disp/display.h ****     Sets the pixel at the specified coordinate to be on/off.
  38:../../libdaisy/src/hid/disp/display.h ****     \param x   x Coordinate
  39:../../libdaisy/src/hid/disp/display.h ****     \param y   y coordinate
  40:../../libdaisy/src/hid/disp/display.h ****     \param on  on or off
  41:../../libdaisy/src/hid/disp/display.h ****     */
  42:../../libdaisy/src/hid/disp/display.h ****     virtual void DrawPixel(uint_fast8_t x, uint_fast8_t y, bool on) = 0;
  43:../../libdaisy/src/hid/disp/display.h **** 
  44:../../libdaisy/src/hid/disp/display.h ****     /**
  45:../../libdaisy/src/hid/disp/display.h ****     Draws a line from (x1, y1) to (y1, y2)
  46:../../libdaisy/src/hid/disp/display.h ****     \param x1  x Coordinate of the starting point
  47:../../libdaisy/src/hid/disp/display.h ****     \param y1  y Coordinate of the starting point
  48:../../libdaisy/src/hid/disp/display.h ****     \param x2  x Coordinate of the ending point
  49:../../libdaisy/src/hid/disp/display.h ****     \param y2  y Coordinate of the ending point
  50:../../libdaisy/src/hid/disp/display.h ****     \param on  on or off
  51:../../libdaisy/src/hid/disp/display.h ****     */
  52:../../libdaisy/src/hid/disp/display.h ****     virtual void DrawLine(uint_fast8_t x1,
  53:../../libdaisy/src/hid/disp/display.h ****                           uint_fast8_t y1,
  54:../../libdaisy/src/hid/disp/display.h ****                           uint_fast8_t x2,
  55:../../libdaisy/src/hid/disp/display.h ****                           uint_fast8_t y2,
  56:../../libdaisy/src/hid/disp/display.h ****                           bool         on)
  57:../../libdaisy/src/hid/disp/display.h ****         = 0;
  58:../../libdaisy/src/hid/disp/display.h **** 
  59:../../libdaisy/src/hid/disp/display.h ****     /**
  60:../../libdaisy/src/hid/disp/display.h ****     Draws a rectangle based on two coordinates.
  61:../../libdaisy/src/hid/disp/display.h ****     \param x1 x Coordinate of the first point
  62:../../libdaisy/src/hid/disp/display.h ****     \param y1 y Coordinate of the first point
  63:../../libdaisy/src/hid/disp/display.h ****     \param x2 x Coordinate of the second point
  64:../../libdaisy/src/hid/disp/display.h ****     \param y2 y Coordinate of the second point
  65:../../libdaisy/src/hid/disp/display.h ****     \param on on or off
  66:../../libdaisy/src/hid/disp/display.h ****     */
  67:../../libdaisy/src/hid/disp/display.h ****     virtual void DrawRect(uint_fast8_t x1,
  68:../../libdaisy/src/hid/disp/display.h ****                           uint_fast8_t y1,
  69:../../libdaisy/src/hid/disp/display.h ****                           uint_fast8_t x2,
  70:../../libdaisy/src/hid/disp/display.h ****                           uint_fast8_t y2,
  71:../../libdaisy/src/hid/disp/display.h ****                           bool         on,
  72:../../libdaisy/src/hid/disp/display.h ****                           bool         fill = false)
  73:../../libdaisy/src/hid/disp/display.h ****         = 0;
  74:../../libdaisy/src/hid/disp/display.h **** 
  75:../../libdaisy/src/hid/disp/display.h ****     /**
  76:../../libdaisy/src/hid/disp/display.h ****     Draws an arc around the specified coordinate
  77:../../libdaisy/src/hid/disp/display.h ****     \param x           x Coordinate of the center of the arc
  78:../../libdaisy/src/hid/disp/display.h ****     \param y           y Coordinate of the center of the arc
  79:../../libdaisy/src/hid/disp/display.h ****     \param radius      radius of the arc
  80:../../libdaisy/src/hid/disp/display.h ****     \param start_angle angle where to start the arc
  81:../../libdaisy/src/hid/disp/display.h ****     \param sweep       total angle of the arc
  82:../../libdaisy/src/hid/disp/display.h ****     \param on  on or off
  83:../../libdaisy/src/hid/disp/display.h ****     */
  84:../../libdaisy/src/hid/disp/display.h ****     virtual void DrawArc(uint_fast8_t x,
  85:../../libdaisy/src/hid/disp/display.h ****                          uint_fast8_t y,
  86:../../libdaisy/src/hid/disp/display.h ****                          uint_fast8_t radius,
  87:../../libdaisy/src/hid/disp/display.h ****                          int_fast16_t start_angle,
ARM GAS  C:\Users\VINCIU~1\AppData\Local\Temp\ccnesEGk.s 			page 45


  88:../../libdaisy/src/hid/disp/display.h ****                          int_fast16_t sweep,
  89:../../libdaisy/src/hid/disp/display.h ****                          bool         on)
  90:../../libdaisy/src/hid/disp/display.h ****         = 0;
  91:../../libdaisy/src/hid/disp/display.h **** 
  92:../../libdaisy/src/hid/disp/display.h ****     /**
  93:../../libdaisy/src/hid/disp/display.h ****     Draws a circle around the specified coordinate
  94:../../libdaisy/src/hid/disp/display.h ****     \param x           x Coordinate of the center of the circle
  95:../../libdaisy/src/hid/disp/display.h ****     \param y           y Coordinate of the center of the circle
  96:../../libdaisy/src/hid/disp/display.h ****     \param radius      radius of the circle
  97:../../libdaisy/src/hid/disp/display.h ****     \param on  on or off
  98:../../libdaisy/src/hid/disp/display.h ****     */
  99:../../libdaisy/src/hid/disp/display.h ****     void
 100:../../libdaisy/src/hid/disp/display.h ****     DrawCircle(uint_fast8_t x, uint_fast8_t y, uint_fast8_t radius, bool on)
 101:../../libdaisy/src/hid/disp/display.h ****     {
 102:../../libdaisy/src/hid/disp/display.h ****         DrawArc(x, y, radius, 0, 360, on);
 103:../../libdaisy/src/hid/disp/display.h ****     };
 104:../../libdaisy/src/hid/disp/display.h **** 
 105:../../libdaisy/src/hid/disp/display.h ****     /** 
 106:../../libdaisy/src/hid/disp/display.h ****     Writes the character with the specific FontDef
 107:../../libdaisy/src/hid/disp/display.h ****     to the display buffer at the current Cursor position.
 108:../../libdaisy/src/hid/disp/display.h ****     \param ch character to be written
 109:../../libdaisy/src/hid/disp/display.h ****     \param font font to be written in
 110:../../libdaisy/src/hid/disp/display.h ****     \param on    on or off
 111:../../libdaisy/src/hid/disp/display.h ****     \return &
 112:../../libdaisy/src/hid/disp/display.h ****     */
 113:../../libdaisy/src/hid/disp/display.h ****     virtual char WriteChar(char ch, FontDef font, bool on) = 0;
 114:../../libdaisy/src/hid/disp/display.h **** 
 115:../../libdaisy/src/hid/disp/display.h ****     /** 
 116:../../libdaisy/src/hid/disp/display.h ****     Similar to WriteChar, except it will handle an entire String.
 117:../../libdaisy/src/hid/disp/display.h ****     Wrapping does not happen automatically, so the width
 118:../../libdaisy/src/hid/disp/display.h ****     of the string must be kept within the dimensions of the screen.
 119:../../libdaisy/src/hid/disp/display.h ****     \param str string to be written
 120:../../libdaisy/src/hid/disp/display.h ****     \param font font to use
 121:../../libdaisy/src/hid/disp/display.h ****     \param on  on or off
 122:../../libdaisy/src/hid/disp/display.h ****     \return &
 123:../../libdaisy/src/hid/disp/display.h ****     */
 124:../../libdaisy/src/hid/disp/display.h ****     virtual char WriteString(const char* str, FontDef font, bool on) = 0;
 125:../../libdaisy/src/hid/disp/display.h **** 
 126:../../libdaisy/src/hid/disp/display.h ****     /** 
 127:../../libdaisy/src/hid/disp/display.h ****     Moves the 'Cursor' position used for WriteChar, and WriteStr to the specified coordinate.
 128:../../libdaisy/src/hid/disp/display.h ****     \param x x pos
 129:../../libdaisy/src/hid/disp/display.h ****     \param y y pos
 130:../../libdaisy/src/hid/disp/display.h ****     */
 131:../../libdaisy/src/hid/disp/display.h ****     void SetCursor(uint16_t x, uint16_t y)
 132:../../libdaisy/src/hid/disp/display.h ****     {
 133:../../libdaisy/src/hid/disp/display.h ****         currentX_ = (x >= Width()) ? Width() - 1 : x;
 134:../../libdaisy/src/hid/disp/display.h ****         currentY_ = (y >= Height()) ? Height() - 1 : y;
 135:../../libdaisy/src/hid/disp/display.h ****     }
 136:../../libdaisy/src/hid/disp/display.h **** 
 137:../../libdaisy/src/hid/disp/display.h ****     /** 
 138:../../libdaisy/src/hid/disp/display.h ****     Writes the current display buffer to the OLED device using SPI or I2C depending on 
 139:../../libdaisy/src/hid/disp/display.h ****     how the object was initialized.
 140:../../libdaisy/src/hid/disp/display.h ****     */
 141:../../libdaisy/src/hid/disp/display.h ****     virtual void Update() = 0;
 142:../../libdaisy/src/hid/disp/display.h **** 
 143:../../libdaisy/src/hid/disp/display.h ****   protected:
 144:../../libdaisy/src/hid/disp/display.h ****     uint16_t currentX_;
ARM GAS  C:\Users\VINCIU~1\AppData\Local\Temp\ccnesEGk.s 			page 46


 145:../../libdaisy/src/hid/disp/display.h ****     uint16_t currentY_;
 146:../../libdaisy/src/hid/disp/display.h **** };
 147:../../libdaisy/src/hid/disp/display.h **** 
 148:../../libdaisy/src/hid/disp/display.h **** /** This class is intended as a intermediary class for your actual implementation of the OneBitGrap
 149:../../libdaisy/src/hid/disp/display.h ****  *  interface. It uses the CRTP design pattern where the template argument is the child class. It p
 150:../../libdaisy/src/hid/disp/display.h ****  *  implementations for most of the functions, except DrawPixel(), Update() and Fill(), which you'l
 151:../../libdaisy/src/hid/disp/display.h ****  *  to provide in your child class.
 152:../../libdaisy/src/hid/disp/display.h ****  *  The main goal of this class is to provide common drawing functions without relying on massive a
 153:../../libdaisy/src/hid/disp/display.h ****  *  virtual function calls that would result in a performance loss. To achieve this, any drawing fu
 154:../../libdaisy/src/hid/disp/display.h ****  *  is implemented here and internally calls other drawing functions (e.g. DrawRect() which interna
 155:../../libdaisy/src/hid/disp/display.h ****  *  DrawPixel() and DrawLine()) makes these calls via the qualified name of these functions to expl
 156:../../libdaisy/src/hid/disp/display.h ****  *  suppress the virtual dispatch mechanism like this:
 157:../../libdaisy/src/hid/disp/display.h ****  * 
 158:../../libdaisy/src/hid/disp/display.h ****  *      ChildType::DrawPixel(...); // no virtual function call; direct call into the child class fu
 159:../../libdaisy/src/hid/disp/display.h ****  *  
 160:../../libdaisy/src/hid/disp/display.h ****  *  To create a custom OneBitGraphicsDisplay implementation, you can 
 161:../../libdaisy/src/hid/disp/display.h ****  *  A) inherit from OneBitGraphicsDisplay directly and provide all the drawing functions yourself
 162:../../libdaisy/src/hid/disp/display.h ****  *  B) Inherit from OneBitGraphicsDisplayImpl and only provide DrawPixel(), Fill() and Update()
 163:../../libdaisy/src/hid/disp/display.h ****  *     like this:
 164:../../libdaisy/src/hid/disp/display.h ****  *  
 165:../../libdaisy/src/hid/disp/display.h ****  *      class MyDisplayClass : public OneBitGraphicsDisplayImpl<MyDisplayClass> 
 166:../../libdaisy/src/hid/disp/display.h ****  *      {
 167:../../libdaisy/src/hid/disp/display.h ****  *      public:
 168:../../libdaisy/src/hid/disp/display.h ****  *          void Fill() override { ... };
 169:../../libdaisy/src/hid/disp/display.h ****  *          void DrawPixel(uint_fast8_t x, uint_fast8_t y, bool on) override { ... };
 170:../../libdaisy/src/hid/disp/display.h ****  *          void Update() override { ... }
 171:../../libdaisy/src/hid/disp/display.h ****  *      };
 172:../../libdaisy/src/hid/disp/display.h ****  *  
 173:../../libdaisy/src/hid/disp/display.h ****  */
 174:../../libdaisy/src/hid/disp/display.h **** template <class ChildType>
 175:../../libdaisy/src/hid/disp/display.h **** class OneBitGraphicsDisplayImpl : public OneBitGraphicsDisplay
 176:../../libdaisy/src/hid/disp/display.h **** {
 177:../../libdaisy/src/hid/disp/display.h ****   public:
 178:../../libdaisy/src/hid/disp/display.h ****     OneBitGraphicsDisplayImpl() {}
 179:../../libdaisy/src/hid/disp/display.h ****     virtual ~OneBitGraphicsDisplayImpl() {}
 180:../../libdaisy/src/hid/disp/display.h **** 
 181:../../libdaisy/src/hid/disp/display.h ****     void DrawLine(uint_fast8_t x1,
 182:../../libdaisy/src/hid/disp/display.h ****                   uint_fast8_t y1,
 183:../../libdaisy/src/hid/disp/display.h ****                   uint_fast8_t x2,
 184:../../libdaisy/src/hid/disp/display.h ****                   uint_fast8_t y2,
 185:../../libdaisy/src/hid/disp/display.h ****                   bool         on) override
 186:../../libdaisy/src/hid/disp/display.h ****     {
 187:../../libdaisy/src/hid/disp/display.h ****         int_fast16_t deltaX = abs((int_fast16_t)x2 - (int_fast16_t)x1);
 188:../../libdaisy/src/hid/disp/display.h ****         int_fast16_t deltaY = abs((int_fast16_t)y2 - (int_fast16_t)y1);
 189:../../libdaisy/src/hid/disp/display.h ****         int_fast16_t signX  = ((x1 < x2) ? 1 : -1);
 190:../../libdaisy/src/hid/disp/display.h ****         int_fast16_t signY  = ((y1 < y2) ? 1 : -1);
 191:../../libdaisy/src/hid/disp/display.h ****         int_fast16_t error  = deltaX - deltaY;
 192:../../libdaisy/src/hid/disp/display.h ****         int_fast16_t error2;
 193:../../libdaisy/src/hid/disp/display.h **** 
 194:../../libdaisy/src/hid/disp/display.h ****         // If we write "ChildType::DrawPixel(x2, y2, on);", we end up with
 195:../../libdaisy/src/hid/disp/display.h ****         // all sorts of weird compiler errors when the Child class is a template
 196:../../libdaisy/src/hid/disp/display.h ****         // class. The only way around this is to use this very verbose syntax:
 197:../../libdaisy/src/hid/disp/display.h ****         ((ChildType*)(this))->ChildType::DrawPixel(x2, y2, on);
 198:../../libdaisy/src/hid/disp/display.h **** 
 199:../../libdaisy/src/hid/disp/display.h ****         while((x1 != x2) || (y1 != y2))
 200:../../libdaisy/src/hid/disp/display.h ****         {
 201:../../libdaisy/src/hid/disp/display.h ****             ((ChildType*)(this))->ChildType::DrawPixel(x1, y1, on);
ARM GAS  C:\Users\VINCIU~1\AppData\Local\Temp\ccnesEGk.s 			page 47


 202:../../libdaisy/src/hid/disp/display.h ****             error2 = error * 2;
 203:../../libdaisy/src/hid/disp/display.h ****             if(error2 > -deltaY)
 204:../../libdaisy/src/hid/disp/display.h ****             {
 205:../../libdaisy/src/hid/disp/display.h ****                 error -= deltaY;
 206:../../libdaisy/src/hid/disp/display.h ****                 x1 += signX;
 207:../../libdaisy/src/hid/disp/display.h ****             }
 208:../../libdaisy/src/hid/disp/display.h **** 
 209:../../libdaisy/src/hid/disp/display.h ****             if(error2 < deltaX)
 210:../../libdaisy/src/hid/disp/display.h ****             {
 211:../../libdaisy/src/hid/disp/display.h ****                 error += deltaX;
 212:../../libdaisy/src/hid/disp/display.h ****                 y1 += signY;
 213:../../libdaisy/src/hid/disp/display.h ****             }
 214:../../libdaisy/src/hid/disp/display.h ****         }
 215:../../libdaisy/src/hid/disp/display.h ****     }
 216:../../libdaisy/src/hid/disp/display.h **** 
 217:../../libdaisy/src/hid/disp/display.h ****     void DrawRect(uint_fast8_t x1,
 218:../../libdaisy/src/hid/disp/display.h ****                   uint_fast8_t y1,
 219:../../libdaisy/src/hid/disp/display.h ****                   uint_fast8_t x2,
 220:../../libdaisy/src/hid/disp/display.h ****                   uint_fast8_t y2,
 221:../../libdaisy/src/hid/disp/display.h ****                   bool         on,
 222:../../libdaisy/src/hid/disp/display.h ****                   bool         fill = false) override
 223:../../libdaisy/src/hid/disp/display.h ****     {
 224:../../libdaisy/src/hid/disp/display.h ****         if(fill)
 225:../../libdaisy/src/hid/disp/display.h ****         {
 226:../../libdaisy/src/hid/disp/display.h ****             for(uint_fast8_t x = x1; x <= x2; x++)
 227:../../libdaisy/src/hid/disp/display.h ****             {
 228:../../libdaisy/src/hid/disp/display.h ****                 for(uint_fast8_t y = y1; y <= y2; y++)
 229:../../libdaisy/src/hid/disp/display.h ****                 {
 230:../../libdaisy/src/hid/disp/display.h ****                     ((ChildType*)(this))->ChildType::DrawPixel(x, y, on);
 231:../../libdaisy/src/hid/disp/display.h ****                 }
 232:../../libdaisy/src/hid/disp/display.h ****             }
 233:../../libdaisy/src/hid/disp/display.h ****         }
 234:../../libdaisy/src/hid/disp/display.h ****         else
 235:../../libdaisy/src/hid/disp/display.h ****         {
 236:../../libdaisy/src/hid/disp/display.h ****             ((ChildType*)(this))->ChildType::DrawLine(x1, y1, x2, y1, on);
 237:../../libdaisy/src/hid/disp/display.h ****             ((ChildType*)(this))->ChildType::DrawLine(x2, y1, x2, y2, on);
 238:../../libdaisy/src/hid/disp/display.h ****             ((ChildType*)(this))->ChildType::DrawLine(x2, y2, x1, y2, on);
 239:../../libdaisy/src/hid/disp/display.h ****             ((ChildType*)(this))->ChildType::DrawLine(x1, y2, x1, y1, on);
 240:../../libdaisy/src/hid/disp/display.h ****         }
 241:../../libdaisy/src/hid/disp/display.h ****     }
 242:../../libdaisy/src/hid/disp/display.h **** 
 243:../../libdaisy/src/hid/disp/display.h ****     void DrawArc(uint_fast8_t x,
 244:../../libdaisy/src/hid/disp/display.h ****                  uint_fast8_t y,
 245:../../libdaisy/src/hid/disp/display.h ****                  uint_fast8_t radius,
 246:../../libdaisy/src/hid/disp/display.h ****                  int_fast16_t start_angle,
 247:../../libdaisy/src/hid/disp/display.h ****                  int_fast16_t sweep,
 248:../../libdaisy/src/hid/disp/display.h ****                  bool         on) override
 249:../../libdaisy/src/hid/disp/display.h ****     {
 250:../../libdaisy/src/hid/disp/display.h ****         // Values to calculate the circle
 251:../../libdaisy/src/hid/disp/display.h ****         int_fast16_t t_x, t_y, err, e2;
 252:../../libdaisy/src/hid/disp/display.h **** 
 253:../../libdaisy/src/hid/disp/display.h ****         // Temporary values to speed up comparisons
 254:../../libdaisy/src/hid/disp/display.h ****         float t_sxy, t_syx, t_sxny, t_synx;
 255:../../libdaisy/src/hid/disp/display.h ****         float t_exy, t_eyx, t_exny, t_eynx;
 256:../../libdaisy/src/hid/disp/display.h **** 
 257:../../libdaisy/src/hid/disp/display.h ****         float start_angle_rad, end_angle_rad;
 258:../../libdaisy/src/hid/disp/display.h ****         float start_x, start_y, end_x, end_y;
ARM GAS  C:\Users\VINCIU~1\AppData\Local\Temp\ccnesEGk.s 			page 48


 259:../../libdaisy/src/hid/disp/display.h **** 
 260:../../libdaisy/src/hid/disp/display.h ****         bool d1, d2, d3, d4;
 261:../../libdaisy/src/hid/disp/display.h **** 
 262:../../libdaisy/src/hid/disp/display.h ****         d1 = d2 = d3 = d4 = true;
 263:../../libdaisy/src/hid/disp/display.h **** 
 264:../../libdaisy/src/hid/disp/display.h ****         bool circle = false;
 265:../../libdaisy/src/hid/disp/display.h **** 
 266:../../libdaisy/src/hid/disp/display.h ****         if(sweep < 0)
 267:../../libdaisy/src/hid/disp/display.h ****         {
 268:../../libdaisy/src/hid/disp/display.h ****             start_angle += sweep;
 269:../../libdaisy/src/hid/disp/display.h ****             sweep = -sweep;
 270:../../libdaisy/src/hid/disp/display.h ****         }
 271:../../libdaisy/src/hid/disp/display.h **** 
 272:../../libdaisy/src/hid/disp/display.h ****         start_angle_rad = deg2rad(start_angle);
 273:../../libdaisy/src/hid/disp/display.h ****         end_angle_rad   = deg2rad(start_angle + sweep);
 274:../../libdaisy/src/hid/disp/display.h **** 
 275:../../libdaisy/src/hid/disp/display.h ****         start_x = cos(start_angle_rad) * radius;
 276:../../libdaisy/src/hid/disp/display.h ****         start_y = -sin(start_angle_rad) * radius;
 277:../../libdaisy/src/hid/disp/display.h ****         end_x   = cos(end_angle_rad) * radius;
 278:../../libdaisy/src/hid/disp/display.h ****         end_y   = -sin(end_angle_rad) * radius;
 279:../../libdaisy/src/hid/disp/display.h **** 
 280:../../libdaisy/src/hid/disp/display.h ****         // Check if start and endpoint are very near
 281:../../libdaisy/src/hid/disp/display.h ****         if((end_x - start_x) * (end_x - start_x)
 282:../../libdaisy/src/hid/disp/display.h ****                + (end_y - start_y) * (end_y - start_y)
 283:../../libdaisy/src/hid/disp/display.h ****            < 2.0f)
 284:../../libdaisy/src/hid/disp/display.h ****         {
 285:../../libdaisy/src/hid/disp/display.h ****             if(sweep > 180)
 286:../../libdaisy/src/hid/disp/display.h ****                 circle = true;
 287:../../libdaisy/src/hid/disp/display.h ****             else
 288:../../libdaisy/src/hid/disp/display.h ****                 // Nothing to draw
 289:../../libdaisy/src/hid/disp/display.h ****                 return;
 290:../../libdaisy/src/hid/disp/display.h ****         }
 291:../../libdaisy/src/hid/disp/display.h **** 
 292:../../libdaisy/src/hid/disp/display.h ****         t_x = -radius;
 293:../../libdaisy/src/hid/disp/display.h ****         t_y = 0;
 294:../../libdaisy/src/hid/disp/display.h ****         err = 2 - 2 * radius;
 295:../../libdaisy/src/hid/disp/display.h **** 
 296:../../libdaisy/src/hid/disp/display.h ****         do
 297:../../libdaisy/src/hid/disp/display.h ****         {
 298:../../libdaisy/src/hid/disp/display.h ****             if(!circle)
 299:../../libdaisy/src/hid/disp/display.h ****             {
 300:../../libdaisy/src/hid/disp/display.h ****                 t_sxy  = start_x * t_y;
 301:../../libdaisy/src/hid/disp/display.h ****                 t_syx  = start_y * t_x;
 302:../../libdaisy/src/hid/disp/display.h ****                 t_sxny = start_x * -t_y;
 303:../../libdaisy/src/hid/disp/display.h ****                 t_synx = start_y * -t_x;
 304:../../libdaisy/src/hid/disp/display.h ****                 t_exy  = end_x * t_y;
 305:../../libdaisy/src/hid/disp/display.h ****                 t_eyx  = end_y * t_x;
 306:../../libdaisy/src/hid/disp/display.h ****                 t_exny = end_x * -t_y;
 307:../../libdaisy/src/hid/disp/display.h ****                 t_eynx = end_y * -t_x;
 308:../../libdaisy/src/hid/disp/display.h **** 
 309:../../libdaisy/src/hid/disp/display.h ****                 if(sweep > 180)
 310:../../libdaisy/src/hid/disp/display.h ****                 {
 311:../../libdaisy/src/hid/disp/display.h ****                     d1 = (t_sxy - t_synx < 0 || t_exy - t_eynx > 0);
 312:../../libdaisy/src/hid/disp/display.h ****                     d2 = (t_sxy - t_syx < 0 || t_exy - t_eyx > 0);
 313:../../libdaisy/src/hid/disp/display.h ****                     d3 = (t_sxny - t_syx < 0 || t_exny - t_eyx > 0);
 314:../../libdaisy/src/hid/disp/display.h ****                     d4 = (t_sxny - t_synx < 0 || t_exny - t_eynx > 0);
 315:../../libdaisy/src/hid/disp/display.h ****                 }
ARM GAS  C:\Users\VINCIU~1\AppData\Local\Temp\ccnesEGk.s 			page 49


 316:../../libdaisy/src/hid/disp/display.h ****                 else
 317:../../libdaisy/src/hid/disp/display.h ****                 {
 318:../../libdaisy/src/hid/disp/display.h ****                     d1 = (t_sxy - t_synx < 0 && t_exy - t_eynx > 0);
 319:../../libdaisy/src/hid/disp/display.h ****                     d2 = (t_sxy - t_syx < 0 && t_exy - t_eyx > 0);
 320:../../libdaisy/src/hid/disp/display.h ****                     d3 = (t_sxny - t_syx < 0 && t_exny - t_eyx > 0);
 321:../../libdaisy/src/hid/disp/display.h ****                     d4 = (t_sxny - t_synx < 0 && t_exny - t_eynx > 0);
 322:../../libdaisy/src/hid/disp/display.h ****                 }
 323:../../libdaisy/src/hid/disp/display.h ****             }
 324:../../libdaisy/src/hid/disp/display.h **** 
 325:../../libdaisy/src/hid/disp/display.h ****             if(d1)
 326:../../libdaisy/src/hid/disp/display.h ****                 ((ChildType*)(this))
 327:../../libdaisy/src/hid/disp/display.h ****                     ->ChildType::DrawPixel(x - t_x, y + t_y, on);
 328:../../libdaisy/src/hid/disp/display.h ****             if(d2)
 329:../../libdaisy/src/hid/disp/display.h ****                 ((ChildType*)(this))
 330:../../libdaisy/src/hid/disp/display.h ****                     ->ChildType::DrawPixel(x + t_x, y + t_y, on);
 331:../../libdaisy/src/hid/disp/display.h ****             if(d3)
 332:../../libdaisy/src/hid/disp/display.h ****                 ((ChildType*)(this))
 333:../../libdaisy/src/hid/disp/display.h ****                     ->ChildType::DrawPixel(x + t_x, y - t_y, on);
 334:../../libdaisy/src/hid/disp/display.h ****             if(d4)
 335:../../libdaisy/src/hid/disp/display.h ****                 ((ChildType*)(this))
 336:../../libdaisy/src/hid/disp/display.h ****                     ->ChildType::DrawPixel(x - t_x, y - t_y, on);
 337:../../libdaisy/src/hid/disp/display.h **** 
 338:../../libdaisy/src/hid/disp/display.h ****             e2 = err;
 339:../../libdaisy/src/hid/disp/display.h ****             if(e2 <= t_y)
 340:../../libdaisy/src/hid/disp/display.h ****             {
 341:../../libdaisy/src/hid/disp/display.h ****                 t_y++;
 342:../../libdaisy/src/hid/disp/display.h ****                 err = err + (t_y * 2 + 1);
 343:../../libdaisy/src/hid/disp/display.h ****                 if(-t_x == t_y && e2 <= t_x)
 344:../../libdaisy/src/hid/disp/display.h ****                 {
 345:../../libdaisy/src/hid/disp/display.h ****                     e2 = 0;
 346:../../libdaisy/src/hid/disp/display.h ****                 }
 347:../../libdaisy/src/hid/disp/display.h ****             }
 348:../../libdaisy/src/hid/disp/display.h ****             if(e2 > t_x)
 349:../../libdaisy/src/hid/disp/display.h ****             {
 350:../../libdaisy/src/hid/disp/display.h ****                 t_x++;
 351:../../libdaisy/src/hid/disp/display.h ****                 err = err + (t_x * 2 + 1);
 352:../../libdaisy/src/hid/disp/display.h ****             }
 353:../../libdaisy/src/hid/disp/display.h ****         } while(t_x <= 0);
 354:../../libdaisy/src/hid/disp/display.h ****     }
 355:../../libdaisy/src/hid/disp/display.h **** 
 356:../../libdaisy/src/hid/disp/display.h ****     char WriteChar(char ch, FontDef font, bool on) override
 357:../../libdaisy/src/hid/disp/display.h ****     {
 358:../../libdaisy/src/hid/disp/display.h ****         uint32_t i, b, j;
 359:../../libdaisy/src/hid/disp/display.h **** 
 360:../../libdaisy/src/hid/disp/display.h ****         // Check if character is valid
 361:../../libdaisy/src/hid/disp/display.h ****         if(ch < 32 || ch > 126)
 362:../../libdaisy/src/hid/disp/display.h ****             return 0;
 363:../../libdaisy/src/hid/disp/display.h **** 
 364:../../libdaisy/src/hid/disp/display.h ****         // Check remaining space on current line
 365:../../libdaisy/src/hid/disp/display.h ****         if(Width() < (currentX_ + font.FontWidth)
 366:../../libdaisy/src/hid/disp/display.h ****            || Height() < (currentY_ + font.FontHeight))
 367:../../libdaisy/src/hid/disp/display.h ****         {
 368:../../libdaisy/src/hid/disp/display.h ****             // Not enough space on current line
 369:../../libdaisy/src/hid/disp/display.h ****             return 0;
 370:../../libdaisy/src/hid/disp/display.h ****         }
 371:../../libdaisy/src/hid/disp/display.h **** 
 372:../../libdaisy/src/hid/disp/display.h ****         // Use the font to write
ARM GAS  C:\Users\VINCIU~1\AppData\Local\Temp\ccnesEGk.s 			page 50


 373:../../libdaisy/src/hid/disp/display.h ****         for(i = 0; i < font.FontHeight; i++)
 374:../../libdaisy/src/hid/disp/display.h ****         {
 375:../../libdaisy/src/hid/disp/display.h ****             b = font.data[(ch - 32) * font.FontHeight + i];
 376:../../libdaisy/src/hid/disp/display.h ****             for(j = 0; j < font.FontWidth; j++)
 377:../../libdaisy/src/hid/disp/display.h ****             {
 378:../../libdaisy/src/hid/disp/display.h ****                 if((b << j) & 0x8000)
 379:../../libdaisy/src/hid/disp/display.h ****                 {
 380:../../libdaisy/src/hid/disp/display.h ****                     ((ChildType*)(this))
 381:../../libdaisy/src/hid/disp/display.h ****                         ->ChildType::DrawPixel(
 382:../../libdaisy/src/hid/disp/display.h ****                             currentX_ + j, (currentY_ + i), on);
 383:../../libdaisy/src/hid/disp/display.h ****                 }
 384:../../libdaisy/src/hid/disp/display.h ****                 else
 385:../../libdaisy/src/hid/disp/display.h ****                 {
 386:../../libdaisy/src/hid/disp/display.h ****                     ((ChildType*)(this))
 387:../../libdaisy/src/hid/disp/display.h ****                         ->ChildType::DrawPixel(
 388:../../libdaisy/src/hid/disp/display.h ****                             currentX_ + j, (currentY_ + i), !on);
 389:../../libdaisy/src/hid/disp/display.h ****                 }
 390:../../libdaisy/src/hid/disp/display.h ****             }
 391:../../libdaisy/src/hid/disp/display.h ****         }
 392:../../libdaisy/src/hid/disp/display.h **** 
 393:../../libdaisy/src/hid/disp/display.h ****         // The current space is now taken
 394:../../libdaisy/src/hid/disp/display.h ****         SetCursor(currentX_ + font.FontWidth, currentY_);
 395:../../libdaisy/src/hid/disp/display.h **** 
 396:../../libdaisy/src/hid/disp/display.h ****         // Return written char for validation
 397:../../libdaisy/src/hid/disp/display.h ****         return ch;
 398:../../libdaisy/src/hid/disp/display.h ****     }
 399:../../libdaisy/src/hid/disp/display.h **** 
 400:../../libdaisy/src/hid/disp/display.h ****     char WriteString(const char* str, FontDef font, bool on) override
 1068              		.loc 6 400 10 is_stmt 1 view -0
 1069              		.cfi_startproc
 1070              		@ args = 4, pretend = 0, frame = 32
 1071              		@ frame_needed = 0, uses_anonymous_args = 0
 1072              		.loc 6 400 10 is_stmt 0 view .LVU296
 1073 0000 2DE9F04F 		push	{r4, r5, r6, r7, r8, r9, r10, fp, lr}
 1074              		.cfi_def_cfa_offset 36
 1075              		.cfi_offset 4, -36
 1076              		.cfi_offset 5, -32
 1077              		.cfi_offset 6, -28
 1078              		.cfi_offset 7, -24
 1079              		.cfi_offset 8, -20
 1080              		.cfi_offset 9, -16
 1081              		.cfi_offset 10, -12
 1082              		.cfi_offset 11, -8
 1083              		.cfi_offset 14, -4
 1084 0004 89B0     		sub	sp, sp, #36
 1085              		.cfi_def_cfa_offset 72
 1086              		.loc 6 400 10 view .LVU297
 1087 0006 08AC     		add	r4, sp, #32
 1088 0008 9DF84870 		ldrb	r7, [sp, #72]	@ zero_extendqisi2
 1089 000c 0191     		str	r1, [sp, #4]
 1090 000e 04E90C00 		stmdb	r4, {r2, r3}
 401:../../libdaisy/src/hid/disp/display.h ****     {
 402:../../libdaisy/src/hid/disp/display.h ****         // Write until null-byte
 403:../../libdaisy/src/hid/disp/display.h ****         while(*str)
 1091              		.loc 6 403 9 is_stmt 1 view .LVU298
 1092 0012 0B78     		ldrb	r3, [r1]	@ zero_extendqisi2
 1093 0014 002B     		cmp	r3, #0
ARM GAS  C:\Users\VINCIU~1\AppData\Local\Temp\ccnesEGk.s 			page 51


 1094 0016 00F0AB80 		beq	.L69
 1095 001a 1A46     		mov	r2, r3
 1096 001c 9DF81880 		ldrb	r8, [sp, #24]	@ zero_extendqisi2
 1097 0020 9DF81930 		ldrb	r3, [sp, #25]	@ zero_extendqisi2
 1098 0024 0646     		mov	r6, r0
 1099 0026 4546     		mov	r5, r8
 1100 0028 9046     		mov	r8, r2
 1101 002a 0393     		str	r3, [sp, #12]
 1102 002c 079B     		ldr	r3, [sp, #28]
 1103 002e 0593     		str	r3, [sp, #20]
 1104              	.LVL71:
 1105              	.L70:
 1106              	.LBB470:
 1107              	.LBI470:
 356:../../libdaisy/src/hid/disp/display.h ****     {
 1108              		.loc 6 356 10 view .LVU299
 1109              	.LBB471:
 361:../../libdaisy/src/hid/disp/display.h ****             return 0;
 1110              		.loc 6 361 20 is_stmt 0 view .LVU300
 1111 0030 A8F12004 		sub	r4, r8, #32
 361:../../libdaisy/src/hid/disp/display.h ****             return 0;
 1112              		.loc 6 361 9 view .LVU301
 1113 0034 E3B2     		uxtb	r3, r4
 1114 0036 5E2B     		cmp	r3, #94
 1115 0038 00F29E80 		bhi	.L51
 365:../../libdaisy/src/hid/disp/display.h ****            || Height() < (currentY_ + font.FontHeight))
 1116              		.loc 6 365 17 view .LVU302
 1117 003c 3368     		ldr	r3, [r6]
 1118 003e 5E4A     		ldr	r2, .L91
 1119 0040 DB68     		ldr	r3, [r3, #12]
 1120 0042 9342     		cmp	r3, r2
 1121 0044 40F09B80 		bne	.L84
 1122 0048 8020     		movs	r0, #128
 1123              	.L50:
 365:../../libdaisy/src/hid/disp/display.h ****            || Height() < (currentY_ + font.FontHeight))
 1124              		.loc 6 365 23 view .LVU303
 1125 004a B388     		ldrh	r3, [r6, #4]
 365:../../libdaisy/src/hid/disp/display.h ****            || Height() < (currentY_ + font.FontHeight))
 1126              		.loc 6 365 33 view .LVU304
 1127 004c 2B44     		add	r3, r3, r5
 366:../../libdaisy/src/hid/disp/display.h ****         {
 1128              		.loc 6 366 12 view .LVU305
 1129 004e 8342     		cmp	r3, r0
 1130 0050 00F39280 		bgt	.L51
 366:../../libdaisy/src/hid/disp/display.h ****         {
 1131              		.loc 6 366 21 view .LVU306
 1132 0054 3368     		ldr	r3, [r6]
 1133 0056 594A     		ldr	r2, .L91+4
 1134 0058 9B68     		ldr	r3, [r3, #8]
 1135 005a 9342     		cmp	r3, r2
 1136 005c 40F09280 		bne	.L85
 1137 0060 4020     		movs	r0, #64
 1138              	.L52:
 366:../../libdaisy/src/hid/disp/display.h ****         {
 1139              		.loc 6 366 27 view .LVU307
 1140 0062 F188     		ldrh	r1, [r6, #6]
 366:../../libdaisy/src/hid/disp/display.h ****         {
ARM GAS  C:\Users\VINCIU~1\AppData\Local\Temp\ccnesEGk.s 			page 52


 1141              		.loc 6 366 37 view .LVU308
 1142 0064 039A     		ldr	r2, [sp, #12]
 366:../../libdaisy/src/hid/disp/display.h ****         {
 1143              		.loc 6 366 27 view .LVU309
 1144 0066 0291     		str	r1, [sp, #8]
 366:../../libdaisy/src/hid/disp/display.h ****         {
 1145              		.loc 6 366 37 view .LVU310
 1146 0068 8B18     		adds	r3, r1, r2
 366:../../libdaisy/src/hid/disp/display.h ****         {
 1147              		.loc 6 366 12 view .LVU311
 1148 006a 8342     		cmp	r3, r0
 1149 006c 00F38480 		bgt	.L51
 1150              	.LVL72:
 373:../../libdaisy/src/hid/disp/display.h ****         {
 1151              		.loc 6 373 22 is_stmt 1 view .LVU312
 1152 0070 002A     		cmp	r2, #0
 1153 0072 00F09180 		beq	.L53
 375:../../libdaisy/src/hid/disp/display.h ****             for(j = 0; j < font.FontWidth; j++)
 1154              		.loc 6 375 37 is_stmt 0 view .LVU313
 1155 0076 02FB04F4 		mul	r4, r2, r4
 1156 007a 6FF00049 		mvn	r9, #-2147483648
 1157 007e 059B     		ldr	r3, [sp, #20]
 1158 0080 A144     		add	r9, r9, r4
 1159 0082 1444     		add	r4, r4, r2
 394:../../libdaisy/src/hid/disp/display.h **** 
 1160              		.loc 6 394 19 view .LVU314
 1161 0084 B6F804B0 		ldrh	fp, [r6, #4]
 1162 0088 03EB4909 		add	r9, r3, r9, lsl #1
 1163 008c 023B     		subs	r3, r3, #2
 1164 008e CDF81080 		str	r8, [sp, #16]
 1165 0092 03EB4403 		add	r3, r3, r4, lsl #1
 1166 0096 0C46     		mov	r4, r1
 1167 0098 9A46     		mov	r10, r3
 1168              	.LVL73:
 1169              	.L56:
 375:../../libdaisy/src/hid/disp/display.h ****             for(j = 0; j < font.FontWidth; j++)
 1170              		.loc 6 375 15 view .LVU315
 1171 009a 39F802CF 		ldrh	ip, [r9, #2]!
 1172              	.LVL74:
 376:../../libdaisy/src/hid/disp/display.h ****             {
 1173              		.loc 6 376 26 is_stmt 1 view .LVU316
 1174 009e A5B3     		cbz	r5, .L61
 1175              	.LBB472:
 1176              	.LBB473:
 1177              	.LBB474:
 1178              	.LBB475:
 1179              	.LBB476:
 246:../../libdaisy/src/dev/oled_ssd130x.h ****     }
 1180              		.loc 5 246 55 is_stmt 0 view .LVU317
 1181 00a0 04F00703 		and	r3, r4, #7
 246:../../libdaisy/src/dev/oled_ssd130x.h ****     }
 1182              		.loc 5 246 49 view .LVU318
 1183 00a4 4FF0010E 		mov	lr, #1
 246:../../libdaisy/src/dev/oled_ssd130x.h ****     }
 1184              		.loc 5 246 28 view .LVU319
 1185 00a8 E208     		lsrs	r2, r4, #3
 1186 00aa 5946     		mov	r1, fp
ARM GAS  C:\Users\VINCIU~1\AppData\Local\Temp\ccnesEGk.s 			page 53


 246:../../libdaisy/src/dev/oled_ssd130x.h ****     }
 1187              		.loc 5 246 49 view .LVU320
 1188 00ac 0EFA03FE 		lsl	lr, lr, r3
 1189 00b0 0BF11403 		add	r3, fp, #20
 246:../../libdaisy/src/dev/oled_ssd130x.h ****     }
 1190              		.loc 5 246 42 view .LVU321
 1191 00b4 4FFA8EFE 		sxtb	lr, lr
 1192 00b8 03EBC212 		add	r2, r3, r2, lsl #7
 1193              	.LBE476:
 1194              	.LBE475:
 1195              	.LBE474:
 1196              	.LBE473:
 1197              	.LBE472:
 376:../../libdaisy/src/hid/disp/display.h ****             {
 1198              		.loc 6 376 19 view .LVU322
 1199 00bc 0023     		movs	r3, #0
 1200              	.LBB494:
 1201              	.LBB489:
 1202              	.LBB484:
 1203              	.LBB480:
 1204              	.LBB477:
 246:../../libdaisy/src/dev/oled_ssd130x.h ****     }
 1205              		.loc 5 246 42 view .LVU323
 1206 00be 6FEA0E08 		mvn	r8, lr
 1207 00c2 3244     		add	r2, r2, r6
 1208 00c4 0DE0     		b	.L62
 1209              	.LVL75:
 1210              	.L86:
 246:../../libdaisy/src/dev/oled_ssd130x.h ****     }
 1211              		.loc 5 246 42 view .LVU324
 1212              	.LBE477:
 1213              	.LBE480:
 1214              	.LBE484:
 1215              	.LBE489:
 1216              	.LBE494:
 1217              	.LBB495:
 1218              	.LBI495:
 1219              		.loc 1 41 10 is_stmt 1 view .LVU325
 1220              	.LBB496:
 1221              	.LBI496:
 239:../../libdaisy/src/dev/oled_ssd130x.h ****     {
 1222              		.loc 5 239 10 view .LVU326
 1223              	.LBB497:
 241:../../libdaisy/src/dev/oled_ssd130x.h ****             return;
 1224              		.loc 5 241 9 is_stmt 0 view .LVU327
 1225 00c6 7F29     		cmp	r1, #127
 1226 00c8 06D8     		bhi	.L58
 1227 00ca 3F2C     		cmp	r4, #63
 1228 00cc 04D8     		bhi	.L58
 244:../../libdaisy/src/dev/oled_ssd130x.h ****         else
 1229              		.loc 5 244 42 view .LVU328
 1230 00ce 1078     		ldrb	r0, [r2]	@ zero_extendqisi2
 243:../../libdaisy/src/dev/oled_ssd130x.h ****             buffer_[x + (y / 8) * width] |= (1 << (y % 8));
 1231              		.loc 5 243 9 view .LVU329
 1232 00d0 97B1     		cbz	r7, .L60
 1233              	.L83:
 243:../../libdaisy/src/dev/oled_ssd130x.h ****             buffer_[x + (y / 8) * width] |= (1 << (y % 8));
ARM GAS  C:\Users\VINCIU~1\AppData\Local\Temp\ccnesEGk.s 			page 54


 1234              		.loc 5 243 9 view .LVU330
 1235              	.LBE497:
 1236              	.LBE496:
 1237              	.LBE495:
 1238              	.LBB498:
 1239              	.LBB490:
 1240              	.LBB485:
 244:../../libdaisy/src/dev/oled_ssd130x.h ****         else
 1241              		.loc 5 244 42 view .LVU331
 1242 00d2 4EEA0000 		orr	r0, lr, r0
 1243 00d6 1070     		strb	r0, [r2]
 1244              	.L58:
 1245              	.LBE485:
 1246              	.LBE490:
 1247              	.LBE498:
 376:../../libdaisy/src/hid/disp/display.h ****             {
 1248              		.loc 6 376 13 is_stmt 1 view .LVU332
 1249 00d8 0133     		adds	r3, r3, #1
 1250              	.LVL76:
 376:../../libdaisy/src/hid/disp/display.h ****             {
 1251              		.loc 6 376 26 view .LVU333
 1252 00da 0132     		adds	r2, r2, #1
 1253 00dc 0131     		adds	r1, r1, #1
 1254 00de AB42     		cmp	r3, r5
 1255 00e0 13D0     		beq	.L61
 1256              	.LVL77:
 1257              	.L62:
 378:../../libdaisy/src/hid/disp/display.h ****                 {
 1258              		.loc 6 378 23 is_stmt 0 view .LVU334
 1259 00e2 0CFA03F0 		lsl	r0, ip, r3
 378:../../libdaisy/src/hid/disp/display.h ****                 {
 1260              		.loc 6 378 17 view .LVU335
 1261 00e6 0004     		lsls	r0, r0, #16
 1262 00e8 EDD4     		bmi	.L86
 1263              	.LVL78:
 1264              	.LBB499:
 1265              	.LBI472:
 1266              		.loc 1 41 10 is_stmt 1 view .LVU336
 1267              	.LBB491:
 1268              	.LBI473:
 239:../../libdaisy/src/dev/oled_ssd130x.h ****     {
 1269              		.loc 5 239 10 view .LVU337
 1270              	.LBB486:
 241:../../libdaisy/src/dev/oled_ssd130x.h ****             return;
 1271              		.loc 5 241 9 is_stmt 0 view .LVU338
 1272 00ea 7F29     		cmp	r1, #127
 1273 00ec F4D8     		bhi	.L58
 1274 00ee 3F2C     		cmp	r4, #63
 1275 00f0 F2D8     		bhi	.L58
 244:../../libdaisy/src/dev/oled_ssd130x.h ****         else
 1276              		.loc 5 244 42 view .LVU339
 1277 00f2 1078     		ldrb	r0, [r2]	@ zero_extendqisi2
 243:../../libdaisy/src/dev/oled_ssd130x.h ****             buffer_[x + (y / 8) * width] |= (1 << (y % 8));
 1278              		.loc 5 243 9 view .LVU340
 1279 00f4 002F     		cmp	r7, #0
 1280 00f6 ECD0     		beq	.L83
 1281              	.L60:
ARM GAS  C:\Users\VINCIU~1\AppData\Local\Temp\ccnesEGk.s 			page 55


 1282              	.LVL79:
 1283              	.LBB481:
 1284              	.LBI475:
 239:../../libdaisy/src/dev/oled_ssd130x.h ****     {
 1285              		.loc 5 239 10 is_stmt 1 view .LVU341
 239:../../libdaisy/src/dev/oled_ssd130x.h ****     {
 1286              		.loc 5 239 10 is_stmt 0 view .LVU342
 1287              	.LBE481:
 1288              	.LBE486:
 1289              	.LBE491:
 1290              	.LBE499:
 376:../../libdaisy/src/hid/disp/display.h ****             {
 1291              		.loc 6 376 13 view .LVU343
 1292 00f8 0133     		adds	r3, r3, #1
 1293              	.LVL80:
 1294              	.LBB500:
 1295              	.LBB492:
 1296              	.LBB487:
 1297              	.LBB482:
 1298              	.LBB478:
 246:../../libdaisy/src/dev/oled_ssd130x.h ****     }
 1299              		.loc 5 246 42 view .LVU344
 1300 00fa 08EA0000 		and	r0, r8, r0
 1301              	.LBE478:
 1302              	.LBE482:
 1303              	.LBE487:
 1304              	.LBE492:
 1305              	.LBE500:
 376:../../libdaisy/src/hid/disp/display.h ****             {
 1306              		.loc 6 376 26 view .LVU345
 1307 00fe 0132     		adds	r2, r2, #1
 1308 0100 0131     		adds	r1, r1, #1
 1309 0102 AB42     		cmp	r3, r5
 1310              	.LBB501:
 1311              	.LBB493:
 1312              	.LBB488:
 1313              	.LBB483:
 1314              	.LBB479:
 246:../../libdaisy/src/dev/oled_ssd130x.h ****     }
 1315              		.loc 5 246 42 view .LVU346
 1316 0104 02F8010C 		strb	r0, [r2, #-1]
 246:../../libdaisy/src/dev/oled_ssd130x.h ****     }
 1317              		.loc 5 246 42 view .LVU347
 1318              	.LBE479:
 1319              	.LBE483:
 1320              	.LBE488:
 1321              	.LBE493:
 1322              	.LBE501:
 376:../../libdaisy/src/hid/disp/display.h ****             {
 1323              		.loc 6 376 13 is_stmt 1 view .LVU348
 1324              	.LVL81:
 376:../../libdaisy/src/hid/disp/display.h ****             {
 1325              		.loc 6 376 26 view .LVU349
 1326 0108 EBD1     		bne	.L62
 1327              	.LVL82:
 1328              	.L61:
 373:../../libdaisy/src/hid/disp/display.h ****         {
ARM GAS  C:\Users\VINCIU~1\AppData\Local\Temp\ccnesEGk.s 			page 56


 1329              		.loc 6 373 9 view .LVU350
 373:../../libdaisy/src/hid/disp/display.h ****         {
 1330              		.loc 6 373 22 view .LVU351
 1331 010a D145     		cmp	r9, r10
 1332 010c 04F10104 		add	r4, r4, #1
 1333 0110 C3D1     		bne	.L56
 1334 0112 DDF81080 		ldr	r8, [sp, #16]
 1335              	.LVL83:
 1336              	.L55:
 1337              	.LBB502:
 1338              	.LBB503:
 133:../../libdaisy/src/hid/disp/display.h ****         currentY_ = (y >= Height()) ? Height() - 1 : y;
 1339              		.loc 6 133 33 is_stmt 0 view .LVU352
 1340 0116 3268     		ldr	r2, [r6]
 1341              	.LBE503:
 1342              	.LBE502:
 394:../../libdaisy/src/hid/disp/display.h **** 
 1343              		.loc 6 394 18 view .LVU353
 1344 0118 0BEB0504 		add	r4, fp, r5
 1345 011c 2649     		ldr	r1, .L91
 1346              	.LBB508:
 1347              	.LBB504:
 133:../../libdaisy/src/hid/disp/display.h ****         currentY_ = (y >= Height()) ? Height() - 1 : y;
 1348              		.loc 6 133 33 view .LVU354
 1349 011e D368     		ldr	r3, [r2, #12]
 1350              	.LBE504:
 1351              	.LBE508:
 394:../../libdaisy/src/hid/disp/display.h **** 
 1352              		.loc 6 394 18 view .LVU355
 1353 0120 A4B2     		uxth	r4, r4
 1354              	.LVL84:
 1355              	.LBB509:
 1356              	.LBI502:
 131:../../libdaisy/src/hid/disp/display.h ****     {
 1357              		.loc 6 131 10 is_stmt 1 view .LVU356
 1358              	.LBB505:
 133:../../libdaisy/src/hid/disp/display.h ****         currentY_ = (y >= Height()) ? Height() - 1 : y;
 1359              		.loc 6 133 9 view .LVU357
 1360 0122 8B42     		cmp	r3, r1
 1361 0124 34D1     		bne	.L87
 133:../../libdaisy/src/hid/disp/display.h ****         currentY_ = (y >= Height()) ? Height() - 1 : y;
 1362              		.loc 6 133 33 is_stmt 0 view .LVU358
 1363 0126 8020     		movs	r0, #128
 1364              	.L63:
 133:../../libdaisy/src/hid/disp/display.h ****         currentY_ = (y >= Height()) ? Height() - 1 : y;
 1365              		.loc 6 133 19 view .LVU359
 1366 0128 8442     		cmp	r4, r0
 1367 012a 04D3     		bcc	.L64
 133:../../libdaisy/src/hid/disp/display.h ****         currentY_ = (y >= Height()) ? Height() - 1 : y;
 1368              		.loc 6 133 44 view .LVU360
 1369 012c D368     		ldr	r3, [r2, #12]
 1370 012e 2249     		ldr	r1, .L91
 1371 0130 8B42     		cmp	r3, r1
 1372 0132 3AD1     		bne	.L88
 1373 0134 7F24     		movs	r4, #127
 1374              	.LVL85:
 1375              	.L64:
ARM GAS  C:\Users\VINCIU~1\AppData\Local\Temp\ccnesEGk.s 			page 57


 134:../../libdaisy/src/hid/disp/display.h ****     }
 1376              		.loc 6 134 34 view .LVU361
 1377 0136 9368     		ldr	r3, [r2, #8]
 1378 0138 204A     		ldr	r2, .L91+4
 133:../../libdaisy/src/hid/disp/display.h ****         currentY_ = (y >= Height()) ? Height() - 1 : y;
 1379              		.loc 6 133 19 view .LVU362
 1380 013a B480     		strh	r4, [r6, #4]	@ movhi
 134:../../libdaisy/src/hid/disp/display.h ****     }
 1381              		.loc 6 134 9 is_stmt 1 view .LVU363
 1382 013c 9342     		cmp	r3, r2
 1383 013e 24D1     		bne	.L89
 134:../../libdaisy/src/hid/disp/display.h ****     }
 1384              		.loc 6 134 34 is_stmt 0 view .LVU364
 1385 0140 4020     		movs	r0, #64
 1386              	.L66:
 134:../../libdaisy/src/hid/disp/display.h ****     }
 1387              		.loc 6 134 19 view .LVU365
 1388 0142 029B     		ldr	r3, [sp, #8]
 1389 0144 8342     		cmp	r3, r0
 1390 0146 06D3     		bcc	.L67
 134:../../libdaisy/src/hid/disp/display.h ****     }
 1391              		.loc 6 134 46 view .LVU366
 1392 0148 3368     		ldr	r3, [r6]
 1393 014a 1C4A     		ldr	r2, .L91+4
 1394 014c 9B68     		ldr	r3, [r3, #8]
 1395 014e 9342     		cmp	r3, r2
 1396 0150 25D1     		bne	.L90
 1397 0152 3F23     		movs	r3, #63
 1398 0154 0293     		str	r3, [sp, #8]
 1399              	.LVL86:
 1400              	.L67:
 134:../../libdaisy/src/hid/disp/display.h ****     }
 1401              		.loc 6 134 19 view .LVU367
 1402 0156 029B     		ldr	r3, [sp, #8]
 1403 0158 F380     		strh	r3, [r6, #6]	@ movhi
 1404              	.LVL87:
 1405              	.L49:
 134:../../libdaisy/src/hid/disp/display.h ****     }
 1406              		.loc 6 134 19 view .LVU368
 1407              	.LBE505:
 1408              	.LBE509:
 1409              	.LBE471:
 1410              	.LBE470:
 404:../../libdaisy/src/hid/disp/display.h ****         {
 405:../../libdaisy/src/hid/disp/display.h ****             if(((ChildType*)(this))->ChildType::WriteChar(*str, font, on)
 406:../../libdaisy/src/hid/disp/display.h ****                != *str)
 1411              		.loc 6 406 16 view .LVU369
 1412 015a 019B     		ldr	r3, [sp, #4]
 1413 015c 1878     		ldrb	r0, [r3]	@ zero_extendqisi2
 405:../../libdaisy/src/hid/disp/display.h ****                != *str)
 1414              		.loc 6 405 13 view .LVU370
 1415 015e 4045     		cmp	r0, r8
 1416 0160 07D1     		bne	.L47
 1417              	.LVL88:
 403:../../libdaisy/src/hid/disp/display.h ****         {
 1418              		.loc 6 403 9 is_stmt 1 view .LVU371
 1419 0162 13F8018F 		ldrb	r8, [r3, #1]!	@ zero_extendqisi2
ARM GAS  C:\Users\VINCIU~1\AppData\Local\Temp\ccnesEGk.s 			page 58


 1420              	.LVL89:
 403:../../libdaisy/src/hid/disp/display.h ****         {
 1421              		.loc 6 403 9 is_stmt 0 view .LVU372
 1422 0166 0193     		str	r3, [sp, #4]
 1423 0168 B8F1000F 		cmp	r8, #0
 1424 016c 7FF460AF 		bne	.L70
 1425              	.LVL90:
 1426              	.L69:
 1427              	.LBB514:
 1428              	.LBB512:
 362:../../libdaisy/src/hid/disp/display.h **** 
 1429              		.loc 6 362 20 view .LVU373
 1430 0170 0020     		movs	r0, #0
 1431              	.L47:
 1432              	.LBE512:
 1433              	.LBE514:
 407:../../libdaisy/src/hid/disp/display.h ****             {
 408:../../libdaisy/src/hid/disp/display.h ****                 // Char could not be written
 409:../../libdaisy/src/hid/disp/display.h ****                 return *str;
 410:../../libdaisy/src/hid/disp/display.h ****             }
 411:../../libdaisy/src/hid/disp/display.h **** 
 412:../../libdaisy/src/hid/disp/display.h ****             // Next char
 413:../../libdaisy/src/hid/disp/display.h ****             str++;
 414:../../libdaisy/src/hid/disp/display.h ****         }
 415:../../libdaisy/src/hid/disp/display.h **** 
 416:../../libdaisy/src/hid/disp/display.h ****         // Everything ok
 417:../../libdaisy/src/hid/disp/display.h ****         return *str;
 418:../../libdaisy/src/hid/disp/display.h ****     }
 1434              		.loc 6 418 5 view .LVU374
 1435 0172 09B0     		add	sp, sp, #36
 1436              		.cfi_remember_state
 1437              		.cfi_def_cfa_offset 36
 1438              		@ sp needed
 1439 0174 BDE8F08F 		pop	{r4, r5, r6, r7, r8, r9, r10, fp, pc}
 1440              	.LVL91:
 1441              	.L51:
 1442              		.cfi_restore_state
 1443              	.LBB515:
 1444              	.LBB513:
 362:../../libdaisy/src/hid/disp/display.h **** 
 1445              		.loc 6 362 20 view .LVU375
 1446 0178 4FF00008 		mov	r8, #0
 1447              	.LVL92:
 362:../../libdaisy/src/hid/disp/display.h **** 
 1448              		.loc 6 362 20 view .LVU376
 1449 017c EDE7     		b	.L49
 1450              	.LVL93:
 1451              	.L84:
 365:../../libdaisy/src/hid/disp/display.h ****            || Height() < (currentY_ + font.FontHeight))
 1452              		.loc 6 365 17 view .LVU377
 1453 017e 3046     		mov	r0, r6
 1454 0180 9847     		blx	r3
 1455              	.LVL94:
 1456 0182 62E7     		b	.L50
 1457              	.L85:
 366:../../libdaisy/src/hid/disp/display.h ****         {
 1458              		.loc 6 366 21 view .LVU378
ARM GAS  C:\Users\VINCIU~1\AppData\Local\Temp\ccnesEGk.s 			page 59


 1459 0184 3046     		mov	r0, r6
 1460 0186 9847     		blx	r3
 1461              	.LVL95:
 1462 0188 6BE7     		b	.L52
 1463              	.LVL96:
 1464              	.L89:
 1465              	.LBB510:
 1466              	.LBB506:
 134:../../libdaisy/src/hid/disp/display.h ****     }
 1467              		.loc 6 134 33 view .LVU379
 1468 018a 3046     		mov	r0, r6
 1469 018c 9847     		blx	r3
 1470              	.LVL97:
 1471 018e D8E7     		b	.L66
 1472              	.LVL98:
 1473              	.L87:
 133:../../libdaisy/src/hid/disp/display.h ****         currentY_ = (y >= Height()) ? Height() - 1 : y;
 1474              		.loc 6 133 32 view .LVU380
 1475 0190 3046     		mov	r0, r6
 1476 0192 9847     		blx	r3
 1477              	.LVL99:
 133:../../libdaisy/src/hid/disp/display.h ****         currentY_ = (y >= Height()) ? Height() - 1 : y;
 1478              		.loc 6 133 44 view .LVU381
 1479 0194 3268     		ldr	r2, [r6]
 1480 0196 C7E7     		b	.L63
 1481              	.LVL100:
 1482              	.L53:
 133:../../libdaisy/src/hid/disp/display.h ****         currentY_ = (y >= Height()) ? Height() - 1 : y;
 1483              		.loc 6 133 44 view .LVU382
 1484              	.LBE506:
 1485              	.LBE510:
 394:../../libdaisy/src/hid/disp/display.h **** 
 1486              		.loc 6 394 19 view .LVU383
 1487 0198 B6F804B0 		ldrh	fp, [r6, #4]
 1488 019c BBE7     		b	.L55
 1489              	.LVL101:
 1490              	.L90:
 1491              	.LBB511:
 1492              	.LBB507:
 134:../../libdaisy/src/hid/disp/display.h ****     }
 1493              		.loc 6 134 45 view .LVU384
 1494 019e 3046     		mov	r0, r6
 1495 01a0 9847     		blx	r3
 1496              	.LVL102:
 134:../../libdaisy/src/hid/disp/display.h ****     }
 1497              		.loc 6 134 19 view .LVU385
 1498 01a2 0138     		subs	r0, r0, #1
 1499 01a4 83B2     		uxth	r3, r0
 1500 01a6 0293     		str	r3, [sp, #8]
 1501              	.LVL103:
 134:../../libdaisy/src/hid/disp/display.h ****     }
 1502              		.loc 6 134 19 view .LVU386
 1503 01a8 D5E7     		b	.L67
 1504              	.LVL104:
 1505              	.L88:
 133:../../libdaisy/src/hid/disp/display.h ****         currentY_ = (y >= Height()) ? Height() - 1 : y;
 1506              		.loc 6 133 43 view .LVU387
ARM GAS  C:\Users\VINCIU~1\AppData\Local\Temp\ccnesEGk.s 			page 60


 1507 01aa 3046     		mov	r0, r6
 1508 01ac 9847     		blx	r3
 1509              	.LVL105:
 133:../../libdaisy/src/hid/disp/display.h ****         currentY_ = (y >= Height()) ? Height() - 1 : y;
 1510              		.loc 6 133 19 view .LVU388
 1511 01ae 0138     		subs	r0, r0, #1
 134:../../libdaisy/src/hid/disp/display.h ****     }
 1512              		.loc 6 134 34 view .LVU389
 1513 01b0 3268     		ldr	r2, [r6]
 133:../../libdaisy/src/hid/disp/display.h ****         currentY_ = (y >= Height()) ? Height() - 1 : y;
 1514              		.loc 6 133 19 view .LVU390
 1515 01b2 84B2     		uxth	r4, r0
 1516              	.LVL106:
 133:../../libdaisy/src/hid/disp/display.h ****         currentY_ = (y >= Height()) ? Height() - 1 : y;
 1517              		.loc 6 133 19 view .LVU391
 1518 01b4 BFE7     		b	.L64
 1519              	.L92:
 1520 01b6 00BF     		.align	2
 1521              	.L91:
 1522 01b8 00000000 		.word	_ZNK5daisy11OledDisplayINS_13SSD130xDriverILj128ELj64ENS_24SSD130x4WireSpiTransportEEEE5Widt
 1523 01bc 00000000 		.word	_ZNK5daisy11OledDisplayINS_13SSD130xDriverILj128ELj64ENS_24SSD130x4WireSpiTransportEEEE6Heig
 1524              	.LBE507:
 1525              	.LBE511:
 1526              	.LBE513:
 1527              	.LBE515:
 1528              		.cfi_endproc
 1529              	.LFE4343:
 1531              		.section	.rodata._ZN5Menus5Menu2E23OledDisplayExtravaganzaPN7daisysp10OscillatorE.str1.4,"aMS",%pr
 1532              		.align	2
 1533              	.LC2:
 1534 0000 496E6974 		.ascii	"Init_%d%%\000"
 1534      5F256425 
 1534      2500
 1535 000a 0000     		.align	2
 1536              	.LC3:
 1537 000c 54696D65 		.ascii	"Time_%d%%\000"
 1537      5F256425 
 1537      2500
 1538              		.section	.text._ZN5Menus5Menu2E23OledDisplayExtravaganzaPN7daisysp10OscillatorE,"ax",%progbits
 1539              		.align	1
 1540              		.p2align 2,,3
 1541              		.global	_ZN5Menus5Menu2E23OledDisplayExtravaganzaPN7daisysp10OscillatorE
 1542              		.syntax unified
 1543              		.thumb
 1544              		.thumb_func
 1545              		.fpu fpv5-d16
 1547              	_ZN5Menus5Menu2E23OledDisplayExtravaganzaPN7daisysp10OscillatorE:
 1548              	.LVL107:
 1549              	.LFB4041:
 524:Menus.cpp     **** {
 1550              		.loc 2 524 1 is_stmt 1 view -0
 1551              		.cfi_startproc
 1552              		@ args = 0, pretend = 0, frame = 24
 1553              		@ frame_needed = 0, uses_anonymous_args = 0
 524:Menus.cpp     **** {
 1554              		.loc 2 524 1 is_stmt 0 view .LVU393
 1555 0000 2DE9F04F 		push	{r4, r5, r6, r7, r8, r9, r10, fp, lr}
ARM GAS  C:\Users\VINCIU~1\AppData\Local\Temp\ccnesEGk.s 			page 61


 1556              		.cfi_def_cfa_offset 36
 1557              		.cfi_offset 4, -36
 1558              		.cfi_offset 5, -32
 1559              		.cfi_offset 6, -28
 1560              		.cfi_offset 7, -24
 1561              		.cfi_offset 8, -20
 1562              		.cfi_offset 9, -16
 1563              		.cfi_offset 10, -12
 1564              		.cfi_offset 11, -8
 1565              		.cfi_offset 14, -4
 1566 0004 0C46     		mov	r4, r1
 1567 0006 0646     		mov	r6, r0
 525:Menus.cpp     ****     screen.Fill(false);
 1568              		.loc 2 525 5 is_stmt 1 view .LVU394
 1569              	.LVL108:
 1570              	.LBB728:
 1571              	.LBI728:
  33:../../libdaisy/src/hid/disp/oled_display.h **** 
 1572              		.loc 1 33 10 view .LVU395
 1573              	.LBB729:
 1574              	.LBI729:
 249:../../libdaisy/src/dev/oled_ssd130x.h ****     {
 1575              		.loc 5 249 10 view .LVU396
 1576              	.LBB730:
 251:../../libdaisy/src/dev/oled_ssd130x.h ****         {
 1577              		.loc 5 251 29 view .LVU397
 253:../../libdaisy/src/dev/oled_ssd130x.h ****         }
 1578              		.loc 5 253 24 is_stmt 0 view .LVU398
 1579 0008 4FF48062 		mov	r2, #1024
 1580              	.LVL109:
 253:../../libdaisy/src/dev/oled_ssd130x.h ****         }
 1581              		.loc 5 253 24 view .LVU399
 1582              	.LBE730:
 1583              	.LBE729:
 1584              	.LBE728:
 524:Menus.cpp     **** {
 1585              		.loc 2 524 1 view .LVU400
 1586 000c 8BB0     		sub	sp, sp, #44
 1587              		.cfi_def_cfa_offset 80
 1588              	.LBB733:
 1589              	.LBB732:
 1590              	.LBB731:
 253:../../libdaisy/src/dev/oled_ssd130x.h ****         }
 1591              		.loc 5 253 24 view .LVU401
 1592 000e 0021     		movs	r1, #0
 1593              	.LVL110:
 253:../../libdaisy/src/dev/oled_ssd130x.h ****         }
 1594              		.loc 5 253 24 view .LVU402
 1595 0010 04F11400 		add	r0, r4, #20
 1596              	.LVL111:
 253:../../libdaisy/src/dev/oled_ssd130x.h ****         }
 1597              		.loc 5 253 24 view .LVU403
 1598 0014 FFF7FEFF 		bl	memset
 1599              	.LVL112:
 253:../../libdaisy/src/dev/oled_ssd130x.h ****         }
 1600              		.loc 5 253 24 view .LVU404
 1601              	.LBE731:
ARM GAS  C:\Users\VINCIU~1\AppData\Local\Temp\ccnesEGk.s 			page 62


 1602              	.LBE732:
 1603              	.LBE733:
 1604              	.LBB734:
 532:Menus.cpp     ****         screen.DrawPixel(i * 3, (screen.Height() / 2), on);
 1605              		.loc 2 532 25 view .LVU405
 1606 0018 96F8E001 		ldrb	r0, [r6, #480]	@ zero_extendqisi2
 1607 001c 2246     		mov	r2, r4
 1608 001e 0023     		movs	r3, #0
 1609              	.LVL113:
 1610              	.L98:
 532:Menus.cpp     ****         screen.DrawPixel(i * 3, (screen.Height() / 2), on);
 1611              		.loc 2 532 9 is_stmt 1 discriminator 2 view .LVU406
 1612              	.LBB735:
 1613              	.LBI735:
 1614              		.loc 1 41 10 discriminator 2 view .LVU407
 1615              	.LBB736:
 1616              	.LBI736:
 239:../../libdaisy/src/dev/oled_ssd130x.h ****     {
 1617              		.loc 5 239 10 discriminator 2 view .LVU408
 1618              	.LBB737:
 241:../../libdaisy/src/dev/oled_ssd130x.h ****             return;
 1619              		.loc 5 241 9 is_stmt 0 discriminator 2 view .LVU409
 1620 0020 7F2B     		cmp	r3, #127
 1621 0022 0CD8     		bhi	.L94
 1622              	.L177:
 1623              	.LVL114:
 1624              	.LBB738:
 1625              	.LBI738:
 239:../../libdaisy/src/dev/oled_ssd130x.h ****     {
 1626              		.loc 5 239 10 is_stmt 1 view .LVU410
 239:../../libdaisy/src/dev/oled_ssd130x.h ****     {
 1627              		.loc 5 239 10 is_stmt 0 view .LVU411
 1628              	.LBE738:
 244:../../libdaisy/src/dev/oled_ssd130x.h ****         else
 1629              		.loc 5 244 42 view .LVU412
 1630 0024 92F81412 		ldrb	r1, [r2, #532]	@ zero_extendqisi2
 243:../../libdaisy/src/dev/oled_ssd130x.h ****             buffer_[x + (y / 8) * width] |= (1 << (y % 8));
 1631              		.loc 5 243 9 view .LVU413
 1632 0028 0028     		cmp	r0, #0
 1633 002a 00F0D780 		beq	.L95
 244:../../libdaisy/src/dev/oled_ssd130x.h ****         else
 1634              		.loc 5 244 42 view .LVU414
 1635 002e 41F00101 		orr	r1, r1, #1
 1636 0032 82F81412 		strb	r1, [r2, #532]
 1637              	.L96:
 1638              	.LVL115:
 244:../../libdaisy/src/dev/oled_ssd130x.h ****         else
 1639              		.loc 5 244 42 view .LVU415
 1640              	.LBE737:
 1641              	.LBE736:
 1642              	.LBE735:
 530:Menus.cpp     ****     for(int i = 0; i < screen.Width(); i++)
 1643              		.loc 2 530 5 is_stmt 1 view .LVU416
 530:Menus.cpp     ****     for(int i = 0; i < screen.Width(); i++)
 1644              		.loc 2 530 22 view .LVU417
 1645 0036 0333     		adds	r3, r3, #3
 1646 0038 0332     		adds	r2, r2, #3
ARM GAS  C:\Users\VINCIU~1\AppData\Local\Temp\ccnesEGk.s 			page 63


 532:Menus.cpp     ****         screen.DrawPixel(i * 3, (screen.Height() / 2), on);
 1647              		.loc 2 532 9 view .LVU418
 1648              	.LVL116:
 1649              	.LBB745:
 1650              		.loc 1 41 10 view .LVU419
 1651              	.LBB743:
 239:../../libdaisy/src/dev/oled_ssd130x.h ****     {
 1652              		.loc 5 239 10 view .LVU420
 1653              	.LBB741:
 241:../../libdaisy/src/dev/oled_ssd130x.h ****             return;
 1654              		.loc 5 241 9 is_stmt 0 view .LVU421
 1655 003a 7F2B     		cmp	r3, #127
 1656 003c F2D9     		bls	.L177
 1657              	.L94:
 1658              	.LVL117:
 241:../../libdaisy/src/dev/oled_ssd130x.h ****             return;
 1659              		.loc 5 241 9 view .LVU422
 1660              	.LBE741:
 1661              	.LBE743:
 1662              	.LBE745:
 530:Menus.cpp     ****     for(int i = 0; i < screen.Width(); i++)
 1663              		.loc 2 530 5 is_stmt 1 view .LVU423
 530:Menus.cpp     ****     for(int i = 0; i < screen.Width(); i++)
 1664              		.loc 2 530 22 view .LVU424
 1665 003e 0333     		adds	r3, r3, #3
 1666 0040 0332     		adds	r2, r2, #3
 1667 0042 B3F5C07F 		cmp	r3, #384
 1668 0046 EBD1     		bne	.L98
 1669              	.LBE734:
 534:Menus.cpp     ****     if(this->buttonLeft.RisingEdge())
 1670              		.loc 2 534 5 view .LVU425
 1671              	.LVL118:
 1672              	.LBB747:
 1673              	.LBI747:
  41:../../libdaisy/src/hid/switch.h ****     ~Switch() {}
  42:../../libdaisy/src/hid/switch.h **** 
  43:../../libdaisy/src/hid/switch.h ****     /** 
  44:../../libdaisy/src/hid/switch.h ****     Initializes the switch object with a given port/pin combo.
  45:../../libdaisy/src/hid/switch.h ****     \param pin port/pin object to tell the switch which hardware pin to use.
  46:../../libdaisy/src/hid/switch.h ****     \param update_rate the rate at which the Debounce() function will be called. (used for timing).
  47:../../libdaisy/src/hid/switch.h ****     \param t switch type -- Default: TYPE_MOMENTARY
  48:../../libdaisy/src/hid/switch.h ****     \param pol switch polarity -- Default: POLARITY_INVERTED
  49:../../libdaisy/src/hid/switch.h ****     \param pu switch pull up/down -- Default: PULL_UP
  50:../../libdaisy/src/hid/switch.h ****     */
  51:../../libdaisy/src/hid/switch.h ****     void
  52:../../libdaisy/src/hid/switch.h ****     Init(dsy_gpio_pin pin, float update_rate, Type t, Polarity pol, Pull pu);
  53:../../libdaisy/src/hid/switch.h **** 
  54:../../libdaisy/src/hid/switch.h ****     /**
  55:../../libdaisy/src/hid/switch.h ****        Simplified Init.
  56:../../libdaisy/src/hid/switch.h ****        \param pin port/pin object to tell the switch which hardware pin to use.
  57:../../libdaisy/src/hid/switch.h ****        \param update_rate the rate at which the Debounce() function will be called. (used for timin
  58:../../libdaisy/src/hid/switch.h ****     */
  59:../../libdaisy/src/hid/switch.h ****     void Init(dsy_gpio_pin pin, float update_rate);
  60:../../libdaisy/src/hid/switch.h **** 
  61:../../libdaisy/src/hid/switch.h ****     /** 
  62:../../libdaisy/src/hid/switch.h ****     Called at update_rate to debounce and handle timing for the switch.
  63:../../libdaisy/src/hid/switch.h ****     In order for events not to be missed, its important that the Edge/Pressed checks
ARM GAS  C:\Users\VINCIU~1\AppData\Local\Temp\ccnesEGk.s 			page 64


  64:../../libdaisy/src/hid/switch.h ****     be made at the same rate as the debounce function is being called.
  65:../../libdaisy/src/hid/switch.h ****     */
  66:../../libdaisy/src/hid/switch.h ****     void Debounce();
  67:../../libdaisy/src/hid/switch.h **** 
  68:../../libdaisy/src/hid/switch.h ****     /** \return true if a button was just pressed. */
  69:../../libdaisy/src/hid/switch.h ****     inline bool RisingEdge() const { return state_ == 0x7f; }
 1674              		.loc 4 69 17 view .LVU426
 1675              	.LBB748:
 1676              		.loc 4 69 38 view .LVU427
 1677              		.loc 4 69 38 is_stmt 0 view .LVU428
 1678              	.LBE748:
 1679              	.LBE747:
 534:Menus.cpp     ****     if(this->buttonLeft.RisingEdge())
 1680              		.loc 2 534 5 view .LVU429
 1681 0048 96F85130 		ldrb	r3, [r6, #81]	@ zero_extendqisi2
 1682 004c 7F2B     		cmp	r3, #127
 537:Menus.cpp     ****         this->menuStateGlide = this->menuStateGlide - 1;
 1683              		.loc 2 537 53 view .LVU430
 1684 004e 336F     		ldr	r3, [r6, #112]
 534:Menus.cpp     ****     if(this->buttonLeft.RisingEdge())
 1685              		.loc 2 534 5 view .LVU431
 1686 0050 00F07F81 		beq	.L178
 1687              	.L101:
 543:Menus.cpp     ****     if(this->buttonRight.RisingEdge())
 1688              		.loc 2 543 5 is_stmt 1 view .LVU432
 1689              	.LVL119:
 1690              	.LBB749:
 1691              	.LBI749:
 1692              		.loc 4 69 17 view .LVU433
 1693              	.LBB750:
 1694              		.loc 4 69 38 view .LVU434
 1695              		.loc 4 69 38 is_stmt 0 view .LVU435
 1696              	.LBE750:
 1697              	.LBE749:
 543:Menus.cpp     ****     if(this->buttonRight.RisingEdge())
 1698              		.loc 2 543 5 view .LVU436
 1699 0054 96F86120 		ldrb	r2, [r6, #97]	@ zero_extendqisi2
 1700 0058 7F2A     		cmp	r2, #127
 1701 005a 4ED0     		beq	.L179
 1702              	.L104:
 552:Menus.cpp     ****     if(this->menuStateGlide == 0)
 1703              		.loc 2 552 5 is_stmt 1 view .LVU437
 1704              	.LBB752:
 1705 005c 002B     		cmp	r3, #0
 1706 005e 52D0     		beq	.L103
 575:Menus.cpp     ****     else if(this->menuStateGlide == 1)
 1707              		.loc 2 575 10 view .LVU438
 1708 0060 012B     		cmp	r3, #1
 1709 0062 00F09681 		beq	.L102
 1710 0066 06F58E77 		add	r7, r6, #284
 1711              	.L123:
 1712              	.LBB753:
 568:Menus.cpp     ****         sprintf(this->buffPitchGlide, "Init_%d%%", this->glideInit);
 1713              		.loc 2 568 23 is_stmt 0 view .LVU439
 1714 006a 06F58275 		add	r5, r6, #260
 1715              	.L113:
 568:Menus.cpp     ****         sprintf(this->buffPitchGlide, "Init_%d%%", this->glideInit);
ARM GAS  C:\Users\VINCIU~1\AppData\Local\Temp\ccnesEGk.s 			page 65


 1716              		.loc 2 568 23 view .LVU440
 1717              	.LBE753:
 1718              	.LBE752:
 608:Menus.cpp     ****     screen.SetCursor(6, 4);
 1719              		.loc 2 608 5 is_stmt 1 view .LVU441
 1720              	.LVL120:
 1721              	.LBB862:
 1722              	.LBI862:
 131:../../libdaisy/src/hid/disp/display.h ****     {
 1723              		.loc 6 131 10 view .LVU442
 1724              	.LBB863:
 133:../../libdaisy/src/hid/disp/display.h ****         currentY_ = (y >= Height()) ? Height() - 1 : y;
 1725              		.loc 6 133 9 view .LVU443
 134:../../libdaisy/src/hid/disp/display.h ****     }
 1726              		.loc 6 134 9 view .LVU444
 1727              	.LBE863:
 1728              	.LBE862:
 609:Menus.cpp     ****     screen.WriteString(buffPitchGlide, Font_6x8, true);
 1729              		.loc 2 609 23 is_stmt 0 view .LVU445
 1730 006e 2946     		mov	r1, r5
 1731              	.LBB866:
 1732              	.LBB864:
 133:../../libdaisy/src/hid/disp/display.h ****         currentY_ = (y >= Height()) ? Height() - 1 : y;
 1733              		.loc 6 133 19 view .LVU446
 1734 0070 BD4B     		ldr	r3, .L183
 1735              	.LBE864:
 1736              	.LBE866:
 609:Menus.cpp     ****     screen.WriteString(buffPitchGlide, Font_6x8, true);
 1737              		.loc 2 609 23 view .LVU447
 1738 0072 BE4D     		ldr	r5, .L183+4
 1739 0074 4FF00109 		mov	r9, #1
 1740              	.LBB867:
 1741              	.LBB865:
 133:../../libdaisy/src/hid/disp/display.h ****         currentY_ = (y >= Height()) ? Height() - 1 : y;
 1742              		.loc 6 133 19 view .LVU448
 1743 0078 6360     		str	r3, [r4, #4]
 1744              	.LVL121:
 133:../../libdaisy/src/hid/disp/display.h ****         currentY_ = (y >= Height()) ? Height() - 1 : y;
 1745              		.loc 6 133 19 view .LVU449
 1746              	.LBE865:
 1747              	.LBE867:
 609:Menus.cpp     ****     screen.WriteString(buffPitchGlide, Font_6x8, true);
 1748              		.loc 2 609 5 is_stmt 1 view .LVU450
 609:Menus.cpp     ****     screen.WriteString(buffPitchGlide, Font_6x8, true);
 1749              		.loc 2 609 23 is_stmt 0 view .LVU451
 1750 007a 2046     		mov	r0, r4
 1751 007c CDF80090 		str	r9, [sp]
 1752 0080 95E80C00 		ldm	r5, {r2, r3}
 1753 0084 FFF7FEFF 		bl	_ZN5daisy25OneBitGraphicsDisplayImplINS_11OledDisplayINS_13SSD130xDriverILj128ELj64ENS_24SSD130
 1754              	.LVL122:
 610:Menus.cpp     ****     screen.SetCursor(73, 4);
 1755              		.loc 2 610 5 is_stmt 1 view .LVU452
 1756              	.LBB868:
 1757              	.LBI868:
 131:../../libdaisy/src/hid/disp/display.h ****     {
 1758              		.loc 6 131 10 view .LVU453
 1759              	.LBB869:
ARM GAS  C:\Users\VINCIU~1\AppData\Local\Temp\ccnesEGk.s 			page 66


 133:../../libdaisy/src/hid/disp/display.h ****         currentY_ = (y >= Height()) ? Height() - 1 : y;
 1760              		.loc 6 133 9 view .LVU454
 134:../../libdaisy/src/hid/disp/display.h ****     }
 1761              		.loc 6 134 9 view .LVU455
 133:../../libdaisy/src/hid/disp/display.h ****         currentY_ = (y >= Height()) ? Height() - 1 : y;
 1762              		.loc 6 133 19 is_stmt 0 view .LVU456
 1763 0088 B94B     		ldr	r3, .L183+8
 1764              	.LBE869:
 1765              	.LBE868:
 611:Menus.cpp     ****     screen.WriteString(buffPitchTime, Font_6x8, true);
 1766              		.loc 2 611 23 view .LVU457
 1767 008a CDF80090 		str	r9, [sp]
 1768 008e 3946     		mov	r1, r7
 1769              	.LBB871:
 1770              	.LBB870:
 133:../../libdaisy/src/hid/disp/display.h ****         currentY_ = (y >= Height()) ? Height() - 1 : y;
 1771              		.loc 6 133 19 view .LVU458
 1772 0090 6360     		str	r3, [r4, #4]
 1773              	.LVL123:
 133:../../libdaisy/src/hid/disp/display.h ****         currentY_ = (y >= Height()) ? Height() - 1 : y;
 1774              		.loc 6 133 19 view .LVU459
 1775              	.LBE870:
 1776              	.LBE871:
 611:Menus.cpp     ****     screen.WriteString(buffPitchTime, Font_6x8, true);
 1777              		.loc 2 611 5 is_stmt 1 view .LVU460
 611:Menus.cpp     ****     screen.WriteString(buffPitchTime, Font_6x8, true);
 1778              		.loc 2 611 23 is_stmt 0 view .LVU461
 1779 0092 2046     		mov	r0, r4
 1780 0094 95E80C00 		ldm	r5, {r2, r3}
 1781 0098 FFF7FEFF 		bl	_ZN5daisy25OneBitGraphicsDisplayImplINS_11OledDisplayINS_13SSD130xDriverILj128ELj64ENS_24SSD130
 1782              	.LVL124:
 612:Menus.cpp     ****     screen.DrawLine(margin,
 1783              		.loc 2 612 5 is_stmt 1 view .LVU462
 612:Menus.cpp     ****     screen.DrawLine(margin,
 1784              		.loc 2 612 20 is_stmt 0 view .LVU463
 1785 009c 96ED227A 		vldr.32	s14, [r6, #136]
 1786 00a0 D6ED237A 		vldr.32	s15, [r6, #140]
 1787 00a4 BCEEC77A 		vcvt.u32.f32	s14, s14
 1788 00a8 FCEEE77A 		vcvt.u32.f32	s15, s15
 1789              	.LBB872:
 1790              	.LBB873:
 188:../../libdaisy/src/hid/disp/display.h ****         int_fast16_t signX  = ((x1 < x2) ? 1 : -1);
 1791              		.loc 6 188 52 view .LVU464
 1792 00ac 17EE103A 		vmov	r3, s14	@ int
 1793              	.LBE873:
 1794              	.LBE872:
 612:Menus.cpp     ****     screen.DrawLine(margin,
 1795              		.loc 2 612 20 view .LVU465
 1796 00b0 8DED057A 		vstr.32	s14, [sp, #20]	@ int
 1797 00b4 17EE908A 		vmov	r8, s15	@ int
 1798              	.LVL125:
 1799              	.LBB913:
 1800              	.LBI872:
 181:../../libdaisy/src/hid/disp/display.h ****                   uint_fast8_t y1,
 1801              		.loc 6 181 10 is_stmt 1 view .LVU466
 1802              	.LBB908:
 188:../../libdaisy/src/hid/disp/display.h ****         int_fast16_t signX  = ((x1 < x2) ? 1 : -1);
ARM GAS  C:\Users\VINCIU~1\AppData\Local\Temp\ccnesEGk.s 			page 67


 1803              		.loc 6 188 52 is_stmt 0 view .LVU467
 1804 00b8 C3F1200A 		rsb	r10, r3, #32
 187:../../libdaisy/src/hid/disp/display.h ****         int_fast16_t deltaY = abs((int_fast16_t)y2 - (int_fast16_t)y1);
 1805              		.loc 6 187 52 view .LVU468
 1806 00bc A8F10A07 		sub	r7, r8, #10
 188:../../libdaisy/src/hid/disp/display.h ****         int_fast16_t signX  = ((x1 < x2) ? 1 : -1);
 1807              		.loc 6 188 22 view .LVU469
 1808 00c0 BAF1000F 		cmp	r10, #0
 1809 00c4 B8BF     		it	lt
 1810 00c6 CAF1000A 		rsblt	r10, r10, #0
 187:../../libdaisy/src/hid/disp/display.h ****         int_fast16_t deltaY = abs((int_fast16_t)y2 - (int_fast16_t)y1);
 1811              		.loc 6 187 22 view .LVU470
 1812 00ca 002F     		cmp	r7, #0
 1813 00cc B8BF     		it	lt
 1814 00ce 7F42     		rsblt	r7, r7, #0
 1815              	.LVL126:
 189:../../libdaisy/src/hid/disp/display.h ****         int_fast16_t signY  = ((y1 < y2) ? 1 : -1);
 1816              		.loc 6 189 42 view .LVU471
 1817 00d0 B8F10A0F 		cmp	r8, #10
 1818 00d4 40F22F81 		bls	.L125
 1819              	.LVL127:
 190:../../libdaisy/src/hid/disp/display.h ****         int_fast16_t error  = deltaX - deltaY;
 1820              		.loc 6 190 42 view .LVU472
 1821 00d8 1F2B     		cmp	r3, #31
 191:../../libdaisy/src/hid/disp/display.h ****         int_fast16_t error2;
 1822              		.loc 6 191 22 view .LVU473
 1823 00da A7EB0A01 		sub	r1, r7, r10
 1824              	.LVL128:
 1825              	.LBB874:
 1826              	.LBI874:
 1827              		.loc 1 41 10 is_stmt 1 view .LVU474
 1828              	.LBB875:
  42:../../libdaisy/src/hid/disp/oled_display.h ****     {
  43:../../libdaisy/src/hid/disp/oled_display.h ****         driver_.DrawPixel(x, y, on);
 1829              		.loc 1 43 26 is_stmt 0 view .LVU475
 1830 00de 04F10805 		add	r5, r4, #8
 1831              	.LBE875:
 1832              	.LBE874:
 190:../../libdaisy/src/hid/disp/display.h ****         int_fast16_t error  = deltaX - deltaY;
 1833              		.loc 6 190 42 view .LVU476
 1834 00e2 40F23A81 		bls	.L126
 1835              	.LVL129:
 1836              	.LBB895:
 1837              	.LBB888:
 1838              	.LBB876:
 1839              	.LBI876:
 239:../../libdaisy/src/dev/oled_ssd130x.h ****     {
 1840              		.loc 5 239 10 is_stmt 1 view .LVU477
 1841              	.LBB877:
 241:../../libdaisy/src/dev/oled_ssd130x.h ****             return;
 1842              		.loc 5 241 9 is_stmt 0 view .LVU478
 1843 00e6 B8F17F0F 		cmp	r8, #127
 1844              	.LBE877:
 1845              	.LBE876:
 1846              	.LBE888:
 1847              	.LBE895:
 189:../../libdaisy/src/hid/disp/display.h ****         int_fast16_t signY  = ((y1 < y2) ? 1 : -1);
ARM GAS  C:\Users\VINCIU~1\AppData\Local\Temp\ccnesEGk.s 			page 68


 1848              		.loc 6 189 42 view .LVU479
 1849 00ea CDF81C90 		str	r9, [sp, #28]
 1850              	.LBB896:
 1851              	.LBB889:
 1852              	.LBB882:
 1853              	.LBB878:
 241:../../libdaisy/src/dev/oled_ssd130x.h ****             return;
 1854              		.loc 5 241 9 view .LVU480
 1855 00ee 40F28580 		bls	.L140
 1856              	.LBE878:
 1857              	.LBE882:
 1858              	.LBE889:
 1859              	.LBE896:
 190:../../libdaisy/src/hid/disp/display.h ****         int_fast16_t error  = deltaX - deltaY;
 1860              		.loc 6 190 42 view .LVU481
 1861 00f2 4FF0FF33 		mov	r3, #-1
 1862              	.LVL130:
 190:../../libdaisy/src/hid/disp/display.h ****         int_fast16_t error  = deltaX - deltaY;
 1863              		.loc 6 190 42 view .LVU482
 1864 00f6 0693     		str	r3, [sp, #24]
 1865 00f8 90E0     		b	.L127
 1866              	.LVL131:
 1867              	.L179:
 190:../../libdaisy/src/hid/disp/display.h ****         int_fast16_t error  = deltaX - deltaY;
 1868              		.loc 6 190 42 view .LVU483
 1869              	.LBE908:
 1870              	.LBE913:
 546:Menus.cpp     ****         this->menuStateGlide = this->menuStateGlide + 1;
 1871              		.loc 2 546 9 is_stmt 1 view .LVU484
 546:Menus.cpp     ****         this->menuStateGlide = this->menuStateGlide + 1;
 1872              		.loc 2 546 53 is_stmt 0 view .LVU485
 1873 00fa 0133     		adds	r3, r3, #1
 547:Menus.cpp     ****         if(this->menuStateGlide > 1)
 1874              		.loc 2 547 9 view .LVU486
 1875 00fc 012B     		cmp	r3, #1
 546:Menus.cpp     ****         this->menuStateGlide = this->menuStateGlide + 1;
 1876              		.loc 2 546 30 view .LVU487
 1877 00fe 3367     		str	r3, [r6, #112]
 547:Menus.cpp     ****         if(this->menuStateGlide > 1)
 1878              		.loc 2 547 9 is_stmt 1 view .LVU488
 1879 0100 ACDD     		ble	.L104
 1880              	.L105:
 549:Menus.cpp     ****             this->menuStateGlide = 0;
 1881              		.loc 2 549 13 view .LVU489
 549:Menus.cpp     ****             this->menuStateGlide = 0;
 1882              		.loc 2 549 34 is_stmt 0 view .LVU490
 1883 0102 0023     		movs	r3, #0
 1884 0104 3367     		str	r3, [r6, #112]
 552:Menus.cpp     ****     if(this->menuStateGlide == 0)
 1885              		.loc 2 552 5 is_stmt 1 view .LVU491
 1886              	.L103:
 1887              	.LBB914:
 1888              	.LBB809:
 554:Menus.cpp     ****         if(this->glideInit > 100)
 1889              		.loc 2 554 9 view .LVU492
 554:Menus.cpp     ****         if(this->glideInit > 100)
 1890              		.loc 2 554 18 is_stmt 0 view .LVU493
ARM GAS  C:\Users\VINCIU~1\AppData\Local\Temp\ccnesEGk.s 			page 69


 1891 0106 D6F89030 		ldr	r3, [r6, #144]
 554:Menus.cpp     ****         if(this->glideInit > 100)
 1892              		.loc 2 554 9 view .LVU494
 1893 010a 642B     		cmp	r3, #100
 1894 010c 6BDC     		bgt	.L141
 558:Menus.cpp     ****         if(this->glideInit < -100)
 1895              		.loc 2 558 9 is_stmt 1 view .LVU495
 1896 010e 13F1640F 		cmn	r3, #100
 1897 0112 80F2E181 		bge	.L180
 1898 0116 DFED977A 		vldr.32	s15, .L183+12
 1899 011a 6FF06303 		mvn	r3, #99
 1900              	.L107:
 563:Menus.cpp     ****         int glideScale;
 1901              		.loc 2 563 9 view .LVU496
 564:Menus.cpp     ****         glideScale = screen.Height() - ((this->glideInit + 212) * 0.15);
 1902              		.loc 2 564 9 view .LVU497
 1903              	.LVL132:
 565:Menus.cpp     ****         this->glideInit += this->encoderRight.Increment();
 1904              		.loc 2 565 9 view .LVU498
 1905              	.LBB754:
 1906              	.LBI754:
 1907              		.loc 3 41 20 view .LVU499
 1908              	.LBB755:
 1909              		.loc 3 41 40 view .LVU500
 1910              		.loc 3 41 40 is_stmt 0 view .LVU501
 1911              	.LBE755:
 1912              	.LBE754:
 565:Menus.cpp     ****         this->glideInit += this->encoderRight.Increment();
 1913              		.loc 2 565 25 view .LVU502
 1914 011e B26C     		ldr	r2, [r6, #72]
 568:Menus.cpp     ****         sprintf(this->buffPitchGlide, "Init_%d%%", this->glideInit);
 1915              		.loc 2 568 23 view .LVU503
 1916 0120 06F58275 		add	r5, r6, #260
 568:Menus.cpp     ****         sprintf(this->buffPitchGlide, "Init_%d%%", this->glideInit);
 1917              		.loc 2 568 16 view .LVU504
 1918 0124 9449     		ldr	r1, .L183+16
 565:Menus.cpp     ****         this->glideInit += this->encoderRight.Increment();
 1919              		.loc 2 565 25 view .LVU505
 1920 0126 1A44     		add	r2, r2, r3
 568:Menus.cpp     ****         sprintf(this->buffPitchGlide, "Init_%d%%", this->glideInit);
 1921              		.loc 2 568 16 view .LVU506
 1922 0128 2846     		mov	r0, r5
 566:Menus.cpp     ****         circleGlidePosition = glideScale;
 1923              		.loc 2 566 29 view .LVU507
 1924 012a C6ED227A 		vstr.32	s15, [r6, #136]
 565:Menus.cpp     ****         this->glideInit += this->encoderRight.Increment();
 1925              		.loc 2 565 25 view .LVU508
 1926 012e C6F89020 		str	r2, [r6, #144]
 1927              	.LVL133:
 566:Menus.cpp     ****         circleGlidePosition = glideScale;
 1928              		.loc 2 566 9 is_stmt 1 view .LVU509
 568:Menus.cpp     ****         sprintf(this->buffPitchGlide, "Init_%d%%", this->glideInit);
 1929              		.loc 2 568 9 view .LVU510
 568:Menus.cpp     ****         sprintf(this->buffPitchGlide, "Init_%d%%", this->glideInit);
 1930              		.loc 2 568 16 is_stmt 0 view .LVU511
 1931 0132 FFF7FEFF 		bl	sprintf
 1932              	.LVL134:
ARM GAS  C:\Users\VINCIU~1\AppData\Local\Temp\ccnesEGk.s 			page 70


 573:Menus.cpp     ****         screen.DrawRect(0, 0, 66, 13, true, false);
 1933              		.loc 2 573 9 is_stmt 1 view .LVU512
 1934              	.LBB756:
 1935              	.LBI756:
 217:../../libdaisy/src/hid/disp/display.h ****                   uint_fast8_t y1,
 1936              		.loc 6 217 10 view .LVU513
 1937              	.LBB757:
 1938              	.LBI757:
 181:../../libdaisy/src/hid/disp/display.h ****                   uint_fast8_t y1,
 1939              		.loc 6 181 10 view .LVU514
 1940              	.LBB758:
 1941              	.LBB759:
 1942              	.LBI759:
  41:../../libdaisy/src/hid/disp/oled_display.h ****     {
 1943              		.loc 1 41 10 view .LVU515
 1944              	.LBB760:
 1945              	.LBI760:
 239:../../libdaisy/src/dev/oled_ssd130x.h ****     {
 1946              		.loc 5 239 10 view .LVU516
 1947              	.LBB761:
 244:../../libdaisy/src/dev/oled_ssd130x.h ****         else
 1948              		.loc 5 244 42 is_stmt 0 view .LVU517
 1949 0136 94F85620 		ldrb	r2, [r4, #86]	@ zero_extendqisi2
 1950 013a 04F11303 		add	r3, r4, #19
 1951 013e 04F15501 		add	r1, r4, #85
 1952 0142 42F00102 		orr	r2, r2, #1
 1953 0146 84F85620 		strb	r2, [r4, #86]
 1954              	.LVL135:
 244:../../libdaisy/src/dev/oled_ssd130x.h ****         else
 1955              		.loc 5 244 42 view .LVU518
 1956              	.LBE761:
 1957              	.LBE760:
 1958              	.LBE759:
 199:../../libdaisy/src/hid/disp/display.h ****         {
 1959              		.loc 6 199 26 is_stmt 1 view .LVU519
 1960              	.L108:
 1961              	.LBB762:
 1962              	.LBI762:
  41:../../libdaisy/src/hid/disp/oled_display.h ****     {
 1963              		.loc 1 41 10 view .LVU520
 1964              	.LBB763:
 1965              	.LBI763:
 239:../../libdaisy/src/dev/oled_ssd130x.h ****     {
 1966              		.loc 5 239 10 view .LVU521
 1967              	.LBB764:
 244:../../libdaisy/src/dev/oled_ssd130x.h ****         else
 1968              		.loc 5 244 42 is_stmt 0 view .LVU522
 1969 014a 13F8012F 		ldrb	r2, [r3, #1]!	@ zero_extendqisi2
 244:../../libdaisy/src/dev/oled_ssd130x.h ****         else
 1970              		.loc 5 244 42 view .LVU523
 1971 014e 42F00102 		orr	r2, r2, #1
 1972              	.LBE764:
 1973              	.LBE763:
 1974              	.LBE762:
 199:../../libdaisy/src/hid/disp/display.h ****         {
 1975              		.loc 6 199 26 view .LVU524
 1976 0152 9942     		cmp	r1, r3
ARM GAS  C:\Users\VINCIU~1\AppData\Local\Temp\ccnesEGk.s 			page 71


 1977              	.LBB767:
 1978              	.LBB766:
 1979              	.LBB765:
 244:../../libdaisy/src/dev/oled_ssd130x.h ****         else
 1980              		.loc 5 244 42 view .LVU525
 1981 0154 1A70     		strb	r2, [r3]
 1982              	.LVL136:
 244:../../libdaisy/src/dev/oled_ssd130x.h ****         else
 1983              		.loc 5 244 42 view .LVU526
 1984              	.LBE765:
 1985              	.LBE766:
 1986              	.LBE767:
 199:../../libdaisy/src/hid/disp/display.h ****         {
 1987              		.loc 6 199 26 is_stmt 1 view .LVU527
 1988 0156 F8D1     		bne	.L108
 1989              	.LVL137:
 199:../../libdaisy/src/hid/disp/display.h ****         {
 1990              		.loc 6 199 26 is_stmt 0 view .LVU528
 1991              	.LBE758:
 1992              	.LBE757:
 1993              	.LBB768:
 1994              	.LBI768:
 181:../../libdaisy/src/hid/disp/display.h ****                   uint_fast8_t y1,
 1995              		.loc 6 181 10 is_stmt 1 view .LVU529
 1996              	.LBB769:
 1997              	.LBB770:
 1998              	.LBI770:
  41:../../libdaisy/src/hid/disp/oled_display.h ****     {
 1999              		.loc 1 41 10 view .LVU530
 2000              	.LBB771:
 2001              	.LBI771:
 239:../../libdaisy/src/dev/oled_ssd130x.h ****     {
 2002              		.loc 5 239 10 view .LVU531
 2003              	.LBB772:
 244:../../libdaisy/src/dev/oled_ssd130x.h ****         else
 2004              		.loc 5 244 42 is_stmt 0 view .LVU532
 2005 0158 94F8D620 		ldrb	r2, [r4, #214]	@ zero_extendqisi2
 2006 015c 0023     		movs	r3, #0
 2007 015e 42F02002 		orr	r2, r2, #32
 2008 0162 84F8D620 		strb	r2, [r4, #214]
 2009              	.LVL138:
 244:../../libdaisy/src/dev/oled_ssd130x.h ****         else
 2010              		.loc 5 244 42 view .LVU533
 2011              	.LBE772:
 2012              	.LBE771:
 2013              	.LBE770:
 199:../../libdaisy/src/hid/disp/display.h ****         {
 2014              		.loc 6 199 26 is_stmt 1 view .LVU534
 2015              	.L109:
 2016              	.LBB773:
 2017              	.LBI773:
  41:../../libdaisy/src/hid/disp/oled_display.h ****     {
 2018              		.loc 1 41 10 view .LVU535
 2019              	.LBB774:
 2020              	.LBI774:
 239:../../libdaisy/src/dev/oled_ssd130x.h ****     {
 2021              		.loc 5 239 10 view .LVU536
ARM GAS  C:\Users\VINCIU~1\AppData\Local\Temp\ccnesEGk.s 			page 72


 2022              	.LBB775:
 244:../../libdaisy/src/dev/oled_ssd130x.h ****         else
 2023              		.loc 5 244 28 is_stmt 0 view .LVU537
 2024 0166 D908     		lsrs	r1, r3, #3
 244:../../libdaisy/src/dev/oled_ssd130x.h ****         else
 2025              		.loc 5 244 54 view .LVU538
 2026 0168 03F00700 		and	r0, r3, #7
 244:../../libdaisy/src/dev/oled_ssd130x.h ****         else
 2027              		.loc 5 244 48 view .LVU539
 2028 016c 0122     		movs	r2, #1
 244:../../libdaisy/src/dev/oled_ssd130x.h ****         else
 2029              		.loc 5 244 42 view .LVU540
 2030 016e 04EBC111 		add	r1, r4, r1, lsl #7
 2031              	.LBE775:
 2032              	.LBE774:
 2033              	.LBE773:
 212:../../libdaisy/src/hid/disp/display.h ****             }
 2034              		.loc 6 212 20 view .LVU541
 2035 0172 1344     		add	r3, r3, r2
 2036              	.LVL139:
 2037              	.LBB780:
 2038              	.LBB778:
 2039              	.LBB776:
 244:../../libdaisy/src/dev/oled_ssd130x.h ****         else
 2040              		.loc 5 244 48 view .LVU542
 2041 0174 8240     		lsls	r2, r2, r0
 244:../../libdaisy/src/dev/oled_ssd130x.h ****         else
 2042              		.loc 5 244 42 view .LVU543
 2043 0176 91F85600 		ldrb	r0, [r1, #86]	@ zero_extendqisi2
 2044              	.LBE776:
 2045              	.LBE778:
 2046              	.LBE780:
 199:../../libdaisy/src/hid/disp/display.h ****         {
 2047              		.loc 6 199 26 view .LVU544
 2048 017a 0D2B     		cmp	r3, #13
 2049              	.LBB781:
 2050              	.LBB779:
 2051              	.LBB777:
 244:../../libdaisy/src/dev/oled_ssd130x.h ****         else
 2052              		.loc 5 244 42 view .LVU545
 2053 017c 42EA0002 		orr	r2, r2, r0
 2054 0180 81F85620 		strb	r2, [r1, #86]
 2055              	.LVL140:
 244:../../libdaisy/src/dev/oled_ssd130x.h ****         else
 2056              		.loc 5 244 42 view .LVU546
 2057              	.LBE777:
 2058              	.LBE779:
 2059              	.LBE781:
 199:../../libdaisy/src/hid/disp/display.h ****         {
 2060              		.loc 6 199 26 is_stmt 1 view .LVU547
 2061 0184 EFD1     		bne	.L109
 2062              	.LVL141:
 199:../../libdaisy/src/hid/disp/display.h ****         {
 2063              		.loc 6 199 26 is_stmt 0 view .LVU548
 2064              	.LBE769:
 2065              	.LBE768:
 2066              	.LBB782:
ARM GAS  C:\Users\VINCIU~1\AppData\Local\Temp\ccnesEGk.s 			page 73


 2067              	.LBI782:
 181:../../libdaisy/src/hid/disp/display.h ****                   uint_fast8_t y1,
 2068              		.loc 6 181 10 is_stmt 1 view .LVU549
 2069              	.LBB783:
 2070              	.LBB784:
 2071              	.LBI784:
  41:../../libdaisy/src/hid/disp/oled_display.h ****     {
 2072              		.loc 1 41 10 view .LVU550
 2073              	.LBB785:
 2074              	.LBI785:
 239:../../libdaisy/src/dev/oled_ssd130x.h ****     {
 2075              		.loc 5 239 10 view .LVU551
 2076              	.LBB786:
 244:../../libdaisy/src/dev/oled_ssd130x.h ****         else
 2077              		.loc 5 244 42 is_stmt 0 view .LVU552
 2078 0186 94F89420 		ldrb	r2, [r4, #148]	@ zero_extendqisi2
 2079 018a 04F1D701 		add	r1, r4, #215
 2080 018e 04F19507 		add	r7, r4, #149
 2081 0192 42F02002 		orr	r2, r2, #32
 2082 0196 84F89420 		strb	r2, [r4, #148]
 2083              	.LVL142:
 244:../../libdaisy/src/dev/oled_ssd130x.h ****         else
 2084              		.loc 5 244 42 view .LVU553
 2085              	.LBE786:
 2086              	.LBE785:
 2087              	.LBE784:
 199:../../libdaisy/src/hid/disp/display.h ****         {
 2088              		.loc 6 199 26 is_stmt 1 view .LVU554
 2089              	.L110:
 2090              	.LBB787:
 2091              	.LBI787:
  41:../../libdaisy/src/hid/disp/oled_display.h ****     {
 2092              		.loc 1 41 10 view .LVU555
 2093              	.LBB788:
 2094              	.LBI788:
 239:../../libdaisy/src/dev/oled_ssd130x.h ****     {
 2095              		.loc 5 239 10 view .LVU556
 2096              	.LBB789:
 244:../../libdaisy/src/dev/oled_ssd130x.h ****         else
 2097              		.loc 5 244 42 is_stmt 0 view .LVU557
 2098 019a 11F8010D 		ldrb	r0, [r1, #-1]!	@ zero_extendqisi2
 244:../../libdaisy/src/dev/oled_ssd130x.h ****         else
 2099              		.loc 5 244 42 view .LVU558
 2100 019e 40F02000 		orr	r0, r0, #32
 2101              	.LBE789:
 2102              	.LBE788:
 2103              	.LBE787:
 199:../../libdaisy/src/hid/disp/display.h ****         {
 2104              		.loc 6 199 26 view .LVU559
 2105 01a2 8F42     		cmp	r7, r1
 2106              	.LBB792:
 2107              	.LBB791:
 2108              	.LBB790:
 244:../../libdaisy/src/dev/oled_ssd130x.h ****         else
 2109              		.loc 5 244 42 view .LVU560
 2110 01a4 0870     		strb	r0, [r1]
 2111              	.LVL143:
ARM GAS  C:\Users\VINCIU~1\AppData\Local\Temp\ccnesEGk.s 			page 74


 244:../../libdaisy/src/dev/oled_ssd130x.h ****         else
 2112              		.loc 5 244 42 view .LVU561
 2113              	.LBE790:
 2114              	.LBE791:
 2115              	.LBE792:
 199:../../libdaisy/src/hid/disp/display.h ****         {
 2116              		.loc 6 199 26 is_stmt 1 view .LVU562
 2117 01a6 F8D1     		bne	.L110
 2118              	.LVL144:
 199:../../libdaisy/src/hid/disp/display.h ****         {
 2119              		.loc 6 199 26 is_stmt 0 view .LVU563
 2120              	.LBE783:
 2121              	.LBE782:
 2122              	.LBB793:
 2123              	.LBI793:
 181:../../libdaisy/src/hid/disp/display.h ****                   uint_fast8_t y1,
 2124              		.loc 6 181 10 is_stmt 1 view .LVU564
 2125              	.LBB794:
 2126              	.LBB795:
 2127              	.LBI795:
  41:../../libdaisy/src/hid/disp/oled_display.h ****     {
 2128              		.loc 1 41 10 view .LVU565
 2129              	.LBB796:
 2130              	.LBI796:
 239:../../libdaisy/src/dev/oled_ssd130x.h ****     {
 2131              		.loc 5 239 10 view .LVU566
 2132              	.LBB797:
 244:../../libdaisy/src/dev/oled_ssd130x.h ****         else
 2133              		.loc 5 244 42 is_stmt 0 view .LVU567
 2134 01a8 217D     		ldrb	r1, [r4, #20]	@ zero_extendqisi2
 2135 01aa 0120     		movs	r0, #1
 2136 01ac 41F00101 		orr	r1, r1, #1
 2137 01b0 2175     		strb	r1, [r4, #20]
 2138              	.LVL145:
 244:../../libdaisy/src/dev/oled_ssd130x.h ****         else
 2139              		.loc 5 244 42 view .LVU568
 2140              	.LBE797:
 2141              	.LBE796:
 2142              	.LBE795:
 199:../../libdaisy/src/hid/disp/display.h ****         {
 2143              		.loc 6 199 26 is_stmt 1 view .LVU569
 2144 01b2 02E0     		b	.L112
 2145              	.LVL146:
 2146              	.L181:
 2147              	.LBB798:
 2148              	.LBB799:
 2149              	.LBB800:
 244:../../libdaisy/src/dev/oled_ssd130x.h ****         else
 2150              		.loc 5 244 42 is_stmt 0 view .LVU570
 2151 01b4 04EBC012 		add	r2, r4, r0, lsl #7
 2152 01b8 127D     		ldrb	r2, [r2, #20]	@ zero_extendqisi2
 2153              	.LVL147:
 2154              	.L112:
 244:../../libdaisy/src/dev/oled_ssd130x.h ****         else
 2155              		.loc 5 244 42 view .LVU571
 2156              	.LBE800:
 2157              	.LBE799:
ARM GAS  C:\Users\VINCIU~1\AppData\Local\Temp\ccnesEGk.s 			page 75


 2158              	.LBI798:
  41:../../libdaisy/src/hid/disp/oled_display.h ****     {
 2159              		.loc 1 41 10 is_stmt 1 view .LVU572
 2160              	.LBB804:
 2161              	.LBI799:
 239:../../libdaisy/src/dev/oled_ssd130x.h ****     {
 2162              		.loc 5 239 10 view .LVU573
 2163              	.LBB801:
 244:../../libdaisy/src/dev/oled_ssd130x.h ****         else
 2164              		.loc 5 244 54 is_stmt 0 view .LVU574
 2165 01ba 03F00707 		and	r7, r3, #7
 244:../../libdaisy/src/dev/oled_ssd130x.h ****         else
 2166              		.loc 5 244 48 view .LVU575
 2167 01be 0121     		movs	r1, #1
 244:../../libdaisy/src/dev/oled_ssd130x.h ****         else
 2168              		.loc 5 244 42 view .LVU576
 2169 01c0 04EBC010 		add	r0, r4, r0, lsl #7
 2170              	.LBE801:
 2171              	.LBE804:
 2172              	.LBE798:
 199:../../libdaisy/src/hid/disp/display.h ****         {
 2173              		.loc 6 199 26 view .LVU577
 2174 01c4 013B     		subs	r3, r3, #1
 2175              	.LVL148:
 2176              	.LBB807:
 2177              	.LBB805:
 2178              	.LBB802:
 244:../../libdaisy/src/dev/oled_ssd130x.h ****         else
 2179              		.loc 5 244 48 view .LVU578
 2180 01c6 01FA07F1 		lsl	r1, r1, r7
 244:../../libdaisy/src/dev/oled_ssd130x.h ****         else
 2181              		.loc 5 244 42 view .LVU579
 2182 01ca 42EA0102 		orr	r2, r2, r1
 2183 01ce 0275     		strb	r2, [r0, #20]
 2184              	.LVL149:
 244:../../libdaisy/src/dev/oled_ssd130x.h ****         else
 2185              		.loc 5 244 42 view .LVU580
 2186              	.LBE802:
 2187              	.LBE805:
 2188              	.LBE807:
 199:../../libdaisy/src/hid/disp/display.h ****         {
 2189              		.loc 6 199 26 is_stmt 1 view .LVU581
 2190              	.LBB808:
 2191              	.LBB806:
 2192              	.LBB803:
 244:../../libdaisy/src/dev/oled_ssd130x.h ****         else
 2193              		.loc 5 244 28 is_stmt 0 view .LVU582
 2194 01d0 4FEAD300 		lsr	r0, r3, #3
 2195              	.LBE803:
 2196              	.LBE806:
 2197              	.LBE808:
 199:../../libdaisy/src/hid/disp/display.h ****         {
 2198              		.loc 6 199 26 view .LVU583
 2199 01d4 EED1     		bne	.L181
 2200              	.LBE794:
 2201              	.LBE793:
 2202              	.LBE756:
ARM GAS  C:\Users\VINCIU~1\AppData\Local\Temp\ccnesEGk.s 			page 76


 2203              	.LBE809:
 604:Menus.cpp     ****         sprintf(this->buffPitchTime, "Time_%d%%", (int)this->glideTime);
 2204              		.loc 2 604 23 view .LVU584
 2205 01d6 06F58E77 		add	r7, r6, #284
 2206 01da 48E7     		b	.L113
 2207              	.LVL150:
 2208              	.L95:
 604:Menus.cpp     ****         sprintf(this->buffPitchTime, "Time_%d%%", (int)this->glideTime);
 2209              		.loc 2 604 23 view .LVU585
 2210              	.LBE914:
 2211              	.LBB915:
 2212              	.LBB746:
 2213              	.LBB744:
 2214              	.LBB742:
 2215              	.LBB740:
 2216              	.LBB739:
 246:../../libdaisy/src/dev/oled_ssd130x.h ****     }
 2217              		.loc 5 246 42 view .LVU586
 2218 01dc 21F00101 		bic	r1, r1, #1
 2219 01e0 82F81412 		strb	r1, [r2, #532]
 2220 01e4 27E7     		b	.L96
 2221              	.LVL151:
 2222              	.L141:
 246:../../libdaisy/src/dev/oled_ssd130x.h ****     }
 2223              		.loc 5 246 42 view .LVU587
 2224              	.LBE739:
 2225              	.LBE740:
 2226              	.LBE742:
 2227              	.LBE744:
 2228              	.LBE746:
 2229              	.LBE915:
 2230              	.LBB916:
 2231              	.LBB810:
 2232 01e6 F3EE017A 		vmov.f32	s15, #1.7e+1
 2233 01ea 6423     		movs	r3, #100
 2234 01ec 97E7     		b	.L107
 2235              	.LVL152:
 2236              	.L182:
 246:../../libdaisy/src/dev/oled_ssd130x.h ****     }
 2237              		.loc 5 246 42 view .LVU588
 2238              	.LBE810:
 2239              	.LBE916:
 2240              	.LBB917:
 2241              	.LBB909:
 189:../../libdaisy/src/hid/disp/display.h ****         int_fast16_t signY  = ((y1 < y2) ? 1 : -1);
 2242              		.loc 6 189 42 view .LVU589
 2243 01ee 4FF0FF33 		mov	r3, #-1
 191:../../libdaisy/src/hid/disp/display.h ****         int_fast16_t error2;
 2244              		.loc 6 191 22 view .LVU590
 2245 01f2 A7EB0A01 		sub	r1, r7, r10
 2246              	.LVL153:
 2247              	.LBB897:
  41:../../libdaisy/src/hid/disp/oled_display.h ****     {
 2248              		.loc 1 41 10 is_stmt 1 view .LVU591
 2249              	.LBB890:
 2250              		.loc 1 43 26 is_stmt 0 view .LVU592
 2251 01f6 04F10805 		add	r5, r4, #8
ARM GAS  C:\Users\VINCIU~1\AppData\Local\Temp\ccnesEGk.s 			page 77


 2252              	.LVL154:
 2253              	.LBB883:
 239:../../libdaisy/src/dev/oled_ssd130x.h ****     {
 2254              		.loc 5 239 10 is_stmt 1 view .LVU593
 2255              	.LBE883:
 2256              	.LBE890:
 2257              	.LBE897:
 189:../../libdaisy/src/hid/disp/display.h ****         int_fast16_t signY  = ((y1 < y2) ? 1 : -1);
 2258              		.loc 6 189 42 is_stmt 0 view .LVU594
 2259 01fa 0793     		str	r3, [sp, #28]
 2260              	.LVL155:
 2261              	.L140:
 190:../../libdaisy/src/hid/disp/display.h ****         int_fast16_t error  = deltaX - deltaY;
 2262              		.loc 6 190 42 view .LVU595
 2263 01fc 4FF0FF33 		mov	r3, #-1
 2264 0200 0693     		str	r3, [sp, #24]
 2265              	.LVL156:
 2266              	.L136:
 2267              	.LBB898:
 2268              	.LBB891:
 2269              	.LBB884:
 2270              	.LBB879:
 244:../../libdaisy/src/dev/oled_ssd130x.h ****         else
 2271              		.loc 5 244 42 view .LVU596
 2272 0202 08F50073 		add	r3, r8, #512
 2273 0206 2344     		add	r3, r3, r4
 2274 0208 1A7D     		ldrb	r2, [r3, #20]	@ zero_extendqisi2
 2275 020a 42F00102 		orr	r2, r2, #1
 2276 020e 1A75     		strb	r2, [r3, #20]
 2277              	.LVL157:
 244:../../libdaisy/src/dev/oled_ssd130x.h ****         else
 2278              		.loc 5 244 42 view .LVU597
 2279              	.LBE879:
 2280              	.LBE884:
 2281              	.LBE891:
 2282              	.LBE898:
 199:../../libdaisy/src/hid/disp/display.h ****         {
 2283              		.loc 6 199 26 is_stmt 1 view .LVU598
 2284 0210 059B     		ldr	r3, [sp, #20]
 2285 0212 202B     		cmp	r3, #32
 2286 0214 02D1     		bne	.L127
 199:../../libdaisy/src/hid/disp/display.h ****         {
 2287              		.loc 6 199 26 is_stmt 0 view .LVU599
 2288 0216 B8F10A0F 		cmp	r8, #10
 2289 021a 2AD0     		beq	.L128
 2290              	.L127:
 2291              	.LVL158:
 203:../../libdaisy/src/hid/disp/display.h ****             {
 2292              		.loc 6 203 23 view .LVU600
 2293 021c CAF10009 		rsb	r9, r10, #0
 2294              	.LBE909:
 2295              	.LBE917:
 612:Menus.cpp     ****     screen.DrawLine(margin,
 2296              		.loc 2 612 20 view .LVU601
 2297 0220 059A     		ldr	r2, [sp, #20]
 2298              	.LBB918:
 2299              	.LBB910:
ARM GAS  C:\Users\VINCIU~1\AppData\Local\Temp\ccnesEGk.s 			page 78


 203:../../libdaisy/src/hid/disp/display.h ****             {
 2300              		.loc 6 203 23 view .LVU602
 2301 0222 4FF00A0C 		mov	ip, #10
 2302              	.L131:
 2303              	.LVL159:
 2304              	.LBB899:
 2305              	.LBI899:
  41:../../libdaisy/src/hid/disp/oled_display.h ****     {
 2306              		.loc 1 41 10 is_stmt 1 view .LVU603
 2307              	.LBB900:
 2308              	.LBI900:
 239:../../libdaisy/src/dev/oled_ssd130x.h ****     {
 2309              		.loc 5 239 10 view .LVU604
 2310              	.LBB901:
 244:../../libdaisy/src/dev/oled_ssd130x.h ****         else
 2311              		.loc 5 244 48 is_stmt 0 view .LVU605
 2312 0226 4FF0010B 		mov	fp, #1
 244:../../libdaisy/src/dev/oled_ssd130x.h ****         else
 2313              		.loc 5 244 28 view .LVU606
 2314 022a D308     		lsrs	r3, r2, #3
 244:../../libdaisy/src/dev/oled_ssd130x.h ****         else
 2315              		.loc 5 244 54 view .LVU607
 2316 022c 02F00700 		and	r0, r2, #7
 241:../../libdaisy/src/dev/oled_ssd130x.h ****             return;
 2317              		.loc 5 241 9 view .LVU608
 2318 0230 BCF17F0F 		cmp	ip, #127
 244:../../libdaisy/src/dev/oled_ssd130x.h ****         else
 2319              		.loc 5 244 42 view .LVU609
 2320 0234 0CEBC313 		add	r3, ip, r3, lsl #7
 2321              	.LBE901:
 2322              	.LBE900:
 2323              	.LBE899:
 202:../../libdaisy/src/hid/disp/display.h ****             if(error2 > -deltaY)
 2324              		.loc 6 202 20 view .LVU610
 2325 0238 01FA0BFE 		lsl	lr, r1, fp
 2326              	.LVL160:
 2327              	.LBB904:
 2328              	.LBB903:
 2329              	.LBB902:
 244:../../libdaisy/src/dev/oled_ssd130x.h ****         else
 2330              		.loc 5 244 48 view .LVU611
 2331 023c 0BFA00F0 		lsl	r0, fp, r0
 241:../../libdaisy/src/dev/oled_ssd130x.h ****             return;
 2332              		.loc 5 241 9 view .LVU612
 2333 0240 07D8     		bhi	.L132
 2334 0242 3F2A     		cmp	r2, #63
 244:../../libdaisy/src/dev/oled_ssd130x.h ****         else
 2335              		.loc 5 244 42 view .LVU613
 2336 0244 2344     		add	r3, r3, r4
 241:../../libdaisy/src/dev/oled_ssd130x.h ****             return;
 2337              		.loc 5 241 9 view .LVU614
 2338 0246 04D8     		bhi	.L132
 244:../../libdaisy/src/dev/oled_ssd130x.h ****         else
 2339              		.loc 5 244 42 view .LVU615
 2340 0248 93F814B0 		ldrb	fp, [r3, #20]	@ zero_extendqisi2
 2341 024c 40EA0B00 		orr	r0, r0, fp
 2342 0250 1875     		strb	r0, [r3, #20]
ARM GAS  C:\Users\VINCIU~1\AppData\Local\Temp\ccnesEGk.s 			page 79


 2343              	.L132:
 244:../../libdaisy/src/dev/oled_ssd130x.h ****         else
 2344              		.loc 5 244 42 view .LVU616
 2345              	.LBE902:
 2346              	.LBE903:
 2347              	.LBE904:
 203:../../libdaisy/src/hid/disp/display.h ****             {
 2348              		.loc 6 203 13 view .LVU617
 2349 0252 B9EB410F 		cmp	r9, r1, lsl #1
 2350 0256 03DA     		bge	.L133
 206:../../libdaisy/src/hid/disp/display.h ****             }
 2351              		.loc 6 206 20 view .LVU618
 2352 0258 079B     		ldr	r3, [sp, #28]
 205:../../libdaisy/src/hid/disp/display.h ****                 x1 += signX;
 2353              		.loc 6 205 23 view .LVU619
 2354 025a A1EB0A01 		sub	r1, r1, r10
 2355              	.LVL161:
 206:../../libdaisy/src/hid/disp/display.h ****             }
 2356              		.loc 6 206 20 view .LVU620
 2357 025e 9C44     		add	ip, ip, r3
 2358              	.LVL162:
 2359              	.L133:
 209:../../libdaisy/src/hid/disp/display.h ****             {
 2360              		.loc 6 209 13 view .LVU621
 2361 0260 7745     		cmp	r7, lr
 2362 0262 02DD     		ble	.L134
 212:../../libdaisy/src/hid/disp/display.h ****             }
 2363              		.loc 6 212 20 view .LVU622
 2364 0264 069B     		ldr	r3, [sp, #24]
 211:../../libdaisy/src/hid/disp/display.h ****                 y1 += signY;
 2365              		.loc 6 211 23 view .LVU623
 2366 0266 3944     		add	r1, r1, r7
 2367              	.LVL163:
 212:../../libdaisy/src/hid/disp/display.h ****             }
 2368              		.loc 6 212 20 view .LVU624
 2369 0268 1A44     		add	r2, r2, r3
 2370              	.LVL164:
 2371              	.L134:
 199:../../libdaisy/src/hid/disp/display.h ****         {
 2372              		.loc 6 199 26 is_stmt 1 view .LVU625
 2373 026a E045     		cmp	r8, ip
 2374 026c DBD1     		bne	.L131
 199:../../libdaisy/src/hid/disp/display.h ****         {
 2375              		.loc 6 199 26 is_stmt 0 view .LVU626
 2376 026e 202A     		cmp	r2, #32
 2377 0270 D9D1     		bne	.L131
 2378              	.LVL165:
 2379              	.L128:
 199:../../libdaisy/src/hid/disp/display.h ****         {
 2380              		.loc 6 199 26 view .LVU627
 2381              	.LBE910:
 2382              	.LBE918:
 617:Menus.cpp     ****     screen.DrawCircle(margin, circleGlidePosition, 3, true);
 2383              		.loc 2 617 5 is_stmt 1 view .LVU628
 2384              	.LBB919:
 2385              	.LBI919:
 100:../../libdaisy/src/hid/disp/display.h ****     {
ARM GAS  C:\Users\VINCIU~1\AppData\Local\Temp\ccnesEGk.s 			page 80


 2386              		.loc 6 100 5 view .LVU629
 2387              	.LBB920:
 102:../../libdaisy/src/hid/disp/display.h ****     };
 2388              		.loc 6 102 9 view .LVU630
 102:../../libdaisy/src/hid/disp/display.h ****     };
 2389              		.loc 6 102 41 is_stmt 0 view .LVU631
 2390 0272 2368     		ldr	r3, [r4]
 102:../../libdaisy/src/hid/disp/display.h ****     };
 2391              		.loc 6 102 16 view .LVU632
 2392 0274 4FF00109 		mov	r9, #1
 2393 0278 0027     		movs	r7, #0
 2394 027a 4FF4B478 		mov	r8, #360
 2395 027e 2046     		mov	r0, r4
 2396 0280 059A     		ldr	r2, [sp, #20]
 2397 0282 0097     		str	r7, [sp]
 2398 0284 0A21     		movs	r1, #10
 2399 0286 CDE90189 		strd	r8, r9, [sp, #4]
 2400 028a D3F820A0 		ldr	r10, [r3, #32]
 2401 028e 0323     		movs	r3, #3
 2402 0290 D047     		blx	r10
 2403              	.LVL166:
 102:../../libdaisy/src/hid/disp/display.h ****     };
 2404              		.loc 6 102 16 view .LVU633
 2405              	.LBE920:
 2406              	.LBE919:
 618:Menus.cpp     ****     screen.DrawCircle(circleGlideTimePosition, screen.Height() / 2, 3, true);
 2407              		.loc 2 618 5 is_stmt 1 view .LVU634
 2408              	.LBB921:
 2409              	.LBI921:
 100:../../libdaisy/src/hid/disp/display.h ****     {
 2410              		.loc 6 100 5 view .LVU635
 2411              	.LBB922:
 102:../../libdaisy/src/hid/disp/display.h ****     };
 2412              		.loc 6 102 9 view .LVU636
 2413              	.LBE922:
 2414              	.LBE921:
 618:Menus.cpp     ****     screen.DrawCircle(circleGlideTimePosition, screen.Height() / 2, 3, true);
 2415              		.loc 2 618 22 is_stmt 0 view .LVU637
 2416 0292 D6ED237A 		vldr.32	s15, [r6, #140]
 2417              	.LBB925:
 2418              	.LBB923:
 102:../../libdaisy/src/hid/disp/display.h ****     };
 2419              		.loc 6 102 16 view .LVU638
 2420 0296 0097     		str	r7, [sp]
 2421              	.LVL167:
 102:../../libdaisy/src/hid/disp/display.h ****     };
 2422              		.loc 6 102 16 view .LVU639
 2423 0298 2046     		mov	r0, r4
 2424 029a FCEEE77A 		vcvt.u32.f32	s15, s15
 2425              	.LVL168:
 102:../../libdaisy/src/hid/disp/display.h ****     };
 2426              		.loc 6 102 16 view .LVU640
 2427 029e 0323     		movs	r3, #3
 2428 02a0 2022     		movs	r2, #32
 2429              	.LBE923:
 2430              	.LBE925:
 2431              	.LBB926:
ARM GAS  C:\Users\VINCIU~1\AppData\Local\Temp\ccnesEGk.s 			page 81


 2432              	.LBB927:
 2433              	.LBB928:
 2434              	.LBB929:
 2435              	.LBB930:
 111:../../libdaisy/src/dev/oled_ssd130x.h ****         spi_.BlockingTransmit(&cmd, 1);
 2436              		.loc 5 111 24 view .LVU641
 2437 02a2 05F10807 		add	r7, r5, #8
 2438              	.LBE930:
 2439              	.LBE929:
 2440              	.LBE928:
 2441              	.LBE927:
 2442              	.LBE926:
 2443              	.LBB950:
 2444              	.LBB924:
 102:../../libdaisy/src/hid/disp/display.h ****     };
 2445              		.loc 6 102 16 view .LVU642
 2446 02a6 CDE90189 		strd	r8, r9, [sp, #4]
 102:../../libdaisy/src/hid/disp/display.h ****     };
 2447              		.loc 6 102 41 view .LVU643
 2448 02aa 2668     		ldr	r6, [r4]
 2449              	.LVL169:
 102:../../libdaisy/src/hid/disp/display.h ****     };
 2450              		.loc 6 102 16 view .LVU644
 2451 02ac 17EE901A 		vmov	r1, s15	@ int
 2452 02b0 05F20C49 		addw	r9, r5, #1036
 2453 02b4 346A     		ldr	r4, [r6, #32]
 2454              	.LVL170:
 102:../../libdaisy/src/hid/disp/display.h ****     };
 2455              		.loc 6 102 16 view .LVU645
 2456 02b6 05F10C06 		add	r6, r5, #12
 2457 02ba A047     		blx	r4
 2458              	.LVL171:
 102:../../libdaisy/src/hid/disp/display.h ****     };
 2459              		.loc 6 102 16 view .LVU646
 2460              	.LBE924:
 2461              	.LBE950:
 621:Menus.cpp     ****     screen.Update();
 2462              		.loc 2 621 5 is_stmt 1 view .LVU647
 2463              	.LBB951:
 2464              	.LBI926:
  44:../../libdaisy/src/hid/disp/oled_display.h ****     }
  45:../../libdaisy/src/hid/disp/oled_display.h **** 
  46:../../libdaisy/src/hid/disp/oled_display.h ****     /** 
  47:../../libdaisy/src/hid/disp/oled_display.h ****     Writes the current display buffer to the OLED device using SPI or I2C depending on 
  48:../../libdaisy/src/hid/disp/oled_display.h ****     how the object was initialized.
  49:../../libdaisy/src/hid/disp/oled_display.h ****     */
  50:../../libdaisy/src/hid/disp/oled_display.h ****     void Update() override { driver_.Update(); }
 2465              		.loc 1 50 10 view .LVU648
 2466              	.LBB949:
 2467              	.LBI927:
 260:../../libdaisy/src/dev/oled_ssd130x.h ****     {
 2468              		.loc 5 260 10 view .LVU649
 2469              	.LBB948:
 2470              		.loc 5 270 22 view .LVU650
 2471              	.LBB935:
 2472              	.LBB931:
 111:../../libdaisy/src/dev/oled_ssd130x.h ****         spi_.BlockingTransmit(&cmd, 1);
ARM GAS  C:\Users\VINCIU~1\AppData\Local\Temp\ccnesEGk.s 			page 82


 2473              		.loc 5 111 24 is_stmt 0 view .LVU651
 2474 02bc B024     		movs	r4, #176
 2475              	.LVL172:
 2476              	.L135:
 111:../../libdaisy/src/dev/oled_ssd130x.h ****         spi_.BlockingTransmit(&cmd, 1);
 2477              		.loc 5 111 24 view .LVU652
 2478 02be 4FF00008 		mov	r8, #0
 111:../../libdaisy/src/dev/oled_ssd130x.h ****         spi_.BlockingTransmit(&cmd, 1);
 2479              		.loc 5 111 23 view .LVU653
 2480 02c2 3846     		mov	r0, r7
 2481 02c4 8DF82740 		strb	r4, [sp, #39]
 2482              	.LVL173:
 111:../../libdaisy/src/dev/oled_ssd130x.h ****         spi_.BlockingTransmit(&cmd, 1);
 2483              		.loc 5 111 23 view .LVU654
 2484              	.LBE931:
 2485              	.LBI929:
 109:../../libdaisy/src/dev/oled_ssd130x.h ****     {
 2486              		.loc 5 109 10 is_stmt 1 view .LVU655
 2487              	.LBB932:
 111:../../libdaisy/src/dev/oled_ssd130x.h ****         spi_.BlockingTransmit(&cmd, 1);
 2488              		.loc 5 111 9 view .LVU656
 2489              	.LBE932:
 2490              	.LBE935:
 2491              		.loc 5 270 22 is_stmt 0 view .LVU657
 2492 02c8 0134     		adds	r4, r4, #1
 2493              	.LVL174:
 2494              	.LBB936:
 2495              	.LBB933:
 111:../../libdaisy/src/dev/oled_ssd130x.h ****         spi_.BlockingTransmit(&cmd, 1);
 2496              		.loc 5 111 23 view .LVU658
 2497 02ca 4146     		mov	r1, r8
 2498 02cc FFF7FEFF 		bl	dsy_gpio_write
 2499              	.LVL175:
 112:../../libdaisy/src/dev/oled_ssd130x.h ****     };
 2500              		.loc 5 112 9 is_stmt 1 view .LVU659
 112:../../libdaisy/src/dev/oled_ssd130x.h ****     };
 2501              		.loc 5 112 30 is_stmt 0 view .LVU660
 2502 02d0 6423     		movs	r3, #100
 2503 02d2 0122     		movs	r2, #1
 2504 02d4 0DF12701 		add	r1, sp, #39
 2505 02d8 2846     		mov	r0, r5
 2506              	.LBE933:
 2507              	.LBE936:
 2508              		.loc 5 270 22 view .LVU661
 2509 02da E4B2     		uxtb	r4, r4
 2510              	.LBB937:
 2511              	.LBB934:
 112:../../libdaisy/src/dev/oled_ssd130x.h ****     };
 2512              		.loc 5 112 30 view .LVU662
 2513 02dc FFF7FEFF 		bl	_ZN5daisy9SpiHandle16BlockingTransmitEPhjm
 2514              	.LVL176:
 112:../../libdaisy/src/dev/oled_ssd130x.h ****     };
 2515              		.loc 5 112 30 view .LVU663
 2516              	.LBE934:
 2517              	.LBE937:
 2518              	.LBB938:
 2519              	.LBB939:
ARM GAS  C:\Users\VINCIU~1\AppData\Local\Temp\ccnesEGk.s 			page 83


 111:../../libdaisy/src/dev/oled_ssd130x.h ****         spi_.BlockingTransmit(&cmd, 1);
 2520              		.loc 5 111 23 view .LVU664
 2521 02e0 4146     		mov	r1, r8
 2522 02e2 3846     		mov	r0, r7
 2523 02e4 8DF82780 		strb	r8, [sp, #39]
 2524              	.LVL177:
 111:../../libdaisy/src/dev/oled_ssd130x.h ****         spi_.BlockingTransmit(&cmd, 1);
 2525              		.loc 5 111 23 view .LVU665
 2526              	.LBE939:
 2527              	.LBI938:
 109:../../libdaisy/src/dev/oled_ssd130x.h ****     {
 2528              		.loc 5 109 10 is_stmt 1 view .LVU666
 2529              	.LBB940:
 111:../../libdaisy/src/dev/oled_ssd130x.h ****         spi_.BlockingTransmit(&cmd, 1);
 2530              		.loc 5 111 9 view .LVU667
 111:../../libdaisy/src/dev/oled_ssd130x.h ****         spi_.BlockingTransmit(&cmd, 1);
 2531              		.loc 5 111 23 is_stmt 0 view .LVU668
 2532 02e8 FFF7FEFF 		bl	dsy_gpio_write
 2533              	.LVL178:
 112:../../libdaisy/src/dev/oled_ssd130x.h ****     };
 2534              		.loc 5 112 9 is_stmt 1 view .LVU669
 112:../../libdaisy/src/dev/oled_ssd130x.h ****     };
 2535              		.loc 5 112 30 is_stmt 0 view .LVU670
 2536 02ec 0122     		movs	r2, #1
 2537 02ee 6423     		movs	r3, #100
 2538 02f0 0DF12701 		add	r1, sp, #39
 2539 02f4 2846     		mov	r0, r5
 2540 02f6 FFF7FEFF 		bl	_ZN5daisy9SpiHandle16BlockingTransmitEPhjm
 2541              	.LVL179:
 112:../../libdaisy/src/dev/oled_ssd130x.h ****     };
 2542              		.loc 5 112 30 view .LVU671
 2543 02fa 1023     		movs	r3, #16
 2544              	.LBE940:
 2545              	.LBE938:
 2546              	.LBB941:
 2547              	.LBB942:
 111:../../libdaisy/src/dev/oled_ssd130x.h ****         spi_.BlockingTransmit(&cmd, 1);
 2548              		.loc 5 111 23 view .LVU672
 2549 02fc 4146     		mov	r1, r8
 2550 02fe 3846     		mov	r0, r7
 2551 0300 8DF82730 		strb	r3, [sp, #39]
 2552              	.LVL180:
 111:../../libdaisy/src/dev/oled_ssd130x.h ****         spi_.BlockingTransmit(&cmd, 1);
 2553              		.loc 5 111 23 view .LVU673
 2554              	.LBE942:
 2555              	.LBI941:
 109:../../libdaisy/src/dev/oled_ssd130x.h ****     {
 2556              		.loc 5 109 10 is_stmt 1 view .LVU674
 2557              	.LBB943:
 111:../../libdaisy/src/dev/oled_ssd130x.h ****         spi_.BlockingTransmit(&cmd, 1);
 2558              		.loc 5 111 9 view .LVU675
 111:../../libdaisy/src/dev/oled_ssd130x.h ****         spi_.BlockingTransmit(&cmd, 1);
 2559              		.loc 5 111 23 is_stmt 0 view .LVU676
 2560 0304 FFF7FEFF 		bl	dsy_gpio_write
 2561              	.LVL181:
 112:../../libdaisy/src/dev/oled_ssd130x.h ****     };
 2562              		.loc 5 112 9 is_stmt 1 view .LVU677
ARM GAS  C:\Users\VINCIU~1\AppData\Local\Temp\ccnesEGk.s 			page 84


 112:../../libdaisy/src/dev/oled_ssd130x.h ****     };
 2563              		.loc 5 112 30 is_stmt 0 view .LVU678
 2564 0308 6423     		movs	r3, #100
 2565 030a 0122     		movs	r2, #1
 2566 030c 0DF12701 		add	r1, sp, #39
 2567 0310 2846     		mov	r0, r5
 2568 0312 FFF7FEFF 		bl	_ZN5daisy9SpiHandle16BlockingTransmitEPhjm
 2569              	.LVL182:
 112:../../libdaisy/src/dev/oled_ssd130x.h ****     };
 2570              		.loc 5 112 30 view .LVU679
 2571              	.LBE943:
 2572              	.LBE941:
 2573              	.LBB944:
 2574              	.LBI944:
 115:../../libdaisy/src/dev/oled_ssd130x.h ****     {
 2575              		.loc 5 115 10 is_stmt 1 view .LVU680
 2576              	.LBB945:
 117:../../libdaisy/src/dev/oled_ssd130x.h ****         spi_.BlockingTransmit(buff, size);
 2577              		.loc 5 117 9 view .LVU681
 117:../../libdaisy/src/dev/oled_ssd130x.h ****         spi_.BlockingTransmit(buff, size);
 2578              		.loc 5 117 23 is_stmt 0 view .LVU682
 2579 0316 0121     		movs	r1, #1
 2580 0318 3846     		mov	r0, r7
 2581 031a FFF7FEFF 		bl	dsy_gpio_write
 2582              	.LVL183:
 118:../../libdaisy/src/dev/oled_ssd130x.h ****     };
 2583              		.loc 5 118 9 is_stmt 1 view .LVU683
 118:../../libdaisy/src/dev/oled_ssd130x.h ****     };
 2584              		.loc 5 118 30 is_stmt 0 view .LVU684
 2585 031e 8022     		movs	r2, #128
 2586 0320 3146     		mov	r1, r6
 2587 0322 6423     		movs	r3, #100
 2588              	.LBE945:
 2589              	.LBE944:
 2590              		.loc 5 270 22 view .LVU685
 2591 0324 1644     		add	r6, r6, r2
 2592              	.LVL184:
 2593              	.LBB947:
 2594              	.LBB946:
 118:../../libdaisy/src/dev/oled_ssd130x.h ****     };
 2595              		.loc 5 118 30 view .LVU686
 2596 0326 2846     		mov	r0, r5
 2597 0328 FFF7FEFF 		bl	_ZN5daisy9SpiHandle16BlockingTransmitEPhjm
 2598              	.LVL185:
 118:../../libdaisy/src/dev/oled_ssd130x.h ****     };
 2599              		.loc 5 118 30 view .LVU687
 2600              	.LBE946:
 2601              	.LBE947:
 2602              		.loc 5 270 9 is_stmt 1 view .LVU688
 2603              		.loc 5 270 22 view .LVU689
 2604 032c 4E45     		cmp	r6, r9
 2605 032e C6D1     		bne	.L135
 2606              	.LBE948:
 2607              	.LBE949:
 2608              	.LBE951:
 622:Menus.cpp     **** }
 2609              		.loc 2 622 1 is_stmt 0 view .LVU690
ARM GAS  C:\Users\VINCIU~1\AppData\Local\Temp\ccnesEGk.s 			page 85


 2610 0330 0BB0     		add	sp, sp, #44
 2611              		.cfi_remember_state
 2612              		.cfi_def_cfa_offset 36
 2613              		@ sp needed
 2614 0332 BDE8F08F 		pop	{r4, r5, r6, r7, r8, r9, r10, fp, pc}
 2615              	.LVL186:
 2616              	.L125:
 2617              		.cfi_restore_state
 2618              	.LBB952:
 2619              	.LBB911:
 190:../../libdaisy/src/hid/disp/display.h ****         int_fast16_t error  = deltaX - deltaY;
 2620              		.loc 6 190 42 view .LVU691
 2621 0336 059B     		ldr	r3, [sp, #20]
 2622              	.LVL187:
 190:../../libdaisy/src/hid/disp/display.h ****         int_fast16_t error  = deltaX - deltaY;
 2623              		.loc 6 190 42 view .LVU692
 2624 0338 1F2B     		cmp	r3, #31
 2625 033a 3FF658AF 		bhi	.L182
 2626              	.LVL188:
 189:../../libdaisy/src/hid/disp/display.h ****         int_fast16_t signY  = ((y1 < y2) ? 1 : -1);
 2627              		.loc 6 189 42 view .LVU693
 2628 033e 4FF0FF33 		mov	r3, #-1
 191:../../libdaisy/src/hid/disp/display.h ****         int_fast16_t error2;
 2629              		.loc 6 191 22 view .LVU694
 2630 0342 A7EB0A01 		sub	r1, r7, r10
 2631              	.LVL189:
 2632              	.LBB905:
  41:../../libdaisy/src/hid/disp/oled_display.h ****     {
 2633              		.loc 1 41 10 is_stmt 1 view .LVU695
 2634              	.LBB892:
  43:../../libdaisy/src/hid/disp/oled_display.h ****     }
 2635              		.loc 1 43 26 is_stmt 0 view .LVU696
 2636 0346 04F10805 		add	r5, r4, #8
 2637              	.LVL190:
 2638              	.LBB885:
 239:../../libdaisy/src/dev/oled_ssd130x.h ****     {
 2639              		.loc 5 239 10 is_stmt 1 view .LVU697
 2640              	.LBE885:
 2641              	.LBE892:
 2642              	.LBE905:
 190:../../libdaisy/src/hid/disp/display.h ****         int_fast16_t error  = deltaX - deltaY;
 2643              		.loc 6 190 42 is_stmt 0 view .LVU698
 2644 034a CDF81890 		str	r9, [sp, #24]
 189:../../libdaisy/src/hid/disp/display.h ****         int_fast16_t signY  = ((y1 < y2) ? 1 : -1);
 2645              		.loc 6 189 42 view .LVU699
 2646 034e 0793     		str	r3, [sp, #28]
 2647 0350 57E7     		b	.L136
 2648              	.LVL191:
 2649              	.L178:
 189:../../libdaisy/src/hid/disp/display.h ****         int_fast16_t signY  = ((y1 < y2) ? 1 : -1);
 2650              		.loc 6 189 42 view .LVU700
 2651              	.LBE911:
 2652              	.LBE952:
 537:Menus.cpp     ****         this->menuStateGlide = this->menuStateGlide - 1;
 2653              		.loc 2 537 9 is_stmt 1 view .LVU701
 538:Menus.cpp     ****         if(this->menuStateGlide < 0)
 2654              		.loc 2 538 9 view .LVU702
ARM GAS  C:\Users\VINCIU~1\AppData\Local\Temp\ccnesEGk.s 			page 86


 2655 0352 013B     		subs	r3, r3, #1
 2656 0354 16D4     		bmi	.L100
 537:Menus.cpp     ****         this->menuStateGlide = this->menuStateGlide - 1;
 2657              		.loc 2 537 30 is_stmt 0 view .LVU703
 2658 0356 3367     		str	r3, [r6, #112]
 2659 0358 7CE6     		b	.L101
 2660              	.LVL192:
 2661              	.L126:
 2662              	.LBB953:
 2663              	.LBB912:
 2664              	.LBB906:
 2665              	.LBB893:
 2666              	.LBB886:
 239:../../libdaisy/src/dev/oled_ssd130x.h ****     {
 2667              		.loc 5 239 10 is_stmt 1 view .LVU704
 2668              	.LBB880:
 241:../../libdaisy/src/dev/oled_ssd130x.h ****             return;
 2669              		.loc 5 241 9 is_stmt 0 view .LVU705
 2670 035a B8F17F0F 		cmp	r8, #127
 2671              	.LBE880:
 2672              	.LBE886:
 2673              	.LBE893:
 2674              	.LBE906:
 190:../../libdaisy/src/hid/disp/display.h ****         int_fast16_t error  = deltaX - deltaY;
 2675              		.loc 6 190 42 view .LVU706
 2676 035e CDE90699 		strd	r9, r9, [sp, #24]
 2677              	.LBB907:
 2678              	.LBB894:
 2679              	.LBB887:
 2680              	.LBB881:
 241:../../libdaisy/src/dev/oled_ssd130x.h ****             return;
 2681              		.loc 5 241 9 view .LVU707
 2682 0362 3FF65BAF 		bhi	.L127
 2683 0366 4CE7     		b	.L136
 2684              	.L184:
 2685              		.align	2
 2686              	.L183:
 2687 0368 06000400 		.word	262150
 2688 036c 00000000 		.word	Font_6x8
 2689 0370 49000400 		.word	262217
 2690 0374 00003C42 		.word	1111228416
 2691 0378 00000000 		.word	.LC2
 2692 037c 00000000 		.word	0
 2693 0380 0000C842 		.word	1120403456
 2694              	.LVL193:
 2695              	.L100:
 241:../../libdaisy/src/dev/oled_ssd130x.h ****             return;
 2696              		.loc 5 241 9 view .LVU708
 2697              	.LBE881:
 2698              	.LBE887:
 2699              	.LBE894:
 2700              	.LBE907:
 2701              	.LBE912:
 2702              	.LBE953:
 540:Menus.cpp     ****             this->menuStateGlide = 1;
 2703              		.loc 2 540 13 is_stmt 1 view .LVU709
 543:Menus.cpp     ****     if(this->buttonRight.RisingEdge())
ARM GAS  C:\Users\VINCIU~1\AppData\Local\Temp\ccnesEGk.s 			page 87


 2704              		.loc 2 543 5 is_stmt 0 view .LVU710
 2705 0384 96F86130 		ldrb	r3, [r6, #97]	@ zero_extendqisi2
 540:Menus.cpp     ****             this->menuStateGlide = 1;
 2706              		.loc 2 540 34 view .LVU711
 2707 0388 0122     		movs	r2, #1
 543:Menus.cpp     ****     if(this->buttonRight.RisingEdge())
 2708              		.loc 2 543 5 view .LVU712
 2709 038a 7F2B     		cmp	r3, #127
 540:Menus.cpp     ****             this->menuStateGlide = 1;
 2710              		.loc 2 540 34 view .LVU713
 2711 038c 3267     		str	r2, [r6, #112]
 543:Menus.cpp     ****     if(this->buttonRight.RisingEdge())
 2712              		.loc 2 543 5 is_stmt 1 view .LVU714
 2713              	.LVL194:
 2714              	.LBB954:
 2715              		.loc 4 69 17 view .LVU715
 2716              	.LBB751:
 2717              		.loc 4 69 38 view .LVU716
 2718              		.loc 4 69 38 is_stmt 0 view .LVU717
 2719              	.LBE751:
 2720              	.LBE954:
 543:Menus.cpp     ****     if(this->buttonRight.RisingEdge())
 2721              		.loc 2 543 5 view .LVU718
 2722 038e 3FF4B8AE 		beq	.L105
 2723              	.L102:
 2724              	.LBB955:
 577:Menus.cpp     ****         if(this->glideTime >= 100)
 2725              		.loc 2 577 9 is_stmt 1 view .LVU719
 577:Menus.cpp     ****         if(this->glideTime >= 100)
 2726              		.loc 2 577 18 is_stmt 0 view .LVU720
 2727 0392 D6ED257A 		vldr.32	s15, [r6, #148]
 577:Menus.cpp     ****         if(this->glideTime >= 100)
 2728              		.loc 2 577 9 view .LVU721
 2729 0396 1FED067A 		vldr.32	s14, .L183+24
 2730 039a F4EEC77A 		vcmpe.f32	s15, s14
 2731 039e F1EE10FA 		vmrs	APSR_nzcv, FPSCR
 2732 03a2 80F29680 		bge	.L143
 581:Menus.cpp     ****         if(this->glideTime <= 0)
 2733              		.loc 2 581 9 is_stmt 1 view .LVU722
 2734 03a6 F5EEC07A 		vcmpe.f32	s15, #0
 2735 03aa F1EE10FA 		vmrs	APSR_nzcv, FPSCR
 2736 03ae 01D8     		bhi	.L114
 2737 03b0 5FED0E7A 		vldr.32	s15, .L183+20
 2738              	.L114:
 585:Menus.cpp     ****         if(circleGlidePosition >= 100)
 2739              		.loc 2 585 9 view .LVU723
 585:Menus.cpp     ****         if(circleGlidePosition >= 100)
 2740              		.loc 2 585 12 is_stmt 0 view .LVU724
 2741 03b4 96ED227A 		vldr.32	s14, [r6, #136]
 585:Menus.cpp     ****         if(circleGlidePosition >= 100)
 2742              		.loc 2 585 9 view .LVU725
 2743 03b8 5FED0F6A 		vldr.32	s13, .L183+24
 2744 03bc B4EEE67A 		vcmpe.f32	s14, s13
 2745 03c0 F1EE10FA 		vmrs	APSR_nzcv, FPSCR
 2746 03c4 7CDB     		blt	.L173
 587:Menus.cpp     ****             circleGlidePosition = 100;
 2747              		.loc 2 587 13 is_stmt 1 view .LVU726
ARM GAS  C:\Users\VINCIU~1\AppData\Local\Temp\ccnesEGk.s 			page 88


 587:Menus.cpp     ****             circleGlidePosition = 100;
 2748              		.loc 2 587 33 is_stmt 0 view .LVU727
 2749 03c6 C6ED226A 		vstr.32	s13, [r6, #136]
 589:Menus.cpp     ****         if(circleGlidePosition <= 0)
 2750              		.loc 2 589 9 is_stmt 1 view .LVU728
 2751              	.L117:
 593:Menus.cpp     ****         if(circleGlideTimePosition >= 100)
 2752              		.loc 2 593 9 view .LVU729
 593:Menus.cpp     ****         if(circleGlideTimePosition >= 100)
 2753              		.loc 2 593 12 is_stmt 0 view .LVU730
 2754 03ca D6ED236A 		vldr.32	s13, [r6, #140]
 593:Menus.cpp     ****         if(circleGlideTimePosition >= 100)
 2755              		.loc 2 593 9 view .LVU731
 2756 03ce 1FED147A 		vldr.32	s14, .L183+24
 2757 03d2 F4EEC76A 		vcmpe.f32	s13, s14
 2758 03d6 F1EE10FA 		vmrs	APSR_nzcv, FPSCR
 2759 03da 6EDA     		bge	.L145
 597:Menus.cpp     ****         if(circleGlideTimePosition <= 10)
 2760              		.loc 2 597 9 is_stmt 1 view .LVU732
 2761 03dc B2EE047A 		vmov.f32	s14, #1.0e+1
 2762 03e0 F4EE476A 		vcmp.f32	s13, s14
 2763 03e4 F1EE10FA 		vmrs	APSR_nzcv, FPSCR
 2764 03e8 98BF     		it	ls
 2765 03ea F0EE476A 		vmovls.f32	s13, s14
 2766              	.L119:
 601:Menus.cpp     ****         circleGlideTimePosition += this->encoderRight.Increment();
 2767              		.loc 2 601 9 view .LVU733
 2768              	.LVL195:
 2769              	.LBB811:
 2770              	.LBI811:
 2771              		.loc 3 41 20 view .LVU734
 2772              	.LBB812:
 2773              		.loc 3 41 40 view .LVU735
 2774              		.loc 3 41 40 is_stmt 0 view .LVU736
 2775              	.LBE812:
 2776              	.LBE811:
 601:Menus.cpp     ****         circleGlideTimePosition += this->encoderRight.Increment();
 2777              		.loc 2 601 33 view .LVU737
 2778 03ee 96ED127A 		vldr.32	s14, [r6, #72]	@ int
 604:Menus.cpp     ****         sprintf(this->buffPitchTime, "Time_%d%%", (int)this->glideTime);
 2779              		.loc 2 604 16 view .LVU738
 2780 03f2 06F58E77 		add	r7, r6, #284
 2781 03f6 4649     		ldr	r1, .L185+16
 601:Menus.cpp     ****         circleGlideTimePosition += this->encoderRight.Increment();
 2782              		.loc 2 601 33 view .LVU739
 2783 03f8 B8EEC77A 		vcvt.f32.s32	s14, s14
 604:Menus.cpp     ****         sprintf(this->buffPitchTime, "Time_%d%%", (int)this->glideTime);
 2784              		.loc 2 604 16 view .LVU740
 2785 03fc 3846     		mov	r0, r7
 603:Menus.cpp     ****         this->glideTime += this->encoderRight.Increment();
 2786              		.loc 2 603 25 view .LVU741
 2787 03fe 77EE277A 		vadd.f32	s15, s14, s15
 601:Menus.cpp     ****         circleGlideTimePosition += this->encoderRight.Increment();
 2788              		.loc 2 601 33 view .LVU742
 2789 0402 37EE267A 		vadd.f32	s14, s14, s13
 604:Menus.cpp     ****         sprintf(this->buffPitchTime, "Time_%d%%", (int)this->glideTime);
 2790              		.loc 2 604 16 view .LVU743
ARM GAS  C:\Users\VINCIU~1\AppData\Local\Temp\ccnesEGk.s 			page 89


 2791 0406 FDEEE76A 		vcvt.s32.f32	s13, s15
 603:Menus.cpp     ****         this->glideTime += this->encoderRight.Increment();
 2792              		.loc 2 603 25 view .LVU744
 2793 040a C6ED257A 		vstr.32	s15, [r6, #148]
 601:Menus.cpp     ****         circleGlideTimePosition += this->encoderRight.Increment();
 2794              		.loc 2 601 33 view .LVU745
 2795 040e 86ED237A 		vstr.32	s14, [r6, #140]
 602:Menus.cpp     ****         ;
 2796              		.loc 2 602 9 is_stmt 1 view .LVU746
 603:Menus.cpp     ****         this->glideTime += this->encoderRight.Increment();
 2797              		.loc 2 603 9 view .LVU747
 2798              	.LVL196:
 603:Menus.cpp     ****         this->glideTime += this->encoderRight.Increment();
 2799              		.loc 2 603 9 is_stmt 0 view .LVU748
 2800              	.LBE955:
 2801              		.loc 3 41 40 is_stmt 1 view .LVU749
 2802              	.LBB956:
 604:Menus.cpp     ****         sprintf(this->buffPitchTime, "Time_%d%%", (int)this->glideTime);
 2803              		.loc 2 604 9 view .LVU750
 604:Menus.cpp     ****         sprintf(this->buffPitchTime, "Time_%d%%", (int)this->glideTime);
 2804              		.loc 2 604 16 is_stmt 0 view .LVU751
 2805 0412 16EE902A 		vmov	r2, s13	@ int
 2806 0416 FFF7FEFF 		bl	sprintf
 2807              	.LVL197:
 605:Menus.cpp     ****         screen.DrawRect(67, 0, screen.Width() - 2, 13, true, false);
 2808              		.loc 2 605 9 is_stmt 1 view .LVU752
 2809              	.LBB813:
 2810              	.LBI813:
 217:../../libdaisy/src/hid/disp/display.h ****                   uint_fast8_t y1,
 2811              		.loc 6 217 10 view .LVU753
 2812              	.LBB814:
 2813              	.LBI814:
 181:../../libdaisy/src/hid/disp/display.h ****                   uint_fast8_t y1,
 2814              		.loc 6 181 10 view .LVU754
 2815              	.LBB815:
 2816              	.LBB816:
 2817              	.LBI816:
  41:../../libdaisy/src/hid/disp/oled_display.h ****     {
 2818              		.loc 1 41 10 view .LVU755
 2819              	.LBB817:
 2820              	.LBI817:
 239:../../libdaisy/src/dev/oled_ssd130x.h ****     {
 2821              		.loc 5 239 10 view .LVU756
 2822              	.LBB818:
 244:../../libdaisy/src/dev/oled_ssd130x.h ****         else
 2823              		.loc 5 244 42 is_stmt 0 view .LVU757
 2824 041a 94F89220 		ldrb	r2, [r4, #146]	@ zero_extendqisi2
 2825 041e 04F15603 		add	r3, r4, #86
 2826 0422 04F19101 		add	r1, r4, #145
 2827 0426 42F00102 		orr	r2, r2, #1
 2828 042a 84F89220 		strb	r2, [r4, #146]
 2829              	.LVL198:
 244:../../libdaisy/src/dev/oled_ssd130x.h ****         else
 2830              		.loc 5 244 42 view .LVU758
 2831              	.LBE818:
 2832              	.LBE817:
 2833              	.LBE816:
ARM GAS  C:\Users\VINCIU~1\AppData\Local\Temp\ccnesEGk.s 			page 90


 199:../../libdaisy/src/hid/disp/display.h ****         {
 2834              		.loc 6 199 26 is_stmt 1 view .LVU759
 2835              	.L120:
 2836              	.LBB819:
 2837              	.LBI819:
  41:../../libdaisy/src/hid/disp/oled_display.h ****     {
 2838              		.loc 1 41 10 view .LVU760
 2839              	.LBB820:
 2840              	.LBI820:
 239:../../libdaisy/src/dev/oled_ssd130x.h ****     {
 2841              		.loc 5 239 10 view .LVU761
 2842              	.LBB821:
 244:../../libdaisy/src/dev/oled_ssd130x.h ****         else
 2843              		.loc 5 244 42 is_stmt 0 view .LVU762
 2844 042e 13F8012F 		ldrb	r2, [r3, #1]!	@ zero_extendqisi2
 244:../../libdaisy/src/dev/oled_ssd130x.h ****         else
 2845              		.loc 5 244 42 view .LVU763
 2846 0432 42F00102 		orr	r2, r2, #1
 2847              	.LBE821:
 2848              	.LBE820:
 2849              	.LBE819:
 199:../../libdaisy/src/hid/disp/display.h ****         {
 2850              		.loc 6 199 26 view .LVU764
 2851 0436 9942     		cmp	r1, r3
 2852              	.LBB824:
 2853              	.LBB823:
 2854              	.LBB822:
 244:../../libdaisy/src/dev/oled_ssd130x.h ****         else
 2855              		.loc 5 244 42 view .LVU765
 2856 0438 1A70     		strb	r2, [r3]
 2857              	.LVL199:
 244:../../libdaisy/src/dev/oled_ssd130x.h ****         else
 2858              		.loc 5 244 42 view .LVU766
 2859              	.LBE822:
 2860              	.LBE823:
 2861              	.LBE824:
 199:../../libdaisy/src/hid/disp/display.h ****         {
 2862              		.loc 6 199 26 is_stmt 1 view .LVU767
 2863 043a F8D1     		bne	.L120
 2864              	.LVL200:
 199:../../libdaisy/src/hid/disp/display.h ****         {
 2865              		.loc 6 199 26 is_stmt 0 view .LVU768
 2866              	.LBE815:
 2867              	.LBE814:
 2868              	.LBB825:
 2869              	.LBI825:
 181:../../libdaisy/src/hid/disp/display.h ****                   uint_fast8_t y1,
 2870              		.loc 6 181 10 is_stmt 1 view .LVU769
 2871              	.LBB826:
 2872              	.LBB827:
 2873              	.LBI827:
  41:../../libdaisy/src/hid/disp/oled_display.h ****     {
 2874              		.loc 1 41 10 view .LVU770
 2875              	.LBB828:
 2876              	.LBI828:
 239:../../libdaisy/src/dev/oled_ssd130x.h ****     {
 2877              		.loc 5 239 10 view .LVU771
ARM GAS  C:\Users\VINCIU~1\AppData\Local\Temp\ccnesEGk.s 			page 91


 2878              	.LBB829:
 244:../../libdaisy/src/dev/oled_ssd130x.h ****         else
 2879              		.loc 5 244 42 is_stmt 0 view .LVU772
 2880 043c 94F81221 		ldrb	r2, [r4, #274]	@ zero_extendqisi2
 2881 0440 0023     		movs	r3, #0
 2882 0442 42F02002 		orr	r2, r2, #32
 2883 0446 84F81221 		strb	r2, [r4, #274]
 2884              	.LVL201:
 244:../../libdaisy/src/dev/oled_ssd130x.h ****         else
 2885              		.loc 5 244 42 view .LVU773
 2886              	.LBE829:
 2887              	.LBE828:
 2888              	.LBE827:
 199:../../libdaisy/src/hid/disp/display.h ****         {
 2889              		.loc 6 199 26 is_stmt 1 view .LVU774
 2890              	.L121:
 2891              	.LBB830:
 2892              	.LBI830:
  41:../../libdaisy/src/hid/disp/oled_display.h ****     {
 2893              		.loc 1 41 10 view .LVU775
 2894              	.LBB831:
 2895              	.LBI831:
 239:../../libdaisy/src/dev/oled_ssd130x.h ****     {
 2896              		.loc 5 239 10 view .LVU776
 2897              	.LBB832:
 244:../../libdaisy/src/dev/oled_ssd130x.h ****         else
 2898              		.loc 5 244 28 is_stmt 0 view .LVU777
 2899 044a D908     		lsrs	r1, r3, #3
 244:../../libdaisy/src/dev/oled_ssd130x.h ****         else
 2900              		.loc 5 244 54 view .LVU778
 2901 044c 03F00700 		and	r0, r3, #7
 244:../../libdaisy/src/dev/oled_ssd130x.h ****         else
 2902              		.loc 5 244 48 view .LVU779
 2903 0450 0122     		movs	r2, #1
 244:../../libdaisy/src/dev/oled_ssd130x.h ****         else
 2904              		.loc 5 244 42 view .LVU780
 2905 0452 04EBC111 		add	r1, r4, r1, lsl #7
 2906              	.LBE832:
 2907              	.LBE831:
 2908              	.LBE830:
 212:../../libdaisy/src/hid/disp/display.h ****             }
 2909              		.loc 6 212 20 view .LVU781
 2910 0456 1344     		add	r3, r3, r2
 2911              	.LVL202:
 2912              	.LBB837:
 2913              	.LBB835:
 2914              	.LBB833:
 244:../../libdaisy/src/dev/oled_ssd130x.h ****         else
 2915              		.loc 5 244 48 view .LVU782
 2916 0458 8240     		lsls	r2, r2, r0
 244:../../libdaisy/src/dev/oled_ssd130x.h ****         else
 2917              		.loc 5 244 42 view .LVU783
 2918 045a 91F89200 		ldrb	r0, [r1, #146]	@ zero_extendqisi2
 2919              	.LBE833:
 2920              	.LBE835:
 2921              	.LBE837:
 199:../../libdaisy/src/hid/disp/display.h ****         {
ARM GAS  C:\Users\VINCIU~1\AppData\Local\Temp\ccnesEGk.s 			page 92


 2922              		.loc 6 199 26 view .LVU784
 2923 045e 0D2B     		cmp	r3, #13
 2924              	.LBB838:
 2925              	.LBB836:
 2926              	.LBB834:
 244:../../libdaisy/src/dev/oled_ssd130x.h ****         else
 2927              		.loc 5 244 42 view .LVU785
 2928 0460 42EA0002 		orr	r2, r2, r0
 2929 0464 81F89220 		strb	r2, [r1, #146]
 2930              	.LVL203:
 244:../../libdaisy/src/dev/oled_ssd130x.h ****         else
 2931              		.loc 5 244 42 view .LVU786
 2932              	.LBE834:
 2933              	.LBE836:
 2934              	.LBE838:
 199:../../libdaisy/src/hid/disp/display.h ****         {
 2935              		.loc 6 199 26 is_stmt 1 view .LVU787
 2936 0468 EFD1     		bne	.L121
 2937              	.LVL204:
 199:../../libdaisy/src/hid/disp/display.h ****         {
 2938              		.loc 6 199 26 is_stmt 0 view .LVU788
 2939              	.LBE826:
 2940              	.LBE825:
 2941              	.LBB839:
 2942              	.LBI839:
 181:../../libdaisy/src/hid/disp/display.h ****                   uint_fast8_t y1,
 2943              		.loc 6 181 10 is_stmt 1 view .LVU789
 2944              	.LBB840:
 2945              	.LBB841:
 2946              	.LBI841:
  41:../../libdaisy/src/hid/disp/oled_display.h ****     {
 2947              		.loc 1 41 10 view .LVU790
 2948              	.LBB842:
 2949              	.LBI842:
 239:../../libdaisy/src/dev/oled_ssd130x.h ****     {
 2950              		.loc 5 239 10 view .LVU791
 2951              	.LBB843:
 244:../../libdaisy/src/dev/oled_ssd130x.h ****         else
 2952              		.loc 5 244 42 is_stmt 0 view .LVU792
 2953 046a 94F8D720 		ldrb	r2, [r4, #215]	@ zero_extendqisi2
 2954 046e 04F1D800 		add	r0, r4, #216
 2955 0472 42F02002 		orr	r2, r2, #32
 2956 0476 84F8D720 		strb	r2, [r4, #215]
 2957              	.LVL205:
 244:../../libdaisy/src/dev/oled_ssd130x.h ****         else
 2958              		.loc 5 244 42 view .LVU793
 2959              	.LBE843:
 2960              	.LBE842:
 2961              	.LBE841:
 199:../../libdaisy/src/hid/disp/display.h ****         {
 2962              		.loc 6 199 26 is_stmt 1 view .LVU794
 2963 047a 04F21312 		addw	r2, r4, #275
 2964              	.LVL206:
 2965              	.L122:
 2966              	.LBB844:
 2967              	.LBI844:
  41:../../libdaisy/src/hid/disp/oled_display.h ****     {
ARM GAS  C:\Users\VINCIU~1\AppData\Local\Temp\ccnesEGk.s 			page 93


 2968              		.loc 1 41 10 view .LVU795
 2969              	.LBB845:
 2970              	.LBI845:
 239:../../libdaisy/src/dev/oled_ssd130x.h ****     {
 2971              		.loc 5 239 10 view .LVU796
 2972              	.LBB846:
 244:../../libdaisy/src/dev/oled_ssd130x.h ****         else
 2973              		.loc 5 244 42 is_stmt 0 view .LVU797
 2974 047e 12F8011D 		ldrb	r1, [r2, #-1]!	@ zero_extendqisi2
 244:../../libdaisy/src/dev/oled_ssd130x.h ****         else
 2975              		.loc 5 244 42 view .LVU798
 2976 0482 41F02001 		orr	r1, r1, #32
 2977              	.LBE846:
 2978              	.LBE845:
 2979              	.LBE844:
 199:../../libdaisy/src/hid/disp/display.h ****         {
 2980              		.loc 6 199 26 view .LVU799
 2981 0486 9042     		cmp	r0, r2
 2982              	.LBB849:
 2983              	.LBB848:
 2984              	.LBB847:
 244:../../libdaisy/src/dev/oled_ssd130x.h ****         else
 2985              		.loc 5 244 42 view .LVU800
 2986 0488 1170     		strb	r1, [r2]
 2987              	.LVL207:
 244:../../libdaisy/src/dev/oled_ssd130x.h ****         else
 2988              		.loc 5 244 42 view .LVU801
 2989              	.LBE847:
 2990              	.LBE848:
 2991              	.LBE849:
 199:../../libdaisy/src/hid/disp/display.h ****         {
 2992              		.loc 6 199 26 is_stmt 1 view .LVU802
 2993 048a F8D1     		bne	.L122
 2994              	.LVL208:
 199:../../libdaisy/src/hid/disp/display.h ****         {
 2995              		.loc 6 199 26 is_stmt 0 view .LVU803
 2996              	.LBE840:
 2997              	.LBE839:
 2998              	.LBB850:
 2999              	.LBI850:
 181:../../libdaisy/src/hid/disp/display.h ****                   uint_fast8_t y1,
 3000              		.loc 6 181 10 is_stmt 1 view .LVU804
 3001              	.LBB851:
 3002              	.LBB852:
 3003              	.LBI852:
  41:../../libdaisy/src/hid/disp/oled_display.h ****     {
 3004              		.loc 1 41 10 view .LVU805
 3005              	.LBB853:
 3006              	.LBI853:
 239:../../libdaisy/src/dev/oled_ssd130x.h ****     {
 3007              		.loc 5 239 10 view .LVU806
 3008              	.LBB854:
 244:../../libdaisy/src/dev/oled_ssd130x.h ****         else
 3009              		.loc 5 244 42 is_stmt 0 view .LVU807
 3010 048c 94F85720 		ldrb	r2, [r4, #87]	@ zero_extendqisi2
 3011 0490 42F00102 		orr	r2, r2, #1
 3012 0494 84F85720 		strb	r2, [r4, #87]
ARM GAS  C:\Users\VINCIU~1\AppData\Local\Temp\ccnesEGk.s 			page 94


 3013              	.LVL209:
 244:../../libdaisy/src/dev/oled_ssd130x.h ****         else
 3014              		.loc 5 244 42 view .LVU808
 3015              	.LBE854:
 3016              	.LBE853:
 3017              	.LBE852:
 199:../../libdaisy/src/hid/disp/display.h ****         {
 3018              		.loc 6 199 26 is_stmt 1 view .LVU809
 3019              	.L124:
 3020              	.LBB855:
 3021              	.LBI855:
  41:../../libdaisy/src/hid/disp/oled_display.h ****     {
 3022              		.loc 1 41 10 view .LVU810
 3023              	.LBB856:
 3024              	.LBI856:
 239:../../libdaisy/src/dev/oled_ssd130x.h ****     {
 3025              		.loc 5 239 10 view .LVU811
 3026              	.LBB857:
 244:../../libdaisy/src/dev/oled_ssd130x.h ****         else
 3027              		.loc 5 244 28 is_stmt 0 view .LVU812
 3028 0498 D908     		lsrs	r1, r3, #3
 244:../../libdaisy/src/dev/oled_ssd130x.h ****         else
 3029              		.loc 5 244 54 view .LVU813
 3030 049a 03F00700 		and	r0, r3, #7
 244:../../libdaisy/src/dev/oled_ssd130x.h ****         else
 3031              		.loc 5 244 48 view .LVU814
 3032 049e 0122     		movs	r2, #1
 3033              	.LBE857:
 3034              	.LBE856:
 3035              	.LBE855:
 199:../../libdaisy/src/hid/disp/display.h ****         {
 3036              		.loc 6 199 26 view .LVU815
 3037 04a0 013B     		subs	r3, r3, #1
 3038              	.LVL210:
 3039              	.LBB860:
 3040              	.LBB859:
 3041              	.LBB858:
 244:../../libdaisy/src/dev/oled_ssd130x.h ****         else
 3042              		.loc 5 244 42 view .LVU816
 3043 04a2 04EBC111 		add	r1, r4, r1, lsl #7
 244:../../libdaisy/src/dev/oled_ssd130x.h ****         else
 3044              		.loc 5 244 48 view .LVU817
 3045 04a6 02FA00F2 		lsl	r2, r2, r0
 244:../../libdaisy/src/dev/oled_ssd130x.h ****         else
 3046              		.loc 5 244 42 view .LVU818
 3047 04aa 91F85700 		ldrb	r0, [r1, #87]	@ zero_extendqisi2
 3048 04ae 42EA0002 		orr	r2, r2, r0
 3049 04b2 81F85720 		strb	r2, [r1, #87]
 3050              	.LVL211:
 244:../../libdaisy/src/dev/oled_ssd130x.h ****         else
 3051              		.loc 5 244 42 view .LVU819
 3052              	.LBE858:
 3053              	.LBE859:
 3054              	.LBE860:
 199:../../libdaisy/src/hid/disp/display.h ****         {
 3055              		.loc 6 199 26 is_stmt 1 view .LVU820
 3056 04b6 EFD1     		bne	.L124
ARM GAS  C:\Users\VINCIU~1\AppData\Local\Temp\ccnesEGk.s 			page 95


 3057 04b8 D7E5     		b	.L123
 3058              	.LVL212:
 3059              	.L145:
 199:../../libdaisy/src/hid/disp/display.h ****         {
 3060              		.loc 6 199 26 is_stmt 0 view .LVU821
 3061              	.LBE851:
 3062              	.LBE850:
 3063              	.LBE813:
 3064 04ba F0EE476A 		vmov.f32	s13, s14
 3065 04be 96E7     		b	.L119
 3066              	.L173:
 589:Menus.cpp     ****         if(circleGlidePosition <= 0)
 3067              		.loc 2 589 9 is_stmt 1 view .LVU822
 3068 04c0 B5EEC07A 		vcmpe.f32	s14, #0
 3069 04c4 0023     		movs	r3, #0
 3070 04c6 F1EE10FA 		vmrs	APSR_nzcv, FPSCR
 591:Menus.cpp     ****             circleGlidePosition = 0;
 3071              		.loc 2 591 13 view .LVU823
 591:Menus.cpp     ****             circleGlidePosition = 0;
 3072              		.loc 2 591 33 is_stmt 0 view .LVU824
 3073 04ca 98BF     		it	ls
 3074 04cc C6F88830 		strls	r3, [r6, #136]	@ float
 3075 04d0 7BE7     		b	.L117
 3076              	.L143:
 591:Menus.cpp     ****             circleGlidePosition = 0;
 3077              		.loc 2 591 33 view .LVU825
 3078 04d2 F0EE477A 		vmov.f32	s15, s14
 3079 04d6 6DE7     		b	.L114
 3080              	.L180:
 3081              	.LBB861:
 564:Menus.cpp     ****         glideScale = screen.Height() - ((this->glideInit + 212) * 0.15);
 3082              		.loc 2 564 58 view .LVU826
 3083 04d8 03F1D402 		add	r2, r3, #212
 564:Menus.cpp     ****         glideScale = screen.Height() - ((this->glideInit + 212) * 0.15);
 3084              		.loc 2 564 65 view .LVU827
 3085 04dc 06EE902A 		vmov	s13, r2	@ int
 564:Menus.cpp     ****         glideScale = screen.Height() - ((this->glideInit + 212) * 0.15);
 3086              		.loc 2 564 38 view .LVU828
 3087 04e0 9FED075B 		vldr.64	d5, .L185
 3088 04e4 9FED087B 		vldr.64	d7, .L185+8
 564:Menus.cpp     ****         glideScale = screen.Height() - ((this->glideInit + 212) * 0.15);
 3089              		.loc 2 564 65 view .LVU829
 3090 04e8 B8EEE66B 		vcvt.f64.s32	d6, s13
 564:Menus.cpp     ****         glideScale = screen.Height() - ((this->glideInit + 212) * 0.15);
 3091              		.loc 2 564 38 view .LVU830
 3092 04ec A6EE457B 		vfms.f64	d7, d6, d5
 564:Menus.cpp     ****         glideScale = screen.Height() - ((this->glideInit + 212) * 0.15);
 3093              		.loc 2 564 20 view .LVU831
 3094 04f0 FDEEC77B 		vcvt.s32.f64	s15, d7
 566:Menus.cpp     ****         circleGlidePosition = glideScale;
 3095              		.loc 2 566 29 view .LVU832
 3096 04f4 F8EEE77A 		vcvt.f32.s32	s15, s15
 3097 04f8 11E6     		b	.L107
 3098              	.L186:
 3099 04fa 00BFAFF3 		.align	3
 3099      0080
 3100              	.L185:
ARM GAS  C:\Users\VINCIU~1\AppData\Local\Temp\ccnesEGk.s 			page 96


 3101 0500 33333333 		.word	858993459
 3102 0504 3333C33F 		.word	1069757235
 3103 0508 00000000 		.word	0
 3104 050c 00005040 		.word	1078984704
 3105 0510 0C000000 		.word	.LC3
 3106              	.LBE861:
 3107              	.LBE956:
 3108              		.cfi_endproc
 3109              	.LFE4041:
 3111              		.section	.text._ZN5daisy25OneBitGraphicsDisplayImplINS_11OledDisplayINS_13SSD130xDriverILj128ELj64
 3112              		.align	1
 3113              		.p2align 2,,3
 3114              		.weak	_ZN5daisy25OneBitGraphicsDisplayImplINS_11OledDisplayINS_13SSD130xDriverILj128ELj64ENS_24SSD
 3115              		.syntax unified
 3116              		.thumb
 3117              		.thumb_func
 3118              		.fpu fpv5-d16
 3120              	_ZN5daisy25OneBitGraphicsDisplayImplINS_11OledDisplayINS_13SSD130xDriverILj128ELj64ENS_24SSD130x4Wi
 3121              	.LVL213:
 3122              	.LFB4344:
 217:../../libdaisy/src/hid/disp/display.h ****                   uint_fast8_t y1,
 3123              		.loc 6 217 10 is_stmt 1 view -0
 3124              		.cfi_startproc
 3125              		@ args = 12, pretend = 0, frame = 24
 3126              		@ frame_needed = 0, uses_anonymous_args = 0
 217:../../libdaisy/src/hid/disp/display.h ****                   uint_fast8_t y1,
 3127              		.loc 6 217 10 is_stmt 0 view .LVU834
 3128 0000 2DE9F04F 		push	{r4, r5, r6, r7, r8, r9, r10, fp, lr}
 3129              		.cfi_def_cfa_offset 36
 3130              		.cfi_offset 4, -36
 3131              		.cfi_offset 5, -32
 3132              		.cfi_offset 6, -28
 3133              		.cfi_offset 7, -24
 3134              		.cfi_offset 8, -20
 3135              		.cfi_offset 9, -16
 3136              		.cfi_offset 10, -12
 3137              		.cfi_offset 11, -8
 3138              		.cfi_offset 14, -4
 3139 0004 87B0     		sub	sp, sp, #28
 3140              		.cfi_def_cfa_offset 64
 217:../../libdaisy/src/hid/disp/display.h ****                   uint_fast8_t y1,
 3141              		.loc 6 217 10 view .LVU835
 3142 0006 9DF84850 		ldrb	r5, [sp, #72]	@ zero_extendqisi2
 3143 000a 109C     		ldr	r4, [sp, #64]
 3144 000c 2E46     		mov	r6, r5
 3145 000e 0195     		str	r5, [sp, #4]
 3146 0010 9DF84450 		ldrb	r5, [sp, #68]	@ zero_extendqisi2
 3147              	.LBB1028:
 224:../../libdaisy/src/hid/disp/display.h ****         {
 3148              		.loc 6 224 9 view .LVU836
 3149 0014 9EB3     		cbz	r6, .L188
 3150              	.LVL214:
 224:../../libdaisy/src/hid/disp/display.h ****         {
 3151              		.loc 6 224 9 view .LVU837
 3152              	.LBE1028:
 3153              	.LBB1150:
 3154              	.LBB1151:
ARM GAS  C:\Users\VINCIU~1\AppData\Local\Temp\ccnesEGk.s 			page 97


 226:../../libdaisy/src/hid/disp/display.h ****             {
 3155              		.loc 6 226 40 is_stmt 1 view .LVU838
 3156 0016 9942     		cmp	r1, r3
 3157 0018 2ED8     		bhi	.L187
 3158 001a 9946     		mov	r9, r3
 3159              	.LVL215:
 3160              	.L191:
 3161              	.LBB1152:
 228:../../libdaisy/src/hid/disp/display.h ****                 {
 3162              		.loc 6 228 44 view .LVU839
 3163 001c A242     		cmp	r2, r4
 3164 001e 28D8     		bhi	.L194
 3165              	.LBB1153:
 3166              	.LBB1154:
 3167              	.LBB1155:
 241:../../libdaisy/src/dev/oled_ssd130x.h ****             return;
 3168              		.loc 5 241 14 is_stmt 0 view .LVU840
 3169 0020 7F29     		cmp	r1, #127
 3170 0022 1646     		mov	r6, r2
 3171 0024 94BF     		ite	ls
 3172 0026 0023     		movls	r3, #0
 3173 0028 0123     		movhi	r3, #1
 3174 002a 08E0     		b	.L195
 3175              	.LVL216:
 3176              	.L278:
 244:../../libdaisy/src/dev/oled_ssd130x.h ****         else
 3177              		.loc 5 244 42 view .LVU841
 3178 002c 9CF81480 		ldrb	r8, [ip, #20]	@ zero_extendqisi2
 3179 0030 4EEA080E 		orr	lr, lr, r8
 3180 0034 8CF814E0 		strb	lr, [ip, #20]
 3181              	.LVL217:
 3182              	.L192:
 244:../../libdaisy/src/dev/oled_ssd130x.h ****         else
 3183              		.loc 5 244 42 view .LVU842
 3184              	.LBE1155:
 3185              	.LBE1154:
 3186              	.LBE1153:
 228:../../libdaisy/src/hid/disp/display.h ****                 {
 3187              		.loc 6 228 17 is_stmt 1 view .LVU843
 3188 0038 0136     		adds	r6, r6, #1
 3189              	.LVL218:
 228:../../libdaisy/src/hid/disp/display.h ****                 {
 3190              		.loc 6 228 44 view .LVU844
 3191 003a B442     		cmp	r4, r6
 3192 003c 19D3     		bcc	.L194
 3193              	.L195:
 3194              	.LVL219:
 3195              	.LBB1169:
 3196              	.LBI1153:
  41:../../libdaisy/src/hid/disp/oled_display.h ****     {
 3197              		.loc 1 41 10 view .LVU845
 3198              	.LBB1166:
 3199              	.LBI1154:
 239:../../libdaisy/src/dev/oled_ssd130x.h ****     {
 3200              		.loc 5 239 10 view .LVU846
 3201              	.LBB1163:
 241:../../libdaisy/src/dev/oled_ssd130x.h ****             return;
ARM GAS  C:\Users\VINCIU~1\AppData\Local\Temp\ccnesEGk.s 			page 98


 3202              		.loc 5 241 9 is_stmt 0 view .LVU847
 3203 003e 3F2E     		cmp	r6, #63
 3204 0040 FAD8     		bhi	.L192
 241:../../libdaisy/src/dev/oled_ssd130x.h ****             return;
 3205              		.loc 5 241 9 view .LVU848
 3206 0042 002B     		cmp	r3, #0
 3207 0044 F8D1     		bne	.L192
 3208              	.LVL220:
 3209              	.LBB1156:
 3210              	.LBI1156:
 239:../../libdaisy/src/dev/oled_ssd130x.h ****     {
 3211              		.loc 5 239 10 is_stmt 1 view .LVU849
 239:../../libdaisy/src/dev/oled_ssd130x.h ****     {
 3212              		.loc 5 239 10 is_stmt 0 view .LVU850
 3213              	.LBE1156:
 244:../../libdaisy/src/dev/oled_ssd130x.h ****         else
 3214              		.loc 5 244 28 view .LVU851
 3215 0046 4FEAD60C 		lsr	ip, r6, #3
 244:../../libdaisy/src/dev/oled_ssd130x.h ****         else
 3216              		.loc 5 244 54 view .LVU852
 3217 004a 06F0070E 		and	lr, r6, #7
 244:../../libdaisy/src/dev/oled_ssd130x.h ****         else
 3218              		.loc 5 244 48 view .LVU853
 3219 004e 4FF00108 		mov	r8, #1
 244:../../libdaisy/src/dev/oled_ssd130x.h ****         else
 3220              		.loc 5 244 42 view .LVU854
 3221 0052 01EBCC1C 		add	ip, r1, ip, lsl #7
 244:../../libdaisy/src/dev/oled_ssd130x.h ****         else
 3222              		.loc 5 244 48 view .LVU855
 3223 0056 08FA0EFE 		lsl	lr, r8, lr
 244:../../libdaisy/src/dev/oled_ssd130x.h ****         else
 3224              		.loc 5 244 42 view .LVU856
 3225 005a 8444     		add	ip, ip, r0
 243:../../libdaisy/src/dev/oled_ssd130x.h ****             buffer_[x + (y / 8) * width] |= (1 << (y % 8));
 3226              		.loc 5 243 9 view .LVU857
 3227 005c 002D     		cmp	r5, #0
 3228 005e E5D1     		bne	.L278
 3229              	.LBB1160:
 3230              	.LBB1157:
 246:../../libdaisy/src/dev/oled_ssd130x.h ****     }
 3231              		.loc 5 246 42 view .LVU858
 3232 0060 9CF814B0 		ldrb	fp, [ip, #20]	@ zero_extendqisi2
 3233              	.LBE1157:
 3234              	.LBE1160:
 3235              	.LBE1163:
 3236              	.LBE1166:
 3237              	.LBE1169:
 228:../../libdaisy/src/hid/disp/display.h ****                 {
 3238              		.loc 6 228 17 view .LVU859
 3239 0064 0136     		adds	r6, r6, #1
 3240              	.LVL221:
 3241              	.LBB1170:
 3242              	.LBB1167:
 3243              	.LBB1164:
 3244              	.LBB1161:
 3245              	.LBB1158:
 246:../../libdaisy/src/dev/oled_ssd130x.h ****     }
ARM GAS  C:\Users\VINCIU~1\AppData\Local\Temp\ccnesEGk.s 			page 99


 3246              		.loc 5 246 42 view .LVU860
 3247 0066 2BEA0E0A 		bic	r10, fp, lr
 3248              	.LBE1158:
 3249              	.LBE1161:
 3250              	.LBE1164:
 3251              	.LBE1167:
 3252              	.LBE1170:
 228:../../libdaisy/src/hid/disp/display.h ****                 {
 3253              		.loc 6 228 44 view .LVU861
 3254 006a B442     		cmp	r4, r6
 3255              	.LBB1171:
 3256              	.LBB1168:
 3257              	.LBB1165:
 3258              	.LBB1162:
 3259              	.LBB1159:
 246:../../libdaisy/src/dev/oled_ssd130x.h ****     }
 3260              		.loc 5 246 42 view .LVU862
 3261 006c 8CF814A0 		strb	r10, [ip, #20]
 3262              	.LVL222:
 246:../../libdaisy/src/dev/oled_ssd130x.h ****     }
 3263              		.loc 5 246 42 view .LVU863
 3264              	.LBE1159:
 3265              	.LBE1162:
 3266              	.LBE1165:
 3267              	.LBE1168:
 3268              	.LBE1171:
 228:../../libdaisy/src/hid/disp/display.h ****                 {
 3269              		.loc 6 228 17 is_stmt 1 view .LVU864
 228:../../libdaisy/src/hid/disp/display.h ****                 {
 3270              		.loc 6 228 44 view .LVU865
 3271 0070 E5D2     		bcs	.L195
 3272              	.LVL223:
 3273              	.L194:
 228:../../libdaisy/src/hid/disp/display.h ****                 {
 3274              		.loc 6 228 44 is_stmt 0 view .LVU866
 3275              	.LBE1152:
 226:../../libdaisy/src/hid/disp/display.h ****             {
 3276              		.loc 6 226 13 is_stmt 1 view .LVU867
 3277 0072 0131     		adds	r1, r1, #1
 3278              	.LVL224:
 226:../../libdaisy/src/hid/disp/display.h ****             {
 3279              		.loc 6 226 40 view .LVU868
 3280 0074 8945     		cmp	r9, r1
 3281 0076 D1D2     		bcs	.L191
 3282              	.LVL225:
 3283              	.L187:
 226:../../libdaisy/src/hid/disp/display.h ****             {
 3284              		.loc 6 226 40 is_stmt 0 view .LVU869
 3285              	.LBE1151:
 3286              	.LBE1150:
 241:../../libdaisy/src/hid/disp/display.h **** 
 3287              		.loc 6 241 5 view .LVU870
 3288 0078 07B0     		add	sp, sp, #28
 3289              		.cfi_remember_state
 3290              		.cfi_def_cfa_offset 36
 3291              		@ sp needed
 3292 007a BDE8F08F 		pop	{r4, r5, r6, r7, r8, r9, r10, fp, pc}
ARM GAS  C:\Users\VINCIU~1\AppData\Local\Temp\ccnesEGk.s 			page 100


 3293              	.LVL226:
 3294              	.L188:
 3295              		.cfi_restore_state
 3296              	.LBB1172:
 3297              	.LBB1029:
 3298              	.LBI1029:
 181:../../libdaisy/src/hid/disp/display.h ****                   uint_fast8_t y1,
 3299              		.loc 6 181 10 is_stmt 1 view .LVU871
 3300              	.LBB1030:
 187:../../libdaisy/src/hid/disp/display.h ****         int_fast16_t deltaY = abs((int_fast16_t)y2 - (int_fast16_t)y1);
 3301              		.loc 6 187 52 is_stmt 0 view .LVU872
 3302 007e A3EB0108 		sub	r8, r3, r1
 187:../../libdaisy/src/hid/disp/display.h ****         int_fast16_t deltaY = abs((int_fast16_t)y2 - (int_fast16_t)y1);
 3303              		.loc 6 187 22 view .LVU873
 3304 0082 B8F1000F 		cmp	r8, #0
 3305 0086 B8BF     		it	lt
 3306 0088 C8F10008 		rsblt	r8, r8, #0
 3307              	.LVL227:
 189:../../libdaisy/src/hid/disp/display.h ****         int_fast16_t signY  = ((y1 < y2) ? 1 : -1);
 3308              		.loc 6 189 42 view .LVU874
 3309 008c 9942     		cmp	r1, r3
 3310 008e C0F04E81 		bcc	.L196
 3311              	.LVL228:
 3312              	.LBB1031:
 3313              	.LBI1031:
  41:../../libdaisy/src/hid/disp/oled_display.h ****     {
 3314              		.loc 1 41 10 is_stmt 1 view .LVU875
 3315              	.LBB1032:
 3316              	.LBI1032:
 239:../../libdaisy/src/dev/oled_ssd130x.h ****     {
 3317              		.loc 5 239 10 view .LVU876
 3318              	.LBB1033:
 241:../../libdaisy/src/dev/oled_ssd130x.h ****             return;
 3319              		.loc 5 241 14 is_stmt 0 view .LVU877
 3320 0092 7F2B     		cmp	r3, #127
 3321              	.LBE1033:
 3322              	.LBE1032:
 3323              	.LBE1031:
 189:../../libdaisy/src/hid/disp/display.h ****         int_fast16_t signY  = ((y1 < y2) ? 1 : -1);
 3324              		.loc 6 189 42 view .LVU878
 3325 0094 4FF0FF3A 		mov	r10, #-1
 3326              	.LBB1044:
 3327              	.LBB1040:
 3328              	.LBB1036:
 241:../../libdaisy/src/dev/oled_ssd130x.h ****             return;
 3329              		.loc 5 241 14 view .LVU879
 3330 0098 94BF     		ite	ls
 3331 009a 0026     		movls	r6, #0
 3332 009c 0126     		movhi	r6, #1
 241:../../libdaisy/src/dev/oled_ssd130x.h ****             return;
 3333              		.loc 5 241 28 view .LVU880
 3334 009e 3F2A     		cmp	r2, #63
 241:../../libdaisy/src/dev/oled_ssd130x.h ****             return;
 3335              		.loc 5 241 14 view .LVU881
 3336 00a0 0096     		str	r6, [sp]
 241:../../libdaisy/src/dev/oled_ssd130x.h ****             return;
 3337              		.loc 5 241 28 view .LVU882
ARM GAS  C:\Users\VINCIU~1\AppData\Local\Temp\ccnesEGk.s 			page 101


 3338 00a2 94BF     		ite	ls
 3339 00a4 0027     		movls	r7, #0
 3340 00a6 0127     		movhi	r7, #1
 3341 00a8 0297     		str	r7, [sp, #8]
 241:../../libdaisy/src/dev/oled_ssd130x.h ****             return;
 3342              		.loc 5 241 9 view .LVU883
 3343 00aa A6B9     		cbnz	r6, .L197
 3344 00ac 9FB9     		cbnz	r7, .L197
 3345              	.LVL229:
 3346              	.L238:
 244:../../libdaisy/src/dev/oled_ssd130x.h ****         else
 3347              		.loc 5 244 28 view .LVU884
 3348 00ae D608     		lsrs	r6, r2, #3
 244:../../libdaisy/src/dev/oled_ssd130x.h ****         else
 3349              		.loc 5 244 54 view .LVU885
 3350 00b0 02F0070C 		and	ip, r2, #7
 244:../../libdaisy/src/dev/oled_ssd130x.h ****         else
 3351              		.loc 5 244 48 view .LVU886
 3352 00b4 0127     		movs	r7, #1
 244:../../libdaisy/src/dev/oled_ssd130x.h ****         else
 3353              		.loc 5 244 42 view .LVU887
 3354 00b6 03EBC616 		add	r6, r3, r6, lsl #7
 3355 00ba 0644     		add	r6, r6, r0
 243:../../libdaisy/src/dev/oled_ssd130x.h ****             buffer_[x + (y / 8) * width] |= (1 << (y % 8));
 3356              		.loc 5 243 9 view .LVU888
 3357 00bc 002D     		cmp	r5, #0
 3358 00be 00F09481 		beq	.L198
 244:../../libdaisy/src/dev/oled_ssd130x.h ****         else
 3359              		.loc 5 244 48 view .LVU889
 3360 00c2 07FA0CF7 		lsl	r7, r7, ip
 244:../../libdaisy/src/dev/oled_ssd130x.h ****         else
 3361              		.loc 5 244 42 view .LVU890
 3362 00c6 96F814C0 		ldrb	ip, [r6, #20]	@ zero_extendqisi2
 3363 00ca 47EA0C07 		orr	r7, r7, ip
 3364 00ce 3775     		strb	r7, [r6, #20]
 3365 00d0 0026     		movs	r6, #0
 3366 00d2 0296     		str	r6, [sp, #8]
 3367 00d4 0096     		str	r6, [sp]
 3368              	.L197:
 3369              	.LVL230:
 244:../../libdaisy/src/dev/oled_ssd130x.h ****         else
 3370              		.loc 5 244 42 view .LVU891
 3371              	.LBE1036:
 3372              	.LBE1040:
 3373              	.LBE1044:
 199:../../libdaisy/src/hid/disp/display.h ****         {
 3374              		.loc 6 199 26 is_stmt 1 view .LVU892
 3375 00d6 9942     		cmp	r1, r3
 3376 00d8 00F09781 		beq	.L279
 3377              	.L200:
 3378              	.LVL231:
 187:../../libdaisy/src/hid/disp/display.h ****         int_fast16_t deltaY = abs((int_fast16_t)y2 - (int_fast16_t)y1);
 3379              		.loc 6 187 22 is_stmt 0 view .LVU893
 3380 00dc 4646     		mov	r6, r8
 3381 00de 9446     		mov	ip, r2
 3382 00e0 8E46     		mov	lr, r1
 3383              	.LVL232:
ARM GAS  C:\Users\VINCIU~1\AppData\Local\Temp\ccnesEGk.s 			page 102


 3384              	.L202:
 3385              	.LBB1045:
 3386              	.LBI1045:
  41:../../libdaisy/src/hid/disp/oled_display.h ****     {
 3387              		.loc 1 41 10 is_stmt 1 view .LVU894
 3388              	.LBB1046:
 3389              	.LBI1046:
 239:../../libdaisy/src/dev/oled_ssd130x.h ****     {
 3390              		.loc 5 239 10 view .LVU895
 3391              	.LBB1047:
 241:../../libdaisy/src/dev/oled_ssd130x.h ****             return;
 3392              		.loc 5 241 9 is_stmt 0 view .LVU896
 3393 00e2 BEF17F0F 		cmp	lr, #127
 3394 00e6 16D8     		bhi	.L203
 3395 00e8 BCF13F0F 		cmp	ip, #63
 3396 00ec 13D8     		bhi	.L203
 244:../../libdaisy/src/dev/oled_ssd130x.h ****         else
 3397              		.loc 5 244 28 view .LVU897
 3398 00ee 4FEADC07 		lsr	r7, ip, #3
 244:../../libdaisy/src/dev/oled_ssd130x.h ****         else
 3399              		.loc 5 244 54 view .LVU898
 3400 00f2 0CF0070B 		and	fp, ip, #7
 244:../../libdaisy/src/dev/oled_ssd130x.h ****         else
 3401              		.loc 5 244 48 view .LVU899
 3402 00f6 4FF00109 		mov	r9, #1
 244:../../libdaisy/src/dev/oled_ssd130x.h ****         else
 3403              		.loc 5 244 42 view .LVU900
 3404 00fa 0EEBC717 		add	r7, lr, r7, lsl #7
 3405 00fe 0744     		add	r7, r7, r0
 243:../../libdaisy/src/dev/oled_ssd130x.h ****             buffer_[x + (y / 8) * width] |= (1 << (y % 8));
 3406              		.loc 5 243 9 view .LVU901
 3407 0100 002D     		cmp	r5, #0
 3408 0102 00F03981 		beq	.L204
 244:../../libdaisy/src/dev/oled_ssd130x.h ****         else
 3409              		.loc 5 244 48 view .LVU902
 3410 0106 09FA0BF9 		lsl	r9, r9, fp
 244:../../libdaisy/src/dev/oled_ssd130x.h ****         else
 3411              		.loc 5 244 42 view .LVU903
 3412 010a 97F814B0 		ldrb	fp, [r7, #20]	@ zero_extendqisi2
 3413 010e 49EA0B09 		orr	r9, r9, fp
 3414 0112 87F81490 		strb	r9, [r7, #20]
 3415              	.L203:
 3416              	.LVL233:
 244:../../libdaisy/src/dev/oled_ssd130x.h ****         else
 3417              		.loc 5 244 42 view .LVU904
 3418              	.LBE1047:
 3419              	.LBE1046:
 3420              	.LBE1045:
 203:../../libdaisy/src/hid/disp/display.h ****             {
 3421              		.loc 6 203 13 view .LVU905
 3422 0116 7700     		lsls	r7, r6, #1
 3423              	.LVL234:
 206:../../libdaisy/src/hid/disp/display.h ****             }
 3424              		.loc 6 206 20 view .LVU906
 3425 0118 18BF     		it	ne
 3426 011a D644     		addne	lr, lr, r10
 3427              	.LVL235:
ARM GAS  C:\Users\VINCIU~1\AppData\Local\Temp\ccnesEGk.s 			page 103


 209:../../libdaisy/src/hid/disp/display.h ****             {
 3428              		.loc 6 209 13 view .LVU907
 3429 011c B845     		cmp	r8, r7
 3430 011e 02DD     		ble	.L206
 211:../../libdaisy/src/hid/disp/display.h ****                 y1 += signY;
 3431              		.loc 6 211 23 view .LVU908
 3432 0120 4644     		add	r6, r6, r8
 3433              	.LVL236:
 212:../../libdaisy/src/hid/disp/display.h ****             }
 3434              		.loc 6 212 20 view .LVU909
 3435 0122 0CF1FF3C 		add	ip, ip, #-1
 3436              	.LVL237:
 3437              	.L206:
 199:../../libdaisy/src/hid/disp/display.h ****         {
 3438              		.loc 6 199 26 is_stmt 1 view .LVU910
 3439 0126 7345     		cmp	r3, lr
 3440 0128 DBD1     		bne	.L202
 199:../../libdaisy/src/hid/disp/display.h ****         {
 3441              		.loc 6 199 26 is_stmt 0 view .LVU911
 3442 012a 6245     		cmp	r2, ip
 3443 012c D9D1     		bne	.L202
 3444 012e 0026     		movs	r6, #0
 3445              	.LVL238:
 199:../../libdaisy/src/hid/disp/display.h ****         {
 3446              		.loc 6 199 26 view .LVU912
 3447 0130 0496     		str	r6, [sp, #16]
 3448              	.LVL239:
 3449              	.L199:
 199:../../libdaisy/src/hid/disp/display.h ****         {
 3450              		.loc 6 199 26 view .LVU913
 3451              	.LBE1030:
 3452              	.LBE1029:
 3453              	.LBB1060:
 3454              	.LBI1060:
 181:../../libdaisy/src/hid/disp/display.h ****                   uint_fast8_t y1,
 3455              		.loc 6 181 10 is_stmt 1 view .LVU914
 3456              	.LBB1061:
 188:../../libdaisy/src/hid/disp/display.h ****         int_fast16_t signX  = ((x1 < x2) ? 1 : -1);
 3457              		.loc 6 188 52 is_stmt 0 view .LVU915
 3458 0132 A4EB0209 		sub	r9, r4, r2
 3459              	.LBB1062:
 3460              	.LBB1063:
 3461              	.LBB1064:
 241:../../libdaisy/src/dev/oled_ssd130x.h ****             return;
 3462              		.loc 5 241 9 view .LVU916
 3463 0136 009F     		ldr	r7, [sp]
 3464              	.LBE1064:
 3465              	.LBE1063:
 3466              	.LBE1062:
 188:../../libdaisy/src/hid/disp/display.h ****         int_fast16_t signX  = ((x1 < x2) ? 1 : -1);
 3467              		.loc 6 188 22 view .LVU917
 3468 0138 B9F1000F 		cmp	r9, #0
 3469 013c B8BF     		it	lt
 3470 013e C9F10009 		rsblt	r9, r9, #0
 3471              	.LVL240:
 3472              	.LBB1079:
 3473              	.LBB1073:
ARM GAS  C:\Users\VINCIU~1\AppData\Local\Temp\ccnesEGk.s 			page 104


 3474              	.LBB1067:
 241:../../libdaisy/src/dev/oled_ssd130x.h ****             return;
 3475              		.loc 5 241 28 view .LVU918
 3476 0142 3F2C     		cmp	r4, #63
 3477 0144 94BF     		ite	ls
 3478 0146 0026     		movls	r6, #0
 3479 0148 0126     		movhi	r6, #1
 3480              	.LBE1067:
 3481              	.LBE1073:
 3482              	.LBE1079:
 190:../../libdaisy/src/hid/disp/display.h ****         int_fast16_t error  = deltaX - deltaY;
 3483              		.loc 6 190 42 view .LVU919
 3484 014a A242     		cmp	r2, r4
 191:../../libdaisy/src/hid/disp/display.h ****         int_fast16_t error2;
 3485              		.loc 6 191 22 view .LVU920
 3486 014c C9F10008 		rsb	r8, r9, #0
 3487              	.LVL241:
 3488              	.LBB1080:
 3489              	.LBI1062:
  41:../../libdaisy/src/hid/disp/oled_display.h ****     {
 3490              		.loc 1 41 10 is_stmt 1 view .LVU921
 3491              	.LBB1074:
 3492              	.LBI1063:
 239:../../libdaisy/src/dev/oled_ssd130x.h ****     {
 3493              		.loc 5 239 10 view .LVU922
 3494              	.LBB1068:
 241:../../libdaisy/src/dev/oled_ssd130x.h ****             return;
 3495              		.loc 5 241 28 is_stmt 0 view .LVU923
 3496 0150 0396     		str	r6, [sp, #12]
 3497              	.LBE1068:
 3498              	.LBE1074:
 3499              	.LBE1080:
 190:../../libdaisy/src/hid/disp/display.h ****         int_fast16_t error  = deltaX - deltaY;
 3500              		.loc 6 190 42 view .LVU924
 3501 0152 C0F02381 		bcc	.L207
 3502              	.LVL242:
 3503              	.LBB1081:
 3504              	.LBB1075:
 3505              	.LBB1069:
 241:../../libdaisy/src/dev/oled_ssd130x.h ****             return;
 3506              		.loc 5 241 9 view .LVU925
 3507 0156 002F     		cmp	r7, #0
 3508 0158 40F05081 		bne	.L242
 3509 015c 002E     		cmp	r6, #0
 3510 015e 40F04D81 		bne	.L242
 3511              	.LBE1069:
 3512              	.LBE1075:
 3513              	.LBE1081:
 190:../../libdaisy/src/hid/disp/display.h ****         int_fast16_t error  = deltaX - deltaY;
 3514              		.loc 6 190 42 view .LVU926
 3515 0162 4FF0FF36 		mov	r6, #-1
 3516 0166 0096     		str	r6, [sp]
 3517              	.LBB1082:
 3518              	.LBB1076:
 3519              	.LBB1070:
 244:../../libdaisy/src/dev/oled_ssd130x.h ****         else
 3520              		.loc 5 244 28 view .LVU927
ARM GAS  C:\Users\VINCIU~1\AppData\Local\Temp\ccnesEGk.s 			page 105


 3521 0168 E608     		lsrs	r6, r4, #3
 244:../../libdaisy/src/dev/oled_ssd130x.h ****         else
 3522              		.loc 5 244 42 view .LVU928
 3523 016a 03EBC616 		add	r6, r3, r6, lsl #7
 3524 016e 0644     		add	r6, r6, r0
 243:../../libdaisy/src/dev/oled_ssd130x.h ****             buffer_[x + (y / 8) * width] |= (1 << (y % 8));
 3525              		.loc 5 243 9 view .LVU929
 3526 0170 002D     		cmp	r5, #0
 3527 0172 00F01E81 		beq	.L209
 3528              	.LVL243:
 3529              	.L281:
 244:../../libdaisy/src/dev/oled_ssd130x.h ****         else
 3530              		.loc 5 244 48 view .LVU930
 3531 0176 4FF0010C 		mov	ip, #1
 244:../../libdaisy/src/dev/oled_ssd130x.h ****         else
 3532              		.loc 5 244 54 view .LVU931
 3533 017a 04F00707 		and	r7, r4, #7
 244:../../libdaisy/src/dev/oled_ssd130x.h ****         else
 3534              		.loc 5 244 48 view .LVU932
 3535 017e 0CFA07F7 		lsl	r7, ip, r7
 244:../../libdaisy/src/dev/oled_ssd130x.h ****         else
 3536              		.loc 5 244 42 view .LVU933
 3537 0182 96F814C0 		ldrb	ip, [r6, #20]	@ zero_extendqisi2
 3538 0186 47EA0C07 		orr	r7, r7, ip
 3539 018a 3775     		strb	r7, [r6, #20]
 3540 018c 0026     		movs	r6, #0
 3541 018e 0396     		str	r6, [sp, #12]
 3542              	.L208:
 3543              	.LVL244:
 244:../../libdaisy/src/dev/oled_ssd130x.h ****         else
 3544              		.loc 5 244 42 view .LVU934
 3545              	.LBE1070:
 3546              	.LBE1076:
 3547              	.LBE1082:
 199:../../libdaisy/src/hid/disp/display.h ****         {
 3548              		.loc 6 199 26 is_stmt 1 view .LVU935
 3549 0190 A242     		cmp	r2, r4
 3550 0192 00F03D81 		beq	.L280
 3551              	.L211:
 3552              	.LVL245:
 190:../../libdaisy/src/hid/disp/display.h ****         int_fast16_t error  = deltaX - deltaY;
 3553              		.loc 6 190 42 is_stmt 0 view .LVU936
 3554 0196 C446     		mov	ip, r8
 3555 0198 1646     		mov	r6, r2
 3556 019a 1F46     		mov	r7, r3
 3557 019c 0592     		str	r2, [sp, #20]
 3558              	.LVL246:
 3559              	.L213:
 3560              	.LBB1083:
 3561              	.LBI1083:
  41:../../libdaisy/src/hid/disp/oled_display.h ****     {
 3562              		.loc 1 41 10 is_stmt 1 view .LVU937
 3563              	.LBB1084:
 3564              	.LBI1084:
 239:../../libdaisy/src/dev/oled_ssd130x.h ****     {
 3565              		.loc 5 239 10 view .LVU938
 3566              	.LBB1085:
ARM GAS  C:\Users\VINCIU~1\AppData\Local\Temp\ccnesEGk.s 			page 106


 241:../../libdaisy/src/dev/oled_ssd130x.h ****             return;
 3567              		.loc 5 241 9 is_stmt 0 view .LVU939
 3568 019e 7F2F     		cmp	r7, #127
 3569 01a0 15D8     		bhi	.L214
 3570 01a2 3F2E     		cmp	r6, #63
 3571 01a4 13D8     		bhi	.L214
 244:../../libdaisy/src/dev/oled_ssd130x.h ****         else
 3572              		.loc 5 244 28 view .LVU940
 3573 01a6 4FEAD60E 		lsr	lr, r6, #3
 244:../../libdaisy/src/dev/oled_ssd130x.h ****         else
 3574              		.loc 5 244 54 view .LVU941
 3575 01aa 06F0070B 		and	fp, r6, #7
 244:../../libdaisy/src/dev/oled_ssd130x.h ****         else
 3576              		.loc 5 244 48 view .LVU942
 3577 01ae 4FF0010A 		mov	r10, #1
 244:../../libdaisy/src/dev/oled_ssd130x.h ****         else
 3578              		.loc 5 244 42 view .LVU943
 3579 01b2 07EBCE1E 		add	lr, r7, lr, lsl #7
 3580 01b6 8644     		add	lr, lr, r0
 243:../../libdaisy/src/dev/oled_ssd130x.h ****             buffer_[x + (y / 8) * width] |= (1 << (y % 8));
 3581              		.loc 5 243 9 view .LVU944
 3582 01b8 002D     		cmp	r5, #0
 3583 01ba 00F0E680 		beq	.L215
 244:../../libdaisy/src/dev/oled_ssd130x.h ****         else
 3584              		.loc 5 244 48 view .LVU945
 3585 01be 0AFA0BFA 		lsl	r10, r10, fp
 244:../../libdaisy/src/dev/oled_ssd130x.h ****         else
 3586              		.loc 5 244 42 view .LVU946
 3587 01c2 9EF814B0 		ldrb	fp, [lr, #20]	@ zero_extendqisi2
 3588 01c6 4AEA0B0A 		orr	r10, r10, fp
 3589 01ca 8EF814A0 		strb	r10, [lr, #20]
 3590              	.L214:
 3591              	.LVL247:
 244:../../libdaisy/src/dev/oled_ssd130x.h ****         else
 3592              		.loc 5 244 42 view .LVU947
 3593              	.LBE1085:
 3594              	.LBE1084:
 3595              	.LBE1083:
 203:../../libdaisy/src/hid/disp/display.h ****             {
 3596              		.loc 6 203 13 view .LVU948
 3597 01ce B8EB4C0F 		cmp	r8, ip, lsl #1
 202:../../libdaisy/src/hid/disp/display.h ****             if(error2 > -deltaY)
 3598              		.loc 6 202 20 view .LVU949
 3599 01d2 4FEA4C0E 		lsl	lr, ip, #1
 3600              	.LVL248:
 203:../../libdaisy/src/hid/disp/display.h ****             {
 3601              		.loc 6 203 13 view .LVU950
 3602 01d6 02DA     		bge	.L216
 205:../../libdaisy/src/hid/disp/display.h ****                 x1 += signX;
 3603              		.loc 6 205 23 view .LVU951
 3604 01d8 ACEB090C 		sub	ip, ip, r9
 3605              	.LVL249:
 206:../../libdaisy/src/hid/disp/display.h ****             }
 3606              		.loc 6 206 20 view .LVU952
 3607 01dc 013F     		subs	r7, r7, #1
 3608              	.LVL250:
 3609              	.L216:
ARM GAS  C:\Users\VINCIU~1\AppData\Local\Temp\ccnesEGk.s 			page 107


 209:../../libdaisy/src/hid/disp/display.h ****             {
 3610              		.loc 6 209 13 view .LVU953
 3611 01de BEF1000F 		cmp	lr, #0
 3612 01e2 01D0     		beq	.L217
 212:../../libdaisy/src/hid/disp/display.h ****             }
 3613              		.loc 6 212 20 view .LVU954
 3614 01e4 009A     		ldr	r2, [sp]
 3615 01e6 1644     		add	r6, r6, r2
 3616              	.LVL251:
 3617              	.L217:
 199:../../libdaisy/src/hid/disp/display.h ****         {
 3618              		.loc 6 199 26 is_stmt 1 view .LVU955
 3619 01e8 BB42     		cmp	r3, r7
 3620 01ea D8D1     		bne	.L213
 199:../../libdaisy/src/hid/disp/display.h ****         {
 3621              		.loc 6 199 26 is_stmt 0 view .LVU956
 3622 01ec B442     		cmp	r4, r6
 3623 01ee D6D1     		bne	.L213
 3624 01f0 059A     		ldr	r2, [sp, #20]
 3625              	.LVL252:
 3626              	.L210:
 199:../../libdaisy/src/hid/disp/display.h ****         {
 3627              		.loc 6 199 26 view .LVU957
 3628              	.LBE1061:
 3629              	.LBE1060:
 3630              	.LBB1096:
 3631              	.LBI1096:
 181:../../libdaisy/src/hid/disp/display.h ****                   uint_fast8_t y1,
 3632              		.loc 6 181 10 is_stmt 1 view .LVU958
 3633              	.LBB1097:
 187:../../libdaisy/src/hid/disp/display.h ****         int_fast16_t deltaY = abs((int_fast16_t)y2 - (int_fast16_t)y1);
 3634              		.loc 6 187 52 is_stmt 0 view .LVU959
 3635 01f2 A1EB030E 		sub	lr, r1, r3
 187:../../libdaisy/src/hid/disp/display.h ****         int_fast16_t deltaY = abs((int_fast16_t)y2 - (int_fast16_t)y1);
 3636              		.loc 6 187 22 view .LVU960
 3637 01f6 BEF1000F 		cmp	lr, #0
 3638 01fa B8BF     		it	lt
 3639 01fc CEF1000E 		rsblt	lr, lr, #0
 3640              	.LVL253:
 3641              	.LBB1098:
 3642              	.LBB1099:
 3643              	.LBB1100:
 241:../../libdaisy/src/dev/oled_ssd130x.h ****             return;
 3644              		.loc 5 241 14 view .LVU961
 3645 0200 7F29     		cmp	r1, #127
 3646 0202 94BF     		ite	ls
 3647 0204 4FF0000A 		movls	r10, #0
 3648 0208 4FF0010A 		movhi	r10, #1
 3649              	.LBE1100:
 3650              	.LBE1099:
 3651              	.LBE1098:
 189:../../libdaisy/src/hid/disp/display.h ****         int_fast16_t signY  = ((y1 < y2) ? 1 : -1);
 3652              		.loc 6 189 42 view .LVU962
 3653 020c 9942     		cmp	r1, r3
 3654 020e 8CBF     		ite	hi
 3655 0210 4FF00109 		movhi	r9, #1
 3656 0214 4FF0FF39 		movls	r9, #-1
ARM GAS  C:\Users\VINCIU~1\AppData\Local\Temp\ccnesEGk.s 			page 108


 3657              	.LVL254:
 3658              	.LBB1107:
 3659              	.LBI1098:
  41:../../libdaisy/src/hid/disp/oled_display.h ****     {
 3660              		.loc 1 41 10 is_stmt 1 view .LVU963
 3661              	.LBB1105:
 3662              	.LBI1099:
 239:../../libdaisy/src/dev/oled_ssd130x.h ****     {
 3663              		.loc 5 239 10 view .LVU964
 3664              	.LBB1103:
 241:../../libdaisy/src/dev/oled_ssd130x.h ****             return;
 3665              		.loc 5 241 9 is_stmt 0 view .LVU965
 3666 0218 BAF1000F 		cmp	r10, #0
 3667 021c 13D1     		bne	.L219
 3668 021e 039E     		ldr	r6, [sp, #12]
 3669 0220 8EB9     		cbnz	r6, .L219
 244:../../libdaisy/src/dev/oled_ssd130x.h ****         else
 3670              		.loc 5 244 28 view .LVU966
 3671 0222 E608     		lsrs	r6, r4, #3
 244:../../libdaisy/src/dev/oled_ssd130x.h ****         else
 3672              		.loc 5 244 42 view .LVU967
 3673 0224 01EBC616 		add	r6, r1, r6, lsl #7
 3674 0228 0644     		add	r6, r6, r0
 243:../../libdaisy/src/dev/oled_ssd130x.h ****             buffer_[x + (y / 8) * width] |= (1 << (y % 8));
 3675              		.loc 5 243 9 view .LVU968
 3676 022a 002D     		cmp	r5, #0
 3677 022c 00F0D380 		beq	.L220
 244:../../libdaisy/src/dev/oled_ssd130x.h ****         else
 3678              		.loc 5 244 48 view .LVU969
 3679 0230 4FF0010C 		mov	ip, #1
 244:../../libdaisy/src/dev/oled_ssd130x.h ****         else
 3680              		.loc 5 244 54 view .LVU970
 3681 0234 04F00707 		and	r7, r4, #7
 244:../../libdaisy/src/dev/oled_ssd130x.h ****         else
 3682              		.loc 5 244 48 view .LVU971
 3683 0238 0CFA07F7 		lsl	r7, ip, r7
 244:../../libdaisy/src/dev/oled_ssd130x.h ****         else
 3684              		.loc 5 244 42 view .LVU972
 3685 023c 96F814C0 		ldrb	ip, [r6, #20]	@ zero_extendqisi2
 3686 0240 47EA0C07 		orr	r7, r7, ip
 3687 0244 3775     		strb	r7, [r6, #20]
 3688              	.L219:
 3689              	.LVL255:
 244:../../libdaisy/src/dev/oled_ssd130x.h ****         else
 3690              		.loc 5 244 42 view .LVU973
 3691              	.LBE1103:
 3692              	.LBE1105:
 3693              	.LBE1107:
 199:../../libdaisy/src/hid/disp/display.h ****         {
 3694              		.loc 6 199 26 is_stmt 1 view .LVU974
 3695 0246 049E     		ldr	r6, [sp, #16]
 3696 0248 26BB     		cbnz	r6, .L221
 187:../../libdaisy/src/hid/disp/display.h ****         int_fast16_t deltaY = abs((int_fast16_t)y2 - (int_fast16_t)y1);
 3697              		.loc 6 187 22 is_stmt 0 view .LVU975
 3698 024a 7746     		mov	r7, lr
 199:../../libdaisy/src/hid/disp/display.h ****         {
 3699              		.loc 6 199 26 view .LVU976
ARM GAS  C:\Users\VINCIU~1\AppData\Local\Temp\ccnesEGk.s 			page 109


 3700 024c 2646     		mov	r6, r4
 3701              	.LVL256:
 3702              	.L222:
 3703              	.LBB1108:
 3704              	.LBI1108:
  41:../../libdaisy/src/hid/disp/oled_display.h ****     {
 3705              		.loc 1 41 10 is_stmt 1 view .LVU977
 3706              	.LBB1109:
 3707              	.LBI1109:
 239:../../libdaisy/src/dev/oled_ssd130x.h ****     {
 3708              		.loc 5 239 10 view .LVU978
 3709              	.LBB1110:
 241:../../libdaisy/src/dev/oled_ssd130x.h ****             return;
 3710              		.loc 5 241 9 is_stmt 0 view .LVU979
 3711 024e 7F2B     		cmp	r3, #127
 3712 0250 14D8     		bhi	.L224
 241:../../libdaisy/src/dev/oled_ssd130x.h ****             return;
 3713              		.loc 5 241 9 view .LVU980
 3714 0252 3F2E     		cmp	r6, #63
 3715 0254 12D8     		bhi	.L224
 244:../../libdaisy/src/dev/oled_ssd130x.h ****         else
 3716              		.loc 5 244 28 view .LVU981
 3717 0256 4FEAD60C 		lsr	ip, r6, #3
 244:../../libdaisy/src/dev/oled_ssd130x.h ****         else
 3718              		.loc 5 244 54 view .LVU982
 3719 025a 06F0070B 		and	fp, r6, #7
 244:../../libdaisy/src/dev/oled_ssd130x.h ****         else
 3720              		.loc 5 244 48 view .LVU983
 3721 025e 4FF00108 		mov	r8, #1
 244:../../libdaisy/src/dev/oled_ssd130x.h ****         else
 3722              		.loc 5 244 42 view .LVU984
 3723 0262 03EBCC1C 		add	ip, r3, ip, lsl #7
 3724 0266 8444     		add	ip, ip, r0
 243:../../libdaisy/src/dev/oled_ssd130x.h ****             buffer_[x + (y / 8) * width] |= (1 << (y % 8));
 3725              		.loc 5 243 9 view .LVU985
 3726 0268 002D     		cmp	r5, #0
 3727 026a 73D0     		beq	.L225
 244:../../libdaisy/src/dev/oled_ssd130x.h ****         else
 3728              		.loc 5 244 48 view .LVU986
 3729 026c 08FA0BF8 		lsl	r8, r8, fp
 244:../../libdaisy/src/dev/oled_ssd130x.h ****         else
 3730              		.loc 5 244 42 view .LVU987
 3731 0270 9CF814B0 		ldrb	fp, [ip, #20]	@ zero_extendqisi2
 3732 0274 48EA0B08 		orr	r8, r8, fp
 3733 0278 8CF81480 		strb	r8, [ip, #20]
 3734              	.L224:
 3735              	.LVL257:
 244:../../libdaisy/src/dev/oled_ssd130x.h ****         else
 3736              		.loc 5 244 42 view .LVU988
 3737              	.LBE1110:
 3738              	.LBE1109:
 3739              	.LBE1108:
 203:../../libdaisy/src/hid/disp/display.h ****             {
 3740              		.loc 6 203 13 view .LVU989
 3741 027c 5FEA470C 		lsls	ip, r7, #1
 3742              	.LVL258:
 206:../../libdaisy/src/hid/disp/display.h ****             }
ARM GAS  C:\Users\VINCIU~1\AppData\Local\Temp\ccnesEGk.s 			page 110


 3743              		.loc 6 206 20 view .LVU990
 3744 0280 18BF     		it	ne
 3745 0282 4B44     		addne	r3, r3, r9
 3746              	.LVL259:
 209:../../libdaisy/src/hid/disp/display.h ****             {
 3747              		.loc 6 209 13 view .LVU991
 3748 0284 E645     		cmp	lr, ip
 3749 0286 01DD     		ble	.L227
 211:../../libdaisy/src/hid/disp/display.h ****                 y1 += signY;
 3750              		.loc 6 211 23 view .LVU992
 3751 0288 7744     		add	r7, r7, lr
 3752              	.LVL260:
 212:../../libdaisy/src/hid/disp/display.h ****             }
 3753              		.loc 6 212 20 view .LVU993
 3754 028a 013E     		subs	r6, r6, #1
 3755              	.LVL261:
 3756              	.L227:
 199:../../libdaisy/src/hid/disp/display.h ****         {
 3757              		.loc 6 199 26 is_stmt 1 view .LVU994
 3758 028c 9942     		cmp	r1, r3
 3759 028e DED1     		bne	.L222
 199:../../libdaisy/src/hid/disp/display.h ****         {
 3760              		.loc 6 199 26 is_stmt 0 view .LVU995
 3761 0290 B442     		cmp	r4, r6
 3762 0292 DCD1     		bne	.L222
 3763              	.LVL262:
 3764              	.L221:
 199:../../libdaisy/src/hid/disp/display.h ****         {
 3765              		.loc 6 199 26 view .LVU996
 3766              	.LBE1097:
 3767              	.LBE1096:
 3768              	.LBB1119:
 3769              	.LBI1119:
 181:../../libdaisy/src/hid/disp/display.h ****                   uint_fast8_t y1,
 3770              		.loc 6 181 10 is_stmt 1 view .LVU997
 3771              	.LBB1120:
 188:../../libdaisy/src/hid/disp/display.h ****         int_fast16_t signX  = ((x1 < x2) ? 1 : -1);
 3772              		.loc 6 188 52 is_stmt 0 view .LVU998
 3773 0294 A2EB040E 		sub	lr, r2, r4
 188:../../libdaisy/src/hid/disp/display.h ****         int_fast16_t signX  = ((x1 < x2) ? 1 : -1);
 3774              		.loc 6 188 22 view .LVU999
 3775 0298 BEF1000F 		cmp	lr, #0
 3776 029c B8BF     		it	lt
 3777 029e CEF1000E 		rsblt	lr, lr, #0
 3778              	.LVL263:
 190:../../libdaisy/src/hid/disp/display.h ****         int_fast16_t error  = deltaX - deltaY;
 3779              		.loc 6 190 42 view .LVU1000
 3780 02a2 A242     		cmp	r2, r4
 3781 02a4 8CBF     		ite	hi
 3782 02a6 4FF00108 		movhi	r8, #1
 3783 02aa 4FF0FF38 		movls	r8, #-1
 3784              	.LVL264:
 191:../../libdaisy/src/hid/disp/display.h ****         int_fast16_t error2;
 3785              		.loc 6 191 22 view .LVU1001
 3786 02ae CEF1000C 		rsb	ip, lr, #0
 3787              	.LVL265:
 3788              	.LBB1121:
ARM GAS  C:\Users\VINCIU~1\AppData\Local\Temp\ccnesEGk.s 			page 111


 3789              	.LBI1121:
  41:../../libdaisy/src/hid/disp/oled_display.h ****     {
 3790              		.loc 1 41 10 is_stmt 1 view .LVU1002
 3791              	.LBB1122:
 3792              	.LBI1122:
 239:../../libdaisy/src/dev/oled_ssd130x.h ****     {
 3793              		.loc 5 239 10 view .LVU1003
 3794              	.LBB1123:
 241:../../libdaisy/src/dev/oled_ssd130x.h ****             return;
 3795              		.loc 5 241 9 is_stmt 0 view .LVU1004
 3796 02b2 BAF1000F 		cmp	r10, #0
 3797 02b6 0ED1     		bne	.L229
 3798 02b8 029B     		ldr	r3, [sp, #8]
 3799 02ba 63B9     		cbnz	r3, .L229
 244:../../libdaisy/src/dev/oled_ssd130x.h ****         else
 3800              		.loc 5 244 28 view .LVU1005
 3801 02bc D308     		lsrs	r3, r2, #3
 244:../../libdaisy/src/dev/oled_ssd130x.h ****         else
 3802              		.loc 5 244 54 view .LVU1006
 3803 02be 02F00707 		and	r7, r2, #7
 244:../../libdaisy/src/dev/oled_ssd130x.h ****         else
 3804              		.loc 5 244 48 view .LVU1007
 3805 02c2 0126     		movs	r6, #1
 244:../../libdaisy/src/dev/oled_ssd130x.h ****         else
 3806              		.loc 5 244 42 view .LVU1008
 3807 02c4 01EBC313 		add	r3, r1, r3, lsl #7
 3808 02c8 0344     		add	r3, r3, r0
 243:../../libdaisy/src/dev/oled_ssd130x.h ****             buffer_[x + (y / 8) * width] |= (1 << (y % 8));
 3809              		.loc 5 243 9 view .LVU1009
 3810 02ca 002D     		cmp	r5, #0
 3811 02cc 7CD0     		beq	.L230
 244:../../libdaisy/src/dev/oled_ssd130x.h ****         else
 3812              		.loc 5 244 48 view .LVU1010
 3813 02ce BE40     		lsls	r6, r6, r7
 244:../../libdaisy/src/dev/oled_ssd130x.h ****         else
 3814              		.loc 5 244 42 view .LVU1011
 3815 02d0 1F7D     		ldrb	r7, [r3, #20]	@ zero_extendqisi2
 3816 02d2 3E43     		orrs	r6, r6, r7
 3817 02d4 1E75     		strb	r6, [r3, #20]
 3818              	.L229:
 3819              	.LVL266:
 244:../../libdaisy/src/dev/oled_ssd130x.h ****         else
 3820              		.loc 5 244 42 view .LVU1012
 3821              	.LBE1123:
 3822              	.LBE1122:
 3823              	.LBE1121:
 199:../../libdaisy/src/hid/disp/display.h ****         {
 3824              		.loc 6 199 26 is_stmt 1 view .LVU1013
 3825 02d6 019B     		ldr	r3, [sp, #4]
 3826 02d8 002B     		cmp	r3, #0
 3827 02da 7FF4CDAE 		bne	.L187
 3828 02de 6646     		mov	r6, ip
 3829 02e0 0B46     		mov	r3, r1
 3830              	.LVL267:
 3831              	.L231:
 3832              	.LBB1128:
 3833              	.LBI1128:
ARM GAS  C:\Users\VINCIU~1\AppData\Local\Temp\ccnesEGk.s 			page 112


  41:../../libdaisy/src/hid/disp/oled_display.h ****     {
 3834              		.loc 1 41 10 view .LVU1014
 3835              	.LBB1129:
 3836              	.LBI1129:
 239:../../libdaisy/src/dev/oled_ssd130x.h ****     {
 3837              		.loc 5 239 10 view .LVU1015
 3838              	.LBB1130:
 241:../../libdaisy/src/dev/oled_ssd130x.h ****             return;
 3839              		.loc 5 241 9 is_stmt 0 view .LVU1016
 3840 02e2 7F2B     		cmp	r3, #127
 3841 02e4 12D8     		bhi	.L233
 241:../../libdaisy/src/dev/oled_ssd130x.h ****             return;
 3842              		.loc 5 241 9 view .LVU1017
 3843 02e6 3F2C     		cmp	r4, #63
 3844 02e8 10D8     		bhi	.L233
 244:../../libdaisy/src/dev/oled_ssd130x.h ****         else
 3845              		.loc 5 244 28 view .LVU1018
 3846 02ea E708     		lsrs	r7, r4, #3
 244:../../libdaisy/src/dev/oled_ssd130x.h ****         else
 3847              		.loc 5 244 54 view .LVU1019
 3848 02ec 04F0070A 		and	r10, r4, #7
 244:../../libdaisy/src/dev/oled_ssd130x.h ****         else
 3849              		.loc 5 244 48 view .LVU1020
 3850 02f0 4FF00109 		mov	r9, #1
 244:../../libdaisy/src/dev/oled_ssd130x.h ****         else
 3851              		.loc 5 244 42 view .LVU1021
 3852 02f4 03EBC717 		add	r7, r3, r7, lsl #7
 3853 02f8 0744     		add	r7, r7, r0
 243:../../libdaisy/src/dev/oled_ssd130x.h ****             buffer_[x + (y / 8) * width] |= (1 << (y % 8));
 3854              		.loc 5 243 9 view .LVU1022
 3855 02fa A5B3     		cbz	r5, .L234
 244:../../libdaisy/src/dev/oled_ssd130x.h ****         else
 3856              		.loc 5 244 48 view .LVU1023
 3857 02fc 09FA0AF9 		lsl	r9, r9, r10
 244:../../libdaisy/src/dev/oled_ssd130x.h ****         else
 3858              		.loc 5 244 42 view .LVU1024
 3859 0300 97F814A0 		ldrb	r10, [r7, #20]	@ zero_extendqisi2
 3860 0304 49EA0A09 		orr	r9, r9, r10
 3861 0308 87F81490 		strb	r9, [r7, #20]
 3862              	.L233:
 3863              	.LVL268:
 244:../../libdaisy/src/dev/oled_ssd130x.h ****         else
 3864              		.loc 5 244 42 view .LVU1025
 3865              	.LBE1130:
 3866              	.LBE1129:
 3867              	.LBE1128:
 203:../../libdaisy/src/hid/disp/display.h ****             {
 3868              		.loc 6 203 13 view .LVU1026
 3869 030c BCEB460F 		cmp	ip, r6, lsl #1
 202:../../libdaisy/src/hid/disp/display.h ****             if(error2 > -deltaY)
 3870              		.loc 6 202 20 view .LVU1027
 3871 0310 4FEA4607 		lsl	r7, r6, #1
 3872              	.LVL269:
 203:../../libdaisy/src/hid/disp/display.h ****             {
 3873              		.loc 6 203 13 view .LVU1028
 3874 0314 02DA     		bge	.L235
 205:../../libdaisy/src/hid/disp/display.h ****                 x1 += signX;
ARM GAS  C:\Users\VINCIU~1\AppData\Local\Temp\ccnesEGk.s 			page 113


 3875              		.loc 6 205 23 view .LVU1029
 3876 0316 A6EB0E06 		sub	r6, r6, lr
 3877              	.LVL270:
 206:../../libdaisy/src/hid/disp/display.h ****             }
 3878              		.loc 6 206 20 view .LVU1030
 3879 031a 013B     		subs	r3, r3, #1
 3880              	.LVL271:
 3881              	.L235:
 209:../../libdaisy/src/hid/disp/display.h ****             {
 3882              		.loc 6 209 13 view .LVU1031
 3883 031c 07B1     		cbz	r7, .L236
 212:../../libdaisy/src/hid/disp/display.h ****             }
 3884              		.loc 6 212 20 view .LVU1032
 3885 031e 4444     		add	r4, r4, r8
 3886              	.LVL272:
 3887              	.L236:
 199:../../libdaisy/src/hid/disp/display.h ****         {
 3888              		.loc 6 199 26 is_stmt 1 view .LVU1033
 3889 0320 9942     		cmp	r1, r3
 3890 0322 DED1     		bne	.L231
 199:../../libdaisy/src/hid/disp/display.h ****         {
 3891              		.loc 6 199 26 is_stmt 0 view .LVU1034
 3892 0324 A242     		cmp	r2, r4
 3893 0326 DCD1     		bne	.L231
 3894              	.LBE1120:
 3895              	.LBE1119:
 3896              	.LBE1172:
 241:../../libdaisy/src/hid/disp/display.h **** 
 3897              		.loc 6 241 5 view .LVU1035
 3898 0328 07B0     		add	sp, sp, #28
 3899              		.cfi_remember_state
 3900              		.cfi_def_cfa_offset 36
 3901              		@ sp needed
 3902 032a BDE8F08F 		pop	{r4, r5, r6, r7, r8, r9, r10, fp, pc}
 3903              	.LVL273:
 3904              	.L196:
 3905              		.cfi_restore_state
 3906              	.LBB1173:
 3907              	.LBB1139:
 3908              	.LBB1056:
 3909              	.LBB1052:
  41:../../libdaisy/src/hid/disp/oled_display.h ****     {
 3910              		.loc 1 41 10 is_stmt 1 view .LVU1036
 3911              	.LBB1041:
 239:../../libdaisy/src/dev/oled_ssd130x.h ****     {
 3912              		.loc 5 239 10 view .LVU1037
 3913              	.LBB1037:
 241:../../libdaisy/src/dev/oled_ssd130x.h ****             return;
 3914              		.loc 5 241 28 is_stmt 0 view .LVU1038
 3915 032e 3F2A     		cmp	r2, #63
 3916              	.LBE1037:
 3917              	.LBE1041:
 3918              	.LBE1052:
 189:../../libdaisy/src/hid/disp/display.h ****         int_fast16_t signY  = ((y1 < y2) ? 1 : -1);
 3919              		.loc 6 189 42 view .LVU1039
 3920 0330 4FF0010A 		mov	r10, #1
 3921              	.LBB1053:
ARM GAS  C:\Users\VINCIU~1\AppData\Local\Temp\ccnesEGk.s 			page 114


 3922              	.LBB1042:
 3923              	.LBB1038:
 241:../../libdaisy/src/dev/oled_ssd130x.h ****             return;
 3924              		.loc 5 241 28 view .LVU1040
 3925 0334 94BF     		ite	ls
 3926 0336 0026     		movls	r6, #0
 3927 0338 0126     		movhi	r6, #1
 241:../../libdaisy/src/dev/oled_ssd130x.h ****             return;
 3928              		.loc 5 241 14 view .LVU1041
 3929 033a 7F2B     		cmp	r3, #127
 241:../../libdaisy/src/dev/oled_ssd130x.h ****             return;
 3930              		.loc 5 241 28 view .LVU1042
 3931 033c 0296     		str	r6, [sp, #8]
 241:../../libdaisy/src/dev/oled_ssd130x.h ****             return;
 3932              		.loc 5 241 14 view .LVU1043
 3933 033e 94BF     		ite	ls
 3934 0340 0027     		movls	r7, #0
 3935 0342 0127     		movhi	r7, #1
 3936 0344 0097     		str	r7, [sp]
 241:../../libdaisy/src/dev/oled_ssd130x.h ****             return;
 3937              		.loc 5 241 9 view .LVU1044
 3938 0346 002E     		cmp	r6, #0
 3939 0348 7FF4C8AE 		bne	.L200
 3940 034c 002F     		cmp	r7, #0
 3941 034e 3FF4AEAE 		beq	.L238
 3942 0352 C3E6     		b	.L200
 3943              	.LVL274:
 3944              	.L225:
 241:../../libdaisy/src/dev/oled_ssd130x.h ****             return;
 3945              		.loc 5 241 9 view .LVU1045
 3946              	.LBE1038:
 3947              	.LBE1042:
 3948              	.LBE1053:
 3949              	.LBE1056:
 3950              	.LBE1139:
 3951              	.LBB1140:
 3952              	.LBB1117:
 3953              	.LBB1115:
 3954              	.LBB1114:
 3955              	.LBB1113:
 3956              	.LBB1111:
 3957              	.LBI1111:
 239:../../libdaisy/src/dev/oled_ssd130x.h ****     {
 3958              		.loc 5 239 10 is_stmt 1 view .LVU1046
 3959              	.LBB1112:
 246:../../libdaisy/src/dev/oled_ssd130x.h ****     }
 3960              		.loc 5 246 49 is_stmt 0 view .LVU1047
 3961 0354 08FA0BFB 		lsl	fp, r8, fp
 246:../../libdaisy/src/dev/oled_ssd130x.h ****     }
 3962              		.loc 5 246 42 view .LVU1048
 3963 0358 9CF81480 		ldrb	r8, [ip, #20]	@ zero_extendqisi2
 3964 035c 28EA0B08 		bic	r8, r8, fp
 3965 0360 8CF81480 		strb	r8, [ip, #20]
 3966 0364 8AE7     		b	.L224
 3967              	.LVL275:
 3968              	.L234:
 246:../../libdaisy/src/dev/oled_ssd130x.h ****     }
ARM GAS  C:\Users\VINCIU~1\AppData\Local\Temp\ccnesEGk.s 			page 115


 3969              		.loc 5 246 42 view .LVU1049
 3970              	.LBE1112:
 3971              	.LBE1111:
 3972              	.LBE1113:
 3973              	.LBE1114:
 3974              	.LBE1115:
 3975              	.LBE1117:
 3976              	.LBE1140:
 3977              	.LBB1141:
 3978              	.LBB1137:
 3979              	.LBB1135:
 3980              	.LBB1134:
 3981              	.LBB1133:
 3982              	.LBB1131:
 3983              	.LBI1131:
 239:../../libdaisy/src/dev/oled_ssd130x.h ****     {
 3984              		.loc 5 239 10 is_stmt 1 view .LVU1050
 3985              	.LBB1132:
 246:../../libdaisy/src/dev/oled_ssd130x.h ****     }
 3986              		.loc 5 246 49 is_stmt 0 view .LVU1051
 3987 0366 09FA0AFA 		lsl	r10, r9, r10
 246:../../libdaisy/src/dev/oled_ssd130x.h ****     }
 3988              		.loc 5 246 42 view .LVU1052
 3989 036a 97F81490 		ldrb	r9, [r7, #20]	@ zero_extendqisi2
 3990 036e 29EA0A09 		bic	r9, r9, r10
 3991 0372 87F81490 		strb	r9, [r7, #20]
 3992 0376 C9E7     		b	.L233
 3993              	.LVL276:
 3994              	.L204:
 246:../../libdaisy/src/dev/oled_ssd130x.h ****     }
 3995              		.loc 5 246 42 view .LVU1053
 3996              	.LBE1132:
 3997              	.LBE1131:
 3998              	.LBE1133:
 3999              	.LBE1134:
 4000              	.LBE1135:
 4001              	.LBE1137:
 4002              	.LBE1141:
 4003              	.LBB1142:
 4004              	.LBB1057:
 4005              	.LBB1054:
 4006              	.LBB1051:
 4007              	.LBB1050:
 4008              	.LBB1048:
 4009              	.LBI1048:
 239:../../libdaisy/src/dev/oled_ssd130x.h ****     {
 4010              		.loc 5 239 10 is_stmt 1 view .LVU1054
 4011              	.LBB1049:
 246:../../libdaisy/src/dev/oled_ssd130x.h ****     }
 4012              		.loc 5 246 49 is_stmt 0 view .LVU1055
 4013 0378 09FA0BFB 		lsl	fp, r9, fp
 246:../../libdaisy/src/dev/oled_ssd130x.h ****     }
 4014              		.loc 5 246 42 view .LVU1056
 4015 037c 97F81490 		ldrb	r9, [r7, #20]	@ zero_extendqisi2
 4016 0380 29EA0B09 		bic	r9, r9, fp
 4017 0384 87F81490 		strb	r9, [r7, #20]
 4018 0388 C5E6     		b	.L203
ARM GAS  C:\Users\VINCIU~1\AppData\Local\Temp\ccnesEGk.s 			page 116


 4019              	.LVL277:
 4020              	.L215:
 246:../../libdaisy/src/dev/oled_ssd130x.h ****     }
 4021              		.loc 5 246 42 view .LVU1057
 4022              	.LBE1049:
 4023              	.LBE1048:
 4024              	.LBE1050:
 4025              	.LBE1051:
 4026              	.LBE1054:
 4027              	.LBE1057:
 4028              	.LBE1142:
 4029              	.LBB1143:
 4030              	.LBB1093:
 4031              	.LBB1090:
 4032              	.LBB1089:
 4033              	.LBB1088:
 4034              	.LBB1086:
 4035              	.LBI1086:
 239:../../libdaisy/src/dev/oled_ssd130x.h ****     {
 4036              		.loc 5 239 10 is_stmt 1 view .LVU1058
 4037              	.LBB1087:
 246:../../libdaisy/src/dev/oled_ssd130x.h ****     }
 4038              		.loc 5 246 49 is_stmt 0 view .LVU1059
 4039 038a 0AFA0BFB 		lsl	fp, r10, fp
 246:../../libdaisy/src/dev/oled_ssd130x.h ****     }
 4040              		.loc 5 246 42 view .LVU1060
 4041 038e 9EF814A0 		ldrb	r10, [lr, #20]	@ zero_extendqisi2
 4042 0392 2AEA0B0A 		bic	r10, r10, fp
 4043 0396 8EF814A0 		strb	r10, [lr, #20]
 4044 039a 18E7     		b	.L214
 4045              	.LVL278:
 4046              	.L207:
 246:../../libdaisy/src/dev/oled_ssd130x.h ****     }
 4047              		.loc 5 246 42 view .LVU1061
 4048              	.LBE1087:
 4049              	.LBE1086:
 4050              	.LBE1088:
 4051              	.LBE1089:
 4052              	.LBE1090:
 4053              	.LBB1091:
 4054              	.LBB1077:
 4055              	.LBB1071:
 241:../../libdaisy/src/dev/oled_ssd130x.h ****             return;
 4056              		.loc 5 241 9 view .LVU1062
 4057 039c 97BB     		cbnz	r7, .L246
 4058 039e 8EBB     		cbnz	r6, .L246
 4059              	.LBE1071:
 4060              	.LBE1077:
 4061              	.LBE1091:
 190:../../libdaisy/src/hid/disp/display.h ****         int_fast16_t error  = deltaX - deltaY;
 4062              		.loc 6 190 42 view .LVU1063
 4063 03a0 0126     		movs	r6, #1
 4064 03a2 0096     		str	r6, [sp]
 4065              	.LBB1092:
 4066              	.LBB1078:
 4067              	.LBB1072:
 244:../../libdaisy/src/dev/oled_ssd130x.h ****         else
ARM GAS  C:\Users\VINCIU~1\AppData\Local\Temp\ccnesEGk.s 			page 117


 4068              		.loc 5 244 28 view .LVU1064
 4069 03a4 E608     		lsrs	r6, r4, #3
 244:../../libdaisy/src/dev/oled_ssd130x.h ****         else
 4070              		.loc 5 244 42 view .LVU1065
 4071 03a6 03EBC616 		add	r6, r3, r6, lsl #7
 4072 03aa 0644     		add	r6, r6, r0
 243:../../libdaisy/src/dev/oled_ssd130x.h ****             buffer_[x + (y / 8) * width] |= (1 << (y % 8));
 4073              		.loc 5 243 9 view .LVU1066
 4074 03ac 002D     		cmp	r5, #0
 4075 03ae 7FF4E2AE 		bne	.L281
 4076              	.LVL279:
 4077              	.L209:
 4078              	.LBB1065:
 4079              	.LBI1065:
 239:../../libdaisy/src/dev/oled_ssd130x.h ****     {
 4080              		.loc 5 239 10 is_stmt 1 view .LVU1067
 4081              	.LBB1066:
 246:../../libdaisy/src/dev/oled_ssd130x.h ****     }
 4082              		.loc 5 246 49 is_stmt 0 view .LVU1068
 4083 03b2 0127     		movs	r7, #1
 246:../../libdaisy/src/dev/oled_ssd130x.h ****     }
 4084              		.loc 5 246 55 view .LVU1069
 4085 03b4 04F0070C 		and	ip, r4, #7
 246:../../libdaisy/src/dev/oled_ssd130x.h ****     }
 4086              		.loc 5 246 42 view .LVU1070
 4087 03b8 0395     		str	r5, [sp, #12]
 246:../../libdaisy/src/dev/oled_ssd130x.h ****     }
 4088              		.loc 5 246 49 view .LVU1071
 4089 03ba 07FA0CFC 		lsl	ip, r7, ip
 246:../../libdaisy/src/dev/oled_ssd130x.h ****     }
 4090              		.loc 5 246 42 view .LVU1072
 4091 03be 377D     		ldrb	r7, [r6, #20]	@ zero_extendqisi2
 4092 03c0 27EA0C07 		bic	r7, r7, ip
 4093 03c4 3775     		strb	r7, [r6, #20]
 4094 03c6 E3E6     		b	.L208
 4095              	.LVL280:
 4096              	.L230:
 246:../../libdaisy/src/dev/oled_ssd130x.h ****     }
 4097              		.loc 5 246 42 view .LVU1073
 4098              	.LBE1066:
 4099              	.LBE1065:
 4100              	.LBE1072:
 4101              	.LBE1078:
 4102              	.LBE1092:
 4103              	.LBE1093:
 4104              	.LBE1143:
 4105              	.LBB1144:
 4106              	.LBB1138:
 4107              	.LBB1136:
 4108              	.LBB1127:
 4109              	.LBB1126:
 4110              	.LBB1124:
 4111              	.LBI1124:
 239:../../libdaisy/src/dev/oled_ssd130x.h ****     {
 4112              		.loc 5 239 10 is_stmt 1 view .LVU1074
 4113              	.LBB1125:
 246:../../libdaisy/src/dev/oled_ssd130x.h ****     }
ARM GAS  C:\Users\VINCIU~1\AppData\Local\Temp\ccnesEGk.s 			page 118


 4114              		.loc 5 246 49 is_stmt 0 view .LVU1075
 4115 03c8 06FA07F7 		lsl	r7, r6, r7
 246:../../libdaisy/src/dev/oled_ssd130x.h ****     }
 4116              		.loc 5 246 42 view .LVU1076
 4117 03cc 1E7D     		ldrb	r6, [r3, #20]	@ zero_extendqisi2
 4118 03ce 26EA0706 		bic	r6, r6, r7
 4119 03d2 1E75     		strb	r6, [r3, #20]
 4120 03d4 7FE7     		b	.L229
 4121              	.LVL281:
 4122              	.L220:
 246:../../libdaisy/src/dev/oled_ssd130x.h ****     }
 4123              		.loc 5 246 42 view .LVU1077
 4124              	.LBE1125:
 4125              	.LBE1124:
 4126              	.LBE1126:
 4127              	.LBE1127:
 4128              	.LBE1136:
 4129              	.LBE1138:
 4130              	.LBE1144:
 4131              	.LBB1145:
 4132              	.LBB1118:
 4133              	.LBB1116:
 4134              	.LBB1106:
 4135              	.LBB1104:
 4136              	.LBB1101:
 4137              	.LBI1101:
 239:../../libdaisy/src/dev/oled_ssd130x.h ****     {
 4138              		.loc 5 239 10 is_stmt 1 view .LVU1078
 4139              	.LBB1102:
 246:../../libdaisy/src/dev/oled_ssd130x.h ****     }
 4140              		.loc 5 246 49 is_stmt 0 view .LVU1079
 4141 03d6 0127     		movs	r7, #1
 246:../../libdaisy/src/dev/oled_ssd130x.h ****     }
 4142              		.loc 5 246 55 view .LVU1080
 4143 03d8 04F0070C 		and	ip, r4, #7
 246:../../libdaisy/src/dev/oled_ssd130x.h ****     }
 4144              		.loc 5 246 49 view .LVU1081
 4145 03dc 07FA0CFC 		lsl	ip, r7, ip
 246:../../libdaisy/src/dev/oled_ssd130x.h ****     }
 4146              		.loc 5 246 42 view .LVU1082
 4147 03e0 377D     		ldrb	r7, [r6, #20]	@ zero_extendqisi2
 4148 03e2 27EA0C07 		bic	r7, r7, ip
 4149 03e6 3775     		strb	r7, [r6, #20]
 4150 03e8 2DE7     		b	.L219
 4151              	.LVL282:
 4152              	.L198:
 246:../../libdaisy/src/dev/oled_ssd130x.h ****     }
 4153              		.loc 5 246 42 view .LVU1083
 4154              	.LBE1102:
 4155              	.LBE1101:
 4156              	.LBE1104:
 4157              	.LBE1106:
 4158              	.LBE1116:
 4159              	.LBE1118:
 4160              	.LBE1145:
 4161              	.LBB1146:
 4162              	.LBB1058:
ARM GAS  C:\Users\VINCIU~1\AppData\Local\Temp\ccnesEGk.s 			page 119


 4163              	.LBB1055:
 4164              	.LBB1043:
 4165              	.LBB1039:
 4166              	.LBB1034:
 4167              	.LBI1034:
 239:../../libdaisy/src/dev/oled_ssd130x.h ****     {
 4168              		.loc 5 239 10 is_stmt 1 view .LVU1084
 4169              	.LBB1035:
 246:../../libdaisy/src/dev/oled_ssd130x.h ****     }
 4170              		.loc 5 246 49 is_stmt 0 view .LVU1085
 4171 03ea 07FA0CFC 		lsl	ip, r7, ip
 246:../../libdaisy/src/dev/oled_ssd130x.h ****     }
 4172              		.loc 5 246 42 view .LVU1086
 4173 03ee 377D     		ldrb	r7, [r6, #20]	@ zero_extendqisi2
 4174 03f0 0295     		str	r5, [sp, #8]
 4175 03f2 27EA0C07 		bic	r7, r7, ip
 4176 03f6 0095     		str	r5, [sp]
 4177 03f8 3775     		strb	r7, [r6, #20]
 4178 03fa 6CE6     		b	.L197
 4179              	.LVL283:
 4180              	.L242:
 246:../../libdaisy/src/dev/oled_ssd130x.h ****     }
 4181              		.loc 5 246 42 view .LVU1087
 4182              	.LBE1035:
 4183              	.LBE1034:
 4184              	.LBE1039:
 4185              	.LBE1043:
 4186              	.LBE1055:
 4187              	.LBE1058:
 4188              	.LBE1146:
 4189              	.LBB1147:
 4190              	.LBB1094:
 190:../../libdaisy/src/hid/disp/display.h ****         int_fast16_t error  = deltaX - deltaY;
 4191              		.loc 6 190 42 view .LVU1088
 4192 03fc 4FF0FF36 		mov	r6, #-1
 4193 0400 0096     		str	r6, [sp]
 4194 0402 C5E6     		b	.L208
 4195              	.LVL284:
 4196              	.L246:
 190:../../libdaisy/src/hid/disp/display.h ****         int_fast16_t error  = deltaX - deltaY;
 4197              		.loc 6 190 42 view .LVU1089
 4198 0404 0126     		movs	r6, #1
 4199 0406 0096     		str	r6, [sp]
 4200 0408 C5E6     		b	.L211
 4201              	.LVL285:
 4202              	.L279:
 190:../../libdaisy/src/hid/disp/display.h ****         int_fast16_t error  = deltaX - deltaY;
 4203              		.loc 6 190 42 view .LVU1090
 4204              	.LBE1094:
 4205              	.LBE1147:
 4206              	.LBB1148:
 4207              	.LBB1059:
 199:../../libdaisy/src/hid/disp/display.h ****         {
 4208              		.loc 6 199 19 view .LVU1091
 4209 040a 0126     		movs	r6, #1
 4210 040c 0496     		str	r6, [sp, #16]
 4211 040e 90E6     		b	.L199
ARM GAS  C:\Users\VINCIU~1\AppData\Local\Temp\ccnesEGk.s 			page 120


 4212              	.LVL286:
 4213              	.L280:
 199:../../libdaisy/src/hid/disp/display.h ****         {
 4214              		.loc 6 199 19 view .LVU1092
 4215              	.LBE1059:
 4216              	.LBE1148:
 4217              	.LBB1149:
 4218              	.LBB1095:
 199:../../libdaisy/src/hid/disp/display.h ****         {
 4219              		.loc 6 199 33 view .LVU1093
 4220 0410 0126     		movs	r6, #1
 4221 0412 0196     		str	r6, [sp, #4]
 4222 0414 EDE6     		b	.L210
 4223              	.LBE1095:
 4224              	.LBE1149:
 4225              	.LBE1173:
 4226              		.cfi_endproc
 4227              	.LFE4344:
 4229 0416 00BF     		.section	.rodata._ZN5Menus5Menu1E23OledDisplayExtravaganzaPN7daisysp10OscillatorE.str1.4,"aMS",%pr
 4230              		.align	2
 4231              	.LC4:
 4232 0000 00       		.ascii	"\000"
 4233 0001 000000   		.align	2
 4234              	.LC5:
 4235 0004 4F736300 		.ascii	"Osc\000"
 4236              		.align	2
 4237              	.LC6:
 4238 0008 53656D69 		.ascii	"Semi_%dst\000"
 4238      5F256473 
 4238      7400
 4239 0012 0000     		.align	2
 4240              	.LC7:
 4241 0014 46696E65 		.ascii	"Fine_%d%%\000"
 4241      5F256425 
 4241      2500
 4242              		.section	.text._ZN5Menus5Menu1E23OledDisplayExtravaganzaPN7daisysp10OscillatorE,"ax",%progbits
 4243              		.align	1
 4244              		.p2align 2,,3
 4245              		.global	_ZN5Menus5Menu1E23OledDisplayExtravaganzaPN7daisysp10OscillatorE
 4246              		.syntax unified
 4247              		.thumb
 4248              		.thumb_func
 4249              		.fpu fpv5-d16
 4251              	_ZN5Menus5Menu1E23OledDisplayExtravaganzaPN7daisysp10OscillatorE:
 4252              	.LVL287:
 4253              	.LFB4040:
 191:Menus.cpp     **** {
 4254              		.loc 2 191 1 is_stmt 1 view -0
 4255              		.cfi_startproc
 4256              		@ args = 0, pretend = 0, frame = 8
 4257              		@ frame_needed = 0, uses_anonymous_args = 0
 191:Menus.cpp     **** {
 4258              		.loc 2 191 1 is_stmt 0 view .LVU1095
 4259 0000 2DE9F043 		push	{r4, r5, r6, r7, r8, r9, lr}
 4260              		.cfi_def_cfa_offset 28
 4261              		.cfi_offset 4, -28
 4262              		.cfi_offset 5, -24
ARM GAS  C:\Users\VINCIU~1\AppData\Local\Temp\ccnesEGk.s 			page 121


 4263              		.cfi_offset 6, -20
 4264              		.cfi_offset 7, -16
 4265              		.cfi_offset 8, -12
 4266              		.cfi_offset 9, -8
 4267              		.cfi_offset 14, -4
 192:Menus.cpp     ****     screen.Fill(!on);
 4268              		.loc 2 192 18 view .LVU1096
 4269 0004 90F8E081 		ldrb	r8, [r0, #480]	@ zero_extendqisi2
 4270 0008 01F11406 		add	r6, r1, #20
 191:Menus.cpp     **** {
 4271              		.loc 2 191 1 view .LVU1097
 4272 000c 0C46     		mov	r4, r1
 4273 000e 0546     		mov	r5, r0
 192:Menus.cpp     ****     screen.Fill(!on);
 4274              		.loc 2 192 5 is_stmt 1 view .LVU1098
 4275              	.LVL288:
 4276              	.LBB1395:
 4277              	.LBI1395:
  33:../../libdaisy/src/hid/disp/oled_display.h **** 
 4278              		.loc 1 33 10 view .LVU1099
 4279              	.LBB1396:
 4280              	.LBI1396:
 249:../../libdaisy/src/dev/oled_ssd130x.h ****     {
 4281              		.loc 5 249 10 view .LVU1100
 4282              	.LBB1397:
 251:../../libdaisy/src/dev/oled_ssd130x.h ****         {
 4283              		.loc 5 251 29 view .LVU1101
 253:../../libdaisy/src/dev/oled_ssd130x.h ****         }
 4284              		.loc 5 253 24 is_stmt 0 view .LVU1102
 4285 0010 88F00101 		eor	r1, r8, #1
 4286              	.LVL289:
 253:../../libdaisy/src/dev/oled_ssd130x.h ****         }
 4287              		.loc 5 253 24 view .LVU1103
 4288              	.LBE1397:
 4289              	.LBE1396:
 4290              	.LBE1395:
 191:Menus.cpp     **** {
 4291              		.loc 2 191 1 view .LVU1104
 4292 0014 1746     		mov	r7, r2
 4293              	.LBB1404:
 4294              	.LBB1401:
 4295              	.LBB1398:
 253:../../libdaisy/src/dev/oled_ssd130x.h ****         }
 4296              		.loc 5 253 24 view .LVU1105
 4297 0016 3046     		mov	r0, r6
 4298              	.LVL290:
 253:../../libdaisy/src/dev/oled_ssd130x.h ****         }
 4299              		.loc 5 253 24 view .LVU1106
 4300 0018 4FF48062 		mov	r2, #1024
 4301              	.LVL291:
 253:../../libdaisy/src/dev/oled_ssd130x.h ****         }
 4302              		.loc 5 253 24 view .LVU1107
 4303 001c 4942     		rsbs	r1, r1, #0
 4304              	.LBE1398:
 4305              	.LBE1401:
 4306              	.LBE1404:
 191:Menus.cpp     **** {
ARM GAS  C:\Users\VINCIU~1\AppData\Local\Temp\ccnesEGk.s 			page 122


 4307              		.loc 2 191 1 view .LVU1108
 4308 001e 2DED028B 		vpush.64	{d8}
 4309              		.cfi_def_cfa_offset 36
 4310              		.cfi_offset 80, -36
 4311              		.cfi_offset 81, -32
 4312              	.LBB1405:
 4313              	.LBB1402:
 4314              	.LBB1399:
 253:../../libdaisy/src/dev/oled_ssd130x.h ****         }
 4315              		.loc 5 253 24 view .LVU1109
 4316 0022 C9B2     		uxtb	r1, r1
 4317              	.LBE1399:
 4318              	.LBE1402:
 4319              	.LBE1405:
 191:Menus.cpp     **** {
 4320              		.loc 2 191 1 view .LVU1110
 4321 0024 87B0     		sub	sp, sp, #28
 4322              		.cfi_def_cfa_offset 64
 4323              	.LBB1406:
 4324              	.LBB1403:
 4325              	.LBB1400:
 253:../../libdaisy/src/dev/oled_ssd130x.h ****         }
 4326              		.loc 5 253 24 view .LVU1111
 4327 0026 FFF7FEFF 		bl	memset
 4328              	.LVL292:
 253:../../libdaisy/src/dev/oled_ssd130x.h ****         }
 4329              		.loc 5 253 24 view .LVU1112
 4330              	.LBE1400:
 4331              	.LBE1403:
 4332              	.LBE1406:
 193:Menus.cpp     ****     if(this->buttonLeft.RisingEdge())
 4333              		.loc 2 193 5 is_stmt 1 view .LVU1113
 4334              	.LBB1407:
 4335              	.LBI1407:
 4336              		.loc 4 69 17 view .LVU1114
 4337              	.LBB1408:
 4338              		.loc 4 69 38 view .LVU1115
 4339              		.loc 4 69 38 is_stmt 0 view .LVU1116
 4340              	.LBE1408:
 4341              	.LBE1407:
 193:Menus.cpp     ****     if(this->buttonLeft.RisingEdge())
 4342              		.loc 2 193 5 view .LVU1117
 4343 002a 95F85130 		ldrb	r3, [r5, #81]	@ zero_extendqisi2
 4344 002e 7F2B     		cmp	r3, #127
 4345 0030 00F0BC82 		beq	.L398
 202:Menus.cpp     ****     if(this->buttonRight.RisingEdge())
 4346              		.loc 2 202 5 is_stmt 1 view .LVU1118
 4347              	.LVL293:
 4348              	.LBB1409:
 4349              	.LBI1409:
 4350              		.loc 4 69 17 view .LVU1119
 4351              	.LBB1410:
 4352              		.loc 4 69 38 view .LVU1120
 4353              		.loc 4 69 38 is_stmt 0 view .LVU1121
 4354              	.LBE1410:
 4355              	.LBE1409:
 202:Menus.cpp     ****     if(this->buttonRight.RisingEdge())
ARM GAS  C:\Users\VINCIU~1\AppData\Local\Temp\ccnesEGk.s 			page 123


 4356              		.loc 2 202 5 view .LVU1122
 4357 0034 95F86130 		ldrb	r3, [r5, #97]	@ zero_extendqisi2
 4358 0038 7F2B     		cmp	r3, #127
 4359 003a 00F0C082 		beq	.L399
 4360              	.L286:
 212:Menus.cpp     ****     screen.drawHorizontalToggle(46, 13, 8, on, this->OscSelector, "");
 4361              		.loc 2 212 5 is_stmt 1 view .LVU1123
 212:Menus.cpp     ****     screen.drawHorizontalToggle(46, 13, 8, on, this->OscSelector, "");
 4362              		.loc 2 212 32 is_stmt 0 view .LVU1124
 4363 003e 4146     		mov	r1, r8
 4364 0040 B2EE001A 		vmov.f32	s2, #8.0e+0
 4365 0044 F2EE0A0A 		vmov.f32	s1, #1.3e+1
 4366 0048 9FEDC30A 		vldr.32	s0, .L423
 4367 004c C34B     		ldr	r3, .L423+4
 4368 004e 2046     		mov	r0, r4
 4369 0050 95F87420 		ldrb	r2, [r5, #116]	@ zero_extendqisi2
 4370 0054 FFF7FEFF 		bl	_ZN23OledDisplayExtravaganza20drawHorizontalToggleEfffbbPKc
 4371              	.LVL294:
 214:Menus.cpp     ****     if(this->OscSelector == true)
 4372              		.loc 2 214 5 is_stmt 1 view .LVU1125
 4373 0058 95F87480 		ldrb	r8, [r5, #116]	@ zero_extendqisi2
 4374 005c B8F1000F 		cmp	r8, #0
 4375 0060 00F02681 		beq	.L288
 216:Menus.cpp     ****         screen.drawSlider(70, 7, 50, 3, on, ((this->drawSliderSemi)) / 40);
 4376              		.loc 2 216 9 view .LVU1126
 216:Menus.cpp     ****         screen.drawSlider(70, 7, 50, 3, on, ((this->drawSliderSemi)) / 40);
 4377              		.loc 2 216 26 is_stmt 0 view .LVU1127
 4378 0064 95F8E031 		ldrb	r3, [r5, #480]	@ zero_extendqisi2
 4379 0068 F0EE081A 		vmov.f32	s3, #3.0e+0
 4380 006c D5ED1E2A 		vldr.32	s5, [r5, #120]
 4381 0070 F1EE0C0A 		vmov.f32	s1, #7.0e+0
 4382 0074 02EE103A 		vmov	s4, r3	@ int
 4383 0078 9FEDC68A 		vldr.32	s16, .L423+60
 4384 007c 2046     		mov	r0, r4
 4385 007e 9FEDB81A 		vldr.32	s2, .L423+8
 4386 0082 C2EE882A 		vdiv.f32	s5, s5, s16
 4387 0086 9FEDB70A 		vldr.32	s0, .L423+12
 221:Menus.cpp     ****         screen.WriteString(this->buff, Font_6x8, true);
 4388              		.loc 2 221 27 view .LVU1128
 4389 008a DFF8FC82 		ldr	r8, .L423+48
 4390 008e 4FF00109 		mov	r9, #1
 216:Menus.cpp     ****         screen.drawSlider(70, 7, 50, 3, on, ((this->drawSliderSemi)) / 40);
 4391              		.loc 2 216 26 view .LVU1129
 4392 0092 B8EE422A 		vcvt.f32.u32	s4, s4
 4393 0096 FFF7FEFF 		bl	_ZN23OledDisplayExtravaganza10drawSliderEffffff
 4394              	.LVL295:
 217:Menus.cpp     ****         screen.drawSlider(70, 40, 50, 3, on, drawSliderFine);
 4395              		.loc 2 217 9 is_stmt 1 view .LVU1130
 217:Menus.cpp     ****         screen.drawSlider(70, 40, 50, 3, on, drawSliderFine);
 4396              		.loc 2 217 26 is_stmt 0 view .LVU1131
 4397 009a 95F8E031 		ldrb	r3, [r5, #480]	@ zero_extendqisi2
 4398 009e F0EE081A 		vmov.f32	s3, #3.0e+0
 4399 00a2 D5ED1F2A 		vldr.32	s5, [r5, #124]
 4400 00a6 02EE103A 		vmov	s4, r3	@ int
 4401 00aa F0EE480A 		vmov.f32	s1, s16
 4402 00ae 2046     		mov	r0, r4
 4403 00b0 9FEDAB1A 		vldr.32	s2, .L423+8
ARM GAS  C:\Users\VINCIU~1\AppData\Local\Temp\ccnesEGk.s 			page 124


 4404 00b4 B8EE422A 		vcvt.f32.u32	s4, s4
 4405 00b8 9FEDAA0A 		vldr.32	s0, .L423+12
 4406 00bc FFF7FEFF 		bl	_ZN23OledDisplayExtravaganza10drawSliderEffffff
 4407              	.LVL296:
 218:Menus.cpp     ****         screen.drawVerticalToggle(13, 51, 8, on, this->toggleOsc, "");
 4408              		.loc 2 218 9 is_stmt 1 view .LVU1132
 218:Menus.cpp     ****         screen.drawVerticalToggle(13, 51, 8, on, this->toggleOsc, "");
 4409              		.loc 2 218 34 is_stmt 0 view .LVU1133
 4410 00c0 B2EE001A 		vmov.f32	s2, #8.0e+0
 4411 00c4 B2EE0A0A 		vmov.f32	s0, #1.3e+1
 4412 00c8 DFEDA70A 		vldr.32	s1, .L423+16
 4413 00cc 2046     		mov	r0, r4
 4414 00ce A34B     		ldr	r3, .L423+4
 4415 00d0 95F89820 		ldrb	r2, [r5, #152]	@ zero_extendqisi2
 4416 00d4 95F8E011 		ldrb	r1, [r5, #480]	@ zero_extendqisi2
 4417 00d8 FFF7FEFF 		bl	_ZN23OledDisplayExtravaganza18drawVerticalToggleEfffbbPKc
 4418              	.LVL297:
 219:Menus.cpp     ****         screen.WaveIcons(35, 42, 55, this->selectedWave, on);
 4419              		.loc 2 219 9 is_stmt 1 view .LVU1134
 219:Menus.cpp     ****         screen.WaveIcons(35, 42, 55, this->selectedWave, on);
 4420              		.loc 2 219 25 is_stmt 0 view .LVU1135
 4421 00dc 95F8E031 		ldrb	r3, [r5, #480]	@ zero_extendqisi2
 4422 00e0 2046     		mov	r0, r4
 4423 00e2 2A22     		movs	r2, #42
 4424 00e4 0193     		str	r3, [sp, #4]
 4425 00e6 2321     		movs	r1, #35
 4426 00e8 D5F89C30 		ldr	r3, [r5, #156]
 4427 00ec 0093     		str	r3, [sp]
 4428 00ee 3723     		movs	r3, #55
 4429 00f0 FFF7FEFF 		bl	_ZN23OledDisplayExtravaganza9WaveIconsEiiiib
 4430              	.LVL298:
 220:Menus.cpp     ****         screen.SetCursor(70, 17);
 4431              		.loc 2 220 9 is_stmt 1 view .LVU1136
 4432              	.LBB1413:
 4433              	.LBI1413:
 131:../../libdaisy/src/hid/disp/display.h ****     {
 4434              		.loc 6 131 10 view .LVU1137
 4435              	.LBB1414:
 133:../../libdaisy/src/hid/disp/display.h ****         currentY_ = (y >= Height()) ? Height() - 1 : y;
 4436              		.loc 6 133 9 view .LVU1138
 134:../../libdaisy/src/hid/disp/display.h ****     }
 4437              		.loc 6 134 9 view .LVU1139
 133:../../libdaisy/src/hid/disp/display.h ****         currentY_ = (y >= Height()) ? Height() - 1 : y;
 4438              		.loc 6 133 19 is_stmt 0 view .LVU1140
 4439 00f4 9D4B     		ldr	r3, .L423+20
 4440              	.LBE1414:
 4441              	.LBE1413:
 221:Menus.cpp     ****         screen.WriteString(this->buff, Font_6x8, true);
 4442              		.loc 2 221 27 view .LVU1141
 4443 00f6 05F1A401 		add	r1, r5, #164
 4444 00fa 2046     		mov	r0, r4
 4445              	.LBB1416:
 4446              	.LBB1415:
 133:../../libdaisy/src/hid/disp/display.h ****         currentY_ = (y >= Height()) ? Height() - 1 : y;
 4447              		.loc 6 133 19 view .LVU1142
 4448 00fc 6360     		str	r3, [r4, #4]
 4449              	.LVL299:
ARM GAS  C:\Users\VINCIU~1\AppData\Local\Temp\ccnesEGk.s 			page 125


 133:../../libdaisy/src/hid/disp/display.h ****         currentY_ = (y >= Height()) ? Height() - 1 : y;
 4450              		.loc 6 133 19 view .LVU1143
 4451              	.LBE1415:
 4452              	.LBE1416:
 221:Menus.cpp     ****         screen.WriteString(this->buff, Font_6x8, true);
 4453              		.loc 2 221 9 is_stmt 1 view .LVU1144
 221:Menus.cpp     ****         screen.WriteString(this->buff, Font_6x8, true);
 4454              		.loc 2 221 27 is_stmt 0 view .LVU1145
 4455 00fe CDF80090 		str	r9, [sp]
 4456 0102 98E80C00 		ldm	r8, {r2, r3}
 4457 0106 FFF7FEFF 		bl	_ZN5daisy25OneBitGraphicsDisplayImplINS_11OledDisplayINS_13SSD130xDriverILj128ELj64ENS_24SSD130
 4458              	.LVL300:
 222:Menus.cpp     ****         screen.SetCursor(70, 50);
 4459              		.loc 2 222 9 is_stmt 1 view .LVU1146
 4460              	.LBB1417:
 4461              	.LBI1417:
 131:../../libdaisy/src/hid/disp/display.h ****     {
 4462              		.loc 6 131 10 view .LVU1147
 4463              	.LBB1418:
 133:../../libdaisy/src/hid/disp/display.h ****         currentY_ = (y >= Height()) ? Height() - 1 : y;
 4464              		.loc 6 133 9 view .LVU1148
 134:../../libdaisy/src/hid/disp/display.h ****     }
 4465              		.loc 6 134 9 view .LVU1149
 133:../../libdaisy/src/hid/disp/display.h ****         currentY_ = (y >= Height()) ? Height() - 1 : y;
 4466              		.loc 6 133 19 is_stmt 0 view .LVU1150
 4467 010a 994B     		ldr	r3, .L423+24
 4468              	.LBE1418:
 4469              	.LBE1417:
 223:Menus.cpp     ****         screen.WriteString(this->buffFine, Font_6x8, true);
 4470              		.loc 2 223 27 view .LVU1151
 4471 010c CDF80090 		str	r9, [sp]
 4472 0110 05F1D401 		add	r1, r5, #212
 4473              	.LBB1420:
 4474              	.LBB1419:
 133:../../libdaisy/src/hid/disp/display.h ****         currentY_ = (y >= Height()) ? Height() - 1 : y;
 4475              		.loc 6 133 19 view .LVU1152
 4476 0114 6360     		str	r3, [r4, #4]
 4477              	.LVL301:
 133:../../libdaisy/src/hid/disp/display.h ****         currentY_ = (y >= Height()) ? Height() - 1 : y;
 4478              		.loc 6 133 19 view .LVU1153
 4479              	.LBE1419:
 4480              	.LBE1420:
 223:Menus.cpp     ****         screen.WriteString(this->buffFine, Font_6x8, true);
 4481              		.loc 2 223 9 is_stmt 1 view .LVU1154
 223:Menus.cpp     ****         screen.WriteString(this->buffFine, Font_6x8, true);
 4482              		.loc 2 223 27 is_stmt 0 view .LVU1155
 4483 0116 2046     		mov	r0, r4
 4484 0118 98E80C00 		ldm	r8, {r2, r3}
 4485 011c FFF7FEFF 		bl	_ZN5daisy25OneBitGraphicsDisplayImplINS_11OledDisplayINS_13SSD130xDriverILj128ELj64ENS_24SSD130
 4486              	.LVL302:
 4487              	.L289:
 238:Menus.cpp     ****     screen.SetCursor(4, 8);
 4488              		.loc 2 238 5 is_stmt 1 view .LVU1156
 4489              	.LBB1421:
 4490              	.LBI1421:
 131:../../libdaisy/src/hid/disp/display.h ****     {
 4491              		.loc 6 131 10 view .LVU1157
ARM GAS  C:\Users\VINCIU~1\AppData\Local\Temp\ccnesEGk.s 			page 126


 4492              	.LBB1422:
 133:../../libdaisy/src/hid/disp/display.h ****         currentY_ = (y >= Height()) ? Height() - 1 : y;
 4493              		.loc 6 133 9 view .LVU1158
 134:../../libdaisy/src/hid/disp/display.h ****     }
 4494              		.loc 6 134 9 view .LVU1159
 133:../../libdaisy/src/hid/disp/display.h ****         currentY_ = (y >= Height()) ? Height() - 1 : y;
 4495              		.loc 6 133 19 is_stmt 0 view .LVU1160
 4496 0120 944B     		ldr	r3, .L423+28
 4497              	.LBE1422:
 4498              	.LBE1421:
 239:Menus.cpp     ****     screen.WriteString("Osc", Font_7x10, on);
 4499              		.loc 2 239 23 view .LVU1161
 4500 0122 2046     		mov	r0, r4
 4501 0124 95F8E021 		ldrb	r2, [r5, #480]	@ zero_extendqisi2
 4502              	.LBB1424:
 4503              	.LBB1423:
 133:../../libdaisy/src/hid/disp/display.h ****         currentY_ = (y >= Height()) ? Height() - 1 : y;
 4504              		.loc 6 133 19 view .LVU1162
 4505 0128 6360     		str	r3, [r4, #4]
 4506              	.LVL303:
 133:../../libdaisy/src/hid/disp/display.h ****         currentY_ = (y >= Height()) ? Height() - 1 : y;
 4507              		.loc 6 133 19 view .LVU1163
 4508              	.LBE1423:
 4509              	.LBE1424:
 239:Menus.cpp     ****     screen.WriteString("Osc", Font_7x10, on);
 4510              		.loc 2 239 5 is_stmt 1 view .LVU1164
 239:Menus.cpp     ****     screen.WriteString("Osc", Font_7x10, on);
 4511              		.loc 2 239 23 is_stmt 0 view .LVU1165
 4512 012a 934B     		ldr	r3, .L423+32
 4513 012c 0092     		str	r2, [sp]
 4514 012e 9349     		ldr	r1, .L423+36
 4515 0130 0CCB     		ldm	r3, {r2, r3}
 4516 0132 FFF7FEFF 		bl	_ZN5daisy25OneBitGraphicsDisplayImplINS_11OledDisplayINS_13SSD130xDriverILj128ELj64ENS_24SSD130
 4517              	.LVL304:
 242:Menus.cpp     ****     for(int i = 0; i < screen.Width(); i++)
 4518              		.loc 2 242 5 is_stmt 1 view .LVU1166
 4519              	.LBB1425:
 242:Menus.cpp     ****     for(int i = 0; i < screen.Width(); i++)
 4520              		.loc 2 242 22 view .LVU1167
 244:Menus.cpp     ****         screen.DrawPixel(i * 3, (screen.Height() / 2) - 3, on);
 4521              		.loc 2 244 25 is_stmt 0 view .LVU1168
 4522 0136 95F8E001 		ldrb	r0, [r5, #480]	@ zero_extendqisi2
 4523 013a A446     		mov	ip, r4
 4524 013c 0023     		movs	r3, #0
 4525              	.LVL305:
 4526              	.L294:
 244:Menus.cpp     ****         screen.DrawPixel(i * 3, (screen.Height() / 2) - 3, on);
 4527              		.loc 2 244 9 is_stmt 1 discriminator 2 view .LVU1169
 4528              	.LBB1426:
 4529              	.LBI1426:
  41:../../libdaisy/src/hid/disp/oled_display.h ****     {
 4530              		.loc 1 41 10 discriminator 2 view .LVU1170
 4531              	.LBB1427:
 4532              	.LBI1427:
 239:../../libdaisy/src/dev/oled_ssd130x.h ****     {
 4533              		.loc 5 239 10 discriminator 2 view .LVU1171
 4534              	.LBB1428:
ARM GAS  C:\Users\VINCIU~1\AppData\Local\Temp\ccnesEGk.s 			page 127


 241:../../libdaisy/src/dev/oled_ssd130x.h ****             return;
 4535              		.loc 5 241 9 is_stmt 0 discriminator 2 view .LVU1172
 4536 013e 7F2B     		cmp	r3, #127
 4537 0140 0DD8     		bhi	.L290
 4538              	.LVL306:
 4539              	.L400:
 4540              	.LBB1429:
 4541              	.LBI1429:
 239:../../libdaisy/src/dev/oled_ssd130x.h ****     {
 4542              		.loc 5 239 10 is_stmt 1 view .LVU1173
 239:../../libdaisy/src/dev/oled_ssd130x.h ****     {
 4543              		.loc 5 239 10 is_stmt 0 view .LVU1174
 4544              	.LBE1429:
 244:../../libdaisy/src/dev/oled_ssd130x.h ****         else
 4545              		.loc 5 244 42 view .LVU1175
 4546 0142 9CF89421 		ldrb	r2, [ip, #404]	@ zero_extendqisi2
 243:../../libdaisy/src/dev/oled_ssd130x.h ****             buffer_[x + (y / 8) * width] |= (1 << (y % 8));
 4547              		.loc 5 243 9 view .LVU1176
 4548 0146 0028     		cmp	r0, #0
 4549 0148 00F09B80 		beq	.L291
 244:../../libdaisy/src/dev/oled_ssd130x.h ****         else
 4550              		.loc 5 244 42 view .LVU1177
 4551 014c 42F02002 		orr	r2, r2, #32
 4552 0150 8CF89421 		strb	r2, [ip, #404]
 4553              	.L292:
 4554              	.LVL307:
 244:../../libdaisy/src/dev/oled_ssd130x.h ****         else
 4555              		.loc 5 244 42 view .LVU1178
 4556              	.LBE1428:
 4557              	.LBE1427:
 4558              	.LBE1426:
 242:Menus.cpp     ****     for(int i = 0; i < screen.Width(); i++)
 4559              		.loc 2 242 5 is_stmt 1 view .LVU1179
 242:Menus.cpp     ****     for(int i = 0; i < screen.Width(); i++)
 4560              		.loc 2 242 22 view .LVU1180
 4561 0154 0333     		adds	r3, r3, #3
 4562 0156 0CF1030C 		add	ip, ip, #3
 244:Menus.cpp     ****         screen.DrawPixel(i * 3, (screen.Height() / 2) - 3, on);
 4563              		.loc 2 244 9 view .LVU1181
 4564              	.LVL308:
 4565              	.LBB1436:
  41:../../libdaisy/src/hid/disp/oled_display.h ****     {
 4566              		.loc 1 41 10 view .LVU1182
 4567              	.LBB1434:
 239:../../libdaisy/src/dev/oled_ssd130x.h ****     {
 4568              		.loc 5 239 10 view .LVU1183
 4569              	.LBB1432:
 241:../../libdaisy/src/dev/oled_ssd130x.h ****             return;
 4570              		.loc 5 241 9 is_stmt 0 view .LVU1184
 4571 015a 7F2B     		cmp	r3, #127
 4572 015c F1D9     		bls	.L400
 4573              	.LVL309:
 4574              	.L290:
 241:../../libdaisy/src/dev/oled_ssd130x.h ****             return;
 4575              		.loc 5 241 9 view .LVU1185
 4576              	.LBE1432:
 4577              	.LBE1434:
ARM GAS  C:\Users\VINCIU~1\AppData\Local\Temp\ccnesEGk.s 			page 128


 4578              	.LBE1436:
 242:Menus.cpp     ****     for(int i = 0; i < screen.Width(); i++)
 4579              		.loc 2 242 5 is_stmt 1 view .LVU1186
 242:Menus.cpp     ****     for(int i = 0; i < screen.Width(); i++)
 4580              		.loc 2 242 22 view .LVU1187
 4581 015e 0333     		adds	r3, r3, #3
 4582 0160 0CF1030C 		add	ip, ip, #3
 4583 0164 B3F5C07F 		cmp	r3, #384
 4584 0168 E9D1     		bne	.L294
 4585 016a 0023     		movs	r3, #0
 4586              	.L293:
 4587              	.LBE1425:
 4588              	.LBB1438:
 248:Menus.cpp     ****         screen.DrawPixel(60, i * 2, on);
 4589              		.loc 2 248 9 discriminator 2 view .LVU1188
 4590              	.LVL310:
 4591              	.LBB1439:
 4592              	.LBI1439:
  41:../../libdaisy/src/hid/disp/oled_display.h ****     {
 4593              		.loc 1 41 10 discriminator 2 view .LVU1189
 4594              	.LBB1440:
 4595              	.LBI1440:
 239:../../libdaisy/src/dev/oled_ssd130x.h ****     {
 4596              		.loc 5 239 10 discriminator 2 view .LVU1190
 4597              	.LBB1441:
 241:../../libdaisy/src/dev/oled_ssd130x.h ****             return;
 4598              		.loc 5 241 9 is_stmt 0 discriminator 2 view .LVU1191
 4599 016c 3F2B     		cmp	r3, #63
 4600 016e 14D8     		bhi	.L295
 4601              	.LVL311:
 4602              	.L401:
 4603              	.LBB1442:
 4604              	.LBI1442:
 239:../../libdaisy/src/dev/oled_ssd130x.h ****     {
 4605              		.loc 5 239 10 is_stmt 1 view .LVU1192
 239:../../libdaisy/src/dev/oled_ssd130x.h ****     {
 4606              		.loc 5 239 10 is_stmt 0 view .LVU1193
 4607              	.LBE1442:
 244:../../libdaisy/src/dev/oled_ssd130x.h ****         else
 4608              		.loc 5 244 48 view .LVU1194
 4609 0170 0121     		movs	r1, #1
 244:../../libdaisy/src/dev/oled_ssd130x.h ****         else
 4610              		.loc 5 244 28 view .LVU1195
 4611 0172 4FEAD30C 		lsr	ip, r3, #3
 244:../../libdaisy/src/dev/oled_ssd130x.h ****         else
 4612              		.loc 5 244 54 view .LVU1196
 4613 0176 03F0070E 		and	lr, r3, #7
 4614              	.LBB1445:
 4615              	.LBB1443:
 246:../../libdaisy/src/dev/oled_ssd130x.h ****     }
 4616              		.loc 5 246 49 view .LVU1197
 4617 017a 8846     		mov	r8, r1
 4618              	.LBE1443:
 4619              	.LBE1445:
 244:../../libdaisy/src/dev/oled_ssd130x.h ****         else
 4620              		.loc 5 244 42 view .LVU1198
 4621 017c 04EBCC1C 		add	ip, r4, ip, lsl #7
ARM GAS  C:\Users\VINCIU~1\AppData\Local\Temp\ccnesEGk.s 			page 129


 244:../../libdaisy/src/dev/oled_ssd130x.h ****         else
 4622              		.loc 5 244 48 view .LVU1199
 4623 0180 01FA0EF1 		lsl	r1, r1, lr
 243:../../libdaisy/src/dev/oled_ssd130x.h ****             buffer_[x + (y / 8) * width] |= (1 << (y % 8));
 4624              		.loc 5 243 9 view .LVU1200
 4625 0184 0028     		cmp	r0, #0
 4626 0186 00F08180 		beq	.L296
 244:../../libdaisy/src/dev/oled_ssd130x.h ****         else
 4627              		.loc 5 244 42 view .LVU1201
 4628 018a 9CF85020 		ldrb	r2, [ip, #80]	@ zero_extendqisi2
 4629 018e 1143     		orrs	r1, r1, r2
 4630 0190 8CF85010 		strb	r1, [ip, #80]
 4631              	.L297:
 4632              	.LVL312:
 244:../../libdaisy/src/dev/oled_ssd130x.h ****         else
 4633              		.loc 5 244 42 view .LVU1202
 4634              	.LBE1441:
 4635              	.LBE1440:
 4636              	.LBE1439:
 246:Menus.cpp     ****     for(int i = 0; i < screen.Height(); i++)
 4637              		.loc 2 246 5 is_stmt 1 view .LVU1203
 246:Menus.cpp     ****     for(int i = 0; i < screen.Height(); i++)
 4638              		.loc 2 246 22 view .LVU1204
 4639 0194 0233     		adds	r3, r3, #2
 248:Menus.cpp     ****         screen.DrawPixel(60, i * 2, on);
 4640              		.loc 2 248 9 view .LVU1205
 4641              	.LVL313:
 4642              	.LBB1451:
  41:../../libdaisy/src/hid/disp/oled_display.h ****     {
 4643              		.loc 1 41 10 view .LVU1206
 4644              	.LBB1449:
 239:../../libdaisy/src/dev/oled_ssd130x.h ****     {
 4645              		.loc 5 239 10 view .LVU1207
 4646              	.LBB1447:
 241:../../libdaisy/src/dev/oled_ssd130x.h ****             return;
 4647              		.loc 5 241 9 is_stmt 0 view .LVU1208
 4648 0196 3F2B     		cmp	r3, #63
 4649 0198 EAD9     		bls	.L401
 4650              	.LVL314:
 4651              	.L295:
 241:../../libdaisy/src/dev/oled_ssd130x.h ****             return;
 4652              		.loc 5 241 9 view .LVU1209
 4653              	.LBE1447:
 4654              	.LBE1449:
 4655              	.LBE1451:
 246:Menus.cpp     ****     for(int i = 0; i < screen.Height(); i++)
 4656              		.loc 2 246 5 is_stmt 1 view .LVU1210
 246:Menus.cpp     ****     for(int i = 0; i < screen.Height(); i++)
 4657              		.loc 2 246 22 view .LVU1211
 4658 019a 0233     		adds	r3, r3, #2
 4659 019c 802B     		cmp	r3, #128
 4660 019e E5D1     		bne	.L293
 4661 01a0 1E23     		movs	r3, #30
 4662              	.L298:
 4663              	.LBE1438:
 4664              	.LBB1453:
 252:Menus.cpp     ****         screen.DrawPixel(29, i * 2, on);
ARM GAS  C:\Users\VINCIU~1\AppData\Local\Temp\ccnesEGk.s 			page 130


 4665              		.loc 2 252 9 discriminator 2 view .LVU1212
 4666              	.LVL315:
 4667              	.LBB1454:
 4668              	.LBI1454:
  41:../../libdaisy/src/hid/disp/oled_display.h ****     {
 4669              		.loc 1 41 10 discriminator 2 view .LVU1213
 4670              	.LBB1455:
 4671              	.LBI1455:
 239:../../libdaisy/src/dev/oled_ssd130x.h ****     {
 4672              		.loc 5 239 10 discriminator 2 view .LVU1214
 4673              	.LBB1456:
 241:../../libdaisy/src/dev/oled_ssd130x.h ****             return;
 4674              		.loc 5 241 9 is_stmt 0 discriminator 2 view .LVU1215
 4675 01a2 3F2B     		cmp	r3, #63
 4676 01a4 13D8     		bhi	.L299
 4677              	.LVL316:
 4678              	.L402:
 4679              	.LBB1457:
 4680              	.LBI1457:
 239:../../libdaisy/src/dev/oled_ssd130x.h ****     {
 4681              		.loc 5 239 10 is_stmt 1 view .LVU1216
 239:../../libdaisy/src/dev/oled_ssd130x.h ****     {
 4682              		.loc 5 239 10 is_stmt 0 view .LVU1217
 4683              	.LBE1457:
 244:../../libdaisy/src/dev/oled_ssd130x.h ****         else
 4684              		.loc 5 244 48 view .LVU1218
 4685 01a6 0122     		movs	r2, #1
 244:../../libdaisy/src/dev/oled_ssd130x.h ****         else
 4686              		.loc 5 244 28 view .LVU1219
 4687 01a8 4FEAD30C 		lsr	ip, r3, #3
 244:../../libdaisy/src/dev/oled_ssd130x.h ****         else
 4688              		.loc 5 244 54 view .LVU1220
 4689 01ac 03F0070E 		and	lr, r3, #7
 4690              	.LBB1460:
 4691              	.LBB1458:
 246:../../libdaisy/src/dev/oled_ssd130x.h ****     }
 4692              		.loc 5 246 49 view .LVU1221
 4693 01b0 9046     		mov	r8, r2
 4694              	.LBE1458:
 4695              	.LBE1460:
 244:../../libdaisy/src/dev/oled_ssd130x.h ****         else
 4696              		.loc 5 244 42 view .LVU1222
 4697 01b2 04EBCC1C 		add	ip, r4, ip, lsl #7
 244:../../libdaisy/src/dev/oled_ssd130x.h ****         else
 4698              		.loc 5 244 48 view .LVU1223
 4699 01b6 02FA0EF2 		lsl	r2, r2, lr
 243:../../libdaisy/src/dev/oled_ssd130x.h ****             buffer_[x + (y / 8) * width] |= (1 << (y % 8));
 4700              		.loc 5 243 9 view .LVU1224
 4701 01ba 0028     		cmp	r0, #0
 4702 01bc 6FD0     		beq	.L300
 244:../../libdaisy/src/dev/oled_ssd130x.h ****         else
 4703              		.loc 5 244 42 view .LVU1225
 4704 01be 9CF83110 		ldrb	r1, [ip, #49]	@ zero_extendqisi2
 4705 01c2 0A43     		orrs	r2, r2, r1
 4706 01c4 8CF83120 		strb	r2, [ip, #49]
 4707              	.L301:
 4708              	.LVL317:
ARM GAS  C:\Users\VINCIU~1\AppData\Local\Temp\ccnesEGk.s 			page 131


 244:../../libdaisy/src/dev/oled_ssd130x.h ****         else
 4709              		.loc 5 244 42 view .LVU1226
 4710              	.LBE1456:
 4711              	.LBE1455:
 4712              	.LBE1454:
 250:Menus.cpp     ****     for(int i = screen.Height() / 4 - 1; i < screen.Height(); i++)
 4713              		.loc 2 250 5 is_stmt 1 view .LVU1227
 250:Menus.cpp     ****     for(int i = screen.Height() / 4 - 1; i < screen.Height(); i++)
 4714              		.loc 2 250 44 view .LVU1228
 4715 01c8 0233     		adds	r3, r3, #2
 252:Menus.cpp     ****         screen.DrawPixel(29, i * 2, on);
 4716              		.loc 2 252 9 view .LVU1229
 4717              	.LVL318:
 4718              	.LBB1466:
  41:../../libdaisy/src/hid/disp/oled_display.h ****     {
 4719              		.loc 1 41 10 view .LVU1230
 4720              	.LBB1464:
 239:../../libdaisy/src/dev/oled_ssd130x.h ****     {
 4721              		.loc 5 239 10 view .LVU1231
 4722              	.LBB1462:
 241:../../libdaisy/src/dev/oled_ssd130x.h ****             return;
 4723              		.loc 5 241 9 is_stmt 0 view .LVU1232
 4724 01ca 3F2B     		cmp	r3, #63
 4725 01cc EBD9     		bls	.L402
 4726              	.LVL319:
 4727              	.L299:
 241:../../libdaisy/src/dev/oled_ssd130x.h ****             return;
 4728              		.loc 5 241 9 view .LVU1233
 4729              	.LBE1462:
 4730              	.LBE1464:
 4731              	.LBE1466:
 250:Menus.cpp     ****     for(int i = screen.Height() / 4 - 1; i < screen.Height(); i++)
 4732              		.loc 2 250 5 is_stmt 1 view .LVU1234
 250:Menus.cpp     ****     for(int i = screen.Height() / 4 - 1; i < screen.Height(); i++)
 4733              		.loc 2 250 44 view .LVU1235
 4734 01ce 0233     		adds	r3, r3, #2
 4735 01d0 802B     		cmp	r3, #128
 4736 01d2 E6D1     		bne	.L298
 4737              	.LBE1453:
 255:Menus.cpp     ****     if(encoderLeft.RisingEdge())
 4738              		.loc 2 255 5 view .LVU1236
 4739              	.LVL320:
 4740              	.LBB1468:
 4741              	.LBB1469:
 4742              	.LBI1469:
  42:../../libdaisy/src/hid/encoder.h ****     /** Returns true if the encoder was just pressed.
  43:../../libdaisy/src/hid/encoder.h **** */
  44:../../libdaisy/src/hid/encoder.h ****     inline bool RisingEdge() const { return sw_.RisingEdge(); }
 4743              		.loc 3 44 17 view .LVU1237
 4744              	.LBE1469:
 4745              	.LBE1468:
 4746              		.loc 3 44 38 view .LVU1238
 4747              	.LBB1737:
 4748              	.LBB1472:
 4749              	.LBB1470:
 4750              	.LBI1470:
 4751              		.loc 4 69 17 view .LVU1239
ARM GAS  C:\Users\VINCIU~1\AppData\Local\Temp\ccnesEGk.s 			page 132


 4752              	.LBB1471:
 4753              		.loc 4 69 38 view .LVU1240
 4754              		.loc 4 69 38 is_stmt 0 view .LVU1241
 4755              	.LBE1471:
 4756              	.LBE1470:
 4757              	.LBE1472:
 255:Menus.cpp     ****     if(encoderLeft.RisingEdge())
 4758              		.loc 2 255 5 view .LVU1242
 4759 01d4 6B7C     		ldrb	r3, [r5, #17]	@ zero_extendqisi2
 4760 01d6 7F2B     		cmp	r3, #127
 4761 01d8 00F09E81 		beq	.L403
 4762              	.LBE1737:
 260:Menus.cpp     ****     else if(menuState == 0)
 4763              		.loc 2 260 10 is_stmt 1 view .LVU1243
 4764              	.LBB1738:
 4765              	.LBB1473:
 260:Menus.cpp     ****     else if(menuState == 0)
 4766              		.loc 2 260 13 is_stmt 0 view .LVU1244
 4767 01dc EB6E     		ldr	r3, [r5, #108]
 260:Menus.cpp     ****     else if(menuState == 0)
 4768              		.loc 2 260 10 view .LVU1245
 4769 01de 002B     		cmp	r3, #0
 4770 01e0 00F0DA80 		beq	.L404
 4771              	.LBE1473:
 4772              	.LBE1738:
 313:Menus.cpp     ****     else if(menuState == 1)
 4773              		.loc 2 313 10 is_stmt 1 view .LVU1246
 4774              	.LBB1739:
 4775              	.LBB1716:
 4776              	.LBB1474:
 4777 01e4 012B     		cmp	r3, #1
 4778 01e6 00F07282 		beq	.L405
 4779              	.LBE1474:
 4780              	.LBE1716:
 4781              	.LBE1739:
 346:Menus.cpp     ****     else if(menuState == 2)
 4782              		.loc 2 346 10 view .LVU1247
 4783              	.LBB1740:
 4784              	.LBB1717:
 4785              	.LBB1576:
 4786              	.LBB1475:
 4787 01ea 022B     		cmp	r3, #2
 4788 01ec 00F02582 		beq	.L406
 455:Menus.cpp     ****     else if(menuState == 3)
 4789              		.loc 2 455 10 view .LVU1248
 4790 01f0 032B     		cmp	r3, #3
 4791 01f2 40F09981 		bne	.L304
 463:Menus.cpp     ****         if(this->OscSelector == true)
 4792              		.loc 2 463 9 view .LVU1249
 4793 01f6 95F87430 		ldrb	r3, [r5, #116]	@ zero_extendqisi2
 465:Menus.cpp     ****             if(this->freqFine >= 1)
 4794              		.loc 2 465 13 is_stmt 0 view .LVU1250
 4795 01fa B7EE007A 		vmov.f32	s14, #1.0e+0
 463:Menus.cpp     ****         if(this->OscSelector == true)
 4796              		.loc 2 463 9 view .LVU1251
 4797 01fe 002B     		cmp	r3, #0
 4798 0200 00F0BB82 		beq	.L353
ARM GAS  C:\Users\VINCIU~1\AppData\Local\Temp\ccnesEGk.s 			page 133


 465:Menus.cpp     ****             if(this->freqFine >= 1)
 4799              		.loc 2 465 13 is_stmt 1 view .LVU1252
 465:Menus.cpp     ****             if(this->freqFine >= 1)
 4800              		.loc 2 465 22 is_stmt 0 view .LVU1253
 4801 0204 D5ED5D7A 		vldr.32	s15, [r5, #372]
 465:Menus.cpp     ****             if(this->freqFine >= 1)
 4802              		.loc 2 465 13 view .LVU1254
 4803 0208 F4EEC77A 		vcmpe.f32	s15, s14
 4804 020c F1EE10FA 		vmrs	APSR_nzcv, FPSCR
 4805 0210 C0F20183 		blt	.L407
 4806 0214 F0EE477A 		vmov.f32	s15, s14
 4807              	.L354:
 473:Menus.cpp     ****             if(this->drawSliderFine >= 1)
 4808              		.loc 2 473 13 is_stmt 1 view .LVU1255
 4809 0218 F7EE006A 		vmov.f32	s13, #1.0e+0
 473:Menus.cpp     ****             if(this->drawSliderFine >= 1)
 4810              		.loc 2 473 22 is_stmt 0 view .LVU1256
 4811 021c 95ED1F7A 		vldr.32	s14, [r5, #124]
 473:Menus.cpp     ****             if(this->drawSliderFine >= 1)
 4812              		.loc 2 473 13 view .LVU1257
 4813 0220 B4EEE67A 		vcmpe.f32	s14, s13
 4814 0224 F1EE10FA 		vmrs	APSR_nzcv, FPSCR
 4815 0228 C0F2EC82 		blt	.L408
 4816 022c B0EE667A 		vmov.f32	s14, s13
 4817              	.L355:
 482:Menus.cpp     ****             this->freqFine += (((float)this->encoderRight.Increment()) / 32);
 4818              		.loc 2 482 13 is_stmt 1 view .LVU1258
 4819              	.LVL321:
 4820              	.LBB1476:
 4821              	.LBI1476:
  41:../../libdaisy/src/hid/encoder.h ****     /** Returns true if the encoder was just pressed.
 4822              		.loc 3 41 20 view .LVU1259
 4823              	.LBB1477:
  41:../../libdaisy/src/hid/encoder.h ****     /** Returns true if the encoder was just pressed.
 4824              		.loc 3 41 40 view .LVU1260
  41:../../libdaisy/src/hid/encoder.h ****     /** Returns true if the encoder was just pressed.
 4825              		.loc 3 41 40 is_stmt 0 view .LVU1261
 4826              	.LBE1477:
 4827              	.LBE1476:
 482:Menus.cpp     ****             this->freqFine += (((float)this->encoderRight.Increment()) / 32);
 4828              		.loc 2 482 33 view .LVU1262
 4829 0230 D5ED126A 		vldr.32	s13, [r5, #72]	@ int
 485:Menus.cpp     ****             sprintf(this->buffFine, "Fine_%d%%", (int)(freqFine * 100));
 4830              		.loc 2 485 20 view .LVU1263
 4831 0234 05F1D400 		add	r0, r5, #212
 482:Menus.cpp     ****             this->freqFine += (((float)this->encoderRight.Increment()) / 32);
 4832              		.loc 2 482 28 view .LVU1264
 4833 0238 DFED555A 		vldr.32	s11, .L423+56
 482:Menus.cpp     ****             this->freqFine += (((float)this->encoderRight.Increment()) / 32);
 4834              		.loc 2 482 33 view .LVU1265
 4835 023c F8EEE66A 		vcvt.f32.s32	s13, s13
 485:Menus.cpp     ****             sprintf(this->buffFine, "Fine_%d%%", (int)(freqFine * 100));
 4836              		.loc 2 485 65 view .LVU1266
 4837 0240 9FED4F6A 		vldr.32	s12, .L423+40
 485:Menus.cpp     ****             sprintf(this->buffFine, "Fine_%d%%", (int)(freqFine * 100));
 4838              		.loc 2 485 20 view .LVU1267
 4839 0244 4F49     		ldr	r1, .L423+44
ARM GAS  C:\Users\VINCIU~1\AppData\Local\Temp\ccnesEGk.s 			page 134


 482:Menus.cpp     ****             this->freqFine += (((float)this->encoderRight.Increment()) / 32);
 4840              		.loc 2 482 28 view .LVU1268
 4841 0246 E6EEA57A 		vfma.f32	s15, s13, s11
 484:Menus.cpp     ****                 += (((float)this->encoderRight.Increment()) / 32);
 4842              		.loc 2 484 17 view .LVU1269
 4843 024a A6EEA57A 		vfma.f32	s14, s13, s11
 485:Menus.cpp     ****             sprintf(this->buffFine, "Fine_%d%%", (int)(freqFine * 100));
 4844              		.loc 2 485 65 view .LVU1270
 4845 024e 67EE866A 		vmul.f32	s13, s15, s12
 482:Menus.cpp     ****             this->freqFine += (((float)this->encoderRight.Increment()) / 32);
 4846              		.loc 2 482 28 view .LVU1271
 4847 0252 C5ED5D7A 		vstr.32	s15, [r5, #372]
 483:Menus.cpp     ****             this->drawSliderFine
 4848              		.loc 2 483 13 is_stmt 1 view .LVU1272
 4849              	.LVL322:
 483:Menus.cpp     ****             this->drawSliderFine
 4850              		.loc 2 483 13 is_stmt 0 view .LVU1273
 4851              	.LBE1475:
 4852              	.LBE1576:
 4853              	.LBE1717:
 4854              	.LBE1740:
  41:../../libdaisy/src/hid/encoder.h ****     /** Returns true if the encoder was just pressed.
 4855              		.loc 3 41 40 is_stmt 1 view .LVU1274
 4856              	.LBB1741:
 4857              	.LBB1718:
 4858              	.LBB1577:
 4859              	.LBB1560:
 484:Menus.cpp     ****                 += (((float)this->encoderRight.Increment()) / 32);
 4860              		.loc 2 484 17 is_stmt 0 view .LVU1275
 4861 0256 85ED1F7A 		vstr.32	s14, [r5, #124]
 485:Menus.cpp     ****             sprintf(this->buffFine, "Fine_%d%%", (int)(freqFine * 100));
 4862              		.loc 2 485 13 is_stmt 1 view .LVU1276
 485:Menus.cpp     ****             sprintf(this->buffFine, "Fine_%d%%", (int)(freqFine * 100));
 4863              		.loc 2 485 20 is_stmt 0 view .LVU1277
 4864 025a FDEEE67A 		vcvt.s32.f32	s15, s13
 4865 025e 17EE902A 		vmov	r2, s15	@ int
 4866 0262 FFF7FEFF 		bl	sprintf
 4867              	.LVL323:
 4868              	.L356:
 512:Menus.cpp     ****         screen.DrawRect(60,
 4869              		.loc 2 512 9 is_stmt 1 view .LVU1278
 512:Menus.cpp     ****         screen.DrawRect(60,
 4870              		.loc 2 512 24 is_stmt 0 view .LVU1279
 4871 0266 95F8E031 		ldrb	r3, [r5, #480]	@ zero_extendqisi2
 4872 026a 0022     		movs	r2, #0
 4873 026c 3F21     		movs	r1, #63
 4874 026e 2046     		mov	r0, r4
 4875 0270 CDE90132 		strd	r3, r2, [sp, #4]
 4876 0274 0091     		str	r1, [sp]
 4877 0276 7F23     		movs	r3, #127
 4878 0278 1D22     		movs	r2, #29
 4879 027a 3C21     		movs	r1, #60
 4880 027c FFF7FEFF 		bl	_ZN5daisy25OneBitGraphicsDisplayImplINS_11OledDisplayINS_13SSD130xDriverILj128ELj64ENS_24SSD130
 4881              	.LVL324:
 4882 0280 52E1     		b	.L304
 4883              	.LVL325:
 4884              	.L291:
ARM GAS  C:\Users\VINCIU~1\AppData\Local\Temp\ccnesEGk.s 			page 135


 512:Menus.cpp     ****         screen.DrawRect(60,
 4885              		.loc 2 512 24 view .LVU1280
 4886              	.LBE1560:
 4887              	.LBE1577:
 4888              	.LBE1718:
 4889              	.LBE1741:
 4890              	.LBB1742:
 4891              	.LBB1437:
 4892              	.LBB1435:
 4893              	.LBB1433:
 4894              	.LBB1431:
 4895              	.LBB1430:
 246:../../libdaisy/src/dev/oled_ssd130x.h ****     }
 4896              		.loc 5 246 42 view .LVU1281
 4897 0282 22F02002 		bic	r2, r2, #32
 4898 0286 8CF89421 		strb	r2, [ip, #404]
 4899 028a 63E7     		b	.L292
 4900              	.LVL326:
 4901              	.L296:
 246:../../libdaisy/src/dev/oled_ssd130x.h ****     }
 4902              		.loc 5 246 42 view .LVU1282
 4903              	.LBE1430:
 4904              	.LBE1431:
 4905              	.LBE1433:
 4906              	.LBE1435:
 4907              	.LBE1437:
 4908              	.LBE1742:
 4909              	.LBB1743:
 4910              	.LBB1452:
 4911              	.LBB1450:
 4912              	.LBB1448:
 4913              	.LBB1446:
 4914              	.LBB1444:
 4915 028c 9CF85010 		ldrb	r1, [ip, #80]	@ zero_extendqisi2
 246:../../libdaisy/src/dev/oled_ssd130x.h ****     }
 4916              		.loc 5 246 49 view .LVU1283
 4917 0290 08FA0EF8 		lsl	r8, r8, lr
 246:../../libdaisy/src/dev/oled_ssd130x.h ****     }
 4918              		.loc 5 246 42 view .LVU1284
 4919 0294 21EA0808 		bic	r8, r1, r8
 4920 0298 8CF85080 		strb	r8, [ip, #80]
 4921 029c 7AE7     		b	.L297
 4922              	.LVL327:
 4923              	.L300:
 246:../../libdaisy/src/dev/oled_ssd130x.h ****     }
 4924              		.loc 5 246 42 view .LVU1285
 4925              	.LBE1444:
 4926              	.LBE1446:
 4927              	.LBE1448:
 4928              	.LBE1450:
 4929              	.LBE1452:
 4930              	.LBE1743:
 4931              	.LBB1744:
 4932              	.LBB1467:
 4933              	.LBB1465:
 4934              	.LBB1463:
 4935              	.LBB1461:
ARM GAS  C:\Users\VINCIU~1\AppData\Local\Temp\ccnesEGk.s 			page 136


 4936              	.LBB1459:
 4937 029e 9CF83120 		ldrb	r2, [ip, #49]	@ zero_extendqisi2
 246:../../libdaisy/src/dev/oled_ssd130x.h ****     }
 4938              		.loc 5 246 49 view .LVU1286
 4939 02a2 08FA0EF8 		lsl	r8, r8, lr
 246:../../libdaisy/src/dev/oled_ssd130x.h ****     }
 4940              		.loc 5 246 42 view .LVU1287
 4941 02a6 22EA0808 		bic	r8, r2, r8
 4942 02aa 8CF83180 		strb	r8, [ip, #49]
 4943 02ae 8BE7     		b	.L301
 4944              	.LVL328:
 4945              	.L288:
 246:../../libdaisy/src/dev/oled_ssd130x.h ****     }
 4946              		.loc 5 246 42 view .LVU1288
 4947              	.LBE1459:
 4948              	.LBE1461:
 4949              	.LBE1463:
 4950              	.LBE1465:
 4951              	.LBE1467:
 4952              	.LBE1744:
 227:Menus.cpp     ****         screen.drawSlider(70, 7, 50, 3, false, (this->drawSliderSemi2) / 40);
 4953              		.loc 2 227 9 is_stmt 1 view .LVU1289
 227:Menus.cpp     ****         screen.drawSlider(70, 7, 50, 3, false, (this->drawSliderSemi2) / 40);
 4954              		.loc 2 227 26 is_stmt 0 view .LVU1290
 4955 02b0 D5ED202A 		vldr.32	s5, [r5, #128]
 4956 02b4 2046     		mov	r0, r4
 4957 02b6 9FED378A 		vldr.32	s16, .L423+60
 4958 02ba F0EE081A 		vmov.f32	s3, #3.0e+0
 4959 02be F1EE0C0A 		vmov.f32	s1, #7.0e+0
 4960 02c2 9FED322A 		vldr.32	s4, .L423+52
 4961 02c6 C2EE882A 		vdiv.f32	s5, s5, s16
 4962 02ca 9FED251A 		vldr.32	s2, .L423+8
 4963 02ce 9FED250A 		vldr.32	s0, .L423+12
 4964 02d2 FFF7FEFF 		bl	_ZN23OledDisplayExtravaganza10drawSliderEffffff
 4965              	.LVL329:
 228:Menus.cpp     ****         screen.drawSlider(70, 40, 50, 3, false, drawSliderFine2);
 4966              		.loc 2 228 9 is_stmt 1 view .LVU1291
 228:Menus.cpp     ****         screen.drawSlider(70, 40, 50, 3, false, drawSliderFine2);
 4967              		.loc 2 228 26 is_stmt 0 view .LVU1292
 4968 02d6 D5ED212A 		vldr.32	s5, [r5, #132]
 4969 02da 9FED2C2A 		vldr.32	s4, .L423+52
 4970 02de 2046     		mov	r0, r4
 4971 02e0 9FED1F1A 		vldr.32	s2, .L423+8
 4972 02e4 F0EE081A 		vmov.f32	s3, #3.0e+0
 4973 02e8 9FED1E0A 		vldr.32	s0, .L423+12
 4974 02ec F0EE480A 		vmov.f32	s1, s16
 232:Menus.cpp     ****         screen.WriteString(this->buff2, Font_6x8, false);
 4975              		.loc 2 232 27 view .LVU1293
 4976 02f0 DFF89490 		ldr	r9, .L423+48
 228:Menus.cpp     ****         screen.drawSlider(70, 40, 50, 3, false, drawSliderFine2);
 4977              		.loc 2 228 26 view .LVU1294
 4978 02f4 FFF7FEFF 		bl	_ZN23OledDisplayExtravaganza10drawSliderEffffff
 4979              	.LVL330:
 229:Menus.cpp     ****         screen.drawVerticalToggle(13, 51, 8, false, this->toggleOsc2, "");
 4980              		.loc 2 229 9 is_stmt 1 view .LVU1295
 229:Menus.cpp     ****         screen.drawVerticalToggle(13, 51, 8, false, this->toggleOsc2, "");
 4981              		.loc 2 229 34 is_stmt 0 view .LVU1296
ARM GAS  C:\Users\VINCIU~1\AppData\Local\Temp\ccnesEGk.s 			page 137


 4982 02f8 B2EE001A 		vmov.f32	s2, #8.0e+0
 4983 02fc B2EE0A0A 		vmov.f32	s0, #1.3e+1
 4984 0300 DFED190A 		vldr.32	s1, .L423+16
 4985 0304 95F89920 		ldrb	r2, [r5, #153]	@ zero_extendqisi2
 4986 0308 4146     		mov	r1, r8
 4987 030a 2046     		mov	r0, r4
 4988 030c 134B     		ldr	r3, .L423+4
 4989 030e FFF7FEFF 		bl	_ZN23OledDisplayExtravaganza18drawVerticalToggleEfffbbPKc
 4990              	.LVL331:
 230:Menus.cpp     ****         screen.WaveIcons(35, 42, 55, this->selectedWave2, false);
 4991              		.loc 2 230 9 is_stmt 1 view .LVU1297
 230:Menus.cpp     ****         screen.WaveIcons(35, 42, 55, this->selectedWave2, false);
 4992              		.loc 2 230 25 is_stmt 0 view .LVU1298
 4993 0312 CDF80480 		str	r8, [sp, #4]
 4994 0316 D5F8A030 		ldr	r3, [r5, #160]
 4995 031a 2046     		mov	r0, r4
 4996 031c 2A22     		movs	r2, #42
 4997 031e 2321     		movs	r1, #35
 4998 0320 0093     		str	r3, [sp]
 4999 0322 3723     		movs	r3, #55
 5000 0324 FFF7FEFF 		bl	_ZN23OledDisplayExtravaganza9WaveIconsEiiiib
 5001              	.LVL332:
 231:Menus.cpp     ****         screen.SetCursor(70, 17);
 5002              		.loc 2 231 9 is_stmt 1 view .LVU1299
 5003              	.LBB1745:
 5004              	.LBI1745:
 131:../../libdaisy/src/hid/disp/display.h ****     {
 5005              		.loc 6 131 10 view .LVU1300
 5006              	.LBB1746:
 133:../../libdaisy/src/hid/disp/display.h ****         currentY_ = (y >= Height()) ? Height() - 1 : y;
 5007              		.loc 6 133 9 view .LVU1301
 134:../../libdaisy/src/hid/disp/display.h ****     }
 5008              		.loc 6 134 9 view .LVU1302
 133:../../libdaisy/src/hid/disp/display.h ****         currentY_ = (y >= Height()) ? Height() - 1 : y;
 5009              		.loc 6 133 19 is_stmt 0 view .LVU1303
 5010 0328 104B     		ldr	r3, .L423+20
 5011              	.LBE1746:
 5012              	.LBE1745:
 232:Menus.cpp     ****         screen.WriteString(this->buff2, Font_6x8, false);
 5013              		.loc 2 232 27 view .LVU1304
 5014 032a CDF80080 		str	r8, [sp]
 5015 032e 05F1BC01 		add	r1, r5, #188
 5016              	.LBB1748:
 5017              	.LBB1747:
 133:../../libdaisy/src/hid/disp/display.h ****         currentY_ = (y >= Height()) ? Height() - 1 : y;
 5018              		.loc 6 133 19 view .LVU1305
 5019 0332 6360     		str	r3, [r4, #4]
 5020              	.LVL333:
 133:../../libdaisy/src/hid/disp/display.h ****         currentY_ = (y >= Height()) ? Height() - 1 : y;
 5021              		.loc 6 133 19 view .LVU1306
 5022              	.LBE1747:
 5023              	.LBE1748:
 232:Menus.cpp     ****         screen.WriteString(this->buff2, Font_6x8, false);
 5024              		.loc 2 232 9 is_stmt 1 view .LVU1307
 232:Menus.cpp     ****         screen.WriteString(this->buff2, Font_6x8, false);
 5025              		.loc 2 232 27 is_stmt 0 view .LVU1308
 5026 0334 2046     		mov	r0, r4
ARM GAS  C:\Users\VINCIU~1\AppData\Local\Temp\ccnesEGk.s 			page 138


 5027 0336 99E80C00 		ldm	r9, {r2, r3}
 5028 033a FFF7FEFF 		bl	_ZN5daisy25OneBitGraphicsDisplayImplINS_11OledDisplayINS_13SSD130xDriverILj128ELj64ENS_24SSD130
 5029              	.LVL334:
 233:Menus.cpp     ****         screen.SetCursor(70, 50);
 5030              		.loc 2 233 9 is_stmt 1 view .LVU1309
 5031              	.LBB1749:
 5032              	.LBI1749:
 131:../../libdaisy/src/hid/disp/display.h ****     {
 5033              		.loc 6 131 10 view .LVU1310
 5034              	.LBB1750:
 133:../../libdaisy/src/hid/disp/display.h ****         currentY_ = (y >= Height()) ? Height() - 1 : y;
 5035              		.loc 6 133 9 view .LVU1311
 134:../../libdaisy/src/hid/disp/display.h ****     }
 5036              		.loc 6 134 9 view .LVU1312
 133:../../libdaisy/src/hid/disp/display.h ****         currentY_ = (y >= Height()) ? Height() - 1 : y;
 5037              		.loc 6 133 19 is_stmt 0 view .LVU1313
 5038 033e 0C4B     		ldr	r3, .L423+24
 5039              	.LBE1750:
 5040              	.LBE1749:
 234:Menus.cpp     ****         screen.WriteString(this->buffFine2, Font_6x8, false);
 5041              		.loc 2 234 27 view .LVU1314
 5042 0340 CDF80080 		str	r8, [sp]
 5043 0344 05F1EC01 		add	r1, r5, #236
 5044              	.LBB1752:
 5045              	.LBB1751:
 133:../../libdaisy/src/hid/disp/display.h ****         currentY_ = (y >= Height()) ? Height() - 1 : y;
 5046              		.loc 6 133 19 view .LVU1315
 5047 0348 6360     		str	r3, [r4, #4]
 5048              	.LVL335:
 133:../../libdaisy/src/hid/disp/display.h ****         currentY_ = (y >= Height()) ? Height() - 1 : y;
 5049              		.loc 6 133 19 view .LVU1316
 5050              	.LBE1751:
 5051              	.LBE1752:
 234:Menus.cpp     ****         screen.WriteString(this->buffFine2, Font_6x8, false);
 5052              		.loc 2 234 9 is_stmt 1 view .LVU1317
 234:Menus.cpp     ****         screen.WriteString(this->buffFine2, Font_6x8, false);
 5053              		.loc 2 234 27 is_stmt 0 view .LVU1318
 5054 034a 2046     		mov	r0, r4
 5055 034c 99E80C00 		ldm	r9, {r2, r3}
 5056 0350 FFF7FEFF 		bl	_ZN5daisy25OneBitGraphicsDisplayImplINS_11OledDisplayINS_13SSD130xDriverILj128ELj64ENS_24SSD130
 5057              	.LVL336:
 5058 0354 E4E6     		b	.L289
 5059              	.L424:
 5060 0356 00BF     		.align	2
 5061              	.L423:
 5062 0358 00003842 		.word	1110966272
 5063 035c 00000000 		.word	.LC4
 5064 0360 00004842 		.word	1112014848
 5065 0364 00008C42 		.word	1116471296
 5066 0368 00004C42 		.word	1112276992
 5067 036c 46001100 		.word	1114182
 5068 0370 46003200 		.word	3276870
 5069 0374 04000800 		.word	524292
 5070 0378 00000000 		.word	Font_7x10
 5071 037c 04000000 		.word	.LC5
 5072 0380 0000C842 		.word	1120403456
 5073 0384 14000000 		.word	.LC7
ARM GAS  C:\Users\VINCIU~1\AppData\Local\Temp\ccnesEGk.s 			page 139


 5074 0388 00000000 		.word	Font_6x8
 5075 038c 00000000 		.word	0
 5076 0390 0000003D 		.word	1023410176
 5077 0394 00002042 		.word	1109393408
 5078              	.L404:
 5079              	.LBB1753:
 5080              	.LBB1719:
 262:Menus.cpp     ****         if(this->OscSelector == true)
 5081              		.loc 2 262 9 is_stmt 1 view .LVU1319
 5082 0398 95F87430 		ldrb	r3, [r5, #116]	@ zero_extendqisi2
 5083 039c 002B     		cmp	r3, #0
 5084 039e 40F01781 		bne	.L409
 287:Menus.cpp     ****             if(this->noteSemiAdd2 > 32)
 5085              		.loc 2 287 13 view .LVU1320
 287:Menus.cpp     ****             if(this->noteSemiAdd2 > 32)
 5086              		.loc 2 287 22 is_stmt 0 view .LVU1321
 5087 03a2 D5F86831 		ldr	r3, [r5, #360]
 287:Menus.cpp     ****             if(this->noteSemiAdd2 > 32)
 5088              		.loc 2 287 13 view .LVU1322
 5089 03a6 202B     		cmp	r3, #32
 5090 03a8 00F3A281 		bgt	.L367
 291:Menus.cpp     ****             if(this->noteSemiAdd2 < 0)
 5091              		.loc 2 291 13 is_stmt 1 view .LVU1323
 5092 03ac 002B     		cmp	r3, #0
 5093 03ae 80F21482 		bge	.L410
 5094 03b2 5FED0A7A 		vldr.32	s15, .L423+52
 5095              	.L309:
 295:Menus.cpp     ****             if(this->drawSliderSemi2 >= 40)
 5096              		.loc 2 295 13 view .LVU1324
 295:Menus.cpp     ****             if(this->drawSliderSemi2 >= 40)
 5097              		.loc 2 295 22 is_stmt 0 view .LVU1325
 5098 03b6 95ED207A 		vldr.32	s14, [r5, #128]
 295:Menus.cpp     ****             if(this->drawSliderSemi2 >= 40)
 5099              		.loc 2 295 13 view .LVU1326
 5100 03ba 5FED0A6A 		vldr.32	s13, .L423+60
 5101 03be B4EEE67A 		vcmpe.f32	s14, s13
 5102 03c2 F1EE10FA 		vmrs	APSR_nzcv, FPSCR
 5103 03c6 80F29081 		bge	.L369
 299:Menus.cpp     ****             if(this->drawSliderSemi2 < 0)
 5104              		.loc 2 299 13 is_stmt 1 view .LVU1327
 5105 03ca B5EEC07A 		vcmpe.f32	s14, #0
 5106 03ce F1EE10FA 		vmrs	APSR_nzcv, FPSCR
 5107 03d2 01D5     		bpl	.L310
 5108 03d4 1FED137A 		vldr.32	s14, .L423+52
 5109              	.L310:
 303:Menus.cpp     ****             this->noteSemiAdd2 += (float)this->encoderRight.Increment();
 5110              		.loc 2 303 13 view .LVU1328
 5111              	.LVL337:
 5112              	.LBB1578:
 5113              	.LBI1578:
  41:../../libdaisy/src/hid/encoder.h ****     /** Returns true if the encoder was just pressed.
 5114              		.loc 3 41 20 view .LVU1329
 5115              	.LBB1579:
  41:../../libdaisy/src/hid/encoder.h ****     /** Returns true if the encoder was just pressed.
 5116              		.loc 3 41 40 view .LVU1330
  41:../../libdaisy/src/hid/encoder.h ****     /** Returns true if the encoder was just pressed.
 5117              		.loc 3 41 40 is_stmt 0 view .LVU1331
ARM GAS  C:\Users\VINCIU~1\AppData\Local\Temp\ccnesEGk.s 			page 140


 5118              	.LBE1579:
 5119              	.LBE1578:
 303:Menus.cpp     ****             this->noteSemiAdd2 += (float)this->encoderRight.Increment();
 5120              		.loc 2 303 35 view .LVU1332
 5121 03d8 D5ED126A 		vldr.32	s13, [r5, #72]	@ int
 306:Menus.cpp     ****             sprintf(this->buff2, "Semi_%dst", this->noteSemiAdd2);
 5122              		.loc 2 306 20 view .LVU1333
 5123 03dc 05F1BC00 		add	r0, r5, #188
 305:Menus.cpp     ****                 += (((float)this->encoderRight.Increment()) / 32) * 40;
 5124              		.loc 2 305 61 view .LVU1334
 5125 03e0 1FED156A 		vldr.32	s12, .L423+56
 303:Menus.cpp     ****             this->noteSemiAdd2 += (float)this->encoderRight.Increment();
 5126              		.loc 2 303 35 view .LVU1335
 5127 03e4 F8EEE66A 		vcvt.f32.s32	s13, s13
 305:Menus.cpp     ****                 += (((float)this->encoderRight.Increment()) / 32) * 40;
 5128              		.loc 2 305 17 view .LVU1336
 5129 03e8 5FED165A 		vldr.32	s11, .L423+60
 306:Menus.cpp     ****             sprintf(this->buff2, "Semi_%dst", this->noteSemiAdd2);
 5130              		.loc 2 306 20 view .LVU1337
 5131 03ec C349     		ldr	r1, .L425
 305:Menus.cpp     ****                 += (((float)this->encoderRight.Increment()) / 32) * 40;
 5132              		.loc 2 305 61 view .LVU1338
 5133 03ee 26EE866A 		vmul.f32	s12, s13, s12
 303:Menus.cpp     ****             this->noteSemiAdd2 += (float)this->encoderRight.Increment();
 5134              		.loc 2 303 32 view .LVU1339
 5135 03f2 77EEA67A 		vadd.f32	s15, s15, s13
 305:Menus.cpp     ****                 += (((float)this->encoderRight.Increment()) / 32) * 40;
 5136              		.loc 2 305 17 view .LVU1340
 5137 03f6 A6EE257A 		vfma.f32	s14, s12, s11
 303:Menus.cpp     ****             this->noteSemiAdd2 += (float)this->encoderRight.Increment();
 5138              		.loc 2 303 32 view .LVU1341
 5139 03fa FDEEE77A 		vcvt.s32.f32	s15, s15
 5140 03fe 17EE902A 		vmov	r2, s15	@ int
 5141 0402 C5ED5A7A 		vstr.32	s15, [r5, #360]	@ int
 304:Menus.cpp     ****             this->drawSliderSemi2
 5142              		.loc 2 304 13 is_stmt 1 view .LVU1342
 5143              	.LVL338:
 304:Menus.cpp     ****             this->drawSliderSemi2
 5144              		.loc 2 304 13 is_stmt 0 view .LVU1343
 5145              	.LBE1719:
 5146              	.LBE1753:
  41:../../libdaisy/src/hid/encoder.h ****     /** Returns true if the encoder was just pressed.
 5147              		.loc 3 41 40 is_stmt 1 view .LVU1344
 5148              	.LBB1754:
 5149              	.LBB1720:
 305:Menus.cpp     ****                 += (((float)this->encoderRight.Increment()) / 32) * 40;
 5150              		.loc 2 305 17 is_stmt 0 view .LVU1345
 5151 0406 85ED207A 		vstr.32	s14, [r5, #128]
 306:Menus.cpp     ****             sprintf(this->buff2, "Semi_%dst", this->noteSemiAdd2);
 5152              		.loc 2 306 13 is_stmt 1 view .LVU1346
 306:Menus.cpp     ****             sprintf(this->buff2, "Semi_%dst", this->noteSemiAdd2);
 5153              		.loc 2 306 20 is_stmt 0 view .LVU1347
 5154 040a FFF7FEFF 		bl	sprintf
 5155              	.LVL339:
 310:Menus.cpp     ****         screen.DrawRect(
 5156              		.loc 2 310 9 is_stmt 1 view .LVU1348
 310:Menus.cpp     ****         screen.DrawRect(
ARM GAS  C:\Users\VINCIU~1\AppData\Local\Temp\ccnesEGk.s 			page 141


 5157              		.loc 2 310 24 is_stmt 0 view .LVU1349
 5158 040e 95F8E001 		ldrb	r0, [r5, #480]	@ zero_extendqisi2
 5159              	.LVL340:
 5160              	.LBB1580:
 5161              	.LBI1580:
 217:../../libdaisy/src/hid/disp/display.h ****                   uint_fast8_t y1,
 5162              		.loc 6 217 10 is_stmt 1 view .LVU1350
 5163              	.LBB1581:
 5164              	.LBI1581:
 181:../../libdaisy/src/hid/disp/display.h ****                   uint_fast8_t y1,
 5165              		.loc 6 181 10 view .LVU1351
 5166              	.LBB1582:
 5167              	.LBB1583:
 5168              	.LBI1583:
  41:../../libdaisy/src/hid/disp/oled_display.h ****     {
 5169              		.loc 1 41 10 view .LVU1352
 5170              	.LBB1584:
 5171              	.LBI1584:
 239:../../libdaisy/src/dev/oled_ssd130x.h ****     {
 5172              		.loc 5 239 10 view .LVU1353
 5173              	.LBB1585:
 244:../../libdaisy/src/dev/oled_ssd130x.h ****         else
 5174              		.loc 5 244 42 is_stmt 0 view .LVU1354
 5175 0412 94F89320 		ldrb	r2, [r4, #147]	@ zero_extendqisi2
 243:../../libdaisy/src/dev/oled_ssd130x.h ****             buffer_[x + (y / 8) * width] |= (1 << (y % 8));
 5176              		.loc 5 243 9 view .LVU1355
 5177 0416 0028     		cmp	r0, #0
 5178 0418 00F00C81 		beq	.L311
 5179              	.LVL341:
 5180              	.L418:
 244:../../libdaisy/src/dev/oled_ssd130x.h ****         else
 5181              		.loc 5 244 42 view .LVU1356
 5182 041c 42F00102 		orr	r2, r2, #1
 5183              	.L312:
 244:../../libdaisy/src/dev/oled_ssd130x.h ****         else
 5184              		.loc 5 244 42 view .LVU1357
 5185 0420 04F14F03 		add	r3, r4, #79
 5186 0424 04F19201 		add	r1, r4, #146
 5187 0428 84F89320 		strb	r2, [r4, #147]
 5188              	.LVL342:
 244:../../libdaisy/src/dev/oled_ssd130x.h ****         else
 5189              		.loc 5 244 42 view .LVU1358
 5190              	.LBE1585:
 5191              	.LBE1584:
 5192              	.LBE1583:
 199:../../libdaisy/src/hid/disp/display.h ****         {
 5193              		.loc 6 199 26 is_stmt 1 view .LVU1359
 5194 042c 05E0     		b	.L315
 5195              	.LVL343:
 5196              	.L412:
 5197              	.LBB1590:
 5198              	.LBB1591:
 5199              	.LBB1592:
 244:../../libdaisy/src/dev/oled_ssd130x.h ****         else
 5200              		.loc 5 244 42 is_stmt 0 view .LVU1360
 5201 042e 42F00102 		orr	r2, r2, #1
 5202 0432 03F8012F 		strb	r2, [r3, #1]!
ARM GAS  C:\Users\VINCIU~1\AppData\Local\Temp\ccnesEGk.s 			page 142


 5203              	.LVL344:
 244:../../libdaisy/src/dev/oled_ssd130x.h ****         else
 5204              		.loc 5 244 42 view .LVU1361
 5205              	.LBE1592:
 5206              	.LBE1591:
 5207              	.LBE1590:
 199:../../libdaisy/src/hid/disp/display.h ****         {
 5208              		.loc 6 199 26 is_stmt 1 view .LVU1362
 5209 0436 9942     		cmp	r1, r3
 5210 0438 08D0     		beq	.L411
 5211              	.LVL345:
 5212              	.L315:
 5213              	.LBB1598:
 5214              	.LBI1590:
  41:../../libdaisy/src/hid/disp/oled_display.h ****     {
 5215              		.loc 1 41 10 view .LVU1363
 5216              	.LBB1597:
 5217              	.LBI1591:
 239:../../libdaisy/src/dev/oled_ssd130x.h ****     {
 5218              		.loc 5 239 10 view .LVU1364
 5219              	.LBB1596:
 5220              	.LBB1593:
 5221              	.LBI1593:
 239:../../libdaisy/src/dev/oled_ssd130x.h ****     {
 5222              		.loc 5 239 10 view .LVU1365
 239:../../libdaisy/src/dev/oled_ssd130x.h ****     {
 5223              		.loc 5 239 10 is_stmt 0 view .LVU1366
 5224              	.LBE1593:
 244:../../libdaisy/src/dev/oled_ssd130x.h ****         else
 5225              		.loc 5 244 42 view .LVU1367
 5226 043a 5A78     		ldrb	r2, [r3, #1]	@ zero_extendqisi2
 243:../../libdaisy/src/dev/oled_ssd130x.h ****             buffer_[x + (y / 8) * width] |= (1 << (y % 8));
 5227              		.loc 5 243 9 view .LVU1368
 5228 043c 0028     		cmp	r0, #0
 5229 043e F6D1     		bne	.L412
 5230              	.LBB1595:
 5231              	.LBB1594:
 246:../../libdaisy/src/dev/oled_ssd130x.h ****     }
 5232              		.loc 5 246 42 view .LVU1369
 5233 0440 02F0FE02 		and	r2, r2, #254
 5234 0444 03F8012F 		strb	r2, [r3, #1]!
 5235              	.LVL346:
 246:../../libdaisy/src/dev/oled_ssd130x.h ****     }
 5236              		.loc 5 246 42 view .LVU1370
 5237              	.LBE1594:
 5238              	.LBE1595:
 5239              	.LBE1596:
 5240              	.LBE1597:
 5241              	.LBE1598:
 199:../../libdaisy/src/hid/disp/display.h ****         {
 5242              		.loc 6 199 26 is_stmt 1 view .LVU1371
 5243 0448 9942     		cmp	r1, r3
 5244 044a F6D1     		bne	.L315
 5245              	.LVL347:
 5246              	.L411:
 199:../../libdaisy/src/hid/disp/display.h ****         {
 5247              		.loc 6 199 26 is_stmt 0 view .LVU1372
ARM GAS  C:\Users\VINCIU~1\AppData\Local\Temp\ccnesEGk.s 			page 143


 5248              	.LBE1582:
 5249              	.LBE1581:
 5250              	.LBB1601:
 5251              	.LBI1601:
 181:../../libdaisy/src/hid/disp/display.h ****                   uint_fast8_t y1,
 5252              		.loc 6 181 10 is_stmt 1 view .LVU1373
 5253              	.LBB1602:
 5254              	.LBB1603:
 5255              	.LBI1603:
  41:../../libdaisy/src/hid/disp/oled_display.h ****     {
 5256              		.loc 1 41 10 view .LVU1374
 5257              	.LBB1604:
 5258              	.LBI1604:
 239:../../libdaisy/src/dev/oled_ssd130x.h ****     {
 5259              		.loc 5 239 10 view .LVU1375
 5260              	.LBB1605:
 244:../../libdaisy/src/dev/oled_ssd130x.h ****         else
 5261              		.loc 5 244 42 is_stmt 0 view .LVU1376
 5262 044c 94F81322 		ldrb	r2, [r4, #531]	@ zero_extendqisi2
 243:../../libdaisy/src/dev/oled_ssd130x.h ****             buffer_[x + (y / 8) * width] |= (1 << (y % 8));
 5263              		.loc 5 243 9 view .LVU1377
 5264 0450 0028     		cmp	r0, #0
 5265 0452 00F03981 		beq	.L316
 5266              	.LVL348:
 244:../../libdaisy/src/dev/oled_ssd130x.h ****         else
 5267              		.loc 5 244 42 view .LVU1378
 5268 0456 42F02002 		orr	r2, r2, #32
 5269              	.LVL349:
 5270              	.L317:
 244:../../libdaisy/src/dev/oled_ssd130x.h ****         else
 5271              		.loc 5 244 42 view .LVU1379
 5272              	.LBE1605:
 5273              	.LBE1604:
 5274              	.LBE1603:
 5275              	.LBE1602:
 5276              	.LBE1601:
 5277              	.LBE1580:
 5278 045a 0023     		movs	r3, #0
 5279 045c 84F81322 		strb	r2, [r4, #531]
 5280              	.LVL350:
 5281              	.LBB1695:
 5282              	.LBB1640:
 5283              	.LBB1638:
 199:../../libdaisy/src/hid/disp/display.h ****         {
 5284              		.loc 6 199 26 is_stmt 1 view .LVU1380
 5285 0460 05E0     		b	.L320
 5286              	.LVL351:
 5287              	.L414:
 5288              	.LBB1610:
 5289              	.LBB1611:
 5290              	.LBB1612:
 244:../../libdaisy/src/dev/oled_ssd130x.h ****         else
 5291              		.loc 5 244 42 is_stmt 0 view .LVU1381
 5292 0462 0A7D     		ldrb	r2, [r1, #20]	@ zero_extendqisi2
 5293              	.LBE1612:
 5294              	.LBE1611:
 5295              	.LBE1610:
ARM GAS  C:\Users\VINCIU~1\AppData\Local\Temp\ccnesEGk.s 			page 144


 212:../../libdaisy/src/hid/disp/display.h ****             }
 5296              		.loc 6 212 20 view .LVU1382
 5297 0464 0133     		adds	r3, r3, #1
 5298              	.LVL352:
 5299              	.LBB1632:
 5300              	.LBB1627:
 5301              	.LBB1622:
 244:../../libdaisy/src/dev/oled_ssd130x.h ****         else
 5302              		.loc 5 244 42 view .LVU1383
 5303 0466 1543     		orrs	r5, r5, r2
 5304              	.LBE1622:
 5305              	.LBE1627:
 5306              	.LBE1632:
 199:../../libdaisy/src/hid/disp/display.h ****         {
 5307              		.loc 6 199 26 view .LVU1384
 5308 0468 1D2B     		cmp	r3, #29
 5309              	.LBB1633:
 5310              	.LBB1628:
 5311              	.LBB1623:
 244:../../libdaisy/src/dev/oled_ssd130x.h ****         else
 5312              		.loc 5 244 42 view .LVU1385
 5313 046a 0D75     		strb	r5, [r1, #20]
 5314              	.LVL353:
 244:../../libdaisy/src/dev/oled_ssd130x.h ****         else
 5315              		.loc 5 244 42 view .LVU1386
 5316              	.LBE1623:
 5317              	.LBE1628:
 5318              	.LBE1633:
 199:../../libdaisy/src/hid/disp/display.h ****         {
 5319              		.loc 6 199 26 is_stmt 1 view .LVU1387
 5320 046c 12D0     		beq	.L413
 5321              	.LVL354:
 5322              	.L320:
 5323              	.LBB1634:
 5324              	.LBI1610:
  41:../../libdaisy/src/hid/disp/oled_display.h ****     {
 5325              		.loc 1 41 10 view .LVU1388
 5326              	.LBB1629:
 5327              	.LBI1611:
 239:../../libdaisy/src/dev/oled_ssd130x.h ****     {
 5328              		.loc 5 239 10 view .LVU1389
 5329              	.LBB1624:
 5330              	.LBB1613:
 5331              	.LBI1613:
 239:../../libdaisy/src/dev/oled_ssd130x.h ****     {
 5332              		.loc 5 239 10 view .LVU1390
 239:../../libdaisy/src/dev/oled_ssd130x.h ****     {
 5333              		.loc 5 239 10 is_stmt 0 view .LVU1391
 5334              	.LBE1613:
 244:../../libdaisy/src/dev/oled_ssd130x.h ****         else
 5335              		.loc 5 244 42 view .LVU1392
 5336 046e 1901     		lsls	r1, r3, #4
 244:../../libdaisy/src/dev/oled_ssd130x.h ****         else
 5337              		.loc 5 244 54 view .LVU1393
 5338 0470 03F00707 		and	r7, r3, #7
 244:../../libdaisy/src/dev/oled_ssd130x.h ****         else
 5339              		.loc 5 244 48 view .LVU1394
ARM GAS  C:\Users\VINCIU~1\AppData\Local\Temp\ccnesEGk.s 			page 145


 5340 0474 0125     		movs	r5, #1
 244:../../libdaisy/src/dev/oled_ssd130x.h ****         else
 5341              		.loc 5 244 42 view .LVU1395
 5342 0476 41F07F01 		orr	r1, r1, #127
 244:../../libdaisy/src/dev/oled_ssd130x.h ****         else
 5343              		.loc 5 244 48 view .LVU1396
 5344 047a BD40     		lsls	r5, r5, r7
 244:../../libdaisy/src/dev/oled_ssd130x.h ****         else
 5345              		.loc 5 244 42 view .LVU1397
 5346 047c 2144     		add	r1, r1, r4
 5347              	.LBB1618:
 5348              	.LBB1614:
 246:../../libdaisy/src/dev/oled_ssd130x.h ****     }
 5349              		.loc 5 246 42 view .LVU1398
 5350 047e 0A46     		mov	r2, r1
 5351              	.LBE1614:
 5352              	.LBE1618:
 243:../../libdaisy/src/dev/oled_ssd130x.h ****             buffer_[x + (y / 8) * width] |= (1 << (y % 8));
 5353              		.loc 5 243 9 view .LVU1399
 5354 0480 0028     		cmp	r0, #0
 5355 0482 EED1     		bne	.L414
 5356              	.LBB1619:
 5357              	.LBB1615:
 246:../../libdaisy/src/dev/oled_ssd130x.h ****     }
 5358              		.loc 5 246 42 view .LVU1400
 5359 0484 097D     		ldrb	r1, [r1, #20]	@ zero_extendqisi2
 5360              	.LBE1615:
 5361              	.LBE1619:
 5362              	.LBE1624:
 5363              	.LBE1629:
 5364              	.LBE1634:
 212:../../libdaisy/src/hid/disp/display.h ****             }
 5365              		.loc 6 212 20 view .LVU1401
 5366 0486 0133     		adds	r3, r3, #1
 5367              	.LVL355:
 5368              	.LBB1635:
 5369              	.LBB1630:
 5370              	.LBB1625:
 5371              	.LBB1620:
 5372              	.LBB1616:
 246:../../libdaisy/src/dev/oled_ssd130x.h ****     }
 5373              		.loc 5 246 42 view .LVU1402
 5374 0488 21EA050C 		bic	ip, r1, r5
 5375              	.LBE1616:
 5376              	.LBE1620:
 5377              	.LBE1625:
 5378              	.LBE1630:
 5379              	.LBE1635:
 199:../../libdaisy/src/hid/disp/display.h ****         {
 5380              		.loc 6 199 26 view .LVU1403
 5381 048c 1D2B     		cmp	r3, #29
 5382              	.LBB1636:
 5383              	.LBB1631:
 5384              	.LBB1626:
 5385              	.LBB1621:
 5386              	.LBB1617:
 246:../../libdaisy/src/dev/oled_ssd130x.h ****     }
ARM GAS  C:\Users\VINCIU~1\AppData\Local\Temp\ccnesEGk.s 			page 146


 5387              		.loc 5 246 42 view .LVU1404
 5388 048e 82F814C0 		strb	ip, [r2, #20]
 5389              	.LVL356:
 246:../../libdaisy/src/dev/oled_ssd130x.h ****     }
 5390              		.loc 5 246 42 view .LVU1405
 5391              	.LBE1617:
 5392              	.LBE1621:
 5393              	.LBE1626:
 5394              	.LBE1631:
 5395              	.LBE1636:
 199:../../libdaisy/src/hid/disp/display.h ****         {
 5396              		.loc 6 199 26 is_stmt 1 view .LVU1406
 5397 0492 ECD1     		bne	.L320
 5398              	.L413:
 5399              	.LVL357:
 199:../../libdaisy/src/hid/disp/display.h ****         {
 5400              		.loc 6 199 26 is_stmt 0 view .LVU1407
 5401              	.LBE1638:
 5402              	.LBE1640:
 5403              	.LBB1641:
 5404              	.LBI1641:
 181:../../libdaisy/src/hid/disp/display.h ****                   uint_fast8_t y1,
 5405              		.loc 6 181 10 is_stmt 1 view .LVU1408
 5406              	.LBB1642:
 5407              	.LBB1643:
 5408              	.LBI1643:
  41:../../libdaisy/src/hid/disp/oled_display.h ****     {
 5409              		.loc 1 41 10 view .LVU1409
 5410              	.LBB1644:
 5411              	.LBI1644:
 239:../../libdaisy/src/dev/oled_ssd130x.h ****     {
 5412              		.loc 5 239 10 view .LVU1410
 5413              	.LBB1645:
 244:../../libdaisy/src/dev/oled_ssd130x.h ****         else
 5414              		.loc 5 244 42 is_stmt 0 view .LVU1411
 5415 0494 94F8D021 		ldrb	r2, [r4, #464]	@ zero_extendqisi2
 243:../../libdaisy/src/dev/oled_ssd130x.h ****             buffer_[x + (y / 8) * width] |= (1 << (y % 8));
 5416              		.loc 5 243 9 view .LVU1412
 5417 0498 0028     		cmp	r0, #0
 5418 049a 00F01281 		beq	.L321
 5419              	.LVL358:
 244:../../libdaisy/src/dev/oled_ssd130x.h ****         else
 5420              		.loc 5 244 42 view .LVU1413
 5421 049e 42F02002 		orr	r2, r2, #32
 5422              	.LVL359:
 5423              	.L322:
 244:../../libdaisy/src/dev/oled_ssd130x.h ****         else
 5424              		.loc 5 244 42 view .LVU1414
 5425 04a2 84F8D021 		strb	r2, [r4, #464]
 5426              	.LVL360:
 244:../../libdaisy/src/dev/oled_ssd130x.h ****         else
 5427              		.loc 5 244 42 view .LVU1415
 5428              	.LBE1645:
 5429              	.LBE1644:
 5430              	.LBE1643:
 199:../../libdaisy/src/hid/disp/display.h ****         {
 5431              		.loc 6 199 26 is_stmt 1 view .LVU1416
ARM GAS  C:\Users\VINCIU~1\AppData\Local\Temp\ccnesEGk.s 			page 147


 5432 04a6 04F5E875 		add	r5, r4, #464
 5433 04aa 04F21322 		addw	r2, r4, #531
 5434 04ae 05E0     		b	.L325
 5435              	.LVL361:
 5436              	.L416:
 5437              	.LBB1650:
 5438              	.LBB1651:
 5439              	.LBB1652:
 244:../../libdaisy/src/dev/oled_ssd130x.h ****         else
 5440              		.loc 5 244 42 is_stmt 0 view .LVU1417
 5441 04b0 41F02001 		orr	r1, r1, #32
 5442              	.LBE1652:
 5443              	.LBE1651:
 5444              	.LBE1650:
 199:../../libdaisy/src/hid/disp/display.h ****         {
 5445              		.loc 6 199 26 view .LVU1418
 5446 04b4 013A     		subs	r2, r2, #1
 5447              	.LVL362:
 5448              	.LBB1664:
 5449              	.LBB1661:
 5450              	.LBB1658:
 244:../../libdaisy/src/dev/oled_ssd130x.h ****         else
 5451              		.loc 5 244 42 view .LVU1419
 5452 04b6 5170     		strb	r1, [r2, #1]
 5453              	.LVL363:
 244:../../libdaisy/src/dev/oled_ssd130x.h ****         else
 5454              		.loc 5 244 42 view .LVU1420
 5455              	.LBE1658:
 5456              	.LBE1661:
 5457              	.LBE1664:
 199:../../libdaisy/src/hid/disp/display.h ****         {
 5458              		.loc 6 199 26 is_stmt 1 view .LVU1421
 5459 04b8 9542     		cmp	r5, r2
 5460 04ba 08D0     		beq	.L415
 5461              	.LVL364:
 5462              	.L325:
 5463              	.LBB1665:
 5464              	.LBI1650:
  41:../../libdaisy/src/hid/disp/oled_display.h ****     {
 5465              		.loc 1 41 10 view .LVU1422
 5466              	.LBB1662:
 5467              	.LBI1651:
 239:../../libdaisy/src/dev/oled_ssd130x.h ****     {
 5468              		.loc 5 239 10 view .LVU1423
 5469              	.LBB1659:
 5470              	.LBB1653:
 5471              	.LBI1653:
 239:../../libdaisy/src/dev/oled_ssd130x.h ****     {
 5472              		.loc 5 239 10 view .LVU1424
 239:../../libdaisy/src/dev/oled_ssd130x.h ****     {
 5473              		.loc 5 239 10 is_stmt 0 view .LVU1425
 5474              	.LBE1653:
 244:../../libdaisy/src/dev/oled_ssd130x.h ****         else
 5475              		.loc 5 244 42 view .LVU1426
 5476 04bc 1178     		ldrb	r1, [r2]	@ zero_extendqisi2
 243:../../libdaisy/src/dev/oled_ssd130x.h ****             buffer_[x + (y / 8) * width] |= (1 << (y % 8));
 5477              		.loc 5 243 9 view .LVU1427
ARM GAS  C:\Users\VINCIU~1\AppData\Local\Temp\ccnesEGk.s 			page 148


 5478 04be 0028     		cmp	r0, #0
 5479 04c0 F6D1     		bne	.L416
 5480              	.LBB1656:
 5481              	.LBB1654:
 246:../../libdaisy/src/dev/oled_ssd130x.h ****     }
 5482              		.loc 5 246 42 view .LVU1428
 5483 04c2 21F02001 		bic	r1, r1, #32
 5484              	.LBE1654:
 5485              	.LBE1656:
 5486              	.LBE1659:
 5487              	.LBE1662:
 5488              	.LBE1665:
 199:../../libdaisy/src/hid/disp/display.h ****         {
 5489              		.loc 6 199 26 view .LVU1429
 5490 04c6 013A     		subs	r2, r2, #1
 5491              	.LVL365:
 5492              	.LBB1666:
 5493              	.LBB1663:
 5494              	.LBB1660:
 5495              	.LBB1657:
 5496              	.LBB1655:
 246:../../libdaisy/src/dev/oled_ssd130x.h ****     }
 5497              		.loc 5 246 42 view .LVU1430
 5498 04c8 5170     		strb	r1, [r2, #1]
 5499              	.LVL366:
 246:../../libdaisy/src/dev/oled_ssd130x.h ****     }
 5500              		.loc 5 246 42 view .LVU1431
 5501              	.LBE1655:
 5502              	.LBE1657:
 5503              	.LBE1660:
 5504              	.LBE1663:
 5505              	.LBE1666:
 199:../../libdaisy/src/hid/disp/display.h ****         {
 5506              		.loc 6 199 26 is_stmt 1 view .LVU1432
 5507 04ca 9542     		cmp	r5, r2
 5508 04cc F6D1     		bne	.L325
 5509              	.L415:
 5510              	.LVL367:
 199:../../libdaisy/src/hid/disp/display.h ****         {
 5511              		.loc 6 199 26 is_stmt 0 view .LVU1433
 5512              	.LBE1642:
 5513              	.LBE1641:
 5514              	.LBB1669:
 5515              	.LBI1669:
 181:../../libdaisy/src/hid/disp/display.h ****                   uint_fast8_t y1,
 5516              		.loc 6 181 10 is_stmt 1 view .LVU1434
 5517              	.LBB1670:
 5518              	.LBB1671:
 5519              	.LBI1671:
  41:../../libdaisy/src/hid/disp/oled_display.h ****     {
 5520              		.loc 1 41 10 view .LVU1435
 5521              	.LBB1672:
 5522              	.LBI1672:
 239:../../libdaisy/src/dev/oled_ssd130x.h ****     {
 5523              		.loc 5 239 10 view .LVU1436
 5524              	.LBB1673:
 244:../../libdaisy/src/dev/oled_ssd130x.h ****         else
ARM GAS  C:\Users\VINCIU~1\AppData\Local\Temp\ccnesEGk.s 			page 149


 5525              		.loc 5 244 42 is_stmt 0 view .LVU1437
 5526 04ce 94F85020 		ldrb	r2, [r4, #80]	@ zero_extendqisi2
 243:../../libdaisy/src/dev/oled_ssd130x.h ****             buffer_[x + (y / 8) * width] |= (1 << (y % 8));
 5527              		.loc 5 243 9 view .LVU1438
 5528 04d2 0028     		cmp	r0, #0
 5529 04d4 00F0F280 		beq	.L326
 5530              	.LVL368:
 244:../../libdaisy/src/dev/oled_ssd130x.h ****         else
 5531              		.loc 5 244 42 view .LVU1439
 5532 04d8 42F00102 		orr	r2, r2, #1
 5533              	.LVL369:
 5534              	.L327:
 244:../../libdaisy/src/dev/oled_ssd130x.h ****         else
 5535              		.loc 5 244 42 view .LVU1440
 5536 04dc 84F85020 		strb	r2, [r4, #80]
 5537              	.LVL370:
 244:../../libdaisy/src/dev/oled_ssd130x.h ****         else
 5538              		.loc 5 244 42 view .LVU1441
 5539              	.LBE1673:
 5540              	.LBE1672:
 5541              	.LBE1671:
 199:../../libdaisy/src/hid/disp/display.h ****         {
 5542              		.loc 6 199 26 is_stmt 1 view .LVU1442
 5543 04e0 06E0     		b	.L330
 5544              	.LVL371:
 5545              	.L417:
 5546              	.LBB1678:
 5547              	.LBB1679:
 5548              	.LBB1680:
 244:../../libdaisy/src/dev/oled_ssd130x.h ****         else
 5549              		.loc 5 244 42 is_stmt 0 view .LVU1443
 5550 04e2 95F85020 		ldrb	r2, [r5, #80]	@ zero_extendqisi2
 5551 04e6 1143     		orrs	r1, r1, r2
 5552 04e8 85F85010 		strb	r1, [r5, #80]
 5553              	.L329:
 5554              	.LVL372:
 244:../../libdaisy/src/dev/oled_ssd130x.h ****         else
 5555              		.loc 5 244 42 view .LVU1444
 5556              	.LBE1680:
 5557              	.LBE1679:
 5558              	.LBE1678:
 199:../../libdaisy/src/hid/disp/display.h ****         {
 5559              		.loc 6 199 26 is_stmt 1 view .LVU1445
 5560 04ec 013B     		subs	r3, r3, #1
 5561              	.LVL373:
 199:../../libdaisy/src/hid/disp/display.h ****         {
 5562              		.loc 6 199 26 is_stmt 0 view .LVU1446
 5563 04ee 1BD0     		beq	.L304
 5564              	.LVL374:
 5565              	.L330:
 5566              	.LBB1688:
 5567              	.LBI1678:
  41:../../libdaisy/src/hid/disp/oled_display.h ****     {
 5568              		.loc 1 41 10 is_stmt 1 view .LVU1447
 5569              	.LBB1687:
 5570              	.LBI1679:
 239:../../libdaisy/src/dev/oled_ssd130x.h ****     {
ARM GAS  C:\Users\VINCIU~1\AppData\Local\Temp\ccnesEGk.s 			page 150


 5571              		.loc 5 239 10 view .LVU1448
 5572              	.LBB1686:
 5573              	.LBB1681:
 5574              	.LBI1681:
 239:../../libdaisy/src/dev/oled_ssd130x.h ****     {
 5575              		.loc 5 239 10 view .LVU1449
 239:../../libdaisy/src/dev/oled_ssd130x.h ****     {
 5576              		.loc 5 239 10 is_stmt 0 view .LVU1450
 5577              	.LBE1681:
 244:../../libdaisy/src/dev/oled_ssd130x.h ****         else
 5578              		.loc 5 244 48 view .LVU1451
 5579 04f0 0121     		movs	r1, #1
 244:../../libdaisy/src/dev/oled_ssd130x.h ****         else
 5580              		.loc 5 244 28 view .LVU1452
 5581 04f2 DD08     		lsrs	r5, r3, #3
 244:../../libdaisy/src/dev/oled_ssd130x.h ****         else
 5582              		.loc 5 244 54 view .LVU1453
 5583 04f4 03F0070C 		and	ip, r3, #7
 5584              	.LBB1684:
 5585              	.LBB1682:
 246:../../libdaisy/src/dev/oled_ssd130x.h ****     }
 5586              		.loc 5 246 49 view .LVU1454
 5587 04f8 0F46     		mov	r7, r1
 5588              	.LBE1682:
 5589              	.LBE1684:
 244:../../libdaisy/src/dev/oled_ssd130x.h ****         else
 5590              		.loc 5 244 42 view .LVU1455
 5591 04fa 04EBC515 		add	r5, r4, r5, lsl #7
 244:../../libdaisy/src/dev/oled_ssd130x.h ****         else
 5592              		.loc 5 244 48 view .LVU1456
 5593 04fe 01FA0CF1 		lsl	r1, r1, ip
 243:../../libdaisy/src/dev/oled_ssd130x.h ****             buffer_[x + (y / 8) * width] |= (1 << (y % 8));
 5594              		.loc 5 243 9 view .LVU1457
 5595 0502 0028     		cmp	r0, #0
 5596 0504 EDD1     		bne	.L417
 5597              	.LBB1685:
 5598              	.LBB1683:
 246:../../libdaisy/src/dev/oled_ssd130x.h ****     }
 5599              		.loc 5 246 42 view .LVU1458
 5600 0506 95F85010 		ldrb	r1, [r5, #80]	@ zero_extendqisi2
 246:../../libdaisy/src/dev/oled_ssd130x.h ****     }
 5601              		.loc 5 246 49 view .LVU1459
 5602 050a 07FA0CF7 		lsl	r7, r7, ip
 246:../../libdaisy/src/dev/oled_ssd130x.h ****     }
 5603              		.loc 5 246 42 view .LVU1460
 5604 050e 21EA0707 		bic	r7, r1, r7
 5605 0512 85F85070 		strb	r7, [r5, #80]
 5606 0516 E9E7     		b	.L329
 5607              	.LVL375:
 5608              	.L403:
 246:../../libdaisy/src/dev/oled_ssd130x.h ****     }
 5609              		.loc 5 246 42 view .LVU1461
 5610              	.LBE1683:
 5611              	.LBE1685:
 5612              	.LBE1686:
 5613              	.LBE1687:
 5614              	.LBE1688:
ARM GAS  C:\Users\VINCIU~1\AppData\Local\Temp\ccnesEGk.s 			page 151


 5615              	.LBE1670:
 5616              	.LBE1669:
 5617              	.LBE1695:
 5618              	.LBE1720:
 257:Menus.cpp     ****         this->OscSelector = !this->OscSelector;
 5619              		.loc 2 257 9 is_stmt 1 view .LVU1462
 257:Menus.cpp     ****         this->OscSelector = !this->OscSelector;
 5620              		.loc 2 257 29 is_stmt 0 view .LVU1463
 5621 0518 95F87430 		ldrb	r3, [r5, #116]	@ zero_extendqisi2
 5622 051c 83F00103 		eor	r3, r3, #1
 257:Menus.cpp     ****         this->OscSelector = !this->OscSelector;
 5623              		.loc 2 257 27 view .LVU1464
 5624 0520 85F87430 		strb	r3, [r5, #116]
 258:Menus.cpp     ****         on                = this->OscSelector;
 5625              		.loc 2 258 9 is_stmt 1 view .LVU1465
 258:Menus.cpp     ****         on                = this->OscSelector;
 5626              		.loc 2 258 27 is_stmt 0 view .LVU1466
 5627 0524 85F8E031 		strb	r3, [r5, #480]
 5628              	.LVL376:
 5629              	.L304:
 258:Menus.cpp     ****         on                = this->OscSelector;
 5630              		.loc 2 258 27 view .LVU1467
 5631              	.LBE1754:
 5632              	.LBB1755:
 5633              	.LBB1756:
 5634              	.LBB1757:
 5635              	.LBB1758:
 5636              	.LBB1759:
 111:../../libdaisy/src/dev/oled_ssd130x.h ****         spi_.BlockingTransmit(&cmd, 1);
 5637              		.loc 5 111 24 view .LVU1468
 5638 0528 04F10807 		add	r7, r4, #8
 112:../../libdaisy/src/dev/oled_ssd130x.h ****     };
 5639              		.loc 5 112 30 view .LVU1469
 5640 052c B025     		movs	r5, #176
 111:../../libdaisy/src/dev/oled_ssd130x.h ****         spi_.BlockingTransmit(&cmd, 1);
 5641              		.loc 5 111 24 view .LVU1470
 5642 052e 1034     		adds	r4, r4, #16
 5643              	.LVL377:
 5644              	.L359:
 111:../../libdaisy/src/dev/oled_ssd130x.h ****         spi_.BlockingTransmit(&cmd, 1);
 5645              		.loc 5 111 24 view .LVU1471
 5646 0530 4FF00008 		mov	r8, #0
 111:../../libdaisy/src/dev/oled_ssd130x.h ****         spi_.BlockingTransmit(&cmd, 1);
 5647              		.loc 5 111 23 view .LVU1472
 5648 0534 2046     		mov	r0, r4
 5649 0536 8DF81750 		strb	r5, [sp, #23]
 5650              	.LVL378:
 111:../../libdaisy/src/dev/oled_ssd130x.h ****         spi_.BlockingTransmit(&cmd, 1);
 5651              		.loc 5 111 23 view .LVU1473
 5652              	.LBE1759:
 5653              	.LBI1758:
 109:../../libdaisy/src/dev/oled_ssd130x.h ****     {
 5654              		.loc 5 109 10 is_stmt 1 view .LVU1474
 5655              	.LBB1760:
 111:../../libdaisy/src/dev/oled_ssd130x.h ****         spi_.BlockingTransmit(&cmd, 1);
 5656              		.loc 5 111 9 view .LVU1475
 5657              	.LBE1760:
ARM GAS  C:\Users\VINCIU~1\AppData\Local\Temp\ccnesEGk.s 			page 152


 5658              	.LBE1758:
 5659              		.loc 5 270 22 is_stmt 0 view .LVU1476
 5660 053a 0135     		adds	r5, r5, #1
 5661              	.LVL379:
 5662              	.LBB1763:
 5663              	.LBB1761:
 111:../../libdaisy/src/dev/oled_ssd130x.h ****         spi_.BlockingTransmit(&cmd, 1);
 5664              		.loc 5 111 23 view .LVU1477
 5665 053c 4146     		mov	r1, r8
 5666 053e FFF7FEFF 		bl	dsy_gpio_write
 5667              	.LVL380:
 112:../../libdaisy/src/dev/oled_ssd130x.h ****     };
 5668              		.loc 5 112 9 is_stmt 1 view .LVU1478
 112:../../libdaisy/src/dev/oled_ssd130x.h ****     };
 5669              		.loc 5 112 30 is_stmt 0 view .LVU1479
 5670 0542 6423     		movs	r3, #100
 5671 0544 0122     		movs	r2, #1
 5672 0546 0DF11701 		add	r1, sp, #23
 5673 054a 3846     		mov	r0, r7
 5674              	.LBE1761:
 5675              	.LBE1763:
 5676              		.loc 5 270 22 view .LVU1480
 5677 054c EDB2     		uxtb	r5, r5
 5678              	.LBB1764:
 5679              	.LBB1762:
 112:../../libdaisy/src/dev/oled_ssd130x.h ****     };
 5680              		.loc 5 112 30 view .LVU1481
 5681 054e FFF7FEFF 		bl	_ZN5daisy9SpiHandle16BlockingTransmitEPhjm
 5682              	.LVL381:
 112:../../libdaisy/src/dev/oled_ssd130x.h ****     };
 5683              		.loc 5 112 30 view .LVU1482
 5684              	.LBE1762:
 5685              	.LBE1764:
 5686              	.LBB1765:
 5687              	.LBB1766:
 111:../../libdaisy/src/dev/oled_ssd130x.h ****         spi_.BlockingTransmit(&cmd, 1);
 5688              		.loc 5 111 23 view .LVU1483
 5689 0552 4146     		mov	r1, r8
 5690 0554 2046     		mov	r0, r4
 5691 0556 8DF81780 		strb	r8, [sp, #23]
 5692              	.LVL382:
 111:../../libdaisy/src/dev/oled_ssd130x.h ****         spi_.BlockingTransmit(&cmd, 1);
 5693              		.loc 5 111 23 view .LVU1484
 5694              	.LBE1766:
 5695              	.LBI1765:
 109:../../libdaisy/src/dev/oled_ssd130x.h ****     {
 5696              		.loc 5 109 10 is_stmt 1 view .LVU1485
 5697              	.LBB1767:
 111:../../libdaisy/src/dev/oled_ssd130x.h ****         spi_.BlockingTransmit(&cmd, 1);
 5698              		.loc 5 111 9 view .LVU1486
 111:../../libdaisy/src/dev/oled_ssd130x.h ****         spi_.BlockingTransmit(&cmd, 1);
 5699              		.loc 5 111 23 is_stmt 0 view .LVU1487
 5700 055a FFF7FEFF 		bl	dsy_gpio_write
 5701              	.LVL383:
 112:../../libdaisy/src/dev/oled_ssd130x.h ****     };
 5702              		.loc 5 112 9 is_stmt 1 view .LVU1488
 112:../../libdaisy/src/dev/oled_ssd130x.h ****     };
ARM GAS  C:\Users\VINCIU~1\AppData\Local\Temp\ccnesEGk.s 			page 153


 5703              		.loc 5 112 30 is_stmt 0 view .LVU1489
 5704 055e 0122     		movs	r2, #1
 5705 0560 6423     		movs	r3, #100
 5706 0562 0DF11701 		add	r1, sp, #23
 5707 0566 3846     		mov	r0, r7
 5708 0568 FFF7FEFF 		bl	_ZN5daisy9SpiHandle16BlockingTransmitEPhjm
 5709              	.LVL384:
 112:../../libdaisy/src/dev/oled_ssd130x.h ****     };
 5710              		.loc 5 112 30 view .LVU1490
 5711 056c 1023     		movs	r3, #16
 5712              	.LBE1767:
 5713              	.LBE1765:
 5714              	.LBB1768:
 5715              	.LBB1769:
 111:../../libdaisy/src/dev/oled_ssd130x.h ****         spi_.BlockingTransmit(&cmd, 1);
 5716              		.loc 5 111 23 view .LVU1491
 5717 056e 4146     		mov	r1, r8
 5718 0570 2046     		mov	r0, r4
 5719 0572 8DF81730 		strb	r3, [sp, #23]
 5720              	.LVL385:
 111:../../libdaisy/src/dev/oled_ssd130x.h ****         spi_.BlockingTransmit(&cmd, 1);
 5721              		.loc 5 111 23 view .LVU1492
 5722              	.LBE1769:
 5723              	.LBI1768:
 109:../../libdaisy/src/dev/oled_ssd130x.h ****     {
 5724              		.loc 5 109 10 is_stmt 1 view .LVU1493
 5725              	.LBB1770:
 111:../../libdaisy/src/dev/oled_ssd130x.h ****         spi_.BlockingTransmit(&cmd, 1);
 5726              		.loc 5 111 9 view .LVU1494
 111:../../libdaisy/src/dev/oled_ssd130x.h ****         spi_.BlockingTransmit(&cmd, 1);
 5727              		.loc 5 111 23 is_stmt 0 view .LVU1495
 5728 0576 FFF7FEFF 		bl	dsy_gpio_write
 5729              	.LVL386:
 112:../../libdaisy/src/dev/oled_ssd130x.h ****     };
 5730              		.loc 5 112 9 is_stmt 1 view .LVU1496
 112:../../libdaisy/src/dev/oled_ssd130x.h ****     };
 5731              		.loc 5 112 30 is_stmt 0 view .LVU1497
 5732 057a 6423     		movs	r3, #100
 5733 057c 0122     		movs	r2, #1
 5734 057e 0DF11701 		add	r1, sp, #23
 5735 0582 3846     		mov	r0, r7
 5736 0584 FFF7FEFF 		bl	_ZN5daisy9SpiHandle16BlockingTransmitEPhjm
 5737              	.LVL387:
 112:../../libdaisy/src/dev/oled_ssd130x.h ****     };
 5738              		.loc 5 112 30 view .LVU1498
 5739              	.LBE1770:
 5740              	.LBE1768:
 5741              	.LBB1771:
 5742              	.LBI1771:
 115:../../libdaisy/src/dev/oled_ssd130x.h ****     {
 5743              		.loc 5 115 10 is_stmt 1 view .LVU1499
 5744              	.LBB1772:
 117:../../libdaisy/src/dev/oled_ssd130x.h ****         spi_.BlockingTransmit(buff, size);
 5745              		.loc 5 117 9 view .LVU1500
 117:../../libdaisy/src/dev/oled_ssd130x.h ****         spi_.BlockingTransmit(buff, size);
 5746              		.loc 5 117 23 is_stmt 0 view .LVU1501
 5747 0588 0121     		movs	r1, #1
ARM GAS  C:\Users\VINCIU~1\AppData\Local\Temp\ccnesEGk.s 			page 154


 5748 058a 2046     		mov	r0, r4
 5749 058c FFF7FEFF 		bl	dsy_gpio_write
 5750              	.LVL388:
 118:../../libdaisy/src/dev/oled_ssd130x.h ****     };
 5751              		.loc 5 118 9 is_stmt 1 view .LVU1502
 118:../../libdaisy/src/dev/oled_ssd130x.h ****     };
 5752              		.loc 5 118 30 is_stmt 0 view .LVU1503
 5753 0590 8022     		movs	r2, #128
 5754 0592 3146     		mov	r1, r6
 5755 0594 6423     		movs	r3, #100
 5756 0596 3846     		mov	r0, r7
 5757              	.LBE1772:
 5758              	.LBE1771:
 5759              		.loc 5 270 22 view .LVU1504
 5760 0598 1644     		add	r6, r6, r2
 5761              	.LVL389:
 5762              	.LBB1774:
 5763              	.LBB1773:
 118:../../libdaisy/src/dev/oled_ssd130x.h ****     };
 5764              		.loc 5 118 30 view .LVU1505
 5765 059a FFF7FEFF 		bl	_ZN5daisy9SpiHandle16BlockingTransmitEPhjm
 5766              	.LVL390:
 118:../../libdaisy/src/dev/oled_ssd130x.h ****     };
 5767              		.loc 5 118 30 view .LVU1506
 5768              	.LBE1773:
 5769              	.LBE1774:
 5770              		.loc 5 270 9 is_stmt 1 view .LVU1507
 5771              		.loc 5 270 22 view .LVU1508
 5772 059e B82D     		cmp	r5, #184
 5773 05a0 C6D1     		bne	.L359
 5774              	.LBE1757:
 5775              	.LBE1756:
 5776              	.LBE1755:
 521:Menus.cpp     **** }
 5777              		.loc 2 521 1 is_stmt 0 view .LVU1509
 5778 05a2 07B0     		add	sp, sp, #28
 5779              		.cfi_remember_state
 5780              		.cfi_def_cfa_offset 36
 5781              		@ sp needed
 5782 05a4 BDEC028B 		vldm	sp!, {d8}
 5783              		.cfi_restore 80
 5784              		.cfi_restore 81
 5785              		.cfi_def_cfa_offset 28
 5786 05a8 BDE8F083 		pop	{r4, r5, r6, r7, r8, r9, pc}
 5787              	.LVL391:
 5788              	.L398:
 5789              		.cfi_restore_state
 196:Menus.cpp     ****         menuState = menuState - 1;
 5790              		.loc 2 196 9 is_stmt 1 view .LVU1510
 197:Menus.cpp     ****         if(menuState < 0)
 5791              		.loc 2 197 9 view .LVU1511
 196:Menus.cpp     ****         menuState = menuState - 1;
 5792              		.loc 2 196 31 is_stmt 0 view .LVU1512
 5793 05ac EB6E     		ldr	r3, [r5, #108]
 197:Menus.cpp     ****         if(menuState < 0)
 5794              		.loc 2 197 9 view .LVU1513
 5795 05ae 013B     		subs	r3, r3, #1
ARM GAS  C:\Users\VINCIU~1\AppData\Local\Temp\ccnesEGk.s 			page 155


 5796 05b0 7CD4     		bmi	.L284
 196:Menus.cpp     ****         menuState = menuState - 1;
 5797              		.loc 2 196 19 view .LVU1514
 5798 05b2 EB66     		str	r3, [r5, #108]
 202:Menus.cpp     ****     if(this->buttonRight.RisingEdge())
 5799              		.loc 2 202 5 is_stmt 1 view .LVU1515
 5800              	.LVL392:
 5801              	.LBB1775:
 5802              		.loc 4 69 17 view .LVU1516
 5803              	.LBB1411:
 5804              		.loc 4 69 38 view .LVU1517
 5805              		.loc 4 69 38 is_stmt 0 view .LVU1518
 5806              	.LBE1411:
 5807              	.LBE1775:
 202:Menus.cpp     ****     if(this->buttonRight.RisingEdge())
 5808              		.loc 2 202 5 view .LVU1519
 5809 05b4 95F86130 		ldrb	r3, [r5, #97]	@ zero_extendqisi2
 5810 05b8 7F2B     		cmp	r3, #127
 5811 05ba 7FF440AD 		bne	.L286
 5812              	.L399:
 205:Menus.cpp     ****         menuState = menuState + 1;
 5813              		.loc 2 205 9 is_stmt 1 view .LVU1520
 205:Menus.cpp     ****         menuState = menuState + 1;
 5814              		.loc 2 205 31 is_stmt 0 view .LVU1521
 5815 05be EB6E     		ldr	r3, [r5, #108]
 5816 05c0 0133     		adds	r3, r3, #1
 206:Menus.cpp     ****         if(menuState > 3)
 5817              		.loc 2 206 9 view .LVU1522
 5818 05c2 032B     		cmp	r3, #3
 205:Menus.cpp     ****         menuState = menuState + 1;
 5819              		.loc 2 205 19 view .LVU1523
 5820 05c4 EB66     		str	r3, [r5, #108]
 206:Menus.cpp     ****         if(menuState > 3)
 5821              		.loc 2 206 9 is_stmt 1 view .LVU1524
 5822 05c6 7FF73AAD 		ble	.L286
 5823              	.L285:
 208:Menus.cpp     ****             menuState = 0;
 5824              		.loc 2 208 13 view .LVU1525
 208:Menus.cpp     ****             menuState = 0;
 5825              		.loc 2 208 23 is_stmt 0 view .LVU1526
 5826 05ca 0023     		movs	r3, #0
 5827 05cc EB66     		str	r3, [r5, #108]
 5828 05ce 36E5     		b	.L286
 5829              	.L409:
 5830              	.LBB1776:
 5831              	.LBB1721:
 264:Menus.cpp     ****             if(this->noteSemiAdd > 32)
 5832              		.loc 2 264 13 is_stmt 1 view .LVU1527
 5833 05d0 D5F86421 		ldr	r2, [r5, #356]
 272:Menus.cpp     ****             if(this->drawSliderSemi >= 40)
 5834              		.loc 2 272 22 is_stmt 0 view .LVU1528
 5835 05d4 D5ED1E7A 		vldr.32	s15, [r5, #120]
 272:Menus.cpp     ****             if(this->drawSliderSemi >= 40)
 5836              		.loc 2 272 13 view .LVU1529
 5837 05d8 9FED497A 		vldr.32	s14, .L425+4
 5838 05dc 22EAE272 		bic	r2, r2, r2, asr #31
 5839 05e0 F4EEC77A 		vcmpe.f32	s15, s14
ARM GAS  C:\Users\VINCIU~1\AppData\Local\Temp\ccnesEGk.s 			page 156


 5840 05e4 202A     		cmp	r2, #32
 5841 05e6 A8BF     		it	ge
 5842 05e8 2022     		movge	r2, #32
 272:Menus.cpp     ****             if(this->drawSliderSemi >= 40)
 5843              		.loc 2 272 13 is_stmt 1 view .LVU1530
 5844 05ea F1EE10FA 		vmrs	APSR_nzcv, FPSCR
 5845 05ee 80F28280 		bge	.L365
 276:Menus.cpp     ****             if(this->drawSliderSemi < 0)
 5846              		.loc 2 276 13 view .LVU1531
 5847 05f2 F5EEC07A 		vcmpe.f32	s15, #0
 5848 05f6 F1EE10FA 		vmrs	APSR_nzcv, FPSCR
 5849 05fa 01D5     		bpl	.L307
 5850 05fc DFED417A 		vldr.32	s15, .L425+8
 5851              	.L307:
 280:Menus.cpp     ****             this->noteSemiAdd += this->encoderRight.Increment();
 5852              		.loc 2 280 13 view .LVU1532
 5853              	.LVL393:
 5854              	.LBB1696:
 5855              	.LBI1696:
  41:../../libdaisy/src/hid/encoder.h ****     /** Returns true if the encoder was just pressed.
 5856              		.loc 3 41 20 view .LVU1533
 5857              	.LBB1697:
  41:../../libdaisy/src/hid/encoder.h ****     /** Returns true if the encoder was just pressed.
 5858              		.loc 3 41 40 view .LVU1534
  41:../../libdaisy/src/hid/encoder.h ****     /** Returns true if the encoder was just pressed.
 5859              		.loc 3 41 40 is_stmt 0 view .LVU1535
 5860              	.LBE1697:
 5861              	.LBE1696:
 282:Menus.cpp     ****                 += (((float)this->encoderRight.Increment()) / 32) * 40;
 5862              		.loc 2 282 61 view .LVU1536
 5863 0600 D5ED126A 		vldr.32	s13, [r5, #72]	@ int
 283:Menus.cpp     ****             sprintf(this->buff, "Semi_%dst", this->noteSemiAdd);
 5864              		.loc 2 283 20 view .LVU1537
 5865 0604 05F1A400 		add	r0, r5, #164
 282:Menus.cpp     ****                 += (((float)this->encoderRight.Increment()) / 32) * 40;
 5866              		.loc 2 282 17 view .LVU1538
 5867 0608 9FED3D7A 		vldr.32	s14, .L425+4
 282:Menus.cpp     ****                 += (((float)this->encoderRight.Increment()) / 32) * 40;
 5868              		.loc 2 282 61 view .LVU1539
 5869 060c FAEEED6A 		vcvt.f32.s32	s13, s13, #5
 280:Menus.cpp     ****             this->noteSemiAdd += this->encoderRight.Increment();
 5870              		.loc 2 280 31 view .LVU1540
 5871 0610 AB6C     		ldr	r3, [r5, #72]
 283:Menus.cpp     ****             sprintf(this->buff, "Semi_%dst", this->noteSemiAdd);
 5872              		.loc 2 283 20 view .LVU1541
 5873 0612 3A49     		ldr	r1, .L425
 280:Menus.cpp     ****             this->noteSemiAdd += this->encoderRight.Increment();
 5874              		.loc 2 280 31 view .LVU1542
 5875 0614 1A44     		add	r2, r2, r3
 282:Menus.cpp     ****                 += (((float)this->encoderRight.Increment()) / 32) * 40;
 5876              		.loc 2 282 17 view .LVU1543
 5877 0616 E6EE877A 		vfma.f32	s15, s13, s14
 280:Menus.cpp     ****             this->noteSemiAdd += this->encoderRight.Increment();
 5878              		.loc 2 280 31 view .LVU1544
 5879 061a C5F86421 		str	r2, [r5, #356]
 281:Menus.cpp     ****             this->drawSliderSemi
 5880              		.loc 2 281 13 is_stmt 1 view .LVU1545
ARM GAS  C:\Users\VINCIU~1\AppData\Local\Temp\ccnesEGk.s 			page 157


 5881              	.LVL394:
 281:Menus.cpp     ****             this->drawSliderSemi
 5882              		.loc 2 281 13 is_stmt 0 view .LVU1546
 5883              	.LBE1721:
 5884              	.LBE1776:
  41:../../libdaisy/src/hid/encoder.h ****     /** Returns true if the encoder was just pressed.
 5885              		.loc 3 41 40 is_stmt 1 view .LVU1547
 5886              	.LBB1777:
 5887              	.LBB1722:
 282:Menus.cpp     ****                 += (((float)this->encoderRight.Increment()) / 32) * 40;
 5888              		.loc 2 282 17 is_stmt 0 view .LVU1548
 5889 061e C5ED1E7A 		vstr.32	s15, [r5, #120]
 283:Menus.cpp     ****             sprintf(this->buff, "Semi_%dst", this->noteSemiAdd);
 5890              		.loc 2 283 13 is_stmt 1 view .LVU1549
 283:Menus.cpp     ****             sprintf(this->buff, "Semi_%dst", this->noteSemiAdd);
 5891              		.loc 2 283 20 is_stmt 0 view .LVU1550
 5892 0622 FFF7FEFF 		bl	sprintf
 5893              	.LVL395:
 310:Menus.cpp     ****         screen.DrawRect(
 5894              		.loc 2 310 9 is_stmt 1 view .LVU1551
 310:Menus.cpp     ****         screen.DrawRect(
 5895              		.loc 2 310 24 is_stmt 0 view .LVU1552
 5896 0626 95F8E001 		ldrb	r0, [r5, #480]	@ zero_extendqisi2
 5897              	.LVL396:
 5898              	.LBB1698:
 217:../../libdaisy/src/hid/disp/display.h ****                   uint_fast8_t y1,
 5899              		.loc 6 217 10 is_stmt 1 view .LVU1553
 5900              	.LBB1691:
 181:../../libdaisy/src/hid/disp/display.h ****                   uint_fast8_t y1,
 5901              		.loc 6 181 10 view .LVU1554
 5902              	.LBB1600:
 5903              	.LBB1599:
  41:../../libdaisy/src/hid/disp/oled_display.h ****     {
 5904              		.loc 1 41 10 view .LVU1555
 5905              	.LBB1589:
 239:../../libdaisy/src/dev/oled_ssd130x.h ****     {
 5906              		.loc 5 239 10 view .LVU1556
 5907              	.LBB1588:
 244:../../libdaisy/src/dev/oled_ssd130x.h ****         else
 5908              		.loc 5 244 42 is_stmt 0 view .LVU1557
 5909 062a 94F89320 		ldrb	r2, [r4, #147]	@ zero_extendqisi2
 243:../../libdaisy/src/dev/oled_ssd130x.h ****             buffer_[x + (y / 8) * width] |= (1 << (y % 8));
 5910              		.loc 5 243 9 view .LVU1558
 5911 062e 0028     		cmp	r0, #0
 5912 0630 7FF4F4AE 		bne	.L418
 5913              	.LVL397:
 5914              	.L311:
 5915              	.LBB1586:
 5916              	.LBI1586:
 239:../../libdaisy/src/dev/oled_ssd130x.h ****     {
 5917              		.loc 5 239 10 is_stmt 1 view .LVU1559
 5918              	.LBB1587:
 246:../../libdaisy/src/dev/oled_ssd130x.h ****     }
 5919              		.loc 5 246 42 is_stmt 0 view .LVU1560
 5920 0634 02F0FE02 		and	r2, r2, #254
 5921 0638 F2E6     		b	.L312
 5922              	.LVL398:
ARM GAS  C:\Users\VINCIU~1\AppData\Local\Temp\ccnesEGk.s 			page 158


 5923              	.L406:
 246:../../libdaisy/src/dev/oled_ssd130x.h ****     }
 5924              		.loc 5 246 42 view .LVU1561
 5925              	.LBE1587:
 5926              	.LBE1586:
 5927              	.LBE1588:
 5928              	.LBE1589:
 5929              	.LBE1599:
 5930              	.LBE1600:
 5931              	.LBE1691:
 5932              	.LBE1698:
 5933              	.LBE1722:
 5934              	.LBE1777:
 348:Menus.cpp     ****         if(this->OscSelector == true)
 5935              		.loc 2 348 9 is_stmt 1 view .LVU1562
 5936              	.LBB1778:
 5937              	.LBB1723:
 5938              	.LBB1699:
 5939              	.LBB1561:
 5940              	.LBB1478:
 5941 063a 95F87430 		ldrb	r3, [r5, #116]	@ zero_extendqisi2
 5942 063e 9BB1     		cbz	r3, .L337
 5943              	.LBB1479:
 350:Menus.cpp     ****             this->setWave += this->encoderRight.Increment();
 5944              		.loc 2 350 13 view .LVU1563
 5945              	.LVL399:
 5946              	.LBB1480:
 5947              	.LBI1480:
  41:../../libdaisy/src/hid/encoder.h ****     /** Returns true if the encoder was just pressed.
 5948              		.loc 3 41 20 view .LVU1564
 5949              	.LBB1481:
  41:../../libdaisy/src/hid/encoder.h ****     /** Returns true if the encoder was just pressed.
 5950              		.loc 3 41 40 view .LVU1565
  41:../../libdaisy/src/hid/encoder.h ****     /** Returns true if the encoder was just pressed.
 5951              		.loc 3 41 40 is_stmt 0 view .LVU1566
 5952              	.LBE1481:
 5953              	.LBE1480:
 350:Menus.cpp     ****             this->setWave += this->encoderRight.Increment();
 5954              		.loc 2 350 27 view .LVU1567
 5955 0640 D5F89031 		ldr	r3, [r5, #400]
 5956 0644 AA6C     		ldr	r2, [r5, #72]
 5957 0646 1344     		add	r3, r3, r2
 351:Menus.cpp     ****             if(setWave > 3)
 5958              		.loc 2 351 13 is_stmt 1 view .LVU1568
 5959 0648 032B     		cmp	r3, #3
 5960 064a 40F38280 		ble	.L338
 353:Menus.cpp     ****                 this->setWave = 3;
 5961              		.loc 2 353 17 view .LVU1569
 353:Menus.cpp     ****                 this->setWave = 3;
 5962              		.loc 2 353 31 is_stmt 0 view .LVU1570
 5963 064e 0323     		movs	r3, #3
 5964 0650 C5F89031 		str	r3, [r5, #400]
 355:Menus.cpp     ****             if(this->setWave < 0)
 5965              		.loc 2 355 13 is_stmt 1 view .LVU1571
 359:Menus.cpp     ****             if(this->setWave == 0)
 5966              		.loc 2 359 13 view .LVU1572
 5967              	.LBE1479:
ARM GAS  C:\Users\VINCIU~1\AppData\Local\Temp\ccnesEGk.s 			page 159


 5968              	.LBE1478:
 5969              	.LBE1561:
 5970              	.LBE1699:
 5971              	.LBE1723:
 5972              	.LBE1778:
 367:Menus.cpp     ****             else if(setWave == 1)
 5973              		.loc 2 367 18 view .LVU1573
 5974              	.L339:
 5975              	.LVL400:
 5976              	.LBB1779:
 5977              	.LBB1724:
 5978              	.LBB1700:
 5979              	.LBB1562:
 5980              	.LBB1512:
 5981              	.LBB1507:
 5982              	.LBB1482:
 5983              	.LBB1483:
 5984              	.LBB1484:
 5985              	.LBB1485:
 385:Menus.cpp     ****                 for(int i = 0; i < 2; i++)
 5986              		.loc 2 385 34 view .LVU1574
 387:Menus.cpp     ****                     selectedWave = setWave;
 5987              		.loc 2 387 21 view .LVU1575
 388:Menus.cpp     ****                     osc[0].SetWaveform(osc[0].WAVE_SAW);
 5988              		.loc 2 388 21 view .LVU1576
 5989              	.LBB1486:
 5990              	.LBI1486:
 5991              		.file 7 "../../DaisySP/Source/Synthesis/oscillator.h"
   1:../../DaisySP/Source/Synthesis/oscillator.h **** #pragma once
   2:../../DaisySP/Source/Synthesis/oscillator.h **** #ifndef DSY_OSCILLATOR_H
   3:../../DaisySP/Source/Synthesis/oscillator.h **** #define DSY_OSCILLATOR_H
   4:../../DaisySP/Source/Synthesis/oscillator.h **** #include <stdint.h>
   5:../../DaisySP/Source/Synthesis/oscillator.h **** #include "Utility/dsp.h"
   6:../../DaisySP/Source/Synthesis/oscillator.h **** #ifdef __cplusplus
   7:../../DaisySP/Source/Synthesis/oscillator.h **** 
   8:../../DaisySP/Source/Synthesis/oscillator.h **** namespace daisysp
   9:../../DaisySP/Source/Synthesis/oscillator.h **** {
  10:../../DaisySP/Source/Synthesis/oscillator.h **** /** Synthesis of several waveforms, including polyBLEP bandlimited waveforms.
  11:../../DaisySP/Source/Synthesis/oscillator.h **** */
  12:../../DaisySP/Source/Synthesis/oscillator.h **** class Oscillator
  13:../../DaisySP/Source/Synthesis/oscillator.h **** {
  14:../../DaisySP/Source/Synthesis/oscillator.h ****   public:
  15:../../DaisySP/Source/Synthesis/oscillator.h ****     Oscillator() {}
  16:../../DaisySP/Source/Synthesis/oscillator.h ****     ~Oscillator() {}
  17:../../DaisySP/Source/Synthesis/oscillator.h ****     /** Choices for output waveforms, POLYBLEP are appropriately labeled. Others are naive forms.
  18:../../DaisySP/Source/Synthesis/oscillator.h ****     */
  19:../../DaisySP/Source/Synthesis/oscillator.h ****     enum
  20:../../DaisySP/Source/Synthesis/oscillator.h ****     {
  21:../../DaisySP/Source/Synthesis/oscillator.h ****         WAVE_SIN,
  22:../../DaisySP/Source/Synthesis/oscillator.h ****         WAVE_TRI,
  23:../../DaisySP/Source/Synthesis/oscillator.h ****         WAVE_SAW,
  24:../../DaisySP/Source/Synthesis/oscillator.h ****         WAVE_RAMP,
  25:../../DaisySP/Source/Synthesis/oscillator.h ****         WAVE_SQUARE,
  26:../../DaisySP/Source/Synthesis/oscillator.h ****         WAVE_POLYBLEP_TRI,
  27:../../DaisySP/Source/Synthesis/oscillator.h ****         WAVE_POLYBLEP_SAW,
  28:../../DaisySP/Source/Synthesis/oscillator.h ****         WAVE_POLYBLEP_SQUARE,
  29:../../DaisySP/Source/Synthesis/oscillator.h ****         WAVE_LAST,
ARM GAS  C:\Users\VINCIU~1\AppData\Local\Temp\ccnesEGk.s 			page 160


  30:../../DaisySP/Source/Synthesis/oscillator.h ****     };
  31:../../DaisySP/Source/Synthesis/oscillator.h **** 
  32:../../DaisySP/Source/Synthesis/oscillator.h **** 
  33:../../DaisySP/Source/Synthesis/oscillator.h ****     /** Initializes the Oscillator
  34:../../DaisySP/Source/Synthesis/oscillator.h **** 
  35:../../DaisySP/Source/Synthesis/oscillator.h ****         \param sample_rate - sample rate of the audio engine being run, and the frequency that the 
  36:../../DaisySP/Source/Synthesis/oscillator.h **** 
  37:../../DaisySP/Source/Synthesis/oscillator.h ****         Defaults:
  38:../../DaisySP/Source/Synthesis/oscillator.h ****         - freq_ = 100 Hz
  39:../../DaisySP/Source/Synthesis/oscillator.h ****         - amp_ = 0.5
  40:../../DaisySP/Source/Synthesis/oscillator.h ****         - waveform_ = sine wave.
  41:../../DaisySP/Source/Synthesis/oscillator.h ****     */
  42:../../DaisySP/Source/Synthesis/oscillator.h ****     void Init(float sample_rate)
  43:../../DaisySP/Source/Synthesis/oscillator.h ****     {
  44:../../DaisySP/Source/Synthesis/oscillator.h ****         sr_        = sample_rate;
  45:../../DaisySP/Source/Synthesis/oscillator.h ****         sr_recip_  = 1.0f / sample_rate;
  46:../../DaisySP/Source/Synthesis/oscillator.h ****         freq_      = 100.0f;
  47:../../DaisySP/Source/Synthesis/oscillator.h ****         amp_       = 0.5f;
  48:../../DaisySP/Source/Synthesis/oscillator.h ****         phase_     = 0.0f;
  49:../../DaisySP/Source/Synthesis/oscillator.h ****         phase_inc_ = CalcPhaseInc(freq_);
  50:../../DaisySP/Source/Synthesis/oscillator.h ****         waveform_  = WAVE_SIN;
  51:../../DaisySP/Source/Synthesis/oscillator.h ****         eoc_       = true;
  52:../../DaisySP/Source/Synthesis/oscillator.h ****         eor_       = true;
  53:../../DaisySP/Source/Synthesis/oscillator.h ****     }
  54:../../DaisySP/Source/Synthesis/oscillator.h **** 
  55:../../DaisySP/Source/Synthesis/oscillator.h **** 
  56:../../DaisySP/Source/Synthesis/oscillator.h ****     /** Changes the frequency of the Oscillator, and recalculates phase increment.
  57:../../DaisySP/Source/Synthesis/oscillator.h ****     */
  58:../../DaisySP/Source/Synthesis/oscillator.h ****     inline void SetFreq(const float f)
  59:../../DaisySP/Source/Synthesis/oscillator.h ****     {
  60:../../DaisySP/Source/Synthesis/oscillator.h ****         freq_      = f;
  61:../../DaisySP/Source/Synthesis/oscillator.h ****         phase_inc_ = CalcPhaseInc(f);
  62:../../DaisySP/Source/Synthesis/oscillator.h ****     }
  63:../../DaisySP/Source/Synthesis/oscillator.h **** 
  64:../../DaisySP/Source/Synthesis/oscillator.h **** 
  65:../../DaisySP/Source/Synthesis/oscillator.h ****     /** Sets the amplitude of the waveform.
  66:../../DaisySP/Source/Synthesis/oscillator.h ****     */
  67:../../DaisySP/Source/Synthesis/oscillator.h ****     inline void SetAmp(const float a) { amp_ = a; }
  68:../../DaisySP/Source/Synthesis/oscillator.h ****     /** Sets the waveform to be synthesized by the Process() function.
  69:../../DaisySP/Source/Synthesis/oscillator.h ****     */
  70:../../DaisySP/Source/Synthesis/oscillator.h ****     inline void SetWaveform(const uint8_t wf)
 5992              		.loc 7 70 17 view .LVU1577
 5993              	.LBB1487:
  71:../../DaisySP/Source/Synthesis/oscillator.h ****     {
  72:../../DaisySP/Source/Synthesis/oscillator.h ****         waveform_ = wf < WAVE_LAST ? wf : WAVE_SIN;
 5994              		.loc 7 72 9 view .LVU1578
 5995              		.loc 7 72 19 is_stmt 0 view .LVU1579
 5996 0654 0223     		movs	r3, #2
 5997              	.LVL401:
 5998              	.L395:
 5999              		.loc 7 72 19 view .LVU1580
 6000 0656 3B70     		strb	r3, [r7]
 6001              	.LBE1487:
 6002              	.LBE1486:
 385:Menus.cpp     ****                 for(int i = 0; i < 2; i++)
 6003              		.loc 2 385 17 is_stmt 1 view .LVU1581
 6004              	.LVL402:
ARM GAS  C:\Users\VINCIU~1\AppData\Local\Temp\ccnesEGk.s 			page 161


 385:Menus.cpp     ****                 for(int i = 0; i < 2; i++)
 6005              		.loc 2 385 34 view .LVU1582
 387:Menus.cpp     ****                     selectedWave = setWave;
 6006              		.loc 2 387 21 view .LVU1583
 387:Menus.cpp     ****                     selectedWave = setWave;
 6007              		.loc 2 387 34 is_stmt 0 view .LVU1584
 6008 0658 D5F89021 		ldr	r2, [r5, #400]
 6009 065c C5F89C20 		str	r2, [r5, #156]
 388:Menus.cpp     ****                     osc[0].SetWaveform(osc[0].WAVE_SAW);
 6010              		.loc 2 388 21 is_stmt 1 view .LVU1585
 6011              	.LVL403:
 6012              	.LBB1489:
  70:../../DaisySP/Source/Synthesis/oscillator.h ****     {
 6013              		.loc 7 70 17 view .LVU1586
 6014              	.LBB1488:
 6015              		.loc 7 72 9 view .LVU1587
 6016              		.loc 7 72 19 is_stmt 0 view .LVU1588
 6017 0660 3B70     		strb	r3, [r7]
 6018              	.LVL404:
 6019              		.loc 7 72 19 view .LVU1589
 6020              	.LBE1488:
 6021              	.LBE1489:
 385:Menus.cpp     ****                 for(int i = 0; i < 2; i++)
 6022              		.loc 2 385 17 is_stmt 1 view .LVU1590
 385:Menus.cpp     ****                 for(int i = 0; i < 2; i++)
 6023              		.loc 2 385 34 view .LVU1591
 6024              	.L343:
 385:Menus.cpp     ****                 for(int i = 0; i < 2; i++)
 6025              		.loc 2 385 34 is_stmt 0 view .LVU1592
 6026              	.LBE1485:
 6027              	.LBE1484:
 6028              	.LBE1483:
 6029              	.LBE1482:
 6030              	.LBE1507:
 6031              	.LBE1512:
 6032              	.LBE1562:
 6033              	.LBE1700:
 6034              	.LBE1724:
 6035              	.LBE1779:
 392:Menus.cpp     ****         {
 6036              		.loc 2 392 9 is_stmt 1 view .LVU1593
 6037              	.LBB1780:
 6038              	.LBB1725:
 6039              	.LBB1701:
 6040              	.LBB1563:
 6041              	.LBB1513:
 393:Menus.cpp     ****             if(this->OscSelector == false)
 6042              		.loc 2 393 13 view .LVU1594
 6043              	.LBB1514:
 6044 0662 95F87430 		ldrb	r3, [r5, #116]	@ zero_extendqisi2
 6045 0666 9BB9     		cbnz	r3, .L397
 6046              	.L337:
 6047              	.LBB1515:
 395:Menus.cpp     ****                 if(setWave2 > 3)
 6048              		.loc 2 395 17 view .LVU1595
 403:Menus.cpp     ****                 this->setWave2 += this->encoderRight.Increment();
 6049              		.loc 2 403 17 view .LVU1596
ARM GAS  C:\Users\VINCIU~1\AppData\Local\Temp\ccnesEGk.s 			page 162


 6050              	.LVL405:
 6051              	.LBB1516:
 6052              	.LBI1516:
  41:../../libdaisy/src/hid/encoder.h ****     /** Returns true if the encoder was just pressed.
 6053              		.loc 3 41 20 view .LVU1597
 6054              	.LBB1517:
  41:../../libdaisy/src/hid/encoder.h ****     /** Returns true if the encoder was just pressed.
 6055              		.loc 3 41 40 view .LVU1598
  41:../../libdaisy/src/hid/encoder.h ****     /** Returns true if the encoder was just pressed.
 6056              		.loc 3 41 40 is_stmt 0 view .LVU1599
 6057              	.LBE1517:
 6058              	.LBE1516:
 403:Menus.cpp     ****                 this->setWave2 += this->encoderRight.Increment();
 6059              		.loc 2 403 32 view .LVU1600
 6060 0668 D5F89431 		ldr	r3, [r5, #404]
 6061 066c AA6C     		ldr	r2, [r5, #72]
 6062 066e 83F30203 		usat	r3, #2, r3
 6063 0672 1344     		add	r3, r3, r2
 404:Menus.cpp     ****                 if(setWave2 > 3)
 6064              		.loc 2 404 17 is_stmt 1 view .LVU1601
 6065 0674 032B     		cmp	r3, #3
 6066 0676 79DD     		ble	.L346
 406:Menus.cpp     ****                     this->setWave2 = 3;
 6067              		.loc 2 406 21 view .LVU1602
 406:Menus.cpp     ****                     this->setWave2 = 3;
 6068              		.loc 2 406 36 is_stmt 0 view .LVU1603
 6069 0678 0323     		movs	r3, #3
 6070 067a C5F89431 		str	r3, [r5, #404]
 408:Menus.cpp     ****                 if(this->setWave2 < 0)
 6071              		.loc 2 408 17 is_stmt 1 view .LVU1604
 412:Menus.cpp     ****                 if(this->setWave2 == 0)
 6072              		.loc 2 412 17 view .LVU1605
 6073              	.LBE1515:
 6074              	.LBE1514:
 6075              	.LBE1513:
 6076              	.LBE1563:
 6077              	.LBE1701:
 6078              	.LBE1725:
 6079              	.LBE1780:
 420:Menus.cpp     ****                 else if(setWave2 == 1)
 6080              		.loc 2 420 22 view .LVU1606
 6081              	.L347:
 6082              	.LVL406:
 6083              	.LBB1781:
 6084              	.LBB1726:
 6085              	.LBB1702:
 6086              	.LBB1564:
 6087              	.LBB1549:
 6088              	.LBB1544:
 6089              	.LBB1539:
 6090              	.LBB1518:
 6091              	.LBB1519:
 6092              	.LBB1520:
 6093              	.LBB1521:
 438:Menus.cpp     ****                     for(int i = 0; i < 2; i++)
 6094              		.loc 2 438 38 view .LVU1607
 440:Menus.cpp     ****                         selectedWave2 = setWave2;
ARM GAS  C:\Users\VINCIU~1\AppData\Local\Temp\ccnesEGk.s 			page 163


 6095              		.loc 2 440 25 view .LVU1608
 441:Menus.cpp     ****                         osc[1].SetWaveform(osc[1].WAVE_SAW);
 6096              		.loc 2 441 25 view .LVU1609
 6097              	.LBB1522:
 6098              	.LBI1522:
  70:../../DaisySP/Source/Synthesis/oscillator.h ****     {
 6099              		.loc 7 70 17 view .LVU1610
 6100              	.LBB1523:
 6101              		.loc 7 72 9 view .LVU1611
 6102              		.loc 7 72 19 is_stmt 0 view .LVU1612
 6103 067e 0223     		movs	r3, #2
 6104              	.LVL407:
 6105              	.L396:
 6106              		.loc 7 72 19 view .LVU1613
 6107 0680 87F82830 		strb	r3, [r7, #40]
 6108              	.LBE1523:
 6109              	.LBE1522:
 438:Menus.cpp     ****                     for(int i = 0; i < 2; i++)
 6110              		.loc 2 438 21 is_stmt 1 view .LVU1614
 6111              	.LVL408:
 438:Menus.cpp     ****                     for(int i = 0; i < 2; i++)
 6112              		.loc 2 438 38 view .LVU1615
 440:Menus.cpp     ****                         selectedWave2 = setWave2;
 6113              		.loc 2 440 25 view .LVU1616
 440:Menus.cpp     ****                         selectedWave2 = setWave2;
 6114              		.loc 2 440 39 is_stmt 0 view .LVU1617
 6115 0684 D5F89421 		ldr	r2, [r5, #404]
 6116 0688 C5F8A020 		str	r2, [r5, #160]
 441:Menus.cpp     ****                         osc[1].SetWaveform(osc[1].WAVE_SAW);
 6117              		.loc 2 441 25 is_stmt 1 view .LVU1618
 6118              	.LVL409:
 6119              	.LBB1525:
  70:../../DaisySP/Source/Synthesis/oscillator.h ****     {
 6120              		.loc 7 70 17 view .LVU1619
 6121              	.LBB1524:
 6122              		.loc 7 72 9 view .LVU1620
 6123              		.loc 7 72 19 is_stmt 0 view .LVU1621
 6124 068c 87F82830 		strb	r3, [r7, #40]
 6125              	.LVL410:
 6126              	.L397:
 6127              		.loc 7 72 19 view .LVU1622
 6128              	.LBE1524:
 6129              	.LBE1525:
 438:Menus.cpp     ****                     for(int i = 0; i < 2; i++)
 6130              		.loc 2 438 21 is_stmt 1 view .LVU1623
 438:Menus.cpp     ****                     for(int i = 0; i < 2; i++)
 6131              		.loc 2 438 38 view .LVU1624
 6132              	.LBE1521:
 6133              	.LBE1520:
 6134              	.LBE1519:
 6135              	.LBE1518:
 6136              	.LBE1539:
 6137              	.LBE1544:
 447:Menus.cpp     ****             screen.DrawRect(29,
 6138              		.loc 2 447 28 is_stmt 0 view .LVU1625
 6139 0690 95F8E031 		ldrb	r3, [r5, #480]	@ zero_extendqisi2
 447:Menus.cpp     ****             screen.DrawRect(29,
ARM GAS  C:\Users\VINCIU~1\AppData\Local\Temp\ccnesEGk.s 			page 164


 6140              		.loc 2 447 13 is_stmt 1 view .LVU1626
 447:Menus.cpp     ****             screen.DrawRect(29,
 6141              		.loc 2 447 28 is_stmt 0 view .LVU1627
 6142 0694 0022     		movs	r2, #0
 6143 0696 3F21     		movs	r1, #63
 6144 0698 2046     		mov	r0, r4
 6145 069a CDE90132 		strd	r3, r2, [sp, #4]
 6146 069e 1D22     		movs	r2, #29
 6147 06a0 0091     		str	r1, [sp]
 6148 06a2 3C23     		movs	r3, #60
 6149 06a4 1146     		mov	r1, r2
 6150 06a6 FFF7FEFF 		bl	_ZN5daisy25OneBitGraphicsDisplayImplINS_11OledDisplayINS_13SSD130xDriverILj128ELj64ENS_24SSD130
 6151              	.LVL411:
 6152              	.LBE1549:
 6153 06aa 3DE7     		b	.L304
 6154              	.LVL412:
 6155              	.L284:
 447:Menus.cpp     ****             screen.DrawRect(29,
 6156              		.loc 2 447 28 view .LVU1628
 6157              	.LBE1564:
 6158              	.LBE1702:
 6159              	.LBE1726:
 6160              	.LBE1781:
 199:Menus.cpp     ****             menuState = 3;
 6161              		.loc 2 199 13 is_stmt 1 view .LVU1629
 199:Menus.cpp     ****             menuState = 3;
 6162              		.loc 2 199 23 is_stmt 0 view .LVU1630
 6163 06ac 0323     		movs	r3, #3
 6164 06ae EB66     		str	r3, [r5, #108]
 202:Menus.cpp     ****     if(this->buttonRight.RisingEdge())
 6165              		.loc 2 202 5 is_stmt 1 view .LVU1631
 6166              	.LVL413:
 6167              	.LBB1782:
 6168              		.loc 4 69 17 view .LVU1632
 6169              	.LBB1412:
 6170              		.loc 4 69 38 view .LVU1633
 6171              		.loc 4 69 38 is_stmt 0 view .LVU1634
 6172              	.LBE1412:
 6173              	.LBE1782:
 202:Menus.cpp     ****     if(this->buttonRight.RisingEdge())
 6174              		.loc 2 202 5 view .LVU1635
 6175 06b0 95F86130 		ldrb	r3, [r5, #97]	@ zero_extendqisi2
 6176 06b4 7F2B     		cmp	r3, #127
 6177 06b6 7FF4C2AC 		bne	.L286
 6178 06ba 86E7     		b	.L285
 6179              	.LVL414:
 6180              	.L326:
 6181              	.LBB1783:
 6182              	.LBB1727:
 6183              	.LBB1703:
 6184              	.LBB1692:
 6185              	.LBB1690:
 6186              	.LBB1689:
 6187              	.LBB1677:
 6188              	.LBB1676:
 6189              	.LBB1674:
 6190              	.LBI1674:
ARM GAS  C:\Users\VINCIU~1\AppData\Local\Temp\ccnesEGk.s 			page 165


 239:../../libdaisy/src/dev/oled_ssd130x.h ****     {
 6191              		.loc 5 239 10 is_stmt 1 view .LVU1636
 6192              	.LBB1675:
 246:../../libdaisy/src/dev/oled_ssd130x.h ****     }
 6193              		.loc 5 246 42 is_stmt 0 view .LVU1637
 6194 06bc 02F0FE02 		and	r2, r2, #254
 6195 06c0 0CE7     		b	.L327
 6196              	.LVL415:
 6197              	.L321:
 246:../../libdaisy/src/dev/oled_ssd130x.h ****     }
 6198              		.loc 5 246 42 view .LVU1638
 6199              	.LBE1675:
 6200              	.LBE1674:
 6201              	.LBE1676:
 6202              	.LBE1677:
 6203              	.LBE1689:
 6204              	.LBE1690:
 6205              	.LBE1692:
 6206              	.LBB1693:
 6207              	.LBB1668:
 6208              	.LBB1667:
 6209              	.LBB1649:
 6210              	.LBB1648:
 6211              	.LBB1646:
 6212              	.LBI1646:
 239:../../libdaisy/src/dev/oled_ssd130x.h ****     {
 6213              		.loc 5 239 10 is_stmt 1 view .LVU1639
 6214              	.LBB1647:
 246:../../libdaisy/src/dev/oled_ssd130x.h ****     }
 6215              		.loc 5 246 42 is_stmt 0 view .LVU1640
 6216 06c2 02F0DF02 		and	r2, r2, #223
 6217 06c6 ECE6     		b	.L322
 6218              	.LVL416:
 6219              	.L316:
 246:../../libdaisy/src/dev/oled_ssd130x.h ****     }
 6220              		.loc 5 246 42 view .LVU1641
 6221              	.LBE1647:
 6222              	.LBE1646:
 6223              	.LBE1648:
 6224              	.LBE1649:
 6225              	.LBE1667:
 6226              	.LBE1668:
 6227              	.LBE1693:
 6228              	.LBB1694:
 6229              	.LBB1639:
 6230              	.LBB1637:
 6231              	.LBB1609:
 6232              	.LBB1608:
 6233              	.LBB1606:
 6234              	.LBI1606:
 239:../../libdaisy/src/dev/oled_ssd130x.h ****     {
 6235              		.loc 5 239 10 is_stmt 1 view .LVU1642
 6236              	.LBB1607:
 246:../../libdaisy/src/dev/oled_ssd130x.h ****     }
 6237              		.loc 5 246 42 is_stmt 0 view .LVU1643
 6238 06c8 02F0DF02 		and	r2, r2, #223
 6239 06cc C5E6     		b	.L317
ARM GAS  C:\Users\VINCIU~1\AppData\Local\Temp\ccnesEGk.s 			page 166


 6240              	.LVL417:
 6241              	.L405:
 246:../../libdaisy/src/dev/oled_ssd130x.h ****     }
 6242              		.loc 5 246 42 view .LVU1644
 6243              	.LBE1607:
 6244              	.LBE1606:
 6245              	.LBE1608:
 6246              	.LBE1609:
 6247              	.LBE1637:
 6248              	.LBE1639:
 6249              	.LBE1694:
 6250              	.LBE1703:
 6251              	.LBB1704:
 315:Menus.cpp     ****         if(this->OscSelector == true)
 6252              		.loc 2 315 9 is_stmt 1 view .LVU1645
 6253 06ce 95F87420 		ldrb	r2, [r5, #116]	@ zero_extendqisi2
 6254 06d2 FAB1     		cbz	r2, .L332
 318:Menus.cpp     ****             if(this->encoderRight.Increment() == 1)
 6255              		.loc 2 318 13 view .LVU1646
 6256              	.LVL418:
 6257              	.LBB1565:
 6258              	.LBI1565:
  41:../../libdaisy/src/hid/encoder.h ****     /** Returns true if the encoder was just pressed.
 6259              		.loc 3 41 20 view .LVU1647
 6260              	.LBB1566:
  41:../../libdaisy/src/hid/encoder.h ****     /** Returns true if the encoder was just pressed.
 6261              		.loc 3 41 40 view .LVU1648
  41:../../libdaisy/src/hid/encoder.h ****     /** Returns true if the encoder was just pressed.
 6262              		.loc 3 41 47 is_stmt 0 view .LVU1649
 6263 06d4 AA6C     		ldr	r2, [r5, #72]
 6264              	.LVL419:
  41:../../libdaisy/src/hid/encoder.h ****     /** Returns true if the encoder was just pressed.
 6265              		.loc 3 41 47 view .LVU1650
 6266              	.LBE1566:
 6267              	.LBE1565:
 318:Menus.cpp     ****             if(this->encoderRight.Increment() == 1)
 6268              		.loc 2 318 13 view .LVU1651
 6269 06d6 012A     		cmp	r2, #1
 6270 06d8 30D0     		beq	.L419
 323:Menus.cpp     ****             if(this->encoderRight.Increment() == -1)
 6271              		.loc 2 323 13 is_stmt 1 view .LVU1652
 6272              	.LVL420:
 323:Menus.cpp     ****             if(this->encoderRight.Increment() == -1)
 6273              		.loc 2 323 13 is_stmt 0 view .LVU1653
 6274              	.LBE1704:
 6275              	.LBE1727:
 6276              	.LBE1783:
  41:../../libdaisy/src/hid/encoder.h ****     /** Returns true if the encoder was just pressed.
 6277              		.loc 3 41 40 is_stmt 1 view .LVU1654
 6278              	.LBB1784:
 6279              	.LBB1728:
 6280              	.LBB1705:
 323:Menus.cpp     ****             if(this->encoderRight.Increment() == -1)
 6281              		.loc 2 323 13 is_stmt 0 view .LVU1655
 6282 06da 0132     		adds	r2, r2, #1
 6283 06dc 23D1     		bne	.L334
 325:Menus.cpp     ****                 synthOn         = 0;
ARM GAS  C:\Users\VINCIU~1\AppData\Local\Temp\ccnesEGk.s 			page 167


 6284              		.loc 2 325 17 is_stmt 1 view .LVU1656
 326:Menus.cpp     ****                 this->toggleOsc = true;
 6285              		.loc 2 326 33 is_stmt 0 view .LVU1657
 6286 06de 85F89830 		strb	r3, [r5, #152]
 325:Menus.cpp     ****                 synthOn         = 0;
 6287              		.loc 2 325 33 view .LVU1658
 6288 06e2 0023     		movs	r3, #0
 6289 06e4 C5F86C31 		str	r3, [r5, #364]
 326:Menus.cpp     ****                 this->toggleOsc = true;
 6290              		.loc 2 326 17 is_stmt 1 view .LVU1659
 6291 06e8 1DE0     		b	.L334
 6292              	.L369:
 326:Menus.cpp     ****                 this->toggleOsc = true;
 6293              		.loc 2 326 17 is_stmt 0 view .LVU1660
 6294              	.LBE1705:
 6295 06ea B0EE667A 		vmov.f32	s14, s13
 6296 06ee 73E6     		b	.L310
 6297              	.L367:
 326:Menus.cpp     ****                 this->toggleOsc = true;
 6298              		.loc 2 326 17 view .LVU1661
 6299 06f0 DFED057A 		vldr.32	s15, .L425+12
 6300 06f4 5FE6     		b	.L309
 6301              	.L365:
 326:Menus.cpp     ****                 this->toggleOsc = true;
 6302              		.loc 2 326 17 view .LVU1662
 6303 06f6 F0EE477A 		vmov.f32	s15, s14
 6304 06fa 81E7     		b	.L307
 6305              	.L426:
 6306              		.align	2
 6307              	.L425:
 6308 06fc 08000000 		.word	.LC6
 6309 0700 00002042 		.word	1109393408
 6310 0704 00000000 		.word	0
 6311 0708 00000042 		.word	1107296256
 6312 070c 0000003D 		.word	1023410176
 6313 0710 0000C842 		.word	1120403456
 6314              	.L332:
 6315              	.LBB1706:
 331:Menus.cpp     ****             if(this->encoderRight.Increment() == 1)
 6316              		.loc 2 331 13 is_stmt 1 view .LVU1663
 6317              	.LVL421:
 6318              	.LBB1567:
 6319              	.LBI1567:
  41:../../libdaisy/src/hid/encoder.h ****     /** Returns true if the encoder was just pressed.
 6320              		.loc 3 41 20 view .LVU1664
 6321              	.LBB1568:
  41:../../libdaisy/src/hid/encoder.h ****     /** Returns true if the encoder was just pressed.
 6322              		.loc 3 41 40 view .LVU1665
  41:../../libdaisy/src/hid/encoder.h ****     /** Returns true if the encoder was just pressed.
 6323              		.loc 3 41 47 is_stmt 0 view .LVU1666
 6324 0714 A96C     		ldr	r1, [r5, #72]
 6325              	.LVL422:
  41:../../libdaisy/src/hid/encoder.h ****     /** Returns true if the encoder was just pressed.
 6326              		.loc 3 41 47 view .LVU1667
 6327              	.LBE1568:
 6328              	.LBE1567:
 331:Menus.cpp     ****             if(this->encoderRight.Increment() == 1)
ARM GAS  C:\Users\VINCIU~1\AppData\Local\Temp\ccnesEGk.s 			page 168


 6329              		.loc 2 331 13 view .LVU1668
 6330 0716 0129     		cmp	r1, #1
 6331 0718 16D0     		beq	.L420
 336:Menus.cpp     ****             if(this->encoderRight.Increment() == -1)
 6332              		.loc 2 336 13 is_stmt 1 view .LVU1669
 6333              	.LVL423:
 336:Menus.cpp     ****             if(this->encoderRight.Increment() == -1)
 6334              		.loc 2 336 13 is_stmt 0 view .LVU1670
 6335              	.LBE1706:
 6336              	.LBE1728:
 6337              	.LBE1784:
  41:../../libdaisy/src/hid/encoder.h ****     /** Returns true if the encoder was just pressed.
 6338              		.loc 3 41 40 is_stmt 1 view .LVU1671
 6339              	.LBB1785:
 6340              	.LBB1729:
 6341              	.LBB1707:
 336:Menus.cpp     ****             if(this->encoderRight.Increment() == -1)
 6342              		.loc 2 336 13 is_stmt 0 view .LVU1672
 6343 071a 0131     		adds	r1, r1, #1
 6344 071c 03D1     		bne	.L334
 338:Menus.cpp     ****                 synthOn2         = 0;
 6345              		.loc 2 338 17 is_stmt 1 view .LVU1673
 338:Menus.cpp     ****                 synthOn2         = 0;
 6346              		.loc 2 338 34 is_stmt 0 view .LVU1674
 6347 071e C5F87021 		str	r2, [r5, #368]
 339:Menus.cpp     ****                 this->toggleOsc2 = true;
 6348              		.loc 2 339 17 is_stmt 1 view .LVU1675
 339:Menus.cpp     ****                 this->toggleOsc2 = true;
 6349              		.loc 2 339 34 is_stmt 0 view .LVU1676
 6350 0722 85F89930 		strb	r3, [r5, #153]
 6351              	.L334:
 343:Menus.cpp     ****         screen.DrawRect(
 6352              		.loc 2 343 9 is_stmt 1 view .LVU1677
 343:Menus.cpp     ****         screen.DrawRect(
 6353              		.loc 2 343 24 is_stmt 0 view .LVU1678
 6354 0726 3F23     		movs	r3, #63
 6355 0728 0021     		movs	r1, #0
 6356 072a 0093     		str	r3, [sp]
 6357 072c 1D23     		movs	r3, #29
 6358 072e CDE90101 		strd	r0, r1, [sp, #4]
 6359 0732 1A46     		mov	r2, r3
 6360 0734 2046     		mov	r0, r4
 6361 0736 FFF7FEFF 		bl	_ZN5daisy25OneBitGraphicsDisplayImplINS_11OledDisplayINS_13SSD130xDriverILj128ELj64ENS_24SSD130
 6362              	.LVL424:
 6363 073a F5E6     		b	.L304
 6364              	.L419:
 320:Menus.cpp     ****                 synthOn         = 1;
 6365              		.loc 2 320 17 is_stmt 1 view .LVU1679
 321:Menus.cpp     ****                 this->toggleOsc = false;
 6366              		.loc 2 321 33 is_stmt 0 view .LVU1680
 6367 073c 0023     		movs	r3, #0
 320:Menus.cpp     ****                 synthOn         = 1;
 6368              		.loc 2 320 33 view .LVU1681
 6369 073e C5F86C21 		str	r2, [r5, #364]
 321:Menus.cpp     ****                 this->toggleOsc = false;
 6370              		.loc 2 321 17 is_stmt 1 view .LVU1682
 321:Menus.cpp     ****                 this->toggleOsc = false;
ARM GAS  C:\Users\VINCIU~1\AppData\Local\Temp\ccnesEGk.s 			page 169


 6371              		.loc 2 321 33 is_stmt 0 view .LVU1683
 6372 0742 85F89830 		strb	r3, [r5, #152]
 323:Menus.cpp     ****             if(this->encoderRight.Increment() == -1)
 6373              		.loc 2 323 13 is_stmt 1 view .LVU1684
 6374              	.LVL425:
 323:Menus.cpp     ****             if(this->encoderRight.Increment() == -1)
 6375              		.loc 2 323 13 is_stmt 0 view .LVU1685
 6376              	.LBE1707:
 6377              	.LBE1729:
 6378              	.LBE1785:
  41:../../libdaisy/src/hid/encoder.h ****     /** Returns true if the encoder was just pressed.
 6379              		.loc 3 41 40 is_stmt 1 view .LVU1686
  41:../../libdaisy/src/hid/encoder.h ****     /** Returns true if the encoder was just pressed.
 6380              		.loc 3 41 40 is_stmt 0 view .LVU1687
 6381 0746 EEE7     		b	.L334
 6382              	.L420:
 6383              	.LBB1786:
 6384              	.LBB1730:
 6385              	.LBB1708:
 333:Menus.cpp     ****                 synthOn2         = 1;
 6386              		.loc 2 333 17 is_stmt 1 view .LVU1688
 333:Menus.cpp     ****                 synthOn2         = 1;
 6387              		.loc 2 333 34 is_stmt 0 view .LVU1689
 6388 0748 C5F87011 		str	r1, [r5, #368]
 334:Menus.cpp     ****                 this->toggleOsc2 = false;
 6389              		.loc 2 334 17 is_stmt 1 view .LVU1690
 334:Menus.cpp     ****                 this->toggleOsc2 = false;
 6390              		.loc 2 334 34 is_stmt 0 view .LVU1691
 6391 074c 85F89920 		strb	r2, [r5, #153]
 336:Menus.cpp     ****             if(this->encoderRight.Increment() == -1)
 6392              		.loc 2 336 13 is_stmt 1 view .LVU1692
 6393              	.LVL426:
 336:Menus.cpp     ****             if(this->encoderRight.Increment() == -1)
 6394              		.loc 2 336 13 is_stmt 0 view .LVU1693
 6395              	.LBE1708:
 6396              	.LBE1730:
 6397              	.LBE1786:
  41:../../libdaisy/src/hid/encoder.h ****     /** Returns true if the encoder was just pressed.
 6398              		.loc 3 41 40 is_stmt 1 view .LVU1694
  41:../../libdaisy/src/hid/encoder.h ****     /** Returns true if the encoder was just pressed.
 6399              		.loc 3 41 40 is_stmt 0 view .LVU1695
 6400 0750 E9E7     		b	.L334
 6401              	.L338:
 6402              	.LBB1787:
 6403              	.LBB1731:
 6404              	.LBB1709:
 6405              	.LBB1569:
 6406              	.LBB1550:
 6407              	.LBB1508:
 355:Menus.cpp     ****             if(this->setWave < 0)
 6408              		.loc 2 355 13 is_stmt 1 view .LVU1696
 6409 0752 002B     		cmp	r3, #0
 6410 0754 68DA     		bge	.L340
 357:Menus.cpp     ****                 this->setWave = 0;
 6411              		.loc 2 357 17 view .LVU1697
 357:Menus.cpp     ****                 this->setWave = 0;
 6412              		.loc 2 357 31 is_stmt 0 view .LVU1698
ARM GAS  C:\Users\VINCIU~1\AppData\Local\Temp\ccnesEGk.s 			page 170


 6413 0756 0023     		movs	r3, #0
 6414 0758 C5F89031 		str	r3, [r5, #400]
 359:Menus.cpp     ****             if(this->setWave == 0)
 6415              		.loc 2 359 13 is_stmt 1 view .LVU1699
 6416              	.L341:
 6417              	.LVL427:
 6418              	.LBB1503:
 6419              	.LBB1496:
 361:Menus.cpp     ****                 for(int i = 0; i < 2; i++)
 6420              		.loc 2 361 34 view .LVU1700
 363:Menus.cpp     ****                     selectedWave = setWave;
 6421              		.loc 2 363 21 view .LVU1701
 364:Menus.cpp     ****                     osc[0].SetWaveform(osc[0].WAVE_SIN);
 6422              		.loc 2 364 21 view .LVU1702
 6423              	.LBB1497:
 6424              	.LBI1497:
  70:../../DaisySP/Source/Synthesis/oscillator.h ****     {
 6425              		.loc 7 70 17 view .LVU1703
 6426              	.LBB1498:
 6427              		.loc 7 72 9 view .LVU1704
 6428              		.loc 7 72 19 is_stmt 0 view .LVU1705
 6429 075c 0023     		movs	r3, #0
 6430 075e 3B70     		strb	r3, [r7]
 6431              	.LVL428:
 6432              		.loc 7 72 19 view .LVU1706
 6433              	.LBE1498:
 6434              	.LBE1497:
 361:Menus.cpp     ****                 for(int i = 0; i < 2; i++)
 6435              		.loc 2 361 17 is_stmt 1 view .LVU1707
 361:Menus.cpp     ****                 for(int i = 0; i < 2; i++)
 6436              		.loc 2 361 34 view .LVU1708
 363:Menus.cpp     ****                     selectedWave = setWave;
 6437              		.loc 2 363 21 view .LVU1709
 363:Menus.cpp     ****                     selectedWave = setWave;
 6438              		.loc 2 363 34 is_stmt 0 view .LVU1710
 6439 0760 D5F89021 		ldr	r2, [r5, #400]
 6440 0764 C5F89C20 		str	r2, [r5, #156]
 364:Menus.cpp     ****                     osc[0].SetWaveform(osc[0].WAVE_SIN);
 6441              		.loc 2 364 21 is_stmt 1 view .LVU1711
 6442              	.LVL429:
 6443              	.LBB1500:
  70:../../DaisySP/Source/Synthesis/oscillator.h ****     {
 6444              		.loc 7 70 17 view .LVU1712
 6445              	.LBB1499:
 6446              		.loc 7 72 9 view .LVU1713
 6447              		.loc 7 72 19 is_stmt 0 view .LVU1714
 6448 0768 3B70     		strb	r3, [r7]
 6449              	.LVL430:
 6450              		.loc 7 72 19 view .LVU1715
 6451              	.LBE1499:
 6452              	.LBE1500:
 361:Menus.cpp     ****                 for(int i = 0; i < 2; i++)
 6453              		.loc 2 361 17 is_stmt 1 view .LVU1716
 361:Menus.cpp     ****                 for(int i = 0; i < 2; i++)
 6454              		.loc 2 361 34 view .LVU1717
 6455 076a 7AE7     		b	.L343
 6456              	.LVL431:
ARM GAS  C:\Users\VINCIU~1\AppData\Local\Temp\ccnesEGk.s 			page 171


 6457              	.L346:
 361:Menus.cpp     ****                 for(int i = 0; i < 2; i++)
 6458              		.loc 2 361 34 is_stmt 0 view .LVU1718
 6459              	.LBE1496:
 6460              	.LBE1503:
 6461              	.LBE1508:
 6462              	.LBE1550:
 6463              	.LBB1551:
 6464              	.LBB1545:
 6465              	.LBB1540:
 408:Menus.cpp     ****                 if(this->setWave2 < 0)
 6466              		.loc 2 408 17 is_stmt 1 view .LVU1719
 6467 076c 002B     		cmp	r3, #0
 6468 076e 6CDA     		bge	.L348
 410:Menus.cpp     ****                     this->setWave2 = 0;
 6469              		.loc 2 410 21 view .LVU1720
 410:Menus.cpp     ****                     this->setWave2 = 0;
 6470              		.loc 2 410 36 is_stmt 0 view .LVU1721
 6471 0770 0023     		movs	r3, #0
 6472 0772 C5F89431 		str	r3, [r5, #404]
 412:Menus.cpp     ****                 if(this->setWave2 == 0)
 6473              		.loc 2 412 17 is_stmt 1 view .LVU1722
 6474              	.L349:
 6475              	.LVL432:
 6476              	.LBB1535:
 6477              	.LBB1530:
 414:Menus.cpp     ****                     for(int i = 0; i < 2; i++)
 6478              		.loc 2 414 38 view .LVU1723
 416:Menus.cpp     ****                         selectedWave2 = setWave2;
 6479              		.loc 2 416 25 view .LVU1724
 417:Menus.cpp     ****                         osc[1].SetWaveform(osc[1].WAVE_SIN);
 6480              		.loc 2 417 25 view .LVU1725
 6481              	.LBB1531:
 6482              	.LBI1531:
  70:../../DaisySP/Source/Synthesis/oscillator.h ****     {
 6483              		.loc 7 70 17 view .LVU1726
 6484              	.LBB1532:
 6485              		.loc 7 72 9 view .LVU1727
 6486              		.loc 7 72 19 is_stmt 0 view .LVU1728
 6487 0776 0023     		movs	r3, #0
 6488 0778 82E7     		b	.L396
 6489              	.LVL433:
 6490              	.L353:
 6491              		.loc 7 72 19 view .LVU1729
 6492              	.LBE1532:
 6493              	.LBE1531:
 6494              	.LBE1530:
 6495              	.LBE1535:
 6496              	.LBE1540:
 6497              	.LBE1545:
 6498              	.LBE1551:
 489:Menus.cpp     ****             if(this->freqFine2 > 1)
 6499              		.loc 2 489 13 is_stmt 1 view .LVU1730
 489:Menus.cpp     ****             if(this->freqFine2 > 1)
 6500              		.loc 2 489 22 is_stmt 0 view .LVU1731
 6501 077a D5ED5E7A 		vldr.32	s15, [r5, #376]
 489:Menus.cpp     ****             if(this->freqFine2 > 1)
ARM GAS  C:\Users\VINCIU~1\AppData\Local\Temp\ccnesEGk.s 			page 172


 6502              		.loc 2 489 13 view .LVU1732
 6503 077e F4EEC77A 		vcmpe.f32	s15, s14
 6504 0782 F1EE10FA 		vmrs	APSR_nzcv, FPSCR
 6505 0786 35DD     		ble	.L421
 6506 0788 F0EE477A 		vmov.f32	s15, s14
 6507              	.L357:
 497:Menus.cpp     ****             if(this->drawSliderFine2 >= 1)
 6508              		.loc 2 497 13 is_stmt 1 view .LVU1733
 6509 078c F7EE006A 		vmov.f32	s13, #1.0e+0
 497:Menus.cpp     ****             if(this->drawSliderFine2 >= 1)
 6510              		.loc 2 497 22 is_stmt 0 view .LVU1734
 6511 0790 95ED217A 		vldr.32	s14, [r5, #132]
 497:Menus.cpp     ****             if(this->drawSliderFine2 >= 1)
 6512              		.loc 2 497 13 view .LVU1735
 6513 0794 B4EEE67A 		vcmpe.f32	s14, s13
 6514 0798 F1EE10FA 		vmrs	APSR_nzcv, FPSCR
 6515 079c 22DB     		blt	.L422
 6516 079e B0EE667A 		vmov.f32	s14, s13
 6517              	.L358:
 506:Menus.cpp     ****             this->freqFine2 += (((float)this->encoderRight.Increment()) / 32);
 6518              		.loc 2 506 13 is_stmt 1 view .LVU1736
 6519              	.LVL434:
 6520              	.LBB1552:
 6521              	.LBI1552:
  41:../../libdaisy/src/hid/encoder.h ****     /** Returns true if the encoder was just pressed.
 6522              		.loc 3 41 20 view .LVU1737
 6523              	.LBB1553:
  41:../../libdaisy/src/hid/encoder.h ****     /** Returns true if the encoder was just pressed.
 6524              		.loc 3 41 40 view .LVU1738
  41:../../libdaisy/src/hid/encoder.h ****     /** Returns true if the encoder was just pressed.
 6525              		.loc 3 41 40 is_stmt 0 view .LVU1739
 6526              	.LBE1553:
 6527              	.LBE1552:
 506:Menus.cpp     ****             this->freqFine2 += (((float)this->encoderRight.Increment()) / 32);
 6528              		.loc 2 506 34 view .LVU1740
 6529 07a2 D5ED126A 		vldr.32	s13, [r5, #72]	@ int
 509:Menus.cpp     ****             sprintf(this->buffFine2, "Fine_%d%%", (int)(freqFine2 * 100));
 6530              		.loc 2 509 20 view .LVU1741
 6531 07a6 05F1EC00 		add	r0, r5, #236
 506:Menus.cpp     ****             this->freqFine2 += (((float)this->encoderRight.Increment()) / 32);
 6532              		.loc 2 506 29 view .LVU1742
 6533 07aa 5FED285A 		vldr.32	s11, .L425+16
 506:Menus.cpp     ****             this->freqFine2 += (((float)this->encoderRight.Increment()) / 32);
 6534              		.loc 2 506 34 view .LVU1743
 6535 07ae F8EEE66A 		vcvt.f32.s32	s13, s13
 509:Menus.cpp     ****             sprintf(this->buffFine2, "Fine_%d%%", (int)(freqFine2 * 100));
 6536              		.loc 2 509 67 view .LVU1744
 6537 07b2 1FED296A 		vldr.32	s12, .L425+20
 509:Menus.cpp     ****             sprintf(this->buffFine2, "Fine_%d%%", (int)(freqFine2 * 100));
 6538              		.loc 2 509 20 view .LVU1745
 6539 07b6 2A49     		ldr	r1, .L427
 506:Menus.cpp     ****             this->freqFine2 += (((float)this->encoderRight.Increment()) / 32);
 6540              		.loc 2 506 29 view .LVU1746
 6541 07b8 E6EEA57A 		vfma.f32	s15, s13, s11
 508:Menus.cpp     ****                 += (((float)this->encoderRight.Increment()) / 32);
 6542              		.loc 2 508 17 view .LVU1747
 6543 07bc A6EEA57A 		vfma.f32	s14, s13, s11
ARM GAS  C:\Users\VINCIU~1\AppData\Local\Temp\ccnesEGk.s 			page 173


 509:Menus.cpp     ****             sprintf(this->buffFine2, "Fine_%d%%", (int)(freqFine2 * 100));
 6544              		.loc 2 509 67 view .LVU1748
 6545 07c0 67EE866A 		vmul.f32	s13, s15, s12
 506:Menus.cpp     ****             this->freqFine2 += (((float)this->encoderRight.Increment()) / 32);
 6546              		.loc 2 506 29 view .LVU1749
 6547 07c4 C5ED5E7A 		vstr.32	s15, [r5, #376]
 507:Menus.cpp     ****             this->drawSliderFine2
 6548              		.loc 2 507 13 is_stmt 1 view .LVU1750
 6549              	.LVL435:
 507:Menus.cpp     ****             this->drawSliderFine2
 6550              		.loc 2 507 13 is_stmt 0 view .LVU1751
 6551              	.LBE1569:
 6552              	.LBE1709:
 6553              	.LBE1731:
 6554              	.LBE1787:
  41:../../libdaisy/src/hid/encoder.h ****     /** Returns true if the encoder was just pressed.
 6555              		.loc 3 41 40 is_stmt 1 view .LVU1752
 6556              	.LBB1788:
 6557              	.LBB1732:
 6558              	.LBB1710:
 6559              	.LBB1570:
 508:Menus.cpp     ****                 += (((float)this->encoderRight.Increment()) / 32);
 6560              		.loc 2 508 17 is_stmt 0 view .LVU1753
 6561 07c8 85ED217A 		vstr.32	s14, [r5, #132]
 509:Menus.cpp     ****             sprintf(this->buffFine2, "Fine_%d%%", (int)(freqFine2 * 100));
 6562              		.loc 2 509 13 is_stmt 1 view .LVU1754
 509:Menus.cpp     ****             sprintf(this->buffFine2, "Fine_%d%%", (int)(freqFine2 * 100));
 6563              		.loc 2 509 20 is_stmt 0 view .LVU1755
 6564 07cc FDEEE67A 		vcvt.s32.f32	s15, s13
 6565 07d0 17EE902A 		vmov	r2, s15	@ int
 6566 07d4 FFF7FEFF 		bl	sprintf
 6567              	.LVL436:
 6568 07d8 45E5     		b	.L356
 6569              	.L410:
 509:Menus.cpp     ****             sprintf(this->buffFine2, "Fine_%d%%", (int)(freqFine2 * 100));
 6570              		.loc 2 509 20 view .LVU1756
 6571              	.LBE1570:
 6572              	.LBE1710:
 303:Menus.cpp     ****             this->noteSemiAdd2 += (float)this->encoderRight.Increment();
 6573              		.loc 2 303 32 view .LVU1757
 6574 07da 07EE903A 		vmov	s15, r3	@ int
 6575 07de F8EEE77A 		vcvt.f32.s32	s15, s15
 6576 07e2 E8E5     		b	.L309
 6577              	.L422:
 6578              	.LBB1711:
 6579              	.LBB1571:
 501:Menus.cpp     ****             if(this->drawSliderFine2 < 0)
 6580              		.loc 2 501 13 is_stmt 1 view .LVU1758
 6581 07e4 B5EEC07A 		vcmpe.f32	s14, #0
 6582 07e8 F1EE10FA 		vmrs	APSR_nzcv, FPSCR
 6583 07ec D9D5     		bpl	.L358
 6584 07ee 9FED1D7A 		vldr.32	s14, .L427+4
 6585 07f2 D6E7     		b	.L358
 6586              	.L421:
 493:Menus.cpp     ****             if(this->freqFine2 < 0)
 6587              		.loc 2 493 13 view .LVU1759
 6588 07f4 F5EEC07A 		vcmpe.f32	s15, #0
ARM GAS  C:\Users\VINCIU~1\AppData\Local\Temp\ccnesEGk.s 			page 174


 6589 07f8 F1EE10FA 		vmrs	APSR_nzcv, FPSCR
 6590 07fc C6D5     		bpl	.L357
 6591 07fe DFED197A 		vldr.32	s15, .L427+4
 6592 0802 C3E7     		b	.L357
 6593              	.L408:
 477:Menus.cpp     ****             if(this->drawSliderFine < 0)
 6594              		.loc 2 477 13 view .LVU1760
 6595 0804 B5EEC07A 		vcmpe.f32	s14, #0
 6596 0808 F1EE10FA 		vmrs	APSR_nzcv, FPSCR
 6597 080c 7FF510AD 		bpl	.L355
 6598 0810 9FED147A 		vldr.32	s14, .L427+4
 6599 0814 0CE5     		b	.L355
 6600              	.L407:
 469:Menus.cpp     ****             if(this->freqFine < 0)
 6601              		.loc 2 469 13 view .LVU1761
 6602 0816 F5EEC07A 		vcmpe.f32	s15, #0
 6603 081a F1EE10FA 		vmrs	APSR_nzcv, FPSCR
 6604 081e 7FF5FBAC 		bpl	.L354
 6605 0822 DFED107A 		vldr.32	s15, .L427+4
 6606 0826 F7E4     		b	.L354
 6607              	.L340:
 6608              	.LBB1554:
 6609              	.LBB1509:
 350:Menus.cpp     ****             this->setWave += this->encoderRight.Increment();
 6610              		.loc 2 350 27 is_stmt 0 view .LVU1762
 6611 0828 C5F89031 		str	r3, [r5, #400]
 359:Menus.cpp     ****             if(this->setWave == 0)
 6612              		.loc 2 359 13 is_stmt 1 view .LVU1763
 6613              	.LBB1504:
 6614 082c 96D0     		beq	.L341
 6615              	.LBE1504:
 6616              	.LBE1509:
 6617              	.LBE1554:
 6618              	.LBE1571:
 6619              	.LBE1711:
 6620              	.LBE1732:
 6621              	.LBE1788:
 367:Menus.cpp     ****             else if(setWave == 1)
 6622              		.loc 2 367 18 view .LVU1764
 6623              	.LBB1789:
 6624              	.LBB1733:
 6625              	.LBB1712:
 6626              	.LBB1572:
 6627              	.LBB1555:
 6628              	.LBB1510:
 6629              	.LBB1505:
 6630              	.LBB1501:
 6631 082e 012B     		cmp	r3, #1
 6632 0830 3FF411AF 		beq	.L395
 6633              	.LBE1501:
 6634              	.LBE1505:
 6635              	.LBE1510:
 6636              	.LBE1555:
 6637              	.LBE1572:
 6638              	.LBE1712:
 6639              	.LBE1733:
 6640              	.LBE1789:
ARM GAS  C:\Users\VINCIU~1\AppData\Local\Temp\ccnesEGk.s 			page 175


 375:Menus.cpp     ****             else if(setWave == 2)
 6641              		.loc 2 375 18 view .LVU1765
 6642              	.LBB1790:
 6643              	.LBB1734:
 6644              	.LBB1713:
 6645              	.LBB1573:
 6646              	.LBB1556:
 6647              	.LBB1511:
 6648              	.LBB1506:
 6649              	.LBB1502:
 6650              	.LBB1495:
 6651 0834 022B     		cmp	r3, #2
 6652 0836 7FF40DAF 		bne	.L339
 6653              	.LVL437:
 6654              	.LBB1490:
 377:Menus.cpp     ****                 for(int i = 0; i < 2; i++)
 6655              		.loc 2 377 34 view .LVU1766
 379:Menus.cpp     ****                     selectedWave = setWave;
 6656              		.loc 2 379 21 view .LVU1767
 380:Menus.cpp     ****                     osc[0].SetWaveform(osc[0].WAVE_SQUARE);
 6657              		.loc 2 380 21 view .LVU1768
 6658              	.LBB1491:
 6659              	.LBI1491:
  70:../../DaisySP/Source/Synthesis/oscillator.h ****     {
 6660              		.loc 7 70 17 view .LVU1769
 6661              	.LBB1492:
 6662              		.loc 7 72 9 view .LVU1770
 6663              		.loc 7 72 19 is_stmt 0 view .LVU1771
 6664 083a 0423     		movs	r3, #4
 6665 083c 3B70     		strb	r3, [r7]
 6666              	.LVL438:
 6667              		.loc 7 72 19 view .LVU1772
 6668              	.LBE1492:
 6669              	.LBE1491:
 377:Menus.cpp     ****                 for(int i = 0; i < 2; i++)
 6670              		.loc 2 377 17 is_stmt 1 view .LVU1773
 377:Menus.cpp     ****                 for(int i = 0; i < 2; i++)
 6671              		.loc 2 377 34 view .LVU1774
 379:Menus.cpp     ****                     selectedWave = setWave;
 6672              		.loc 2 379 21 view .LVU1775
 379:Menus.cpp     ****                     selectedWave = setWave;
 6673              		.loc 2 379 34 is_stmt 0 view .LVU1776
 6674 083e D5F89021 		ldr	r2, [r5, #400]
 6675 0842 C5F89C20 		str	r2, [r5, #156]
 380:Menus.cpp     ****                     osc[0].SetWaveform(osc[0].WAVE_SQUARE);
 6676              		.loc 2 380 21 is_stmt 1 view .LVU1777
 6677              	.LVL439:
 6678              	.LBB1494:
  70:../../DaisySP/Source/Synthesis/oscillator.h ****     {
 6679              		.loc 7 70 17 view .LVU1778
 6680              	.LBB1493:
 6681              		.loc 7 72 9 view .LVU1779
 6682              		.loc 7 72 19 is_stmt 0 view .LVU1780
 6683 0846 3B70     		strb	r3, [r7]
 6684              	.LVL440:
 6685              		.loc 7 72 19 view .LVU1781
 6686              	.LBE1493:
ARM GAS  C:\Users\VINCIU~1\AppData\Local\Temp\ccnesEGk.s 			page 176


 6687              	.LBE1494:
 377:Menus.cpp     ****                 for(int i = 0; i < 2; i++)
 6688              		.loc 2 377 17 is_stmt 1 view .LVU1782
 377:Menus.cpp     ****                 for(int i = 0; i < 2; i++)
 6689              		.loc 2 377 34 view .LVU1783
 6690 0848 0BE7     		b	.L343
 6691              	.LVL441:
 6692              	.L348:
 377:Menus.cpp     ****                 for(int i = 0; i < 2; i++)
 6693              		.loc 2 377 34 is_stmt 0 view .LVU1784
 6694              	.LBE1490:
 6695              	.LBE1495:
 6696              	.LBE1502:
 6697              	.LBE1506:
 6698              	.LBE1511:
 6699              	.LBE1556:
 6700              	.LBB1557:
 6701              	.LBB1546:
 6702              	.LBB1541:
 403:Menus.cpp     ****                 this->setWave2 += this->encoderRight.Increment();
 6703              		.loc 2 403 32 view .LVU1785
 6704 084a C5F89431 		str	r3, [r5, #404]
 412:Menus.cpp     ****                 if(this->setWave2 == 0)
 6705              		.loc 2 412 17 is_stmt 1 view .LVU1786
 6706              	.LBB1536:
 6707 084e 92D0     		beq	.L349
 6708              	.LBE1536:
 6709              	.LBE1541:
 6710              	.LBE1546:
 6711              	.LBE1557:
 6712              	.LBE1573:
 6713              	.LBE1713:
 6714              	.LBE1734:
 6715              	.LBE1790:
 420:Menus.cpp     ****                 else if(setWave2 == 1)
 6716              		.loc 2 420 22 view .LVU1787
 6717              	.LBB1791:
 6718              	.LBB1735:
 6719              	.LBB1714:
 6720              	.LBB1574:
 6721              	.LBB1558:
 6722              	.LBB1547:
 6723              	.LBB1542:
 6724              	.LBB1537:
 6725              	.LBB1533:
 6726 0850 012B     		cmp	r3, #1
 6727 0852 3FF415AF 		beq	.L396
 6728              	.LBE1533:
 6729              	.LBE1537:
 6730              	.LBE1542:
 6731              	.LBE1547:
 6732              	.LBE1558:
 6733              	.LBE1574:
 6734              	.LBE1714:
 6735              	.LBE1735:
 6736              	.LBE1791:
 428:Menus.cpp     ****                 else if(setWave2 == 2)
ARM GAS  C:\Users\VINCIU~1\AppData\Local\Temp\ccnesEGk.s 			page 177


 6737              		.loc 2 428 22 view .LVU1788
 6738              	.LBB1792:
 6739              	.LBB1736:
 6740              	.LBB1715:
 6741              	.LBB1575:
 6742              	.LBB1559:
 6743              	.LBB1548:
 6744              	.LBB1543:
 6745              	.LBB1538:
 6746              	.LBB1534:
 6747              	.LBB1529:
 6748 0856 022B     		cmp	r3, #2
 6749 0858 7FF411AF 		bne	.L347
 6750              	.LVL442:
 6751              	.LBB1526:
 430:Menus.cpp     ****                     for(int i = 0; i < 2; i++)
 6752              		.loc 2 430 38 view .LVU1789
 432:Menus.cpp     ****                         selectedWave2 = setWave2;
 6753              		.loc 2 432 25 view .LVU1790
 433:Menus.cpp     ****                         osc[1].SetWaveform(osc[1].WAVE_SQUARE);
 6754              		.loc 2 433 25 view .LVU1791
 6755              	.LBB1527:
 6756              	.LBI1527:
  70:../../DaisySP/Source/Synthesis/oscillator.h ****     {
 6757              		.loc 7 70 17 view .LVU1792
 6758              	.LBB1528:
 6759              		.loc 7 72 9 view .LVU1793
 6760              		.loc 7 72 19 is_stmt 0 view .LVU1794
 6761 085c 0423     		movs	r3, #4
 6762 085e 0FE7     		b	.L396
 6763              	.L428:
 6764              		.align	2
 6765              	.L427:
 6766 0860 14000000 		.word	.LC7
 6767 0864 00000000 		.word	0
 6768              	.LBE1528:
 6769              	.LBE1527:
 6770              	.LBE1526:
 6771              	.LBE1529:
 6772              	.LBE1534:
 6773              	.LBE1538:
 6774              	.LBE1543:
 6775              	.LBE1548:
 6776              	.LBE1559:
 6777              	.LBE1575:
 6778              	.LBE1715:
 6779              	.LBE1736:
 6780              	.LBE1792:
 6781              		.cfi_endproc
 6782              	.LFE4040:
 6784              		.section	.rodata._ZN5Menus5Menu3E23OledDisplayExtravaganzaPN7daisysp10OscillatorERNS1_4AdsrE.str1.
 6785              		.align	2
 6786              	.LC8:
 6787 0000 4100     		.ascii	"A\000"
 6788 0002 0000     		.align	2
 6789              	.LC9:
 6790 0004 4400     		.ascii	"D\000"
ARM GAS  C:\Users\VINCIU~1\AppData\Local\Temp\ccnesEGk.s 			page 178


 6791 0006 0000     		.align	2
 6792              	.LC10:
 6793 0008 5300     		.ascii	"S\000"
 6794 000a 0000     		.align	2
 6795              	.LC11:
 6796 000c 5200     		.ascii	"R\000"
 6797              		.section	.text._ZN5Menus5Menu3E23OledDisplayExtravaganzaPN7daisysp10OscillatorERNS1_4AdsrE,"ax",%p
 6798              		.align	1
 6799              		.p2align 2,,3
 6800              		.global	_ZN5Menus5Menu3E23OledDisplayExtravaganzaPN7daisysp10OscillatorERNS1_4AdsrE
 6801              		.syntax unified
 6802              		.thumb
 6803              		.thumb_func
 6804              		.fpu fpv5-d16
 6806              	_ZN5Menus5Menu3E23OledDisplayExtravaganzaPN7daisysp10OscillatorERNS1_4AdsrE:
 6807              	.LVL443:
 6808              	.LFB4042:
 628:Menus.cpp     **** {
 6809              		.loc 2 628 1 is_stmt 1 view -0
 6810              		.cfi_startproc
 6811              		@ args = 0, pretend = 0, frame = 24
 6812              		@ frame_needed = 0, uses_anonymous_args = 0
 628:Menus.cpp     **** {
 6813              		.loc 2 628 1 is_stmt 0 view .LVU1796
 6814 0000 2DE9F04F 		push	{r4, r5, r6, r7, r8, r9, r10, fp, lr}
 6815              		.cfi_def_cfa_offset 36
 6816              		.cfi_offset 4, -36
 6817              		.cfi_offset 5, -32
 6818              		.cfi_offset 6, -28
 6819              		.cfi_offset 7, -24
 6820              		.cfi_offset 8, -20
 6821              		.cfi_offset 9, -16
 6822              		.cfi_offset 10, -12
 6823              		.cfi_offset 11, -8
 6824              		.cfi_offset 14, -4
 6825 0004 0C46     		mov	r4, r1
 6826 0006 0746     		mov	r7, r0
 629:Menus.cpp     ****     screen.Fill(false);
 6827              		.loc 2 629 5 is_stmt 1 view .LVU1797
 6828              	.LVL444:
 6829              	.LBB2066:
 6830              	.LBI2066:
  33:../../libdaisy/src/hid/disp/oled_display.h **** 
 6831              		.loc 1 33 10 view .LVU1798
 6832              	.LBB2067:
 6833              	.LBI2067:
 249:../../libdaisy/src/dev/oled_ssd130x.h ****     {
 6834              		.loc 5 249 10 view .LVU1799
 6835              	.LBB2068:
 251:../../libdaisy/src/dev/oled_ssd130x.h ****         {
 6836              		.loc 5 251 29 view .LVU1800
 6837              	.LBE2068:
 6838              	.LBE2067:
 6839              	.LBE2066:
 628:Menus.cpp     **** {
 6840              		.loc 2 628 1 is_stmt 0 view .LVU1801
 6841 0008 8BB0     		sub	sp, sp, #44
ARM GAS  C:\Users\VINCIU~1\AppData\Local\Temp\ccnesEGk.s 			page 179


 6842              		.cfi_def_cfa_offset 80
 6843              	.LBB2073:
 6844              	.LBB2071:
 6845              	.LBB2069:
 253:../../libdaisy/src/dev/oled_ssd130x.h ****         }
 6846              		.loc 5 253 24 view .LVU1802
 6847 000a 4FF48062 		mov	r2, #1024
 6848              	.LVL445:
 253:../../libdaisy/src/dev/oled_ssd130x.h ****         }
 6849              		.loc 5 253 24 view .LVU1803
 6850 000e 0021     		movs	r1, #0
 6851              	.LVL446:
 253:../../libdaisy/src/dev/oled_ssd130x.h ****         }
 6852              		.loc 5 253 24 view .LVU1804
 6853 0010 04F11400 		add	r0, r4, #20
 6854              	.LVL447:
 253:../../libdaisy/src/dev/oled_ssd130x.h ****         }
 6855              		.loc 5 253 24 view .LVU1805
 6856              	.LBE2069:
 6857              	.LBE2071:
 6858              	.LBE2073:
 628:Menus.cpp     **** {
 6859              		.loc 2 628 1 view .LVU1806
 6860 0014 1D46     		mov	r5, r3
 6861              	.LBB2074:
 6862              	.LBB2072:
 6863              	.LBB2070:
 253:../../libdaisy/src/dev/oled_ssd130x.h ****         }
 6864              		.loc 5 253 24 view .LVU1807
 6865 0016 FFF7FEFF 		bl	memset
 6866              	.LVL448:
 253:../../libdaisy/src/dev/oled_ssd130x.h ****         }
 6867              		.loc 5 253 24 view .LVU1808
 6868              	.LBE2070:
 6869              	.LBE2072:
 6870              	.LBE2074:
 630:Menus.cpp     ****     if(this->buttonLeft.RisingEdge())
 6871              		.loc 2 630 5 is_stmt 1 view .LVU1809
 6872              	.LBB2075:
 6873              	.LBI2075:
 6874              		.loc 4 69 17 view .LVU1810
 6875              	.LBB2076:
 6876              		.loc 4 69 38 view .LVU1811
 6877              		.loc 4 69 38 is_stmt 0 view .LVU1812
 6878              	.LBE2076:
 6879              	.LBE2075:
 630:Menus.cpp     ****     if(this->buttonLeft.RisingEdge())
 6880              		.loc 2 630 5 view .LVU1813
 6881 001a 97F85130 		ldrb	r3, [r7, #81]	@ zero_extendqisi2
 6882 001e 7F2B     		cmp	r3, #127
 633:Menus.cpp     ****         this->menuStateEnv = this->menuStateEnv - 1;
 6883              		.loc 2 633 49 view .LVU1814
 6884 0020 D7F8AC31 		ldr	r3, [r7, #428]
 630:Menus.cpp     ****     if(this->buttonLeft.RisingEdge())
 6885              		.loc 2 630 5 view .LVU1815
 6886 0024 00F0E383 		beq	.L594
 6887              	.L432:
ARM GAS  C:\Users\VINCIU~1\AppData\Local\Temp\ccnesEGk.s 			page 180


 639:Menus.cpp     ****     if(this->buttonRight.RisingEdge())
 6888              		.loc 2 639 5 is_stmt 1 view .LVU1816
 6889              	.LVL449:
 6890              	.LBB2077:
 6891              	.LBI2077:
 6892              		.loc 4 69 17 view .LVU1817
 6893              	.LBB2078:
 6894              		.loc 4 69 38 view .LVU1818
 6895              		.loc 4 69 38 is_stmt 0 view .LVU1819
 6896              	.LBE2078:
 6897              	.LBE2077:
 639:Menus.cpp     ****     if(this->buttonRight.RisingEdge())
 6898              		.loc 2 639 5 view .LVU1820
 6899 0028 97F86120 		ldrb	r2, [r7, #97]	@ zero_extendqisi2
 6900 002c 7F2A     		cmp	r2, #127
 6901 002e 00F00D82 		beq	.L595
 6902              	.L436:
 648:Menus.cpp     ****     if(menuStateEnv == 0)
 6903              		.loc 2 648 5 is_stmt 1 view .LVU1821
 6904 0032 002B     		cmp	r3, #0
 6905 0034 00F01382 		beq	.L435
 671:Menus.cpp     ****     if(menuStateEnv == 1)
 6906              		.loc 2 671 5 view .LVU1822
 6907 0038 012B     		cmp	r3, #1
 6908 003a 00F0A282 		beq	.L596
 6909              	.L451:
 694:Menus.cpp     ****     if(menuStateEnv == 2)
 6910              		.loc 2 694 5 view .LVU1823
 6911 003e 022B     		cmp	r3, #2
 6912 0040 00F0ED82 		beq	.L597
 6913              	.L460:
 717:Menus.cpp     ****     if(menuStateEnv == 3)
 6914              		.loc 2 717 5 view .LVU1824
 6915 0044 032B     		cmp	r3, #3
 6916 0046 00F08A83 		beq	.L434
 6917              	.L474:
 741:Menus.cpp     ****     screen.SetCursor(32, 4);
 6918              		.loc 2 741 5 view .LVU1825
 6919              	.LVL450:
 6920              	.LBB2080:
 6921              	.LBI2080:
 131:../../libdaisy/src/hid/disp/display.h ****     {
 6922              		.loc 6 131 10 view .LVU1826
 6923              	.LBB2081:
 133:../../libdaisy/src/hid/disp/display.h ****         currentY_ = (y >= Height()) ? Height() - 1 : y;
 6924              		.loc 6 133 9 view .LVU1827
 134:../../libdaisy/src/hid/disp/display.h ****     }
 6925              		.loc 6 134 9 view .LVU1828
 6926              	.LBE2081:
 6927              	.LBE2080:
 742:Menus.cpp     ****     screen.WriteString("A", Font_6x8, true);
 6928              		.loc 2 742 23 is_stmt 0 view .LVU1829
 6929 004a BB4D     		ldr	r5, .L603
 6930              	.LVL451:
 742:Menus.cpp     ****     screen.WriteString("A", Font_6x8, true);
 6931              		.loc 2 742 23 view .LVU1830
 6932 004c 0126     		movs	r6, #1
ARM GAS  C:\Users\VINCIU~1\AppData\Local\Temp\ccnesEGk.s 			page 181


 6933              	.LBB2084:
 6934              	.LBB2082:
 133:../../libdaisy/src/hid/disp/display.h ****         currentY_ = (y >= Height()) ? Height() - 1 : y;
 6935              		.loc 6 133 19 view .LVU1831
 6936 004e BB4B     		ldr	r3, .L603+4
 6937              	.LBE2082:
 6938              	.LBE2084:
 742:Menus.cpp     ****     screen.WriteString("A", Font_6x8, true);
 6939              		.loc 2 742 23 view .LVU1832
 6940 0050 2046     		mov	r0, r4
 6941 0052 0096     		str	r6, [sp]
 6942 0054 BA49     		ldr	r1, .L603+8
 6943              	.LBB2085:
 6944              	.LBB2083:
 133:../../libdaisy/src/hid/disp/display.h ****         currentY_ = (y >= Height()) ? Height() - 1 : y;
 6945              		.loc 6 133 19 view .LVU1833
 6946 0056 6360     		str	r3, [r4, #4]
 6947              	.LVL452:
 133:../../libdaisy/src/hid/disp/display.h ****         currentY_ = (y >= Height()) ? Height() - 1 : y;
 6948              		.loc 6 133 19 view .LVU1834
 6949              	.LBE2083:
 6950              	.LBE2085:
 742:Menus.cpp     ****     screen.WriteString("A", Font_6x8, true);
 6951              		.loc 2 742 5 is_stmt 1 view .LVU1835
 742:Menus.cpp     ****     screen.WriteString("A", Font_6x8, true);
 6952              		.loc 2 742 23 is_stmt 0 view .LVU1836
 6953 0058 95E80C00 		ldm	r5, {r2, r3}
 6954 005c FFF7FEFF 		bl	_ZN5daisy25OneBitGraphicsDisplayImplINS_11OledDisplayINS_13SSD130xDriverILj128ELj64ENS_24SSD130
 6955              	.LVL453:
 743:Menus.cpp     ****     screen.SetCursor(48, 4);
 6956              		.loc 2 743 5 is_stmt 1 view .LVU1837
 6957              	.LBB2086:
 6958              	.LBI2086:
 131:../../libdaisy/src/hid/disp/display.h ****     {
 6959              		.loc 6 131 10 view .LVU1838
 6960              	.LBB2087:
 133:../../libdaisy/src/hid/disp/display.h ****         currentY_ = (y >= Height()) ? Height() - 1 : y;
 6961              		.loc 6 133 9 view .LVU1839
 134:../../libdaisy/src/hid/disp/display.h ****     }
 6962              		.loc 6 134 9 view .LVU1840
 133:../../libdaisy/src/hid/disp/display.h ****         currentY_ = (y >= Height()) ? Height() - 1 : y;
 6963              		.loc 6 133 19 is_stmt 0 view .LVU1841
 6964 0060 B84B     		ldr	r3, .L603+12
 6965              	.LBE2087:
 6966              	.LBE2086:
 744:Menus.cpp     ****     screen.WriteString("D", Font_6x8, true);
 6967              		.loc 2 744 23 view .LVU1842
 6968 0062 0096     		str	r6, [sp]
 6969 0064 2046     		mov	r0, r4
 6970 0066 B849     		ldr	r1, .L603+16
 6971              	.LBB2089:
 6972              	.LBB2088:
 133:../../libdaisy/src/hid/disp/display.h ****         currentY_ = (y >= Height()) ? Height() - 1 : y;
 6973              		.loc 6 133 19 view .LVU1843
 6974 0068 6360     		str	r3, [r4, #4]
 6975              	.LVL454:
 133:../../libdaisy/src/hid/disp/display.h ****         currentY_ = (y >= Height()) ? Height() - 1 : y;
ARM GAS  C:\Users\VINCIU~1\AppData\Local\Temp\ccnesEGk.s 			page 182


 6976              		.loc 6 133 19 view .LVU1844
 6977              	.LBE2088:
 6978              	.LBE2089:
 744:Menus.cpp     ****     screen.WriteString("D", Font_6x8, true);
 6979              		.loc 2 744 5 is_stmt 1 view .LVU1845
 744:Menus.cpp     ****     screen.WriteString("D", Font_6x8, true);
 6980              		.loc 2 744 23 is_stmt 0 view .LVU1846
 6981 006a 95E80C00 		ldm	r5, {r2, r3}
 6982 006e FFF7FEFF 		bl	_ZN5daisy25OneBitGraphicsDisplayImplINS_11OledDisplayINS_13SSD130xDriverILj128ELj64ENS_24SSD130
 6983              	.LVL455:
 745:Menus.cpp     ****     screen.SetCursor(64, 4);
 6984              		.loc 2 745 5 is_stmt 1 view .LVU1847
 6985              	.LBB2090:
 6986              	.LBI2090:
 131:../../libdaisy/src/hid/disp/display.h ****     {
 6987              		.loc 6 131 10 view .LVU1848
 6988              	.LBB2091:
 133:../../libdaisy/src/hid/disp/display.h ****         currentY_ = (y >= Height()) ? Height() - 1 : y;
 6989              		.loc 6 133 9 view .LVU1849
 134:../../libdaisy/src/hid/disp/display.h ****     }
 6990              		.loc 6 134 9 view .LVU1850
 133:../../libdaisy/src/hid/disp/display.h ****         currentY_ = (y >= Height()) ? Height() - 1 : y;
 6991              		.loc 6 133 19 is_stmt 0 view .LVU1851
 6992 0072 B64B     		ldr	r3, .L603+20
 6993              	.LBE2091:
 6994              	.LBE2090:
 746:Menus.cpp     ****     screen.WriteString("S", Font_6x8, true);
 6995              		.loc 2 746 23 view .LVU1852
 6996 0074 0096     		str	r6, [sp]
 6997 0076 2046     		mov	r0, r4
 6998 0078 B549     		ldr	r1, .L603+24
 6999              	.LBB2093:
 7000              	.LBB2092:
 133:../../libdaisy/src/hid/disp/display.h ****         currentY_ = (y >= Height()) ? Height() - 1 : y;
 7001              		.loc 6 133 19 view .LVU1853
 7002 007a 6360     		str	r3, [r4, #4]
 7003              	.LVL456:
 133:../../libdaisy/src/hid/disp/display.h ****         currentY_ = (y >= Height()) ? Height() - 1 : y;
 7004              		.loc 6 133 19 view .LVU1854
 7005              	.LBE2092:
 7006              	.LBE2093:
 746:Menus.cpp     ****     screen.WriteString("S", Font_6x8, true);
 7007              		.loc 2 746 5 is_stmt 1 view .LVU1855
 746:Menus.cpp     ****     screen.WriteString("S", Font_6x8, true);
 7008              		.loc 2 746 23 is_stmt 0 view .LVU1856
 7009 007c 95E80C00 		ldm	r5, {r2, r3}
 7010 0080 FFF7FEFF 		bl	_ZN5daisy25OneBitGraphicsDisplayImplINS_11OledDisplayINS_13SSD130xDriverILj128ELj64ENS_24SSD130
 7011              	.LVL457:
 747:Menus.cpp     ****     screen.SetCursor(80, 4);
 7012              		.loc 2 747 5 is_stmt 1 view .LVU1857
 7013              	.LBB2094:
 7014              	.LBI2094:
 131:../../libdaisy/src/hid/disp/display.h ****     {
 7015              		.loc 6 131 10 view .LVU1858
 7016              	.LBB2095:
 133:../../libdaisy/src/hid/disp/display.h ****         currentY_ = (y >= Height()) ? Height() - 1 : y;
 7017              		.loc 6 133 9 view .LVU1859
ARM GAS  C:\Users\VINCIU~1\AppData\Local\Temp\ccnesEGk.s 			page 183


 134:../../libdaisy/src/hid/disp/display.h ****     }
 7018              		.loc 6 134 9 view .LVU1860
 133:../../libdaisy/src/hid/disp/display.h ****         currentY_ = (y >= Height()) ? Height() - 1 : y;
 7019              		.loc 6 133 19 is_stmt 0 view .LVU1861
 7020 0084 B34B     		ldr	r3, .L603+28
 7021              	.LBE2095:
 7022              	.LBE2094:
 748:Menus.cpp     ****     screen.WriteString("R", Font_6x8, true);
 7023              		.loc 2 748 23 view .LVU1862
 7024 0086 0096     		str	r6, [sp]
 7025 0088 2046     		mov	r0, r4
 7026 008a B349     		ldr	r1, .L603+32
 7027              	.LBB2097:
 7028              	.LBB2096:
 133:../../libdaisy/src/hid/disp/display.h ****         currentY_ = (y >= Height()) ? Height() - 1 : y;
 7029              		.loc 6 133 19 view .LVU1863
 7030 008c 6360     		str	r3, [r4, #4]
 7031              	.LVL458:
 133:../../libdaisy/src/hid/disp/display.h ****         currentY_ = (y >= Height()) ? Height() - 1 : y;
 7032              		.loc 6 133 19 view .LVU1864
 7033              	.LBE2096:
 7034              	.LBE2097:
 748:Menus.cpp     ****     screen.WriteString("R", Font_6x8, true);
 7035              		.loc 2 748 5 is_stmt 1 view .LVU1865
 748:Menus.cpp     ****     screen.WriteString("R", Font_6x8, true);
 7036              		.loc 2 748 23 is_stmt 0 view .LVU1866
 7037 008e 95E80C00 		ldm	r5, {r2, r3}
 7038 0092 FFF7FEFF 		bl	_ZN5daisy25OneBitGraphicsDisplayImplINS_11OledDisplayINS_13SSD130xDriverILj128ELj64ENS_24SSD130
 7039              	.LVL459:
 749:Menus.cpp     ****     screen.DrawLine(0, screen.Height() - 5, attackTimeScaleDraw, 25, true);
 7040              		.loc 2 749 5 is_stmt 1 view .LVU1867
 749:Menus.cpp     ****     screen.DrawLine(0, screen.Height() - 5, attackTimeScaleDraw, 25, true);
 7041              		.loc 2 749 45 is_stmt 0 view .LVU1868
 7042 0096 D7ED697A 		vldr.32	s15, [r7, #420]
 7043              	.LBB2098:
 7044              	.LBB2099:
 7045              	.LBB2100:
 7046              	.LBB2101:
  43:../../libdaisy/src/hid/disp/oled_display.h ****     }
 7047              		.loc 1 43 26 view .LVU1869
 7048 009a 04F10805 		add	r5, r4, #8
 7049              	.LBE2101:
 7050              	.LBE2100:
 7051              	.LBE2099:
 7052              	.LBE2098:
 749:Menus.cpp     ****     screen.DrawLine(0, screen.Height() - 5, attackTimeScaleDraw, 25, true);
 7053              		.loc 2 749 20 view .LVU1870
 7054 009e BCEEE77A 		vcvt.u32.f32	s14, s15
 7055 00a2 17EE101A 		vmov	r1, s14	@ int
 7056              	.LVL460:
 7057              	.LBB2126:
 7058              	.LBI2098:
 181:../../libdaisy/src/hid/disp/display.h ****                   uint_fast8_t y1,
 7059              		.loc 6 181 10 is_stmt 1 view .LVU1871
 7060              	.LBB2124:
 187:../../libdaisy/src/hid/disp/display.h ****         int_fast16_t deltaY = abs((int_fast16_t)y2 - (int_fast16_t)y1);
 7061              		.loc 6 187 22 is_stmt 0 view .LVU1872
ARM GAS  C:\Users\VINCIU~1\AppData\Local\Temp\ccnesEGk.s 			page 184


 7062 00a6 81EAE179 		eor	r9, r1, r1, asr #31
 7063 00aa A9EBE179 		sub	r9, r9, r1, asr #31
 7064              	.LVL461:
 191:../../libdaisy/src/hid/disp/display.h ****         int_fast16_t error2;
 7065              		.loc 6 191 22 view .LVU1873
 7066 00ae A9F1220C 		sub	ip, r9, #34
 7067              	.LVL462:
 7068              	.LBB2113:
 7069              	.LBI2100:
  41:../../libdaisy/src/hid/disp/oled_display.h ****     {
 7070              		.loc 1 41 10 is_stmt 1 view .LVU1874
 7071              	.LBE2113:
 189:../../libdaisy/src/hid/disp/display.h ****         int_fast16_t signY  = ((y1 < y2) ? 1 : -1);
 7072              		.loc 6 189 42 is_stmt 0 view .LVU1875
 7073 00b2 0029     		cmp	r1, #0
 7074 00b4 00F09B81 		beq	.L484
 7075              	.LVL463:
 7076              	.LBB2114:
 7077              	.LBB2109:
 7078              	.LBB2102:
 7079              	.LBI2102:
 239:../../libdaisy/src/dev/oled_ssd130x.h ****     {
 7080              		.loc 5 239 10 is_stmt 1 view .LVU1876
 7081              	.LBB2103:
 241:../../libdaisy/src/dev/oled_ssd130x.h ****             return;
 7082              		.loc 5 241 9 is_stmt 0 view .LVU1877
 7083 00b8 7F29     		cmp	r1, #127
 7084              	.LBE2103:
 7085              	.LBE2102:
 7086              	.LBE2109:
 7087              	.LBE2114:
 189:../../libdaisy/src/hid/disp/display.h ****         int_fast16_t signY  = ((y1 < y2) ? 1 : -1);
 7088              		.loc 6 189 42 view .LVU1878
 7089 00ba B046     		mov	r8, r6
 7090              	.LBB2115:
 7091              	.LBB2110:
 7092              	.LBB2106:
 7093              	.LBB2104:
 241:../../libdaisy/src/dev/oled_ssd130x.h ****             return;
 7094              		.loc 5 241 9 view .LVU1879
 7095 00bc 40F29981 		bls	.L523
 7096              	.LVL464:
 7097              	.L485:
 241:../../libdaisy/src/dev/oled_ssd130x.h ****             return;
 7098              		.loc 5 241 9 view .LVU1880
 7099              	.LBE2104:
 7100              	.LBE2106:
 7101              	.LBE2110:
 7102              	.LBE2115:
 199:../../libdaisy/src/hid/disp/display.h ****         {
 7103              		.loc 6 199 26 is_stmt 1 view .LVU1881
 189:../../libdaisy/src/hid/disp/display.h ****         int_fast16_t signY  = ((y1 < y2) ? 1 : -1);
 7104              		.loc 6 189 42 is_stmt 0 view .LVU1882
 7105 00c0 3B20     		movs	r0, #59
 7106 00c2 0026     		movs	r6, #0
 7107              	.LVL465:
 7108              	.L486:
ARM GAS  C:\Users\VINCIU~1\AppData\Local\Temp\ccnesEGk.s 			page 185


 7109              	.LBB2116:
 7110              	.LBI2116:
  41:../../libdaisy/src/hid/disp/oled_display.h ****     {
 7111              		.loc 1 41 10 is_stmt 1 view .LVU1883
 7112              	.LBB2117:
 7113              	.LBI2117:
 239:../../libdaisy/src/dev/oled_ssd130x.h ****     {
 7114              		.loc 5 239 10 view .LVU1884
 7115              	.LBB2118:
 244:../../libdaisy/src/dev/oled_ssd130x.h ****         else
 7116              		.loc 5 244 28 is_stmt 0 view .LVU1885
 7117 00c4 C308     		lsrs	r3, r0, #3
 244:../../libdaisy/src/dev/oled_ssd130x.h ****         else
 7118              		.loc 5 244 48 view .LVU1886
 7119 00c6 0122     		movs	r2, #1
 244:../../libdaisy/src/dev/oled_ssd130x.h ****         else
 7120              		.loc 5 244 54 view .LVU1887
 7121 00c8 00F0070A 		and	r10, r0, #7
 241:../../libdaisy/src/dev/oled_ssd130x.h ****             return;
 7122              		.loc 5 241 9 view .LVU1888
 7123 00cc 7F2E     		cmp	r6, #127
 244:../../libdaisy/src/dev/oled_ssd130x.h ****         else
 7124              		.loc 5 244 42 view .LVU1889
 7125 00ce 06EBC313 		add	r3, r6, r3, lsl #7
 7126              	.LBE2118:
 7127              	.LBE2117:
 7128              	.LBE2116:
 202:../../libdaisy/src/hid/disp/display.h ****             if(error2 > -deltaY)
 7129              		.loc 6 202 20 view .LVU1890
 7130 00d2 0CFA02FE 		lsl	lr, ip, r2
 7131              	.LVL466:
 7132              	.LBB2121:
 7133              	.LBB2120:
 7134              	.LBB2119:
 244:../../libdaisy/src/dev/oled_ssd130x.h ****         else
 7135              		.loc 5 244 48 view .LVU1891
 7136 00d6 02FA0AF2 		lsl	r2, r2, r10
 244:../../libdaisy/src/dev/oled_ssd130x.h ****         else
 7137              		.loc 5 244 42 view .LVU1892
 7138 00da 2344     		add	r3, r3, r4
 241:../../libdaisy/src/dev/oled_ssd130x.h ****             return;
 7139              		.loc 5 241 9 view .LVU1893
 7140 00dc 06D8     		bhi	.L489
 241:../../libdaisy/src/dev/oled_ssd130x.h ****             return;
 7141              		.loc 5 241 9 view .LVU1894
 7142 00de 3F28     		cmp	r0, #63
 7143 00e0 04D8     		bhi	.L489
 244:../../libdaisy/src/dev/oled_ssd130x.h ****         else
 7144              		.loc 5 244 42 view .LVU1895
 7145 00e2 93F814A0 		ldrb	r10, [r3, #20]	@ zero_extendqisi2
 7146 00e6 42EA0A02 		orr	r2, r2, r10
 7147 00ea 1A75     		strb	r2, [r3, #20]
 7148              	.L489:
 7149              	.LBE2119:
 7150              	.LBE2120:
 7151              	.LBE2121:
 203:../../libdaisy/src/hid/disp/display.h ****             {
ARM GAS  C:\Users\VINCIU~1\AppData\Local\Temp\ccnesEGk.s 			page 186


 7152              		.loc 6 203 13 view .LVU1896
 7153 00ec 1EF1210F 		cmn	lr, #33
 7154 00f0 C0F28781 		blt	.L490
 209:../../libdaisy/src/hid/disp/display.h ****             {
 7155              		.loc 6 209 13 view .LVU1897
 7156 00f4 F145     		cmp	r9, lr
 206:../../libdaisy/src/hid/disp/display.h ****             }
 7157              		.loc 6 206 20 view .LVU1898
 7158 00f6 4644     		add	r6, r6, r8
 7159              	.LVL467:
 205:../../libdaisy/src/hid/disp/display.h ****                 x1 += signX;
 7160              		.loc 6 205 23 view .LVU1899
 7161 00f8 ACF1220C 		sub	ip, ip, #34
 7162              	.LVL468:
 209:../../libdaisy/src/hid/disp/display.h ****             {
 7163              		.loc 6 209 13 view .LVU1900
 7164 00fc 00F38181 		bgt	.L490
 7165              	.L491:
 199:../../libdaisy/src/hid/disp/display.h ****         {
 7166              		.loc 6 199 26 is_stmt 1 view .LVU1901
 7167 0100 B142     		cmp	r1, r6
 7168 0102 DFD1     		bne	.L486
 199:../../libdaisy/src/hid/disp/display.h ****         {
 7169              		.loc 6 199 26 is_stmt 0 view .LVU1902
 7170 0104 1928     		cmp	r0, #25
 7171 0106 DDD1     		bne	.L486
 7172              	.LVL469:
 199:../../libdaisy/src/hid/disp/display.h ****         {
 7173              		.loc 6 199 26 view .LVU1903
 7174              	.LBE2124:
 7175              	.LBE2126:
 750:Menus.cpp     ****     screen.DrawLine(attackTimeScaleDraw,
 7176              		.loc 2 750 5 is_stmt 1 view .LVU1904
 753:Menus.cpp     ****                     (screen.Height() - 5) - sustatinLevelScaleDraw,
 7177              		.loc 2 753 43 is_stmt 0 view .LVU1905
 7178 0108 D7ED726A 		vldr.32	s13, [r7, #456]
 7179 010c 9FED937A 		vldr.32	s14, .L603+36
 752:Menus.cpp     ****                     attackTimeScaleDraw + decayTimeScaleDraw,
 7180              		.loc 2 752 41 view .LVU1906
 7181 0110 97ED6E6A 		vldr.32	s12, [r7, #440]
 753:Menus.cpp     ****                     (screen.Height() - 5) - sustatinLevelScaleDraw,
 7182              		.loc 2 753 43 view .LVU1907
 7183 0114 37EE667A 		vsub.f32	s14, s14, s13
 752:Menus.cpp     ****                     attackTimeScaleDraw + decayTimeScaleDraw,
 7184              		.loc 2 752 41 view .LVU1908
 7185 0118 77EE867A 		vadd.f32	s15, s15, s12
 750:Menus.cpp     ****     screen.DrawLine(attackTimeScaleDraw,
 7186              		.loc 2 750 20 view .LVU1909
 7187 011c BCEEC77A 		vcvt.u32.f32	s14, s14
 7188 0120 FCEEE76A 		vcvt.u32.f32	s13, s15
 7189 0124 17EE102A 		vmov	r2, s14	@ int
 7190 0128 16EE906A 		vmov	r6, s13	@ int
 7191              	.LVL470:
 7192              	.LBB2127:
 7193              	.LBI2127:
 181:../../libdaisy/src/hid/disp/display.h ****                   uint_fast8_t y1,
 7194              		.loc 6 181 10 is_stmt 1 view .LVU1910
ARM GAS  C:\Users\VINCIU~1\AppData\Local\Temp\ccnesEGk.s 			page 187


 7195              	.LBB2128:
 188:../../libdaisy/src/hid/disp/display.h ****         int_fast16_t signX  = ((x1 < x2) ? 1 : -1);
 7196              		.loc 6 188 52 is_stmt 0 view .LVU1911
 7197 012c A2F11903 		sub	r3, r2, #25
 187:../../libdaisy/src/hid/disp/display.h ****         int_fast16_t deltaY = abs((int_fast16_t)y2 - (int_fast16_t)y1);
 7198              		.loc 6 187 52 view .LVU1912
 7199 0130 A6EB010E 		sub	lr, r6, r1
 188:../../libdaisy/src/hid/disp/display.h ****         int_fast16_t signX  = ((x1 < x2) ? 1 : -1);
 7200              		.loc 6 188 22 view .LVU1913
 7201 0134 83EAE370 		eor	r0, r3, r3, asr #31
 187:../../libdaisy/src/hid/disp/display.h ****         int_fast16_t deltaY = abs((int_fast16_t)y2 - (int_fast16_t)y1);
 7202              		.loc 6 187 22 view .LVU1914
 7203 0138 BEF1000F 		cmp	lr, #0
 188:../../libdaisy/src/hid/disp/display.h ****         int_fast16_t signX  = ((x1 < x2) ? 1 : -1);
 7204              		.loc 6 188 22 view .LVU1915
 7205 013c A0EBE370 		sub	r0, r0, r3, asr #31
 187:../../libdaisy/src/hid/disp/display.h ****         int_fast16_t deltaY = abs((int_fast16_t)y2 - (int_fast16_t)y1);
 7206              		.loc 6 187 22 view .LVU1916
 7207 0140 B8BF     		it	lt
 7208 0142 CEF1000E 		rsblt	lr, lr, #0
 7209              	.LVL471:
 188:../../libdaisy/src/hid/disp/display.h ****         int_fast16_t signX  = ((x1 < x2) ? 1 : -1);
 7210              		.loc 6 188 22 view .LVU1917
 7211 0146 0346     		mov	r3, r0
 7212 0148 0490     		str	r0, [sp, #16]
 7213              	.LVL472:
 189:../../libdaisy/src/hid/disp/display.h ****         int_fast16_t signY  = ((y1 < y2) ? 1 : -1);
 7214              		.loc 6 189 42 view .LVU1918
 7215 014a B142     		cmp	r1, r6
 7216 014c 34BF     		ite	cc
 7217 014e 0120     		movcc	r0, #1
 7218 0150 4FF0FF30 		movcs	r0, #-1
 7219              	.LVL473:
 190:../../libdaisy/src/hid/disp/display.h ****         int_fast16_t error  = deltaX - deltaY;
 7220              		.loc 6 190 42 view .LVU1919
 7221 0154 192A     		cmp	r2, #25
 189:../../libdaisy/src/hid/disp/display.h ****         int_fast16_t signY  = ((y1 < y2) ? 1 : -1);
 7222              		.loc 6 189 42 view .LVU1920
 7223 0156 0590     		str	r0, [sp, #20]
 7224              	.LVL474:
 190:../../libdaisy/src/hid/disp/display.h ****         int_fast16_t error  = deltaX - deltaY;
 7225              		.loc 6 190 42 view .LVU1921
 7226 0158 00F25D81 		bhi	.L493
 7227              	.LVL475:
 191:../../libdaisy/src/hid/disp/display.h ****         int_fast16_t error2;
 7228              		.loc 6 191 22 view .LVU1922
 7229 015c AEEB030C 		sub	ip, lr, r3
 7230              	.LVL476:
 7231              	.LBB2129:
 7232              	.LBI2129:
  41:../../libdaisy/src/hid/disp/oled_display.h ****     {
 7233              		.loc 1 41 10 is_stmt 1 view .LVU1923
 7234              	.LBB2130:
 7235              	.LBI2130:
 239:../../libdaisy/src/dev/oled_ssd130x.h ****     {
 7236              		.loc 5 239 10 view .LVU1924
 7237              	.LBB2131:
ARM GAS  C:\Users\VINCIU~1\AppData\Local\Temp\ccnesEGk.s 			page 188


 241:../../libdaisy/src/dev/oled_ssd130x.h ****             return;
 7238              		.loc 5 241 9 is_stmt 0 view .LVU1925
 7239 0160 7F2E     		cmp	r6, #127
 7240              	.LBE2131:
 7241              	.LBE2130:
 7242              	.LBE2129:
 190:../../libdaisy/src/hid/disp/display.h ****         int_fast16_t error  = deltaX - deltaY;
 7243              		.loc 6 190 42 view .LVU1926
 7244 0162 4FF0FF33 		mov	r3, #-1
 7245              	.LVL477:
 190:../../libdaisy/src/hid/disp/display.h ****         int_fast16_t error  = deltaX - deltaY;
 7246              		.loc 6 190 42 view .LVU1927
 7247 0166 0693     		str	r3, [sp, #24]
 7248              	.LBB2138:
 7249              	.LBB2135:
 7250              	.LBB2132:
 241:../../libdaisy/src/dev/oled_ssd130x.h ****             return;
 7251              		.loc 5 241 9 view .LVU1928
 7252 0168 0DD8     		bhi	.L494
 7253              	.LVL478:
 7254              	.L526:
 244:../../libdaisy/src/dev/oled_ssd130x.h ****         else
 7255              		.loc 5 244 28 view .LVU1929
 7256 016a D308     		lsrs	r3, r2, #3
 244:../../libdaisy/src/dev/oled_ssd130x.h ****         else
 7257              		.loc 5 244 54 view .LVU1930
 7258 016c 02F00708 		and	r8, r2, #7
 244:../../libdaisy/src/dev/oled_ssd130x.h ****         else
 7259              		.loc 5 244 48 view .LVU1931
 7260 0170 0120     		movs	r0, #1
 7261              	.LVL479:
 244:../../libdaisy/src/dev/oled_ssd130x.h ****         else
 7262              		.loc 5 244 42 view .LVU1932
 7263 0172 06EBC313 		add	r3, r6, r3, lsl #7
 244:../../libdaisy/src/dev/oled_ssd130x.h ****         else
 7264              		.loc 5 244 48 view .LVU1933
 7265 0176 00FA08F0 		lsl	r0, r0, r8
 244:../../libdaisy/src/dev/oled_ssd130x.h ****         else
 7266              		.loc 5 244 42 view .LVU1934
 7267 017a 2344     		add	r3, r3, r4
 7268 017c 93F81480 		ldrb	r8, [r3, #20]	@ zero_extendqisi2
 7269 0180 40EA0800 		orr	r0, r0, r8
 7270 0184 1875     		strb	r0, [r3, #20]
 7271              	.L494:
 7272              	.LVL480:
 244:../../libdaisy/src/dev/oled_ssd130x.h ****         else
 7273              		.loc 5 244 42 view .LVU1935
 7274              	.LBE2132:
 7275              	.LBE2135:
 7276              	.LBE2138:
 199:../../libdaisy/src/hid/disp/display.h ****         {
 7277              		.loc 6 199 26 is_stmt 1 view .LVU1936
 7278 0186 192A     		cmp	r2, #25
 7279 0188 08BF     		it	eq
 7280 018a B142     		cmpeq	r1, r6
 7281 018c 0CBF     		ite	eq
 7282 018e 0123     		moveq	r3, #1
ARM GAS  C:\Users\VINCIU~1\AppData\Local\Temp\ccnesEGk.s 			page 189


 7283 0190 0023     		movne	r3, #0
 7284 0192 0793     		str	r3, [sp, #28]
 7285 0194 00F05E83 		beq	.L598
 7286              	.L496:
 7287              	.LVL481:
 203:../../libdaisy/src/hid/disp/display.h ****             {
 7288              		.loc 6 203 23 is_stmt 0 view .LVU1937
 7289 0198 049B     		ldr	r3, [sp, #16]
 7290 019a 1920     		movs	r0, #25
 7291 019c C3F1000A 		rsb	r10, r3, #0
 7292              	.L498:
 7293              	.LVL482:
 7294              	.LBB2139:
 7295              	.LBI2139:
  41:../../libdaisy/src/hid/disp/oled_display.h ****     {
 7296              		.loc 1 41 10 is_stmt 1 view .LVU1938
 7297              	.LBB2140:
 7298              	.LBI2140:
 239:../../libdaisy/src/dev/oled_ssd130x.h ****     {
 7299              		.loc 5 239 10 view .LVU1939
 7300              	.LBB2141:
 244:../../libdaisy/src/dev/oled_ssd130x.h ****         else
 7301              		.loc 5 244 48 is_stmt 0 view .LVU1940
 7302 01a0 4FF0010B 		mov	fp, #1
 244:../../libdaisy/src/dev/oled_ssd130x.h ****         else
 7303              		.loc 5 244 28 view .LVU1941
 7304 01a4 C308     		lsrs	r3, r0, #3
 244:../../libdaisy/src/dev/oled_ssd130x.h ****         else
 7305              		.loc 5 244 54 view .LVU1942
 7306 01a6 00F00708 		and	r8, r0, #7
 241:../../libdaisy/src/dev/oled_ssd130x.h ****             return;
 7307              		.loc 5 241 9 view .LVU1943
 7308 01aa 7F29     		cmp	r1, #127
 244:../../libdaisy/src/dev/oled_ssd130x.h ****         else
 7309              		.loc 5 244 42 view .LVU1944
 7310 01ac 01EBC313 		add	r3, r1, r3, lsl #7
 7311              	.LBE2141:
 7312              	.LBE2140:
 7313              	.LBE2139:
 202:../../libdaisy/src/hid/disp/display.h ****             if(error2 > -deltaY)
 7314              		.loc 6 202 20 view .LVU1945
 7315 01b0 0CFA0BF9 		lsl	r9, ip, fp
 7316              	.LVL483:
 7317              	.LBB2144:
 7318              	.LBB2143:
 7319              	.LBB2142:
 244:../../libdaisy/src/dev/oled_ssd130x.h ****         else
 7320              		.loc 5 244 48 view .LVU1946
 7321 01b4 0BFA08F8 		lsl	r8, fp, r8
 241:../../libdaisy/src/dev/oled_ssd130x.h ****             return;
 7322              		.loc 5 241 9 view .LVU1947
 7323 01b8 08D8     		bhi	.L499
 7324 01ba 3F28     		cmp	r0, #63
 244:../../libdaisy/src/dev/oled_ssd130x.h ****         else
 7325              		.loc 5 244 42 view .LVU1948
 7326 01bc 2344     		add	r3, r3, r4
 241:../../libdaisy/src/dev/oled_ssd130x.h ****             return;
ARM GAS  C:\Users\VINCIU~1\AppData\Local\Temp\ccnesEGk.s 			page 190


 7327              		.loc 5 241 9 view .LVU1949
 7328 01be 05D8     		bhi	.L499
 244:../../libdaisy/src/dev/oled_ssd130x.h ****         else
 7329              		.loc 5 244 42 view .LVU1950
 7330 01c0 93F814B0 		ldrb	fp, [r3, #20]	@ zero_extendqisi2
 7331 01c4 48EA0B08 		orr	r8, r8, fp
 7332 01c8 83F81480 		strb	r8, [r3, #20]
 7333              	.L499:
 244:../../libdaisy/src/dev/oled_ssd130x.h ****         else
 7334              		.loc 5 244 42 view .LVU1951
 7335              	.LBE2142:
 7336              	.LBE2143:
 7337              	.LBE2144:
 203:../../libdaisy/src/hid/disp/display.h ****             {
 7338              		.loc 6 203 13 view .LVU1952
 7339 01cc BAEB4C0F 		cmp	r10, ip, lsl #1
 7340 01d0 04DA     		bge	.L500
 205:../../libdaisy/src/hid/disp/display.h ****                 x1 += signX;
 7341              		.loc 6 205 23 view .LVU1953
 7342 01d2 049B     		ldr	r3, [sp, #16]
 7343 01d4 ACEB030C 		sub	ip, ip, r3
 7344              	.LVL484:
 206:../../libdaisy/src/hid/disp/display.h ****             }
 7345              		.loc 6 206 20 view .LVU1954
 7346 01d8 059B     		ldr	r3, [sp, #20]
 7347 01da 1944     		add	r1, r1, r3
 7348              	.LVL485:
 7349              	.L500:
 209:../../libdaisy/src/hid/disp/display.h ****             {
 7350              		.loc 6 209 13 view .LVU1955
 7351 01dc CE45     		cmp	lr, r9
 7352 01de 02DD     		ble	.L501
 212:../../libdaisy/src/hid/disp/display.h ****             }
 7353              		.loc 6 212 20 view .LVU1956
 7354 01e0 069B     		ldr	r3, [sp, #24]
 211:../../libdaisy/src/hid/disp/display.h ****                 y1 += signY;
 7355              		.loc 6 211 23 view .LVU1957
 7356 01e2 F444     		add	ip, ip, lr
 7357              	.LVL486:
 212:../../libdaisy/src/hid/disp/display.h ****             }
 7358              		.loc 6 212 20 view .LVU1958
 7359 01e4 1844     		add	r0, r0, r3
 7360              	.LVL487:
 7361              	.L501:
 199:../../libdaisy/src/hid/disp/display.h ****         {
 7362              		.loc 6 199 26 is_stmt 1 view .LVU1959
 7363 01e6 8E42     		cmp	r6, r1
 7364 01e8 DAD1     		bne	.L498
 199:../../libdaisy/src/hid/disp/display.h ****         {
 7365              		.loc 6 199 26 is_stmt 0 view .LVU1960
 7366 01ea 8242     		cmp	r2, r0
 7367 01ec D8D1     		bne	.L498
 7368              	.LVL488:
 7369              	.L495:
 199:../../libdaisy/src/hid/disp/display.h ****         {
 7370              		.loc 6 199 26 view .LVU1961
 7371              	.LBE2128:
ARM GAS  C:\Users\VINCIU~1\AppData\Local\Temp\ccnesEGk.s 			page 191


 7372              	.LBE2127:
 756:Menus.cpp     ****     screen.DrawLine(attackTimeScaleDraw + decayTimeScaleDraw,
 7373              		.loc 2 756 5 is_stmt 1 view .LVU1962
 759:Menus.cpp     ****                         + screen.Width() / 4,
 7374              		.loc 2 759 25 is_stmt 0 view .LVU1963
 7375 01ee 9FED5C7A 		vldr.32	s14, .L603+40
 7376 01f2 77EE877A 		vadd.f32	s15, s15, s14
 756:Menus.cpp     ****     screen.DrawLine(attackTimeScaleDraw + decayTimeScaleDraw,
 7377              		.loc 2 756 20 view .LVU1964
 7378 01f6 BCEEE77A 		vcvt.u32.f32	s14, s15
 7379 01fa 17EE101A 		vmov	r1, s14	@ int
 7380              	.LVL489:
 7381              	.LBB2150:
 7382              	.LBI2150:
 181:../../libdaisy/src/hid/disp/display.h ****                   uint_fast8_t y1,
 7383              		.loc 6 181 10 is_stmt 1 view .LVU1965
 7384              	.LBB2151:
 187:../../libdaisy/src/hid/disp/display.h ****         int_fast16_t deltaY = abs((int_fast16_t)y2 - (int_fast16_t)y1);
 7385              		.loc 6 187 52 is_stmt 0 view .LVU1966
 7386 01fe A1EB0608 		sub	r8, r1, r6
 187:../../libdaisy/src/hid/disp/display.h ****         int_fast16_t deltaY = abs((int_fast16_t)y2 - (int_fast16_t)y1);
 7387              		.loc 6 187 22 view .LVU1967
 7388 0202 B8F1000F 		cmp	r8, #0
 7389 0206 B8BF     		it	lt
 7390 0208 C8F10008 		rsblt	r8, r8, #0
 7391              	.LVL490:
 189:../../libdaisy/src/hid/disp/display.h ****         int_fast16_t signY  = ((y1 < y2) ? 1 : -1);
 7392              		.loc 6 189 42 view .LVU1968
 7393 020c 8E42     		cmp	r6, r1
 7394 020e C0F01381 		bcc	.L502
 7395              	.LVL491:
 7396              	.LBB2152:
 7397              	.LBI2152:
  41:../../libdaisy/src/hid/disp/oled_display.h ****     {
 7398              		.loc 1 41 10 is_stmt 1 view .LVU1969
 7399              	.LBB2153:
 7400              	.LBI2153:
 239:../../libdaisy/src/dev/oled_ssd130x.h ****     {
 7401              		.loc 5 239 10 view .LVU1970
 7402              	.LBB2154:
 241:../../libdaisy/src/dev/oled_ssd130x.h ****             return;
 7403              		.loc 5 241 9 is_stmt 0 view .LVU1971
 7404 0212 7F29     		cmp	r1, #127
 7405              	.LBE2154:
 7406              	.LBE2153:
 7407              	.LBE2152:
 189:../../libdaisy/src/hid/disp/display.h ****         int_fast16_t signY  = ((y1 < y2) ? 1 : -1);
 7408              		.loc 6 189 42 view .LVU1972
 7409 0214 4FF0FF39 		mov	r9, #-1
 7410              	.LBB2161:
 7411              	.LBB2158:
 7412              	.LBB2155:
 241:../../libdaisy/src/dev/oled_ssd130x.h ****             return;
 7413              		.loc 5 241 9 view .LVU1973
 7414 0218 0FD8     		bhi	.L503
 7415 021a 079B     		ldr	r3, [sp, #28]
 7416 021c 6BB9     		cbnz	r3, .L503
ARM GAS  C:\Users\VINCIU~1\AppData\Local\Temp\ccnesEGk.s 			page 192


 7417              	.LVL492:
 7418              	.L525:
 244:../../libdaisy/src/dev/oled_ssd130x.h ****         else
 7419              		.loc 5 244 28 view .LVU1974
 7420 021e D308     		lsrs	r3, r2, #3
 244:../../libdaisy/src/dev/oled_ssd130x.h ****         else
 7421              		.loc 5 244 54 view .LVU1975
 7422 0220 02F0070C 		and	ip, r2, #7
 244:../../libdaisy/src/dev/oled_ssd130x.h ****         else
 7423              		.loc 5 244 48 view .LVU1976
 7424 0224 0120     		movs	r0, #1
 244:../../libdaisy/src/dev/oled_ssd130x.h ****         else
 7425              		.loc 5 244 42 view .LVU1977
 7426 0226 01EBC313 		add	r3, r1, r3, lsl #7
 244:../../libdaisy/src/dev/oled_ssd130x.h ****         else
 7427              		.loc 5 244 48 view .LVU1978
 7428 022a 00FA0CF0 		lsl	r0, r0, ip
 244:../../libdaisy/src/dev/oled_ssd130x.h ****         else
 7429              		.loc 5 244 42 view .LVU1979
 7430 022e 2344     		add	r3, r3, r4
 7431 0230 93F814C0 		ldrb	ip, [r3, #20]	@ zero_extendqisi2
 7432 0234 40EA0C00 		orr	r0, r0, ip
 7433 0238 1875     		strb	r0, [r3, #20]
 7434              	.L503:
 7435              	.LVL493:
 244:../../libdaisy/src/dev/oled_ssd130x.h ****         else
 7436              		.loc 5 244 42 view .LVU1980
 7437              	.LBE2155:
 7438              	.LBE2158:
 7439              	.LBE2161:
 199:../../libdaisy/src/hid/disp/display.h ****         {
 7440              		.loc 6 199 26 is_stmt 1 view .LVU1981
 7441 023a 8E42     		cmp	r6, r1
 7442 023c 22D0     		beq	.L504
 7443              	.L505:
 7444              	.LVL494:
 187:../../libdaisy/src/hid/disp/display.h ****         int_fast16_t deltaY = abs((int_fast16_t)y2 - (int_fast16_t)y1);
 7445              		.loc 6 187 22 is_stmt 0 view .LVU1982
 7446 023e C646     		mov	lr, r8
 7447              	.LBE2151:
 7448              	.LBE2150:
 750:Menus.cpp     ****     screen.DrawLine(attackTimeScaleDraw,
 7449              		.loc 2 750 20 view .LVU1983
 7450 0240 9446     		mov	ip, r2
 7451              	.L507:
 7452              	.LVL495:
 7453              	.LBB2169:
 7454              	.LBB2167:
 7455              	.LBB2162:
 7456              	.LBI2162:
  41:../../libdaisy/src/hid/disp/oled_display.h ****     {
 7457              		.loc 1 41 10 is_stmt 1 view .LVU1984
 7458              	.LBB2163:
 7459              	.LBI2163:
 239:../../libdaisy/src/dev/oled_ssd130x.h ****     {
 7460              		.loc 5 239 10 view .LVU1985
 7461              	.LBB2164:
ARM GAS  C:\Users\VINCIU~1\AppData\Local\Temp\ccnesEGk.s 			page 193


 244:../../libdaisy/src/dev/oled_ssd130x.h ****         else
 7462              		.loc 5 244 28 is_stmt 0 view .LVU1986
 7463 0242 4FEADC03 		lsr	r3, ip, #3
 244:../../libdaisy/src/dev/oled_ssd130x.h ****         else
 7464              		.loc 5 244 54 view .LVU1987
 7465 0246 0CF0070A 		and	r10, ip, #7
 244:../../libdaisy/src/dev/oled_ssd130x.h ****         else
 7466              		.loc 5 244 48 view .LVU1988
 7467 024a 0120     		movs	r0, #1
 241:../../libdaisy/src/dev/oled_ssd130x.h ****             return;
 7468              		.loc 5 241 9 view .LVU1989
 7469 024c 7F2E     		cmp	r6, #127
 244:../../libdaisy/src/dev/oled_ssd130x.h ****         else
 7470              		.loc 5 244 42 view .LVU1990
 7471 024e 06EBC313 		add	r3, r6, r3, lsl #7
 244:../../libdaisy/src/dev/oled_ssd130x.h ****         else
 7472              		.loc 5 244 48 view .LVU1991
 7473 0252 00FA0AF0 		lsl	r0, r0, r10
 241:../../libdaisy/src/dev/oled_ssd130x.h ****             return;
 7474              		.loc 5 241 9 view .LVU1992
 7475 0256 08D8     		bhi	.L508
 7476 0258 BCF13F0F 		cmp	ip, #63
 244:../../libdaisy/src/dev/oled_ssd130x.h ****         else
 7477              		.loc 5 244 42 view .LVU1993
 7478 025c 2344     		add	r3, r3, r4
 241:../../libdaisy/src/dev/oled_ssd130x.h ****             return;
 7479              		.loc 5 241 9 view .LVU1994
 7480 025e 04D8     		bhi	.L508
 244:../../libdaisy/src/dev/oled_ssd130x.h ****         else
 7481              		.loc 5 244 42 view .LVU1995
 7482 0260 93F814A0 		ldrb	r10, [r3, #20]	@ zero_extendqisi2
 7483 0264 40EA0A00 		orr	r0, r0, r10
 7484 0268 1875     		strb	r0, [r3, #20]
 7485              	.L508:
 244:../../libdaisy/src/dev/oled_ssd130x.h ****         else
 7486              		.loc 5 244 42 view .LVU1996
 7487              	.LBE2164:
 7488              	.LBE2163:
 7489              	.LBE2162:
 203:../../libdaisy/src/hid/disp/display.h ****             {
 7490              		.loc 6 203 13 view .LVU1997
 7491 026a 5FEA4E03 		lsls	r3, lr, #1
 206:../../libdaisy/src/hid/disp/display.h ****             }
 7492              		.loc 6 206 20 view .LVU1998
 7493 026e 18BF     		it	ne
 7494 0270 4E44     		addne	r6, r6, r9
 7495              	.LVL496:
 209:../../libdaisy/src/hid/disp/display.h ****             {
 7496              		.loc 6 209 13 view .LVU1999
 7497 0272 9845     		cmp	r8, r3
 7498 0274 02DD     		ble	.L510
 211:../../libdaisy/src/hid/disp/display.h ****                 y1 += signY;
 7499              		.loc 6 211 23 view .LVU2000
 7500 0276 C644     		add	lr, lr, r8
 7501              	.LVL497:
 212:../../libdaisy/src/hid/disp/display.h ****             }
 7502              		.loc 6 212 20 view .LVU2001
ARM GAS  C:\Users\VINCIU~1\AppData\Local\Temp\ccnesEGk.s 			page 194


 7503 0278 0CF1FF3C 		add	ip, ip, #-1
 7504              	.LVL498:
 7505              	.L510:
 199:../../libdaisy/src/hid/disp/display.h ****         {
 7506              		.loc 6 199 26 is_stmt 1 view .LVU2002
 7507 027c B142     		cmp	r1, r6
 7508 027e E0D1     		bne	.L507
 199:../../libdaisy/src/hid/disp/display.h ****         {
 7509              		.loc 6 199 26 is_stmt 0 view .LVU2003
 7510 0280 6245     		cmp	r2, ip
 7511 0282 DED1     		bne	.L507
 7512              	.LVL499:
 7513              	.L504:
 199:../../libdaisy/src/hid/disp/display.h ****         {
 7514              		.loc 6 199 26 view .LVU2004
 7515              	.LBE2167:
 7516              	.LBE2169:
 762:Menus.cpp     ****     screen.DrawLine(attackTimeScaleDraw + decayTimeScaleDraw
 7517              		.loc 2 762 5 is_stmt 1 view .LVU2005
 766:Menus.cpp     ****                         + screen.Width() / 4 + releaseTimeScaleDraw,
 7518              		.loc 2 766 46 is_stmt 0 view .LVU2006
 7519 0284 97ED767A 		vldr.32	s14, [r7, #472]
 7520              	.LBB2170:
 7521              	.LBB2171:
 188:../../libdaisy/src/hid/disp/display.h ****         int_fast16_t signX  = ((x1 < x2) ? 1 : -1);
 7522              		.loc 6 188 52 view .LVU2007
 7523 0288 C2F13B08 		rsb	r8, r2, #59
 7524              	.LBE2171:
 7525              	.LBE2170:
 766:Menus.cpp     ****                         + screen.Width() / 4 + releaseTimeScaleDraw,
 7526              		.loc 2 766 46 view .LVU2008
 7527 028c 77EE877A 		vadd.f32	s15, s15, s14
 7528              	.LBB2197:
 7529              	.LBB2194:
 188:../../libdaisy/src/hid/disp/display.h ****         int_fast16_t signX  = ((x1 < x2) ? 1 : -1);
 7530              		.loc 6 188 22 view .LVU2009
 7531 0290 B8F1000F 		cmp	r8, #0
 7532 0294 B8BF     		it	lt
 7533 0296 C8F10008 		rsblt	r8, r8, #0
 7534              	.LBE2194:
 7535              	.LBE2197:
 762:Menus.cpp     ****     screen.DrawLine(attackTimeScaleDraw + decayTimeScaleDraw
 7536              		.loc 2 762 20 view .LVU2010
 7537 029a FCEEE77A 		vcvt.u32.f32	s15, s15
 7538 029e 17EE90CA 		vmov	ip, s15	@ int
 7539              	.LVL500:
 7540              	.LBB2198:
 7541              	.LBI2170:
 181:../../libdaisy/src/hid/disp/display.h ****                   uint_fast8_t y1,
 7542              		.loc 6 181 10 is_stmt 1 view .LVU2011
 7543              	.LBB2195:
 187:../../libdaisy/src/hid/disp/display.h ****         int_fast16_t deltaY = abs((int_fast16_t)y2 - (int_fast16_t)y1);
 7544              		.loc 6 187 52 is_stmt 0 view .LVU2012
 7545 02a2 ACEB010E 		sub	lr, ip, r1
 187:../../libdaisy/src/hid/disp/display.h ****         int_fast16_t deltaY = abs((int_fast16_t)y2 - (int_fast16_t)y1);
 7546              		.loc 6 187 22 view .LVU2013
 7547 02a6 BEF1000F 		cmp	lr, #0
ARM GAS  C:\Users\VINCIU~1\AppData\Local\Temp\ccnesEGk.s 			page 195


 7548 02aa B8BF     		it	lt
 7549 02ac CEF1000E 		rsblt	lr, lr, #0
 7550              	.LVL501:
 189:../../libdaisy/src/hid/disp/display.h ****         int_fast16_t signY  = ((y1 < y2) ? 1 : -1);
 7551              		.loc 6 189 42 view .LVU2014
 7552 02b0 6145     		cmp	r1, ip
 7553 02b2 34BF     		ite	cc
 7554 02b4 4FF0010A 		movcc	r10, #1
 7555 02b8 4FF0FF3A 		movcs	r10, #-1
 7556              	.LVL502:
 190:../../libdaisy/src/hid/disp/display.h ****         int_fast16_t error  = deltaX - deltaY;
 7557              		.loc 6 190 42 view .LVU2015
 7558 02bc 3A2A     		cmp	r2, #58
 191:../../libdaisy/src/hid/disp/display.h ****         int_fast16_t error2;
 7559              		.loc 6 191 22 view .LVU2016
 7560 02be AEEB0800 		sub	r0, lr, r8
 190:../../libdaisy/src/hid/disp/display.h ****         int_fast16_t error  = deltaX - deltaY;
 7561              		.loc 6 190 42 view .LVU2017
 7562 02c2 40F2A180 		bls	.L512
 7563              	.LVL503:
 7564              	.LBB2172:
 7565              	.LBI2172:
  41:../../libdaisy/src/hid/disp/oled_display.h ****     {
 7566              		.loc 1 41 10 is_stmt 1 view .LVU2018
 7567              	.LBB2173:
 7568              	.LBI2173:
 239:../../libdaisy/src/dev/oled_ssd130x.h ****     {
 7569              		.loc 5 239 10 view .LVU2019
 7570              	.LBE2173:
 7571              	.LBE2172:
 190:../../libdaisy/src/hid/disp/display.h ****         int_fast16_t error  = deltaX - deltaY;
 7572              		.loc 6 190 42 is_stmt 0 view .LVU2020
 7573 02c6 4FF0FF33 		mov	r3, #-1
 7574              	.LBB2183:
 7575              	.LBB2178:
 7576              	.LBB2174:
 241:../../libdaisy/src/dev/oled_ssd130x.h ****             return;
 7577              		.loc 5 241 9 view .LVU2021
 7578 02ca BCF17F0F 		cmp	ip, #127
 7579              	.LBE2174:
 7580              	.LBE2178:
 7581              	.LBE2183:
 190:../../libdaisy/src/hid/disp/display.h ****         int_fast16_t error  = deltaX - deltaY;
 7582              		.loc 6 190 42 view .LVU2022
 7583 02ce 0493     		str	r3, [sp, #16]
 7584              	.LBB2184:
 7585              	.LBB2179:
 7586              	.LBB2175:
 241:../../libdaisy/src/dev/oled_ssd130x.h ****             return;
 7587              		.loc 5 241 9 view .LVU2023
 7588 02d0 06D8     		bhi	.L513
 7589              	.LVL504:
 7590              	.L524:
 244:../../libdaisy/src/dev/oled_ssd130x.h ****         else
 7591              		.loc 5 244 42 view .LVU2024
 7592 02d2 0CF56073 		add	r3, ip, #896
 7593 02d6 2344     		add	r3, r3, r4
ARM GAS  C:\Users\VINCIU~1\AppData\Local\Temp\ccnesEGk.s 			page 196


 7594 02d8 1E7D     		ldrb	r6, [r3, #20]	@ zero_extendqisi2
 7595 02da 46F00806 		orr	r6, r6, #8
 7596 02de 1E75     		strb	r6, [r3, #20]
 7597              	.L513:
 7598              	.LVL505:
 244:../../libdaisy/src/dev/oled_ssd130x.h ****         else
 7599              		.loc 5 244 42 view .LVU2025
 7600              	.LBE2175:
 7601              	.LBE2179:
 7602              	.LBE2184:
 199:../../libdaisy/src/hid/disp/display.h ****         {
 7603              		.loc 6 199 26 is_stmt 1 view .LVU2026
 7604 02e0 6145     		cmp	r1, ip
 7605 02e2 01D1     		bne	.L516
 7606 02e4 3B2A     		cmp	r2, #59
 7607 02e6 3FD0     		beq	.L514
 7608              	.L516:
 7609              	.LVL506:
 203:../../libdaisy/src/hid/disp/display.h ****             {
 7610              		.loc 6 203 23 is_stmt 0 view .LVU2027
 7611 02e8 C8F10009 		rsb	r9, r8, #0
 7612              	.LVL507:
 7613              	.L518:
 7614              	.LBB2185:
 7615              	.LBI2185:
  41:../../libdaisy/src/hid/disp/oled_display.h ****     {
 7616              		.loc 1 41 10 is_stmt 1 view .LVU2028
 7617              	.LBB2186:
 7618              	.LBI2186:
 239:../../libdaisy/src/dev/oled_ssd130x.h ****     {
 7619              		.loc 5 239 10 view .LVU2029
 7620              	.LBB2187:
 244:../../libdaisy/src/dev/oled_ssd130x.h ****         else
 7621              		.loc 5 244 48 is_stmt 0 view .LVU2030
 7622 02ec 4FF0010B 		mov	fp, #1
 244:../../libdaisy/src/dev/oled_ssd130x.h ****         else
 7623              		.loc 5 244 28 view .LVU2031
 7624 02f0 D308     		lsrs	r3, r2, #3
 244:../../libdaisy/src/dev/oled_ssd130x.h ****         else
 7625              		.loc 5 244 54 view .LVU2032
 7626 02f2 02F00706 		and	r6, r2, #7
 241:../../libdaisy/src/dev/oled_ssd130x.h ****             return;
 7627              		.loc 5 241 9 view .LVU2033
 7628 02f6 7F29     		cmp	r1, #127
 244:../../libdaisy/src/dev/oled_ssd130x.h ****         else
 7629              		.loc 5 244 42 view .LVU2034
 7630 02f8 01EBC313 		add	r3, r1, r3, lsl #7
 7631              	.LBE2187:
 7632              	.LBE2186:
 7633              	.LBE2185:
 202:../../libdaisy/src/hid/disp/display.h ****             if(error2 > -deltaY)
 7634              		.loc 6 202 20 view .LVU2035
 7635 02fc 00FA0BF7 		lsl	r7, r0, fp
 7636              	.LVL508:
 7637              	.LBB2190:
 7638              	.LBB2189:
 7639              	.LBB2188:
ARM GAS  C:\Users\VINCIU~1\AppData\Local\Temp\ccnesEGk.s 			page 197


 244:../../libdaisy/src/dev/oled_ssd130x.h ****         else
 7640              		.loc 5 244 48 view .LVU2036
 7641 0300 0BFA06F6 		lsl	r6, fp, r6
 241:../../libdaisy/src/dev/oled_ssd130x.h ****             return;
 7642              		.loc 5 241 9 view .LVU2037
 7643 0304 07D8     		bhi	.L519
 7644 0306 3F2A     		cmp	r2, #63
 244:../../libdaisy/src/dev/oled_ssd130x.h ****         else
 7645              		.loc 5 244 42 view .LVU2038
 7646 0308 2344     		add	r3, r3, r4
 241:../../libdaisy/src/dev/oled_ssd130x.h ****             return;
 7647              		.loc 5 241 9 view .LVU2039
 7648 030a 04D8     		bhi	.L519
 244:../../libdaisy/src/dev/oled_ssd130x.h ****         else
 7649              		.loc 5 244 42 view .LVU2040
 7650 030c 93F814B0 		ldrb	fp, [r3, #20]	@ zero_extendqisi2
 7651 0310 46EA0B06 		orr	r6, r6, fp
 7652 0314 1E75     		strb	r6, [r3, #20]
 7653              	.L519:
 244:../../libdaisy/src/dev/oled_ssd130x.h ****         else
 7654              		.loc 5 244 42 view .LVU2041
 7655              	.LBE2188:
 7656              	.LBE2189:
 7657              	.LBE2190:
 203:../../libdaisy/src/hid/disp/display.h ****             {
 7658              		.loc 6 203 13 view .LVU2042
 7659 0316 B9EB400F 		cmp	r9, r0, lsl #1
 7660 031a 02DA     		bge	.L520
 205:../../libdaisy/src/hid/disp/display.h ****                 x1 += signX;
 7661              		.loc 6 205 23 view .LVU2043
 7662 031c A0EB0800 		sub	r0, r0, r8
 7663              	.LVL509:
 206:../../libdaisy/src/hid/disp/display.h ****             }
 7664              		.loc 6 206 20 view .LVU2044
 7665 0320 5144     		add	r1, r1, r10
 7666              	.LVL510:
 7667              	.L520:
 209:../../libdaisy/src/hid/disp/display.h ****             {
 7668              		.loc 6 209 13 view .LVU2045
 7669 0322 BE45     		cmp	lr, r7
 7670 0324 02DD     		ble	.L521
 212:../../libdaisy/src/hid/disp/display.h ****             }
 7671              		.loc 6 212 20 view .LVU2046
 7672 0326 049B     		ldr	r3, [sp, #16]
 211:../../libdaisy/src/hid/disp/display.h ****                 y1 += signY;
 7673              		.loc 6 211 23 view .LVU2047
 7674 0328 7044     		add	r0, r0, lr
 7675              	.LVL511:
 212:../../libdaisy/src/hid/disp/display.h ****             }
 7676              		.loc 6 212 20 view .LVU2048
 7677 032a 1A44     		add	r2, r2, r3
 7678              	.LVL512:
 7679              	.L521:
 199:../../libdaisy/src/hid/disp/display.h ****         {
 7680              		.loc 6 199 26 is_stmt 1 view .LVU2049
 7681 032c 8C45     		cmp	ip, r1
 7682 032e DDD1     		bne	.L518
ARM GAS  C:\Users\VINCIU~1\AppData\Local\Temp\ccnesEGk.s 			page 198


 199:../../libdaisy/src/hid/disp/display.h ****         {
 7683              		.loc 6 199 26 is_stmt 0 view .LVU2050
 7684 0330 3B2A     		cmp	r2, #59
 7685 0332 DBD1     		bne	.L518
 7686 0334 18E0     		b	.L604
 7687              	.L605:
 7688 0336 00BF     		.align	2
 7689              	.L603:
 7690 0338 00000000 		.word	Font_6x8
 7691 033c 20000400 		.word	262176
 7692 0340 00000000 		.word	.LC8
 7693 0344 30000400 		.word	262192
 7694 0348 04000000 		.word	.LC9
 7695 034c 40000400 		.word	262208
 7696 0350 08000000 		.word	.LC10
 7697 0354 50000400 		.word	262224
 7698 0358 0C000000 		.word	.LC11
 7699 035c 00006C42 		.word	1114374144
 7700 0360 00000042 		.word	1107296256
 7701 0364 0000C842 		.word	1120403456
 7702              	.L604:
 7703              	.LVL513:
 7704              	.L514:
 199:../../libdaisy/src/hid/disp/display.h ****         {
 7705              		.loc 6 199 26 view .LVU2051
 7706              	.LBE2195:
 7707              	.LBE2198:
 7708              	.LBB2199:
 7709              	.LBB2200:
 7710              	.LBB2201:
 7711              	.LBB2202:
 7712              	.LBB2203:
 111:../../libdaisy/src/dev/oled_ssd130x.h ****         spi_.BlockingTransmit(&cmd, 1);
 7713              		.loc 5 111 24 view .LVU2052
 7714 0368 05F10807 		add	r7, r5, #8
 7715 036c 05F10C06 		add	r6, r5, #12
 7716 0370 05F20C49 		addw	r9, r5, #1036
 7717 0374 B024     		movs	r4, #176
 7718              	.LVL514:
 7719              	.L522:
 111:../../libdaisy/src/dev/oled_ssd130x.h ****         spi_.BlockingTransmit(&cmd, 1);
 7720              		.loc 5 111 24 view .LVU2053
 7721 0376 4FF00008 		mov	r8, #0
 111:../../libdaisy/src/dev/oled_ssd130x.h ****         spi_.BlockingTransmit(&cmd, 1);
 7722              		.loc 5 111 23 view .LVU2054
 7723 037a 3846     		mov	r0, r7
 7724 037c 8DF82740 		strb	r4, [sp, #39]
 7725              	.LVL515:
 111:../../libdaisy/src/dev/oled_ssd130x.h ****         spi_.BlockingTransmit(&cmd, 1);
 7726              		.loc 5 111 23 view .LVU2055
 7727              	.LBE2203:
 7728              	.LBI2202:
 109:../../libdaisy/src/dev/oled_ssd130x.h ****     {
 7729              		.loc 5 109 10 is_stmt 1 view .LVU2056
 7730              	.LBB2204:
 111:../../libdaisy/src/dev/oled_ssd130x.h ****         spi_.BlockingTransmit(&cmd, 1);
 7731              		.loc 5 111 9 view .LVU2057
ARM GAS  C:\Users\VINCIU~1\AppData\Local\Temp\ccnesEGk.s 			page 199


 7732              	.LBE2204:
 7733              	.LBE2202:
 7734              		.loc 5 270 22 is_stmt 0 view .LVU2058
 7735 0380 0134     		adds	r4, r4, #1
 7736              	.LVL516:
 7737              	.LBB2207:
 7738              	.LBB2205:
 111:../../libdaisy/src/dev/oled_ssd130x.h ****         spi_.BlockingTransmit(&cmd, 1);
 7739              		.loc 5 111 23 view .LVU2059
 7740 0382 4146     		mov	r1, r8
 7741 0384 FFF7FEFF 		bl	dsy_gpio_write
 7742              	.LVL517:
 112:../../libdaisy/src/dev/oled_ssd130x.h ****     };
 7743              		.loc 5 112 9 is_stmt 1 view .LVU2060
 112:../../libdaisy/src/dev/oled_ssd130x.h ****     };
 7744              		.loc 5 112 30 is_stmt 0 view .LVU2061
 7745 0388 6423     		movs	r3, #100
 7746 038a 0122     		movs	r2, #1
 7747 038c 0DF12701 		add	r1, sp, #39
 7748 0390 2846     		mov	r0, r5
 7749              	.LBE2205:
 7750              	.LBE2207:
 7751              		.loc 5 270 22 view .LVU2062
 7752 0392 E4B2     		uxtb	r4, r4
 7753              	.LBB2208:
 7754              	.LBB2206:
 112:../../libdaisy/src/dev/oled_ssd130x.h ****     };
 7755              		.loc 5 112 30 view .LVU2063
 7756 0394 FFF7FEFF 		bl	_ZN5daisy9SpiHandle16BlockingTransmitEPhjm
 7757              	.LVL518:
 112:../../libdaisy/src/dev/oled_ssd130x.h ****     };
 7758              		.loc 5 112 30 view .LVU2064
 7759              	.LBE2206:
 7760              	.LBE2208:
 7761              	.LBB2209:
 7762              	.LBB2210:
 111:../../libdaisy/src/dev/oled_ssd130x.h ****         spi_.BlockingTransmit(&cmd, 1);
 7763              		.loc 5 111 23 view .LVU2065
 7764 0398 4146     		mov	r1, r8
 7765 039a 3846     		mov	r0, r7
 7766 039c 8DF82780 		strb	r8, [sp, #39]
 7767              	.LVL519:
 111:../../libdaisy/src/dev/oled_ssd130x.h ****         spi_.BlockingTransmit(&cmd, 1);
 7768              		.loc 5 111 23 view .LVU2066
 7769              	.LBE2210:
 7770              	.LBI2209:
 109:../../libdaisy/src/dev/oled_ssd130x.h ****     {
 7771              		.loc 5 109 10 is_stmt 1 view .LVU2067
 7772              	.LBB2211:
 111:../../libdaisy/src/dev/oled_ssd130x.h ****         spi_.BlockingTransmit(&cmd, 1);
 7773              		.loc 5 111 9 view .LVU2068
 111:../../libdaisy/src/dev/oled_ssd130x.h ****         spi_.BlockingTransmit(&cmd, 1);
 7774              		.loc 5 111 23 is_stmt 0 view .LVU2069
 7775 03a0 FFF7FEFF 		bl	dsy_gpio_write
 7776              	.LVL520:
 112:../../libdaisy/src/dev/oled_ssd130x.h ****     };
 7777              		.loc 5 112 9 is_stmt 1 view .LVU2070
ARM GAS  C:\Users\VINCIU~1\AppData\Local\Temp\ccnesEGk.s 			page 200


 112:../../libdaisy/src/dev/oled_ssd130x.h ****     };
 7778              		.loc 5 112 30 is_stmt 0 view .LVU2071
 7779 03a4 0122     		movs	r2, #1
 7780 03a6 6423     		movs	r3, #100
 7781 03a8 0DF12701 		add	r1, sp, #39
 7782 03ac 2846     		mov	r0, r5
 7783 03ae FFF7FEFF 		bl	_ZN5daisy9SpiHandle16BlockingTransmitEPhjm
 7784              	.LVL521:
 112:../../libdaisy/src/dev/oled_ssd130x.h ****     };
 7785              		.loc 5 112 30 view .LVU2072
 7786 03b2 1023     		movs	r3, #16
 7787              	.LBE2211:
 7788              	.LBE2209:
 7789              	.LBB2212:
 7790              	.LBB2213:
 111:../../libdaisy/src/dev/oled_ssd130x.h ****         spi_.BlockingTransmit(&cmd, 1);
 7791              		.loc 5 111 23 view .LVU2073
 7792 03b4 4146     		mov	r1, r8
 7793 03b6 3846     		mov	r0, r7
 7794 03b8 8DF82730 		strb	r3, [sp, #39]
 7795              	.LVL522:
 111:../../libdaisy/src/dev/oled_ssd130x.h ****         spi_.BlockingTransmit(&cmd, 1);
 7796              		.loc 5 111 23 view .LVU2074
 7797              	.LBE2213:
 7798              	.LBI2212:
 109:../../libdaisy/src/dev/oled_ssd130x.h ****     {
 7799              		.loc 5 109 10 is_stmt 1 view .LVU2075
 7800              	.LBB2214:
 111:../../libdaisy/src/dev/oled_ssd130x.h ****         spi_.BlockingTransmit(&cmd, 1);
 7801              		.loc 5 111 9 view .LVU2076
 111:../../libdaisy/src/dev/oled_ssd130x.h ****         spi_.BlockingTransmit(&cmd, 1);
 7802              		.loc 5 111 23 is_stmt 0 view .LVU2077
 7803 03bc FFF7FEFF 		bl	dsy_gpio_write
 7804              	.LVL523:
 112:../../libdaisy/src/dev/oled_ssd130x.h ****     };
 7805              		.loc 5 112 9 is_stmt 1 view .LVU2078
 112:../../libdaisy/src/dev/oled_ssd130x.h ****     };
 7806              		.loc 5 112 30 is_stmt 0 view .LVU2079
 7807 03c0 6423     		movs	r3, #100
 7808 03c2 0122     		movs	r2, #1
 7809 03c4 0DF12701 		add	r1, sp, #39
 7810 03c8 2846     		mov	r0, r5
 7811 03ca FFF7FEFF 		bl	_ZN5daisy9SpiHandle16BlockingTransmitEPhjm
 7812              	.LVL524:
 112:../../libdaisy/src/dev/oled_ssd130x.h ****     };
 7813              		.loc 5 112 30 view .LVU2080
 7814              	.LBE2214:
 7815              	.LBE2212:
 7816              	.LBB2215:
 7817              	.LBI2215:
 115:../../libdaisy/src/dev/oled_ssd130x.h ****     {
 7818              		.loc 5 115 10 is_stmt 1 view .LVU2081
 7819              	.LBB2216:
 117:../../libdaisy/src/dev/oled_ssd130x.h ****         spi_.BlockingTransmit(buff, size);
 7820              		.loc 5 117 9 view .LVU2082
 117:../../libdaisy/src/dev/oled_ssd130x.h ****         spi_.BlockingTransmit(buff, size);
 7821              		.loc 5 117 23 is_stmt 0 view .LVU2083
ARM GAS  C:\Users\VINCIU~1\AppData\Local\Temp\ccnesEGk.s 			page 201


 7822 03ce 0121     		movs	r1, #1
 7823 03d0 3846     		mov	r0, r7
 7824 03d2 FFF7FEFF 		bl	dsy_gpio_write
 7825              	.LVL525:
 118:../../libdaisy/src/dev/oled_ssd130x.h ****     };
 7826              		.loc 5 118 9 is_stmt 1 view .LVU2084
 118:../../libdaisy/src/dev/oled_ssd130x.h ****     };
 7827              		.loc 5 118 30 is_stmt 0 view .LVU2085
 7828 03d6 8022     		movs	r2, #128
 7829 03d8 3146     		mov	r1, r6
 7830 03da 6423     		movs	r3, #100
 7831              	.LBE2216:
 7832              	.LBE2215:
 7833              		.loc 5 270 22 view .LVU2086
 7834 03dc 1644     		add	r6, r6, r2
 7835              	.LVL526:
 7836              	.LBB2218:
 7837              	.LBB2217:
 118:../../libdaisy/src/dev/oled_ssd130x.h ****     };
 7838              		.loc 5 118 30 view .LVU2087
 7839 03de 2846     		mov	r0, r5
 7840 03e0 FFF7FEFF 		bl	_ZN5daisy9SpiHandle16BlockingTransmitEPhjm
 7841              	.LVL527:
 118:../../libdaisy/src/dev/oled_ssd130x.h ****     };
 7842              		.loc 5 118 30 view .LVU2088
 7843              	.LBE2217:
 7844              	.LBE2218:
 7845              		.loc 5 270 9 is_stmt 1 view .LVU2089
 7846              		.loc 5 270 22 view .LVU2090
 7847 03e4 4E45     		cmp	r6, r9
 7848 03e6 C6D1     		bne	.L522
 7849              	.LBE2201:
 7850              	.LBE2200:
 7851              	.LBE2199:
 772:Menus.cpp     **** }
 7852              		.loc 2 772 1 is_stmt 0 view .LVU2091
 7853 03e8 0BB0     		add	sp, sp, #44
 7854              		.cfi_remember_state
 7855              		.cfi_def_cfa_offset 36
 7856              		@ sp needed
 7857 03ea BDE8F08F 		pop	{r4, r5, r6, r7, r8, r9, r10, fp, pc}
 7858              	.LVL528:
 7859              	.L484:
 7860              		.cfi_restore_state
 7861              	.LBB2219:
 7862              	.LBB2125:
 7863              	.LBB2122:
 7864              	.LBB2111:
 7865              	.LBB2107:
 239:../../libdaisy/src/dev/oled_ssd130x.h ****     {
 7866              		.loc 5 239 10 is_stmt 1 view .LVU2092
 7867              	.LBE2107:
 7868              	.LBE2111:
 7869              	.LBE2122:
 189:../../libdaisy/src/hid/disp/display.h ****         int_fast16_t signY  = ((y1 < y2) ? 1 : -1);
 7870              		.loc 6 189 42 is_stmt 0 view .LVU2093
 7871 03ee 4FF0FF38 		mov	r8, #-1
ARM GAS  C:\Users\VINCIU~1\AppData\Local\Temp\ccnesEGk.s 			page 202


 7872              	.LVL529:
 7873              	.L523:
 7874              	.LBB2123:
 7875              	.LBB2112:
 7876              	.LBB2108:
 7877              	.LBB2105:
 244:../../libdaisy/src/dev/oled_ssd130x.h ****         else
 7878              		.loc 5 244 42 view .LVU2094
 7879 03f2 01F5C073 		add	r3, r1, #384
 7880 03f6 2344     		add	r3, r3, r4
 7881 03f8 1A7D     		ldrb	r2, [r3, #20]	@ zero_extendqisi2
 7882 03fa 42F00202 		orr	r2, r2, #2
 7883 03fe 1A75     		strb	r2, [r3, #20]
 7884 0400 5EE6     		b	.L485
 7885              	.LVL530:
 7886              	.L490:
 244:../../libdaisy/src/dev/oled_ssd130x.h ****         else
 7887              		.loc 5 244 42 view .LVU2095
 7888              	.LBE2105:
 7889              	.LBE2108:
 7890              	.LBE2112:
 7891              	.LBE2123:
 211:../../libdaisy/src/hid/disp/display.h ****                 y1 += signY;
 7892              		.loc 6 211 23 view .LVU2096
 7893 0402 CC44     		add	ip, ip, r9
 7894              	.LVL531:
 212:../../libdaisy/src/hid/disp/display.h ****             }
 7895              		.loc 6 212 20 view .LVU2097
 7896 0404 0138     		subs	r0, r0, #1
 7897              	.LVL532:
 212:../../libdaisy/src/hid/disp/display.h ****             }
 7898              		.loc 6 212 20 view .LVU2098
 7899 0406 7BE6     		b	.L491
 7900              	.LVL533:
 7901              	.L512:
 212:../../libdaisy/src/hid/disp/display.h ****             }
 7902              		.loc 6 212 20 view .LVU2099
 7903              	.LBE2125:
 7904              	.LBE2219:
 7905              	.LBB2220:
 7906              	.LBB2196:
 7907              	.LBB2191:
  41:../../libdaisy/src/hid/disp/oled_display.h ****     {
 7908              		.loc 1 41 10 is_stmt 1 view .LVU2100
 7909              	.LBB2180:
 239:../../libdaisy/src/dev/oled_ssd130x.h ****     {
 7910              		.loc 5 239 10 view .LVU2101
 7911              	.LBE2180:
 7912              	.LBE2191:
 190:../../libdaisy/src/hid/disp/display.h ****         int_fast16_t error  = deltaX - deltaY;
 7913              		.loc 6 190 42 is_stmt 0 view .LVU2102
 7914 0408 0123     		movs	r3, #1
 7915              	.LBB2192:
 7916              	.LBB2181:
 7917              	.LBB2176:
 241:../../libdaisy/src/dev/oled_ssd130x.h ****             return;
 7918              		.loc 5 241 9 view .LVU2103
ARM GAS  C:\Users\VINCIU~1\AppData\Local\Temp\ccnesEGk.s 			page 203


 7919 040a BCF17F0F 		cmp	ip, #127
 7920              	.LBE2176:
 7921              	.LBE2181:
 7922              	.LBE2192:
 190:../../libdaisy/src/hid/disp/display.h ****         int_fast16_t error  = deltaX - deltaY;
 7923              		.loc 6 190 42 view .LVU2104
 7924 040e 0493     		str	r3, [sp, #16]
 7925              	.LBB2193:
 7926              	.LBB2182:
 7927              	.LBB2177:
 241:../../libdaisy/src/dev/oled_ssd130x.h ****             return;
 7928              		.loc 5 241 9 view .LVU2105
 7929 0410 7FF65FAF 		bls	.L524
 7930 0414 68E7     		b	.L516
 7931              	.LVL534:
 7932              	.L493:
 241:../../libdaisy/src/dev/oled_ssd130x.h ****             return;
 7933              		.loc 5 241 9 view .LVU2106
 7934              	.LBE2177:
 7935              	.LBE2182:
 7936              	.LBE2193:
 7937              	.LBE2196:
 7938              	.LBE2220:
 7939              	.LBB2221:
 7940              	.LBB2147:
 191:../../libdaisy/src/hid/disp/display.h ****         int_fast16_t error2;
 7941              		.loc 6 191 22 view .LVU2107
 7942 0416 049B     		ldr	r3, [sp, #16]
 7943              	.LVL535:
 7944              	.LBB2145:
 7945              	.LBB2136:
 7946              	.LBB2133:
 241:../../libdaisy/src/dev/oled_ssd130x.h ****             return;
 7947              		.loc 5 241 28 view .LVU2108
 7948 0418 3F2A     		cmp	r2, #63
 7949              	.LBE2133:
 7950              	.LBE2136:
 7951              	.LBE2145:
 191:../../libdaisy/src/hid/disp/display.h ****         int_fast16_t error2;
 7952              		.loc 6 191 22 view .LVU2109
 7953 041a AEEB030C 		sub	ip, lr, r3
 7954              	.LVL536:
 7955              	.LBB2146:
  41:../../libdaisy/src/hid/disp/oled_display.h ****     {
 7956              		.loc 1 41 10 is_stmt 1 view .LVU2110
 7957              	.LBB2137:
 239:../../libdaisy/src/dev/oled_ssd130x.h ****     {
 7958              		.loc 5 239 10 view .LVU2111
 7959              	.LBB2134:
 241:../../libdaisy/src/dev/oled_ssd130x.h ****             return;
 7960              		.loc 5 241 28 is_stmt 0 view .LVU2112
 7961 041e 94BF     		ite	ls
 7962 0420 0023     		movls	r3, #0
 7963 0422 0123     		movhi	r3, #1
 241:../../libdaisy/src/dev/oled_ssd130x.h ****             return;
 7964              		.loc 5 241 9 view .LVU2113
 7965 0424 7F2E     		cmp	r6, #127
ARM GAS  C:\Users\VINCIU~1\AppData\Local\Temp\ccnesEGk.s 			page 204


 241:../../libdaisy/src/dev/oled_ssd130x.h ****             return;
 7966              		.loc 5 241 28 view .LVU2114
 7967 0426 0793     		str	r3, [sp, #28]
 241:../../libdaisy/src/dev/oled_ssd130x.h ****             return;
 7968              		.loc 5 241 9 view .LVU2115
 7969 0428 00F2FC81 		bhi	.L538
 7970 042c 002B     		cmp	r3, #0
 7971 042e 40F0F981 		bne	.L538
 7972              	.LBE2134:
 7973              	.LBE2137:
 7974              	.LBE2146:
 190:../../libdaisy/src/hid/disp/display.h ****         int_fast16_t error  = deltaX - deltaY;
 7975              		.loc 6 190 42 view .LVU2116
 7976 0432 0123     		movs	r3, #1
 7977 0434 0693     		str	r3, [sp, #24]
 7978 0436 98E6     		b	.L526
 7979              	.LVL537:
 7980              	.L502:
 190:../../libdaisy/src/hid/disp/display.h ****         int_fast16_t error  = deltaX - deltaY;
 7981              		.loc 6 190 42 view .LVU2117
 7982              	.LBE2147:
 7983              	.LBE2221:
 7984              	.LBB2222:
 7985              	.LBB2168:
 7986              	.LBB2165:
  41:../../libdaisy/src/hid/disp/oled_display.h ****     {
 7987              		.loc 1 41 10 is_stmt 1 view .LVU2118
 7988              	.LBB2159:
 239:../../libdaisy/src/dev/oled_ssd130x.h ****     {
 7989              		.loc 5 239 10 view .LVU2119
 7990              	.LBB2156:
 241:../../libdaisy/src/dev/oled_ssd130x.h ****             return;
 7991              		.loc 5 241 9 is_stmt 0 view .LVU2120
 7992 0438 7F29     		cmp	r1, #127
 7993              	.LBE2156:
 7994              	.LBE2159:
 7995              	.LBE2165:
 189:../../libdaisy/src/hid/disp/display.h ****         int_fast16_t signY  = ((y1 < y2) ? 1 : -1);
 7996              		.loc 6 189 42 view .LVU2121
 7997 043a 4FF00109 		mov	r9, #1
 7998              	.LBB2166:
 7999              	.LBB2160:
 8000              	.LBB2157:
 241:../../libdaisy/src/dev/oled_ssd130x.h ****             return;
 8001              		.loc 5 241 9 view .LVU2122
 8002 043e 3FF6FEAE 		bhi	.L505
 8003 0442 079B     		ldr	r3, [sp, #28]
 8004 0444 002B     		cmp	r3, #0
 8005 0446 3FF4EAAE 		beq	.L525
 8006 044a F8E6     		b	.L505
 8007              	.LVL538:
 8008              	.L595:
 241:../../libdaisy/src/dev/oled_ssd130x.h ****             return;
 8009              		.loc 5 241 9 view .LVU2123
 8010              	.LBE2157:
 8011              	.LBE2160:
 8012              	.LBE2166:
ARM GAS  C:\Users\VINCIU~1\AppData\Local\Temp\ccnesEGk.s 			page 205


 8013              	.LBE2168:
 8014              	.LBE2222:
 642:Menus.cpp     ****         this->menuStateEnv = this->menuStateEnv + 1;
 8015              		.loc 2 642 9 is_stmt 1 view .LVU2124
 642:Menus.cpp     ****         this->menuStateEnv = this->menuStateEnv + 1;
 8016              		.loc 2 642 49 is_stmt 0 view .LVU2125
 8017 044c 0133     		adds	r3, r3, #1
 643:Menus.cpp     ****         if(this->menuStateEnv > 3)
 8018              		.loc 2 643 9 view .LVU2126
 8019 044e 032B     		cmp	r3, #3
 642:Menus.cpp     ****         this->menuStateEnv = this->menuStateEnv + 1;
 8020              		.loc 2 642 28 view .LVU2127
 8021 0450 C7F8AC31 		str	r3, [r7, #428]
 643:Menus.cpp     ****         if(this->menuStateEnv > 3)
 8022              		.loc 2 643 9 is_stmt 1 view .LVU2128
 8023 0454 7FF7EDAD 		ble	.L436
 8024              	.L433:
 645:Menus.cpp     ****             this->menuStateEnv = 0;
 8025              		.loc 2 645 13 view .LVU2129
 645:Menus.cpp     ****             this->menuStateEnv = 0;
 8026              		.loc 2 645 32 is_stmt 0 view .LVU2130
 8027 0458 0023     		movs	r3, #0
 8028 045a C7F8AC31 		str	r3, [r7, #428]
 648:Menus.cpp     ****     if(menuStateEnv == 0)
 8029              		.loc 2 648 5 is_stmt 1 view .LVU2131
 8030              	.L435:
 650:Menus.cpp     ****         this->attackTime += this->encoderRight.Increment() * 3.3;
 8031              		.loc 2 650 9 view .LVU2132
 8032              	.LVL539:
 8033              	.LBB2223:
 8034              	.LBI2223:
  41:../../libdaisy/src/hid/encoder.h ****     /** Returns true if the encoder was just pressed.
 8035              		.loc 3 41 20 view .LVU2133
 8036              	.LBB2224:
  41:../../libdaisy/src/hid/encoder.h ****     /** Returns true if the encoder was just pressed.
 8037              		.loc 3 41 40 view .LVU2134
  41:../../libdaisy/src/hid/encoder.h ****     /** Returns true if the encoder was just pressed.
 8038              		.loc 3 41 40 is_stmt 0 view .LVU2135
 8039              	.LBE2224:
 8040              	.LBE2223:
 650:Menus.cpp     ****         this->attackTime += this->encoderRight.Increment() * 3.3;
 8041              		.loc 2 650 26 view .LVU2136
 8042 045e 97ED667A 		vldr.32	s14, [r7, #408]
 651:Menus.cpp     ****         env.SetTime(daisysp::ADSR_SEG_ATTACK, this->attackTime / 100);
 8043              		.loc 2 651 20 view .LVU2137
 8044 0462 0121     		movs	r1, #1
 650:Menus.cpp     ****         this->attackTime += this->encoderRight.Increment() * 3.3;
 8045              		.loc 2 650 60 view .LVU2138
 8046 0464 D7ED127A 		vldr.32	s15, [r7, #72]	@ int
 651:Menus.cpp     ****         env.SetTime(daisysp::ADSR_SEG_ATTACK, this->attackTime / 100);
 8047              		.loc 2 651 20 view .LVU2139
 8048 0468 2846     		mov	r0, r5
 8049 046a 1FED420A 		vldr.32	s0, .L603+44
 650:Menus.cpp     ****         this->attackTime += this->encoderRight.Increment() * 3.3;
 8050              		.loc 2 650 60 view .LVU2140
 8051 046e B8EEE76B 		vcvt.f64.s32	d6, s15
 650:Menus.cpp     ****         this->attackTime += this->encoderRight.Increment() * 3.3;
ARM GAS  C:\Users\VINCIU~1\AppData\Local\Temp\ccnesEGk.s 			page 206


 8052              		.loc 2 650 26 view .LVU2141
 8053 0472 B7EEC77A 		vcvt.f64.f32	d7, s14
 8054 0476 9FEDE65B 		vldr.64	d5, .L606
 8055 047a A6EE057B 		vfma.f64	d7, d6, d5
 8056 047e B7EEC77B 		vcvt.f32.f64	s14, d7
 651:Menus.cpp     ****         env.SetTime(daisysp::ADSR_SEG_ATTACK, this->attackTime / 100);
 8057              		.loc 2 651 20 view .LVU2142
 8058 0482 87EE000A 		vdiv.f32	s0, s14, s0
 650:Menus.cpp     ****         this->attackTime += this->encoderRight.Increment() * 3.3;
 8059              		.loc 2 650 26 view .LVU2143
 8060 0486 87ED667A 		vstr.32	s14, [r7, #408]
 651:Menus.cpp     ****         env.SetTime(daisysp::ADSR_SEG_ATTACK, this->attackTime / 100);
 8061              		.loc 2 651 9 is_stmt 1 view .LVU2144
 651:Menus.cpp     ****         env.SetTime(daisysp::ADSR_SEG_ATTACK, this->attackTime / 100);
 8062              		.loc 2 651 20 is_stmt 0 view .LVU2145
 8063 048a FFF7FEFF 		bl	_ZN7daisysp4Adsr7SetTimeEif
 8064              	.LVL540:
 652:Menus.cpp     ****         this->attackTimeScaleDraw += this->encoderRight.Increment();
 8065              		.loc 2 652 9 is_stmt 1 view .LVU2146
 8066              	.LBB2225:
 8067              	.LBI2225:
  41:../../libdaisy/src/hid/encoder.h ****     /** Returns true if the encoder was just pressed.
 8068              		.loc 3 41 20 view .LVU2147
 8069              	.LBB2226:
  41:../../libdaisy/src/hid/encoder.h ****     /** Returns true if the encoder was just pressed.
 8070              		.loc 3 41 40 view .LVU2148
  41:../../libdaisy/src/hid/encoder.h ****     /** Returns true if the encoder was just pressed.
 8071              		.loc 3 41 40 is_stmt 0 view .LVU2149
 8072              	.LBE2226:
 8073              	.LBE2225:
 652:Menus.cpp     ****         this->attackTimeScaleDraw += this->encoderRight.Increment();
 8074              		.loc 2 652 35 view .LVU2150
 8075 048e D7ED127A 		vldr.32	s15, [r7, #72]	@ int
 8076 0492 D7ED696A 		vldr.32	s13, [r7, #420]
 653:Menus.cpp     ****         if(attackTimeScaleDraw >= screen.Width() / 4)
 8077              		.loc 2 653 9 view .LVU2151
 8078 0496 9FEDE07A 		vldr.32	s14, .L606+8
 652:Menus.cpp     ****         this->attackTimeScaleDraw += this->encoderRight.Increment();
 8079              		.loc 2 652 35 view .LVU2152
 8080 049a F8EEE77A 		vcvt.f32.s32	s15, s15
 8081 049e 77EEA67A 		vadd.f32	s15, s15, s13
 653:Menus.cpp     ****         if(attackTimeScaleDraw >= screen.Width() / 4)
 8082              		.loc 2 653 9 is_stmt 1 view .LVU2153
 8083 04a2 F4EEC77A 		vcmpe.f32	s15, s14
 8084 04a6 F1EE10FA 		vmrs	APSR_nzcv, FPSCR
 8085 04aa 80F2A881 		bge	.L599
 657:Menus.cpp     ****         if(attackTimeScaleDraw <= 0)
 8086              		.loc 2 657 9 view .LVU2154
 8087 04ae F5EEC07A 		vcmpe.f32	s15, #0
 8088 04b2 0023     		movs	r3, #0
 8089 04b4 F1EE10FA 		vmrs	APSR_nzcv, FPSCR
 652:Menus.cpp     ****         this->attackTimeScaleDraw += this->encoderRight.Increment();
 8090              		.loc 2 652 35 is_stmt 0 view .LVU2155
 8091 04b8 8CBF     		ite	hi
 8092 04ba C7ED697A 		vstrhi.32	s15, [r7, #420]
 659:Menus.cpp     ****             attackTimeScaleDraw = 0;
 8093              		.loc 2 659 13 is_stmt 1 view .LVU2156
ARM GAS  C:\Users\VINCIU~1\AppData\Local\Temp\ccnesEGk.s 			page 207


 659:Menus.cpp     ****             attackTimeScaleDraw = 0;
 8094              		.loc 2 659 33 is_stmt 0 view .LVU2157
 8095 04be C7F8A431 		strls	r3, [r7, #420]	@ float
 8096              	.L440:
 661:Menus.cpp     ****         if(attackTime >= 100)
 8097              		.loc 2 661 9 is_stmt 1 view .LVU2158
 661:Menus.cpp     ****         if(attackTime >= 100)
 8098              		.loc 2 661 12 is_stmt 0 view .LVU2159
 8099 04c2 D7ED667A 		vldr.32	s15, [r7, #408]
 661:Menus.cpp     ****         if(attackTime >= 100)
 8100              		.loc 2 661 9 view .LVU2160
 8101 04c6 9FEDD57A 		vldr.32	s14, .L606+12
 8102 04ca F4EEC77A 		vcmpe.f32	s15, s14
 8103 04ce F1EE10FA 		vmrs	APSR_nzcv, FPSCR
 8104 04d2 C0F2B381 		blt	.L585
 663:Menus.cpp     ****             attackTime = 100;
 8105              		.loc 2 663 13 is_stmt 1 view .LVU2161
 663:Menus.cpp     ****             attackTime = 100;
 8106              		.loc 2 663 24 is_stmt 0 view .LVU2162
 8107 04d6 87ED667A 		vstr.32	s14, [r7, #408]
 665:Menus.cpp     ****         if(attackTime <= 0)
 8108              		.loc 2 665 9 is_stmt 1 view .LVU2163
 8109              	.L444:
 669:Menus.cpp     ****         screen.DrawRect(28, 0, 40, 13, true, false);
 8110              		.loc 2 669 9 view .LVU2164
 8111              	.LVL541:
 8112              	.LBB2227:
 8113              	.LBI2227:
 217:../../libdaisy/src/hid/disp/display.h ****                   uint_fast8_t y1,
 8114              		.loc 6 217 10 view .LVU2165
 8115              	.LBB2228:
 8116              	.LBI2228:
 181:../../libdaisy/src/hid/disp/display.h ****                   uint_fast8_t y1,
 8117              		.loc 6 181 10 view .LVU2166
 8118              	.LBB2229:
 8119              	.LBB2230:
 8120              	.LBI2230:
  41:../../libdaisy/src/hid/disp/oled_display.h ****     {
 8121              		.loc 1 41 10 view .LVU2167
 8122              	.LBB2231:
 8123              	.LBI2231:
 239:../../libdaisy/src/dev/oled_ssd130x.h ****     {
 8124              		.loc 5 239 10 view .LVU2168
 8125              	.LBB2232:
 244:../../libdaisy/src/dev/oled_ssd130x.h ****         else
 8126              		.loc 5 244 42 is_stmt 0 view .LVU2169
 8127 04da 94F83C20 		ldrb	r2, [r4, #60]	@ zero_extendqisi2
 8128 04de 04F12F03 		add	r3, r4, #47
 8129 04e2 04F13B01 		add	r1, r4, #59
 8130 04e6 42F00102 		orr	r2, r2, #1
 8131 04ea 84F83C20 		strb	r2, [r4, #60]
 8132              	.LVL542:
 244:../../libdaisy/src/dev/oled_ssd130x.h ****         else
 8133              		.loc 5 244 42 view .LVU2170
 8134              	.LBE2232:
 8135              	.LBE2231:
 8136              	.LBE2230:
ARM GAS  C:\Users\VINCIU~1\AppData\Local\Temp\ccnesEGk.s 			page 208


 199:../../libdaisy/src/hid/disp/display.h ****         {
 8137              		.loc 6 199 26 is_stmt 1 view .LVU2171
 8138              	.L446:
 8139              	.LBB2233:
 8140              	.LBI2233:
  41:../../libdaisy/src/hid/disp/oled_display.h ****     {
 8141              		.loc 1 41 10 view .LVU2172
 8142              	.LBB2234:
 8143              	.LBI2234:
 239:../../libdaisy/src/dev/oled_ssd130x.h ****     {
 8144              		.loc 5 239 10 view .LVU2173
 8145              	.LBB2235:
 244:../../libdaisy/src/dev/oled_ssd130x.h ****         else
 8146              		.loc 5 244 42 is_stmt 0 view .LVU2174
 8147 04ee 13F8012F 		ldrb	r2, [r3, #1]!	@ zero_extendqisi2
 8148              	.LVL543:
 244:../../libdaisy/src/dev/oled_ssd130x.h ****         else
 8149              		.loc 5 244 42 view .LVU2175
 8150 04f2 42F00102 		orr	r2, r2, #1
 8151              	.LBE2235:
 8152              	.LBE2234:
 8153              	.LBE2233:
 199:../../libdaisy/src/hid/disp/display.h ****         {
 8154              		.loc 6 199 26 view .LVU2176
 8155 04f6 9942     		cmp	r1, r3
 8156              	.LBB2238:
 8157              	.LBB2237:
 8158              	.LBB2236:
 244:../../libdaisy/src/dev/oled_ssd130x.h ****         else
 8159              		.loc 5 244 42 view .LVU2177
 8160 04f8 1A70     		strb	r2, [r3]
 8161              	.LVL544:
 244:../../libdaisy/src/dev/oled_ssd130x.h ****         else
 8162              		.loc 5 244 42 view .LVU2178
 8163              	.LBE2236:
 8164              	.LBE2237:
 8165              	.LBE2238:
 199:../../libdaisy/src/hid/disp/display.h ****         {
 8166              		.loc 6 199 26 is_stmt 1 view .LVU2179
 8167 04fa F8D1     		bne	.L446
 8168              	.LVL545:
 199:../../libdaisy/src/hid/disp/display.h ****         {
 8169              		.loc 6 199 26 is_stmt 0 view .LVU2180
 8170              	.LBE2229:
 8171              	.LBE2228:
 8172              	.LBB2239:
 8173              	.LBI2239:
 181:../../libdaisy/src/hid/disp/display.h ****                   uint_fast8_t y1,
 8174              		.loc 6 181 10 is_stmt 1 view .LVU2181
 8175              	.LBB2240:
 8176              	.LBB2241:
 8177              	.LBI2241:
  41:../../libdaisy/src/hid/disp/oled_display.h ****     {
 8178              		.loc 1 41 10 view .LVU2182
 8179              	.LBB2242:
 8180              	.LBI2242:
 239:../../libdaisy/src/dev/oled_ssd130x.h ****     {
ARM GAS  C:\Users\VINCIU~1\AppData\Local\Temp\ccnesEGk.s 			page 209


 8181              		.loc 5 239 10 view .LVU2183
 8182              	.LBB2243:
 244:../../libdaisy/src/dev/oled_ssd130x.h ****         else
 8183              		.loc 5 244 42 is_stmt 0 view .LVU2184
 8184 04fc 94F8BC30 		ldrb	r3, [r4, #188]	@ zero_extendqisi2
 8185 0500 0022     		movs	r2, #0
 8186 0502 43F02003 		orr	r3, r3, #32
 8187 0506 84F8BC30 		strb	r3, [r4, #188]
 8188              	.LVL546:
 244:../../libdaisy/src/dev/oled_ssd130x.h ****         else
 8189              		.loc 5 244 42 view .LVU2185
 8190              	.LBE2243:
 8191              	.LBE2242:
 8192              	.LBE2241:
 199:../../libdaisy/src/hid/disp/display.h ****         {
 8193              		.loc 6 199 26 is_stmt 1 view .LVU2186
 8194              	.L447:
 8195              	.LBB2244:
 8196              	.LBI2244:
  41:../../libdaisy/src/hid/disp/oled_display.h ****     {
 8197              		.loc 1 41 10 view .LVU2187
 8198              	.LBB2245:
 8199              	.LBI2245:
 239:../../libdaisy/src/dev/oled_ssd130x.h ****     {
 8200              		.loc 5 239 10 view .LVU2188
 8201              	.LBB2246:
 244:../../libdaisy/src/dev/oled_ssd130x.h ****         else
 8202              		.loc 5 244 28 is_stmt 0 view .LVU2189
 8203 050a D108     		lsrs	r1, r2, #3
 244:../../libdaisy/src/dev/oled_ssd130x.h ****         else
 8204              		.loc 5 244 54 view .LVU2190
 8205 050c 02F00700 		and	r0, r2, #7
 244:../../libdaisy/src/dev/oled_ssd130x.h ****         else
 8206              		.loc 5 244 48 view .LVU2191
 8207 0510 0123     		movs	r3, #1
 244:../../libdaisy/src/dev/oled_ssd130x.h ****         else
 8208              		.loc 5 244 42 view .LVU2192
 8209 0512 04EBC111 		add	r1, r4, r1, lsl #7
 8210              	.LBE2246:
 8211              	.LBE2245:
 8212              	.LBE2244:
 212:../../libdaisy/src/hid/disp/display.h ****             }
 8213              		.loc 6 212 20 view .LVU2193
 8214 0516 1A44     		add	r2, r2, r3
 8215              	.LVL547:
 8216              	.LBB2251:
 8217              	.LBB2249:
 8218              	.LBB2247:
 244:../../libdaisy/src/dev/oled_ssd130x.h ****         else
 8219              		.loc 5 244 48 view .LVU2194
 8220 0518 8340     		lsls	r3, r3, r0
 244:../../libdaisy/src/dev/oled_ssd130x.h ****         else
 8221              		.loc 5 244 42 view .LVU2195
 8222 051a 91F83C00 		ldrb	r0, [r1, #60]	@ zero_extendqisi2
 8223              	.LBE2247:
 8224              	.LBE2249:
 8225              	.LBE2251:
ARM GAS  C:\Users\VINCIU~1\AppData\Local\Temp\ccnesEGk.s 			page 210


 199:../../libdaisy/src/hid/disp/display.h ****         {
 8226              		.loc 6 199 26 view .LVU2196
 8227 051e 0D2A     		cmp	r2, #13
 8228              	.LBB2252:
 8229              	.LBB2250:
 8230              	.LBB2248:
 244:../../libdaisy/src/dev/oled_ssd130x.h ****         else
 8231              		.loc 5 244 42 view .LVU2197
 8232 0520 43EA0003 		orr	r3, r3, r0
 8233 0524 81F83C30 		strb	r3, [r1, #60]
 8234              	.LVL548:
 244:../../libdaisy/src/dev/oled_ssd130x.h ****         else
 8235              		.loc 5 244 42 view .LVU2198
 8236              	.LBE2248:
 8237              	.LBE2250:
 8238              	.LBE2252:
 199:../../libdaisy/src/hid/disp/display.h ****         {
 8239              		.loc 6 199 26 is_stmt 1 view .LVU2199
 8240 0528 EFD1     		bne	.L447
 8241              	.LVL549:
 199:../../libdaisy/src/hid/disp/display.h ****         {
 8242              		.loc 6 199 26 is_stmt 0 view .LVU2200
 8243              	.LBE2240:
 8244              	.LBE2239:
 8245              	.LBB2253:
 8246              	.LBI2253:
 181:../../libdaisy/src/hid/disp/display.h ****                   uint_fast8_t y1,
 8247              		.loc 6 181 10 is_stmt 1 view .LVU2201
 8248              	.LBB2254:
 8249              	.LBB2255:
 8250              	.LBI2255:
  41:../../libdaisy/src/hid/disp/oled_display.h ****     {
 8251              		.loc 1 41 10 view .LVU2202
 8252              	.LBB2256:
 8253              	.LBI2256:
 239:../../libdaisy/src/dev/oled_ssd130x.h ****     {
 8254              		.loc 5 239 10 view .LVU2203
 8255              	.LBB2257:
 244:../../libdaisy/src/dev/oled_ssd130x.h ****         else
 8256              		.loc 5 244 42 is_stmt 0 view .LVU2204
 8257 052a 94F8B030 		ldrb	r3, [r4, #176]	@ zero_extendqisi2
 8258 052e 04F1B100 		add	r0, r4, #177
 8259 0532 43F02003 		orr	r3, r3, #32
 8260 0536 84F8B030 		strb	r3, [r4, #176]
 8261              	.LVL550:
 244:../../libdaisy/src/dev/oled_ssd130x.h ****         else
 8262              		.loc 5 244 42 view .LVU2205
 8263              	.LBE2257:
 8264              	.LBE2256:
 8265              	.LBE2255:
 199:../../libdaisy/src/hid/disp/display.h ****         {
 8266              		.loc 6 199 26 is_stmt 1 view .LVU2206
 8267 053a 04F1BD03 		add	r3, r4, #189
 8268              	.LVL551:
 8269              	.L448:
 8270              	.LBB2258:
 8271              	.LBI2258:
ARM GAS  C:\Users\VINCIU~1\AppData\Local\Temp\ccnesEGk.s 			page 211


  41:../../libdaisy/src/hid/disp/oled_display.h ****     {
 8272              		.loc 1 41 10 view .LVU2207
 8273              	.LBB2259:
 8274              	.LBI2259:
 239:../../libdaisy/src/dev/oled_ssd130x.h ****     {
 8275              		.loc 5 239 10 view .LVU2208
 8276              	.LBB2260:
 244:../../libdaisy/src/dev/oled_ssd130x.h ****         else
 8277              		.loc 5 244 42 is_stmt 0 view .LVU2209
 8278 053e 13F8011D 		ldrb	r1, [r3, #-1]!	@ zero_extendqisi2
 8279              	.LVL552:
 244:../../libdaisy/src/dev/oled_ssd130x.h ****         else
 8280              		.loc 5 244 42 view .LVU2210
 8281 0542 41F02001 		orr	r1, r1, #32
 8282              	.LBE2260:
 8283              	.LBE2259:
 8284              	.LBE2258:
 199:../../libdaisy/src/hid/disp/display.h ****         {
 8285              		.loc 6 199 26 view .LVU2211
 8286 0546 9842     		cmp	r0, r3
 8287              	.LBB2263:
 8288              	.LBB2262:
 8289              	.LBB2261:
 244:../../libdaisy/src/dev/oled_ssd130x.h ****         else
 8290              		.loc 5 244 42 view .LVU2212
 8291 0548 1970     		strb	r1, [r3]
 8292              	.LVL553:
 244:../../libdaisy/src/dev/oled_ssd130x.h ****         else
 8293              		.loc 5 244 42 view .LVU2213
 8294              	.LBE2261:
 8295              	.LBE2262:
 8296              	.LBE2263:
 199:../../libdaisy/src/hid/disp/display.h ****         {
 8297              		.loc 6 199 26 is_stmt 1 view .LVU2214
 8298 054a F8D1     		bne	.L448
 8299              	.LVL554:
 199:../../libdaisy/src/hid/disp/display.h ****         {
 8300              		.loc 6 199 26 is_stmt 0 view .LVU2215
 8301              	.LBE2254:
 8302              	.LBE2253:
 8303              	.LBB2264:
 8304              	.LBI2264:
 181:../../libdaisy/src/hid/disp/display.h ****                   uint_fast8_t y1,
 8305              		.loc 6 181 10 is_stmt 1 view .LVU2216
 8306              	.LBB2265:
 8307              	.LBB2266:
 8308              	.LBI2266:
  41:../../libdaisy/src/hid/disp/oled_display.h ****     {
 8309              		.loc 1 41 10 view .LVU2217
 8310              	.LBB2267:
 8311              	.LBI2267:
 239:../../libdaisy/src/dev/oled_ssd130x.h ****     {
 8312              		.loc 5 239 10 view .LVU2218
 8313              	.LBB2268:
 244:../../libdaisy/src/dev/oled_ssd130x.h ****         else
 8314              		.loc 5 244 42 is_stmt 0 view .LVU2219
 8315 054c 94F83030 		ldrb	r3, [r4, #48]	@ zero_extendqisi2
ARM GAS  C:\Users\VINCIU~1\AppData\Local\Temp\ccnesEGk.s 			page 212


 8316 0550 43F00103 		orr	r3, r3, #1
 8317 0554 84F83030 		strb	r3, [r4, #48]
 8318              	.LVL555:
 244:../../libdaisy/src/dev/oled_ssd130x.h ****         else
 8319              		.loc 5 244 42 view .LVU2220
 8320              	.LBE2268:
 8321              	.LBE2267:
 8322              	.LBE2266:
 199:../../libdaisy/src/hid/disp/display.h ****         {
 8323              		.loc 6 199 26 is_stmt 1 view .LVU2221
 8324              	.L449:
 8325              	.LBB2269:
 8326              	.LBI2269:
  41:../../libdaisy/src/hid/disp/oled_display.h ****     {
 8327              		.loc 1 41 10 view .LVU2222
 8328              	.LBB2270:
 8329              	.LBI2270:
 239:../../libdaisy/src/dev/oled_ssd130x.h ****     {
 8330              		.loc 5 239 10 view .LVU2223
 8331              	.LBB2271:
 244:../../libdaisy/src/dev/oled_ssd130x.h ****         else
 8332              		.loc 5 244 28 is_stmt 0 view .LVU2224
 8333 0558 D108     		lsrs	r1, r2, #3
 244:../../libdaisy/src/dev/oled_ssd130x.h ****         else
 8334              		.loc 5 244 54 view .LVU2225
 8335 055a 02F00700 		and	r0, r2, #7
 244:../../libdaisy/src/dev/oled_ssd130x.h ****         else
 8336              		.loc 5 244 48 view .LVU2226
 8337 055e 0123     		movs	r3, #1
 8338              	.LBE2271:
 8339              	.LBE2270:
 8340              	.LBE2269:
 199:../../libdaisy/src/hid/disp/display.h ****         {
 8341              		.loc 6 199 26 view .LVU2227
 8342 0560 013A     		subs	r2, r2, #1
 8343              	.LVL556:
 8344              	.LBB2274:
 8345              	.LBB2273:
 8346              	.LBB2272:
 244:../../libdaisy/src/dev/oled_ssd130x.h ****         else
 8347              		.loc 5 244 42 view .LVU2228
 8348 0562 04EBC111 		add	r1, r4, r1, lsl #7
 244:../../libdaisy/src/dev/oled_ssd130x.h ****         else
 8349              		.loc 5 244 48 view .LVU2229
 8350 0566 03FA00F3 		lsl	r3, r3, r0
 244:../../libdaisy/src/dev/oled_ssd130x.h ****         else
 8351              		.loc 5 244 42 view .LVU2230
 8352 056a 91F83000 		ldrb	r0, [r1, #48]	@ zero_extendqisi2
 8353 056e 43EA0003 		orr	r3, r3, r0
 8354 0572 81F83030 		strb	r3, [r1, #48]
 8355              	.LVL557:
 244:../../libdaisy/src/dev/oled_ssd130x.h ****         else
 8356              		.loc 5 244 42 view .LVU2231
 8357              	.LBE2272:
 8358              	.LBE2273:
 8359              	.LBE2274:
 199:../../libdaisy/src/hid/disp/display.h ****         {
ARM GAS  C:\Users\VINCIU~1\AppData\Local\Temp\ccnesEGk.s 			page 213


 8360              		.loc 6 199 26 is_stmt 1 view .LVU2232
 8361 0576 EFD1     		bne	.L449
 8362              	.LBE2265:
 8363              	.LBE2264:
 8364              	.LBE2227:
 671:Menus.cpp     ****     if(menuStateEnv == 1)
 8365              		.loc 2 671 8 is_stmt 0 view .LVU2233
 8366 0578 D7F8AC31 		ldr	r3, [r7, #428]
 8367              	.LVL558:
 671:Menus.cpp     ****     if(menuStateEnv == 1)
 8368              		.loc 2 671 5 is_stmt 1 view .LVU2234
 8369 057c 012B     		cmp	r3, #1
 8370 057e 7FF45EAD 		bne	.L451
 8371              	.LVL559:
 8372              	.L596:
 673:Menus.cpp     ****         this->decayTime += this->encoderRight.Increment() * 3.3;
 8373              		.loc 2 673 9 view .LVU2235
 8374              	.LBB2275:
 8375              	.LBI2275:
  41:../../libdaisy/src/hid/encoder.h ****     /** Returns true if the encoder was just pressed.
 8376              		.loc 3 41 20 view .LVU2236
 8377              	.LBB2276:
  41:../../libdaisy/src/hid/encoder.h ****     /** Returns true if the encoder was just pressed.
 8378              		.loc 3 41 40 view .LVU2237
  41:../../libdaisy/src/hid/encoder.h ****     /** Returns true if the encoder was just pressed.
 8379              		.loc 3 41 40 is_stmt 0 view .LVU2238
 8380              	.LBE2276:
 8381              	.LBE2275:
 673:Menus.cpp     ****         this->decayTime += this->encoderRight.Increment() * 3.3;
 8382              		.loc 2 673 25 view .LVU2239
 8383 0582 97ED6D7A 		vldr.32	s14, [r7, #436]
 674:Menus.cpp     ****         env.SetTime(daisysp::ADSR_SEG_DECAY, this->decayTime / 100);
 8384              		.loc 2 674 20 view .LVU2240
 8385 0586 0221     		movs	r1, #2
 673:Menus.cpp     ****         this->decayTime += this->encoderRight.Increment() * 3.3;
 8386              		.loc 2 673 59 view .LVU2241
 8387 0588 D7ED127A 		vldr.32	s15, [r7, #72]	@ int
 674:Menus.cpp     ****         env.SetTime(daisysp::ADSR_SEG_DECAY, this->decayTime / 100);
 8388              		.loc 2 674 20 view .LVU2242
 8389 058c 2846     		mov	r0, r5
 8390 058e 9FEDA30A 		vldr.32	s0, .L606+12
 673:Menus.cpp     ****         this->decayTime += this->encoderRight.Increment() * 3.3;
 8391              		.loc 2 673 59 view .LVU2243
 8392 0592 B8EEE76B 		vcvt.f64.s32	d6, s15
 673:Menus.cpp     ****         this->decayTime += this->encoderRight.Increment() * 3.3;
 8393              		.loc 2 673 25 view .LVU2244
 8394 0596 B7EEC77A 		vcvt.f64.f32	d7, s14
 8395 059a 9FED9D5B 		vldr.64	d5, .L606
 8396 059e A6EE057B 		vfma.f64	d7, d6, d5
 8397 05a2 B7EEC77B 		vcvt.f32.f64	s14, d7
 674:Menus.cpp     ****         env.SetTime(daisysp::ADSR_SEG_DECAY, this->decayTime / 100);
 8398              		.loc 2 674 20 view .LVU2245
 8399 05a6 87EE000A 		vdiv.f32	s0, s14, s0
 673:Menus.cpp     ****         this->decayTime += this->encoderRight.Increment() * 3.3;
 8400              		.loc 2 673 25 view .LVU2246
 8401 05aa 87ED6D7A 		vstr.32	s14, [r7, #436]
 674:Menus.cpp     ****         env.SetTime(daisysp::ADSR_SEG_DECAY, this->decayTime / 100);
ARM GAS  C:\Users\VINCIU~1\AppData\Local\Temp\ccnesEGk.s 			page 214


 8402              		.loc 2 674 9 is_stmt 1 view .LVU2247
 674:Menus.cpp     ****         env.SetTime(daisysp::ADSR_SEG_DECAY, this->decayTime / 100);
 8403              		.loc 2 674 20 is_stmt 0 view .LVU2248
 8404 05ae FFF7FEFF 		bl	_ZN7daisysp4Adsr7SetTimeEif
 8405              	.LVL560:
 675:Menus.cpp     ****         this->decayTimeScaleDraw += this->encoderRight.Increment();
 8406              		.loc 2 675 9 is_stmt 1 view .LVU2249
 8407              	.LBB2277:
 8408              	.LBI2277:
  41:../../libdaisy/src/hid/encoder.h ****     /** Returns true if the encoder was just pressed.
 8409              		.loc 3 41 20 view .LVU2250
 8410              	.LBB2278:
  41:../../libdaisy/src/hid/encoder.h ****     /** Returns true if the encoder was just pressed.
 8411              		.loc 3 41 40 view .LVU2251
  41:../../libdaisy/src/hid/encoder.h ****     /** Returns true if the encoder was just pressed.
 8412              		.loc 3 41 40 is_stmt 0 view .LVU2252
 8413              	.LBE2278:
 8414              	.LBE2277:
 675:Menus.cpp     ****         this->decayTimeScaleDraw += this->encoderRight.Increment();
 8415              		.loc 2 675 34 view .LVU2253
 8416 05b2 D7ED127A 		vldr.32	s15, [r7, #72]	@ int
 8417 05b6 D7ED6E6A 		vldr.32	s13, [r7, #440]
 676:Menus.cpp     ****         if(decayTimeScaleDraw >= screen.Width() / 4)
 8418              		.loc 2 676 9 view .LVU2254
 8419 05ba 9FED977A 		vldr.32	s14, .L606+8
 675:Menus.cpp     ****         this->decayTimeScaleDraw += this->encoderRight.Increment();
 8420              		.loc 2 675 34 view .LVU2255
 8421 05be F8EEE77A 		vcvt.f32.s32	s15, s15
 8422 05c2 77EEA67A 		vadd.f32	s15, s15, s13
 676:Menus.cpp     ****         if(decayTimeScaleDraw >= screen.Width() / 4)
 8423              		.loc 2 676 9 is_stmt 1 view .LVU2256
 8424 05c6 F4EEC77A 		vcmpe.f32	s15, s14
 8425 05ca F1EE10FA 		vmrs	APSR_nzcv, FPSCR
 8426 05ce 80F21981 		bge	.L600
 680:Menus.cpp     ****         if(decayTimeScaleDraw <= 0)
 8427              		.loc 2 680 9 view .LVU2257
 8428 05d2 F5EEC07A 		vcmpe.f32	s15, #0
 8429 05d6 0023     		movs	r3, #0
 8430 05d8 F1EE10FA 		vmrs	APSR_nzcv, FPSCR
 675:Menus.cpp     ****         this->decayTimeScaleDraw += this->encoderRight.Increment();
 8431              		.loc 2 675 34 is_stmt 0 view .LVU2258
 8432 05dc 8CBF     		ite	hi
 8433 05de C7ED6E7A 		vstrhi.32	s15, [r7, #440]
 682:Menus.cpp     ****             decayTimeScaleDraw = 0;
 8434              		.loc 2 682 13 is_stmt 1 view .LVU2259
 682:Menus.cpp     ****             decayTimeScaleDraw = 0;
 8435              		.loc 2 682 32 is_stmt 0 view .LVU2260
 8436 05e2 C7F8B831 		strls	r3, [r7, #440]	@ float
 8437              	.L454:
 684:Menus.cpp     ****         if(decayTime >= 100)
 8438              		.loc 2 684 9 is_stmt 1 view .LVU2261
 684:Menus.cpp     ****         if(decayTime >= 100)
 8439              		.loc 2 684 12 is_stmt 0 view .LVU2262
 8440 05e6 D7ED6D7A 		vldr.32	s15, [r7, #436]
 684:Menus.cpp     ****         if(decayTime >= 100)
 8441              		.loc 2 684 9 view .LVU2263
 8442 05ea 9FED8C7A 		vldr.32	s14, .L606+12
ARM GAS  C:\Users\VINCIU~1\AppData\Local\Temp\ccnesEGk.s 			page 215


 8443 05ee F4EEC77A 		vcmpe.f32	s15, s14
 8444 05f2 F1EE10FA 		vmrs	APSR_nzcv, FPSCR
 8445 05f6 C0F23081 		blt	.L587
 686:Menus.cpp     ****             decayTime = 100;
 8446              		.loc 2 686 13 is_stmt 1 view .LVU2264
 686:Menus.cpp     ****             decayTime = 100;
 8447              		.loc 2 686 23 is_stmt 0 view .LVU2265
 8448 05fa 87ED6D7A 		vstr.32	s14, [r7, #436]
 688:Menus.cpp     ****         if(decayTime <= 0)
 8449              		.loc 2 688 9 is_stmt 1 view .LVU2266
 8450              	.L458:
 692:Menus.cpp     ****         screen.DrawRect(44, 0, 56, 13, true, false);
 8451              		.loc 2 692 9 view .LVU2267
 692:Menus.cpp     ****         screen.DrawRect(44, 0, 56, 13, true, false);
 8452              		.loc 2 692 24 is_stmt 0 view .LVU2268
 8453 05fe 0123     		movs	r3, #1
 8454 0600 0022     		movs	r2, #0
 8455 0602 2C21     		movs	r1, #44
 8456 0604 2046     		mov	r0, r4
 8457 0606 CDE90132 		strd	r3, r2, [sp, #4]
 8458 060a 0D23     		movs	r3, #13
 8459 060c 0093     		str	r3, [sp]
 8460 060e 3823     		movs	r3, #56
 8461 0610 FFF7FEFF 		bl	_ZN5daisy25OneBitGraphicsDisplayImplINS_11OledDisplayINS_13SSD130xDriverILj128ELj64ENS_24SSD130
 8462              	.LVL561:
 694:Menus.cpp     ****     if(menuStateEnv == 2)
 8463              		.loc 2 694 8 view .LVU2269
 8464 0614 D7F8AC31 		ldr	r3, [r7, #428]
 694:Menus.cpp     ****     if(menuStateEnv == 2)
 8465              		.loc 2 694 5 is_stmt 1 view .LVU2270
 8466 0618 022B     		cmp	r3, #2
 8467 061a 7FF413AD 		bne	.L460
 8468              	.L597:
 696:Menus.cpp     ****         this->sustatinLevel += this->encoderRight.Increment() * 3.3;
 8469              		.loc 2 696 9 view .LVU2271
 8470              	.LVL562:
 8471              	.LBB2279:
 8472              	.LBI2279:
  41:../../libdaisy/src/hid/encoder.h ****     /** Returns true if the encoder was just pressed.
 8473              		.loc 3 41 20 view .LVU2272
 8474              	.LBB2280:
  41:../../libdaisy/src/hid/encoder.h ****     /** Returns true if the encoder was just pressed.
 8475              		.loc 3 41 40 view .LVU2273
 8476              	.LBE2280:
 8477              	.LBE2279:
 696:Menus.cpp     ****         this->sustatinLevel += this->encoderRight.Increment() * 3.3;
 8478              		.loc 2 696 29 is_stmt 0 view .LVU2274
 8479 061e 97ED707A 		vldr.32	s14, [r7, #448]
 8480              	.LBB2282:
 8481              	.LBB2281:
  41:../../libdaisy/src/hid/encoder.h ****     /** Returns true if the encoder was just pressed.
 8482              		.loc 3 41 47 view .LVU2275
 8483 0622 D7ED126A 		vldr.32	s13, [r7, #72]	@ int
 8484              	.LVL563:
  41:../../libdaisy/src/hid/encoder.h ****     /** Returns true if the encoder was just pressed.
 8485              		.loc 3 41 47 view .LVU2276
 8486              	.LBE2281:
ARM GAS  C:\Users\VINCIU~1\AppData\Local\Temp\ccnesEGk.s 			page 216


 8487              	.LBE2282:
 696:Menus.cpp     ****         this->sustatinLevel += this->encoderRight.Increment() * 3.3;
 8488              		.loc 2 696 29 view .LVU2277
 8489 0626 B7EEC77A 		vcvt.f64.f32	d7, s14
 697:Menus.cpp     ****         env.SetSustainLevel(this->sustatinLevel / 100);
 8490              		.loc 2 697 28 view .LVU2278
 8491 062a DFED7C5A 		vldr.32	s11, .L606+12
 696:Menus.cpp     ****         this->sustatinLevel += this->encoderRight.Increment() * 3.3;
 8492              		.loc 2 696 63 view .LVU2279
 8493 062e B8EEE63B 		vcvt.f64.s32	d3, s13
 696:Menus.cpp     ****         this->sustatinLevel += this->encoderRight.Increment() * 3.3;
 8494              		.loc 2 696 29 view .LVU2280
 8495 0632 9FED774B 		vldr.64	d4, .L606
 8496 0636 A3EE047B 		vfma.f64	d7, d3, d4
 8497 063a B7EEC77B 		vcvt.f32.f64	s14, d7
 697:Menus.cpp     ****         env.SetSustainLevel(this->sustatinLevel / 100);
 8498              		.loc 2 697 28 view .LVU2281
 8499 063e 87EE256A 		vdiv.f32	s12, s14, s11
 696:Menus.cpp     ****         this->sustatinLevel += this->encoderRight.Increment() * 3.3;
 8500              		.loc 2 696 29 view .LVU2282
 8501 0642 87ED707A 		vstr.32	s14, [r7, #448]
 697:Menus.cpp     ****         env.SetSustainLevel(this->sustatinLevel / 100);
 8502              		.loc 2 697 9 is_stmt 1 view .LVU2283
 8503              	.LVL564:
 8504              	.LBB2283:
 8505              	.LBI2283:
 8506              		.file 8 "../../DaisySP/Source/Control/adsr.h"
   1:../../DaisySP/Source/Control/adsr.h **** #pragma once
   2:../../DaisySP/Source/Control/adsr.h **** #ifndef DSY_ADSR_H
   3:../../DaisySP/Source/Control/adsr.h **** #define DSY_ADSR_H
   4:../../DaisySP/Source/Control/adsr.h **** 
   5:../../DaisySP/Source/Control/adsr.h **** #include <stdint.h>
   6:../../DaisySP/Source/Control/adsr.h **** #ifdef __cplusplus
   7:../../DaisySP/Source/Control/adsr.h **** 
   8:../../DaisySP/Source/Control/adsr.h **** namespace daisysp
   9:../../DaisySP/Source/Control/adsr.h **** {
  10:../../DaisySP/Source/Control/adsr.h **** /** Distinct stages that the phase of the envelope can be located in.
  11:../../DaisySP/Source/Control/adsr.h **** - IDLE   = located at phase location 0, and not currently running
  12:../../DaisySP/Source/Control/adsr.h **** - ATTACK  = First segment of envelope where phase moves from 0 to 1
  13:../../DaisySP/Source/Control/adsr.h **** - DECAY   = Second segment of envelope where phase moves from 1 to SUSTAIN value
  14:../../DaisySP/Source/Control/adsr.h **** - RELEASE =     Fourth segment of envelop where phase moves from SUSTAIN to 0
  15:../../DaisySP/Source/Control/adsr.h **** */
  16:../../DaisySP/Source/Control/adsr.h **** enum
  17:../../DaisySP/Source/Control/adsr.h **** {
  18:../../DaisySP/Source/Control/adsr.h ****     ADSR_SEG_IDLE    = 0,
  19:../../DaisySP/Source/Control/adsr.h ****     ADSR_SEG_ATTACK  = 1,
  20:../../DaisySP/Source/Control/adsr.h ****     ADSR_SEG_DECAY   = 2,
  21:../../DaisySP/Source/Control/adsr.h ****     ADSR_SEG_RELEASE = 4
  22:../../DaisySP/Source/Control/adsr.h **** };
  23:../../DaisySP/Source/Control/adsr.h **** 
  24:../../DaisySP/Source/Control/adsr.h **** 
  25:../../DaisySP/Source/Control/adsr.h **** /** adsr envelope module
  26:../../DaisySP/Source/Control/adsr.h **** 
  27:../../DaisySP/Source/Control/adsr.h **** Original author(s) : Paul Batchelor
  28:../../DaisySP/Source/Control/adsr.h **** 
  29:../../DaisySP/Source/Control/adsr.h **** Ported from Soundpipe by Ben Sergentanis, May 2020
  30:../../DaisySP/Source/Control/adsr.h ****  
ARM GAS  C:\Users\VINCIU~1\AppData\Local\Temp\ccnesEGk.s 			page 217


  31:../../DaisySP/Source/Control/adsr.h **** Remake by Steffan DIedrichsen, May 2021
  32:../../DaisySP/Source/Control/adsr.h **** */
  33:../../DaisySP/Source/Control/adsr.h **** class Adsr
  34:../../DaisySP/Source/Control/adsr.h **** {
  35:../../DaisySP/Source/Control/adsr.h ****   public:
  36:../../DaisySP/Source/Control/adsr.h ****     Adsr() {}
  37:../../DaisySP/Source/Control/adsr.h ****     ~Adsr() {}
  38:../../DaisySP/Source/Control/adsr.h ****     /** Initializes the Adsr module.
  39:../../DaisySP/Source/Control/adsr.h ****         \param sample_rate - The sample rate of the audio engine being run. 
  40:../../DaisySP/Source/Control/adsr.h ****     */
  41:../../DaisySP/Source/Control/adsr.h ****     void Init(float sample_rate, int blockSize = 1);
  42:../../DaisySP/Source/Control/adsr.h ****     /**
  43:../../DaisySP/Source/Control/adsr.h ****      \function Retrigger forces the envelope back to attack phase
  44:../../DaisySP/Source/Control/adsr.h ****      \param hard  resets the history to zero, results in a click.
  45:../../DaisySP/Source/Control/adsr.h ****      */
  46:../../DaisySP/Source/Control/adsr.h ****     void Retrigger(bool hard);
  47:../../DaisySP/Source/Control/adsr.h ****     /** Processes one sample through the filter and returns one sample.
  48:../../DaisySP/Source/Control/adsr.h ****         \param gate - trigger the envelope, hold it to sustain 
  49:../../DaisySP/Source/Control/adsr.h ****     */
  50:../../DaisySP/Source/Control/adsr.h ****     float Process(bool gate);
  51:../../DaisySP/Source/Control/adsr.h ****     /** Sets time
  52:../../DaisySP/Source/Control/adsr.h ****         Set time per segment in seconds
  53:../../DaisySP/Source/Control/adsr.h ****     */
  54:../../DaisySP/Source/Control/adsr.h ****     void SetTime(int seg, float time);
  55:../../DaisySP/Source/Control/adsr.h ****     void SetAttackTime(float timeInS, float shape = 0.0f);
  56:../../DaisySP/Source/Control/adsr.h ****     void SetDecayTime(float timeInS);
  57:../../DaisySP/Source/Control/adsr.h ****     void SetReleaseTime(float timeInS);
  58:../../DaisySP/Source/Control/adsr.h **** 
  59:../../DaisySP/Source/Control/adsr.h ****   private:
  60:../../DaisySP/Source/Control/adsr.h ****     void SetTimeConstant(float timeInS, float& time, float& coeff);
  61:../../DaisySP/Source/Control/adsr.h **** 
  62:../../DaisySP/Source/Control/adsr.h ****   public:
  63:../../DaisySP/Source/Control/adsr.h ****     /** Sustain level
  64:../../DaisySP/Source/Control/adsr.h ****         \param sus_level - sets sustain level, 0...1.0
  65:../../DaisySP/Source/Control/adsr.h ****     */
  66:../../DaisySP/Source/Control/adsr.h ****     inline void SetSustainLevel(float sus_level)
 8507              		.loc 8 66 17 view .LVU2284
 8508              	.LBB2284:
  67:../../DaisySP/Source/Control/adsr.h ****     {
  68:../../DaisySP/Source/Control/adsr.h ****         sus_level = (sus_level <= 0.f) ? -0.01f // forces envelope into idle
 8509              		.loc 8 68 9 view .LVU2285
 8510              		.loc 8 68 40 is_stmt 0 view .LVU2286
 8511 0646 B5EEC06A 		vcmpe.f32	s12, #0
 8512 064a F1EE10FA 		vmrs	APSR_nzcv, FPSCR
 8513 064e 40F2FE80 		bls	.L527
  69:../../DaisySP/Source/Control/adsr.h ****                                        : (sus_level > 1.f) ? 1.f : sus_level;
 8514              		.loc 8 69 60 view .LVU2287
 8515 0652 F7EE007A 		vmov.f32	s15, #1.0e+0
 8516 0656 B4EE676A 		vcmp.f32	s12, s15
 8517 065a F1EE10FA 		vmrs	APSR_nzcv, FPSCR
 8518 065e 37FE866A 		vselgt.f32	s12, s15, s12
 8519              	.LVL565:
 8520              	.L461:
  70:../../DaisySP/Source/Control/adsr.h ****         sus_level_ = sus_level;
 8521              		.loc 8 70 9 is_stmt 1 view .LVU2288
 8522              	.LBE2284:
 8523              	.LBE2283:
ARM GAS  C:\Users\VINCIU~1\AppData\Local\Temp\ccnesEGk.s 			page 218


 698:Menus.cpp     ****         this->sustatinLevelScaleDraw += this->encoderRight.Increment();
 8524              		.loc 2 698 38 is_stmt 0 view .LVU2289
 8525 0662 F8EEE67A 		vcvt.f32.s32	s15, s13
 8526              	.LBB2287:
 8527              	.LBB2285:
 8528              		.loc 8 70 20 view .LVU2290
 8529 0666 85ED006A 		vstr.32	s12, [r5]
 8530              	.LVL566:
 8531              		.loc 8 70 20 view .LVU2291
 8532              	.LBE2285:
 8533              	.LBE2287:
 698:Menus.cpp     ****         this->sustatinLevelScaleDraw += this->encoderRight.Increment();
 8534              		.loc 2 698 9 is_stmt 1 view .LVU2292
  41:../../libdaisy/src/hid/encoder.h ****     /** Returns true if the encoder was just pressed.
 8535              		.loc 3 41 40 view .LVU2293
 698:Menus.cpp     ****         this->sustatinLevelScaleDraw += this->encoderRight.Increment();
 8536              		.loc 2 698 38 is_stmt 0 view .LVU2294
 8537 066a D7ED726A 		vldr.32	s13, [r7, #456]
 699:Menus.cpp     ****         if(this->sustatinLevelScaleDraw >= screen.Width() / 4)
 8538              		.loc 2 699 9 view .LVU2295
 8539 066e 9FED6A7A 		vldr.32	s14, .L606+8
 698:Menus.cpp     ****         this->sustatinLevelScaleDraw += this->encoderRight.Increment();
 8540              		.loc 2 698 38 view .LVU2296
 8541 0672 77EEA67A 		vadd.f32	s15, s15, s13
 699:Menus.cpp     ****         if(this->sustatinLevelScaleDraw >= screen.Width() / 4)
 8542              		.loc 2 699 9 is_stmt 1 view .LVU2297
 8543 0676 F4EEC77A 		vcmpe.f32	s15, s14
 8544 067a F1EE10FA 		vmrs	APSR_nzcv, FPSCR
 8545 067e 80F2BB80 		bge	.L601
 703:Menus.cpp     ****         if(this->sustatinLevelScaleDraw <= 0)
 8546              		.loc 2 703 9 view .LVU2298
 8547 0682 F5EEC07A 		vcmpe.f32	s15, #0
 8548 0686 0023     		movs	r3, #0
 8549 0688 F1EE10FA 		vmrs	APSR_nzcv, FPSCR
 698:Menus.cpp     ****         this->sustatinLevelScaleDraw += this->encoderRight.Increment();
 8550              		.loc 2 698 38 is_stmt 0 view .LVU2299
 8551 068c 8CBF     		ite	hi
 8552 068e C7ED727A 		vstrhi.32	s15, [r7, #456]
 705:Menus.cpp     ****             this->sustatinLevelScaleDraw = 0;
 8553              		.loc 2 705 13 is_stmt 1 view .LVU2300
 705:Menus.cpp     ****             this->sustatinLevelScaleDraw = 0;
 8554              		.loc 2 705 42 is_stmt 0 view .LVU2301
 8555 0692 C7F8C831 		strls	r3, [r7, #456]	@ float
 8556              	.L464:
 707:Menus.cpp     ****         if(this->sustatinLevel >= 100)
 8557              		.loc 2 707 9 is_stmt 1 view .LVU2302
 707:Menus.cpp     ****         if(this->sustatinLevel >= 100)
 8558              		.loc 2 707 18 is_stmt 0 view .LVU2303
 8559 0696 D7ED707A 		vldr.32	s15, [r7, #448]
 707:Menus.cpp     ****         if(this->sustatinLevel >= 100)
 8560              		.loc 2 707 9 view .LVU2304
 8561 069a 9FED607A 		vldr.32	s14, .L606+12
 8562 069e F4EEC77A 		vcmpe.f32	s15, s14
 8563 06a2 F1EE10FA 		vmrs	APSR_nzcv, FPSCR
 8564 06a6 C0F2C080 		blt	.L589
 709:Menus.cpp     ****             this->sustatinLevel = 100;
 8565              		.loc 2 709 13 is_stmt 1 view .LVU2305
ARM GAS  C:\Users\VINCIU~1\AppData\Local\Temp\ccnesEGk.s 			page 219


 709:Menus.cpp     ****             this->sustatinLevel = 100;
 8566              		.loc 2 709 33 is_stmt 0 view .LVU2306
 8567 06aa 87ED707A 		vstr.32	s14, [r7, #448]
 711:Menus.cpp     ****         if(this->sustatinLevel <= 0)
 8568              		.loc 2 711 9 is_stmt 1 view .LVU2307
 8569              	.L468:
 715:Menus.cpp     ****         screen.DrawRect(60, 0, 72, 13, true, false);
 8570              		.loc 2 715 9 view .LVU2308
 8571              	.LVL567:
 8572              	.LBB2288:
 8573              	.LBI2288:
 217:../../libdaisy/src/hid/disp/display.h ****                   uint_fast8_t y1,
 8574              		.loc 6 217 10 view .LVU2309
 8575              	.LBB2289:
 8576              	.LBI2289:
 181:../../libdaisy/src/hid/disp/display.h ****                   uint_fast8_t y1,
 8577              		.loc 6 181 10 view .LVU2310
 8578              	.LBB2290:
 8579              	.LBB2291:
 8580              	.LBI2291:
  41:../../libdaisy/src/hid/disp/oled_display.h ****     {
 8581              		.loc 1 41 10 view .LVU2311
 8582              	.LBB2292:
 8583              	.LBI2292:
 239:../../libdaisy/src/dev/oled_ssd130x.h ****     {
 8584              		.loc 5 239 10 view .LVU2312
 8585              	.LBB2293:
 244:../../libdaisy/src/dev/oled_ssd130x.h ****         else
 8586              		.loc 5 244 42 is_stmt 0 view .LVU2313
 8587 06ae 94F85C20 		ldrb	r2, [r4, #92]	@ zero_extendqisi2
 8588 06b2 04F14F03 		add	r3, r4, #79
 8589 06b6 04F15B01 		add	r1, r4, #91
 8590 06ba 42F00102 		orr	r2, r2, #1
 8591 06be 84F85C20 		strb	r2, [r4, #92]
 8592              	.LVL568:
 244:../../libdaisy/src/dev/oled_ssd130x.h ****         else
 8593              		.loc 5 244 42 view .LVU2314
 8594              	.LBE2293:
 8595              	.LBE2292:
 8596              	.LBE2291:
 199:../../libdaisy/src/hid/disp/display.h ****         {
 8597              		.loc 6 199 26 is_stmt 1 view .LVU2315
 8598              	.L470:
 8599              	.LBB2294:
 8600              	.LBI2294:
  41:../../libdaisy/src/hid/disp/oled_display.h ****     {
 8601              		.loc 1 41 10 view .LVU2316
 8602              	.LBB2295:
 8603              	.LBI2295:
 239:../../libdaisy/src/dev/oled_ssd130x.h ****     {
 8604              		.loc 5 239 10 view .LVU2317
 8605              	.LBB2296:
 244:../../libdaisy/src/dev/oled_ssd130x.h ****         else
 8606              		.loc 5 244 42 is_stmt 0 view .LVU2318
 8607 06c2 13F8012F 		ldrb	r2, [r3, #1]!	@ zero_extendqisi2
 8608              	.LVL569:
 244:../../libdaisy/src/dev/oled_ssd130x.h ****         else
ARM GAS  C:\Users\VINCIU~1\AppData\Local\Temp\ccnesEGk.s 			page 220


 8609              		.loc 5 244 42 view .LVU2319
 8610 06c6 42F00102 		orr	r2, r2, #1
 8611              	.LBE2296:
 8612              	.LBE2295:
 8613              	.LBE2294:
 199:../../libdaisy/src/hid/disp/display.h ****         {
 8614              		.loc 6 199 26 view .LVU2320
 8615 06ca 9942     		cmp	r1, r3
 8616              	.LBB2299:
 8617              	.LBB2298:
 8618              	.LBB2297:
 244:../../libdaisy/src/dev/oled_ssd130x.h ****         else
 8619              		.loc 5 244 42 view .LVU2321
 8620 06cc 1A70     		strb	r2, [r3]
 8621              	.LVL570:
 244:../../libdaisy/src/dev/oled_ssd130x.h ****         else
 8622              		.loc 5 244 42 view .LVU2322
 8623              	.LBE2297:
 8624              	.LBE2298:
 8625              	.LBE2299:
 199:../../libdaisy/src/hid/disp/display.h ****         {
 8626              		.loc 6 199 26 is_stmt 1 view .LVU2323
 8627 06ce F8D1     		bne	.L470
 8628              	.LVL571:
 199:../../libdaisy/src/hid/disp/display.h ****         {
 8629              		.loc 6 199 26 is_stmt 0 view .LVU2324
 8630              	.LBE2290:
 8631              	.LBE2289:
 8632              	.LBB2300:
 8633              	.LBI2300:
 181:../../libdaisy/src/hid/disp/display.h ****                   uint_fast8_t y1,
 8634              		.loc 6 181 10 is_stmt 1 view .LVU2325
 8635              	.LBB2301:
 8636              	.LBB2302:
 8637              	.LBI2302:
  41:../../libdaisy/src/hid/disp/oled_display.h ****     {
 8638              		.loc 1 41 10 view .LVU2326
 8639              	.LBB2303:
 8640              	.LBI2303:
 239:../../libdaisy/src/dev/oled_ssd130x.h ****     {
 8641              		.loc 5 239 10 view .LVU2327
 8642              	.LBB2304:
 244:../../libdaisy/src/dev/oled_ssd130x.h ****         else
 8643              		.loc 5 244 42 is_stmt 0 view .LVU2328
 8644 06d0 94F8DC20 		ldrb	r2, [r4, #220]	@ zero_extendqisi2
 8645 06d4 0023     		movs	r3, #0
 8646 06d6 42F02002 		orr	r2, r2, #32
 8647 06da 84F8DC20 		strb	r2, [r4, #220]
 8648              	.LVL572:
 244:../../libdaisy/src/dev/oled_ssd130x.h ****         else
 8649              		.loc 5 244 42 view .LVU2329
 8650              	.LBE2304:
 8651              	.LBE2303:
 8652              	.LBE2302:
 199:../../libdaisy/src/hid/disp/display.h ****         {
 8653              		.loc 6 199 26 is_stmt 1 view .LVU2330
 8654              	.L471:
ARM GAS  C:\Users\VINCIU~1\AppData\Local\Temp\ccnesEGk.s 			page 221


 8655              	.LBB2305:
 8656              	.LBI2305:
  41:../../libdaisy/src/hid/disp/oled_display.h ****     {
 8657              		.loc 1 41 10 view .LVU2331
 8658              	.LBB2306:
 8659              	.LBI2306:
 239:../../libdaisy/src/dev/oled_ssd130x.h ****     {
 8660              		.loc 5 239 10 view .LVU2332
 8661              	.LBB2307:
 244:../../libdaisy/src/dev/oled_ssd130x.h ****         else
 8662              		.loc 5 244 28 is_stmt 0 view .LVU2333
 8663 06de D908     		lsrs	r1, r3, #3
 244:../../libdaisy/src/dev/oled_ssd130x.h ****         else
 8664              		.loc 5 244 54 view .LVU2334
 8665 06e0 03F00700 		and	r0, r3, #7
 244:../../libdaisy/src/dev/oled_ssd130x.h ****         else
 8666              		.loc 5 244 48 view .LVU2335
 8667 06e4 0122     		movs	r2, #1
 244:../../libdaisy/src/dev/oled_ssd130x.h ****         else
 8668              		.loc 5 244 42 view .LVU2336
 8669 06e6 04EBC111 		add	r1, r4, r1, lsl #7
 8670              	.LBE2307:
 8671              	.LBE2306:
 8672              	.LBE2305:
 212:../../libdaisy/src/hid/disp/display.h ****             }
 8673              		.loc 6 212 20 view .LVU2337
 8674 06ea 1344     		add	r3, r3, r2
 8675              	.LVL573:
 8676              	.LBB2312:
 8677              	.LBB2310:
 8678              	.LBB2308:
 244:../../libdaisy/src/dev/oled_ssd130x.h ****         else
 8679              		.loc 5 244 48 view .LVU2338
 8680 06ec 8240     		lsls	r2, r2, r0
 244:../../libdaisy/src/dev/oled_ssd130x.h ****         else
 8681              		.loc 5 244 42 view .LVU2339
 8682 06ee 91F85C00 		ldrb	r0, [r1, #92]	@ zero_extendqisi2
 8683              	.LBE2308:
 8684              	.LBE2310:
 8685              	.LBE2312:
 199:../../libdaisy/src/hid/disp/display.h ****         {
 8686              		.loc 6 199 26 view .LVU2340
 8687 06f2 0D2B     		cmp	r3, #13
 8688              	.LBB2313:
 8689              	.LBB2311:
 8690              	.LBB2309:
 244:../../libdaisy/src/dev/oled_ssd130x.h ****         else
 8691              		.loc 5 244 42 view .LVU2341
 8692 06f4 42EA0002 		orr	r2, r2, r0
 8693 06f8 81F85C20 		strb	r2, [r1, #92]
 8694              	.LVL574:
 244:../../libdaisy/src/dev/oled_ssd130x.h ****         else
 8695              		.loc 5 244 42 view .LVU2342
 8696              	.LBE2309:
 8697              	.LBE2311:
 8698              	.LBE2313:
 199:../../libdaisy/src/hid/disp/display.h ****         {
ARM GAS  C:\Users\VINCIU~1\AppData\Local\Temp\ccnesEGk.s 			page 222


 8699              		.loc 6 199 26 is_stmt 1 view .LVU2343
 8700 06fc EFD1     		bne	.L471
 8701              	.LVL575:
 199:../../libdaisy/src/hid/disp/display.h ****         {
 8702              		.loc 6 199 26 is_stmt 0 view .LVU2344
 8703              	.LBE2301:
 8704              	.LBE2300:
 8705              	.LBB2314:
 8706              	.LBI2314:
 181:../../libdaisy/src/hid/disp/display.h ****                   uint_fast8_t y1,
 8707              		.loc 6 181 10 is_stmt 1 view .LVU2345
 8708              	.LBB2315:
 8709              	.LBB2316:
 8710              	.LBI2316:
  41:../../libdaisy/src/hid/disp/oled_display.h ****     {
 8711              		.loc 1 41 10 view .LVU2346
 8712              	.LBB2317:
 8713              	.LBI2317:
 239:../../libdaisy/src/dev/oled_ssd130x.h ****     {
 8714              		.loc 5 239 10 view .LVU2347
 8715              	.LBB2318:
 244:../../libdaisy/src/dev/oled_ssd130x.h ****         else
 8716              		.loc 5 244 42 is_stmt 0 view .LVU2348
 8717 06fe 94F8D010 		ldrb	r1, [r4, #208]	@ zero_extendqisi2
 8718 0702 04F1DD02 		add	r2, r4, #221
 8719 0706 04F1D100 		add	r0, r4, #209
 8720 070a 41F02001 		orr	r1, r1, #32
 8721 070e 84F8D010 		strb	r1, [r4, #208]
 8722              	.LVL576:
 244:../../libdaisy/src/dev/oled_ssd130x.h ****         else
 8723              		.loc 5 244 42 view .LVU2349
 8724              	.LBE2318:
 8725              	.LBE2317:
 8726              	.LBE2316:
 199:../../libdaisy/src/hid/disp/display.h ****         {
 8727              		.loc 6 199 26 is_stmt 1 view .LVU2350
 8728              	.L472:
 8729              	.LBB2319:
 8730              	.LBI2319:
  41:../../libdaisy/src/hid/disp/oled_display.h ****     {
 8731              		.loc 1 41 10 view .LVU2351
 8732              	.LBB2320:
 8733              	.LBI2320:
 239:../../libdaisy/src/dev/oled_ssd130x.h ****     {
 8734              		.loc 5 239 10 view .LVU2352
 8735              	.LBB2321:
 244:../../libdaisy/src/dev/oled_ssd130x.h ****         else
 8736              		.loc 5 244 42 is_stmt 0 view .LVU2353
 8737 0712 12F8011D 		ldrb	r1, [r2, #-1]!	@ zero_extendqisi2
 8738              	.LVL577:
 244:../../libdaisy/src/dev/oled_ssd130x.h ****         else
 8739              		.loc 5 244 42 view .LVU2354
 8740 0716 41F02001 		orr	r1, r1, #32
 8741              	.LBE2321:
 8742              	.LBE2320:
 8743              	.LBE2319:
 199:../../libdaisy/src/hid/disp/display.h ****         {
ARM GAS  C:\Users\VINCIU~1\AppData\Local\Temp\ccnesEGk.s 			page 223


 8744              		.loc 6 199 26 view .LVU2355
 8745 071a 9042     		cmp	r0, r2
 8746              	.LBB2324:
 8747              	.LBB2323:
 8748              	.LBB2322:
 244:../../libdaisy/src/dev/oled_ssd130x.h ****         else
 8749              		.loc 5 244 42 view .LVU2356
 8750 071c 1170     		strb	r1, [r2]
 8751              	.LVL578:
 244:../../libdaisy/src/dev/oled_ssd130x.h ****         else
 8752              		.loc 5 244 42 view .LVU2357
 8753              	.LBE2322:
 8754              	.LBE2323:
 8755              	.LBE2324:
 199:../../libdaisy/src/hid/disp/display.h ****         {
 8756              		.loc 6 199 26 is_stmt 1 view .LVU2358
 8757 071e F8D1     		bne	.L472
 8758              	.LVL579:
 199:../../libdaisy/src/hid/disp/display.h ****         {
 8759              		.loc 6 199 26 is_stmt 0 view .LVU2359
 8760              	.LBE2315:
 8761              	.LBE2314:
 8762              	.LBB2325:
 8763              	.LBI2325:
 181:../../libdaisy/src/hid/disp/display.h ****                   uint_fast8_t y1,
 8764              		.loc 6 181 10 is_stmt 1 view .LVU2360
 8765              	.LBB2326:
 8766              	.LBB2327:
 8767              	.LBI2327:
  41:../../libdaisy/src/hid/disp/oled_display.h ****     {
 8768              		.loc 1 41 10 view .LVU2361
 8769              	.LBB2328:
 8770              	.LBI2328:
 239:../../libdaisy/src/dev/oled_ssd130x.h ****     {
 8771              		.loc 5 239 10 view .LVU2362
 8772              	.LBB2329:
 244:../../libdaisy/src/dev/oled_ssd130x.h ****         else
 8773              		.loc 5 244 42 is_stmt 0 view .LVU2363
 8774 0720 94F85020 		ldrb	r2, [r4, #80]	@ zero_extendqisi2
 8775 0724 42F00102 		orr	r2, r2, #1
 8776 0728 84F85020 		strb	r2, [r4, #80]
 8777              	.LVL580:
 244:../../libdaisy/src/dev/oled_ssd130x.h ****         else
 8778              		.loc 5 244 42 view .LVU2364
 8779              	.LBE2329:
 8780              	.LBE2328:
 8781              	.LBE2327:
 199:../../libdaisy/src/hid/disp/display.h ****         {
 8782              		.loc 6 199 26 is_stmt 1 view .LVU2365
 8783              	.L473:
 8784              	.LBB2330:
 8785              	.LBI2330:
  41:../../libdaisy/src/hid/disp/oled_display.h ****     {
 8786              		.loc 1 41 10 view .LVU2366
 8787              	.LBB2331:
 8788              	.LBI2331:
 239:../../libdaisy/src/dev/oled_ssd130x.h ****     {
ARM GAS  C:\Users\VINCIU~1\AppData\Local\Temp\ccnesEGk.s 			page 224


 8789              		.loc 5 239 10 view .LVU2367
 8790              	.LBB2332:
 244:../../libdaisy/src/dev/oled_ssd130x.h ****         else
 8791              		.loc 5 244 28 is_stmt 0 view .LVU2368
 8792 072c D908     		lsrs	r1, r3, #3
 244:../../libdaisy/src/dev/oled_ssd130x.h ****         else
 8793              		.loc 5 244 54 view .LVU2369
 8794 072e 03F00700 		and	r0, r3, #7
 244:../../libdaisy/src/dev/oled_ssd130x.h ****         else
 8795              		.loc 5 244 48 view .LVU2370
 8796 0732 0122     		movs	r2, #1
 8797              	.LBE2332:
 8798              	.LBE2331:
 8799              	.LBE2330:
 199:../../libdaisy/src/hid/disp/display.h ****         {
 8800              		.loc 6 199 26 view .LVU2371
 8801 0734 013B     		subs	r3, r3, #1
 8802              	.LVL581:
 8803              	.LBB2335:
 8804              	.LBB2334:
 8805              	.LBB2333:
 244:../../libdaisy/src/dev/oled_ssd130x.h ****         else
 8806              		.loc 5 244 42 view .LVU2372
 8807 0736 04EBC111 		add	r1, r4, r1, lsl #7
 244:../../libdaisy/src/dev/oled_ssd130x.h ****         else
 8808              		.loc 5 244 48 view .LVU2373
 8809 073a 02FA00F2 		lsl	r2, r2, r0
 244:../../libdaisy/src/dev/oled_ssd130x.h ****         else
 8810              		.loc 5 244 42 view .LVU2374
 8811 073e 91F85000 		ldrb	r0, [r1, #80]	@ zero_extendqisi2
 8812 0742 42EA0002 		orr	r2, r2, r0
 8813 0746 81F85020 		strb	r2, [r1, #80]
 8814              	.LVL582:
 244:../../libdaisy/src/dev/oled_ssd130x.h ****         else
 8815              		.loc 5 244 42 view .LVU2375
 8816              	.LBE2333:
 8817              	.LBE2334:
 8818              	.LBE2335:
 199:../../libdaisy/src/hid/disp/display.h ****         {
 8819              		.loc 6 199 26 is_stmt 1 view .LVU2376
 8820 074a EFD1     		bne	.L473
 8821 074c 7DE4     		b	.L474
 8822              	.LVL583:
 8823              	.L431:
 199:../../libdaisy/src/hid/disp/display.h ****         {
 8824              		.loc 6 199 26 is_stmt 0 view .LVU2377
 8825              	.LBE2326:
 8826              	.LBE2325:
 8827              	.LBE2288:
 636:Menus.cpp     ****             this->menuStateEnv = 3;
 8828              		.loc 2 636 13 is_stmt 1 view .LVU2378
 639:Menus.cpp     ****     if(this->buttonRight.RisingEdge())
 8829              		.loc 2 639 5 is_stmt 0 view .LVU2379
 8830 074e 97F86130 		ldrb	r3, [r7, #97]	@ zero_extendqisi2
 636:Menus.cpp     ****             this->menuStateEnv = 3;
 8831              		.loc 2 636 32 view .LVU2380
 8832 0752 0322     		movs	r2, #3
ARM GAS  C:\Users\VINCIU~1\AppData\Local\Temp\ccnesEGk.s 			page 225


 639:Menus.cpp     ****     if(this->buttonRight.RisingEdge())
 8833              		.loc 2 639 5 view .LVU2381
 8834 0754 7F2B     		cmp	r3, #127
 636:Menus.cpp     ****             this->menuStateEnv = 3;
 8835              		.loc 2 636 32 view .LVU2382
 8836 0756 C7F8AC21 		str	r2, [r7, #428]
 639:Menus.cpp     ****     if(this->buttonRight.RisingEdge())
 8837              		.loc 2 639 5 is_stmt 1 view .LVU2383
 8838              	.LVL584:
 8839              	.LBB2336:
 8840              		.loc 4 69 17 view .LVU2384
 8841              	.LBB2079:
 8842              		.loc 4 69 38 view .LVU2385
 8843              		.loc 4 69 38 is_stmt 0 view .LVU2386
 8844              	.LBE2079:
 8845              	.LBE2336:
 639:Menus.cpp     ****     if(this->buttonRight.RisingEdge())
 8846              		.loc 2 639 5 view .LVU2387
 8847 075a 3FF47DAE 		beq	.L433
 8848              	.L434:
 719:Menus.cpp     ****         this->releaseTime += this->encoderRight.Increment() * 3.3;
 8849              		.loc 2 719 9 is_stmt 1 view .LVU2388
 8850              	.LVL585:
 8851              	.LBB2337:
 8852              	.LBI2337:
  41:../../libdaisy/src/hid/encoder.h ****     /** Returns true if the encoder was just pressed.
 8853              		.loc 3 41 20 view .LVU2389
 8854              	.LBB2338:
  41:../../libdaisy/src/hid/encoder.h ****     /** Returns true if the encoder was just pressed.
 8855              		.loc 3 41 40 view .LVU2390
  41:../../libdaisy/src/hid/encoder.h ****     /** Returns true if the encoder was just pressed.
 8856              		.loc 3 41 40 is_stmt 0 view .LVU2391
 8857              	.LBE2338:
 8858              	.LBE2337:
 719:Menus.cpp     ****         this->releaseTime += this->encoderRight.Increment() * 3.3;
 8859              		.loc 2 719 27 view .LVU2392
 8860 075e 97ED747A 		vldr.32	s14, [r7, #464]
 720:Menus.cpp     ****         env.SetTime(daisysp::ADSR_SEG_RELEASE, this->releaseTime / 100);
 8861              		.loc 2 720 20 view .LVU2393
 8862 0762 0421     		movs	r1, #4
 719:Menus.cpp     ****         this->releaseTime += this->encoderRight.Increment() * 3.3;
 8863              		.loc 2 719 61 view .LVU2394
 8864 0764 D7ED127A 		vldr.32	s15, [r7, #72]	@ int
 720:Menus.cpp     ****         env.SetTime(daisysp::ADSR_SEG_RELEASE, this->releaseTime / 100);
 8865              		.loc 2 720 20 view .LVU2395
 8866 0768 2846     		mov	r0, r5
 8867 076a 9FED2C0A 		vldr.32	s0, .L606+12
 719:Menus.cpp     ****         this->releaseTime += this->encoderRight.Increment() * 3.3;
 8868              		.loc 2 719 61 view .LVU2396
 8869 076e B8EEE76B 		vcvt.f64.s32	d6, s15
 719:Menus.cpp     ****         this->releaseTime += this->encoderRight.Increment() * 3.3;
 8870              		.loc 2 719 27 view .LVU2397
 8871 0772 B7EEC77A 		vcvt.f64.f32	d7, s14
 8872 0776 9FED265B 		vldr.64	d5, .L606
 8873 077a A6EE057B 		vfma.f64	d7, d6, d5
 8874 077e B7EEC77B 		vcvt.f32.f64	s14, d7
 720:Menus.cpp     ****         env.SetTime(daisysp::ADSR_SEG_RELEASE, this->releaseTime / 100);
ARM GAS  C:\Users\VINCIU~1\AppData\Local\Temp\ccnesEGk.s 			page 226


 8875              		.loc 2 720 20 view .LVU2398
 8876 0782 87EE000A 		vdiv.f32	s0, s14, s0
 719:Menus.cpp     ****         this->releaseTime += this->encoderRight.Increment() * 3.3;
 8877              		.loc 2 719 27 view .LVU2399
 8878 0786 87ED747A 		vstr.32	s14, [r7, #464]
 720:Menus.cpp     ****         env.SetTime(daisysp::ADSR_SEG_RELEASE, this->releaseTime / 100);
 8879              		.loc 2 720 9 is_stmt 1 view .LVU2400
 720:Menus.cpp     ****         env.SetTime(daisysp::ADSR_SEG_RELEASE, this->releaseTime / 100);
 8880              		.loc 2 720 20 is_stmt 0 view .LVU2401
 8881 078a FFF7FEFF 		bl	_ZN7daisysp4Adsr7SetTimeEif
 8882              	.LVL586:
 721:Menus.cpp     ****         this->releaseTimeScaleDraw += this->encoderRight.Increment();
 8883              		.loc 2 721 9 is_stmt 1 view .LVU2402
 8884              	.LBB2339:
 8885              	.LBI2339:
  41:../../libdaisy/src/hid/encoder.h ****     /** Returns true if the encoder was just pressed.
 8886              		.loc 3 41 20 view .LVU2403
 8887              	.LBB2340:
  41:../../libdaisy/src/hid/encoder.h ****     /** Returns true if the encoder was just pressed.
 8888              		.loc 3 41 40 view .LVU2404
  41:../../libdaisy/src/hid/encoder.h ****     /** Returns true if the encoder was just pressed.
 8889              		.loc 3 41 40 is_stmt 0 view .LVU2405
 8890              	.LBE2340:
 8891              	.LBE2339:
 721:Menus.cpp     ****         this->releaseTimeScaleDraw += this->encoderRight.Increment();
 8892              		.loc 2 721 36 view .LVU2406
 8893 078e D7ED127A 		vldr.32	s15, [r7, #72]	@ int
 8894 0792 D7ED766A 		vldr.32	s13, [r7, #472]
 722:Menus.cpp     ****         if(this->releaseTimeScaleDraw >= screen.Width() / 4)
 8895              		.loc 2 722 9 view .LVU2407
 8896 0796 9FED207A 		vldr.32	s14, .L606+8
 721:Menus.cpp     ****         this->releaseTimeScaleDraw += this->encoderRight.Increment();
 8897              		.loc 2 721 36 view .LVU2408
 8898 079a F8EEE77A 		vcvt.f32.s32	s15, s15
 8899 079e 77EEA67A 		vadd.f32	s15, s15, s13
 722:Menus.cpp     ****         if(this->releaseTimeScaleDraw >= screen.Width() / 4)
 8900              		.loc 2 722 9 is_stmt 1 view .LVU2409
 8901 07a2 F4EEC77A 		vcmpe.f32	s15, s14
 8902 07a6 F1EE10FA 		vmrs	APSR_nzcv, FPSCR
 8903 07aa 2EDA     		bge	.L602
 726:Menus.cpp     ****         if(this->releaseTimeScaleDraw <= 0)
 8904              		.loc 2 726 9 view .LVU2410
 8905 07ac F5EEC07A 		vcmpe.f32	s15, #0
 8906 07b0 0023     		movs	r3, #0
 8907 07b2 F1EE10FA 		vmrs	APSR_nzcv, FPSCR
 721:Menus.cpp     ****         this->releaseTimeScaleDraw += this->encoderRight.Increment();
 8908              		.loc 2 721 36 is_stmt 0 view .LVU2411
 8909 07b6 8CBF     		ite	hi
 8910 07b8 C7ED767A 		vstrhi.32	s15, [r7, #472]
 728:Menus.cpp     ****             this->releaseTimeScaleDraw = 0;
 8911              		.loc 2 728 13 is_stmt 1 view .LVU2412
 728:Menus.cpp     ****             this->releaseTimeScaleDraw = 0;
 8912              		.loc 2 728 40 is_stmt 0 view .LVU2413
 8913 07bc C7F8D831 		strls	r3, [r7, #472]	@ float
 8914              	.L478:
 730:Menus.cpp     ****         if(this->releaseTime >= 100)
 8915              		.loc 2 730 9 is_stmt 1 view .LVU2414
ARM GAS  C:\Users\VINCIU~1\AppData\Local\Temp\ccnesEGk.s 			page 227


 730:Menus.cpp     ****         if(this->releaseTime >= 100)
 8916              		.loc 2 730 18 is_stmt 0 view .LVU2415
 8917 07c0 D7ED747A 		vldr.32	s15, [r7, #464]
 730:Menus.cpp     ****         if(this->releaseTime >= 100)
 8918              		.loc 2 730 9 view .LVU2416
 8919 07c4 9FED157A 		vldr.32	s14, .L606+12
 8920 07c8 F4EEC77A 		vcmpe.f32	s15, s14
 8921 07cc F1EE10FA 		vmrs	APSR_nzcv, FPSCR
 8922 07d0 4CDB     		blt	.L591
 732:Menus.cpp     ****             this->releaseTime = 100;
 8923              		.loc 2 732 13 is_stmt 1 view .LVU2417
 732:Menus.cpp     ****             this->releaseTime = 100;
 8924              		.loc 2 732 31 is_stmt 0 view .LVU2418
 8925 07d2 87ED747A 		vstr.32	s14, [r7, #464]
 734:Menus.cpp     ****         if(this->releaseTime <= 0)
 8926              		.loc 2 734 9 is_stmt 1 view .LVU2419
 8927              	.L482:
 738:Menus.cpp     ****         screen.DrawRect(76, 0, 88, 13, true, false);
 8928              		.loc 2 738 9 view .LVU2420
 738:Menus.cpp     ****         screen.DrawRect(76, 0, 88, 13, true, false);
 8929              		.loc 2 738 24 is_stmt 0 view .LVU2421
 8930 07d6 0022     		movs	r2, #0
 8931 07d8 0121     		movs	r1, #1
 8932 07da 0D23     		movs	r3, #13
 8933 07dc 2046     		mov	r0, r4
 8934 07de CDE90112 		strd	r1, r2, [sp, #4]
 8935 07e2 0093     		str	r3, [sp]
 8936 07e4 4C21     		movs	r1, #76
 8937 07e6 5823     		movs	r3, #88
 8938 07e8 FFF7FEFF 		bl	_ZN5daisy25OneBitGraphicsDisplayImplINS_11OledDisplayINS_13SSD130xDriverILj128ELj64ENS_24SSD130
 8939              	.LVL587:
 8940 07ec 2DE4     		b	.L474
 8941              	.L594:
 633:Menus.cpp     ****         this->menuStateEnv = this->menuStateEnv - 1;
 8942              		.loc 2 633 9 is_stmt 1 view .LVU2422
 634:Menus.cpp     ****         if(this->menuStateEnv < 0)
 8943              		.loc 2 634 9 view .LVU2423
 8944 07ee 013B     		subs	r3, r3, #1
 8945 07f0 ADD4     		bmi	.L431
 633:Menus.cpp     ****         this->menuStateEnv = this->menuStateEnv - 1;
 8946              		.loc 2 633 28 is_stmt 0 view .LVU2424
 8947 07f2 C7F8AC31 		str	r3, [r7, #428]
 8948 07f6 17E4     		b	.L432
 8949              	.L601:
 701:Menus.cpp     ****             this->sustatinLevelScaleDraw = screen.Width() / 4;
 8950              		.loc 2 701 13 is_stmt 1 view .LVU2425
 701:Menus.cpp     ****             this->sustatinLevelScaleDraw = screen.Width() / 4;
 8951              		.loc 2 701 42 is_stmt 0 view .LVU2426
 8952 07f8 87ED727A 		vstr.32	s14, [r7, #456]
 703:Menus.cpp     ****         if(this->sustatinLevelScaleDraw <= 0)
 8953              		.loc 2 703 9 is_stmt 1 view .LVU2427
 8954 07fc 4BE7     		b	.L464
 8955              	.L599:
 655:Menus.cpp     ****             attackTimeScaleDraw = screen.Width() / 4;
 8956              		.loc 2 655 13 view .LVU2428
 655:Menus.cpp     ****             attackTimeScaleDraw = screen.Width() / 4;
 8957              		.loc 2 655 33 is_stmt 0 view .LVU2429
ARM GAS  C:\Users\VINCIU~1\AppData\Local\Temp\ccnesEGk.s 			page 228


 8958 07fe 87ED697A 		vstr.32	s14, [r7, #420]
 657:Menus.cpp     ****         if(attackTimeScaleDraw <= 0)
 8959              		.loc 2 657 9 is_stmt 1 view .LVU2430
 8960 0802 5EE6     		b	.L440
 8961              	.L600:
 678:Menus.cpp     ****             decayTimeScaleDraw = screen.Width() / 4;
 8962              		.loc 2 678 13 view .LVU2431
 678:Menus.cpp     ****             decayTimeScaleDraw = screen.Width() / 4;
 8963              		.loc 2 678 32 is_stmt 0 view .LVU2432
 8964 0804 87ED6E7A 		vstr.32	s14, [r7, #440]
 680:Menus.cpp     ****         if(decayTimeScaleDraw <= 0)
 8965              		.loc 2 680 9 is_stmt 1 view .LVU2433
 8966 0808 EDE6     		b	.L454
 8967              	.L602:
 724:Menus.cpp     ****             this->releaseTimeScaleDraw = screen.Width() / 4;
 8968              		.loc 2 724 13 view .LVU2434
 724:Menus.cpp     ****             this->releaseTimeScaleDraw = screen.Width() / 4;
 8969              		.loc 2 724 40 is_stmt 0 view .LVU2435
 8970 080a 87ED767A 		vstr.32	s14, [r7, #472]
 726:Menus.cpp     ****         if(this->releaseTimeScaleDraw <= 0)
 8971              		.loc 2 726 9 is_stmt 1 view .LVU2436
 8972 080e D7E7     		b	.L478
 8973              	.L607:
 8974              		.align	3
 8975              	.L606:
 8976 0810 66666666 		.word	1717986918
 8977 0814 66660A40 		.word	1074423398
 8978 0818 00000042 		.word	1107296256
 8979 081c 0000C842 		.word	1120403456
 8980 0820 0AD723BC 		.word	-1138501878
 8981              	.LVL588:
 8982              	.L538:
 8983              	.LBB2341:
 8984              	.LBB2148:
 190:../../libdaisy/src/hid/disp/display.h ****         int_fast16_t error  = deltaX - deltaY;
 8985              		.loc 6 190 42 is_stmt 0 view .LVU2437
 8986 0824 0123     		movs	r3, #1
 8987 0826 0693     		str	r3, [sp, #24]
 8988 0828 B6E4     		b	.L496
 8989              	.LVL589:
 8990              	.L589:
 190:../../libdaisy/src/hid/disp/display.h ****         int_fast16_t error  = deltaX - deltaY;
 8991              		.loc 6 190 42 view .LVU2438
 8992              	.LBE2148:
 8993              	.LBE2341:
 711:Menus.cpp     ****         if(this->sustatinLevel <= 0)
 8994              		.loc 2 711 9 is_stmt 1 view .LVU2439
 8995 082a F5EEC07A 		vcmpe.f32	s15, #0
 8996 082e 0023     		movs	r3, #0
 8997 0830 F1EE10FA 		vmrs	APSR_nzcv, FPSCR
 713:Menus.cpp     ****             this->sustatinLevel = 0;
 8998              		.loc 2 713 13 view .LVU2440
 713:Menus.cpp     ****             this->sustatinLevel = 0;
 8999              		.loc 2 713 33 is_stmt 0 view .LVU2441
 9000 0834 98BF     		it	ls
 9001 0836 C7F8C031 		strls	r3, [r7, #448]	@ float
 9002 083a 38E7     		b	.L468
ARM GAS  C:\Users\VINCIU~1\AppData\Local\Temp\ccnesEGk.s 			page 229


 9003              	.L585:
 665:Menus.cpp     ****         if(attackTime <= 0)
 9004              		.loc 2 665 9 is_stmt 1 view .LVU2442
 9005 083c F5EEC07A 		vcmpe.f32	s15, #0
 9006 0840 0023     		movs	r3, #0
 9007 0842 F1EE10FA 		vmrs	APSR_nzcv, FPSCR
 667:Menus.cpp     ****             attackTime = 0;
 9008              		.loc 2 667 13 view .LVU2443
 667:Menus.cpp     ****             attackTime = 0;
 9009              		.loc 2 667 24 is_stmt 0 view .LVU2444
 9010 0846 98BF     		it	ls
 9011 0848 C7F89831 		strls	r3, [r7, #408]	@ float
 9012 084c 45E6     		b	.L444
 9013              	.LVL590:
 9014              	.L527:
 9015              	.LBB2342:
 9016              	.LBB2286:
  68:../../DaisySP/Source/Control/adsr.h ****                                        : (sus_level > 1.f) ? 1.f : sus_level;
 9017              		.loc 8 68 40 view .LVU2445
 9018 084e 1FED0C6A 		vldr.32	s12, .L606+16
 9019              	.LVL591:
  68:../../DaisySP/Source/Control/adsr.h ****                                        : (sus_level > 1.f) ? 1.f : sus_level;
 9020              		.loc 8 68 40 view .LVU2446
 9021 0852 06E7     		b	.L461
 9022              	.LVL592:
 9023              	.L598:
  68:../../DaisySP/Source/Control/adsr.h ****                                        : (sus_level > 1.f) ? 1.f : sus_level;
 9024              		.loc 8 68 40 view .LVU2447
 9025              	.LBE2286:
 9026              	.LBE2342:
 9027              	.LBB2343:
 9028              	.LBB2149:
 199:../../libdaisy/src/hid/disp/display.h ****         {
 9029              		.loc 6 199 26 view .LVU2448
 9030 0854 0023     		movs	r3, #0
 9031 0856 0793     		str	r3, [sp, #28]
 9032 0858 C9E4     		b	.L495
 9033              	.LVL593:
 9034              	.L587:
 199:../../libdaisy/src/hid/disp/display.h ****         {
 9035              		.loc 6 199 26 view .LVU2449
 9036              	.LBE2149:
 9037              	.LBE2343:
 688:Menus.cpp     ****         if(decayTime <= 0)
 9038              		.loc 2 688 9 is_stmt 1 view .LVU2450
 9039 085a F5EEC07A 		vcmpe.f32	s15, #0
 9040 085e 0023     		movs	r3, #0
 9041 0860 F1EE10FA 		vmrs	APSR_nzcv, FPSCR
 690:Menus.cpp     ****             decayTime = 0;
 9042              		.loc 2 690 13 view .LVU2451
 690:Menus.cpp     ****             decayTime = 0;
 9043              		.loc 2 690 23 is_stmt 0 view .LVU2452
 9044 0864 98BF     		it	ls
 9045 0866 C7F8B431 		strls	r3, [r7, #436]	@ float
 9046 086a C8E6     		b	.L458
 9047              	.L591:
 734:Menus.cpp     ****         if(this->releaseTime <= 0)
ARM GAS  C:\Users\VINCIU~1\AppData\Local\Temp\ccnesEGk.s 			page 230


 9048              		.loc 2 734 9 is_stmt 1 view .LVU2453
 9049 086c F5EEC07A 		vcmpe.f32	s15, #0
 9050 0870 0023     		movs	r3, #0
 9051 0872 F1EE10FA 		vmrs	APSR_nzcv, FPSCR
 736:Menus.cpp     ****             this->releaseTime = 0;
 9052              		.loc 2 736 13 view .LVU2454
 736:Menus.cpp     ****             this->releaseTime = 0;
 9053              		.loc 2 736 31 is_stmt 0 view .LVU2455
 9054 0876 98BF     		it	ls
 9055 0878 C7F8D031 		strls	r3, [r7, #464]	@ float
 9056 087c ABE7     		b	.L482
 9057              		.cfi_endproc
 9058              	.LFE4042:
 9060 087e 00BF     		.section	.rodata
 9061              		.align	2
 9062              		.set	.LANCHOR0,. + 0
 9063              	.LC1:
 9064 0000 FFFFFFFF 		.ascii	"\377\377\377\377\377\377\377\377\377\377\377\377\377"
 9064      FFFFFFFF 
 9064      FFFFFFFF 
 9064      FF
 9065 000d FFFFFFFF 		.ascii	"\377\377\377\377\377\377\377\377\377\377\377\377\377"
 9065      FFFFFFFF 
 9065      FFFFFFFF 
 9065      FF
 9066 001a FFFFFFFF 		.ascii	"\377\377\377\377\377\377\377\377\377\377\377\377\377"
 9066      FFFFFFFF 
 9066      FFFFFFFF 
 9066      FF
 9067 0027 FFFFFFFF 		.ascii	"\377\377\377\377\377\377\377\377\377\377\377\377\377"
 9067      FFFFFFFF 
 9067      FFFFFFFF 
 9067      FF
 9068 0034 FFFFFFFB 		.ascii	"\377\377\377\373\377\377\377\377\377\377\377\377\377"
 9068      FFFFFFFF 
 9068      FFFFFFFF 
 9068      FF
 9069 0041 FFFFFFFF 		.ascii	"\377\377\377\377\377\377\373\377\377\377\377\377\377"
 9069      FFFFFBFF 
 9069      FFFFFFFF 
 9069      FF
 9070 004e FFFFFFFF 		.ascii	"\377\377\377\377\377\377\377\377\377\361\377\377\377"
 9070      FFFFFFFF 
 9070      FFF1FFFF 
 9070      FF
 9071 005b FFFFFFFF 		.ascii	"\377\377\377\377\377\377\377\377\377\377\377\377\361"
 9071      FFFFFFFF 
 9071      FFFFFFFF 
 9071      F1
 9072 0068 FFFFFFFF 		.ascii	"\377\377\377\377\377\377\377\377\377\377\377\377\377"
 9072      FFFFFFFF 
 9072      FFFFFFFF 
 9072      FF
 9073 0075 FFFFF1FF 		.ascii	"\377\377\361\377\377\377\377\377\377\377\377\377\377"
 9073      FFFFFFFF 
 9073      FFFFFFFF 
 9073      FF
ARM GAS  C:\Users\VINCIU~1\AppData\Local\Temp\ccnesEGk.s 			page 231


 9074 0082 FFFFFFFF 		.ascii	"\377\377\377\377\377\340\377\377\377\377\377\377\377"
 9074      FFE0FFFF 
 9074      FFFFFFFF 
 9074      FF
 9075 008f FFFFFFFF 		.ascii	"\377\377\377\377\377\377\377\377\340\377\377\377\377"
 9075      FFFFFFFF 
 9075      E0FFFFFF 
 9075      FF
 9076 009c FFFFFFFF 		.ascii	"\377\377\377\377\377\377\377\377\377\377\377\340\377"
 9076      FFFFFFFF 
 9076      FFFFFFE0 
 9076      FF
 9077 00a9 FFFFFFFF 		.ascii	"\377\377\377\377\377\377\377\377\377\377\377\377\377"
 9077      FFFFFFFF 
 9077      FFFFFFFF 
 9077      FF
 9078 00b6 FFC07FFF 		.ascii	"\377\300\177\377\377\377\377\377\377\377\377\377\377"
 9078      FFFFFFFF 
 9078      FFFFFFFF 
 9078      FF
 9079 00c3 FFFFFFFF 		.ascii	"\377\377\377\377\300\177\377\377\377\377\377\377\377"
 9079      C07FFFFF 
 9079      FFFFFFFF 
 9079      FF
 9080 00d0 FFFFFFFF 		.ascii	"\377\377\377\377\377\377\377\300\177\377\377\377\377"
 9080      FFFFFFC0 
 9080      7FFFFFFF 
 9080      FF
 9081 00dd FFFFFFFF 		.ascii	"\377\377\377\377\377\377\377\377\377\377\200?\377\377"
 9081      FFFFFFFF 
 9081      FFFF803F 
 9081      FFFF
 9082 00eb FFFFFFFF 		.ascii	"\377\377\377\377\377\377\377\377\377\377\377\377\200"
 9082      FFFFFFFF 
 9082      FFFFFFFF 
 9082      80
 9083 00f8 3FFFFFFF 		.ascii	"?\377\377\377\377\377\377\377\377\377\377\377\377\377"
 9083      FFFFFFFF 
 9083      FFFFFFFF 
 9083      FFFF
 9084 0106 FF803FFF 		.ascii	"\377\200?\377\377\377\377\377\377\377\377\377\377\377"
 9084      FFFFFFFF 
 9084      FFFFFFFF 
 9084      FFFF
 9085 0114 FFFFFF00 		.ascii	"\377\377\377\000\037\377\377\377\377\377\377\377\377"
 9085      1FFFFFFF 
 9085      FFFFFFFF 
 9085      FF
 9086 0121 FFFFFFFF 		.ascii	"\377\377\377\377\377\377\000\037\377\377\377\377\377"
 9086      FFFF001F 
 9086      FFFFFFFF 
 9086      FF
 9087 012e FFFFFFFF 		.ascii	"\377\377\377\377\377\377\377\377\377\000\037\377\377"
 9087      FFFFFFFF 
 9087      FF001FFF 
 9087      FF
 9088 013b FFFFFFFF 		.ascii	"\377\377\377\377\377\377\377\377\377\377\377\376\000"
ARM GAS  C:\Users\VINCIU~1\AppData\Local\Temp\ccnesEGk.s 			page 232


 9088      FFFFFFFF 
 9088      FFFFFFFE 
 9088      00
 9089 0148 0FFFFFFF 		.ascii	"\017\377\377\377\377\377\377\377\377\377\377\377\377"
 9089      FFFFFFFF 
 9089      FFFFFFFF 
 9089      FF
 9090 0155 FFFE000F 		.ascii	"\377\376\000\017\377\377\377\377\377\377\377\377\377"
 9090      FFFFFFFF 
 9090      FFFFFFFF 
 9090      FF
 9091 0162 FFFFFFFF 		.ascii	"\377\377\377\377\376\000\017\377\377\377\377\377\377"
 9091      FE000FFF 
 9091      FFFFFFFF 
 9091      FF
 9092 016f FFFFFFFF 		.ascii	"\377\377\377\377\377\377\377\374\000\007\377\377\377"
 9092      FFFFFFFC 
 9092      0007FFFF 
 9092      FF
 9093 017c FFFFFFFF 		.ascii	"\377\377\377\377\377\377\377\377\377\377\374\000\007"
 9093      FFFFFFFF 
 9093      FFFFFC00 
 9093      07
 9094 0189 FFFFFFFF 		.ascii	"\377\377\377\377\377\377\377\377\377\377\376\000\000"
 9094      FFFFFFFF 
 9094      FFFFFE00 
 9094      00
 9095 0196 00000000 		.ascii	"\000\000\000\000\000\017\377\377\377\377\377\377\377"
 9095      000FFFFF 
 9095      FFFFFFFF 
 9095      FF
 9096 01a3 FF800000 		.ascii	"\377\200\000\000\000\000\000\000?\377\377\377\377\377"
 9096      00000000 
 9096      3FFFFFFF 
 9096      FFFF
 9097 01b1 FFFFFFC0 		.ascii	"\377\377\377\300\000\000\000\000\000\000\177\377\377"
 9097      00000000 
 9097      00007FFF 
 9097      FF
 9098 01be FFFFFFFF 		.ascii	"\377\377\377\377\377\377\360\000\000\000\000\000\000"
 9098      FFFFF000 
 9098      00000000 
 9098      00
 9099 01cb FFFFFFFF 		.ascii	"\377\377\377\377\377\377\377\377\377\370\000\000\000"
 9099      FFFFFFFF 
 9099      FFF80000 
 9099      00
 9100 01d8 000003FF 		.ascii	"\000\000\003\377\377\377\377\377\377\377\377\377\374"
 9100      FFFFFFFF 
 9100      FFFFFFFF 
 9100      FC
 9101 01e5 00000000 		.ascii	"\000\000\000\000\000\007\377\377\377\377\377\377\377"
 9101      0007FFFF 
 9101      FFFFFFFF 
 9101      FF
 9102 01f2 FFFFFF00 		.ascii	"\377\377\377\000\007\361\377\200\037\377\377\377\377"
 9102      07F1FF80 
ARM GAS  C:\Users\VINCIU~1\AppData\Local\Temp\ccnesEGk.s 			page 233


 9102      1FFFFFFF 
 9102      FF
 9103 01ff FFFFFFFF 		.ascii	"\377\377\377\377\377\377\200\007\375\377\300?\377\377"
 9103      FFFF8007 
 9103      FDFFC03F 
 9103      FFFF
 9104 020d FFFFFFFF 		.ascii	"\377\377\377\377\377\377\377\377\300\007\034\034\000"
 9104      FFFFFFFF 
 9104      C0071C1C 
 9104      00
 9105 021a 7FFFFFFF 		.ascii	"\177\377\377\377\377\377\377\377\377\377\377\360\006"
 9105      FFFFFFFF 
 9105      FFFFFFF0 
 9105      06
 9106 0227 0C1C01FF 		.ascii	"\014\034\001\377\377\377\377\377\377\377\377\377\377"
 9106      FFFFFFFF 
 9106      FFFFFFFF 
 9106      FF
 9107 0234 FFF8060C 		.ascii	"\377\370\006\014\034\003\377\377\377\377\377\377\377"
 9107      1C03FFFF 
 9107      FFFFFFFF 
 9107      FF
 9108 0241 FFFFFFFF 		.ascii	"\377\377\377\377\376\007\034\034\017\377\377\377\377"
 9108      FE071C1C 
 9108      0FFFFFFF 
 9108      FF
 9109 024e FFFFFFFF 		.ascii	"\377\377\377\377\377\377\377\377\007\374\034\037\377"
 9109      FFFFFFFF 
 9109      07FC1C1F 
 9109      FF
 9110 025b FFFFFFFF 		.ascii	"\377\377\377\377\377\377\377\377\377\377\377\207\360"
 9110      FFFFFFFF 
 9110      FFFFFF87 
 9110      F0
 9111 0268 1C3FFFFF 		.ascii	"\034?\377\377\377\377\377\377\377\377\377\377\377\377"
 9111      FFFFFFFF 
 9111      FFFFFFFF 
 9111      FFFF
 9112 0276 87001C3F 		.ascii	"\207\000\034?\377\377\377\377\377\377\377\377\377\377"
 9112      FFFFFFFF 
 9112      FFFFFFFF 
 9112      FFFF
 9113 0284 FFFF8600 		.ascii	"\377\377\206\000\034?\377\377\377\377\377\377\377\377"
 9113      1C3FFFFF 
 9113      FFFFFFFF 
 9113      FFFF
 9114 0292 FFFFFFFF 		.ascii	"\377\377\377\377\207\000\034\037\377\377\377\377\377"
 9114      87001C1F 
 9114      FFFFFFFF 
 9114      FF
 9115 029f FFFFFFFF 		.ascii	"\377\377\377\377\377\377\377\006\000\030\037\377\377"
 9115      FFFFFF06 
 9115      00181FFF 
 9115      FF
 9116 02ac FFFFFFFF 		.ascii	"\377\377\377\377\377\377\377\377\377\377\000\000\000"
 9116      FFFFFFFF 
 9116      FFFF0000 
ARM GAS  C:\Users\VINCIU~1\AppData\Local\Temp\ccnesEGk.s 			page 234


 9116      00
 9117 02b9 1FFFFFFF 		.ascii	"\037\377\377\377\377\377\377\377\377\377\377\377\377"
 9117      FFFFFFFF 
 9117      FFFFFFFF 
 9117      FF
 9118 02c6 0000000F 		.ascii	"\000\000\000\017\377\377\377\377\377\377\377\377\377"
 9118      FFFFFFFF 
 9118      FFFFFFFF 
 9118      FF
 9119 02d3 FFFFFE00 		.ascii	"\377\377\376\000\000\000\017\377\377\377\377\377\377"
 9119      00000FFF 
 9119      FFFFFFFF 
 9119      FF
 9120 02e0 FFFFFFFF 		.ascii	"\377\377\377\377\377\376\000\000\000\017\377\377\377"
 9120      FFFE0000 
 9120      000FFFFF 
 9120      FF
 9121 02ed FFFFFFFF 		.ascii	"\377\377\377\377\377\377\377\377\376\000\004\000\007"
 9121      FFFFFFFF 
 9121      FE000400 
 9121      07
 9122 02fa FFFFFFFF 		.ascii	"\377\377\377\377\377\377\377\377\377\377\377\374\000"
 9122      FFFFFFFF 
 9122      FFFFFFFC 
 9122      00
 9123 0307 0E0007FF 		.ascii	"\016\000\007\377\377\377\377\377\377\377\377\377\377"
 9123      FFFFFFFF 
 9123      FFFFFFFF 
 9123      FF
 9124 0314 FFFC003F 		.ascii	"\377\374\000?\200\007\377\377\377\377\377\377\377\377"
 9124      8007FFFF 
 9124      FFFFFFFF 
 9124      FFFF
 9125 0322 FFFFFFFC 		.ascii	"\377\377\377\374\000\177\300\003\377\377\377\377\377"
 9125      007FC003 
 9125      FFFFFFFF 
 9125      FF
 9126 032f FFFFFFFF 		.ascii	"\377\377\377\377\377\377\370\001\377\360\003\377\377"
 9126      FFFFF801 
 9126      FFF003FF 
 9126      FF
 9127 033c FFFFFFFF 		.ascii	"\377\377\377\377\377\377\377\377\377\370\003\377\370"
 9127      FFFFFFFF 
 9127      FFF803FF 
 9127      F8
 9128 0349 03FFFFFF 		.ascii	"\003\377\377\377\377\377\377\377\377\377\377\377\370"
 9128      FFFFFFFF 
 9128      FFFFFFFF 
 9128      F8
 9129 0356 07FFFC01 		.ascii	"\007\377\374\001\377\377\377\377\377\377\377\377\377"
 9129      FFFFFFFF 
 9129      FFFFFFFF 
 9129      FF
 9130 0363 FFFFF01F 		.ascii	"\377\377\360\037\377\377\001\377\377\377\377\377\377"
 9130      FFFF01FF 
 9130      FFFFFFFF 
 9130      FF
ARM GAS  C:\Users\VINCIU~1\AppData\Local\Temp\ccnesEGk.s 			page 235


 9131 0370 FFFFFFFF 		.ascii	"\377\377\377\377\377\360?\377\377\201\377\377\377\377"
 9131      FFF03FFF 
 9131      FF81FFFF 
 9131      FFFF
 9132 037e FFFFFFFF 		.ascii	"\377\377\377\377\377\377\377\360\377\377\377\341\377"
 9132      FFFFFFF0 
 9132      FFFFFFE1 
 9132      FF
 9133 038b FFFFFFFF 		.ascii	"\377\377\377\377\377\377\377\377\377\377\341\377\377"
 9133      FFFFFFFF 
 9133      FFFFE1FF 
 9133      FF
 9134 0398 FFF0FFFF 		.ascii	"\377\360\377\377\377\377\377\377\377\377\377\377\377"
 9134      FFFFFFFF 
 9134      FFFFFFFF 
 9134      FF
 9135 03a5 E3FFFFFF 		.ascii	"\343\377\377\377\370\377\377\377\377\377\377\377\377"
 9135      F8FFFFFF 
 9135      FFFFFFFF 
 9135      FF
 9136 03b2 FFFFFFEF 		.ascii	"\377\377\377\357\377\377\377\376\177\377\377\377\377"
 9136      FFFFFFFE 
 9136      7FFFFFFF 
 9136      FF
 9137 03bf FFFFFFFF 		.ascii	"\377\377\377\377\377\377\377\377\377\377\377\177\377"
 9137      FFFFFFFF 
 9137      FFFFFF7F 
 9137      FF
 9138 03cc FFFFFFFF 		.ascii	"\377\377\377\377\377\377\377\377\377\377\377\377\377"
 9138      FFFFFFFF 
 9138      FFFFFFFF 
 9138      FF
 9139 03d9 FFFFFFFF 		.ascii	"\377\377\377\377\377\377\377\377\377\377\377\377\377"
 9139      FFFFFFFF 
 9139      FFFFFFFF 
 9139      FF
 9140 03e6 FFFFFFFF 		.ascii	"\377\377\377\377\377\377\377\377\377\377\377\377\377"
 9140      FFFFFFFF 
 9140      FFFFFFFF 
 9140      FF
 9141 03f3 FFFFFFFF 		.ascii	"\377\377\377\377\377\377\377\377\377\377\377\377\377"
 9141      FFFFFFFF 
 9141      FFFFFFFF 
 9141      FF
 9142              		.text
 9143              	.Letext0:
 9144              		.file 9 "c:\\users\\vin\355cius\\documents\\daisytoolchain-0.3.1\\windows\\arm-none-eabi\\include\
 9145              		.file 10 "c:\\users\\vin\355cius\\documents\\daisytoolchain-0.3.1\\windows\\arm-none-eabi\\include
 9146              		.file 11 "c:\\users\\vin\355cius\\documents\\daisytoolchain-0.3.1\\windows\\arm-none-eabi\\include
 9147              		.file 12 "c:\\users\\vin\355cius\\documents\\daisytoolchain-0.3.1\\windows\\lib\\gcc\\arm-none-eab
 9148              		.file 13 "c:\\users\\vin\355cius\\documents\\daisytoolchain-0.3.1\\windows\\arm-none-eabi\\include
 9149              		.file 14 "c:\\users\\vin\355cius\\documents\\daisytoolchain-0.3.1\\windows\\arm-none-eabi\\include
 9150              		.file 15 "c:\\users\\vin\355cius\\documents\\daisytoolchain-0.3.1\\windows\\arm-none-eabi\\include
 9151              		.file 16 "c:\\users\\vin\355cius\\documents\\daisytoolchain-0.3.1\\windows\\arm-none-eabi\\include
 9152              		.file 17 "c:\\users\\vin\355cius\\documents\\daisytoolchain-0.3.1\\windows\\arm-none-eabi\\include
 9153              		.file 18 "c:\\users\\vin\355cius\\documents\\daisytoolchain-0.3.1\\windows\\arm-none-eabi\\include
 9154              		.file 19 "c:\\users\\vin\355cius\\documents\\daisytoolchain-0.3.1\\windows\\arm-none-eabi\\include
ARM GAS  C:\Users\VINCIU~1\AppData\Local\Temp\ccnesEGk.s 			page 236


 9155              		.file 20 "c:\\users\\vin\355cius\\documents\\daisytoolchain-0.3.1\\windows\\arm-none-eabi\\include
 9156              		.file 21 "c:\\users\\vin\355cius\\documents\\daisytoolchain-0.3.1\\windows\\arm-none-eabi\\include
 9157              		.file 22 "c:\\users\\vin\355cius\\documents\\daisytoolchain-0.3.1\\windows\\arm-none-eabi\\include
 9158              		.file 23 "c:\\users\\vin\355cius\\documents\\daisytoolchain-0.3.1\\windows\\arm-none-eabi\\include
 9159              		.file 24 "c:\\users\\vin\355cius\\documents\\daisytoolchain-0.3.1\\windows\\arm-none-eabi\\include
 9160              		.file 25 "c:\\users\\vin\355cius\\documents\\daisytoolchain-0.3.1\\windows\\arm-none-eabi\\include
 9161              		.file 26 "c:\\users\\vin\355cius\\documents\\daisytoolchain-0.3.1\\windows\\arm-none-eabi\\include
 9162              		.file 27 "c:\\users\\vin\355cius\\documents\\daisytoolchain-0.3.1\\windows\\arm-none-eabi\\include
 9163              		.file 28 "c:\\users\\vin\355cius\\documents\\daisytoolchain-0.3.1\\windows\\arm-none-eabi\\include
 9164              		.file 29 "c:\\users\\vin\355cius\\documents\\daisytoolchain-0.3.1\\windows\\arm-none-eabi\\include
 9165              		.file 30 "c:\\users\\vin\355cius\\documents\\daisytoolchain-0.3.1\\windows\\arm-none-eabi\\include
 9166              		.file 31 "c:\\users\\vin\355cius\\documents\\daisytoolchain-0.3.1\\windows\\arm-none-eabi\\include
 9167              		.file 32 "c:\\users\\vin\355cius\\documents\\daisytoolchain-0.3.1\\windows\\arm-none-eabi\\include
 9168              		.file 33 "c:\\users\\vin\355cius\\documents\\daisytoolchain-0.3.1\\windows\\arm-none-eabi\\include
 9169              		.file 34 "c:\\users\\vin\355cius\\documents\\daisytoolchain-0.3.1\\windows\\arm-none-eabi\\include
 9170              		.file 35 "c:\\users\\vin\355cius\\documents\\daisytoolchain-0.3.1\\windows\\arm-none-eabi\\include
 9171              		.file 36 "c:\\users\\vin\355cius\\documents\\daisytoolchain-0.3.1\\windows\\arm-none-eabi\\include
 9172              		.file 37 "c:\\users\\vin\355cius\\documents\\daisytoolchain-0.3.1\\windows\\arm-none-eabi\\include
 9173              		.file 38 "../../libdaisy/src/daisy_core.h"
 9174              		.file 39 "../../libdaisy/src/per/tim.h"
 9175              		.file 40 "../../libdaisy/src/per/spi.h"
 9176              		.file 41 "../../libdaisy/src/util/wav_format.h"
 9177              		.file 42 "../../libdaisy/src/per/gpio.h"
 9178              		.file 43 "c:\\users\\vin\355cius\\documents\\daisytoolchain-0.3.1\\windows\\lib\\gcc\\arm-none-eab
 9179              		.file 44 "c:\\users\\vin\355cius\\documents\\daisytoolchain-0.3.1\\windows\\arm-none-eabi\\include
 9180              		.file 45 "../../libdaisy/src/util/oled_fonts.h"
 9181              		.file 46 "../../DaisySP/Source/Control/adenv.h"
 9182              		.file 47 "../../DaisySP/Source/Utility/dsp.h"
 9183              		.file 48 "c:\\users\\vin\355cius\\documents\\daisytoolchain-0.3.1\\windows\\arm-none-eabi\\include
 9184              		.file 49 "c:\\users\\vin\355cius\\documents\\daisytoolchain-0.3.1\\windows\\arm-none-eabi\\include
 9185              		.file 50 "c:\\users\\vin\355cius\\documents\\daisytoolchain-0.3.1\\windows\\arm-none-eabi\\include
 9186              		.file 51 "Menus.h"
 9187              		.file 52 "OledDisplayExtravaganza.h"
 9188              		.file 53 "../../libdaisy/src/dev/sr_595.h"
 9189              		.file 54 "<built-in>"
ARM GAS  C:\Users\VINCIU~1\AppData\Local\Temp\ccnesEGk.s 			page 237


DEFINED SYMBOLS
                            *ABS*:00000000 Menus.cpp
C:\Users\VINCIU~1\AppData\Local\Temp\ccnesEGk.s:17     .text._ZNK5daisy11OledDisplayINS_13SSD130xDriverILj128ELj64ENS_24SSD130x4WireSpiTransportEEEE5WidthEv:00000000 $t
C:\Users\VINCIU~1\AppData\Local\Temp\ccnesEGk.s:26     .text._ZNK5daisy11OledDisplayINS_13SSD130xDriverILj128ELj64ENS_24SSD130x4WireSpiTransportEEEE5WidthEv:00000000 _ZNK5daisy11OledDisplayINS_13SSD130xDriverILj128ELj64ENS_24SSD130x4WireSpiTransportEEEE5WidthEv
C:\Users\VINCIU~1\AppData\Local\Temp\ccnesEGk.s:44     .text._ZNK5daisy11OledDisplayINS_13SSD130xDriverILj128ELj64ENS_24SSD130x4WireSpiTransportEEEE6HeightEv:00000000 $t
C:\Users\VINCIU~1\AppData\Local\Temp\ccnesEGk.s:52     .text._ZNK5daisy11OledDisplayINS_13SSD130xDriverILj128ELj64ENS_24SSD130x4WireSpiTransportEEEE6HeightEv:00000000 _ZNK5daisy11OledDisplayINS_13SSD130xDriverILj128ELj64ENS_24SSD130x4WireSpiTransportEEEE6HeightEv
C:\Users\VINCIU~1\AppData\Local\Temp\ccnesEGk.s:69     .rodata._ZN5MenusC2Ev.str1.4:00000000 $d
C:\Users\VINCIU~1\AppData\Local\Temp\ccnesEGk.s:73     .text._ZN5MenusC2Ev:00000000 $t
C:\Users\VINCIU~1\AppData\Local\Temp\ccnesEGk.s:81     .text._ZN5MenusC2Ev:00000000 _ZN5MenusC2Ev
C:\Users\VINCIU~1\AppData\Local\Temp\ccnesEGk.s:221    .text._ZN5MenusC2Ev:00000060 $d
C:\Users\VINCIU~1\AppData\Local\Temp\ccnesEGk.s:81     .text._ZN5MenusC2Ev:00000000 _ZN5MenusC1Ev
C:\Users\VINCIU~1\AppData\Local\Temp\ccnesEGk.s:229    .text._ZN5Menus12SplashScreenE23OledDisplayExtravaganza:00000000 $t
C:\Users\VINCIU~1\AppData\Local\Temp\ccnesEGk.s:237    .text._ZN5Menus12SplashScreenE23OledDisplayExtravaganza:00000000 _ZN5Menus12SplashScreenE23OledDisplayExtravaganza
C:\Users\VINCIU~1\AppData\Local\Temp\ccnesEGk.s:663    .text._ZN5Menus12SplashScreenE23OledDisplayExtravaganza:00000144 $d
C:\Users\VINCIU~1\AppData\Local\Temp\ccnesEGk.s:668    .text._ZN5Menus10WaveSelectEf:00000000 $t
C:\Users\VINCIU~1\AppData\Local\Temp\ccnesEGk.s:676    .text._ZN5Menus10WaveSelectEf:00000000 _ZN5Menus10WaveSelectEf
C:\Users\VINCIU~1\AppData\Local\Temp\ccnesEGk.s:751    .text._ZN5Menus9OscSelectEf:00000000 $t
C:\Users\VINCIU~1\AppData\Local\Temp\ccnesEGk.s:759    .text._ZN5Menus9OscSelectEf:00000000 _ZN5Menus9OscSelectEf
C:\Users\VINCIU~1\AppData\Local\Temp\ccnesEGk.s:825    .text._ZN5Menus5Menu4E23OledDisplayExtravaganzaPN7daisysp10OscillatorERNS1_4AdsrE:00000000 $t
C:\Users\VINCIU~1\AppData\Local\Temp\ccnesEGk.s:833    .text._ZN5Menus5Menu4E23OledDisplayExtravaganzaPN7daisysp10OscillatorERNS1_4AdsrE:00000000 _ZN5Menus5Menu4E23OledDisplayExtravaganzaPN7daisysp10OscillatorERNS1_4AdsrE
C:\Users\VINCIU~1\AppData\Local\Temp\ccnesEGk.s:1056   .text._ZN5daisy25OneBitGraphicsDisplayImplINS_11OledDisplayINS_13SSD130xDriverILj128ELj64ENS_24SSD130x4WireSpiTransportEEEEEE11WriteStringEPKc7FontDefb:00000000 $t
C:\Users\VINCIU~1\AppData\Local\Temp\ccnesEGk.s:1064   .text._ZN5daisy25OneBitGraphicsDisplayImplINS_11OledDisplayINS_13SSD130xDriverILj128ELj64ENS_24SSD130x4WireSpiTransportEEEEEE11WriteStringEPKc7FontDefb:00000000 _ZN5daisy25OneBitGraphicsDisplayImplINS_11OledDisplayINS_13SSD130xDriverILj128ELj64ENS_24SSD130x4WireSpiTransportEEEEEE11WriteStringEPKc7FontDefb
C:\Users\VINCIU~1\AppData\Local\Temp\ccnesEGk.s:1522   .text._ZN5daisy25OneBitGraphicsDisplayImplINS_11OledDisplayINS_13SSD130xDriverILj128ELj64ENS_24SSD130x4WireSpiTransportEEEEEE11WriteStringEPKc7FontDefb:000001b8 $d
C:\Users\VINCIU~1\AppData\Local\Temp\ccnesEGk.s:1532   .rodata._ZN5Menus5Menu2E23OledDisplayExtravaganzaPN7daisysp10OscillatorE.str1.4:00000000 $d
C:\Users\VINCIU~1\AppData\Local\Temp\ccnesEGk.s:1539   .text._ZN5Menus5Menu2E23OledDisplayExtravaganzaPN7daisysp10OscillatorE:00000000 $t
C:\Users\VINCIU~1\AppData\Local\Temp\ccnesEGk.s:1547   .text._ZN5Menus5Menu2E23OledDisplayExtravaganzaPN7daisysp10OscillatorE:00000000 _ZN5Menus5Menu2E23OledDisplayExtravaganzaPN7daisysp10OscillatorE
C:\Users\VINCIU~1\AppData\Local\Temp\ccnesEGk.s:2687   .text._ZN5Menus5Menu2E23OledDisplayExtravaganzaPN7daisysp10OscillatorE:00000368 $d
C:\Users\VINCIU~1\AppData\Local\Temp\ccnesEGk.s:2705   .text._ZN5Menus5Menu2E23OledDisplayExtravaganzaPN7daisysp10OscillatorE:00000384 $t
C:\Users\VINCIU~1\AppData\Local\Temp\ccnesEGk.s:3101   .text._ZN5Menus5Menu2E23OledDisplayExtravaganzaPN7daisysp10OscillatorE:00000500 $d
C:\Users\VINCIU~1\AppData\Local\Temp\ccnesEGk.s:3112   .text._ZN5daisy25OneBitGraphicsDisplayImplINS_11OledDisplayINS_13SSD130xDriverILj128ELj64ENS_24SSD130x4WireSpiTransportEEEEEE8DrawRectEjjjjbb:00000000 $t
C:\Users\VINCIU~1\AppData\Local\Temp\ccnesEGk.s:3120   .text._ZN5daisy25OneBitGraphicsDisplayImplINS_11OledDisplayINS_13SSD130xDriverILj128ELj64ENS_24SSD130x4WireSpiTransportEEEEEE8DrawRectEjjjjbb:00000000 _ZN5daisy25OneBitGraphicsDisplayImplINS_11OledDisplayINS_13SSD130xDriverILj128ELj64ENS_24SSD130x4WireSpiTransportEEEEEE8DrawRectEjjjjbb
C:\Users\VINCIU~1\AppData\Local\Temp\ccnesEGk.s:4230   .rodata._ZN5Menus5Menu1E23OledDisplayExtravaganzaPN7daisysp10OscillatorE.str1.4:00000000 $d
C:\Users\VINCIU~1\AppData\Local\Temp\ccnesEGk.s:4243   .text._ZN5Menus5Menu1E23OledDisplayExtravaganzaPN7daisysp10OscillatorE:00000000 $t
C:\Users\VINCIU~1\AppData\Local\Temp\ccnesEGk.s:4251   .text._ZN5Menus5Menu1E23OledDisplayExtravaganzaPN7daisysp10OscillatorE:00000000 _ZN5Menus5Menu1E23OledDisplayExtravaganzaPN7daisysp10OscillatorE
C:\Users\VINCIU~1\AppData\Local\Temp\ccnesEGk.s:5062   .text._ZN5Menus5Menu1E23OledDisplayExtravaganzaPN7daisysp10OscillatorE:00000358 $d
C:\Users\VINCIU~1\AppData\Local\Temp\ccnesEGk.s:5082   .text._ZN5Menus5Menu1E23OledDisplayExtravaganzaPN7daisysp10OscillatorE:00000398 $t
C:\Users\VINCIU~1\AppData\Local\Temp\ccnesEGk.s:6308   .text._ZN5Menus5Menu1E23OledDisplayExtravaganzaPN7daisysp10OscillatorE:000006fc $d
C:\Users\VINCIU~1\AppData\Local\Temp\ccnesEGk.s:6324   .text._ZN5Menus5Menu1E23OledDisplayExtravaganzaPN7daisysp10OscillatorE:00000714 $t
C:\Users\VINCIU~1\AppData\Local\Temp\ccnesEGk.s:6766   .text._ZN5Menus5Menu1E23OledDisplayExtravaganzaPN7daisysp10OscillatorE:00000860 $d
C:\Users\VINCIU~1\AppData\Local\Temp\ccnesEGk.s:6785   .rodata._ZN5Menus5Menu3E23OledDisplayExtravaganzaPN7daisysp10OscillatorERNS1_4AdsrE.str1.4:00000000 $d
C:\Users\VINCIU~1\AppData\Local\Temp\ccnesEGk.s:6798   .text._ZN5Menus5Menu3E23OledDisplayExtravaganzaPN7daisysp10OscillatorERNS1_4AdsrE:00000000 $t
C:\Users\VINCIU~1\AppData\Local\Temp\ccnesEGk.s:6806   .text._ZN5Menus5Menu3E23OledDisplayExtravaganzaPN7daisysp10OscillatorERNS1_4AdsrE:00000000 _ZN5Menus5Menu3E23OledDisplayExtravaganzaPN7daisysp10OscillatorERNS1_4AdsrE
C:\Users\VINCIU~1\AppData\Local\Temp\ccnesEGk.s:7690   .text._ZN5Menus5Menu3E23OledDisplayExtravaganzaPN7daisysp10OscillatorERNS1_4AdsrE:00000338 $d
C:\Users\VINCIU~1\AppData\Local\Temp\ccnesEGk.s:7714   .text._ZN5Menus5Menu3E23OledDisplayExtravaganzaPN7daisysp10OscillatorERNS1_4AdsrE:00000368 $t
C:\Users\VINCIU~1\AppData\Local\Temp\ccnesEGk.s:8976   .text._ZN5Menus5Menu3E23OledDisplayExtravaganzaPN7daisysp10OscillatorERNS1_4AdsrE:00000810 $d
C:\Users\VINCIU~1\AppData\Local\Temp\ccnesEGk.s:8986   .text._ZN5Menus5Menu3E23OledDisplayExtravaganzaPN7daisysp10OscillatorERNS1_4AdsrE:00000824 $t
C:\Users\VINCIU~1\AppData\Local\Temp\ccnesEGk.s:9061   .rodata:00000000 $d

UNDEFINED SYMBOLS
sprintf
memset
memcpy
dsy_gpio_write
_ZN5daisy9SpiHandle16BlockingTransmitEPhjm
Font_6x8
_ZN23OledDisplayExtravaganza20drawHorizontalToggleEfffbbPKc
_ZN23OledDisplayExtravaganza10drawSliderEffffff
ARM GAS  C:\Users\VINCIU~1\AppData\Local\Temp\ccnesEGk.s 			page 238


_ZN23OledDisplayExtravaganza18drawVerticalToggleEfffbbPKc
_ZN23OledDisplayExtravaganza9WaveIconsEiiiib
Font_7x10
_ZN7daisysp4Adsr7SetTimeEif
