ARM GAS  C:\Users\VINCIU~1\AppData\Local\Temp\ccYgfSqf.s 			page 1


   1              		.cpu cortex-m7
   2              		.eabi_attribute 28, 1
   3              		.eabi_attribute 20, 1
   4              		.eabi_attribute 21, 1
   5              		.eabi_attribute 23, 3
   6              		.eabi_attribute 24, 1
   7              		.eabi_attribute 25, 1
   8              		.eabi_attribute 26, 1
   9              		.eabi_attribute 30, 2
  10              		.eabi_attribute 34, 1
  11              		.eabi_attribute 18, 4
  12              		.file	"Menus.cpp"
  13              		.text
  14              	.Ltext0:
  15              		.cfi_sections	.debug_frame
  16              		.section	.text._ZNK5daisy11OledDisplayINS_13SSD130xDriverILj128ELj64ENS_24SSD130x4WireSpiTransport
  17              		.align	1
  18              		.p2align 2,,3
  19              		.weak	_ZNK5daisy11OledDisplayINS_13SSD130xDriverILj128ELj64ENS_24SSD130x4WireSpiTransportEEEE5Widt
  20              		.arch armv7e-m
  21              		.syntax unified
  22              		.thumb
  23              		.thumb_func
  24              		.fpu fpv5-d16
  26              	_ZNK5daisy11OledDisplayINS_13SSD130xDriverILj128ELj64ENS_24SSD130x4WireSpiTransportEEEE5WidthEv:
  27              	.LVL0:
  28              	.LFB4338:
  29              		.file 1 "../../libdaisy/src/hid/disp/oled_display.h"
   1:../../libdaisy/src/hid/disp/oled_display.h **** #pragma once
   2:../../libdaisy/src/hid/disp/oled_display.h **** #ifndef DSY_OLED_DISPLAY_H
   3:../../libdaisy/src/hid/disp/oled_display.h **** #define DSY_OLED_DISPLAY_H /**< Macro */
   4:../../libdaisy/src/hid/disp/oled_display.h **** 
   5:../../libdaisy/src/hid/disp/oled_display.h **** #include "display.h"
   6:../../libdaisy/src/hid/disp/oled_display.h **** 
   7:../../libdaisy/src/hid/disp/oled_display.h **** namespace daisy
   8:../../libdaisy/src/hid/disp/oled_display.h **** {
   9:../../libdaisy/src/hid/disp/oled_display.h **** /** 
  10:../../libdaisy/src/hid/disp/oled_display.h ****  * This class is for drawing to a monochrome OLED display. 
  11:../../libdaisy/src/hid/disp/oled_display.h **** */
  12:../../libdaisy/src/hid/disp/oled_display.h **** template <typename DisplayDriver>
  13:../../libdaisy/src/hid/disp/oled_display.h **** class OledDisplay : public OneBitGraphicsDisplayImpl<OledDisplay<DisplayDriver>>
  14:../../libdaisy/src/hid/disp/oled_display.h **** {
  15:../../libdaisy/src/hid/disp/oled_display.h ****   public:
  16:../../libdaisy/src/hid/disp/oled_display.h ****     OledDisplay() {}
  17:../../libdaisy/src/hid/disp/oled_display.h ****     virtual ~OledDisplay() {}
  18:../../libdaisy/src/hid/disp/oled_display.h **** 
  19:../../libdaisy/src/hid/disp/oled_display.h ****     struct Config
  20:../../libdaisy/src/hid/disp/oled_display.h ****     {
  21:../../libdaisy/src/hid/disp/oled_display.h ****         typename DisplayDriver::Config driver_config;
  22:../../libdaisy/src/hid/disp/oled_display.h ****     };
  23:../../libdaisy/src/hid/disp/oled_display.h **** 
  24:../../libdaisy/src/hid/disp/oled_display.h ****     void Init(Config config) { driver_.Init(config.driver_config); }
  25:../../libdaisy/src/hid/disp/oled_display.h **** 
  26:../../libdaisy/src/hid/disp/oled_display.h ****     uint16_t Height() const override { return driver_.Height(); }
  27:../../libdaisy/src/hid/disp/oled_display.h ****     uint16_t Width() const override { return driver_.Width(); }
  30              		.loc 1 27 14 view -0
  31              		.cfi_startproc
ARM GAS  C:\Users\VINCIU~1\AppData\Local\Temp\ccYgfSqf.s 			page 2


  32              		@ args = 0, pretend = 0, frame = 0
  33              		@ frame_needed = 0, uses_anonymous_args = 0
  34              		@ link register save eliminated.
  35              		.loc 1 27 63 is_stmt 0 view .LVU1
  36 0000 8020     		movs	r0, #128
  37              	.LVL1:
  38              		.loc 1 27 63 view .LVU2
  39 0002 7047     		bx	lr
  40              		.cfi_endproc
  41              	.LFE4338:
  43              		.section	.text._ZNK5daisy11OledDisplayINS_13SSD130xDriverILj128ELj64ENS_24SSD130x4WireSpiTransport
  44              		.align	1
  45              		.p2align 2,,3
  46              		.weak	_ZNK5daisy11OledDisplayINS_13SSD130xDriverILj128ELj64ENS_24SSD130x4WireSpiTransportEEEE6Heig
  47              		.syntax unified
  48              		.thumb
  49              		.thumb_func
  50              		.fpu fpv5-d16
  52              	_ZNK5daisy11OledDisplayINS_13SSD130xDriverILj128ELj64ENS_24SSD130x4WireSpiTransportEEEE6HeightEv:
  53              	.LVL2:
  54              	.LFB4339:
  26:../../libdaisy/src/hid/disp/oled_display.h ****     uint16_t Width() const override { return driver_.Width(); }
  55              		.loc 1 26 14 is_stmt 1 view -0
  56              		.cfi_startproc
  57              		@ args = 0, pretend = 0, frame = 0
  58              		@ frame_needed = 0, uses_anonymous_args = 0
  59              		@ link register save eliminated.
  26:../../libdaisy/src/hid/disp/oled_display.h ****     uint16_t Width() const override { return driver_.Width(); }
  60              		.loc 1 26 65 is_stmt 0 view .LVU4
  61 0000 4020     		movs	r0, #64
  62              	.LVL3:
  26:../../libdaisy/src/hid/disp/oled_display.h ****     uint16_t Width() const override { return driver_.Width(); }
  63              		.loc 1 26 65 view .LVU5
  64 0002 7047     		bx	lr
  65              		.cfi_endproc
  66              	.LFE4339:
  68              		.section	.rodata._ZN5MenusC2Ev.str1.4,"aMS",%progbits,1
  69              		.align	2
  70              	.LC0:
  71 0000 54696D65 		.ascii	"Time_0%%\000"
  71      5F302525 
  71      00
  72              		.section	.text._ZN5MenusC2Ev,"ax",%progbits
  73              		.align	1
  74              		.p2align 2,,3
  75              		.global	_ZN5MenusC2Ev
  76              		.syntax unified
  77              		.thumb
  78              		.thumb_func
  79              		.fpu fpv5-d16
  81              	_ZN5MenusC2Ev:
  82              	.LVL4:
  83              	.LFB4035:
  84              		.file 2 "Menus.cpp"
   1:Menus.cpp     **** #include "Menus.h"
   2:Menus.cpp     **** 
   3:Menus.cpp     **** 
ARM GAS  C:\Users\VINCIU~1\AppData\Local\Temp\ccYgfSqf.s 			page 3


   4:Menus.cpp     **** Menus::Menus()
  85              		.loc 2 4 1 is_stmt 1 view -0
  86              		.cfi_startproc
  87              		@ args = 0, pretend = 0, frame = 0
  88              		@ frame_needed = 0, uses_anonymous_args = 0
  89              	.LBB270:
   5:Menus.cpp     **** {
   6:Menus.cpp     ****     this->on                      = true;
  90              		.loc 2 6 35 is_stmt 0 view .LVU7
  91 0000 0123     		movs	r3, #1
   7:Menus.cpp     ****     this->analogRead              = 0;
   8:Menus.cpp     ****     this->analogLastRead          = 0;
   9:Menus.cpp     ****     this->updateValue             = false;
  10:Menus.cpp     ****     this->menuState               = 0;
  11:Menus.cpp     ****     this->menuStateGlide          = 0;
  12:Menus.cpp     ****     this->menuStateEnv            = 0;
  13:Menus.cpp     ****     this->OscSelector             = true;
  14:Menus.cpp     ****     this->synthOn                 = 1;
  15:Menus.cpp     ****     this->synthOn2                = 1;
  16:Menus.cpp     ****     this->freqFine2               = 0;
  17:Menus.cpp     ****     this->freqFine                = 0;
  18:Menus.cpp     ****     this->analogRead              = 0;
  19:Menus.cpp     ****     this->glideTime               = 1;
  20:Menus.cpp     ****     this->circleGlideTimePosition = 10;
  92              		.loc 2 20 35 view .LVU8
  93 0002 DFF868C0 		ldr	ip, .L6+4
  19:Menus.cpp     ****     this->circleGlideTimePosition = 10;
  94              		.loc 2 19 35 view .LVU9
  95 0006 4FF07E51 		mov	r1, #1065353216
  21:Menus.cpp     ****     this->state                   = 1;
  22:Menus.cpp     ****     this->stateWave               = 0;
  23:Menus.cpp     ****     this->toggleState             = 1;
  24:Menus.cpp     ****     this->toggleState2            = 1;
  25:Menus.cpp     ****     this->setWave                 = 0;
  26:Menus.cpp     ****     this->setWave2                = 0;
  27:Menus.cpp     ****     this->attackTime              = 0.1f;
  28:Menus.cpp     ****     this->attackTime              = 0.5f;
  96              		.loc 2 28 35 view .LVU10
  97 000a 4FF07C52 		mov	r2, #1056964608
  98              	.LBE270:
   4:Menus.cpp     **** {
  99              		.loc 2 4 1 view .LVU11
 100 000e 10B5     		push	{r4, lr}
 101              		.cfi_def_cfa_offset 8
 102              		.cfi_offset 4, -8
 103              		.cfi_offset 14, -4
   4:Menus.cpp     **** {
 104              		.loc 2 4 1 view .LVU12
 105 0010 0446     		mov	r4, r0
 106              	.LVL5:
 107              	.LBB277:
 108              	.LBB271:
 109              	.LBI271:
 110              		.file 3 "../../libdaisy/src/hid/encoder.h"
   1:../../libdaisy/src/hid/encoder.h **** #pragma once
   2:../../libdaisy/src/hid/encoder.h **** #ifndef DSY_ENCODER_H
   3:../../libdaisy/src/hid/encoder.h **** #define DSY_ENCODER_H
ARM GAS  C:\Users\VINCIU~1\AppData\Local\Temp\ccYgfSqf.s 			page 4


   4:../../libdaisy/src/hid/encoder.h **** #include "daisy_core.h"
   5:../../libdaisy/src/hid/encoder.h **** #include "per/gpio.h"
   6:../../libdaisy/src/hid/encoder.h **** #include "hid/switch.h"
   7:../../libdaisy/src/hid/encoder.h **** 
   8:../../libdaisy/src/hid/encoder.h **** namespace daisy
   9:../../libdaisy/src/hid/encoder.h **** {
  10:../../libdaisy/src/hid/encoder.h **** /** 
  11:../../libdaisy/src/hid/encoder.h ****     @brief Generic Class for handling Quadrature Encoders \n 
  12:../../libdaisy/src/hid/encoder.h ****     Inspired/influenced by Mutable Instruments (pichenettes) Encoder classes
  13:../../libdaisy/src/hid/encoder.h ****     @author Stephen Hensley
  14:../../libdaisy/src/hid/encoder.h ****     @date December 2019
  15:../../libdaisy/src/hid/encoder.h ****     @ingroup controls
  16:../../libdaisy/src/hid/encoder.h **** */
  17:../../libdaisy/src/hid/encoder.h **** class Encoder
  18:../../libdaisy/src/hid/encoder.h **** {
  19:../../libdaisy/src/hid/encoder.h ****   public:
  20:../../libdaisy/src/hid/encoder.h ****     Encoder() {}
 111              		.loc 3 20 5 is_stmt 1 view .LVU13
 112              	.LBB272:
 113              	.LBI272:
 114              		.file 4 "../../libdaisy/src/hid/switch.h"
   1:../../libdaisy/src/hid/switch.h **** #pragma once
   2:../../libdaisy/src/hid/switch.h **** #ifndef DSY_SWITCH_H
   3:../../libdaisy/src/hid/switch.h **** #define DSY_SWITCH_H
   4:../../libdaisy/src/hid/switch.h **** #include "daisy_core.h"
   5:../../libdaisy/src/hid/switch.h **** #include "per/gpio.h"
   6:../../libdaisy/src/hid/switch.h **** 
   7:../../libdaisy/src/hid/switch.h **** namespace daisy
   8:../../libdaisy/src/hid/switch.h **** {
   9:../../libdaisy/src/hid/switch.h **** /** 
  10:../../libdaisy/src/hid/switch.h ****     Generic Class for handling momentary/latching switches \n 
  11:../../libdaisy/src/hid/switch.h ****     Inspired/influenced by Mutable Instruments (pichenettes) Switch classes
  12:../../libdaisy/src/hid/switch.h ****     @author Stephen Hensley
  13:../../libdaisy/src/hid/switch.h ****     @date December 2019
  14:../../libdaisy/src/hid/switch.h ****     @ingroup controls
  15:../../libdaisy/src/hid/switch.h **** */
  16:../../libdaisy/src/hid/switch.h **** class Switch
  17:../../libdaisy/src/hid/switch.h **** {
  18:../../libdaisy/src/hid/switch.h ****   public:
  19:../../libdaisy/src/hid/switch.h ****     /** Specifies the expected behavior of the switch */
  20:../../libdaisy/src/hid/switch.h ****     enum Type
  21:../../libdaisy/src/hid/switch.h ****     {
  22:../../libdaisy/src/hid/switch.h ****         TYPE_TOGGLE,    /**< & */
  23:../../libdaisy/src/hid/switch.h ****         TYPE_MOMENTARY, /**< & */
  24:../../libdaisy/src/hid/switch.h ****     };
  25:../../libdaisy/src/hid/switch.h ****     /** Specifies whether the pressed is HIGH or LOW. */
  26:../../libdaisy/src/hid/switch.h ****     enum Polarity
  27:../../libdaisy/src/hid/switch.h ****     {
  28:../../libdaisy/src/hid/switch.h ****         POLARITY_NORMAL,   /**< & */
  29:../../libdaisy/src/hid/switch.h ****         POLARITY_INVERTED, /**< & */
  30:../../libdaisy/src/hid/switch.h ****     };
  31:../../libdaisy/src/hid/switch.h **** 
  32:../../libdaisy/src/hid/switch.h ****     /** Specifies whether to use built-in Pull Up/Down resistors to hold button at a given state wh
  33:../../libdaisy/src/hid/switch.h ****     enum Pull
  34:../../libdaisy/src/hid/switch.h ****     {
  35:../../libdaisy/src/hid/switch.h ****         PULL_UP,   /**< & */
  36:../../libdaisy/src/hid/switch.h ****         PULL_DOWN, /**< & */
ARM GAS  C:\Users\VINCIU~1\AppData\Local\Temp\ccYgfSqf.s 			page 5


  37:../../libdaisy/src/hid/switch.h ****         PULL_NONE, /**< & */
  38:../../libdaisy/src/hid/switch.h ****     };
  39:../../libdaisy/src/hid/switch.h **** 
  40:../../libdaisy/src/hid/switch.h ****     Switch() {}
 115              		.loc 4 40 5 view .LVU14
 116              		.loc 4 40 5 is_stmt 0 view .LVU15
 117              	.LBE272:
 118              	.LBE271:
 119              	.LBB273:
 120              	.LBI273:
 121              		.loc 3 20 5 is_stmt 1 view .LVU16
 122              	.LBB274:
 123              	.LBI274:
 124              		.loc 4 40 5 view .LVU17
 125              		.loc 4 40 5 is_stmt 0 view .LVU18
 126              	.LBE274:
 127              	.LBE273:
 128              	.LBB275:
 129              	.LBI275:
 130              		.loc 4 40 5 is_stmt 1 view .LVU19
 131              		.loc 4 40 5 is_stmt 0 view .LVU20
 132              	.LBE275:
 133              	.LBB276:
 134              	.LBI276:
 135              		.loc 4 40 5 is_stmt 1 view .LVU21
 136              		.loc 4 40 5 is_stmt 0 view .LVU22
 137              	.LBE276:
   6:Menus.cpp     ****     this->analogRead              = 0;
 138              		.loc 2 6 5 is_stmt 1 view .LVU23
   6:Menus.cpp     ****     this->analogRead              = 0;
 139              		.loc 2 6 35 is_stmt 0 view .LVU24
 140 0012 80F8BC31 		strb	r3, [r0, #444]
   7:Menus.cpp     ****     this->analogLastRead          = 0;
 141              		.loc 2 7 5 is_stmt 1 view .LVU25
  13:Menus.cpp     ****     this->synthOn                 = 1;
 142              		.loc 2 13 35 is_stmt 0 view .LVU26
 143 0016 80F87430 		strb	r3, [r0, #116]
  21:Menus.cpp     ****     this->stateWave               = 0;
 144              		.loc 2 21 35 view .LVU27
 145 001a C0F88031 		str	r3, [r0, #384]
  19:Menus.cpp     ****     this->circleGlideTimePosition = 10;
 146              		.loc 2 19 35 view .LVU28
 147 001e C0F89410 		str	r1, [r0, #148]	@ float
  20:Menus.cpp     ****     this->state                   = 1;
 148              		.loc 2 20 35 view .LVU29
 149 0022 C0F88CC0 		str	ip, [r0, #140]	@ float
  29:Menus.cpp     ****     this->attackTimeScaleDraw     = 0.5f;
  30:Menus.cpp     ****     sprintf(this->buffPitchTime, "Time_0%%");
 150              		.loc 2 30 12 view .LVU30
 151 0026 1049     		ldr	r1, .L6
  15:Menus.cpp     ****     this->freqFine2               = 0;
 152              		.loc 2 15 35 view .LVU31
 153 0028 C0E95B33 		strd	r3, r3, [r0, #364]
  24:Menus.cpp     ****     this->setWave                 = 0;
 154              		.loc 2 24 35 view .LVU32
 155 002c C0E96233 		strd	r3, r3, [r0, #392]
   9:Menus.cpp     ****     this->menuState               = 0;
ARM GAS  C:\Users\VINCIU~1\AppData\Local\Temp\ccYgfSqf.s 			page 6


 156              		.loc 2 9 35 view .LVU33
 157 0030 0023     		movs	r3, #0
  28:Menus.cpp     ****     this->attackTimeScaleDraw     = 0.5f;
 158              		.loc 2 28 35 view .LVU34
 159 0032 C4F89821 		str	r2, [r4, #408]	@ float
  29:Menus.cpp     ****     sprintf(this->buffPitchTime, "Time_0%%");
 160              		.loc 2 29 35 view .LVU35
 161 0036 C4F8A021 		str	r2, [r4, #416]	@ float
 162              		.loc 2 30 12 view .LVU36
 163 003a 00F58E70 		add	r0, r0, #284
 164              	.LVL6:
   9:Menus.cpp     ****     this->menuState               = 0;
 165              		.loc 2 9 35 view .LVU37
 166 003e 2372     		strb	r3, [r4, #8]
  12:Menus.cpp     ****     this->OscSelector             = true;
 167              		.loc 2 12 35 view .LVU38
 168 0040 C4F8A431 		str	r3, [r4, #420]
  22:Menus.cpp     ****     this->toggleState             = 1;
 169              		.loc 2 22 35 view .LVU39
 170 0044 C4F88431 		str	r3, [r4, #388]
  11:Menus.cpp     ****     this->menuStateEnv            = 0;
 171              		.loc 2 11 35 view .LVU40
 172 0048 C4E91B33 		strd	r3, r3, [r4, #108]
  26:Menus.cpp     ****     this->attackTime              = 0.1f;
 173              		.loc 2 26 35 view .LVU41
 174 004c C4E96433 		strd	r3, r3, [r4, #400]
   7:Menus.cpp     ****     this->analogLastRead          = 0;
 175              		.loc 2 7 35 view .LVU42
 176 0050 0023     		movs	r3, #0
 177 0052 2360     		str	r3, [r4]	@ float
   8:Menus.cpp     ****     this->updateValue             = false;
 178              		.loc 2 8 5 is_stmt 1 view .LVU43
   8:Menus.cpp     ****     this->updateValue             = false;
 179              		.loc 2 8 35 is_stmt 0 view .LVU44
 180 0054 6360     		str	r3, [r4, #4]	@ float
   9:Menus.cpp     ****     this->menuState               = 0;
 181              		.loc 2 9 5 is_stmt 1 view .LVU45
  10:Menus.cpp     ****     this->menuStateGlide          = 0;
 182              		.loc 2 10 5 view .LVU46
  11:Menus.cpp     ****     this->menuStateEnv            = 0;
 183              		.loc 2 11 5 view .LVU47
  12:Menus.cpp     ****     this->OscSelector             = true;
 184              		.loc 2 12 5 view .LVU48
  13:Menus.cpp     ****     this->synthOn                 = 1;
 185              		.loc 2 13 5 view .LVU49
  14:Menus.cpp     ****     this->synthOn2                = 1;
 186              		.loc 2 14 5 view .LVU50
  15:Menus.cpp     ****     this->freqFine2               = 0;
 187              		.loc 2 15 5 view .LVU51
  16:Menus.cpp     ****     this->freqFine                = 0;
 188              		.loc 2 16 5 view .LVU52
  16:Menus.cpp     ****     this->freqFine                = 0;
 189              		.loc 2 16 35 is_stmt 0 view .LVU53
 190 0056 C4F87831 		str	r3, [r4, #376]	@ float
  17:Menus.cpp     ****     this->analogRead              = 0;
 191              		.loc 2 17 5 is_stmt 1 view .LVU54
  17:Menus.cpp     ****     this->analogRead              = 0;
ARM GAS  C:\Users\VINCIU~1\AppData\Local\Temp\ccYgfSqf.s 			page 7


 192              		.loc 2 17 35 is_stmt 0 view .LVU55
 193 005a C4F87431 		str	r3, [r4, #372]	@ float
  18:Menus.cpp     ****     this->glideTime               = 1;
 194              		.loc 2 18 5 is_stmt 1 view .LVU56
  19:Menus.cpp     ****     this->circleGlideTimePosition = 10;
 195              		.loc 2 19 5 view .LVU57
  20:Menus.cpp     ****     this->state                   = 1;
 196              		.loc 2 20 5 view .LVU58
  21:Menus.cpp     ****     this->stateWave               = 0;
 197              		.loc 2 21 5 view .LVU59
  22:Menus.cpp     ****     this->toggleState             = 1;
 198              		.loc 2 22 5 view .LVU60
  23:Menus.cpp     ****     this->toggleState2            = 1;
 199              		.loc 2 23 5 view .LVU61
  24:Menus.cpp     ****     this->setWave                 = 0;
 200              		.loc 2 24 5 view .LVU62
  25:Menus.cpp     ****     this->setWave2                = 0;
 201              		.loc 2 25 5 view .LVU63
  26:Menus.cpp     ****     this->attackTime              = 0.1f;
 202              		.loc 2 26 5 view .LVU64
  27:Menus.cpp     ****     this->attackTime              = 0.5f;
 203              		.loc 2 27 5 view .LVU65
  28:Menus.cpp     ****     this->attackTimeScaleDraw     = 0.5f;
 204              		.loc 2 28 5 view .LVU66
  29:Menus.cpp     ****     sprintf(this->buffPitchTime, "Time_0%%");
 205              		.loc 2 29 5 view .LVU67
 206              		.loc 2 30 5 view .LVU68
 207              		.loc 2 30 12 is_stmt 0 view .LVU69
 208 005e FFF7FEFF 		bl	sprintf
 209              	.LVL7:
 210              	.LBE277:
  31:Menus.cpp     **** }
 211              		.loc 2 31 1 view .LVU70
 212 0062 2046     		mov	r0, r4
 213 0064 10BD     		pop	{r4, pc}
 214              	.LVL8:
 215              	.L7:
 216              		.loc 2 31 1 view .LVU71
 217 0066 00BF     		.align	2
 218              	.L6:
 219 0068 00000000 		.word	.LC0
 220 006c 00002041 		.word	1092616192
 221              		.cfi_endproc
 222              	.LFE4035:
 224              		.global	_ZN5MenusC1Ev
 225              		.thumb_set _ZN5MenusC1Ev,_ZN5MenusC2Ev
 226              		.section	.text._ZN5Menus10WaveSelectEf,"ax",%progbits
 227              		.align	1
 228              		.p2align 2,,3
 229              		.global	_ZN5Menus10WaveSelectEf
 230              		.syntax unified
 231              		.thumb
 232              		.thumb_func
 233              		.fpu fpv5-d16
 235              	_ZN5Menus10WaveSelectEf:
 236              	.LVL9:
 237              	.LFB4037:
ARM GAS  C:\Users\VINCIU~1\AppData\Local\Temp\ccYgfSqf.s 			page 8


  32:Menus.cpp     **** 
  33:Menus.cpp     **** int Menus::WaveSelect(float select)
  34:Menus.cpp     **** {
 238              		.loc 2 34 1 is_stmt 1 view -0
 239              		.cfi_startproc
 240              		@ args = 0, pretend = 0, frame = 0
 241              		@ frame_needed = 0, uses_anonymous_args = 0
 242              		@ link register save eliminated.
  35:Menus.cpp     ****     this->stateWave += this->encoderRight.Increment();
 243              		.loc 2 35 5 view .LVU73
 244              		.loc 2 35 21 is_stmt 0 view .LVU74
 245 0000 D0F88431 		ldr	r3, [r0, #388]
  34:Menus.cpp     ****     this->stateWave += this->encoderRight.Increment();
 246              		.loc 2 34 1 view .LVU75
 247 0004 0246     		mov	r2, r0
 248              	.LVL10:
 249              	.LBB278:
 250              	.LBI278:
  21:../../libdaisy/src/hid/encoder.h ****     ~Encoder() {}
  22:../../libdaisy/src/hid/encoder.h **** 
  23:../../libdaisy/src/hid/encoder.h ****     /** Initializes the encoder with the specified hardware pins.
  24:../../libdaisy/src/hid/encoder.h **** */
  25:../../libdaisy/src/hid/encoder.h ****     //
  26:../../libdaisy/src/hid/encoder.h ****     /** Update rate should be the rate at which Debounce() gets called
  27:../../libdaisy/src/hid/encoder.h **** in Hertz.
  28:../../libdaisy/src/hid/encoder.h **** */
  29:../../libdaisy/src/hid/encoder.h ****     //
  30:../../libdaisy/src/hid/encoder.h ****     void
  31:../../libdaisy/src/hid/encoder.h ****     Init(dsy_gpio_pin a, dsy_gpio_pin b, dsy_gpio_pin click, float update_rate);
  32:../../libdaisy/src/hid/encoder.h ****     /** Called at update_rate to debounce and handle timing for the switch.
  33:../../libdaisy/src/hid/encoder.h **** */
  34:../../libdaisy/src/hid/encoder.h ****     //
  35:../../libdaisy/src/hid/encoder.h ****     /** In order for events not to be missed, its important that the Edge/Pressed checks
  36:../../libdaisy/src/hid/encoder.h **** be made at the same rate as the debounce function is being called.
  37:../../libdaisy/src/hid/encoder.h **** */
  38:../../libdaisy/src/hid/encoder.h ****     void Debounce();
  39:../../libdaisy/src/hid/encoder.h ****     /** Returns +1 if the encoder was turned clockwise, -1 if it was turned counter-clockwise, or 0
  40:../../libdaisy/src/hid/encoder.h **** */
  41:../../libdaisy/src/hid/encoder.h ****     inline int32_t Increment() const { return inc_; }
 251              		.loc 3 41 20 is_stmt 1 view .LVU76
 252              	.LBB279:
 253              		.loc 3 41 40 view .LVU77
 254              		.loc 3 41 40 is_stmt 0 view .LVU78
 255              	.LBE279:
 256              	.LBE278:
 257              		.loc 2 35 21 view .LVU79
 258 0006 806C     		ldr	r0, [r0, #72]
 259              	.LVL11:
 260              		.loc 2 35 21 view .LVU80
 261 0008 1844     		add	r0, r0, r3
  36:Menus.cpp     ****     int state;
 262              		.loc 2 36 5 is_stmt 1 view .LVU81
  37:Menus.cpp     ****     if(this->stateWave > 3)
 263              		.loc 2 37 5 view .LVU82
 264 000a 0328     		cmp	r0, #3
 265 000c 04DD     		ble	.L9
  38:Menus.cpp     ****     {
ARM GAS  C:\Users\VINCIU~1\AppData\Local\Temp\ccYgfSqf.s 			page 9


  39:Menus.cpp     ****         this->stateWave = 3;
 266              		.loc 2 39 9 view .LVU83
 267              		.loc 2 39 25 is_stmt 0 view .LVU84
 268 000e 0323     		movs	r3, #3
  40:Menus.cpp     ****     }
  41:Menus.cpp     ****     if(this->stateWave < 0)
  42:Menus.cpp     ****     {
  43:Menus.cpp     ****         this->stateWave = 0;
  44:Menus.cpp     ****     }
  45:Menus.cpp     **** 
  46:Menus.cpp     ****     if(this->stateWave == 0)
  47:Menus.cpp     ****     {
  48:Menus.cpp     ****         state = 0;
  49:Menus.cpp     ****         return state;
  50:Menus.cpp     ****     }
  51:Menus.cpp     ****     else if(this->stateWave == 1)
  52:Menus.cpp     ****     {
  53:Menus.cpp     ****         state = 1;
  54:Menus.cpp     ****         return state;
  55:Menus.cpp     ****     }
  56:Menus.cpp     ****     else if(this->stateWave == 2)
  57:Menus.cpp     ****     {
  58:Menus.cpp     ****         state = 2;
  59:Menus.cpp     ****         return state;
  60:Menus.cpp     ****     }
  61:Menus.cpp     ****     else if(this->stateWave == 3)
  62:Menus.cpp     ****     {
  63:Menus.cpp     ****         state = 3;
  64:Menus.cpp     ****         return state;
 269              		.loc 2 64 16 view .LVU85
 270 0010 1846     		mov	r0, r3
  39:Menus.cpp     ****     }
 271              		.loc 2 39 25 view .LVU86
 272 0012 C2F88431 		str	r3, [r2, #388]
  41:Menus.cpp     ****     {
 273              		.loc 2 41 5 is_stmt 1 view .LVU87
  46:Menus.cpp     ****     {
 274              		.loc 2 46 5 view .LVU88
  51:Menus.cpp     ****     {
 275              		.loc 2 51 10 view .LVU89
 276 0016 7047     		bx	lr
 277              	.L9:
  41:Menus.cpp     ****     {
 278              		.loc 2 41 5 view .LVU90
 279 0018 0028     		cmp	r0, #0
 280 001a 04DA     		bge	.L11
  43:Menus.cpp     ****     }
 281              		.loc 2 43 9 view .LVU91
  43:Menus.cpp     ****     }
 282              		.loc 2 43 25 is_stmt 0 view .LVU92
 283 001c 0023     		movs	r3, #0
  49:Menus.cpp     ****     }
 284              		.loc 2 49 16 view .LVU93
 285 001e 1846     		mov	r0, r3
  43:Menus.cpp     ****     }
 286              		.loc 2 43 25 view .LVU94
 287 0020 C2F88431 		str	r3, [r2, #388]
ARM GAS  C:\Users\VINCIU~1\AppData\Local\Temp\ccYgfSqf.s 			page 10


  46:Menus.cpp     ****     {
 288              		.loc 2 46 5 is_stmt 1 view .LVU95
 289 0024 7047     		bx	lr
 290              	.L11:
  35:Menus.cpp     ****     int state;
 291              		.loc 2 35 21 is_stmt 0 view .LVU96
 292 0026 C2F88401 		str	r0, [r2, #388]
  46:Menus.cpp     ****     {
 293              		.loc 2 46 5 is_stmt 1 view .LVU97
 294 002a 04D0     		beq	.L8
  51:Menus.cpp     ****     {
 295              		.loc 2 51 10 view .LVU98
 296 002c 0128     		cmp	r0, #1
 297 002e 02D0     		beq	.L8
  56:Menus.cpp     ****     {
 298              		.loc 2 56 10 view .LVU99
 299              		.loc 2 64 16 is_stmt 0 view .LVU100
 300 0030 0228     		cmp	r0, #2
 301 0032 18BF     		it	ne
 302 0034 0320     		movne	r0, #3
 303              	.L8:
  65:Menus.cpp     ****     }
  66:Menus.cpp     **** }
 304              		.loc 2 66 1 view .LVU101
 305 0036 7047     		bx	lr
 306              		.cfi_endproc
 307              	.LFE4037:
 309              		.section	.text._ZN5Menus9OscSelectEf,"ax",%progbits
 310              		.align	1
 311              		.p2align 2,,3
 312              		.global	_ZN5Menus9OscSelectEf
 313              		.syntax unified
 314              		.thumb
 315              		.thumb_func
 316              		.fpu fpv5-d16
 318              	_ZN5Menus9OscSelectEf:
 319              	.LVL12:
 320              	.LFB4038:
  67:Menus.cpp     **** 
  68:Menus.cpp     **** bool Menus::OscSelect(float select)
  69:Menus.cpp     **** {
 321              		.loc 2 69 1 is_stmt 1 view -0
 322              		.cfi_startproc
 323              		@ args = 0, pretend = 0, frame = 0
 324              		@ frame_needed = 0, uses_anonymous_args = 0
 325              		@ link register save eliminated.
  70:Menus.cpp     ****     this->state += this->encoderRight.Increment();
 326              		.loc 2 70 5 view .LVU103
 327              		.loc 2 70 17 is_stmt 0 view .LVU104
 328 0000 D0F88021 		ldr	r2, [r0, #384]
  69:Menus.cpp     ****     this->state += this->encoderRight.Increment();
 329              		.loc 2 69 1 view .LVU105
 330 0004 0346     		mov	r3, r0
 331              	.LVL13:
 332              	.LBB280:
 333              	.LBI280:
 334              		.loc 3 41 20 is_stmt 1 view .LVU106
ARM GAS  C:\Users\VINCIU~1\AppData\Local\Temp\ccYgfSqf.s 			page 11


 335              	.LBB281:
 336              		.loc 3 41 40 view .LVU107
 337              		.loc 3 41 40 is_stmt 0 view .LVU108
 338              	.LBE281:
 339              	.LBE280:
 340              		.loc 2 70 17 view .LVU109
 341 0006 816C     		ldr	r1, [r0, #72]
 342 0008 0A44     		add	r2, r2, r1
  71:Menus.cpp     ****     if(this->state > 1)
 343              		.loc 2 71 5 is_stmt 1 view .LVU110
 344 000a 012A     		cmp	r2, #1
 345 000c 04DD     		ble	.L21
 346              	.L17:
  72:Menus.cpp     ****     {
  73:Menus.cpp     ****         this->state = 1;
  74:Menus.cpp     ****     }
  75:Menus.cpp     ****     if(this->state < 0)
  76:Menus.cpp     ****     {
  77:Menus.cpp     ****         this->state = 0;
  78:Menus.cpp     ****     }
  79:Menus.cpp     **** 
  80:Menus.cpp     **** 
  81:Menus.cpp     ****     if(this->state == 1)
  82:Menus.cpp     ****     {
  83:Menus.cpp     ****         state = true;
 347              		.loc 2 83 15 is_stmt 0 view .LVU111
 348 000e 0122     		movs	r2, #1
  84:Menus.cpp     ****         return state;
 349              		.loc 2 84 16 view .LVU112
 350 0010 1046     		mov	r0, r2
 351              	.LVL14:
 352              		.loc 2 84 16 view .LVU113
 353 0012 C3F88021 		str	r2, [r3, #384]
  85:Menus.cpp     ****     }
  86:Menus.cpp     ****     else
  87:Menus.cpp     ****     {
  88:Menus.cpp     ****         state = false;
  89:Menus.cpp     ****         return state;
  90:Menus.cpp     ****     }
  91:Menus.cpp     **** }
 354              		.loc 2 91 1 view .LVU114
 355 0016 7047     		bx	lr
 356              	.LVL15:
 357              	.L21:
  75:Menus.cpp     ****     {
 358              		.loc 2 75 5 is_stmt 1 view .LVU115
 359 0018 002A     		cmp	r2, #0
 360 001a 04DA     		bge	.L22
 361              	.L20:
  88:Menus.cpp     ****         return state;
 362              		.loc 2 88 15 is_stmt 0 view .LVU116
 363 001c 0022     		movs	r2, #0
  89:Menus.cpp     ****     }
 364              		.loc 2 89 16 view .LVU117
 365 001e 1046     		mov	r0, r2
 366              	.LVL16:
  89:Menus.cpp     ****     }
ARM GAS  C:\Users\VINCIU~1\AppData\Local\Temp\ccYgfSqf.s 			page 12


 367              		.loc 2 89 16 view .LVU118
 368 0020 C3F88021 		str	r2, [r3, #384]
 369              		.loc 2 91 1 view .LVU119
 370 0024 7047     		bx	lr
 371              	.LVL17:
 372              	.L22:
  81:Menus.cpp     ****     {
 373              		.loc 2 81 5 view .LVU120
 374 0026 012A     		cmp	r2, #1
  70:Menus.cpp     ****     if(this->state > 1)
 375              		.loc 2 70 17 view .LVU121
 376 0028 C0F88021 		str	r2, [r0, #384]
  81:Menus.cpp     ****     {
 377              		.loc 2 81 5 is_stmt 1 view .LVU122
 378 002c EFD0     		beq	.L17
 379 002e F5E7     		b	.L20
 380              		.cfi_endproc
 381              	.LFE4038:
 383              		.section	.text._ZN5daisy25OneBitGraphicsDisplayImplINS_11OledDisplayINS_13SSD130xDriverILj128ELj64
 384              		.align	1
 385              		.p2align 2,,3
 386              		.weak	_ZN5daisy25OneBitGraphicsDisplayImplINS_11OledDisplayINS_13SSD130xDriverILj128ELj64ENS_24SSD
 387              		.syntax unified
 388              		.thumb
 389              		.thumb_func
 390              		.fpu fpv5-d16
 392              	_ZN5daisy25OneBitGraphicsDisplayImplINS_11OledDisplayINS_13SSD130xDriverILj128ELj64ENS_24SSD130x4Wi
 393              	.LVL18:
 394              	.LFB4337:
 395              		.file 5 "../../libdaisy/src/hid/disp/display.h"
   1:../../libdaisy/src/hid/disp/display.h **** #pragma once
   2:../../libdaisy/src/hid/disp/display.h **** #ifndef DSY_DISPLAY_H
   3:../../libdaisy/src/hid/disp/display.h **** #define DSY_DISPLAY_H /**< Macro */
   4:../../libdaisy/src/hid/disp/display.h **** #include <cmath>
   5:../../libdaisy/src/hid/disp/display.h **** #include "util/oled_fonts.h"
   6:../../libdaisy/src/hid/disp/display.h **** #include "daisy_core.h"
   7:../../libdaisy/src/hid/disp/display.h **** 
   8:../../libdaisy/src/hid/disp/display.h **** #ifndef deg2rad
   9:../../libdaisy/src/hid/disp/display.h **** #define deg2rad(deg) ((deg)*3.141592 / 180.0)
  10:../../libdaisy/src/hid/disp/display.h **** #endif
  11:../../libdaisy/src/hid/disp/display.h **** 
  12:../../libdaisy/src/hid/disp/display.h **** namespace daisy
  13:../../libdaisy/src/hid/disp/display.h **** {
  14:../../libdaisy/src/hid/disp/display.h **** /** 
  15:../../libdaisy/src/hid/disp/display.h ****  * This interface is used as a base class for all types of 1bit-per-pixel
  16:../../libdaisy/src/hid/disp/display.h ****  * graphics displays.
  17:../../libdaisy/src/hid/disp/display.h **** */
  18:../../libdaisy/src/hid/disp/display.h **** class OneBitGraphicsDisplay
  19:../../libdaisy/src/hid/disp/display.h **** {
  20:../../libdaisy/src/hid/disp/display.h ****   public:
  21:../../libdaisy/src/hid/disp/display.h ****     OneBitGraphicsDisplay() {}
  22:../../libdaisy/src/hid/disp/display.h ****     virtual ~OneBitGraphicsDisplay() {}
  23:../../libdaisy/src/hid/disp/display.h **** 
  24:../../libdaisy/src/hid/disp/display.h ****     virtual uint16_t Height() const = 0;
  25:../../libdaisy/src/hid/disp/display.h ****     virtual uint16_t Width() const  = 0;
  26:../../libdaisy/src/hid/disp/display.h **** 
  27:../../libdaisy/src/hid/disp/display.h ****     size_t CurrentX() { return currentX_; };
ARM GAS  C:\Users\VINCIU~1\AppData\Local\Temp\ccYgfSqf.s 			page 13


  28:../../libdaisy/src/hid/disp/display.h ****     size_t CurrentY() { return currentY_; };
  29:../../libdaisy/src/hid/disp/display.h **** 
  30:../../libdaisy/src/hid/disp/display.h ****     /** 
  31:../../libdaisy/src/hid/disp/display.h ****     Fills the entire display with either on/off.
  32:../../libdaisy/src/hid/disp/display.h ****     \param on Sets on or off.
  33:../../libdaisy/src/hid/disp/display.h ****     */
  34:../../libdaisy/src/hid/disp/display.h ****     virtual void Fill(bool on) = 0;
  35:../../libdaisy/src/hid/disp/display.h **** 
  36:../../libdaisy/src/hid/disp/display.h ****     /**
  37:../../libdaisy/src/hid/disp/display.h ****     Sets the pixel at the specified coordinate to be on/off.
  38:../../libdaisy/src/hid/disp/display.h ****     \param x   x Coordinate
  39:../../libdaisy/src/hid/disp/display.h ****     \param y   y coordinate
  40:../../libdaisy/src/hid/disp/display.h ****     \param on  on or off
  41:../../libdaisy/src/hid/disp/display.h ****     */
  42:../../libdaisy/src/hid/disp/display.h ****     virtual void DrawPixel(uint_fast8_t x, uint_fast8_t y, bool on) = 0;
  43:../../libdaisy/src/hid/disp/display.h **** 
  44:../../libdaisy/src/hid/disp/display.h ****     /**
  45:../../libdaisy/src/hid/disp/display.h ****     Draws a line from (x1, y1) to (y1, y2)
  46:../../libdaisy/src/hid/disp/display.h ****     \param x1  x Coordinate of the starting point
  47:../../libdaisy/src/hid/disp/display.h ****     \param y1  y Coordinate of the starting point
  48:../../libdaisy/src/hid/disp/display.h ****     \param x2  x Coordinate of the ending point
  49:../../libdaisy/src/hid/disp/display.h ****     \param y2  y Coordinate of the ending point
  50:../../libdaisy/src/hid/disp/display.h ****     \param on  on or off
  51:../../libdaisy/src/hid/disp/display.h ****     */
  52:../../libdaisy/src/hid/disp/display.h ****     virtual void DrawLine(uint_fast8_t x1,
  53:../../libdaisy/src/hid/disp/display.h ****                           uint_fast8_t y1,
  54:../../libdaisy/src/hid/disp/display.h ****                           uint_fast8_t x2,
  55:../../libdaisy/src/hid/disp/display.h ****                           uint_fast8_t y2,
  56:../../libdaisy/src/hid/disp/display.h ****                           bool         on)
  57:../../libdaisy/src/hid/disp/display.h ****         = 0;
  58:../../libdaisy/src/hid/disp/display.h **** 
  59:../../libdaisy/src/hid/disp/display.h ****     /**
  60:../../libdaisy/src/hid/disp/display.h ****     Draws a rectangle based on two coordinates.
  61:../../libdaisy/src/hid/disp/display.h ****     \param x1 x Coordinate of the first point
  62:../../libdaisy/src/hid/disp/display.h ****     \param y1 y Coordinate of the first point
  63:../../libdaisy/src/hid/disp/display.h ****     \param x2 x Coordinate of the second point
  64:../../libdaisy/src/hid/disp/display.h ****     \param y2 y Coordinate of the second point
  65:../../libdaisy/src/hid/disp/display.h ****     \param on on or off
  66:../../libdaisy/src/hid/disp/display.h ****     */
  67:../../libdaisy/src/hid/disp/display.h ****     virtual void DrawRect(uint_fast8_t x1,
  68:../../libdaisy/src/hid/disp/display.h ****                           uint_fast8_t y1,
  69:../../libdaisy/src/hid/disp/display.h ****                           uint_fast8_t x2,
  70:../../libdaisy/src/hid/disp/display.h ****                           uint_fast8_t y2,
  71:../../libdaisy/src/hid/disp/display.h ****                           bool         on,
  72:../../libdaisy/src/hid/disp/display.h ****                           bool         fill = false)
  73:../../libdaisy/src/hid/disp/display.h ****         = 0;
  74:../../libdaisy/src/hid/disp/display.h **** 
  75:../../libdaisy/src/hid/disp/display.h ****     /**
  76:../../libdaisy/src/hid/disp/display.h ****     Draws an arc around the specified coordinate
  77:../../libdaisy/src/hid/disp/display.h ****     \param x           x Coordinate of the center of the arc
  78:../../libdaisy/src/hid/disp/display.h ****     \param y           y Coordinate of the center of the arc
  79:../../libdaisy/src/hid/disp/display.h ****     \param radius      radius of the arc
  80:../../libdaisy/src/hid/disp/display.h ****     \param start_angle angle where to start the arc
  81:../../libdaisy/src/hid/disp/display.h ****     \param sweep       total angle of the arc
  82:../../libdaisy/src/hid/disp/display.h ****     \param on  on or off
  83:../../libdaisy/src/hid/disp/display.h ****     */
  84:../../libdaisy/src/hid/disp/display.h ****     virtual void DrawArc(uint_fast8_t x,
ARM GAS  C:\Users\VINCIU~1\AppData\Local\Temp\ccYgfSqf.s 			page 14


  85:../../libdaisy/src/hid/disp/display.h ****                          uint_fast8_t y,
  86:../../libdaisy/src/hid/disp/display.h ****                          uint_fast8_t radius,
  87:../../libdaisy/src/hid/disp/display.h ****                          int_fast16_t start_angle,
  88:../../libdaisy/src/hid/disp/display.h ****                          int_fast16_t sweep,
  89:../../libdaisy/src/hid/disp/display.h ****                          bool         on)
  90:../../libdaisy/src/hid/disp/display.h ****         = 0;
  91:../../libdaisy/src/hid/disp/display.h **** 
  92:../../libdaisy/src/hid/disp/display.h ****     /**
  93:../../libdaisy/src/hid/disp/display.h ****     Draws a circle around the specified coordinate
  94:../../libdaisy/src/hid/disp/display.h ****     \param x           x Coordinate of the center of the circle
  95:../../libdaisy/src/hid/disp/display.h ****     \param y           y Coordinate of the center of the circle
  96:../../libdaisy/src/hid/disp/display.h ****     \param radius      radius of the circle
  97:../../libdaisy/src/hid/disp/display.h ****     \param on  on or off
  98:../../libdaisy/src/hid/disp/display.h ****     */
  99:../../libdaisy/src/hid/disp/display.h ****     void
 100:../../libdaisy/src/hid/disp/display.h ****     DrawCircle(uint_fast8_t x, uint_fast8_t y, uint_fast8_t radius, bool on)
 101:../../libdaisy/src/hid/disp/display.h ****     {
 102:../../libdaisy/src/hid/disp/display.h ****         DrawArc(x, y, radius, 0, 360, on);
 103:../../libdaisy/src/hid/disp/display.h ****     };
 104:../../libdaisy/src/hid/disp/display.h **** 
 105:../../libdaisy/src/hid/disp/display.h ****     /** 
 106:../../libdaisy/src/hid/disp/display.h ****     Writes the character with the specific FontDef
 107:../../libdaisy/src/hid/disp/display.h ****     to the display buffer at the current Cursor position.
 108:../../libdaisy/src/hid/disp/display.h ****     \param ch character to be written
 109:../../libdaisy/src/hid/disp/display.h ****     \param font font to be written in
 110:../../libdaisy/src/hid/disp/display.h ****     \param on    on or off
 111:../../libdaisy/src/hid/disp/display.h ****     \return &
 112:../../libdaisy/src/hid/disp/display.h ****     */
 113:../../libdaisy/src/hid/disp/display.h ****     virtual char WriteChar(char ch, FontDef font, bool on) = 0;
 114:../../libdaisy/src/hid/disp/display.h **** 
 115:../../libdaisy/src/hid/disp/display.h ****     /** 
 116:../../libdaisy/src/hid/disp/display.h ****     Similar to WriteChar, except it will handle an entire String.
 117:../../libdaisy/src/hid/disp/display.h ****     Wrapping does not happen automatically, so the width
 118:../../libdaisy/src/hid/disp/display.h ****     of the string must be kept within the dimensions of the screen.
 119:../../libdaisy/src/hid/disp/display.h ****     \param str string to be written
 120:../../libdaisy/src/hid/disp/display.h ****     \param font font to use
 121:../../libdaisy/src/hid/disp/display.h ****     \param on  on or off
 122:../../libdaisy/src/hid/disp/display.h ****     \return &
 123:../../libdaisy/src/hid/disp/display.h ****     */
 124:../../libdaisy/src/hid/disp/display.h ****     virtual char WriteString(const char* str, FontDef font, bool on) = 0;
 125:../../libdaisy/src/hid/disp/display.h **** 
 126:../../libdaisy/src/hid/disp/display.h ****     /** 
 127:../../libdaisy/src/hid/disp/display.h ****     Moves the 'Cursor' position used for WriteChar, and WriteStr to the specified coordinate.
 128:../../libdaisy/src/hid/disp/display.h ****     \param x x pos
 129:../../libdaisy/src/hid/disp/display.h ****     \param y y pos
 130:../../libdaisy/src/hid/disp/display.h ****     */
 131:../../libdaisy/src/hid/disp/display.h ****     void SetCursor(uint16_t x, uint16_t y)
 132:../../libdaisy/src/hid/disp/display.h ****     {
 133:../../libdaisy/src/hid/disp/display.h ****         currentX_ = (x >= Width()) ? Width() - 1 : x;
 134:../../libdaisy/src/hid/disp/display.h ****         currentY_ = (y >= Height()) ? Height() - 1 : y;
 135:../../libdaisy/src/hid/disp/display.h ****     }
 136:../../libdaisy/src/hid/disp/display.h **** 
 137:../../libdaisy/src/hid/disp/display.h ****     /** 
 138:../../libdaisy/src/hid/disp/display.h ****     Writes the current display buffer to the OLED device using SPI or I2C depending on 
 139:../../libdaisy/src/hid/disp/display.h ****     how the object was initialized.
 140:../../libdaisy/src/hid/disp/display.h ****     */
 141:../../libdaisy/src/hid/disp/display.h ****     virtual void Update() = 0;
ARM GAS  C:\Users\VINCIU~1\AppData\Local\Temp\ccYgfSqf.s 			page 15


 142:../../libdaisy/src/hid/disp/display.h **** 
 143:../../libdaisy/src/hid/disp/display.h ****   protected:
 144:../../libdaisy/src/hid/disp/display.h ****     uint16_t currentX_;
 145:../../libdaisy/src/hid/disp/display.h ****     uint16_t currentY_;
 146:../../libdaisy/src/hid/disp/display.h **** };
 147:../../libdaisy/src/hid/disp/display.h **** 
 148:../../libdaisy/src/hid/disp/display.h **** /** This class is intended as a intermediary class for your actual implementation of the OneBitGrap
 149:../../libdaisy/src/hid/disp/display.h ****  *  interface. It uses the CRTP design pattern where the template argument is the child class. It p
 150:../../libdaisy/src/hid/disp/display.h ****  *  implementations for most of the functions, except DrawPixel(), Update() and Fill(), which you'l
 151:../../libdaisy/src/hid/disp/display.h ****  *  to provide in your child class.
 152:../../libdaisy/src/hid/disp/display.h ****  *  The main goal of this class is to provide common drawing functions without relying on massive a
 153:../../libdaisy/src/hid/disp/display.h ****  *  virtual function calls that would result in a performance loss. To achieve this, any drawing fu
 154:../../libdaisy/src/hid/disp/display.h ****  *  is implemented here and internally calls other drawing functions (e.g. DrawRect() which interna
 155:../../libdaisy/src/hid/disp/display.h ****  *  DrawPixel() and DrawLine()) makes these calls via the qualified name of these functions to expl
 156:../../libdaisy/src/hid/disp/display.h ****  *  suppress the virtual dispatch mechanism like this:
 157:../../libdaisy/src/hid/disp/display.h ****  * 
 158:../../libdaisy/src/hid/disp/display.h ****  *      ChildType::DrawPixel(...); // no virtual function call; direct call into the child class fu
 159:../../libdaisy/src/hid/disp/display.h ****  *  
 160:../../libdaisy/src/hid/disp/display.h ****  *  To create a custom OneBitGraphicsDisplay implementation, you can 
 161:../../libdaisy/src/hid/disp/display.h ****  *  A) inherit from OneBitGraphicsDisplay directly and provide all the drawing functions yourself
 162:../../libdaisy/src/hid/disp/display.h ****  *  B) Inherit from OneBitGraphicsDisplayImpl and only provide DrawPixel(), Fill() and Update()
 163:../../libdaisy/src/hid/disp/display.h ****  *     like this:
 164:../../libdaisy/src/hid/disp/display.h ****  *  
 165:../../libdaisy/src/hid/disp/display.h ****  *      class MyDisplayClass : public OneBitGraphicsDisplayImpl<MyDisplayClass> 
 166:../../libdaisy/src/hid/disp/display.h ****  *      {
 167:../../libdaisy/src/hid/disp/display.h ****  *      public:
 168:../../libdaisy/src/hid/disp/display.h ****  *          void Fill() override { ... };
 169:../../libdaisy/src/hid/disp/display.h ****  *          void DrawPixel(uint_fast8_t x, uint_fast8_t y, bool on) override { ... };
 170:../../libdaisy/src/hid/disp/display.h ****  *          void Update() override { ... }
 171:../../libdaisy/src/hid/disp/display.h ****  *      };
 172:../../libdaisy/src/hid/disp/display.h ****  *  
 173:../../libdaisy/src/hid/disp/display.h ****  */
 174:../../libdaisy/src/hid/disp/display.h **** template <class ChildType>
 175:../../libdaisy/src/hid/disp/display.h **** class OneBitGraphicsDisplayImpl : public OneBitGraphicsDisplay
 176:../../libdaisy/src/hid/disp/display.h **** {
 177:../../libdaisy/src/hid/disp/display.h ****   public:
 178:../../libdaisy/src/hid/disp/display.h ****     OneBitGraphicsDisplayImpl() {}
 179:../../libdaisy/src/hid/disp/display.h ****     virtual ~OneBitGraphicsDisplayImpl() {}
 180:../../libdaisy/src/hid/disp/display.h **** 
 181:../../libdaisy/src/hid/disp/display.h ****     void DrawLine(uint_fast8_t x1,
 182:../../libdaisy/src/hid/disp/display.h ****                   uint_fast8_t y1,
 183:../../libdaisy/src/hid/disp/display.h ****                   uint_fast8_t x2,
 184:../../libdaisy/src/hid/disp/display.h ****                   uint_fast8_t y2,
 185:../../libdaisy/src/hid/disp/display.h ****                   bool         on) override
 186:../../libdaisy/src/hid/disp/display.h ****     {
 187:../../libdaisy/src/hid/disp/display.h ****         int_fast16_t deltaX = abs((int_fast16_t)x2 - (int_fast16_t)x1);
 188:../../libdaisy/src/hid/disp/display.h ****         int_fast16_t deltaY = abs((int_fast16_t)y2 - (int_fast16_t)y1);
 189:../../libdaisy/src/hid/disp/display.h ****         int_fast16_t signX  = ((x1 < x2) ? 1 : -1);
 190:../../libdaisy/src/hid/disp/display.h ****         int_fast16_t signY  = ((y1 < y2) ? 1 : -1);
 191:../../libdaisy/src/hid/disp/display.h ****         int_fast16_t error  = deltaX - deltaY;
 192:../../libdaisy/src/hid/disp/display.h ****         int_fast16_t error2;
 193:../../libdaisy/src/hid/disp/display.h **** 
 194:../../libdaisy/src/hid/disp/display.h ****         // If we write "ChildType::DrawPixel(x2, y2, on);", we end up with
 195:../../libdaisy/src/hid/disp/display.h ****         // all sorts of weird compiler errors when the Child class is a template
 196:../../libdaisy/src/hid/disp/display.h ****         // class. The only way around this is to use this very verbose syntax:
 197:../../libdaisy/src/hid/disp/display.h ****         ((ChildType*)(this))->ChildType::DrawPixel(x2, y2, on);
 198:../../libdaisy/src/hid/disp/display.h **** 
ARM GAS  C:\Users\VINCIU~1\AppData\Local\Temp\ccYgfSqf.s 			page 16


 199:../../libdaisy/src/hid/disp/display.h ****         while((x1 != x2) || (y1 != y2))
 200:../../libdaisy/src/hid/disp/display.h ****         {
 201:../../libdaisy/src/hid/disp/display.h ****             ((ChildType*)(this))->ChildType::DrawPixel(x1, y1, on);
 202:../../libdaisy/src/hid/disp/display.h ****             error2 = error * 2;
 203:../../libdaisy/src/hid/disp/display.h ****             if(error2 > -deltaY)
 204:../../libdaisy/src/hid/disp/display.h ****             {
 205:../../libdaisy/src/hid/disp/display.h ****                 error -= deltaY;
 206:../../libdaisy/src/hid/disp/display.h ****                 x1 += signX;
 207:../../libdaisy/src/hid/disp/display.h ****             }
 208:../../libdaisy/src/hid/disp/display.h **** 
 209:../../libdaisy/src/hid/disp/display.h ****             if(error2 < deltaX)
 210:../../libdaisy/src/hid/disp/display.h ****             {
 211:../../libdaisy/src/hid/disp/display.h ****                 error += deltaX;
 212:../../libdaisy/src/hid/disp/display.h ****                 y1 += signY;
 213:../../libdaisy/src/hid/disp/display.h ****             }
 214:../../libdaisy/src/hid/disp/display.h ****         }
 215:../../libdaisy/src/hid/disp/display.h ****     }
 216:../../libdaisy/src/hid/disp/display.h **** 
 217:../../libdaisy/src/hid/disp/display.h ****     void DrawRect(uint_fast8_t x1,
 218:../../libdaisy/src/hid/disp/display.h ****                   uint_fast8_t y1,
 219:../../libdaisy/src/hid/disp/display.h ****                   uint_fast8_t x2,
 220:../../libdaisy/src/hid/disp/display.h ****                   uint_fast8_t y2,
 221:../../libdaisy/src/hid/disp/display.h ****                   bool         on,
 222:../../libdaisy/src/hid/disp/display.h ****                   bool         fill = false) override
 223:../../libdaisy/src/hid/disp/display.h ****     {
 224:../../libdaisy/src/hid/disp/display.h ****         if(fill)
 225:../../libdaisy/src/hid/disp/display.h ****         {
 226:../../libdaisy/src/hid/disp/display.h ****             for(uint_fast8_t x = x1; x <= x2; x++)
 227:../../libdaisy/src/hid/disp/display.h ****             {
 228:../../libdaisy/src/hid/disp/display.h ****                 for(uint_fast8_t y = y1; y <= y2; y++)
 229:../../libdaisy/src/hid/disp/display.h ****                 {
 230:../../libdaisy/src/hid/disp/display.h ****                     ((ChildType*)(this))->ChildType::DrawPixel(x, y, on);
 231:../../libdaisy/src/hid/disp/display.h ****                 }
 232:../../libdaisy/src/hid/disp/display.h ****             }
 233:../../libdaisy/src/hid/disp/display.h ****         }
 234:../../libdaisy/src/hid/disp/display.h ****         else
 235:../../libdaisy/src/hid/disp/display.h ****         {
 236:../../libdaisy/src/hid/disp/display.h ****             ((ChildType*)(this))->ChildType::DrawLine(x1, y1, x2, y1, on);
 237:../../libdaisy/src/hid/disp/display.h ****             ((ChildType*)(this))->ChildType::DrawLine(x2, y1, x2, y2, on);
 238:../../libdaisy/src/hid/disp/display.h ****             ((ChildType*)(this))->ChildType::DrawLine(x2, y2, x1, y2, on);
 239:../../libdaisy/src/hid/disp/display.h ****             ((ChildType*)(this))->ChildType::DrawLine(x1, y2, x1, y1, on);
 240:../../libdaisy/src/hid/disp/display.h ****         }
 241:../../libdaisy/src/hid/disp/display.h ****     }
 242:../../libdaisy/src/hid/disp/display.h **** 
 243:../../libdaisy/src/hid/disp/display.h ****     void DrawArc(uint_fast8_t x,
 244:../../libdaisy/src/hid/disp/display.h ****                  uint_fast8_t y,
 245:../../libdaisy/src/hid/disp/display.h ****                  uint_fast8_t radius,
 246:../../libdaisy/src/hid/disp/display.h ****                  int_fast16_t start_angle,
 247:../../libdaisy/src/hid/disp/display.h ****                  int_fast16_t sweep,
 248:../../libdaisy/src/hid/disp/display.h ****                  bool         on) override
 249:../../libdaisy/src/hid/disp/display.h ****     {
 250:../../libdaisy/src/hid/disp/display.h ****         // Values to calculate the circle
 251:../../libdaisy/src/hid/disp/display.h ****         int_fast16_t t_x, t_y, err, e2;
 252:../../libdaisy/src/hid/disp/display.h **** 
 253:../../libdaisy/src/hid/disp/display.h ****         // Temporary values to speed up comparisons
 254:../../libdaisy/src/hid/disp/display.h ****         float t_sxy, t_syx, t_sxny, t_synx;
 255:../../libdaisy/src/hid/disp/display.h ****         float t_exy, t_eyx, t_exny, t_eynx;
ARM GAS  C:\Users\VINCIU~1\AppData\Local\Temp\ccYgfSqf.s 			page 17


 256:../../libdaisy/src/hid/disp/display.h **** 
 257:../../libdaisy/src/hid/disp/display.h ****         float start_angle_rad, end_angle_rad;
 258:../../libdaisy/src/hid/disp/display.h ****         float start_x, start_y, end_x, end_y;
 259:../../libdaisy/src/hid/disp/display.h **** 
 260:../../libdaisy/src/hid/disp/display.h ****         bool d1, d2, d3, d4;
 261:../../libdaisy/src/hid/disp/display.h **** 
 262:../../libdaisy/src/hid/disp/display.h ****         d1 = d2 = d3 = d4 = true;
 263:../../libdaisy/src/hid/disp/display.h **** 
 264:../../libdaisy/src/hid/disp/display.h ****         bool circle = false;
 265:../../libdaisy/src/hid/disp/display.h **** 
 266:../../libdaisy/src/hid/disp/display.h ****         if(sweep < 0)
 267:../../libdaisy/src/hid/disp/display.h ****         {
 268:../../libdaisy/src/hid/disp/display.h ****             start_angle += sweep;
 269:../../libdaisy/src/hid/disp/display.h ****             sweep = -sweep;
 270:../../libdaisy/src/hid/disp/display.h ****         }
 271:../../libdaisy/src/hid/disp/display.h **** 
 272:../../libdaisy/src/hid/disp/display.h ****         start_angle_rad = deg2rad(start_angle);
 273:../../libdaisy/src/hid/disp/display.h ****         end_angle_rad   = deg2rad(start_angle + sweep);
 274:../../libdaisy/src/hid/disp/display.h **** 
 275:../../libdaisy/src/hid/disp/display.h ****         start_x = cos(start_angle_rad) * radius;
 276:../../libdaisy/src/hid/disp/display.h ****         start_y = -sin(start_angle_rad) * radius;
 277:../../libdaisy/src/hid/disp/display.h ****         end_x   = cos(end_angle_rad) * radius;
 278:../../libdaisy/src/hid/disp/display.h ****         end_y   = -sin(end_angle_rad) * radius;
 279:../../libdaisy/src/hid/disp/display.h **** 
 280:../../libdaisy/src/hid/disp/display.h ****         // Check if start and endpoint are very near
 281:../../libdaisy/src/hid/disp/display.h ****         if((end_x - start_x) * (end_x - start_x)
 282:../../libdaisy/src/hid/disp/display.h ****                + (end_y - start_y) * (end_y - start_y)
 283:../../libdaisy/src/hid/disp/display.h ****            < 2.0f)
 284:../../libdaisy/src/hid/disp/display.h ****         {
 285:../../libdaisy/src/hid/disp/display.h ****             if(sweep > 180)
 286:../../libdaisy/src/hid/disp/display.h ****                 circle = true;
 287:../../libdaisy/src/hid/disp/display.h ****             else
 288:../../libdaisy/src/hid/disp/display.h ****                 // Nothing to draw
 289:../../libdaisy/src/hid/disp/display.h ****                 return;
 290:../../libdaisy/src/hid/disp/display.h ****         }
 291:../../libdaisy/src/hid/disp/display.h **** 
 292:../../libdaisy/src/hid/disp/display.h ****         t_x = -radius;
 293:../../libdaisy/src/hid/disp/display.h ****         t_y = 0;
 294:../../libdaisy/src/hid/disp/display.h ****         err = 2 - 2 * radius;
 295:../../libdaisy/src/hid/disp/display.h **** 
 296:../../libdaisy/src/hid/disp/display.h ****         do
 297:../../libdaisy/src/hid/disp/display.h ****         {
 298:../../libdaisy/src/hid/disp/display.h ****             if(!circle)
 299:../../libdaisy/src/hid/disp/display.h ****             {
 300:../../libdaisy/src/hid/disp/display.h ****                 t_sxy  = start_x * t_y;
 301:../../libdaisy/src/hid/disp/display.h ****                 t_syx  = start_y * t_x;
 302:../../libdaisy/src/hid/disp/display.h ****                 t_sxny = start_x * -t_y;
 303:../../libdaisy/src/hid/disp/display.h ****                 t_synx = start_y * -t_x;
 304:../../libdaisy/src/hid/disp/display.h ****                 t_exy  = end_x * t_y;
 305:../../libdaisy/src/hid/disp/display.h ****                 t_eyx  = end_y * t_x;
 306:../../libdaisy/src/hid/disp/display.h ****                 t_exny = end_x * -t_y;
 307:../../libdaisy/src/hid/disp/display.h ****                 t_eynx = end_y * -t_x;
 308:../../libdaisy/src/hid/disp/display.h **** 
 309:../../libdaisy/src/hid/disp/display.h ****                 if(sweep > 180)
 310:../../libdaisy/src/hid/disp/display.h ****                 {
 311:../../libdaisy/src/hid/disp/display.h ****                     d1 = (t_sxy - t_synx < 0 || t_exy - t_eynx > 0);
 312:../../libdaisy/src/hid/disp/display.h ****                     d2 = (t_sxy - t_syx < 0 || t_exy - t_eyx > 0);
ARM GAS  C:\Users\VINCIU~1\AppData\Local\Temp\ccYgfSqf.s 			page 18


 313:../../libdaisy/src/hid/disp/display.h ****                     d3 = (t_sxny - t_syx < 0 || t_exny - t_eyx > 0);
 314:../../libdaisy/src/hid/disp/display.h ****                     d4 = (t_sxny - t_synx < 0 || t_exny - t_eynx > 0);
 315:../../libdaisy/src/hid/disp/display.h ****                 }
 316:../../libdaisy/src/hid/disp/display.h ****                 else
 317:../../libdaisy/src/hid/disp/display.h ****                 {
 318:../../libdaisy/src/hid/disp/display.h ****                     d1 = (t_sxy - t_synx < 0 && t_exy - t_eynx > 0);
 319:../../libdaisy/src/hid/disp/display.h ****                     d2 = (t_sxy - t_syx < 0 && t_exy - t_eyx > 0);
 320:../../libdaisy/src/hid/disp/display.h ****                     d3 = (t_sxny - t_syx < 0 && t_exny - t_eyx > 0);
 321:../../libdaisy/src/hid/disp/display.h ****                     d4 = (t_sxny - t_synx < 0 && t_exny - t_eynx > 0);
 322:../../libdaisy/src/hid/disp/display.h ****                 }
 323:../../libdaisy/src/hid/disp/display.h ****             }
 324:../../libdaisy/src/hid/disp/display.h **** 
 325:../../libdaisy/src/hid/disp/display.h ****             if(d1)
 326:../../libdaisy/src/hid/disp/display.h ****                 ((ChildType*)(this))
 327:../../libdaisy/src/hid/disp/display.h ****                     ->ChildType::DrawPixel(x - t_x, y + t_y, on);
 328:../../libdaisy/src/hid/disp/display.h ****             if(d2)
 329:../../libdaisy/src/hid/disp/display.h ****                 ((ChildType*)(this))
 330:../../libdaisy/src/hid/disp/display.h ****                     ->ChildType::DrawPixel(x + t_x, y + t_y, on);
 331:../../libdaisy/src/hid/disp/display.h ****             if(d3)
 332:../../libdaisy/src/hid/disp/display.h ****                 ((ChildType*)(this))
 333:../../libdaisy/src/hid/disp/display.h ****                     ->ChildType::DrawPixel(x + t_x, y - t_y, on);
 334:../../libdaisy/src/hid/disp/display.h ****             if(d4)
 335:../../libdaisy/src/hid/disp/display.h ****                 ((ChildType*)(this))
 336:../../libdaisy/src/hid/disp/display.h ****                     ->ChildType::DrawPixel(x - t_x, y - t_y, on);
 337:../../libdaisy/src/hid/disp/display.h **** 
 338:../../libdaisy/src/hid/disp/display.h ****             e2 = err;
 339:../../libdaisy/src/hid/disp/display.h ****             if(e2 <= t_y)
 340:../../libdaisy/src/hid/disp/display.h ****             {
 341:../../libdaisy/src/hid/disp/display.h ****                 t_y++;
 342:../../libdaisy/src/hid/disp/display.h ****                 err = err + (t_y * 2 + 1);
 343:../../libdaisy/src/hid/disp/display.h ****                 if(-t_x == t_y && e2 <= t_x)
 344:../../libdaisy/src/hid/disp/display.h ****                 {
 345:../../libdaisy/src/hid/disp/display.h ****                     e2 = 0;
 346:../../libdaisy/src/hid/disp/display.h ****                 }
 347:../../libdaisy/src/hid/disp/display.h ****             }
 348:../../libdaisy/src/hid/disp/display.h ****             if(e2 > t_x)
 349:../../libdaisy/src/hid/disp/display.h ****             {
 350:../../libdaisy/src/hid/disp/display.h ****                 t_x++;
 351:../../libdaisy/src/hid/disp/display.h ****                 err = err + (t_x * 2 + 1);
 352:../../libdaisy/src/hid/disp/display.h ****             }
 353:../../libdaisy/src/hid/disp/display.h ****         } while(t_x <= 0);
 354:../../libdaisy/src/hid/disp/display.h ****     }
 355:../../libdaisy/src/hid/disp/display.h **** 
 356:../../libdaisy/src/hid/disp/display.h ****     char WriteChar(char ch, FontDef font, bool on) override
 357:../../libdaisy/src/hid/disp/display.h ****     {
 358:../../libdaisy/src/hid/disp/display.h ****         uint32_t i, b, j;
 359:../../libdaisy/src/hid/disp/display.h **** 
 360:../../libdaisy/src/hid/disp/display.h ****         // Check if character is valid
 361:../../libdaisy/src/hid/disp/display.h ****         if(ch < 32 || ch > 126)
 362:../../libdaisy/src/hid/disp/display.h ****             return 0;
 363:../../libdaisy/src/hid/disp/display.h **** 
 364:../../libdaisy/src/hid/disp/display.h ****         // Check remaining space on current line
 365:../../libdaisy/src/hid/disp/display.h ****         if(Width() < (currentX_ + font.FontWidth)
 366:../../libdaisy/src/hid/disp/display.h ****            || Height() < (currentY_ + font.FontHeight))
 367:../../libdaisy/src/hid/disp/display.h ****         {
 368:../../libdaisy/src/hid/disp/display.h ****             // Not enough space on current line
 369:../../libdaisy/src/hid/disp/display.h ****             return 0;
ARM GAS  C:\Users\VINCIU~1\AppData\Local\Temp\ccYgfSqf.s 			page 19


 370:../../libdaisy/src/hid/disp/display.h ****         }
 371:../../libdaisy/src/hid/disp/display.h **** 
 372:../../libdaisy/src/hid/disp/display.h ****         // Use the font to write
 373:../../libdaisy/src/hid/disp/display.h ****         for(i = 0; i < font.FontHeight; i++)
 374:../../libdaisy/src/hid/disp/display.h ****         {
 375:../../libdaisy/src/hid/disp/display.h ****             b = font.data[(ch - 32) * font.FontHeight + i];
 376:../../libdaisy/src/hid/disp/display.h ****             for(j = 0; j < font.FontWidth; j++)
 377:../../libdaisy/src/hid/disp/display.h ****             {
 378:../../libdaisy/src/hid/disp/display.h ****                 if((b << j) & 0x8000)
 379:../../libdaisy/src/hid/disp/display.h ****                 {
 380:../../libdaisy/src/hid/disp/display.h ****                     ((ChildType*)(this))
 381:../../libdaisy/src/hid/disp/display.h ****                         ->ChildType::DrawPixel(
 382:../../libdaisy/src/hid/disp/display.h ****                             currentX_ + j, (currentY_ + i), on);
 383:../../libdaisy/src/hid/disp/display.h ****                 }
 384:../../libdaisy/src/hid/disp/display.h ****                 else
 385:../../libdaisy/src/hid/disp/display.h ****                 {
 386:../../libdaisy/src/hid/disp/display.h ****                     ((ChildType*)(this))
 387:../../libdaisy/src/hid/disp/display.h ****                         ->ChildType::DrawPixel(
 388:../../libdaisy/src/hid/disp/display.h ****                             currentX_ + j, (currentY_ + i), !on);
 389:../../libdaisy/src/hid/disp/display.h ****                 }
 390:../../libdaisy/src/hid/disp/display.h ****             }
 391:../../libdaisy/src/hid/disp/display.h ****         }
 392:../../libdaisy/src/hid/disp/display.h **** 
 393:../../libdaisy/src/hid/disp/display.h ****         // The current space is now taken
 394:../../libdaisy/src/hid/disp/display.h ****         SetCursor(currentX_ + font.FontWidth, currentY_);
 395:../../libdaisy/src/hid/disp/display.h **** 
 396:../../libdaisy/src/hid/disp/display.h ****         // Return written char for validation
 397:../../libdaisy/src/hid/disp/display.h ****         return ch;
 398:../../libdaisy/src/hid/disp/display.h ****     }
 399:../../libdaisy/src/hid/disp/display.h **** 
 400:../../libdaisy/src/hid/disp/display.h ****     char WriteString(const char* str, FontDef font, bool on) override
 396              		.loc 5 400 10 view -0
 397              		.cfi_startproc
 398              		@ args = 4, pretend = 0, frame = 32
 399              		@ frame_needed = 0, uses_anonymous_args = 0
 400              		.loc 5 400 10 is_stmt 0 view .LVU124
 401 0000 2DE9F04F 		push	{r4, r5, r6, r7, r8, r9, r10, fp, lr}
 402              		.cfi_def_cfa_offset 36
 403              		.cfi_offset 4, -36
 404              		.cfi_offset 5, -32
 405              		.cfi_offset 6, -28
 406              		.cfi_offset 7, -24
 407              		.cfi_offset 8, -20
 408              		.cfi_offset 9, -16
 409              		.cfi_offset 10, -12
 410              		.cfi_offset 11, -8
 411              		.cfi_offset 14, -4
 412 0004 89B0     		sub	sp, sp, #36
 413              		.cfi_def_cfa_offset 72
 414              		.loc 5 400 10 view .LVU125
 415 0006 08AC     		add	r4, sp, #32
 416 0008 9DF84870 		ldrb	r7, [sp, #72]	@ zero_extendqisi2
 417 000c 0191     		str	r1, [sp, #4]
 418 000e 04E90C00 		stmdb	r4, {r2, r3}
 401:../../libdaisy/src/hid/disp/display.h ****     {
 402:../../libdaisy/src/hid/disp/display.h ****         // Write until null-byte
 403:../../libdaisy/src/hid/disp/display.h ****         while(*str)
ARM GAS  C:\Users\VINCIU~1\AppData\Local\Temp\ccYgfSqf.s 			page 20


 419              		.loc 5 403 9 is_stmt 1 view .LVU126
 420 0012 0B78     		ldrb	r3, [r1]	@ zero_extendqisi2
 421 0014 002B     		cmp	r3, #0
 422 0016 00F0AB80 		beq	.L47
 423 001a 1A46     		mov	r2, r3
 424 001c 9DF81880 		ldrb	r8, [sp, #24]	@ zero_extendqisi2
 425 0020 9DF81930 		ldrb	r3, [sp, #25]	@ zero_extendqisi2
 426 0024 0646     		mov	r6, r0
 427 0026 4546     		mov	r5, r8
 428 0028 9046     		mov	r8, r2
 429 002a 0393     		str	r3, [sp, #12]
 430 002c 079B     		ldr	r3, [sp, #28]
 431 002e 0593     		str	r3, [sp, #20]
 432              	.LVL19:
 433              	.L48:
 434              	.LBB310:
 435              	.LBI310:
 356:../../libdaisy/src/hid/disp/display.h ****     {
 436              		.loc 5 356 10 view .LVU127
 437              	.LBB311:
 361:../../libdaisy/src/hid/disp/display.h ****             return 0;
 438              		.loc 5 361 20 is_stmt 0 view .LVU128
 439 0030 A8F12004 		sub	r4, r8, #32
 361:../../libdaisy/src/hid/disp/display.h ****             return 0;
 440              		.loc 5 361 9 view .LVU129
 441 0034 E3B2     		uxtb	r3, r4
 442 0036 5E2B     		cmp	r3, #94
 443 0038 00F29E80 		bhi	.L29
 365:../../libdaisy/src/hid/disp/display.h ****            || Height() < (currentY_ + font.FontHeight))
 444              		.loc 5 365 17 view .LVU130
 445 003c 3368     		ldr	r3, [r6]
 446 003e 5E4A     		ldr	r2, .L69
 447 0040 DB68     		ldr	r3, [r3, #12]
 448 0042 9342     		cmp	r3, r2
 449 0044 40F09B80 		bne	.L62
 450 0048 8020     		movs	r0, #128
 451              	.L28:
 365:../../libdaisy/src/hid/disp/display.h ****            || Height() < (currentY_ + font.FontHeight))
 452              		.loc 5 365 23 view .LVU131
 453 004a B388     		ldrh	r3, [r6, #4]
 365:../../libdaisy/src/hid/disp/display.h ****            || Height() < (currentY_ + font.FontHeight))
 454              		.loc 5 365 33 view .LVU132
 455 004c 2B44     		add	r3, r3, r5
 366:../../libdaisy/src/hid/disp/display.h ****         {
 456              		.loc 5 366 12 view .LVU133
 457 004e 8342     		cmp	r3, r0
 458 0050 00F39280 		bgt	.L29
 366:../../libdaisy/src/hid/disp/display.h ****         {
 459              		.loc 5 366 21 view .LVU134
 460 0054 3368     		ldr	r3, [r6]
 461 0056 594A     		ldr	r2, .L69+4
 462 0058 9B68     		ldr	r3, [r3, #8]
 463 005a 9342     		cmp	r3, r2
 464 005c 40F09280 		bne	.L63
 465 0060 4020     		movs	r0, #64
 466              	.L30:
 366:../../libdaisy/src/hid/disp/display.h ****         {
ARM GAS  C:\Users\VINCIU~1\AppData\Local\Temp\ccYgfSqf.s 			page 21


 467              		.loc 5 366 27 view .LVU135
 468 0062 F188     		ldrh	r1, [r6, #6]
 366:../../libdaisy/src/hid/disp/display.h ****         {
 469              		.loc 5 366 37 view .LVU136
 470 0064 039A     		ldr	r2, [sp, #12]
 366:../../libdaisy/src/hid/disp/display.h ****         {
 471              		.loc 5 366 27 view .LVU137
 472 0066 0291     		str	r1, [sp, #8]
 366:../../libdaisy/src/hid/disp/display.h ****         {
 473              		.loc 5 366 37 view .LVU138
 474 0068 8B18     		adds	r3, r1, r2
 366:../../libdaisy/src/hid/disp/display.h ****         {
 475              		.loc 5 366 12 view .LVU139
 476 006a 8342     		cmp	r3, r0
 477 006c 00F38480 		bgt	.L29
 478              	.LVL20:
 373:../../libdaisy/src/hid/disp/display.h ****         {
 479              		.loc 5 373 22 is_stmt 1 view .LVU140
 480 0070 002A     		cmp	r2, #0
 481 0072 00F09180 		beq	.L31
 375:../../libdaisy/src/hid/disp/display.h ****             for(j = 0; j < font.FontWidth; j++)
 482              		.loc 5 375 37 is_stmt 0 view .LVU141
 483 0076 02FB04F4 		mul	r4, r2, r4
 484 007a 6FF00049 		mvn	r9, #-2147483648
 485 007e 059B     		ldr	r3, [sp, #20]
 486 0080 A144     		add	r9, r9, r4
 487 0082 1444     		add	r4, r4, r2
 394:../../libdaisy/src/hid/disp/display.h **** 
 488              		.loc 5 394 19 view .LVU142
 489 0084 B6F804B0 		ldrh	fp, [r6, #4]
 490 0088 03EB4909 		add	r9, r3, r9, lsl #1
 491 008c 023B     		subs	r3, r3, #2
 492 008e CDF81080 		str	r8, [sp, #16]
 493 0092 03EB4403 		add	r3, r3, r4, lsl #1
 494 0096 0C46     		mov	r4, r1
 495 0098 9A46     		mov	r10, r3
 496              	.LVL21:
 497              	.L34:
 375:../../libdaisy/src/hid/disp/display.h ****             for(j = 0; j < font.FontWidth; j++)
 498              		.loc 5 375 15 view .LVU143
 499 009a 39F802CF 		ldrh	ip, [r9, #2]!
 500              	.LVL22:
 376:../../libdaisy/src/hid/disp/display.h ****             {
 501              		.loc 5 376 26 is_stmt 1 view .LVU144
 502 009e A5B3     		cbz	r5, .L39
 503              	.LBB312:
 504              	.LBB313:
 505              	.LBB314:
 506              	.LBB315:
 507              	.LBB316:
 508              		.file 6 "../../libdaisy/src/dev/oled_ssd130x.h"
   1:../../libdaisy/src/dev/oled_ssd130x.h **** #pragma once
   2:../../libdaisy/src/dev/oled_ssd130x.h **** #ifndef SA_OLED_SSD130X_H
   3:../../libdaisy/src/dev/oled_ssd130x.h **** #define SA_OLED_SSD130X_H /**< & */
   4:../../libdaisy/src/dev/oled_ssd130x.h **** 
   5:../../libdaisy/src/dev/oled_ssd130x.h **** #include "per/i2c.h"
   6:../../libdaisy/src/dev/oled_ssd130x.h **** #include "per/spi.h"
ARM GAS  C:\Users\VINCIU~1\AppData\Local\Temp\ccYgfSqf.s 			page 22


   7:../../libdaisy/src/dev/oled_ssd130x.h **** #include "per/gpio.h"
   8:../../libdaisy/src/dev/oled_ssd130x.h **** #include "sys/system.h"
   9:../../libdaisy/src/dev/oled_ssd130x.h **** 
  10:../../libdaisy/src/dev/oled_ssd130x.h **** namespace daisy
  11:../../libdaisy/src/dev/oled_ssd130x.h **** {
  12:../../libdaisy/src/dev/oled_ssd130x.h **** /**
  13:../../libdaisy/src/dev/oled_ssd130x.h ****  * I2C Transport for SSD1306 / SSD1309 OLED display devices
  14:../../libdaisy/src/dev/oled_ssd130x.h ****  */
  15:../../libdaisy/src/dev/oled_ssd130x.h **** class SSD130xI2CTransport
  16:../../libdaisy/src/dev/oled_ssd130x.h **** {
  17:../../libdaisy/src/dev/oled_ssd130x.h ****   public:
  18:../../libdaisy/src/dev/oled_ssd130x.h ****     struct Config
  19:../../libdaisy/src/dev/oled_ssd130x.h ****     {
  20:../../libdaisy/src/dev/oled_ssd130x.h ****         I2CHandle::Config i2c_config;
  21:../../libdaisy/src/dev/oled_ssd130x.h ****         uint8_t           i2c_address;
  22:../../libdaisy/src/dev/oled_ssd130x.h ****         void              Defaults()
  23:../../libdaisy/src/dev/oled_ssd130x.h ****         {
  24:../../libdaisy/src/dev/oled_ssd130x.h ****             i2c_config.periph         = I2CHandle::Config::Peripheral::I2C_1;
  25:../../libdaisy/src/dev/oled_ssd130x.h ****             i2c_config.speed          = I2CHandle::Config::Speed::I2C_1MHZ;
  26:../../libdaisy/src/dev/oled_ssd130x.h ****             i2c_config.mode           = I2CHandle::Config::Mode::I2C_MASTER;
  27:../../libdaisy/src/dev/oled_ssd130x.h ****             i2c_config.pin_config.scl = {DSY_GPIOB, 8};
  28:../../libdaisy/src/dev/oled_ssd130x.h ****             i2c_config.pin_config.sda = {DSY_GPIOB, 9};
  29:../../libdaisy/src/dev/oled_ssd130x.h ****             i2c_address               = 0x3C;
  30:../../libdaisy/src/dev/oled_ssd130x.h ****         }
  31:../../libdaisy/src/dev/oled_ssd130x.h ****     };
  32:../../libdaisy/src/dev/oled_ssd130x.h ****     void Init(const Config& config)
  33:../../libdaisy/src/dev/oled_ssd130x.h ****     {
  34:../../libdaisy/src/dev/oled_ssd130x.h ****         i2c_address_ = config.i2c_address;
  35:../../libdaisy/src/dev/oled_ssd130x.h ****         i2c_.Init(config.i2c_config);
  36:../../libdaisy/src/dev/oled_ssd130x.h ****     };
  37:../../libdaisy/src/dev/oled_ssd130x.h ****     void SendCommand(uint8_t cmd)
  38:../../libdaisy/src/dev/oled_ssd130x.h ****     {
  39:../../libdaisy/src/dev/oled_ssd130x.h ****         uint8_t buf[2] = {0X00, cmd};
  40:../../libdaisy/src/dev/oled_ssd130x.h ****         i2c_.TransmitBlocking(i2c_address_, buf, 2, 1000);
  41:../../libdaisy/src/dev/oled_ssd130x.h ****     };
  42:../../libdaisy/src/dev/oled_ssd130x.h **** 
  43:../../libdaisy/src/dev/oled_ssd130x.h ****     void SendData(uint8_t* buff, size_t size)
  44:../../libdaisy/src/dev/oled_ssd130x.h ****     {
  45:../../libdaisy/src/dev/oled_ssd130x.h ****         for(size_t i = 0; i < size; i++)
  46:../../libdaisy/src/dev/oled_ssd130x.h ****         {
  47:../../libdaisy/src/dev/oled_ssd130x.h ****             uint8_t buf[2] = {0X40, buff[i]};
  48:../../libdaisy/src/dev/oled_ssd130x.h ****             i2c_.TransmitBlocking(i2c_address_, buf, 2, 1000);
  49:../../libdaisy/src/dev/oled_ssd130x.h ****         }
  50:../../libdaisy/src/dev/oled_ssd130x.h ****     };
  51:../../libdaisy/src/dev/oled_ssd130x.h **** 
  52:../../libdaisy/src/dev/oled_ssd130x.h ****   private:
  53:../../libdaisy/src/dev/oled_ssd130x.h ****     daisy::I2CHandle i2c_;
  54:../../libdaisy/src/dev/oled_ssd130x.h ****     uint8_t          i2c_address_;
  55:../../libdaisy/src/dev/oled_ssd130x.h **** };
  56:../../libdaisy/src/dev/oled_ssd130x.h **** 
  57:../../libdaisy/src/dev/oled_ssd130x.h **** /**
  58:../../libdaisy/src/dev/oled_ssd130x.h ****  * 4 Wire SPI Transport for SSD1306 / SSD1309 OLED display devices
  59:../../libdaisy/src/dev/oled_ssd130x.h ****  */
  60:../../libdaisy/src/dev/oled_ssd130x.h **** class SSD130x4WireSpiTransport
  61:../../libdaisy/src/dev/oled_ssd130x.h **** {
  62:../../libdaisy/src/dev/oled_ssd130x.h ****   public:
  63:../../libdaisy/src/dev/oled_ssd130x.h ****     struct Config
ARM GAS  C:\Users\VINCIU~1\AppData\Local\Temp\ccYgfSqf.s 			page 23


  64:../../libdaisy/src/dev/oled_ssd130x.h ****     {
  65:../../libdaisy/src/dev/oled_ssd130x.h ****         struct
  66:../../libdaisy/src/dev/oled_ssd130x.h ****         {
  67:../../libdaisy/src/dev/oled_ssd130x.h ****             dsy_gpio_pin dc;    /**< & */
  68:../../libdaisy/src/dev/oled_ssd130x.h ****             dsy_gpio_pin reset; /**< & */
  69:../../libdaisy/src/dev/oled_ssd130x.h ****         } pin_config;
  70:../../libdaisy/src/dev/oled_ssd130x.h ****         void Defaults()
  71:../../libdaisy/src/dev/oled_ssd130x.h ****         {
  72:../../libdaisy/src/dev/oled_ssd130x.h ****             pin_config.dc    = {DSY_GPIOB, 4};
  73:../../libdaisy/src/dev/oled_ssd130x.h ****             pin_config.reset = {DSY_GPIOB, 15};
  74:../../libdaisy/src/dev/oled_ssd130x.h ****         }
  75:../../libdaisy/src/dev/oled_ssd130x.h ****     };
  76:../../libdaisy/src/dev/oled_ssd130x.h ****     void Init(const Config& config)
  77:../../libdaisy/src/dev/oled_ssd130x.h ****     {
  78:../../libdaisy/src/dev/oled_ssd130x.h ****         // Initialize both GPIO
  79:../../libdaisy/src/dev/oled_ssd130x.h ****         pin_dc_.mode = DSY_GPIO_MODE_OUTPUT_PP;
  80:../../libdaisy/src/dev/oled_ssd130x.h ****         pin_dc_.pin  = config.pin_config.dc;
  81:../../libdaisy/src/dev/oled_ssd130x.h ****         dsy_gpio_init(&pin_dc_);
  82:../../libdaisy/src/dev/oled_ssd130x.h ****         pin_reset_.mode = DSY_GPIO_MODE_OUTPUT_PP;
  83:../../libdaisy/src/dev/oled_ssd130x.h ****         pin_reset_.pin  = config.pin_config.reset;
  84:../../libdaisy/src/dev/oled_ssd130x.h ****         dsy_gpio_init(&pin_reset_);
  85:../../libdaisy/src/dev/oled_ssd130x.h ****         // Initialize SPI
  86:../../libdaisy/src/dev/oled_ssd130x.h ****         SpiHandle::Config spi_config;
  87:../../libdaisy/src/dev/oled_ssd130x.h ****         spi_config.periph    = SpiHandle::Config::Peripheral::SPI_1;
  88:../../libdaisy/src/dev/oled_ssd130x.h ****         spi_config.mode      = SpiHandle::Config::Mode::MASTER;
  89:../../libdaisy/src/dev/oled_ssd130x.h ****         spi_config.direction = SpiHandle::Config::Direction::TWO_LINES_TX_ONLY;
  90:../../libdaisy/src/dev/oled_ssd130x.h ****         spi_config.datasize  = 8;
  91:../../libdaisy/src/dev/oled_ssd130x.h ****         spi_config.clock_polarity = SpiHandle::Config::ClockPolarity::LOW;
  92:../../libdaisy/src/dev/oled_ssd130x.h ****         spi_config.clock_phase    = SpiHandle::Config::ClockPhase::ONE_EDGE;
  93:../../libdaisy/src/dev/oled_ssd130x.h ****         spi_config.nss            = SpiHandle::Config::NSS::HARD_OUTPUT;
  94:../../libdaisy/src/dev/oled_ssd130x.h ****         spi_config.baud_prescaler = SpiHandle::Config::BaudPrescaler::PS_8;
  95:../../libdaisy/src/dev/oled_ssd130x.h **** 
  96:../../libdaisy/src/dev/oled_ssd130x.h ****         spi_config.pin_config.sclk = {DSY_GPIOG, 11};
  97:../../libdaisy/src/dev/oled_ssd130x.h ****         spi_config.pin_config.miso = {DSY_GPIOX, 0};
  98:../../libdaisy/src/dev/oled_ssd130x.h ****         spi_config.pin_config.mosi = {DSY_GPIOB, 5};
  99:../../libdaisy/src/dev/oled_ssd130x.h ****         spi_config.pin_config.nss  = {DSY_GPIOG, 10};
 100:../../libdaisy/src/dev/oled_ssd130x.h **** 
 101:../../libdaisy/src/dev/oled_ssd130x.h ****         spi_.Init(spi_config);
 102:../../libdaisy/src/dev/oled_ssd130x.h **** 
 103:../../libdaisy/src/dev/oled_ssd130x.h ****         // Reset and Configure OLED.
 104:../../libdaisy/src/dev/oled_ssd130x.h ****         dsy_gpio_write(&pin_reset_, 0);
 105:../../libdaisy/src/dev/oled_ssd130x.h ****         System::Delay(10);
 106:../../libdaisy/src/dev/oled_ssd130x.h ****         dsy_gpio_write(&pin_reset_, 1);
 107:../../libdaisy/src/dev/oled_ssd130x.h ****         System::Delay(10);
 108:../../libdaisy/src/dev/oled_ssd130x.h ****     };
 109:../../libdaisy/src/dev/oled_ssd130x.h ****     void SendCommand(uint8_t cmd)
 110:../../libdaisy/src/dev/oled_ssd130x.h ****     {
 111:../../libdaisy/src/dev/oled_ssd130x.h ****         dsy_gpio_write(&pin_dc_, 0);
 112:../../libdaisy/src/dev/oled_ssd130x.h ****         spi_.BlockingTransmit(&cmd, 1);
 113:../../libdaisy/src/dev/oled_ssd130x.h ****     };
 114:../../libdaisy/src/dev/oled_ssd130x.h **** 
 115:../../libdaisy/src/dev/oled_ssd130x.h ****     void SendData(uint8_t* buff, size_t size)
 116:../../libdaisy/src/dev/oled_ssd130x.h ****     {
 117:../../libdaisy/src/dev/oled_ssd130x.h ****         dsy_gpio_write(&pin_dc_, 1);
 118:../../libdaisy/src/dev/oled_ssd130x.h ****         spi_.BlockingTransmit(buff, size);
 119:../../libdaisy/src/dev/oled_ssd130x.h ****     };
 120:../../libdaisy/src/dev/oled_ssd130x.h **** 
ARM GAS  C:\Users\VINCIU~1\AppData\Local\Temp\ccYgfSqf.s 			page 24


 121:../../libdaisy/src/dev/oled_ssd130x.h ****   private:
 122:../../libdaisy/src/dev/oled_ssd130x.h ****     SpiHandle spi_;
 123:../../libdaisy/src/dev/oled_ssd130x.h ****     dsy_gpio  pin_reset_;
 124:../../libdaisy/src/dev/oled_ssd130x.h ****     dsy_gpio  pin_dc_;
 125:../../libdaisy/src/dev/oled_ssd130x.h **** };
 126:../../libdaisy/src/dev/oled_ssd130x.h **** 
 127:../../libdaisy/src/dev/oled_ssd130x.h **** 
 128:../../libdaisy/src/dev/oled_ssd130x.h **** /**
 129:../../libdaisy/src/dev/oled_ssd130x.h ****  * A driver implementation for the SSD1306/SSD1309
 130:../../libdaisy/src/dev/oled_ssd130x.h ****  */
 131:../../libdaisy/src/dev/oled_ssd130x.h **** template <size_t width, size_t height, typename Transport>
 132:../../libdaisy/src/dev/oled_ssd130x.h **** class SSD130xDriver
 133:../../libdaisy/src/dev/oled_ssd130x.h **** {
 134:../../libdaisy/src/dev/oled_ssd130x.h ****   public:
 135:../../libdaisy/src/dev/oled_ssd130x.h ****     struct Config
 136:../../libdaisy/src/dev/oled_ssd130x.h ****     {
 137:../../libdaisy/src/dev/oled_ssd130x.h ****         typename Transport::Config transport_config;
 138:../../libdaisy/src/dev/oled_ssd130x.h ****     };
 139:../../libdaisy/src/dev/oled_ssd130x.h **** 
 140:../../libdaisy/src/dev/oled_ssd130x.h ****     void Init(Config config)
 141:../../libdaisy/src/dev/oled_ssd130x.h ****     {
 142:../../libdaisy/src/dev/oled_ssd130x.h ****         transport_.Init(config.transport_config);
 143:../../libdaisy/src/dev/oled_ssd130x.h **** 
 144:../../libdaisy/src/dev/oled_ssd130x.h ****         // Init routine...
 145:../../libdaisy/src/dev/oled_ssd130x.h **** 
 146:../../libdaisy/src/dev/oled_ssd130x.h ****         // Display Off
 147:../../libdaisy/src/dev/oled_ssd130x.h ****         transport_.SendCommand(0xaE);
 148:../../libdaisy/src/dev/oled_ssd130x.h ****         // Dimension dependent commands...
 149:../../libdaisy/src/dev/oled_ssd130x.h ****         switch(height)
 150:../../libdaisy/src/dev/oled_ssd130x.h ****         {
 151:../../libdaisy/src/dev/oled_ssd130x.h ****             case 16:
 152:../../libdaisy/src/dev/oled_ssd130x.h ****                 // Display Clock Divide Ratio
 153:../../libdaisy/src/dev/oled_ssd130x.h ****                 transport_.SendCommand(0xD5);
 154:../../libdaisy/src/dev/oled_ssd130x.h ****                 transport_.SendCommand(0x60);
 155:../../libdaisy/src/dev/oled_ssd130x.h ****                 // Multiplex Ratio
 156:../../libdaisy/src/dev/oled_ssd130x.h ****                 transport_.SendCommand(0xA8);
 157:../../libdaisy/src/dev/oled_ssd130x.h ****                 transport_.SendCommand(0x0F);
 158:../../libdaisy/src/dev/oled_ssd130x.h ****                 // COM Pins
 159:../../libdaisy/src/dev/oled_ssd130x.h ****                 transport_.SendCommand(0xDA);
 160:../../libdaisy/src/dev/oled_ssd130x.h ****                 transport_.SendCommand(0x02);
 161:../../libdaisy/src/dev/oled_ssd130x.h ****                 break;
 162:../../libdaisy/src/dev/oled_ssd130x.h ****             case 32:
 163:../../libdaisy/src/dev/oled_ssd130x.h ****                 // Display Clock Divide Ratio
 164:../../libdaisy/src/dev/oled_ssd130x.h ****                 transport_.SendCommand(0xD5);
 165:../../libdaisy/src/dev/oled_ssd130x.h ****                 transport_.SendCommand(0x80);
 166:../../libdaisy/src/dev/oled_ssd130x.h ****                 // Multiplex Ratio
 167:../../libdaisy/src/dev/oled_ssd130x.h ****                 transport_.SendCommand(0xA8);
 168:../../libdaisy/src/dev/oled_ssd130x.h ****                 transport_.SendCommand(0x1F);
 169:../../libdaisy/src/dev/oled_ssd130x.h ****                 // COM Pins
 170:../../libdaisy/src/dev/oled_ssd130x.h ****                 transport_.SendCommand(0xDA);
 171:../../libdaisy/src/dev/oled_ssd130x.h ****                 if(width == 64)
 172:../../libdaisy/src/dev/oled_ssd130x.h ****                 {
 173:../../libdaisy/src/dev/oled_ssd130x.h ****                     transport_.SendCommand(0x12);
 174:../../libdaisy/src/dev/oled_ssd130x.h ****                 }
 175:../../libdaisy/src/dev/oled_ssd130x.h ****                 else
 176:../../libdaisy/src/dev/oled_ssd130x.h ****                 {
 177:../../libdaisy/src/dev/oled_ssd130x.h ****                     transport_.SendCommand(0x02);
ARM GAS  C:\Users\VINCIU~1\AppData\Local\Temp\ccYgfSqf.s 			page 25


 178:../../libdaisy/src/dev/oled_ssd130x.h ****                 }
 179:../../libdaisy/src/dev/oled_ssd130x.h **** 
 180:../../libdaisy/src/dev/oled_ssd130x.h ****                 break;
 181:../../libdaisy/src/dev/oled_ssd130x.h ****             case 48:
 182:../../libdaisy/src/dev/oled_ssd130x.h ****                 // Display Clock Divide Ratio
 183:../../libdaisy/src/dev/oled_ssd130x.h ****                 transport_.SendCommand(0xD5);
 184:../../libdaisy/src/dev/oled_ssd130x.h ****                 transport_.SendCommand(0x80);
 185:../../libdaisy/src/dev/oled_ssd130x.h ****                 // Multiplex Ratio
 186:../../libdaisy/src/dev/oled_ssd130x.h ****                 transport_.SendCommand(0xA8);
 187:../../libdaisy/src/dev/oled_ssd130x.h ****                 transport_.SendCommand(0x2F);
 188:../../libdaisy/src/dev/oled_ssd130x.h ****                 // COM Pins
 189:../../libdaisy/src/dev/oled_ssd130x.h ****                 transport_.SendCommand(0xDA);
 190:../../libdaisy/src/dev/oled_ssd130x.h ****                 transport_.SendCommand(0x12);
 191:../../libdaisy/src/dev/oled_ssd130x.h ****                 break;
 192:../../libdaisy/src/dev/oled_ssd130x.h ****             default: // 128
 193:../../libdaisy/src/dev/oled_ssd130x.h ****                 // Display Clock Divide Ratio
 194:../../libdaisy/src/dev/oled_ssd130x.h ****                 transport_.SendCommand(0xD5);
 195:../../libdaisy/src/dev/oled_ssd130x.h ****                 transport_.SendCommand(0x80);
 196:../../libdaisy/src/dev/oled_ssd130x.h ****                 // Multiplex Ratio
 197:../../libdaisy/src/dev/oled_ssd130x.h ****                 transport_.SendCommand(0xA8);
 198:../../libdaisy/src/dev/oled_ssd130x.h ****                 transport_.SendCommand(0x3F);
 199:../../libdaisy/src/dev/oled_ssd130x.h ****                 // COM Pins
 200:../../libdaisy/src/dev/oled_ssd130x.h ****                 transport_.SendCommand(0xDA);
 201:../../libdaisy/src/dev/oled_ssd130x.h ****                 transport_.SendCommand(0x12);
 202:../../libdaisy/src/dev/oled_ssd130x.h ****                 break;
 203:../../libdaisy/src/dev/oled_ssd130x.h ****         }
 204:../../libdaisy/src/dev/oled_ssd130x.h **** 
 205:../../libdaisy/src/dev/oled_ssd130x.h ****         // Display Offset
 206:../../libdaisy/src/dev/oled_ssd130x.h ****         transport_.SendCommand(0xD3);
 207:../../libdaisy/src/dev/oled_ssd130x.h ****         transport_.SendCommand(0x00);
 208:../../libdaisy/src/dev/oled_ssd130x.h ****         // Start Line Address
 209:../../libdaisy/src/dev/oled_ssd130x.h ****         transport_.SendCommand(0x40);
 210:../../libdaisy/src/dev/oled_ssd130x.h ****         // Normal Display
 211:../../libdaisy/src/dev/oled_ssd130x.h ****         transport_.SendCommand(0xA6);
 212:../../libdaisy/src/dev/oled_ssd130x.h ****         // All On Resume
 213:../../libdaisy/src/dev/oled_ssd130x.h ****         transport_.SendCommand(0xA4);
 214:../../libdaisy/src/dev/oled_ssd130x.h ****         // Charge Pump
 215:../../libdaisy/src/dev/oled_ssd130x.h ****         transport_.SendCommand(0x8D);
 216:../../libdaisy/src/dev/oled_ssd130x.h ****         transport_.SendCommand(0x14);
 217:../../libdaisy/src/dev/oled_ssd130x.h ****         // Set Segment Remap
 218:../../libdaisy/src/dev/oled_ssd130x.h ****         transport_.SendCommand(0xA1);
 219:../../libdaisy/src/dev/oled_ssd130x.h ****         // COM Output Scan Direction
 220:../../libdaisy/src/dev/oled_ssd130x.h ****         transport_.SendCommand(0xC8);
 221:../../libdaisy/src/dev/oled_ssd130x.h ****         // Contrast Control
 222:../../libdaisy/src/dev/oled_ssd130x.h ****         transport_.SendCommand(0x81);
 223:../../libdaisy/src/dev/oled_ssd130x.h ****         transport_.SendCommand(0x8F);
 224:../../libdaisy/src/dev/oled_ssd130x.h ****         // Pre Charge
 225:../../libdaisy/src/dev/oled_ssd130x.h ****         transport_.SendCommand(0xD9);
 226:../../libdaisy/src/dev/oled_ssd130x.h ****         transport_.SendCommand(0x25);
 227:../../libdaisy/src/dev/oled_ssd130x.h ****         // VCOM Detect
 228:../../libdaisy/src/dev/oled_ssd130x.h ****         transport_.SendCommand(0xDB);
 229:../../libdaisy/src/dev/oled_ssd130x.h ****         transport_.SendCommand(0x34);
 230:../../libdaisy/src/dev/oled_ssd130x.h **** 
 231:../../libdaisy/src/dev/oled_ssd130x.h **** 
 232:../../libdaisy/src/dev/oled_ssd130x.h ****         // Display On
 233:../../libdaisy/src/dev/oled_ssd130x.h ****         transport_.SendCommand(0xAF); //--turn on oled panel
 234:../../libdaisy/src/dev/oled_ssd130x.h ****     };
ARM GAS  C:\Users\VINCIU~1\AppData\Local\Temp\ccYgfSqf.s 			page 26


 235:../../libdaisy/src/dev/oled_ssd130x.h **** 
 236:../../libdaisy/src/dev/oled_ssd130x.h ****     size_t Width() const { return width; };
 237:../../libdaisy/src/dev/oled_ssd130x.h ****     size_t Height() const { return height; };
 238:../../libdaisy/src/dev/oled_ssd130x.h **** 
 239:../../libdaisy/src/dev/oled_ssd130x.h ****     void DrawPixel(uint_fast8_t x, uint_fast8_t y, bool on)
 240:../../libdaisy/src/dev/oled_ssd130x.h ****     {
 241:../../libdaisy/src/dev/oled_ssd130x.h ****         if(x >= width || y >= height)
 242:../../libdaisy/src/dev/oled_ssd130x.h ****             return;
 243:../../libdaisy/src/dev/oled_ssd130x.h ****         if(on)
 244:../../libdaisy/src/dev/oled_ssd130x.h ****             buffer_[x + (y / 8) * width] |= (1 << (y % 8));
 245:../../libdaisy/src/dev/oled_ssd130x.h ****         else
 246:../../libdaisy/src/dev/oled_ssd130x.h ****             buffer_[x + (y / 8) * width] &= ~(1 << (y % 8));
 509              		.loc 6 246 55 is_stmt 0 view .LVU145
 510 00a0 04F00703 		and	r3, r4, #7
 511              		.loc 6 246 49 view .LVU146
 512 00a4 4FF0010E 		mov	lr, #1
 513              		.loc 6 246 28 view .LVU147
 514 00a8 E208     		lsrs	r2, r4, #3
 515 00aa 5946     		mov	r1, fp
 516              		.loc 6 246 49 view .LVU148
 517 00ac 0EFA03FE 		lsl	lr, lr, r3
 518 00b0 0BF11403 		add	r3, fp, #20
 519              		.loc 6 246 42 view .LVU149
 520 00b4 4FFA8EFE 		sxtb	lr, lr
 521 00b8 03EBC212 		add	r2, r3, r2, lsl #7
 522              	.LBE316:
 523              	.LBE315:
 524              	.LBE314:
 525              	.LBE313:
 526              	.LBE312:
 376:../../libdaisy/src/hid/disp/display.h ****             {
 527              		.loc 5 376 19 view .LVU150
 528 00bc 0023     		movs	r3, #0
 529              	.LBB334:
 530              	.LBB329:
 531              	.LBB324:
 532              	.LBB320:
 533              	.LBB317:
 534              		.loc 6 246 42 view .LVU151
 535 00be 6FEA0E08 		mvn	r8, lr
 536 00c2 3244     		add	r2, r2, r6
 537 00c4 0DE0     		b	.L40
 538              	.LVL23:
 539              	.L64:
 540              		.loc 6 246 42 view .LVU152
 541              	.LBE317:
 542              	.LBE320:
 543              	.LBE324:
 544              	.LBE329:
 545              	.LBE334:
 546              	.LBB335:
 547              	.LBI335:
  28:../../libdaisy/src/hid/disp/oled_display.h **** 
  29:../../libdaisy/src/hid/disp/oled_display.h ****     /** 
  30:../../libdaisy/src/hid/disp/oled_display.h ****     Fills the entire display with either on/off.
  31:../../libdaisy/src/hid/disp/oled_display.h ****     \param on Sets on or off.
  32:../../libdaisy/src/hid/disp/oled_display.h ****     */
ARM GAS  C:\Users\VINCIU~1\AppData\Local\Temp\ccYgfSqf.s 			page 27


  33:../../libdaisy/src/hid/disp/oled_display.h ****     void Fill(bool on) override { driver_.Fill(on); }
  34:../../libdaisy/src/hid/disp/oled_display.h **** 
  35:../../libdaisy/src/hid/disp/oled_display.h ****     /**
  36:../../libdaisy/src/hid/disp/oled_display.h ****     Sets the pixel at the specified coordinate to be on/off.
  37:../../libdaisy/src/hid/disp/oled_display.h ****     \param x   x Coordinate
  38:../../libdaisy/src/hid/disp/oled_display.h ****     \param y   y coordinate
  39:../../libdaisy/src/hid/disp/oled_display.h ****     \param on  on or off
  40:../../libdaisy/src/hid/disp/oled_display.h ****     */
  41:../../libdaisy/src/hid/disp/oled_display.h ****     void DrawPixel(uint_fast8_t x, uint_fast8_t y, bool on) override
 548              		.loc 1 41 10 is_stmt 1 view .LVU153
 549              	.LBB336:
 550              	.LBI336:
 239:../../libdaisy/src/dev/oled_ssd130x.h ****     {
 551              		.loc 6 239 10 view .LVU154
 552              	.LBB337:
 241:../../libdaisy/src/dev/oled_ssd130x.h ****             return;
 553              		.loc 6 241 9 is_stmt 0 view .LVU155
 554 00c6 7F29     		cmp	r1, #127
 555 00c8 06D8     		bhi	.L36
 556 00ca 3F2C     		cmp	r4, #63
 557 00cc 04D8     		bhi	.L36
 244:../../libdaisy/src/dev/oled_ssd130x.h ****         else
 558              		.loc 6 244 42 view .LVU156
 559 00ce 1078     		ldrb	r0, [r2]	@ zero_extendqisi2
 243:../../libdaisy/src/dev/oled_ssd130x.h ****             buffer_[x + (y / 8) * width] |= (1 << (y % 8));
 560              		.loc 6 243 9 view .LVU157
 561 00d0 97B1     		cbz	r7, .L38
 562              	.L61:
 243:../../libdaisy/src/dev/oled_ssd130x.h ****             buffer_[x + (y / 8) * width] |= (1 << (y % 8));
 563              		.loc 6 243 9 view .LVU158
 564              	.LBE337:
 565              	.LBE336:
 566              	.LBE335:
 567              	.LBB338:
 568              	.LBB330:
 569              	.LBB325:
 244:../../libdaisy/src/dev/oled_ssd130x.h ****         else
 570              		.loc 6 244 42 view .LVU159
 571 00d2 4EEA0000 		orr	r0, lr, r0
 572 00d6 1070     		strb	r0, [r2]
 573              	.L36:
 574              	.LBE325:
 575              	.LBE330:
 576              	.LBE338:
 376:../../libdaisy/src/hid/disp/display.h ****             {
 577              		.loc 5 376 13 is_stmt 1 view .LVU160
 578 00d8 0133     		adds	r3, r3, #1
 579              	.LVL24:
 376:../../libdaisy/src/hid/disp/display.h ****             {
 580              		.loc 5 376 26 view .LVU161
 581 00da 0132     		adds	r2, r2, #1
 582 00dc 0131     		adds	r1, r1, #1
 583 00de AB42     		cmp	r3, r5
 584 00e0 13D0     		beq	.L39
 585              	.LVL25:
 586              	.L40:
 378:../../libdaisy/src/hid/disp/display.h ****                 {
ARM GAS  C:\Users\VINCIU~1\AppData\Local\Temp\ccYgfSqf.s 			page 28


 587              		.loc 5 378 23 is_stmt 0 view .LVU162
 588 00e2 0CFA03F0 		lsl	r0, ip, r3
 378:../../libdaisy/src/hid/disp/display.h ****                 {
 589              		.loc 5 378 17 view .LVU163
 590 00e6 0004     		lsls	r0, r0, #16
 591 00e8 EDD4     		bmi	.L64
 592              	.LVL26:
 593              	.LBB339:
 594              	.LBI312:
 595              		.loc 1 41 10 is_stmt 1 view .LVU164
 596              	.LBB331:
 597              	.LBI313:
 239:../../libdaisy/src/dev/oled_ssd130x.h ****     {
 598              		.loc 6 239 10 view .LVU165
 599              	.LBB326:
 241:../../libdaisy/src/dev/oled_ssd130x.h ****             return;
 600              		.loc 6 241 9 is_stmt 0 view .LVU166
 601 00ea 7F29     		cmp	r1, #127
 602 00ec F4D8     		bhi	.L36
 603 00ee 3F2C     		cmp	r4, #63
 604 00f0 F2D8     		bhi	.L36
 244:../../libdaisy/src/dev/oled_ssd130x.h ****         else
 605              		.loc 6 244 42 view .LVU167
 606 00f2 1078     		ldrb	r0, [r2]	@ zero_extendqisi2
 243:../../libdaisy/src/dev/oled_ssd130x.h ****             buffer_[x + (y / 8) * width] |= (1 << (y % 8));
 607              		.loc 6 243 9 view .LVU168
 608 00f4 002F     		cmp	r7, #0
 609 00f6 ECD0     		beq	.L61
 610              	.L38:
 611              	.LVL27:
 612              	.LBB321:
 613              	.LBI315:
 239:../../libdaisy/src/dev/oled_ssd130x.h ****     {
 614              		.loc 6 239 10 is_stmt 1 view .LVU169
 239:../../libdaisy/src/dev/oled_ssd130x.h ****     {
 615              		.loc 6 239 10 is_stmt 0 view .LVU170
 616              	.LBE321:
 617              	.LBE326:
 618              	.LBE331:
 619              	.LBE339:
 376:../../libdaisy/src/hid/disp/display.h ****             {
 620              		.loc 5 376 13 view .LVU171
 621 00f8 0133     		adds	r3, r3, #1
 622              	.LVL28:
 623              	.LBB340:
 624              	.LBB332:
 625              	.LBB327:
 626              	.LBB322:
 627              	.LBB318:
 628              		.loc 6 246 42 view .LVU172
 629 00fa 08EA0000 		and	r0, r8, r0
 630              	.LBE318:
 631              	.LBE322:
 632              	.LBE327:
 633              	.LBE332:
 634              	.LBE340:
 376:../../libdaisy/src/hid/disp/display.h ****             {
ARM GAS  C:\Users\VINCIU~1\AppData\Local\Temp\ccYgfSqf.s 			page 29


 635              		.loc 5 376 26 view .LVU173
 636 00fe 0132     		adds	r2, r2, #1
 637 0100 0131     		adds	r1, r1, #1
 638 0102 AB42     		cmp	r3, r5
 639              	.LBB341:
 640              	.LBB333:
 641              	.LBB328:
 642              	.LBB323:
 643              	.LBB319:
 644              		.loc 6 246 42 view .LVU174
 645 0104 02F8010C 		strb	r0, [r2, #-1]
 646              		.loc 6 246 42 view .LVU175
 647              	.LBE319:
 648              	.LBE323:
 649              	.LBE328:
 650              	.LBE333:
 651              	.LBE341:
 376:../../libdaisy/src/hid/disp/display.h ****             {
 652              		.loc 5 376 13 is_stmt 1 view .LVU176
 653              	.LVL29:
 376:../../libdaisy/src/hid/disp/display.h ****             {
 654              		.loc 5 376 26 view .LVU177
 655 0108 EBD1     		bne	.L40
 656              	.LVL30:
 657              	.L39:
 373:../../libdaisy/src/hid/disp/display.h ****         {
 658              		.loc 5 373 9 view .LVU178
 373:../../libdaisy/src/hid/disp/display.h ****         {
 659              		.loc 5 373 22 view .LVU179
 660 010a D145     		cmp	r9, r10
 661 010c 04F10104 		add	r4, r4, #1
 662 0110 C3D1     		bne	.L34
 663 0112 DDF81080 		ldr	r8, [sp, #16]
 664              	.LVL31:
 665              	.L33:
 666              	.LBB342:
 667              	.LBB343:
 133:../../libdaisy/src/hid/disp/display.h ****         currentY_ = (y >= Height()) ? Height() - 1 : y;
 668              		.loc 5 133 33 is_stmt 0 view .LVU180
 669 0116 3268     		ldr	r2, [r6]
 670              	.LBE343:
 671              	.LBE342:
 394:../../libdaisy/src/hid/disp/display.h **** 
 672              		.loc 5 394 18 view .LVU181
 673 0118 0BEB0504 		add	r4, fp, r5
 674 011c 2649     		ldr	r1, .L69
 675              	.LBB348:
 676              	.LBB344:
 133:../../libdaisy/src/hid/disp/display.h ****         currentY_ = (y >= Height()) ? Height() - 1 : y;
 677              		.loc 5 133 33 view .LVU182
 678 011e D368     		ldr	r3, [r2, #12]
 679              	.LBE344:
 680              	.LBE348:
 394:../../libdaisy/src/hid/disp/display.h **** 
 681              		.loc 5 394 18 view .LVU183
 682 0120 A4B2     		uxth	r4, r4
 683              	.LVL32:
ARM GAS  C:\Users\VINCIU~1\AppData\Local\Temp\ccYgfSqf.s 			page 30


 684              	.LBB349:
 685              	.LBI342:
 131:../../libdaisy/src/hid/disp/display.h ****     {
 686              		.loc 5 131 10 is_stmt 1 view .LVU184
 687              	.LBB345:
 133:../../libdaisy/src/hid/disp/display.h ****         currentY_ = (y >= Height()) ? Height() - 1 : y;
 688              		.loc 5 133 9 view .LVU185
 689 0122 8B42     		cmp	r3, r1
 690 0124 34D1     		bne	.L65
 133:../../libdaisy/src/hid/disp/display.h ****         currentY_ = (y >= Height()) ? Height() - 1 : y;
 691              		.loc 5 133 33 is_stmt 0 view .LVU186
 692 0126 8020     		movs	r0, #128
 693              	.L41:
 133:../../libdaisy/src/hid/disp/display.h ****         currentY_ = (y >= Height()) ? Height() - 1 : y;
 694              		.loc 5 133 19 view .LVU187
 695 0128 8442     		cmp	r4, r0
 696 012a 04D3     		bcc	.L42
 133:../../libdaisy/src/hid/disp/display.h ****         currentY_ = (y >= Height()) ? Height() - 1 : y;
 697              		.loc 5 133 44 view .LVU188
 698 012c D368     		ldr	r3, [r2, #12]
 699 012e 2249     		ldr	r1, .L69
 700 0130 8B42     		cmp	r3, r1
 701 0132 3AD1     		bne	.L66
 702 0134 7F24     		movs	r4, #127
 703              	.LVL33:
 704              	.L42:
 134:../../libdaisy/src/hid/disp/display.h ****     }
 705              		.loc 5 134 34 view .LVU189
 706 0136 9368     		ldr	r3, [r2, #8]
 707 0138 204A     		ldr	r2, .L69+4
 133:../../libdaisy/src/hid/disp/display.h ****         currentY_ = (y >= Height()) ? Height() - 1 : y;
 708              		.loc 5 133 19 view .LVU190
 709 013a B480     		strh	r4, [r6, #4]	@ movhi
 134:../../libdaisy/src/hid/disp/display.h ****     }
 710              		.loc 5 134 9 is_stmt 1 view .LVU191
 711 013c 9342     		cmp	r3, r2
 712 013e 24D1     		bne	.L67
 134:../../libdaisy/src/hid/disp/display.h ****     }
 713              		.loc 5 134 34 is_stmt 0 view .LVU192
 714 0140 4020     		movs	r0, #64
 715              	.L44:
 134:../../libdaisy/src/hid/disp/display.h ****     }
 716              		.loc 5 134 19 view .LVU193
 717 0142 029B     		ldr	r3, [sp, #8]
 718 0144 8342     		cmp	r3, r0
 719 0146 06D3     		bcc	.L45
 134:../../libdaisy/src/hid/disp/display.h ****     }
 720              		.loc 5 134 46 view .LVU194
 721 0148 3368     		ldr	r3, [r6]
 722 014a 1C4A     		ldr	r2, .L69+4
 723 014c 9B68     		ldr	r3, [r3, #8]
 724 014e 9342     		cmp	r3, r2
 725 0150 25D1     		bne	.L68
 726 0152 3F23     		movs	r3, #63
 727 0154 0293     		str	r3, [sp, #8]
 728              	.LVL34:
 729              	.L45:
ARM GAS  C:\Users\VINCIU~1\AppData\Local\Temp\ccYgfSqf.s 			page 31


 134:../../libdaisy/src/hid/disp/display.h ****     }
 730              		.loc 5 134 19 view .LVU195
 731 0156 029B     		ldr	r3, [sp, #8]
 732 0158 F380     		strh	r3, [r6, #6]	@ movhi
 733              	.LVL35:
 734              	.L27:
 134:../../libdaisy/src/hid/disp/display.h ****     }
 735              		.loc 5 134 19 view .LVU196
 736              	.LBE345:
 737              	.LBE349:
 738              	.LBE311:
 739              	.LBE310:
 404:../../libdaisy/src/hid/disp/display.h ****         {
 405:../../libdaisy/src/hid/disp/display.h ****             if(((ChildType*)(this))->ChildType::WriteChar(*str, font, on)
 406:../../libdaisy/src/hid/disp/display.h ****                != *str)
 740              		.loc 5 406 16 view .LVU197
 741 015a 019B     		ldr	r3, [sp, #4]
 742 015c 1878     		ldrb	r0, [r3]	@ zero_extendqisi2
 405:../../libdaisy/src/hid/disp/display.h ****                != *str)
 743              		.loc 5 405 13 view .LVU198
 744 015e 4045     		cmp	r0, r8
 745 0160 07D1     		bne	.L25
 746              	.LVL36:
 403:../../libdaisy/src/hid/disp/display.h ****         {
 747              		.loc 5 403 9 is_stmt 1 view .LVU199
 748 0162 13F8018F 		ldrb	r8, [r3, #1]!	@ zero_extendqisi2
 749              	.LVL37:
 403:../../libdaisy/src/hid/disp/display.h ****         {
 750              		.loc 5 403 9 is_stmt 0 view .LVU200
 751 0166 0193     		str	r3, [sp, #4]
 752 0168 B8F1000F 		cmp	r8, #0
 753 016c 7FF460AF 		bne	.L48
 754              	.LVL38:
 755              	.L47:
 756              	.LBB354:
 757              	.LBB352:
 362:../../libdaisy/src/hid/disp/display.h **** 
 758              		.loc 5 362 20 view .LVU201
 759 0170 0020     		movs	r0, #0
 760              	.L25:
 761              	.LBE352:
 762              	.LBE354:
 407:../../libdaisy/src/hid/disp/display.h ****             {
 408:../../libdaisy/src/hid/disp/display.h ****                 // Char could not be written
 409:../../libdaisy/src/hid/disp/display.h ****                 return *str;
 410:../../libdaisy/src/hid/disp/display.h ****             }
 411:../../libdaisy/src/hid/disp/display.h **** 
 412:../../libdaisy/src/hid/disp/display.h ****             // Next char
 413:../../libdaisy/src/hid/disp/display.h ****             str++;
 414:../../libdaisy/src/hid/disp/display.h ****         }
 415:../../libdaisy/src/hid/disp/display.h **** 
 416:../../libdaisy/src/hid/disp/display.h ****         // Everything ok
 417:../../libdaisy/src/hid/disp/display.h ****         return *str;
 418:../../libdaisy/src/hid/disp/display.h ****     }
 763              		.loc 5 418 5 view .LVU202
 764 0172 09B0     		add	sp, sp, #36
 765              		.cfi_remember_state
ARM GAS  C:\Users\VINCIU~1\AppData\Local\Temp\ccYgfSqf.s 			page 32


 766              		.cfi_def_cfa_offset 36
 767              		@ sp needed
 768 0174 BDE8F08F 		pop	{r4, r5, r6, r7, r8, r9, r10, fp, pc}
 769              	.LVL39:
 770              	.L29:
 771              		.cfi_restore_state
 772              	.LBB355:
 773              	.LBB353:
 362:../../libdaisy/src/hid/disp/display.h **** 
 774              		.loc 5 362 20 view .LVU203
 775 0178 4FF00008 		mov	r8, #0
 776              	.LVL40:
 362:../../libdaisy/src/hid/disp/display.h **** 
 777              		.loc 5 362 20 view .LVU204
 778 017c EDE7     		b	.L27
 779              	.LVL41:
 780              	.L62:
 365:../../libdaisy/src/hid/disp/display.h ****            || Height() < (currentY_ + font.FontHeight))
 781              		.loc 5 365 17 view .LVU205
 782 017e 3046     		mov	r0, r6
 783 0180 9847     		blx	r3
 784              	.LVL42:
 785 0182 62E7     		b	.L28
 786              	.L63:
 366:../../libdaisy/src/hid/disp/display.h ****         {
 787              		.loc 5 366 21 view .LVU206
 788 0184 3046     		mov	r0, r6
 789 0186 9847     		blx	r3
 790              	.LVL43:
 791 0188 6BE7     		b	.L30
 792              	.LVL44:
 793              	.L67:
 794              	.LBB350:
 795              	.LBB346:
 134:../../libdaisy/src/hid/disp/display.h ****     }
 796              		.loc 5 134 33 view .LVU207
 797 018a 3046     		mov	r0, r6
 798 018c 9847     		blx	r3
 799              	.LVL45:
 800 018e D8E7     		b	.L44
 801              	.LVL46:
 802              	.L65:
 133:../../libdaisy/src/hid/disp/display.h ****         currentY_ = (y >= Height()) ? Height() - 1 : y;
 803              		.loc 5 133 32 view .LVU208
 804 0190 3046     		mov	r0, r6
 805 0192 9847     		blx	r3
 806              	.LVL47:
 133:../../libdaisy/src/hid/disp/display.h ****         currentY_ = (y >= Height()) ? Height() - 1 : y;
 807              		.loc 5 133 44 view .LVU209
 808 0194 3268     		ldr	r2, [r6]
 809 0196 C7E7     		b	.L41
 810              	.LVL48:
 811              	.L31:
 133:../../libdaisy/src/hid/disp/display.h ****         currentY_ = (y >= Height()) ? Height() - 1 : y;
 812              		.loc 5 133 44 view .LVU210
 813              	.LBE346:
 814              	.LBE350:
ARM GAS  C:\Users\VINCIU~1\AppData\Local\Temp\ccYgfSqf.s 			page 33


 394:../../libdaisy/src/hid/disp/display.h **** 
 815              		.loc 5 394 19 view .LVU211
 816 0198 B6F804B0 		ldrh	fp, [r6, #4]
 817 019c BBE7     		b	.L33
 818              	.LVL49:
 819              	.L68:
 820              	.LBB351:
 821              	.LBB347:
 134:../../libdaisy/src/hid/disp/display.h ****     }
 822              		.loc 5 134 45 view .LVU212
 823 019e 3046     		mov	r0, r6
 824 01a0 9847     		blx	r3
 825              	.LVL50:
 134:../../libdaisy/src/hid/disp/display.h ****     }
 826              		.loc 5 134 19 view .LVU213
 827 01a2 0138     		subs	r0, r0, #1
 828 01a4 83B2     		uxth	r3, r0
 829 01a6 0293     		str	r3, [sp, #8]
 830              	.LVL51:
 134:../../libdaisy/src/hid/disp/display.h ****     }
 831              		.loc 5 134 19 view .LVU214
 832 01a8 D5E7     		b	.L45
 833              	.LVL52:
 834              	.L66:
 133:../../libdaisy/src/hid/disp/display.h ****         currentY_ = (y >= Height()) ? Height() - 1 : y;
 835              		.loc 5 133 43 view .LVU215
 836 01aa 3046     		mov	r0, r6
 837 01ac 9847     		blx	r3
 838              	.LVL53:
 133:../../libdaisy/src/hid/disp/display.h ****         currentY_ = (y >= Height()) ? Height() - 1 : y;
 839              		.loc 5 133 19 view .LVU216
 840 01ae 0138     		subs	r0, r0, #1
 134:../../libdaisy/src/hid/disp/display.h ****     }
 841              		.loc 5 134 34 view .LVU217
 842 01b0 3268     		ldr	r2, [r6]
 133:../../libdaisy/src/hid/disp/display.h ****         currentY_ = (y >= Height()) ? Height() - 1 : y;
 843              		.loc 5 133 19 view .LVU218
 844 01b2 84B2     		uxth	r4, r0
 845              	.LVL54:
 133:../../libdaisy/src/hid/disp/display.h ****         currentY_ = (y >= Height()) ? Height() - 1 : y;
 846              		.loc 5 133 19 view .LVU219
 847 01b4 BFE7     		b	.L42
 848              	.L70:
 849 01b6 00BF     		.align	2
 850              	.L69:
 851 01b8 00000000 		.word	_ZNK5daisy11OledDisplayINS_13SSD130xDriverILj128ELj64ENS_24SSD130x4WireSpiTransportEEEE5Widt
 852 01bc 00000000 		.word	_ZNK5daisy11OledDisplayINS_13SSD130xDriverILj128ELj64ENS_24SSD130x4WireSpiTransportEEEE6Heig
 853              	.LBE347:
 854              	.LBE351:
 855              	.LBE353:
 856              	.LBE355:
 857              		.cfi_endproc
 858              	.LFE4337:
 860              		.section	.rodata._ZN5Menus5Menu2E23OledDisplayExtravaganzaPN7daisysp10OscillatorE.str1.4,"aMS",%pr
 861              		.align	2
 862              	.LC1:
 863 0000 496E6974 		.ascii	"Init_%d%%\000"
ARM GAS  C:\Users\VINCIU~1\AppData\Local\Temp\ccYgfSqf.s 			page 34


 863      5F256425 
 863      2500
 864 000a 0000     		.align	2
 865              	.LC2:
 866 000c 54696D65 		.ascii	"Time_%d%%\000"
 866      5F256425 
 866      2500
 867              		.section	.text._ZN5Menus5Menu2E23OledDisplayExtravaganzaPN7daisysp10OscillatorE,"ax",%progbits
 868              		.align	1
 869              		.p2align 2,,3
 870              		.global	_ZN5Menus5Menu2E23OledDisplayExtravaganzaPN7daisysp10OscillatorE
 871              		.syntax unified
 872              		.thumb
 873              		.thumb_func
 874              		.fpu fpv5-d16
 876              	_ZN5Menus5Menu2E23OledDisplayExtravaganzaPN7daisysp10OscillatorE:
 877              	.LVL55:
 878              	.LFB4040:
  92:Menus.cpp     **** 
  93:Menus.cpp     **** void Menus::Menu1(OledDisplayExtravaganza screen, daisysp::Oscillator osc[])
  94:Menus.cpp     **** 
  95:Menus.cpp     **** {
  96:Menus.cpp     ****     screen.Fill(!on);
  97:Menus.cpp     ****     if(this->buttonLeft.RisingEdge())
  98:Menus.cpp     **** 
  99:Menus.cpp     ****     {
 100:Menus.cpp     ****         menuState = menuState - 1;
 101:Menus.cpp     ****         if(menuState < 0)
 102:Menus.cpp     ****         {
 103:Menus.cpp     ****             menuState = 3;
 104:Menus.cpp     ****         }
 105:Menus.cpp     ****     }
 106:Menus.cpp     ****     if(this->buttonRight.RisingEdge())
 107:Menus.cpp     **** 
 108:Menus.cpp     ****     {
 109:Menus.cpp     ****         menuState = menuState + 1;
 110:Menus.cpp     ****         if(menuState > 3)
 111:Menus.cpp     ****         {
 112:Menus.cpp     ****             menuState = 0;
 113:Menus.cpp     ****         }
 114:Menus.cpp     ****     }
 115:Menus.cpp     **** 
 116:Menus.cpp     ****     screen.drawHorizontalToggle(46, 13, 8, on, this->OscSelector, "");
 117:Menus.cpp     **** 
 118:Menus.cpp     ****     if(this->OscSelector == true)
 119:Menus.cpp     ****     {
 120:Menus.cpp     ****         screen.drawSlider(70, 7, 50, 3, on, ((this->drawSliderSemi)) / 40);
 121:Menus.cpp     ****         screen.drawSlider(70, 40, 50, 3, on, drawSliderFine);
 122:Menus.cpp     ****         screen.drawVerticalToggle(13, 51, 8, on, this->toggleOsc, "");
 123:Menus.cpp     ****         screen.WaveIcons(35, 42, 55, this->selectedWave, on);
 124:Menus.cpp     ****         screen.SetCursor(70, 17);
 125:Menus.cpp     ****         screen.WriteString(this->buff, Font_6x8, true);
 126:Menus.cpp     ****         screen.SetCursor(70, 50);
 127:Menus.cpp     ****         screen.WriteString(this->buffFine, Font_6x8, true);
 128:Menus.cpp     ****     }
 129:Menus.cpp     ****     else
 130:Menus.cpp     ****     {
ARM GAS  C:\Users\VINCIU~1\AppData\Local\Temp\ccYgfSqf.s 			page 35


 131:Menus.cpp     ****         screen.drawSlider(70, 7, 50, 3, false, (this->drawSliderSemi2) / 40);
 132:Menus.cpp     ****         screen.drawSlider(70, 40, 50, 3, false, drawSliderFine2);
 133:Menus.cpp     ****         screen.drawVerticalToggle(13, 51, 8, false, this->toggleOsc2, "");
 134:Menus.cpp     ****         screen.WaveIcons(35, 42, 55, this->selectedWave2, false);
 135:Menus.cpp     ****         screen.SetCursor(70, 17);
 136:Menus.cpp     ****         screen.WriteString(this->buff2, Font_6x8, false);
 137:Menus.cpp     ****         screen.SetCursor(70, 50);
 138:Menus.cpp     ****         screen.WriteString(this->buffFine2, Font_6x8, false);
 139:Menus.cpp     ****     }
 140:Menus.cpp     **** 
 141:Menus.cpp     **** 
 142:Menus.cpp     ****     screen.SetCursor(4, 8);
 143:Menus.cpp     ****     screen.WriteString("Osc", Font_7x10, on);
 144:Menus.cpp     **** 
 145:Menus.cpp     **** 
 146:Menus.cpp     ****     for(int i = 0; i < screen.Width(); i++)
 147:Menus.cpp     ****     {
 148:Menus.cpp     ****         screen.DrawPixel(i * 3, (screen.Height() / 2) - 3, on);
 149:Menus.cpp     ****     }
 150:Menus.cpp     ****     for(int i = 0; i < screen.Height(); i++)
 151:Menus.cpp     ****     {
 152:Menus.cpp     ****         screen.DrawPixel(60, i * 2, on);
 153:Menus.cpp     ****     }
 154:Menus.cpp     ****     for(int i = screen.Height() / 4 - 1; i < screen.Height(); i++)
 155:Menus.cpp     ****     {
 156:Menus.cpp     ****         screen.DrawPixel(29, i * 2, on);
 157:Menus.cpp     ****     }
 158:Menus.cpp     **** 
 159:Menus.cpp     ****     if(encoderLeft.RisingEdge())
 160:Menus.cpp     ****     {
 161:Menus.cpp     ****         this->OscSelector = !this->OscSelector;
 162:Menus.cpp     ****         on                = this->OscSelector;
 163:Menus.cpp     ****     }
 164:Menus.cpp     ****     else if(menuState == 0)
 165:Menus.cpp     ****     {
 166:Menus.cpp     ****         if(this->OscSelector == true)
 167:Menus.cpp     ****         {
 168:Menus.cpp     ****             if(this->noteSemiAdd > 32)
 169:Menus.cpp     ****             {
 170:Menus.cpp     ****                 this->noteSemiAdd = 32;
 171:Menus.cpp     ****             }
 172:Menus.cpp     ****             if(this->noteSemiAdd < 0)
 173:Menus.cpp     ****             {
 174:Menus.cpp     ****                 this->noteSemiAdd = 0;
 175:Menus.cpp     ****             }
 176:Menus.cpp     ****             if(this->drawSliderSemi >= 40)
 177:Menus.cpp     ****             {
 178:Menus.cpp     ****                 this->drawSliderSemi = 40;
 179:Menus.cpp     ****             }
 180:Menus.cpp     ****             if(this->drawSliderSemi < 0)
 181:Menus.cpp     ****             {
 182:Menus.cpp     ****                 this->drawSliderSemi = 0;
 183:Menus.cpp     ****             }
 184:Menus.cpp     ****             this->noteSemiAdd += this->encoderRight.Increment();
 185:Menus.cpp     ****             this->drawSliderSemi
 186:Menus.cpp     ****                 += (((float)this->encoderRight.Increment()) / 32) * 40;
 187:Menus.cpp     ****             sprintf(this->buff, "Semi_%dst", this->noteSemiAdd);
ARM GAS  C:\Users\VINCIU~1\AppData\Local\Temp\ccYgfSqf.s 			page 36


 188:Menus.cpp     ****         }
 189:Menus.cpp     ****         else
 190:Menus.cpp     ****         {
 191:Menus.cpp     ****             if(this->noteSemiAdd2 > 32)
 192:Menus.cpp     ****             {
 193:Menus.cpp     ****                 this->noteSemiAdd2 = 32;
 194:Menus.cpp     ****             }
 195:Menus.cpp     ****             if(this->noteSemiAdd2 < 0)
 196:Menus.cpp     ****             {
 197:Menus.cpp     ****                 this->noteSemiAdd2 = 0;
 198:Menus.cpp     ****             }
 199:Menus.cpp     ****             if(this->drawSliderSemi2 >= 40)
 200:Menus.cpp     ****             {
 201:Menus.cpp     ****                 this->drawSliderSemi2 = 40;
 202:Menus.cpp     ****             }
 203:Menus.cpp     ****             if(this->drawSliderSemi2 < 0)
 204:Menus.cpp     ****             {
 205:Menus.cpp     ****                 this->drawSliderSemi2 = 0;
 206:Menus.cpp     ****             }
 207:Menus.cpp     ****             this->noteSemiAdd2 += (float)this->encoderRight.Increment();
 208:Menus.cpp     ****             this->drawSliderSemi2
 209:Menus.cpp     ****                 += (((float)this->encoderRight.Increment()) / 32) * 40;
 210:Menus.cpp     ****             sprintf(this->buff2, "Semi_%dst", this->noteSemiAdd2);
 211:Menus.cpp     ****         }
 212:Menus.cpp     **** 
 213:Menus.cpp     **** 
 214:Menus.cpp     ****         screen.DrawRect(
 215:Menus.cpp     ****             60, 0, screen.Width() - 1, screen.Height() / 2 - 3, on, false);
 216:Menus.cpp     ****     }
 217:Menus.cpp     ****     else if(menuState == 1)
 218:Menus.cpp     ****     {
 219:Menus.cpp     ****         if(this->OscSelector == true)
 220:Menus.cpp     **** 
 221:Menus.cpp     ****         {
 222:Menus.cpp     ****             if(this->encoderRight.Increment() == 1)
 223:Menus.cpp     ****             {
 224:Menus.cpp     ****                 synthOn         = 1;
 225:Menus.cpp     ****                 this->toggleOsc = false;
 226:Menus.cpp     ****             }
 227:Menus.cpp     ****             if(this->encoderRight.Increment() == -1)
 228:Menus.cpp     ****             {
 229:Menus.cpp     ****                 synthOn         = 0;
 230:Menus.cpp     ****                 this->toggleOsc = true;
 231:Menus.cpp     ****             }
 232:Menus.cpp     ****         }
 233:Menus.cpp     ****         else
 234:Menus.cpp     ****         {
 235:Menus.cpp     ****             if(this->encoderRight.Increment() == 1)
 236:Menus.cpp     ****             {
 237:Menus.cpp     ****                 synthOn2         = 1;
 238:Menus.cpp     ****                 this->toggleOsc2 = false;
 239:Menus.cpp     ****             }
 240:Menus.cpp     ****             if(this->encoderRight.Increment() == -1)
 241:Menus.cpp     ****             {
 242:Menus.cpp     ****                 synthOn2         = 0;
 243:Menus.cpp     ****                 this->toggleOsc2 = true;
 244:Menus.cpp     ****             }
ARM GAS  C:\Users\VINCIU~1\AppData\Local\Temp\ccYgfSqf.s 			page 37


 245:Menus.cpp     ****         }
 246:Menus.cpp     **** 
 247:Menus.cpp     ****         screen.DrawRect(
 248:Menus.cpp     ****             0, screen.Height() / 2 - 3, 29, screen.Height() - 1, on, false);
 249:Menus.cpp     ****     }
 250:Menus.cpp     ****     else if(menuState == 2)
 251:Menus.cpp     ****     {
 252:Menus.cpp     ****         if(this->OscSelector == true)
 253:Menus.cpp     ****         {
 254:Menus.cpp     ****             this->setWave += this->encoderRight.Increment();
 255:Menus.cpp     ****             if(setWave > 3)
 256:Menus.cpp     ****             {
 257:Menus.cpp     ****                 this->setWave = 3;
 258:Menus.cpp     ****             }
 259:Menus.cpp     ****             if(this->setWave < 0)
 260:Menus.cpp     ****             {
 261:Menus.cpp     ****                 this->setWave = 0;
 262:Menus.cpp     ****             }
 263:Menus.cpp     ****             if(this->setWave == 0)
 264:Menus.cpp     ****             {
 265:Menus.cpp     ****                 for(int i = 0; i < 2; i++)
 266:Menus.cpp     ****                 {
 267:Menus.cpp     ****                     selectedWave = setWave;
 268:Menus.cpp     ****                     osc[0].SetWaveform(osc[0].WAVE_SIN);
 269:Menus.cpp     ****                 }
 270:Menus.cpp     ****             }
 271:Menus.cpp     ****             else if(setWave == 1)
 272:Menus.cpp     ****             {
 273:Menus.cpp     ****                 for(int i = 0; i < 2; i++)
 274:Menus.cpp     ****                 {
 275:Menus.cpp     ****                     selectedWave = setWave;
 276:Menus.cpp     ****                     osc[0].SetWaveform(osc[0].WAVE_TRI);
 277:Menus.cpp     ****                 }
 278:Menus.cpp     ****             }
 279:Menus.cpp     ****             else if(setWave == 2)
 280:Menus.cpp     ****             {
 281:Menus.cpp     ****                 for(int i = 0; i < 2; i++)
 282:Menus.cpp     ****                 {
 283:Menus.cpp     ****                     selectedWave = setWave;
 284:Menus.cpp     ****                     osc[0].SetWaveform(osc[0].WAVE_SQUARE);
 285:Menus.cpp     ****                 }
 286:Menus.cpp     ****             }
 287:Menus.cpp     ****             else if(setWave == 3)
 288:Menus.cpp     ****             {
 289:Menus.cpp     ****                 for(int i = 0; i < 2; i++)
 290:Menus.cpp     ****                 {
 291:Menus.cpp     ****                     selectedWave = setWave;
 292:Menus.cpp     ****                     osc[0].SetWaveform(osc[0].WAVE_SAW);
 293:Menus.cpp     ****                 }
 294:Menus.cpp     ****             }
 295:Menus.cpp     ****         }
 296:Menus.cpp     ****         {
 297:Menus.cpp     ****             if(this->OscSelector == false)
 298:Menus.cpp     ****             {
 299:Menus.cpp     ****                 if(setWave2 > 3)
 300:Menus.cpp     ****                 {
 301:Menus.cpp     ****                     this->setWave2 = 3;
ARM GAS  C:\Users\VINCIU~1\AppData\Local\Temp\ccYgfSqf.s 			page 38


 302:Menus.cpp     ****                 }
 303:Menus.cpp     ****                 if(this->setWave2 < 0)
 304:Menus.cpp     ****                 {
 305:Menus.cpp     ****                     this->setWave2 = 0;
 306:Menus.cpp     ****                 }
 307:Menus.cpp     ****                 this->setWave2 += this->encoderRight.Increment();
 308:Menus.cpp     ****                 if(setWave2 > 3)
 309:Menus.cpp     ****                 {
 310:Menus.cpp     ****                     this->setWave2 = 3;
 311:Menus.cpp     ****                 }
 312:Menus.cpp     ****                 if(this->setWave2 < 0)
 313:Menus.cpp     ****                 {
 314:Menus.cpp     ****                     this->setWave2 = 0;
 315:Menus.cpp     ****                 }
 316:Menus.cpp     ****                 if(this->setWave2 == 0)
 317:Menus.cpp     ****                 {
 318:Menus.cpp     ****                     for(int i = 0; i < 2; i++)
 319:Menus.cpp     ****                     {
 320:Menus.cpp     ****                         selectedWave2 = setWave2;
 321:Menus.cpp     ****                         osc[1].SetWaveform(osc[1].WAVE_SIN);
 322:Menus.cpp     ****                     }
 323:Menus.cpp     ****                 }
 324:Menus.cpp     ****                 else if(setWave2 == 1)
 325:Menus.cpp     ****                 {
 326:Menus.cpp     ****                     for(int i = 0; i < 2; i++)
 327:Menus.cpp     ****                     {
 328:Menus.cpp     ****                         selectedWave2 = setWave2;
 329:Menus.cpp     ****                         osc[1].SetWaveform(osc[1].WAVE_TRI);
 330:Menus.cpp     ****                     }
 331:Menus.cpp     ****                 }
 332:Menus.cpp     ****                 else if(setWave2 == 2)
 333:Menus.cpp     ****                 {
 334:Menus.cpp     ****                     for(int i = 0; i < 2; i++)
 335:Menus.cpp     ****                     {
 336:Menus.cpp     ****                         selectedWave2 = setWave2;
 337:Menus.cpp     ****                         osc[1].SetWaveform(osc[1].WAVE_SQUARE);
 338:Menus.cpp     ****                     }
 339:Menus.cpp     ****                 }
 340:Menus.cpp     ****                 else if(setWave2 == 3)
 341:Menus.cpp     ****                 {
 342:Menus.cpp     ****                     for(int i = 0; i < 2; i++)
 343:Menus.cpp     ****                     {
 344:Menus.cpp     ****                         selectedWave2 = setWave2;
 345:Menus.cpp     ****                         osc[1].SetWaveform(osc[1].WAVE_SAW);
 346:Menus.cpp     ****                     }
 347:Menus.cpp     ****                 }
 348:Menus.cpp     ****             }
 349:Menus.cpp     **** 
 350:Menus.cpp     **** 
 351:Menus.cpp     ****             screen.DrawRect(29,
 352:Menus.cpp     ****                             screen.Height() / 2 - 3,
 353:Menus.cpp     ****                             60,
 354:Menus.cpp     ****                             screen.Height() - 1,
 355:Menus.cpp     ****                             on,
 356:Menus.cpp     ****                             false);
 357:Menus.cpp     ****         }
 358:Menus.cpp     ****     }
ARM GAS  C:\Users\VINCIU~1\AppData\Local\Temp\ccYgfSqf.s 			page 39


 359:Menus.cpp     ****     else if(menuState == 3)
 360:Menus.cpp     ****     {
 361:Menus.cpp     ****         /*  this->noteSemiAdd
 362:Menus.cpp     ****                 += (((float)this->encoderRight.Increment()) / 32) * 40;
 363:Menus.cpp     ****             this->drawSliderSemi
 364:Menus.cpp     ****                 += ((float)this->encoderRight.Increment()) / 32; */
 365:Menus.cpp     **** 
 366:Menus.cpp     **** 
 367:Menus.cpp     ****         if(this->OscSelector == true)
 368:Menus.cpp     ****         {
 369:Menus.cpp     ****             if(this->freqFine >= 1)
 370:Menus.cpp     ****             {
 371:Menus.cpp     ****                 this->freqFine = 1;
 372:Menus.cpp     ****             }
 373:Menus.cpp     ****             if(this->freqFine < 0)
 374:Menus.cpp     ****             {
 375:Menus.cpp     ****                 this->freqFine = 0;
 376:Menus.cpp     ****             }
 377:Menus.cpp     ****             if(this->drawSliderFine >= 1)
 378:Menus.cpp     ****             {
 379:Menus.cpp     ****                 this->drawSliderFine = 1;
 380:Menus.cpp     ****             }
 381:Menus.cpp     ****             if(this->drawSliderFine < 0)
 382:Menus.cpp     ****             {
 383:Menus.cpp     ****                 this->drawSliderFine = 0;
 384:Menus.cpp     ****             }
 385:Menus.cpp     **** 
 386:Menus.cpp     ****             this->freqFine += (((float)this->encoderRight.Increment()) / 32);
 387:Menus.cpp     ****             this->drawSliderFine
 388:Menus.cpp     ****                 += (((float)this->encoderRight.Increment()) / 32);
 389:Menus.cpp     ****             sprintf(this->buffFine, "Fine_%d%%", (int)(freqFine * 100));
 390:Menus.cpp     ****         }
 391:Menus.cpp     ****         else
 392:Menus.cpp     ****         {
 393:Menus.cpp     ****             if(this->freqFine2 > 1)
 394:Menus.cpp     ****             {
 395:Menus.cpp     ****                 this->freqFine2 = 1;
 396:Menus.cpp     ****             }
 397:Menus.cpp     ****             if(this->freqFine2 < 0)
 398:Menus.cpp     ****             {
 399:Menus.cpp     ****                 this->freqFine2 = 0;
 400:Menus.cpp     ****             }
 401:Menus.cpp     ****             if(this->drawSliderFine2 >= 1)
 402:Menus.cpp     ****             {
 403:Menus.cpp     ****                 this->drawSliderFine2 = 1;
 404:Menus.cpp     ****             }
 405:Menus.cpp     ****             if(this->drawSliderFine2 < 0)
 406:Menus.cpp     ****             {
 407:Menus.cpp     ****                 this->drawSliderFine2 = 0;
 408:Menus.cpp     ****             }
 409:Menus.cpp     **** 
 410:Menus.cpp     ****             this->freqFine2 += (((float)this->encoderRight.Increment()) / 32);
 411:Menus.cpp     ****             this->drawSliderFine2
 412:Menus.cpp     ****                 += (((float)this->encoderRight.Increment()) / 32);
 413:Menus.cpp     ****             sprintf(this->buffFine2, "Fine_%d%%", (int)(freqFine2 * 100));
 414:Menus.cpp     ****         }
 415:Menus.cpp     **** 
ARM GAS  C:\Users\VINCIU~1\AppData\Local\Temp\ccYgfSqf.s 			page 40


 416:Menus.cpp     ****         screen.DrawRect(60,
 417:Menus.cpp     ****                         screen.Height() / 2 - 3,
 418:Menus.cpp     ****                         screen.Width() - 1,
 419:Menus.cpp     ****                         screen.Height() - 1,
 420:Menus.cpp     ****                         on,
 421:Menus.cpp     ****                         false);
 422:Menus.cpp     ****     }
 423:Menus.cpp     ****     //noteCross            = noteCross + (this->drawSliderSemi * 100);
 424:Menus.cpp     ****     screen.Update();
 425:Menus.cpp     **** }
 426:Menus.cpp     **** 
 427:Menus.cpp     **** void Menus::Menu2(OledDisplayExtravaganza screen, daisysp::Oscillator osc[])
 428:Menus.cpp     **** {
 879              		.loc 2 428 1 is_stmt 1 view -0
 880              		.cfi_startproc
 881              		@ args = 0, pretend = 0, frame = 24
 882              		@ frame_needed = 0, uses_anonymous_args = 0
 883              		.loc 2 428 1 is_stmt 0 view .LVU221
 884 0000 2DE9F04F 		push	{r4, r5, r6, r7, r8, r9, r10, fp, lr}
 885              		.cfi_def_cfa_offset 36
 886              		.cfi_offset 4, -36
 887              		.cfi_offset 5, -32
 888              		.cfi_offset 6, -28
 889              		.cfi_offset 7, -24
 890              		.cfi_offset 8, -20
 891              		.cfi_offset 9, -16
 892              		.cfi_offset 10, -12
 893              		.cfi_offset 11, -8
 894              		.cfi_offset 14, -4
 895 0004 0C46     		mov	r4, r1
 896 0006 0646     		mov	r6, r0
 429:Menus.cpp     ****     screen.Fill(false);
 897              		.loc 2 429 5 is_stmt 1 view .LVU222
 898              	.LVL56:
 899              	.LBB568:
 900              	.LBI568:
  33:../../libdaisy/src/hid/disp/oled_display.h **** 
 901              		.loc 1 33 10 view .LVU223
 902              	.LBB569:
 903              	.LBI569:
 247:../../libdaisy/src/dev/oled_ssd130x.h ****     }
 248:../../libdaisy/src/dev/oled_ssd130x.h **** 
 249:../../libdaisy/src/dev/oled_ssd130x.h ****     void Fill(bool on)
 904              		.loc 6 249 10 view .LVU224
 905              	.LBB570:
 250:../../libdaisy/src/dev/oled_ssd130x.h ****     {
 251:../../libdaisy/src/dev/oled_ssd130x.h ****         for(size_t i = 0; i < sizeof(buffer_); i++)
 906              		.loc 6 251 29 view .LVU225
 252:../../libdaisy/src/dev/oled_ssd130x.h ****         {
 253:../../libdaisy/src/dev/oled_ssd130x.h ****             buffer_[i] = on ? 0xff : 0x00;
 907              		.loc 6 253 24 is_stmt 0 view .LVU226
 908 0008 4FF48062 		mov	r2, #1024
 909              	.LVL57:
 910              		.loc 6 253 24 view .LVU227
 911              	.LBE570:
 912              	.LBE569:
 913              	.LBE568:
ARM GAS  C:\Users\VINCIU~1\AppData\Local\Temp\ccYgfSqf.s 			page 41


 428:Menus.cpp     ****     screen.Fill(false);
 914              		.loc 2 428 1 view .LVU228
 915 000c 8BB0     		sub	sp, sp, #44
 916              		.cfi_def_cfa_offset 80
 917              	.LBB573:
 918              	.LBB572:
 919              	.LBB571:
 920              		.loc 6 253 24 view .LVU229
 921 000e 0021     		movs	r1, #0
 922              	.LVL58:
 923              		.loc 6 253 24 view .LVU230
 924 0010 04F11400 		add	r0, r4, #20
 925              	.LVL59:
 926              		.loc 6 253 24 view .LVU231
 927 0014 FFF7FEFF 		bl	memset
 928              	.LVL60:
 929              		.loc 6 253 24 view .LVU232
 930              	.LBE571:
 931              	.LBE572:
 932              	.LBE573:
 933              	.LBB574:
 430:Menus.cpp     ****     float margin = 10;
 431:Menus.cpp     ****     float glideInit;
 432:Menus.cpp     ****     float offset = (screen.Height() / 4);
 433:Menus.cpp     ****     glideInit    = (offset + (this->analogRead * screen.Height() * 0.625));
 434:Menus.cpp     ****     for(int i = 0; i < screen.Width(); i++)
 435:Menus.cpp     ****     {
 436:Menus.cpp     ****         screen.DrawPixel(i * 3, (screen.Height() / 2), on);
 934              		.loc 2 436 25 view .LVU233
 935 0018 96F8BC01 		ldrb	r0, [r6, #444]	@ zero_extendqisi2
 936 001c 2246     		mov	r2, r4
 937 001e 0023     		movs	r3, #0
 938              	.LVL61:
 939              	.L76:
 940              		.loc 2 436 9 is_stmt 1 discriminator 2 view .LVU234
 941              	.LBB575:
 942              	.LBI575:
 943              		.loc 1 41 10 discriminator 2 view .LVU235
 944              	.LBB576:
 945              	.LBI576:
 239:../../libdaisy/src/dev/oled_ssd130x.h ****     {
 946              		.loc 6 239 10 discriminator 2 view .LVU236
 947              	.LBB577:
 241:../../libdaisy/src/dev/oled_ssd130x.h ****             return;
 948              		.loc 6 241 9 is_stmt 0 discriminator 2 view .LVU237
 949 0020 7F2B     		cmp	r3, #127
 950 0022 0CD8     		bhi	.L72
 951              	.L155:
 952              	.LVL62:
 953              	.LBB578:
 954              	.LBI578:
 239:../../libdaisy/src/dev/oled_ssd130x.h ****     {
 955              		.loc 6 239 10 is_stmt 1 view .LVU238
 239:../../libdaisy/src/dev/oled_ssd130x.h ****     {
 956              		.loc 6 239 10 is_stmt 0 view .LVU239
 957              	.LBE578:
 244:../../libdaisy/src/dev/oled_ssd130x.h ****         else
ARM GAS  C:\Users\VINCIU~1\AppData\Local\Temp\ccYgfSqf.s 			page 42


 958              		.loc 6 244 42 view .LVU240
 959 0024 92F81412 		ldrb	r1, [r2, #532]	@ zero_extendqisi2
 243:../../libdaisy/src/dev/oled_ssd130x.h ****             buffer_[x + (y / 8) * width] |= (1 << (y % 8));
 960              		.loc 6 243 9 view .LVU241
 961 0028 0028     		cmp	r0, #0
 962 002a 00F0D780 		beq	.L73
 244:../../libdaisy/src/dev/oled_ssd130x.h ****         else
 963              		.loc 6 244 42 view .LVU242
 964 002e 41F00101 		orr	r1, r1, #1
 965 0032 82F81412 		strb	r1, [r2, #532]
 966              	.L74:
 967              	.LVL63:
 244:../../libdaisy/src/dev/oled_ssd130x.h ****         else
 968              		.loc 6 244 42 view .LVU243
 969              	.LBE577:
 970              	.LBE576:
 971              	.LBE575:
 434:Menus.cpp     ****     {
 972              		.loc 2 434 5 is_stmt 1 view .LVU244
 434:Menus.cpp     ****     {
 973              		.loc 2 434 22 view .LVU245
 974 0036 0333     		adds	r3, r3, #3
 975 0038 0332     		adds	r2, r2, #3
 976              		.loc 2 436 9 view .LVU246
 977              	.LVL64:
 978              	.LBB585:
 979              		.loc 1 41 10 view .LVU247
 980              	.LBB583:
 239:../../libdaisy/src/dev/oled_ssd130x.h ****     {
 981              		.loc 6 239 10 view .LVU248
 982              	.LBB581:
 241:../../libdaisy/src/dev/oled_ssd130x.h ****             return;
 983              		.loc 6 241 9 is_stmt 0 view .LVU249
 984 003a 7F2B     		cmp	r3, #127
 985 003c F2D9     		bls	.L155
 986              	.L72:
 987              	.LVL65:
 241:../../libdaisy/src/dev/oled_ssd130x.h ****             return;
 988              		.loc 6 241 9 view .LVU250
 989              	.LBE581:
 990              	.LBE583:
 991              	.LBE585:
 434:Menus.cpp     ****     {
 992              		.loc 2 434 5 is_stmt 1 view .LVU251
 434:Menus.cpp     ****     {
 993              		.loc 2 434 22 view .LVU252
 994 003e 0333     		adds	r3, r3, #3
 995 0040 0332     		adds	r2, r2, #3
 996 0042 B3F5C07F 		cmp	r3, #384
 997 0046 EBD1     		bne	.L76
 998              	.LBE574:
 437:Menus.cpp     ****     }
 438:Menus.cpp     ****     if(this->buttonLeft.RisingEdge())
 999              		.loc 2 438 5 view .LVU253
 1000              	.LVL66:
 1001              	.LBB587:
 1002              	.LBI587:
ARM GAS  C:\Users\VINCIU~1\AppData\Local\Temp\ccYgfSqf.s 			page 43


  41:../../libdaisy/src/hid/switch.h ****     ~Switch() {}
  42:../../libdaisy/src/hid/switch.h **** 
  43:../../libdaisy/src/hid/switch.h ****     /** 
  44:../../libdaisy/src/hid/switch.h ****     Initializes the switch object with a given port/pin combo.
  45:../../libdaisy/src/hid/switch.h ****     \param pin port/pin object to tell the switch which hardware pin to use.
  46:../../libdaisy/src/hid/switch.h ****     \param update_rate the rate at which the Debounce() function will be called. (used for timing).
  47:../../libdaisy/src/hid/switch.h ****     \param t switch type -- Default: TYPE_MOMENTARY
  48:../../libdaisy/src/hid/switch.h ****     \param pol switch polarity -- Default: POLARITY_INVERTED
  49:../../libdaisy/src/hid/switch.h ****     \param pu switch pull up/down -- Default: PULL_UP
  50:../../libdaisy/src/hid/switch.h ****     */
  51:../../libdaisy/src/hid/switch.h ****     void
  52:../../libdaisy/src/hid/switch.h ****     Init(dsy_gpio_pin pin, float update_rate, Type t, Polarity pol, Pull pu);
  53:../../libdaisy/src/hid/switch.h **** 
  54:../../libdaisy/src/hid/switch.h ****     /**
  55:../../libdaisy/src/hid/switch.h ****        Simplified Init.
  56:../../libdaisy/src/hid/switch.h ****        \param pin port/pin object to tell the switch which hardware pin to use.
  57:../../libdaisy/src/hid/switch.h ****        \param update_rate the rate at which the Debounce() function will be called. (used for timin
  58:../../libdaisy/src/hid/switch.h ****     */
  59:../../libdaisy/src/hid/switch.h ****     void Init(dsy_gpio_pin pin, float update_rate);
  60:../../libdaisy/src/hid/switch.h **** 
  61:../../libdaisy/src/hid/switch.h ****     /** 
  62:../../libdaisy/src/hid/switch.h ****     Called at update_rate to debounce and handle timing for the switch.
  63:../../libdaisy/src/hid/switch.h ****     In order for events not to be missed, its important that the Edge/Pressed checks
  64:../../libdaisy/src/hid/switch.h ****     be made at the same rate as the debounce function is being called.
  65:../../libdaisy/src/hid/switch.h ****     */
  66:../../libdaisy/src/hid/switch.h ****     void Debounce();
  67:../../libdaisy/src/hid/switch.h **** 
  68:../../libdaisy/src/hid/switch.h ****     /** \return true if a button was just pressed. */
  69:../../libdaisy/src/hid/switch.h ****     inline bool RisingEdge() const { return state_ == 0x7f; }
 1003              		.loc 4 69 17 view .LVU254
 1004              	.LBB588:
 1005              		.loc 4 69 38 view .LVU255
 1006              		.loc 4 69 38 is_stmt 0 view .LVU256
 1007              	.LBE588:
 1008              	.LBE587:
 1009              		.loc 2 438 5 view .LVU257
 1010 0048 96F85130 		ldrb	r3, [r6, #81]	@ zero_extendqisi2
 1011 004c 7F2B     		cmp	r3, #127
 439:Menus.cpp     **** 
 440:Menus.cpp     ****     {
 441:Menus.cpp     ****         this->menuStateGlide = this->menuStateGlide - 1;
 1012              		.loc 2 441 53 view .LVU258
 1013 004e 336F     		ldr	r3, [r6, #112]
 438:Menus.cpp     **** 
 1014              		.loc 2 438 5 view .LVU259
 1015 0050 00F07F81 		beq	.L156
 1016              	.L79:
 442:Menus.cpp     ****         if(this->menuStateGlide < 0)
 443:Menus.cpp     ****         {
 444:Menus.cpp     ****             this->menuStateGlide = 1;
 445:Menus.cpp     ****         }
 446:Menus.cpp     ****     }
 447:Menus.cpp     ****     if(this->buttonRight.RisingEdge())
 1017              		.loc 2 447 5 is_stmt 1 view .LVU260
 1018              	.LVL67:
 1019              	.LBB589:
 1020              	.LBI589:
ARM GAS  C:\Users\VINCIU~1\AppData\Local\Temp\ccYgfSqf.s 			page 44


 1021              		.loc 4 69 17 view .LVU261
 1022              	.LBB590:
 1023              		.loc 4 69 38 view .LVU262
 1024              		.loc 4 69 38 is_stmt 0 view .LVU263
 1025              	.LBE590:
 1026              	.LBE589:
 1027              		.loc 2 447 5 view .LVU264
 1028 0054 96F86120 		ldrb	r2, [r6, #97]	@ zero_extendqisi2
 1029 0058 7F2A     		cmp	r2, #127
 1030 005a 4ED0     		beq	.L157
 1031              	.L82:
 448:Menus.cpp     **** 
 449:Menus.cpp     ****     {
 450:Menus.cpp     ****         this->menuStateGlide = this->menuStateGlide + 1;
 451:Menus.cpp     ****         if(this->menuStateGlide > 1)
 452:Menus.cpp     ****         {
 453:Menus.cpp     ****             this->menuStateGlide = 0;
 454:Menus.cpp     ****         }
 455:Menus.cpp     ****     }
 456:Menus.cpp     ****     if(this->menuStateGlide == 0)
 1032              		.loc 2 456 5 is_stmt 1 view .LVU265
 1033              	.LBB592:
 1034 005c 002B     		cmp	r3, #0
 1035 005e 52D0     		beq	.L81
 457:Menus.cpp     ****     {
 458:Menus.cpp     ****         if(this->glideInit > 100)
 459:Menus.cpp     ****         {
 460:Menus.cpp     ****             this->glideInit = 100;
 461:Menus.cpp     ****         }
 462:Menus.cpp     ****         if(this->glideInit < -100)
 463:Menus.cpp     ****         {
 464:Menus.cpp     ****             this->glideInit = -100;
 465:Menus.cpp     ****         }
 466:Menus.cpp     **** 
 467:Menus.cpp     ****         int glideScale;
 468:Menus.cpp     ****         glideScale = screen.Height() - ((this->glideInit + 212) * 0.15);
 469:Menus.cpp     ****         this->glideInit += this->encoderRight.Increment();
 470:Menus.cpp     ****         circleGlidePosition = glideScale;
 471:Menus.cpp     **** 
 472:Menus.cpp     ****         sprintf(this->buffPitchGlide, "Init_%d%%", this->glideInit);
 473:Menus.cpp     **** 
 474:Menus.cpp     **** 
 475:Menus.cpp     ****         //(this->analogRead * 24) - 12;
 476:Menus.cpp     **** 
 477:Menus.cpp     ****         screen.DrawRect(0, 0, 66, 13, true, false);
 478:Menus.cpp     ****     }
 479:Menus.cpp     ****     else if(this->menuStateGlide == 1)
 1036              		.loc 2 479 10 view .LVU266
 1037 0060 012B     		cmp	r3, #1
 1038 0062 00F09681 		beq	.L80
 1039 0066 06F58E77 		add	r7, r6, #284
 1040              	.L101:
 1041              	.LBB593:
 472:Menus.cpp     **** 
 1042              		.loc 2 472 23 is_stmt 0 view .LVU267
 1043 006a 06F58275 		add	r5, r6, #260
 1044              	.L91:
ARM GAS  C:\Users\VINCIU~1\AppData\Local\Temp\ccYgfSqf.s 			page 45


 472:Menus.cpp     **** 
 1045              		.loc 2 472 23 view .LVU268
 1046              	.LBE593:
 1047              	.LBE592:
 480:Menus.cpp     ****     {
 481:Menus.cpp     ****         if(this->glideTime >= 100)
 482:Menus.cpp     ****         {
 483:Menus.cpp     ****             this->glideTime = 100;
 484:Menus.cpp     ****         }
 485:Menus.cpp     ****         if(this->glideTime <= 0)
 486:Menus.cpp     ****         {
 487:Menus.cpp     ****             this->glideTime = 0;
 488:Menus.cpp     ****         }
 489:Menus.cpp     ****         if(circleGlidePosition >= 100)
 490:Menus.cpp     ****         {
 491:Menus.cpp     ****             circleGlidePosition = 100;
 492:Menus.cpp     ****         }
 493:Menus.cpp     ****         if(circleGlidePosition <= 0)
 494:Menus.cpp     ****         {
 495:Menus.cpp     ****             circleGlidePosition = 0;
 496:Menus.cpp     ****         }
 497:Menus.cpp     ****         if(circleGlideTimePosition >= 100)
 498:Menus.cpp     ****         {
 499:Menus.cpp     ****             circleGlideTimePosition = 100;
 500:Menus.cpp     ****         }
 501:Menus.cpp     ****         if(circleGlideTimePosition <= 10)
 502:Menus.cpp     ****         {
 503:Menus.cpp     ****             circleGlideTimePosition = 10;
 504:Menus.cpp     ****         }
 505:Menus.cpp     ****         circleGlideTimePosition += this->encoderRight.Increment();
 506:Menus.cpp     ****         ;
 507:Menus.cpp     ****         this->glideTime += this->encoderRight.Increment();
 508:Menus.cpp     ****         sprintf(this->buffPitchTime, "Time_%d%%", (int)this->glideTime);
 509:Menus.cpp     ****         screen.DrawRect(67, 0, screen.Width() - 2, 13, true, false);
 510:Menus.cpp     ****     }
 511:Menus.cpp     **** 
 512:Menus.cpp     ****     screen.SetCursor(6, 4);
 1048              		.loc 2 512 5 is_stmt 1 view .LVU269
 1049              	.LVL68:
 1050              	.LBB702:
 1051              	.LBI702:
 131:../../libdaisy/src/hid/disp/display.h ****     {
 1052              		.loc 5 131 10 view .LVU270
 1053              	.LBB703:
 133:../../libdaisy/src/hid/disp/display.h ****         currentY_ = (y >= Height()) ? Height() - 1 : y;
 1054              		.loc 5 133 9 view .LVU271
 134:../../libdaisy/src/hid/disp/display.h ****     }
 1055              		.loc 5 134 9 view .LVU272
 1056              	.LBE703:
 1057              	.LBE702:
 513:Menus.cpp     ****     screen.WriteString(buffPitchGlide, Font_6x8, true);
 1058              		.loc 2 513 23 is_stmt 0 view .LVU273
 1059 006e 2946     		mov	r1, r5
 1060              	.LBB706:
 1061              	.LBB704:
 133:../../libdaisy/src/hid/disp/display.h ****         currentY_ = (y >= Height()) ? Height() - 1 : y;
 1062              		.loc 5 133 19 view .LVU274
ARM GAS  C:\Users\VINCIU~1\AppData\Local\Temp\ccYgfSqf.s 			page 46


 1063 0070 BD4B     		ldr	r3, .L161
 1064              	.LBE704:
 1065              	.LBE706:
 1066              		.loc 2 513 23 view .LVU275
 1067 0072 BE4D     		ldr	r5, .L161+4
 1068 0074 4FF00109 		mov	r9, #1
 1069              	.LBB707:
 1070              	.LBB705:
 133:../../libdaisy/src/hid/disp/display.h ****         currentY_ = (y >= Height()) ? Height() - 1 : y;
 1071              		.loc 5 133 19 view .LVU276
 1072 0078 6360     		str	r3, [r4, #4]
 1073              	.LVL69:
 133:../../libdaisy/src/hid/disp/display.h ****         currentY_ = (y >= Height()) ? Height() - 1 : y;
 1074              		.loc 5 133 19 view .LVU277
 1075              	.LBE705:
 1076              	.LBE707:
 1077              		.loc 2 513 5 is_stmt 1 view .LVU278
 1078              		.loc 2 513 23 is_stmt 0 view .LVU279
 1079 007a 2046     		mov	r0, r4
 1080 007c CDF80090 		str	r9, [sp]
 1081 0080 95E80C00 		ldm	r5, {r2, r3}
 1082 0084 FFF7FEFF 		bl	_ZN5daisy25OneBitGraphicsDisplayImplINS_11OledDisplayINS_13SSD130xDriverILj128ELj64ENS_24SSD130
 1083              	.LVL70:
 514:Menus.cpp     ****     screen.SetCursor(73, 4);
 1084              		.loc 2 514 5 is_stmt 1 view .LVU280
 1085              	.LBB708:
 1086              	.LBI708:
 131:../../libdaisy/src/hid/disp/display.h ****     {
 1087              		.loc 5 131 10 view .LVU281
 1088              	.LBB709:
 133:../../libdaisy/src/hid/disp/display.h ****         currentY_ = (y >= Height()) ? Height() - 1 : y;
 1089              		.loc 5 133 9 view .LVU282
 134:../../libdaisy/src/hid/disp/display.h ****     }
 1090              		.loc 5 134 9 view .LVU283
 133:../../libdaisy/src/hid/disp/display.h ****         currentY_ = (y >= Height()) ? Height() - 1 : y;
 1091              		.loc 5 133 19 is_stmt 0 view .LVU284
 1092 0088 B94B     		ldr	r3, .L161+8
 1093              	.LBE709:
 1094              	.LBE708:
 515:Menus.cpp     ****     screen.WriteString(buffPitchTime, Font_6x8, true);
 1095              		.loc 2 515 23 view .LVU285
 1096 008a CDF80090 		str	r9, [sp]
 1097 008e 3946     		mov	r1, r7
 1098              	.LBB711:
 1099              	.LBB710:
 133:../../libdaisy/src/hid/disp/display.h ****         currentY_ = (y >= Height()) ? Height() - 1 : y;
 1100              		.loc 5 133 19 view .LVU286
 1101 0090 6360     		str	r3, [r4, #4]
 1102              	.LVL71:
 133:../../libdaisy/src/hid/disp/display.h ****         currentY_ = (y >= Height()) ? Height() - 1 : y;
 1103              		.loc 5 133 19 view .LVU287
 1104              	.LBE710:
 1105              	.LBE711:
 1106              		.loc 2 515 5 is_stmt 1 view .LVU288
 1107              		.loc 2 515 23 is_stmt 0 view .LVU289
 1108 0092 2046     		mov	r0, r4
 1109 0094 95E80C00 		ldm	r5, {r2, r3}
ARM GAS  C:\Users\VINCIU~1\AppData\Local\Temp\ccYgfSqf.s 			page 47


 1110 0098 FFF7FEFF 		bl	_ZN5daisy25OneBitGraphicsDisplayImplINS_11OledDisplayINS_13SSD130xDriverILj128ELj64ENS_24SSD130
 1111              	.LVL72:
 516:Menus.cpp     ****     screen.DrawLine(margin,
 1112              		.loc 2 516 5 is_stmt 1 view .LVU290
 1113              		.loc 2 516 20 is_stmt 0 view .LVU291
 1114 009c 96ED227A 		vldr.32	s14, [r6, #136]
 1115 00a0 D6ED237A 		vldr.32	s15, [r6, #140]
 1116 00a4 BCEEC77A 		vcvt.u32.f32	s14, s14
 1117 00a8 FCEEE77A 		vcvt.u32.f32	s15, s15
 1118              	.LBB712:
 1119              	.LBB713:
 188:../../libdaisy/src/hid/disp/display.h ****         int_fast16_t signX  = ((x1 < x2) ? 1 : -1);
 1120              		.loc 5 188 52 view .LVU292
 1121 00ac 17EE103A 		vmov	r3, s14	@ int
 1122              	.LBE713:
 1123              	.LBE712:
 1124              		.loc 2 516 20 view .LVU293
 1125 00b0 8DED057A 		vstr.32	s14, [sp, #20]	@ int
 1126 00b4 17EE908A 		vmov	r8, s15	@ int
 1127              	.LVL73:
 1128              	.LBB753:
 1129              	.LBI712:
 181:../../libdaisy/src/hid/disp/display.h ****                   uint_fast8_t y1,
 1130              		.loc 5 181 10 is_stmt 1 view .LVU294
 1131              	.LBB748:
 188:../../libdaisy/src/hid/disp/display.h ****         int_fast16_t signX  = ((x1 < x2) ? 1 : -1);
 1132              		.loc 5 188 52 is_stmt 0 view .LVU295
 1133 00b8 C3F1200A 		rsb	r10, r3, #32
 187:../../libdaisy/src/hid/disp/display.h ****         int_fast16_t deltaY = abs((int_fast16_t)y2 - (int_fast16_t)y1);
 1134              		.loc 5 187 52 view .LVU296
 1135 00bc A8F10A07 		sub	r7, r8, #10
 188:../../libdaisy/src/hid/disp/display.h ****         int_fast16_t signX  = ((x1 < x2) ? 1 : -1);
 1136              		.loc 5 188 22 view .LVU297
 1137 00c0 BAF1000F 		cmp	r10, #0
 1138 00c4 B8BF     		it	lt
 1139 00c6 CAF1000A 		rsblt	r10, r10, #0
 187:../../libdaisy/src/hid/disp/display.h ****         int_fast16_t deltaY = abs((int_fast16_t)y2 - (int_fast16_t)y1);
 1140              		.loc 5 187 22 view .LVU298
 1141 00ca 002F     		cmp	r7, #0
 1142 00cc B8BF     		it	lt
 1143 00ce 7F42     		rsblt	r7, r7, #0
 1144              	.LVL74:
 189:../../libdaisy/src/hid/disp/display.h ****         int_fast16_t signY  = ((y1 < y2) ? 1 : -1);
 1145              		.loc 5 189 42 view .LVU299
 1146 00d0 B8F10A0F 		cmp	r8, #10
 1147 00d4 40F22F81 		bls	.L103
 1148              	.LVL75:
 190:../../libdaisy/src/hid/disp/display.h ****         int_fast16_t error  = deltaX - deltaY;
 1149              		.loc 5 190 42 view .LVU300
 1150 00d8 1F2B     		cmp	r3, #31
 191:../../libdaisy/src/hid/disp/display.h ****         int_fast16_t error2;
 1151              		.loc 5 191 22 view .LVU301
 1152 00da A7EB0A01 		sub	r1, r7, r10
 1153              	.LVL76:
 1154              	.LBB714:
 1155              	.LBI714:
 1156              		.loc 1 41 10 is_stmt 1 view .LVU302
ARM GAS  C:\Users\VINCIU~1\AppData\Local\Temp\ccYgfSqf.s 			page 48


 1157              	.LBB715:
  42:../../libdaisy/src/hid/disp/oled_display.h ****     {
  43:../../libdaisy/src/hid/disp/oled_display.h ****         driver_.DrawPixel(x, y, on);
 1158              		.loc 1 43 26 is_stmt 0 view .LVU303
 1159 00de 04F10805 		add	r5, r4, #8
 1160              	.LBE715:
 1161              	.LBE714:
 190:../../libdaisy/src/hid/disp/display.h ****         int_fast16_t error  = deltaX - deltaY;
 1162              		.loc 5 190 42 view .LVU304
 1163 00e2 40F23A81 		bls	.L104
 1164              	.LVL77:
 1165              	.LBB735:
 1166              	.LBB728:
 1167              	.LBB716:
 1168              	.LBI716:
 239:../../libdaisy/src/dev/oled_ssd130x.h ****     {
 1169              		.loc 6 239 10 is_stmt 1 view .LVU305
 1170              	.LBB717:
 241:../../libdaisy/src/dev/oled_ssd130x.h ****             return;
 1171              		.loc 6 241 9 is_stmt 0 view .LVU306
 1172 00e6 B8F17F0F 		cmp	r8, #127
 1173              	.LBE717:
 1174              	.LBE716:
 1175              	.LBE728:
 1176              	.LBE735:
 189:../../libdaisy/src/hid/disp/display.h ****         int_fast16_t signY  = ((y1 < y2) ? 1 : -1);
 1177              		.loc 5 189 42 view .LVU307
 1178 00ea CDF81C90 		str	r9, [sp, #28]
 1179              	.LBB736:
 1180              	.LBB729:
 1181              	.LBB722:
 1182              	.LBB718:
 241:../../libdaisy/src/dev/oled_ssd130x.h ****             return;
 1183              		.loc 6 241 9 view .LVU308
 1184 00ee 40F28580 		bls	.L118
 1185              	.LBE718:
 1186              	.LBE722:
 1187              	.LBE729:
 1188              	.LBE736:
 190:../../libdaisy/src/hid/disp/display.h ****         int_fast16_t error  = deltaX - deltaY;
 1189              		.loc 5 190 42 view .LVU309
 1190 00f2 4FF0FF33 		mov	r3, #-1
 1191              	.LVL78:
 190:../../libdaisy/src/hid/disp/display.h ****         int_fast16_t error  = deltaX - deltaY;
 1192              		.loc 5 190 42 view .LVU310
 1193 00f6 0693     		str	r3, [sp, #24]
 1194 00f8 90E0     		b	.L105
 1195              	.LVL79:
 1196              	.L157:
 190:../../libdaisy/src/hid/disp/display.h ****         int_fast16_t error  = deltaX - deltaY;
 1197              		.loc 5 190 42 view .LVU311
 1198              	.LBE748:
 1199              	.LBE753:
 450:Menus.cpp     ****         if(this->menuStateGlide > 1)
 1200              		.loc 2 450 9 is_stmt 1 view .LVU312
 450:Menus.cpp     ****         if(this->menuStateGlide > 1)
 1201              		.loc 2 450 53 is_stmt 0 view .LVU313
ARM GAS  C:\Users\VINCIU~1\AppData\Local\Temp\ccYgfSqf.s 			page 49


 1202 00fa 0133     		adds	r3, r3, #1
 451:Menus.cpp     ****         {
 1203              		.loc 2 451 9 view .LVU314
 1204 00fc 012B     		cmp	r3, #1
 450:Menus.cpp     ****         if(this->menuStateGlide > 1)
 1205              		.loc 2 450 30 view .LVU315
 1206 00fe 3367     		str	r3, [r6, #112]
 451:Menus.cpp     ****         {
 1207              		.loc 2 451 9 is_stmt 1 view .LVU316
 1208 0100 ACDD     		ble	.L82
 1209              	.L83:
 453:Menus.cpp     ****         }
 1210              		.loc 2 453 13 view .LVU317
 453:Menus.cpp     ****         }
 1211              		.loc 2 453 34 is_stmt 0 view .LVU318
 1212 0102 0023     		movs	r3, #0
 1213 0104 3367     		str	r3, [r6, #112]
 456:Menus.cpp     ****     {
 1214              		.loc 2 456 5 is_stmt 1 view .LVU319
 1215              	.L81:
 1216              	.LBB754:
 1217              	.LBB649:
 458:Menus.cpp     ****         {
 1218              		.loc 2 458 9 view .LVU320
 458:Menus.cpp     ****         {
 1219              		.loc 2 458 18 is_stmt 0 view .LVU321
 1220 0106 D6F89030 		ldr	r3, [r6, #144]
 458:Menus.cpp     ****         {
 1221              		.loc 2 458 9 view .LVU322
 1222 010a 642B     		cmp	r3, #100
 1223 010c 6BDC     		bgt	.L119
 462:Menus.cpp     ****         {
 1224              		.loc 2 462 9 is_stmt 1 view .LVU323
 1225 010e 13F1640F 		cmn	r3, #100
 1226 0112 80F2E181 		bge	.L158
 1227 0116 DFED977A 		vldr.32	s15, .L161+12
 1228 011a 6FF06303 		mvn	r3, #99
 1229              	.L85:
 467:Menus.cpp     ****         glideScale = screen.Height() - ((this->glideInit + 212) * 0.15);
 1230              		.loc 2 467 9 view .LVU324
 468:Menus.cpp     ****         this->glideInit += this->encoderRight.Increment();
 1231              		.loc 2 468 9 view .LVU325
 1232              	.LVL80:
 469:Menus.cpp     ****         circleGlidePosition = glideScale;
 1233              		.loc 2 469 9 view .LVU326
 1234              	.LBB594:
 1235              	.LBI594:
 1236              		.loc 3 41 20 view .LVU327
 1237              	.LBB595:
 1238              		.loc 3 41 40 view .LVU328
 1239              		.loc 3 41 40 is_stmt 0 view .LVU329
 1240              	.LBE595:
 1241              	.LBE594:
 469:Menus.cpp     ****         circleGlidePosition = glideScale;
 1242              		.loc 2 469 25 view .LVU330
 1243 011e B26C     		ldr	r2, [r6, #72]
 472:Menus.cpp     **** 
ARM GAS  C:\Users\VINCIU~1\AppData\Local\Temp\ccYgfSqf.s 			page 50


 1244              		.loc 2 472 23 view .LVU331
 1245 0120 06F58275 		add	r5, r6, #260
 472:Menus.cpp     **** 
 1246              		.loc 2 472 16 view .LVU332
 1247 0124 9449     		ldr	r1, .L161+16
 469:Menus.cpp     ****         circleGlidePosition = glideScale;
 1248              		.loc 2 469 25 view .LVU333
 1249 0126 1A44     		add	r2, r2, r3
 472:Menus.cpp     **** 
 1250              		.loc 2 472 16 view .LVU334
 1251 0128 2846     		mov	r0, r5
 470:Menus.cpp     **** 
 1252              		.loc 2 470 29 view .LVU335
 1253 012a C6ED227A 		vstr.32	s15, [r6, #136]
 469:Menus.cpp     ****         circleGlidePosition = glideScale;
 1254              		.loc 2 469 25 view .LVU336
 1255 012e C6F89020 		str	r2, [r6, #144]
 1256              	.LVL81:
 470:Menus.cpp     **** 
 1257              		.loc 2 470 9 is_stmt 1 view .LVU337
 472:Menus.cpp     **** 
 1258              		.loc 2 472 9 view .LVU338
 472:Menus.cpp     **** 
 1259              		.loc 2 472 16 is_stmt 0 view .LVU339
 1260 0132 FFF7FEFF 		bl	sprintf
 1261              	.LVL82:
 477:Menus.cpp     ****     }
 1262              		.loc 2 477 9 is_stmt 1 view .LVU340
 1263              	.LBB596:
 1264              	.LBI596:
 217:../../libdaisy/src/hid/disp/display.h ****                   uint_fast8_t y1,
 1265              		.loc 5 217 10 view .LVU341
 1266              	.LBB597:
 1267              	.LBI597:
 181:../../libdaisy/src/hid/disp/display.h ****                   uint_fast8_t y1,
 1268              		.loc 5 181 10 view .LVU342
 1269              	.LBB598:
 1270              	.LBB599:
 1271              	.LBI599:
  41:../../libdaisy/src/hid/disp/oled_display.h ****     {
 1272              		.loc 1 41 10 view .LVU343
 1273              	.LBB600:
 1274              	.LBI600:
 239:../../libdaisy/src/dev/oled_ssd130x.h ****     {
 1275              		.loc 6 239 10 view .LVU344
 1276              	.LBB601:
 244:../../libdaisy/src/dev/oled_ssd130x.h ****         else
 1277              		.loc 6 244 42 is_stmt 0 view .LVU345
 1278 0136 94F85620 		ldrb	r2, [r4, #86]	@ zero_extendqisi2
 1279 013a 04F11303 		add	r3, r4, #19
 1280 013e 04F15501 		add	r1, r4, #85
 1281 0142 42F00102 		orr	r2, r2, #1
 1282 0146 84F85620 		strb	r2, [r4, #86]
 1283              	.LVL83:
 244:../../libdaisy/src/dev/oled_ssd130x.h ****         else
 1284              		.loc 6 244 42 view .LVU346
 1285              	.LBE601:
ARM GAS  C:\Users\VINCIU~1\AppData\Local\Temp\ccYgfSqf.s 			page 51


 1286              	.LBE600:
 1287              	.LBE599:
 199:../../libdaisy/src/hid/disp/display.h ****         {
 1288              		.loc 5 199 26 is_stmt 1 view .LVU347
 1289              	.L86:
 1290              	.LBB602:
 1291              	.LBI602:
  41:../../libdaisy/src/hid/disp/oled_display.h ****     {
 1292              		.loc 1 41 10 view .LVU348
 1293              	.LBB603:
 1294              	.LBI603:
 239:../../libdaisy/src/dev/oled_ssd130x.h ****     {
 1295              		.loc 6 239 10 view .LVU349
 1296              	.LBB604:
 244:../../libdaisy/src/dev/oled_ssd130x.h ****         else
 1297              		.loc 6 244 42 is_stmt 0 view .LVU350
 1298 014a 13F8012F 		ldrb	r2, [r3, #1]!	@ zero_extendqisi2
 244:../../libdaisy/src/dev/oled_ssd130x.h ****         else
 1299              		.loc 6 244 42 view .LVU351
 1300 014e 42F00102 		orr	r2, r2, #1
 1301              	.LBE604:
 1302              	.LBE603:
 1303              	.LBE602:
 199:../../libdaisy/src/hid/disp/display.h ****         {
 1304              		.loc 5 199 26 view .LVU352
 1305 0152 9942     		cmp	r1, r3
 1306              	.LBB607:
 1307              	.LBB606:
 1308              	.LBB605:
 244:../../libdaisy/src/dev/oled_ssd130x.h ****         else
 1309              		.loc 6 244 42 view .LVU353
 1310 0154 1A70     		strb	r2, [r3]
 1311              	.LVL84:
 244:../../libdaisy/src/dev/oled_ssd130x.h ****         else
 1312              		.loc 6 244 42 view .LVU354
 1313              	.LBE605:
 1314              	.LBE606:
 1315              	.LBE607:
 199:../../libdaisy/src/hid/disp/display.h ****         {
 1316              		.loc 5 199 26 is_stmt 1 view .LVU355
 1317 0156 F8D1     		bne	.L86
 1318              	.LVL85:
 199:../../libdaisy/src/hid/disp/display.h ****         {
 1319              		.loc 5 199 26 is_stmt 0 view .LVU356
 1320              	.LBE598:
 1321              	.LBE597:
 1322              	.LBB608:
 1323              	.LBI608:
 181:../../libdaisy/src/hid/disp/display.h ****                   uint_fast8_t y1,
 1324              		.loc 5 181 10 is_stmt 1 view .LVU357
 1325              	.LBB609:
 1326              	.LBB610:
 1327              	.LBI610:
  41:../../libdaisy/src/hid/disp/oled_display.h ****     {
 1328              		.loc 1 41 10 view .LVU358
 1329              	.LBB611:
 1330              	.LBI611:
ARM GAS  C:\Users\VINCIU~1\AppData\Local\Temp\ccYgfSqf.s 			page 52


 239:../../libdaisy/src/dev/oled_ssd130x.h ****     {
 1331              		.loc 6 239 10 view .LVU359
 1332              	.LBB612:
 244:../../libdaisy/src/dev/oled_ssd130x.h ****         else
 1333              		.loc 6 244 42 is_stmt 0 view .LVU360
 1334 0158 94F8D620 		ldrb	r2, [r4, #214]	@ zero_extendqisi2
 1335 015c 0023     		movs	r3, #0
 1336 015e 42F02002 		orr	r2, r2, #32
 1337 0162 84F8D620 		strb	r2, [r4, #214]
 1338              	.LVL86:
 244:../../libdaisy/src/dev/oled_ssd130x.h ****         else
 1339              		.loc 6 244 42 view .LVU361
 1340              	.LBE612:
 1341              	.LBE611:
 1342              	.LBE610:
 199:../../libdaisy/src/hid/disp/display.h ****         {
 1343              		.loc 5 199 26 is_stmt 1 view .LVU362
 1344              	.L87:
 1345              	.LBB613:
 1346              	.LBI613:
  41:../../libdaisy/src/hid/disp/oled_display.h ****     {
 1347              		.loc 1 41 10 view .LVU363
 1348              	.LBB614:
 1349              	.LBI614:
 239:../../libdaisy/src/dev/oled_ssd130x.h ****     {
 1350              		.loc 6 239 10 view .LVU364
 1351              	.LBB615:
 244:../../libdaisy/src/dev/oled_ssd130x.h ****         else
 1352              		.loc 6 244 28 is_stmt 0 view .LVU365
 1353 0166 D908     		lsrs	r1, r3, #3
 244:../../libdaisy/src/dev/oled_ssd130x.h ****         else
 1354              		.loc 6 244 54 view .LVU366
 1355 0168 03F00700 		and	r0, r3, #7
 244:../../libdaisy/src/dev/oled_ssd130x.h ****         else
 1356              		.loc 6 244 48 view .LVU367
 1357 016c 0122     		movs	r2, #1
 244:../../libdaisy/src/dev/oled_ssd130x.h ****         else
 1358              		.loc 6 244 42 view .LVU368
 1359 016e 04EBC111 		add	r1, r4, r1, lsl #7
 1360              	.LBE615:
 1361              	.LBE614:
 1362              	.LBE613:
 212:../../libdaisy/src/hid/disp/display.h ****             }
 1363              		.loc 5 212 20 view .LVU369
 1364 0172 1344     		add	r3, r3, r2
 1365              	.LVL87:
 1366              	.LBB620:
 1367              	.LBB618:
 1368              	.LBB616:
 244:../../libdaisy/src/dev/oled_ssd130x.h ****         else
 1369              		.loc 6 244 48 view .LVU370
 1370 0174 8240     		lsls	r2, r2, r0
 244:../../libdaisy/src/dev/oled_ssd130x.h ****         else
 1371              		.loc 6 244 42 view .LVU371
 1372 0176 91F85600 		ldrb	r0, [r1, #86]	@ zero_extendqisi2
 1373              	.LBE616:
 1374              	.LBE618:
ARM GAS  C:\Users\VINCIU~1\AppData\Local\Temp\ccYgfSqf.s 			page 53


 1375              	.LBE620:
 199:../../libdaisy/src/hid/disp/display.h ****         {
 1376              		.loc 5 199 26 view .LVU372
 1377 017a 0D2B     		cmp	r3, #13
 1378              	.LBB621:
 1379              	.LBB619:
 1380              	.LBB617:
 244:../../libdaisy/src/dev/oled_ssd130x.h ****         else
 1381              		.loc 6 244 42 view .LVU373
 1382 017c 42EA0002 		orr	r2, r2, r0
 1383 0180 81F85620 		strb	r2, [r1, #86]
 1384              	.LVL88:
 244:../../libdaisy/src/dev/oled_ssd130x.h ****         else
 1385              		.loc 6 244 42 view .LVU374
 1386              	.LBE617:
 1387              	.LBE619:
 1388              	.LBE621:
 199:../../libdaisy/src/hid/disp/display.h ****         {
 1389              		.loc 5 199 26 is_stmt 1 view .LVU375
 1390 0184 EFD1     		bne	.L87
 1391              	.LVL89:
 199:../../libdaisy/src/hid/disp/display.h ****         {
 1392              		.loc 5 199 26 is_stmt 0 view .LVU376
 1393              	.LBE609:
 1394              	.LBE608:
 1395              	.LBB622:
 1396              	.LBI622:
 181:../../libdaisy/src/hid/disp/display.h ****                   uint_fast8_t y1,
 1397              		.loc 5 181 10 is_stmt 1 view .LVU377
 1398              	.LBB623:
 1399              	.LBB624:
 1400              	.LBI624:
  41:../../libdaisy/src/hid/disp/oled_display.h ****     {
 1401              		.loc 1 41 10 view .LVU378
 1402              	.LBB625:
 1403              	.LBI625:
 239:../../libdaisy/src/dev/oled_ssd130x.h ****     {
 1404              		.loc 6 239 10 view .LVU379
 1405              	.LBB626:
 244:../../libdaisy/src/dev/oled_ssd130x.h ****         else
 1406              		.loc 6 244 42 is_stmt 0 view .LVU380
 1407 0186 94F89420 		ldrb	r2, [r4, #148]	@ zero_extendqisi2
 1408 018a 04F1D701 		add	r1, r4, #215
 1409 018e 04F19507 		add	r7, r4, #149
 1410 0192 42F02002 		orr	r2, r2, #32
 1411 0196 84F89420 		strb	r2, [r4, #148]
 1412              	.LVL90:
 244:../../libdaisy/src/dev/oled_ssd130x.h ****         else
 1413              		.loc 6 244 42 view .LVU381
 1414              	.LBE626:
 1415              	.LBE625:
 1416              	.LBE624:
 199:../../libdaisy/src/hid/disp/display.h ****         {
 1417              		.loc 5 199 26 is_stmt 1 view .LVU382
 1418              	.L88:
 1419              	.LBB627:
 1420              	.LBI627:
ARM GAS  C:\Users\VINCIU~1\AppData\Local\Temp\ccYgfSqf.s 			page 54


  41:../../libdaisy/src/hid/disp/oled_display.h ****     {
 1421              		.loc 1 41 10 view .LVU383
 1422              	.LBB628:
 1423              	.LBI628:
 239:../../libdaisy/src/dev/oled_ssd130x.h ****     {
 1424              		.loc 6 239 10 view .LVU384
 1425              	.LBB629:
 244:../../libdaisy/src/dev/oled_ssd130x.h ****         else
 1426              		.loc 6 244 42 is_stmt 0 view .LVU385
 1427 019a 11F8010D 		ldrb	r0, [r1, #-1]!	@ zero_extendqisi2
 244:../../libdaisy/src/dev/oled_ssd130x.h ****         else
 1428              		.loc 6 244 42 view .LVU386
 1429 019e 40F02000 		orr	r0, r0, #32
 1430              	.LBE629:
 1431              	.LBE628:
 1432              	.LBE627:
 199:../../libdaisy/src/hid/disp/display.h ****         {
 1433              		.loc 5 199 26 view .LVU387
 1434 01a2 8F42     		cmp	r7, r1
 1435              	.LBB632:
 1436              	.LBB631:
 1437              	.LBB630:
 244:../../libdaisy/src/dev/oled_ssd130x.h ****         else
 1438              		.loc 6 244 42 view .LVU388
 1439 01a4 0870     		strb	r0, [r1]
 1440              	.LVL91:
 244:../../libdaisy/src/dev/oled_ssd130x.h ****         else
 1441              		.loc 6 244 42 view .LVU389
 1442              	.LBE630:
 1443              	.LBE631:
 1444              	.LBE632:
 199:../../libdaisy/src/hid/disp/display.h ****         {
 1445              		.loc 5 199 26 is_stmt 1 view .LVU390
 1446 01a6 F8D1     		bne	.L88
 1447              	.LVL92:
 199:../../libdaisy/src/hid/disp/display.h ****         {
 1448              		.loc 5 199 26 is_stmt 0 view .LVU391
 1449              	.LBE623:
 1450              	.LBE622:
 1451              	.LBB633:
 1452              	.LBI633:
 181:../../libdaisy/src/hid/disp/display.h ****                   uint_fast8_t y1,
 1453              		.loc 5 181 10 is_stmt 1 view .LVU392
 1454              	.LBB634:
 1455              	.LBB635:
 1456              	.LBI635:
  41:../../libdaisy/src/hid/disp/oled_display.h ****     {
 1457              		.loc 1 41 10 view .LVU393
 1458              	.LBB636:
 1459              	.LBI636:
 239:../../libdaisy/src/dev/oled_ssd130x.h ****     {
 1460              		.loc 6 239 10 view .LVU394
 1461              	.LBB637:
 244:../../libdaisy/src/dev/oled_ssd130x.h ****         else
 1462              		.loc 6 244 42 is_stmt 0 view .LVU395
 1463 01a8 217D     		ldrb	r1, [r4, #20]	@ zero_extendqisi2
 1464 01aa 0120     		movs	r0, #1
ARM GAS  C:\Users\VINCIU~1\AppData\Local\Temp\ccYgfSqf.s 			page 55


 1465 01ac 41F00101 		orr	r1, r1, #1
 1466 01b0 2175     		strb	r1, [r4, #20]
 1467              	.LVL93:
 244:../../libdaisy/src/dev/oled_ssd130x.h ****         else
 1468              		.loc 6 244 42 view .LVU396
 1469              	.LBE637:
 1470              	.LBE636:
 1471              	.LBE635:
 199:../../libdaisy/src/hid/disp/display.h ****         {
 1472              		.loc 5 199 26 is_stmt 1 view .LVU397
 1473 01b2 02E0     		b	.L90
 1474              	.LVL94:
 1475              	.L159:
 1476              	.LBB638:
 1477              	.LBB639:
 1478              	.LBB640:
 244:../../libdaisy/src/dev/oled_ssd130x.h ****         else
 1479              		.loc 6 244 42 is_stmt 0 view .LVU398
 1480 01b4 04EBC012 		add	r2, r4, r0, lsl #7
 1481 01b8 127D     		ldrb	r2, [r2, #20]	@ zero_extendqisi2
 1482              	.LVL95:
 1483              	.L90:
 244:../../libdaisy/src/dev/oled_ssd130x.h ****         else
 1484              		.loc 6 244 42 view .LVU399
 1485              	.LBE640:
 1486              	.LBE639:
 1487              	.LBI638:
  41:../../libdaisy/src/hid/disp/oled_display.h ****     {
 1488              		.loc 1 41 10 is_stmt 1 view .LVU400
 1489              	.LBB644:
 1490              	.LBI639:
 239:../../libdaisy/src/dev/oled_ssd130x.h ****     {
 1491              		.loc 6 239 10 view .LVU401
 1492              	.LBB641:
 244:../../libdaisy/src/dev/oled_ssd130x.h ****         else
 1493              		.loc 6 244 54 is_stmt 0 view .LVU402
 1494 01ba 03F00707 		and	r7, r3, #7
 244:../../libdaisy/src/dev/oled_ssd130x.h ****         else
 1495              		.loc 6 244 48 view .LVU403
 1496 01be 0121     		movs	r1, #1
 244:../../libdaisy/src/dev/oled_ssd130x.h ****         else
 1497              		.loc 6 244 42 view .LVU404
 1498 01c0 04EBC010 		add	r0, r4, r0, lsl #7
 1499              	.LBE641:
 1500              	.LBE644:
 1501              	.LBE638:
 199:../../libdaisy/src/hid/disp/display.h ****         {
 1502              		.loc 5 199 26 view .LVU405
 1503 01c4 013B     		subs	r3, r3, #1
 1504              	.LVL96:
 1505              	.LBB647:
 1506              	.LBB645:
 1507              	.LBB642:
 244:../../libdaisy/src/dev/oled_ssd130x.h ****         else
 1508              		.loc 6 244 48 view .LVU406
 1509 01c6 01FA07F1 		lsl	r1, r1, r7
 244:../../libdaisy/src/dev/oled_ssd130x.h ****         else
ARM GAS  C:\Users\VINCIU~1\AppData\Local\Temp\ccYgfSqf.s 			page 56


 1510              		.loc 6 244 42 view .LVU407
 1511 01ca 42EA0102 		orr	r2, r2, r1
 1512 01ce 0275     		strb	r2, [r0, #20]
 1513              	.LVL97:
 244:../../libdaisy/src/dev/oled_ssd130x.h ****         else
 1514              		.loc 6 244 42 view .LVU408
 1515              	.LBE642:
 1516              	.LBE645:
 1517              	.LBE647:
 199:../../libdaisy/src/hid/disp/display.h ****         {
 1518              		.loc 5 199 26 is_stmt 1 view .LVU409
 1519              	.LBB648:
 1520              	.LBB646:
 1521              	.LBB643:
 244:../../libdaisy/src/dev/oled_ssd130x.h ****         else
 1522              		.loc 6 244 28 is_stmt 0 view .LVU410
 1523 01d0 4FEAD300 		lsr	r0, r3, #3
 1524              	.LBE643:
 1525              	.LBE646:
 1526              	.LBE648:
 199:../../libdaisy/src/hid/disp/display.h ****         {
 1527              		.loc 5 199 26 view .LVU411
 1528 01d4 EED1     		bne	.L159
 1529              	.LBE634:
 1530              	.LBE633:
 1531              	.LBE596:
 1532              	.LBE649:
 508:Menus.cpp     ****         screen.DrawRect(67, 0, screen.Width() - 2, 13, true, false);
 1533              		.loc 2 508 23 view .LVU412
 1534 01d6 06F58E77 		add	r7, r6, #284
 1535 01da 48E7     		b	.L91
 1536              	.LVL98:
 1537              	.L73:
 508:Menus.cpp     ****         screen.DrawRect(67, 0, screen.Width() - 2, 13, true, false);
 1538              		.loc 2 508 23 view .LVU413
 1539              	.LBE754:
 1540              	.LBB755:
 1541              	.LBB586:
 1542              	.LBB584:
 1543              	.LBB582:
 1544              	.LBB580:
 1545              	.LBB579:
 246:../../libdaisy/src/dev/oled_ssd130x.h ****     }
 1546              		.loc 6 246 42 view .LVU414
 1547 01dc 21F00101 		bic	r1, r1, #1
 1548 01e0 82F81412 		strb	r1, [r2, #532]
 1549 01e4 27E7     		b	.L74
 1550              	.LVL99:
 1551              	.L119:
 246:../../libdaisy/src/dev/oled_ssd130x.h ****     }
 1552              		.loc 6 246 42 view .LVU415
 1553              	.LBE579:
 1554              	.LBE580:
 1555              	.LBE582:
 1556              	.LBE584:
 1557              	.LBE586:
 1558              	.LBE755:
ARM GAS  C:\Users\VINCIU~1\AppData\Local\Temp\ccYgfSqf.s 			page 57


 1559              	.LBB756:
 1560              	.LBB650:
 1561 01e6 F3EE017A 		vmov.f32	s15, #1.7e+1
 1562 01ea 6423     		movs	r3, #100
 1563 01ec 97E7     		b	.L85
 1564              	.LVL100:
 1565              	.L160:
 246:../../libdaisy/src/dev/oled_ssd130x.h ****     }
 1566              		.loc 6 246 42 view .LVU416
 1567              	.LBE650:
 1568              	.LBE756:
 1569              	.LBB757:
 1570              	.LBB749:
 189:../../libdaisy/src/hid/disp/display.h ****         int_fast16_t signY  = ((y1 < y2) ? 1 : -1);
 1571              		.loc 5 189 42 view .LVU417
 1572 01ee 4FF0FF33 		mov	r3, #-1
 191:../../libdaisy/src/hid/disp/display.h ****         int_fast16_t error2;
 1573              		.loc 5 191 22 view .LVU418
 1574 01f2 A7EB0A01 		sub	r1, r7, r10
 1575              	.LVL101:
 1576              	.LBB737:
  41:../../libdaisy/src/hid/disp/oled_display.h ****     {
 1577              		.loc 1 41 10 is_stmt 1 view .LVU419
 1578              	.LBB730:
 1579              		.loc 1 43 26 is_stmt 0 view .LVU420
 1580 01f6 04F10805 		add	r5, r4, #8
 1581              	.LVL102:
 1582              	.LBB723:
 239:../../libdaisy/src/dev/oled_ssd130x.h ****     {
 1583              		.loc 6 239 10 is_stmt 1 view .LVU421
 1584              	.LBE723:
 1585              	.LBE730:
 1586              	.LBE737:
 189:../../libdaisy/src/hid/disp/display.h ****         int_fast16_t signY  = ((y1 < y2) ? 1 : -1);
 1587              		.loc 5 189 42 is_stmt 0 view .LVU422
 1588 01fa 0793     		str	r3, [sp, #28]
 1589              	.LVL103:
 1590              	.L118:
 190:../../libdaisy/src/hid/disp/display.h ****         int_fast16_t error  = deltaX - deltaY;
 1591              		.loc 5 190 42 view .LVU423
 1592 01fc 4FF0FF33 		mov	r3, #-1
 1593 0200 0693     		str	r3, [sp, #24]
 1594              	.LVL104:
 1595              	.L114:
 1596              	.LBB738:
 1597              	.LBB731:
 1598              	.LBB724:
 1599              	.LBB719:
 244:../../libdaisy/src/dev/oled_ssd130x.h ****         else
 1600              		.loc 6 244 42 view .LVU424
 1601 0202 08F50073 		add	r3, r8, #512
 1602 0206 2344     		add	r3, r3, r4
 1603 0208 1A7D     		ldrb	r2, [r3, #20]	@ zero_extendqisi2
 1604 020a 42F00102 		orr	r2, r2, #1
 1605 020e 1A75     		strb	r2, [r3, #20]
 1606              	.LVL105:
 244:../../libdaisy/src/dev/oled_ssd130x.h ****         else
ARM GAS  C:\Users\VINCIU~1\AppData\Local\Temp\ccYgfSqf.s 			page 58


 1607              		.loc 6 244 42 view .LVU425
 1608              	.LBE719:
 1609              	.LBE724:
 1610              	.LBE731:
 1611              	.LBE738:
 199:../../libdaisy/src/hid/disp/display.h ****         {
 1612              		.loc 5 199 26 is_stmt 1 view .LVU426
 1613 0210 059B     		ldr	r3, [sp, #20]
 1614 0212 202B     		cmp	r3, #32
 1615 0214 02D1     		bne	.L105
 199:../../libdaisy/src/hid/disp/display.h ****         {
 1616              		.loc 5 199 26 is_stmt 0 view .LVU427
 1617 0216 B8F10A0F 		cmp	r8, #10
 1618 021a 2AD0     		beq	.L106
 1619              	.L105:
 1620              	.LVL106:
 203:../../libdaisy/src/hid/disp/display.h ****             {
 1621              		.loc 5 203 23 view .LVU428
 1622 021c CAF10009 		rsb	r9, r10, #0
 1623              	.LBE749:
 1624              	.LBE757:
 1625              		.loc 2 516 20 view .LVU429
 1626 0220 059A     		ldr	r2, [sp, #20]
 1627              	.LBB758:
 1628              	.LBB750:
 203:../../libdaisy/src/hid/disp/display.h ****             {
 1629              		.loc 5 203 23 view .LVU430
 1630 0222 4FF00A0C 		mov	ip, #10
 1631              	.L109:
 1632              	.LVL107:
 1633              	.LBB739:
 1634              	.LBI739:
  41:../../libdaisy/src/hid/disp/oled_display.h ****     {
 1635              		.loc 1 41 10 is_stmt 1 view .LVU431
 1636              	.LBB740:
 1637              	.LBI740:
 239:../../libdaisy/src/dev/oled_ssd130x.h ****     {
 1638              		.loc 6 239 10 view .LVU432
 1639              	.LBB741:
 244:../../libdaisy/src/dev/oled_ssd130x.h ****         else
 1640              		.loc 6 244 48 is_stmt 0 view .LVU433
 1641 0226 4FF0010B 		mov	fp, #1
 244:../../libdaisy/src/dev/oled_ssd130x.h ****         else
 1642              		.loc 6 244 28 view .LVU434
 1643 022a D308     		lsrs	r3, r2, #3
 244:../../libdaisy/src/dev/oled_ssd130x.h ****         else
 1644              		.loc 6 244 54 view .LVU435
 1645 022c 02F00700 		and	r0, r2, #7
 241:../../libdaisy/src/dev/oled_ssd130x.h ****             return;
 1646              		.loc 6 241 9 view .LVU436
 1647 0230 BCF17F0F 		cmp	ip, #127
 244:../../libdaisy/src/dev/oled_ssd130x.h ****         else
 1648              		.loc 6 244 42 view .LVU437
 1649 0234 0CEBC313 		add	r3, ip, r3, lsl #7
 1650              	.LBE741:
 1651              	.LBE740:
 1652              	.LBE739:
ARM GAS  C:\Users\VINCIU~1\AppData\Local\Temp\ccYgfSqf.s 			page 59


 202:../../libdaisy/src/hid/disp/display.h ****             if(error2 > -deltaY)
 1653              		.loc 5 202 20 view .LVU438
 1654 0238 01FA0BFE 		lsl	lr, r1, fp
 1655              	.LVL108:
 1656              	.LBB744:
 1657              	.LBB743:
 1658              	.LBB742:
 244:../../libdaisy/src/dev/oled_ssd130x.h ****         else
 1659              		.loc 6 244 48 view .LVU439
 1660 023c 0BFA00F0 		lsl	r0, fp, r0
 241:../../libdaisy/src/dev/oled_ssd130x.h ****             return;
 1661              		.loc 6 241 9 view .LVU440
 1662 0240 07D8     		bhi	.L110
 1663 0242 3F2A     		cmp	r2, #63
 244:../../libdaisy/src/dev/oled_ssd130x.h ****         else
 1664              		.loc 6 244 42 view .LVU441
 1665 0244 2344     		add	r3, r3, r4
 241:../../libdaisy/src/dev/oled_ssd130x.h ****             return;
 1666              		.loc 6 241 9 view .LVU442
 1667 0246 04D8     		bhi	.L110
 244:../../libdaisy/src/dev/oled_ssd130x.h ****         else
 1668              		.loc 6 244 42 view .LVU443
 1669 0248 93F814B0 		ldrb	fp, [r3, #20]	@ zero_extendqisi2
 1670 024c 40EA0B00 		orr	r0, r0, fp
 1671 0250 1875     		strb	r0, [r3, #20]
 1672              	.L110:
 244:../../libdaisy/src/dev/oled_ssd130x.h ****         else
 1673              		.loc 6 244 42 view .LVU444
 1674              	.LBE742:
 1675              	.LBE743:
 1676              	.LBE744:
 203:../../libdaisy/src/hid/disp/display.h ****             {
 1677              		.loc 5 203 13 view .LVU445
 1678 0252 B9EB410F 		cmp	r9, r1, lsl #1
 1679 0256 03DA     		bge	.L111
 206:../../libdaisy/src/hid/disp/display.h ****             }
 1680              		.loc 5 206 20 view .LVU446
 1681 0258 079B     		ldr	r3, [sp, #28]
 205:../../libdaisy/src/hid/disp/display.h ****                 x1 += signX;
 1682              		.loc 5 205 23 view .LVU447
 1683 025a A1EB0A01 		sub	r1, r1, r10
 1684              	.LVL109:
 206:../../libdaisy/src/hid/disp/display.h ****             }
 1685              		.loc 5 206 20 view .LVU448
 1686 025e 9C44     		add	ip, ip, r3
 1687              	.LVL110:
 1688              	.L111:
 209:../../libdaisy/src/hid/disp/display.h ****             {
 1689              		.loc 5 209 13 view .LVU449
 1690 0260 7745     		cmp	r7, lr
 1691 0262 02DD     		ble	.L112
 212:../../libdaisy/src/hid/disp/display.h ****             }
 1692              		.loc 5 212 20 view .LVU450
 1693 0264 069B     		ldr	r3, [sp, #24]
 211:../../libdaisy/src/hid/disp/display.h ****                 y1 += signY;
 1694              		.loc 5 211 23 view .LVU451
 1695 0266 3944     		add	r1, r1, r7
ARM GAS  C:\Users\VINCIU~1\AppData\Local\Temp\ccYgfSqf.s 			page 60


 1696              	.LVL111:
 212:../../libdaisy/src/hid/disp/display.h ****             }
 1697              		.loc 5 212 20 view .LVU452
 1698 0268 1A44     		add	r2, r2, r3
 1699              	.LVL112:
 1700              	.L112:
 199:../../libdaisy/src/hid/disp/display.h ****         {
 1701              		.loc 5 199 26 is_stmt 1 view .LVU453
 1702 026a E045     		cmp	r8, ip
 1703 026c DBD1     		bne	.L109
 199:../../libdaisy/src/hid/disp/display.h ****         {
 1704              		.loc 5 199 26 is_stmt 0 view .LVU454
 1705 026e 202A     		cmp	r2, #32
 1706 0270 D9D1     		bne	.L109
 1707              	.LVL113:
 1708              	.L106:
 199:../../libdaisy/src/hid/disp/display.h ****         {
 1709              		.loc 5 199 26 view .LVU455
 1710              	.LBE750:
 1711              	.LBE758:
 517:Menus.cpp     ****                     circleGlidePosition,
 518:Menus.cpp     ****                     circleGlideTimePosition,
 519:Menus.cpp     ****                     screen.Height() / 2,
 520:Menus.cpp     ****                     true);
 521:Menus.cpp     ****     screen.DrawCircle(margin, circleGlidePosition, 3, true);
 1712              		.loc 2 521 5 is_stmt 1 view .LVU456
 1713              	.LBB759:
 1714              	.LBI759:
 100:../../libdaisy/src/hid/disp/display.h ****     {
 1715              		.loc 5 100 5 view .LVU457
 1716              	.LBB760:
 102:../../libdaisy/src/hid/disp/display.h ****     };
 1717              		.loc 5 102 9 view .LVU458
 102:../../libdaisy/src/hid/disp/display.h ****     };
 1718              		.loc 5 102 41 is_stmt 0 view .LVU459
 1719 0272 2368     		ldr	r3, [r4]
 102:../../libdaisy/src/hid/disp/display.h ****     };
 1720              		.loc 5 102 16 view .LVU460
 1721 0274 4FF00109 		mov	r9, #1
 1722 0278 0027     		movs	r7, #0
 1723 027a 4FF4B478 		mov	r8, #360
 1724 027e 2046     		mov	r0, r4
 1725 0280 059A     		ldr	r2, [sp, #20]
 1726 0282 0097     		str	r7, [sp]
 1727 0284 0A21     		movs	r1, #10
 1728 0286 CDE90189 		strd	r8, r9, [sp, #4]
 1729 028a D3F820A0 		ldr	r10, [r3, #32]
 1730 028e 0323     		movs	r3, #3
 1731 0290 D047     		blx	r10
 1732              	.LVL114:
 102:../../libdaisy/src/hid/disp/display.h ****     };
 1733              		.loc 5 102 16 view .LVU461
 1734              	.LBE760:
 1735              	.LBE759:
 522:Menus.cpp     ****     screen.DrawCircle(circleGlideTimePosition, screen.Height() / 2, 3, true);
 1736              		.loc 2 522 5 is_stmt 1 view .LVU462
 1737              	.LBB761:
ARM GAS  C:\Users\VINCIU~1\AppData\Local\Temp\ccYgfSqf.s 			page 61


 1738              	.LBI761:
 100:../../libdaisy/src/hid/disp/display.h ****     {
 1739              		.loc 5 100 5 view .LVU463
 1740              	.LBB762:
 102:../../libdaisy/src/hid/disp/display.h ****     };
 1741              		.loc 5 102 9 view .LVU464
 1742              	.LBE762:
 1743              	.LBE761:
 1744              		.loc 2 522 22 is_stmt 0 view .LVU465
 1745 0292 D6ED237A 		vldr.32	s15, [r6, #140]
 1746              	.LBB765:
 1747              	.LBB763:
 102:../../libdaisy/src/hid/disp/display.h ****     };
 1748              		.loc 5 102 16 view .LVU466
 1749 0296 0097     		str	r7, [sp]
 1750              	.LVL115:
 102:../../libdaisy/src/hid/disp/display.h ****     };
 1751              		.loc 5 102 16 view .LVU467
 1752 0298 2046     		mov	r0, r4
 1753 029a FCEEE77A 		vcvt.u32.f32	s15, s15
 1754              	.LVL116:
 102:../../libdaisy/src/hid/disp/display.h ****     };
 1755              		.loc 5 102 16 view .LVU468
 1756 029e 0323     		movs	r3, #3
 1757 02a0 2022     		movs	r2, #32
 1758              	.LBE763:
 1759              	.LBE765:
 1760              	.LBB766:
 1761              	.LBB767:
 1762              	.LBB768:
 1763              	.LBB769:
 1764              	.LBB770:
 111:../../libdaisy/src/dev/oled_ssd130x.h ****         spi_.BlockingTransmit(&cmd, 1);
 1765              		.loc 6 111 24 view .LVU469
 1766 02a2 05F10807 		add	r7, r5, #8
 1767              	.LBE770:
 1768              	.LBE769:
 1769              	.LBE768:
 1770              	.LBE767:
 1771              	.LBE766:
 1772              	.LBB790:
 1773              	.LBB764:
 102:../../libdaisy/src/hid/disp/display.h ****     };
 1774              		.loc 5 102 16 view .LVU470
 1775 02a6 CDE90189 		strd	r8, r9, [sp, #4]
 102:../../libdaisy/src/hid/disp/display.h ****     };
 1776              		.loc 5 102 41 view .LVU471
 1777 02aa 2668     		ldr	r6, [r4]
 1778              	.LVL117:
 102:../../libdaisy/src/hid/disp/display.h ****     };
 1779              		.loc 5 102 16 view .LVU472
 1780 02ac 17EE901A 		vmov	r1, s15	@ int
 1781 02b0 05F20C49 		addw	r9, r5, #1036
 1782 02b4 346A     		ldr	r4, [r6, #32]
 1783              	.LVL118:
 102:../../libdaisy/src/hid/disp/display.h ****     };
 1784              		.loc 5 102 16 view .LVU473
ARM GAS  C:\Users\VINCIU~1\AppData\Local\Temp\ccYgfSqf.s 			page 62


 1785 02b6 05F10C06 		add	r6, r5, #12
 1786 02ba A047     		blx	r4
 1787              	.LVL119:
 102:../../libdaisy/src/hid/disp/display.h ****     };
 1788              		.loc 5 102 16 view .LVU474
 1789              	.LBE764:
 1790              	.LBE790:
 523:Menus.cpp     **** 
 524:Menus.cpp     **** 
 525:Menus.cpp     ****     screen.Update();
 1791              		.loc 2 525 5 is_stmt 1 view .LVU475
 1792              	.LBB791:
 1793              	.LBI766:
  44:../../libdaisy/src/hid/disp/oled_display.h ****     }
  45:../../libdaisy/src/hid/disp/oled_display.h **** 
  46:../../libdaisy/src/hid/disp/oled_display.h ****     /** 
  47:../../libdaisy/src/hid/disp/oled_display.h ****     Writes the current display buffer to the OLED device using SPI or I2C depending on 
  48:../../libdaisy/src/hid/disp/oled_display.h ****     how the object was initialized.
  49:../../libdaisy/src/hid/disp/oled_display.h ****     */
  50:../../libdaisy/src/hid/disp/oled_display.h ****     void Update() override { driver_.Update(); }
 1794              		.loc 1 50 10 view .LVU476
 1795              	.LBB789:
 1796              	.LBI767:
 254:../../libdaisy/src/dev/oled_ssd130x.h ****         }
 255:../../libdaisy/src/dev/oled_ssd130x.h ****     };
 256:../../libdaisy/src/dev/oled_ssd130x.h **** 
 257:../../libdaisy/src/dev/oled_ssd130x.h ****     /**
 258:../../libdaisy/src/dev/oled_ssd130x.h ****      * Update the display 
 259:../../libdaisy/src/dev/oled_ssd130x.h ****     */
 260:../../libdaisy/src/dev/oled_ssd130x.h ****     void Update()
 1797              		.loc 6 260 10 view .LVU477
 1798              	.LBB788:
 261:../../libdaisy/src/dev/oled_ssd130x.h ****     {
 262:../../libdaisy/src/dev/oled_ssd130x.h ****         uint8_t i;
 263:../../libdaisy/src/dev/oled_ssd130x.h ****         uint8_t high_column_addr;
 264:../../libdaisy/src/dev/oled_ssd130x.h ****         switch(height)
 265:../../libdaisy/src/dev/oled_ssd130x.h ****         {
 266:../../libdaisy/src/dev/oled_ssd130x.h ****             case 32: high_column_addr = 0x12; break;
 267:../../libdaisy/src/dev/oled_ssd130x.h **** 
 268:../../libdaisy/src/dev/oled_ssd130x.h ****             default: high_column_addr = 0x10; break;
 269:../../libdaisy/src/dev/oled_ssd130x.h ****         }
 270:../../libdaisy/src/dev/oled_ssd130x.h ****         for(i = 0; i < (height / 8); i++)
 1799              		.loc 6 270 22 view .LVU478
 1800              	.LBB775:
 1801              	.LBB771:
 111:../../libdaisy/src/dev/oled_ssd130x.h ****         spi_.BlockingTransmit(&cmd, 1);
 1802              		.loc 6 111 24 is_stmt 0 view .LVU479
 1803 02bc B024     		movs	r4, #176
 1804              	.LVL120:
 1805              	.L113:
 111:../../libdaisy/src/dev/oled_ssd130x.h ****         spi_.BlockingTransmit(&cmd, 1);
 1806              		.loc 6 111 24 view .LVU480
 1807 02be 4FF00008 		mov	r8, #0
 111:../../libdaisy/src/dev/oled_ssd130x.h ****         spi_.BlockingTransmit(&cmd, 1);
 1808              		.loc 6 111 23 view .LVU481
 1809 02c2 3846     		mov	r0, r7
 1810 02c4 8DF82740 		strb	r4, [sp, #39]
ARM GAS  C:\Users\VINCIU~1\AppData\Local\Temp\ccYgfSqf.s 			page 63


 1811              	.LVL121:
 111:../../libdaisy/src/dev/oled_ssd130x.h ****         spi_.BlockingTransmit(&cmd, 1);
 1812              		.loc 6 111 23 view .LVU482
 1813              	.LBE771:
 1814              	.LBI769:
 109:../../libdaisy/src/dev/oled_ssd130x.h ****     {
 1815              		.loc 6 109 10 is_stmt 1 view .LVU483
 1816              	.LBB772:
 111:../../libdaisy/src/dev/oled_ssd130x.h ****         spi_.BlockingTransmit(&cmd, 1);
 1817              		.loc 6 111 9 view .LVU484
 1818              	.LBE772:
 1819              	.LBE775:
 1820              		.loc 6 270 22 is_stmt 0 view .LVU485
 1821 02c8 0134     		adds	r4, r4, #1
 1822              	.LVL122:
 1823              	.LBB776:
 1824              	.LBB773:
 111:../../libdaisy/src/dev/oled_ssd130x.h ****         spi_.BlockingTransmit(&cmd, 1);
 1825              		.loc 6 111 23 view .LVU486
 1826 02ca 4146     		mov	r1, r8
 1827 02cc FFF7FEFF 		bl	dsy_gpio_write
 1828              	.LVL123:
 112:../../libdaisy/src/dev/oled_ssd130x.h ****     };
 1829              		.loc 6 112 9 is_stmt 1 view .LVU487
 112:../../libdaisy/src/dev/oled_ssd130x.h ****     };
 1830              		.loc 6 112 30 is_stmt 0 view .LVU488
 1831 02d0 6423     		movs	r3, #100
 1832 02d2 0122     		movs	r2, #1
 1833 02d4 0DF12701 		add	r1, sp, #39
 1834 02d8 2846     		mov	r0, r5
 1835              	.LBE773:
 1836              	.LBE776:
 1837              		.loc 6 270 22 view .LVU489
 1838 02da E4B2     		uxtb	r4, r4
 1839              	.LBB777:
 1840              	.LBB774:
 112:../../libdaisy/src/dev/oled_ssd130x.h ****     };
 1841              		.loc 6 112 30 view .LVU490
 1842 02dc FFF7FEFF 		bl	_ZN5daisy9SpiHandle16BlockingTransmitEPhjm
 1843              	.LVL124:
 112:../../libdaisy/src/dev/oled_ssd130x.h ****     };
 1844              		.loc 6 112 30 view .LVU491
 1845              	.LBE774:
 1846              	.LBE777:
 1847              	.LBB778:
 1848              	.LBB779:
 111:../../libdaisy/src/dev/oled_ssd130x.h ****         spi_.BlockingTransmit(&cmd, 1);
 1849              		.loc 6 111 23 view .LVU492
 1850 02e0 4146     		mov	r1, r8
 1851 02e2 3846     		mov	r0, r7
 1852 02e4 8DF82780 		strb	r8, [sp, #39]
 1853              	.LVL125:
 111:../../libdaisy/src/dev/oled_ssd130x.h ****         spi_.BlockingTransmit(&cmd, 1);
 1854              		.loc 6 111 23 view .LVU493
 1855              	.LBE779:
 1856              	.LBI778:
 109:../../libdaisy/src/dev/oled_ssd130x.h ****     {
ARM GAS  C:\Users\VINCIU~1\AppData\Local\Temp\ccYgfSqf.s 			page 64


 1857              		.loc 6 109 10 is_stmt 1 view .LVU494
 1858              	.LBB780:
 111:../../libdaisy/src/dev/oled_ssd130x.h ****         spi_.BlockingTransmit(&cmd, 1);
 1859              		.loc 6 111 9 view .LVU495
 111:../../libdaisy/src/dev/oled_ssd130x.h ****         spi_.BlockingTransmit(&cmd, 1);
 1860              		.loc 6 111 23 is_stmt 0 view .LVU496
 1861 02e8 FFF7FEFF 		bl	dsy_gpio_write
 1862              	.LVL126:
 112:../../libdaisy/src/dev/oled_ssd130x.h ****     };
 1863              		.loc 6 112 9 is_stmt 1 view .LVU497
 112:../../libdaisy/src/dev/oled_ssd130x.h ****     };
 1864              		.loc 6 112 30 is_stmt 0 view .LVU498
 1865 02ec 0122     		movs	r2, #1
 1866 02ee 6423     		movs	r3, #100
 1867 02f0 0DF12701 		add	r1, sp, #39
 1868 02f4 2846     		mov	r0, r5
 1869 02f6 FFF7FEFF 		bl	_ZN5daisy9SpiHandle16BlockingTransmitEPhjm
 1870              	.LVL127:
 112:../../libdaisy/src/dev/oled_ssd130x.h ****     };
 1871              		.loc 6 112 30 view .LVU499
 1872 02fa 1023     		movs	r3, #16
 1873              	.LBE780:
 1874              	.LBE778:
 1875              	.LBB781:
 1876              	.LBB782:
 111:../../libdaisy/src/dev/oled_ssd130x.h ****         spi_.BlockingTransmit(&cmd, 1);
 1877              		.loc 6 111 23 view .LVU500
 1878 02fc 4146     		mov	r1, r8
 1879 02fe 3846     		mov	r0, r7
 1880 0300 8DF82730 		strb	r3, [sp, #39]
 1881              	.LVL128:
 111:../../libdaisy/src/dev/oled_ssd130x.h ****         spi_.BlockingTransmit(&cmd, 1);
 1882              		.loc 6 111 23 view .LVU501
 1883              	.LBE782:
 1884              	.LBI781:
 109:../../libdaisy/src/dev/oled_ssd130x.h ****     {
 1885              		.loc 6 109 10 is_stmt 1 view .LVU502
 1886              	.LBB783:
 111:../../libdaisy/src/dev/oled_ssd130x.h ****         spi_.BlockingTransmit(&cmd, 1);
 1887              		.loc 6 111 9 view .LVU503
 111:../../libdaisy/src/dev/oled_ssd130x.h ****         spi_.BlockingTransmit(&cmd, 1);
 1888              		.loc 6 111 23 is_stmt 0 view .LVU504
 1889 0304 FFF7FEFF 		bl	dsy_gpio_write
 1890              	.LVL129:
 112:../../libdaisy/src/dev/oled_ssd130x.h ****     };
 1891              		.loc 6 112 9 is_stmt 1 view .LVU505
 112:../../libdaisy/src/dev/oled_ssd130x.h ****     };
 1892              		.loc 6 112 30 is_stmt 0 view .LVU506
 1893 0308 6423     		movs	r3, #100
 1894 030a 0122     		movs	r2, #1
 1895 030c 0DF12701 		add	r1, sp, #39
 1896 0310 2846     		mov	r0, r5
 1897 0312 FFF7FEFF 		bl	_ZN5daisy9SpiHandle16BlockingTransmitEPhjm
 1898              	.LVL130:
 112:../../libdaisy/src/dev/oled_ssd130x.h ****     };
 1899              		.loc 6 112 30 view .LVU507
 1900              	.LBE783:
ARM GAS  C:\Users\VINCIU~1\AppData\Local\Temp\ccYgfSqf.s 			page 65


 1901              	.LBE781:
 1902              	.LBB784:
 1903              	.LBI784:
 115:../../libdaisy/src/dev/oled_ssd130x.h ****     {
 1904              		.loc 6 115 10 is_stmt 1 view .LVU508
 1905              	.LBB785:
 117:../../libdaisy/src/dev/oled_ssd130x.h ****         spi_.BlockingTransmit(buff, size);
 1906              		.loc 6 117 9 view .LVU509
 117:../../libdaisy/src/dev/oled_ssd130x.h ****         spi_.BlockingTransmit(buff, size);
 1907              		.loc 6 117 23 is_stmt 0 view .LVU510
 1908 0316 0121     		movs	r1, #1
 1909 0318 3846     		mov	r0, r7
 1910 031a FFF7FEFF 		bl	dsy_gpio_write
 1911              	.LVL131:
 118:../../libdaisy/src/dev/oled_ssd130x.h ****     };
 1912              		.loc 6 118 9 is_stmt 1 view .LVU511
 118:../../libdaisy/src/dev/oled_ssd130x.h ****     };
 1913              		.loc 6 118 30 is_stmt 0 view .LVU512
 1914 031e 8022     		movs	r2, #128
 1915 0320 3146     		mov	r1, r6
 1916 0322 6423     		movs	r3, #100
 1917              	.LBE785:
 1918              	.LBE784:
 1919              		.loc 6 270 22 view .LVU513
 1920 0324 1644     		add	r6, r6, r2
 1921              	.LVL132:
 1922              	.LBB787:
 1923              	.LBB786:
 118:../../libdaisy/src/dev/oled_ssd130x.h ****     };
 1924              		.loc 6 118 30 view .LVU514
 1925 0326 2846     		mov	r0, r5
 1926 0328 FFF7FEFF 		bl	_ZN5daisy9SpiHandle16BlockingTransmitEPhjm
 1927              	.LVL133:
 118:../../libdaisy/src/dev/oled_ssd130x.h ****     };
 1928              		.loc 6 118 30 view .LVU515
 1929              	.LBE786:
 1930              	.LBE787:
 1931              		.loc 6 270 9 is_stmt 1 view .LVU516
 1932              		.loc 6 270 22 view .LVU517
 1933 032c 4E45     		cmp	r6, r9
 1934 032e C6D1     		bne	.L113
 1935              	.LBE788:
 1936              	.LBE789:
 1937              	.LBE791:
 526:Menus.cpp     **** }
 1938              		.loc 2 526 1 is_stmt 0 view .LVU518
 1939 0330 0BB0     		add	sp, sp, #44
 1940              		.cfi_remember_state
 1941              		.cfi_def_cfa_offset 36
 1942              		@ sp needed
 1943 0332 BDE8F08F 		pop	{r4, r5, r6, r7, r8, r9, r10, fp, pc}
 1944              	.LVL134:
 1945              	.L103:
 1946              		.cfi_restore_state
 1947              	.LBB792:
 1948              	.LBB751:
 190:../../libdaisy/src/hid/disp/display.h ****         int_fast16_t error  = deltaX - deltaY;
ARM GAS  C:\Users\VINCIU~1\AppData\Local\Temp\ccYgfSqf.s 			page 66


 1949              		.loc 5 190 42 view .LVU519
 1950 0336 059B     		ldr	r3, [sp, #20]
 1951              	.LVL135:
 190:../../libdaisy/src/hid/disp/display.h ****         int_fast16_t error  = deltaX - deltaY;
 1952              		.loc 5 190 42 view .LVU520
 1953 0338 1F2B     		cmp	r3, #31
 1954 033a 3FF658AF 		bhi	.L160
 1955              	.LVL136:
 189:../../libdaisy/src/hid/disp/display.h ****         int_fast16_t signY  = ((y1 < y2) ? 1 : -1);
 1956              		.loc 5 189 42 view .LVU521
 1957 033e 4FF0FF33 		mov	r3, #-1
 191:../../libdaisy/src/hid/disp/display.h ****         int_fast16_t error2;
 1958              		.loc 5 191 22 view .LVU522
 1959 0342 A7EB0A01 		sub	r1, r7, r10
 1960              	.LVL137:
 1961              	.LBB745:
  41:../../libdaisy/src/hid/disp/oled_display.h ****     {
 1962              		.loc 1 41 10 is_stmt 1 view .LVU523
 1963              	.LBB732:
  43:../../libdaisy/src/hid/disp/oled_display.h ****     }
 1964              		.loc 1 43 26 is_stmt 0 view .LVU524
 1965 0346 04F10805 		add	r5, r4, #8
 1966              	.LVL138:
 1967              	.LBB725:
 239:../../libdaisy/src/dev/oled_ssd130x.h ****     {
 1968              		.loc 6 239 10 is_stmt 1 view .LVU525
 1969              	.LBE725:
 1970              	.LBE732:
 1971              	.LBE745:
 190:../../libdaisy/src/hid/disp/display.h ****         int_fast16_t error  = deltaX - deltaY;
 1972              		.loc 5 190 42 is_stmt 0 view .LVU526
 1973 034a CDF81890 		str	r9, [sp, #24]
 189:../../libdaisy/src/hid/disp/display.h ****         int_fast16_t signY  = ((y1 < y2) ? 1 : -1);
 1974              		.loc 5 189 42 view .LVU527
 1975 034e 0793     		str	r3, [sp, #28]
 1976 0350 57E7     		b	.L114
 1977              	.LVL139:
 1978              	.L156:
 189:../../libdaisy/src/hid/disp/display.h ****         int_fast16_t signY  = ((y1 < y2) ? 1 : -1);
 1979              		.loc 5 189 42 view .LVU528
 1980              	.LBE751:
 1981              	.LBE792:
 441:Menus.cpp     ****         if(this->menuStateGlide < 0)
 1982              		.loc 2 441 9 is_stmt 1 view .LVU529
 442:Menus.cpp     ****         {
 1983              		.loc 2 442 9 view .LVU530
 1984 0352 013B     		subs	r3, r3, #1
 1985 0354 16D4     		bmi	.L78
 441:Menus.cpp     ****         if(this->menuStateGlide < 0)
 1986              		.loc 2 441 30 is_stmt 0 view .LVU531
 1987 0356 3367     		str	r3, [r6, #112]
 1988 0358 7CE6     		b	.L79
 1989              	.LVL140:
 1990              	.L104:
 1991              	.LBB793:
 1992              	.LBB752:
 1993              	.LBB746:
ARM GAS  C:\Users\VINCIU~1\AppData\Local\Temp\ccYgfSqf.s 			page 67


 1994              	.LBB733:
 1995              	.LBB726:
 239:../../libdaisy/src/dev/oled_ssd130x.h ****     {
 1996              		.loc 6 239 10 is_stmt 1 view .LVU532
 1997              	.LBB720:
 241:../../libdaisy/src/dev/oled_ssd130x.h ****             return;
 1998              		.loc 6 241 9 is_stmt 0 view .LVU533
 1999 035a B8F17F0F 		cmp	r8, #127
 2000              	.LBE720:
 2001              	.LBE726:
 2002              	.LBE733:
 2003              	.LBE746:
 190:../../libdaisy/src/hid/disp/display.h ****         int_fast16_t error  = deltaX - deltaY;
 2004              		.loc 5 190 42 view .LVU534
 2005 035e CDE90699 		strd	r9, r9, [sp, #24]
 2006              	.LBB747:
 2007              	.LBB734:
 2008              	.LBB727:
 2009              	.LBB721:
 241:../../libdaisy/src/dev/oled_ssd130x.h ****             return;
 2010              		.loc 6 241 9 view .LVU535
 2011 0362 3FF65BAF 		bhi	.L105
 2012 0366 4CE7     		b	.L114
 2013              	.L162:
 2014              		.align	2
 2015              	.L161:
 2016 0368 06000400 		.word	262150
 2017 036c 00000000 		.word	Font_6x8
 2018 0370 49000400 		.word	262217
 2019 0374 00003C42 		.word	1111228416
 2020 0378 00000000 		.word	.LC1
 2021 037c 00000000 		.word	0
 2022 0380 0000C842 		.word	1120403456
 2023              	.LVL141:
 2024              	.L78:
 241:../../libdaisy/src/dev/oled_ssd130x.h ****             return;
 2025              		.loc 6 241 9 view .LVU536
 2026              	.LBE721:
 2027              	.LBE727:
 2028              	.LBE734:
 2029              	.LBE747:
 2030              	.LBE752:
 2031              	.LBE793:
 444:Menus.cpp     ****         }
 2032              		.loc 2 444 13 is_stmt 1 view .LVU537
 447:Menus.cpp     **** 
 2033              		.loc 2 447 5 is_stmt 0 view .LVU538
 2034 0384 96F86130 		ldrb	r3, [r6, #97]	@ zero_extendqisi2
 444:Menus.cpp     ****         }
 2035              		.loc 2 444 34 view .LVU539
 2036 0388 0122     		movs	r2, #1
 447:Menus.cpp     **** 
 2037              		.loc 2 447 5 view .LVU540
 2038 038a 7F2B     		cmp	r3, #127
 444:Menus.cpp     ****         }
 2039              		.loc 2 444 34 view .LVU541
 2040 038c 3267     		str	r2, [r6, #112]
ARM GAS  C:\Users\VINCIU~1\AppData\Local\Temp\ccYgfSqf.s 			page 68


 447:Menus.cpp     **** 
 2041              		.loc 2 447 5 is_stmt 1 view .LVU542
 2042              	.LVL142:
 2043              	.LBB794:
 2044              		.loc 4 69 17 view .LVU543
 2045              	.LBB591:
 2046              		.loc 4 69 38 view .LVU544
 2047              		.loc 4 69 38 is_stmt 0 view .LVU545
 2048              	.LBE591:
 2049              	.LBE794:
 447:Menus.cpp     **** 
 2050              		.loc 2 447 5 view .LVU546
 2051 038e 3FF4B8AE 		beq	.L83
 2052              	.L80:
 2053              	.LBB795:
 481:Menus.cpp     ****         {
 2054              		.loc 2 481 9 is_stmt 1 view .LVU547
 481:Menus.cpp     ****         {
 2055              		.loc 2 481 18 is_stmt 0 view .LVU548
 2056 0392 D6ED257A 		vldr.32	s15, [r6, #148]
 481:Menus.cpp     ****         {
 2057              		.loc 2 481 9 view .LVU549
 2058 0396 1FED067A 		vldr.32	s14, .L161+24
 2059 039a F4EEC77A 		vcmpe.f32	s15, s14
 2060 039e F1EE10FA 		vmrs	APSR_nzcv, FPSCR
 2061 03a2 80F29680 		bge	.L121
 485:Menus.cpp     ****         {
 2062              		.loc 2 485 9 is_stmt 1 view .LVU550
 2063 03a6 F5EEC07A 		vcmpe.f32	s15, #0
 2064 03aa F1EE10FA 		vmrs	APSR_nzcv, FPSCR
 2065 03ae 01D8     		bhi	.L92
 2066 03b0 5FED0E7A 		vldr.32	s15, .L161+20
 2067              	.L92:
 489:Menus.cpp     ****         {
 2068              		.loc 2 489 9 view .LVU551
 489:Menus.cpp     ****         {
 2069              		.loc 2 489 12 is_stmt 0 view .LVU552
 2070 03b4 96ED227A 		vldr.32	s14, [r6, #136]
 489:Menus.cpp     ****         {
 2071              		.loc 2 489 9 view .LVU553
 2072 03b8 5FED0F6A 		vldr.32	s13, .L161+24
 2073 03bc B4EEE67A 		vcmpe.f32	s14, s13
 2074 03c0 F1EE10FA 		vmrs	APSR_nzcv, FPSCR
 2075 03c4 7CDB     		blt	.L151
 491:Menus.cpp     ****         }
 2076              		.loc 2 491 13 is_stmt 1 view .LVU554
 491:Menus.cpp     ****         }
 2077              		.loc 2 491 33 is_stmt 0 view .LVU555
 2078 03c6 C6ED226A 		vstr.32	s13, [r6, #136]
 493:Menus.cpp     ****         {
 2079              		.loc 2 493 9 is_stmt 1 view .LVU556
 2080              	.L95:
 497:Menus.cpp     ****         {
 2081              		.loc 2 497 9 view .LVU557
 497:Menus.cpp     ****         {
 2082              		.loc 2 497 12 is_stmt 0 view .LVU558
 2083 03ca D6ED236A 		vldr.32	s13, [r6, #140]
ARM GAS  C:\Users\VINCIU~1\AppData\Local\Temp\ccYgfSqf.s 			page 69


 497:Menus.cpp     ****         {
 2084              		.loc 2 497 9 view .LVU559
 2085 03ce 1FED147A 		vldr.32	s14, .L161+24
 2086 03d2 F4EEC76A 		vcmpe.f32	s13, s14
 2087 03d6 F1EE10FA 		vmrs	APSR_nzcv, FPSCR
 2088 03da 6EDA     		bge	.L123
 501:Menus.cpp     ****         {
 2089              		.loc 2 501 9 is_stmt 1 view .LVU560
 2090 03dc B2EE047A 		vmov.f32	s14, #1.0e+1
 2091 03e0 F4EE476A 		vcmp.f32	s13, s14
 2092 03e4 F1EE10FA 		vmrs	APSR_nzcv, FPSCR
 2093 03e8 98BF     		it	ls
 2094 03ea F0EE476A 		vmovls.f32	s13, s14
 2095              	.L97:
 505:Menus.cpp     ****         ;
 2096              		.loc 2 505 9 view .LVU561
 2097              	.LVL143:
 2098              	.LBB651:
 2099              	.LBI651:
 2100              		.loc 3 41 20 view .LVU562
 2101              	.LBB652:
 2102              		.loc 3 41 40 view .LVU563
 2103              		.loc 3 41 40 is_stmt 0 view .LVU564
 2104              	.LBE652:
 2105              	.LBE651:
 505:Menus.cpp     ****         ;
 2106              		.loc 2 505 33 view .LVU565
 2107 03ee 96ED127A 		vldr.32	s14, [r6, #72]	@ int
 508:Menus.cpp     ****         screen.DrawRect(67, 0, screen.Width() - 2, 13, true, false);
 2108              		.loc 2 508 16 view .LVU566
 2109 03f2 06F58E77 		add	r7, r6, #284
 2110 03f6 4649     		ldr	r1, .L163+16
 505:Menus.cpp     ****         ;
 2111              		.loc 2 505 33 view .LVU567
 2112 03f8 B8EEC77A 		vcvt.f32.s32	s14, s14
 508:Menus.cpp     ****         screen.DrawRect(67, 0, screen.Width() - 2, 13, true, false);
 2113              		.loc 2 508 16 view .LVU568
 2114 03fc 3846     		mov	r0, r7
 507:Menus.cpp     ****         sprintf(this->buffPitchTime, "Time_%d%%", (int)this->glideTime);
 2115              		.loc 2 507 25 view .LVU569
 2116 03fe 77EE277A 		vadd.f32	s15, s14, s15
 505:Menus.cpp     ****         ;
 2117              		.loc 2 505 33 view .LVU570
 2118 0402 37EE267A 		vadd.f32	s14, s14, s13
 508:Menus.cpp     ****         screen.DrawRect(67, 0, screen.Width() - 2, 13, true, false);
 2119              		.loc 2 508 16 view .LVU571
 2120 0406 FDEEE76A 		vcvt.s32.f32	s13, s15
 507:Menus.cpp     ****         sprintf(this->buffPitchTime, "Time_%d%%", (int)this->glideTime);
 2121              		.loc 2 507 25 view .LVU572
 2122 040a C6ED257A 		vstr.32	s15, [r6, #148]
 505:Menus.cpp     ****         ;
 2123              		.loc 2 505 33 view .LVU573
 2124 040e 86ED237A 		vstr.32	s14, [r6, #140]
 506:Menus.cpp     ****         this->glideTime += this->encoderRight.Increment();
 2125              		.loc 2 506 9 is_stmt 1 view .LVU574
 507:Menus.cpp     ****         sprintf(this->buffPitchTime, "Time_%d%%", (int)this->glideTime);
 2126              		.loc 2 507 9 view .LVU575
ARM GAS  C:\Users\VINCIU~1\AppData\Local\Temp\ccYgfSqf.s 			page 70


 2127              	.LVL144:
 507:Menus.cpp     ****         sprintf(this->buffPitchTime, "Time_%d%%", (int)this->glideTime);
 2128              		.loc 2 507 9 is_stmt 0 view .LVU576
 2129              	.LBE795:
 2130              		.loc 3 41 40 is_stmt 1 view .LVU577
 2131              	.LBB796:
 508:Menus.cpp     ****         screen.DrawRect(67, 0, screen.Width() - 2, 13, true, false);
 2132              		.loc 2 508 9 view .LVU578
 508:Menus.cpp     ****         screen.DrawRect(67, 0, screen.Width() - 2, 13, true, false);
 2133              		.loc 2 508 16 is_stmt 0 view .LVU579
 2134 0412 16EE902A 		vmov	r2, s13	@ int
 2135 0416 FFF7FEFF 		bl	sprintf
 2136              	.LVL145:
 509:Menus.cpp     ****     }
 2137              		.loc 2 509 9 is_stmt 1 view .LVU580
 2138              	.LBB653:
 2139              	.LBI653:
 217:../../libdaisy/src/hid/disp/display.h ****                   uint_fast8_t y1,
 2140              		.loc 5 217 10 view .LVU581
 2141              	.LBB654:
 2142              	.LBI654:
 181:../../libdaisy/src/hid/disp/display.h ****                   uint_fast8_t y1,
 2143              		.loc 5 181 10 view .LVU582
 2144              	.LBB655:
 2145              	.LBB656:
 2146              	.LBI656:
  41:../../libdaisy/src/hid/disp/oled_display.h ****     {
 2147              		.loc 1 41 10 view .LVU583
 2148              	.LBB657:
 2149              	.LBI657:
 239:../../libdaisy/src/dev/oled_ssd130x.h ****     {
 2150              		.loc 6 239 10 view .LVU584
 2151              	.LBB658:
 244:../../libdaisy/src/dev/oled_ssd130x.h ****         else
 2152              		.loc 6 244 42 is_stmt 0 view .LVU585
 2153 041a 94F89220 		ldrb	r2, [r4, #146]	@ zero_extendqisi2
 2154 041e 04F15603 		add	r3, r4, #86
 2155 0422 04F19101 		add	r1, r4, #145
 2156 0426 42F00102 		orr	r2, r2, #1
 2157 042a 84F89220 		strb	r2, [r4, #146]
 2158              	.LVL146:
 244:../../libdaisy/src/dev/oled_ssd130x.h ****         else
 2159              		.loc 6 244 42 view .LVU586
 2160              	.LBE658:
 2161              	.LBE657:
 2162              	.LBE656:
 199:../../libdaisy/src/hid/disp/display.h ****         {
 2163              		.loc 5 199 26 is_stmt 1 view .LVU587
 2164              	.L98:
 2165              	.LBB659:
 2166              	.LBI659:
  41:../../libdaisy/src/hid/disp/oled_display.h ****     {
 2167              		.loc 1 41 10 view .LVU588
 2168              	.LBB660:
 2169              	.LBI660:
 239:../../libdaisy/src/dev/oled_ssd130x.h ****     {
 2170              		.loc 6 239 10 view .LVU589
ARM GAS  C:\Users\VINCIU~1\AppData\Local\Temp\ccYgfSqf.s 			page 71


 2171              	.LBB661:
 244:../../libdaisy/src/dev/oled_ssd130x.h ****         else
 2172              		.loc 6 244 42 is_stmt 0 view .LVU590
 2173 042e 13F8012F 		ldrb	r2, [r3, #1]!	@ zero_extendqisi2
 244:../../libdaisy/src/dev/oled_ssd130x.h ****         else
 2174              		.loc 6 244 42 view .LVU591
 2175 0432 42F00102 		orr	r2, r2, #1
 2176              	.LBE661:
 2177              	.LBE660:
 2178              	.LBE659:
 199:../../libdaisy/src/hid/disp/display.h ****         {
 2179              		.loc 5 199 26 view .LVU592
 2180 0436 9942     		cmp	r1, r3
 2181              	.LBB664:
 2182              	.LBB663:
 2183              	.LBB662:
 244:../../libdaisy/src/dev/oled_ssd130x.h ****         else
 2184              		.loc 6 244 42 view .LVU593
 2185 0438 1A70     		strb	r2, [r3]
 2186              	.LVL147:
 244:../../libdaisy/src/dev/oled_ssd130x.h ****         else
 2187              		.loc 6 244 42 view .LVU594
 2188              	.LBE662:
 2189              	.LBE663:
 2190              	.LBE664:
 199:../../libdaisy/src/hid/disp/display.h ****         {
 2191              		.loc 5 199 26 is_stmt 1 view .LVU595
 2192 043a F8D1     		bne	.L98
 2193              	.LVL148:
 199:../../libdaisy/src/hid/disp/display.h ****         {
 2194              		.loc 5 199 26 is_stmt 0 view .LVU596
 2195              	.LBE655:
 2196              	.LBE654:
 2197              	.LBB665:
 2198              	.LBI665:
 181:../../libdaisy/src/hid/disp/display.h ****                   uint_fast8_t y1,
 2199              		.loc 5 181 10 is_stmt 1 view .LVU597
 2200              	.LBB666:
 2201              	.LBB667:
 2202              	.LBI667:
  41:../../libdaisy/src/hid/disp/oled_display.h ****     {
 2203              		.loc 1 41 10 view .LVU598
 2204              	.LBB668:
 2205              	.LBI668:
 239:../../libdaisy/src/dev/oled_ssd130x.h ****     {
 2206              		.loc 6 239 10 view .LVU599
 2207              	.LBB669:
 244:../../libdaisy/src/dev/oled_ssd130x.h ****         else
 2208              		.loc 6 244 42 is_stmt 0 view .LVU600
 2209 043c 94F81221 		ldrb	r2, [r4, #274]	@ zero_extendqisi2
 2210 0440 0023     		movs	r3, #0
 2211 0442 42F02002 		orr	r2, r2, #32
 2212 0446 84F81221 		strb	r2, [r4, #274]
 2213              	.LVL149:
 244:../../libdaisy/src/dev/oled_ssd130x.h ****         else
 2214              		.loc 6 244 42 view .LVU601
 2215              	.LBE669:
ARM GAS  C:\Users\VINCIU~1\AppData\Local\Temp\ccYgfSqf.s 			page 72


 2216              	.LBE668:
 2217              	.LBE667:
 199:../../libdaisy/src/hid/disp/display.h ****         {
 2218              		.loc 5 199 26 is_stmt 1 view .LVU602
 2219              	.L99:
 2220              	.LBB670:
 2221              	.LBI670:
  41:../../libdaisy/src/hid/disp/oled_display.h ****     {
 2222              		.loc 1 41 10 view .LVU603
 2223              	.LBB671:
 2224              	.LBI671:
 239:../../libdaisy/src/dev/oled_ssd130x.h ****     {
 2225              		.loc 6 239 10 view .LVU604
 2226              	.LBB672:
 244:../../libdaisy/src/dev/oled_ssd130x.h ****         else
 2227              		.loc 6 244 28 is_stmt 0 view .LVU605
 2228 044a D908     		lsrs	r1, r3, #3
 244:../../libdaisy/src/dev/oled_ssd130x.h ****         else
 2229              		.loc 6 244 54 view .LVU606
 2230 044c 03F00700 		and	r0, r3, #7
 244:../../libdaisy/src/dev/oled_ssd130x.h ****         else
 2231              		.loc 6 244 48 view .LVU607
 2232 0450 0122     		movs	r2, #1
 244:../../libdaisy/src/dev/oled_ssd130x.h ****         else
 2233              		.loc 6 244 42 view .LVU608
 2234 0452 04EBC111 		add	r1, r4, r1, lsl #7
 2235              	.LBE672:
 2236              	.LBE671:
 2237              	.LBE670:
 212:../../libdaisy/src/hid/disp/display.h ****             }
 2238              		.loc 5 212 20 view .LVU609
 2239 0456 1344     		add	r3, r3, r2
 2240              	.LVL150:
 2241              	.LBB677:
 2242              	.LBB675:
 2243              	.LBB673:
 244:../../libdaisy/src/dev/oled_ssd130x.h ****         else
 2244              		.loc 6 244 48 view .LVU610
 2245 0458 8240     		lsls	r2, r2, r0
 244:../../libdaisy/src/dev/oled_ssd130x.h ****         else
 2246              		.loc 6 244 42 view .LVU611
 2247 045a 91F89200 		ldrb	r0, [r1, #146]	@ zero_extendqisi2
 2248              	.LBE673:
 2249              	.LBE675:
 2250              	.LBE677:
 199:../../libdaisy/src/hid/disp/display.h ****         {
 2251              		.loc 5 199 26 view .LVU612
 2252 045e 0D2B     		cmp	r3, #13
 2253              	.LBB678:
 2254              	.LBB676:
 2255              	.LBB674:
 244:../../libdaisy/src/dev/oled_ssd130x.h ****         else
 2256              		.loc 6 244 42 view .LVU613
 2257 0460 42EA0002 		orr	r2, r2, r0
 2258 0464 81F89220 		strb	r2, [r1, #146]
 2259              	.LVL151:
 244:../../libdaisy/src/dev/oled_ssd130x.h ****         else
ARM GAS  C:\Users\VINCIU~1\AppData\Local\Temp\ccYgfSqf.s 			page 73


 2260              		.loc 6 244 42 view .LVU614
 2261              	.LBE674:
 2262              	.LBE676:
 2263              	.LBE678:
 199:../../libdaisy/src/hid/disp/display.h ****         {
 2264              		.loc 5 199 26 is_stmt 1 view .LVU615
 2265 0468 EFD1     		bne	.L99
 2266              	.LVL152:
 199:../../libdaisy/src/hid/disp/display.h ****         {
 2267              		.loc 5 199 26 is_stmt 0 view .LVU616
 2268              	.LBE666:
 2269              	.LBE665:
 2270              	.LBB679:
 2271              	.LBI679:
 181:../../libdaisy/src/hid/disp/display.h ****                   uint_fast8_t y1,
 2272              		.loc 5 181 10 is_stmt 1 view .LVU617
 2273              	.LBB680:
 2274              	.LBB681:
 2275              	.LBI681:
  41:../../libdaisy/src/hid/disp/oled_display.h ****     {
 2276              		.loc 1 41 10 view .LVU618
 2277              	.LBB682:
 2278              	.LBI682:
 239:../../libdaisy/src/dev/oled_ssd130x.h ****     {
 2279              		.loc 6 239 10 view .LVU619
 2280              	.LBB683:
 244:../../libdaisy/src/dev/oled_ssd130x.h ****         else
 2281              		.loc 6 244 42 is_stmt 0 view .LVU620
 2282 046a 94F8D720 		ldrb	r2, [r4, #215]	@ zero_extendqisi2
 2283 046e 04F1D800 		add	r0, r4, #216
 2284 0472 42F02002 		orr	r2, r2, #32
 2285 0476 84F8D720 		strb	r2, [r4, #215]
 2286              	.LVL153:
 244:../../libdaisy/src/dev/oled_ssd130x.h ****         else
 2287              		.loc 6 244 42 view .LVU621
 2288              	.LBE683:
 2289              	.LBE682:
 2290              	.LBE681:
 199:../../libdaisy/src/hid/disp/display.h ****         {
 2291              		.loc 5 199 26 is_stmt 1 view .LVU622
 2292 047a 04F21312 		addw	r2, r4, #275
 2293              	.LVL154:
 2294              	.L100:
 2295              	.LBB684:
 2296              	.LBI684:
  41:../../libdaisy/src/hid/disp/oled_display.h ****     {
 2297              		.loc 1 41 10 view .LVU623
 2298              	.LBB685:
 2299              	.LBI685:
 239:../../libdaisy/src/dev/oled_ssd130x.h ****     {
 2300              		.loc 6 239 10 view .LVU624
 2301              	.LBB686:
 244:../../libdaisy/src/dev/oled_ssd130x.h ****         else
 2302              		.loc 6 244 42 is_stmt 0 view .LVU625
 2303 047e 12F8011D 		ldrb	r1, [r2, #-1]!	@ zero_extendqisi2
 244:../../libdaisy/src/dev/oled_ssd130x.h ****         else
 2304              		.loc 6 244 42 view .LVU626
ARM GAS  C:\Users\VINCIU~1\AppData\Local\Temp\ccYgfSqf.s 			page 74


 2305 0482 41F02001 		orr	r1, r1, #32
 2306              	.LBE686:
 2307              	.LBE685:
 2308              	.LBE684:
 199:../../libdaisy/src/hid/disp/display.h ****         {
 2309              		.loc 5 199 26 view .LVU627
 2310 0486 9042     		cmp	r0, r2
 2311              	.LBB689:
 2312              	.LBB688:
 2313              	.LBB687:
 244:../../libdaisy/src/dev/oled_ssd130x.h ****         else
 2314              		.loc 6 244 42 view .LVU628
 2315 0488 1170     		strb	r1, [r2]
 2316              	.LVL155:
 244:../../libdaisy/src/dev/oled_ssd130x.h ****         else
 2317              		.loc 6 244 42 view .LVU629
 2318              	.LBE687:
 2319              	.LBE688:
 2320              	.LBE689:
 199:../../libdaisy/src/hid/disp/display.h ****         {
 2321              		.loc 5 199 26 is_stmt 1 view .LVU630
 2322 048a F8D1     		bne	.L100
 2323              	.LVL156:
 199:../../libdaisy/src/hid/disp/display.h ****         {
 2324              		.loc 5 199 26 is_stmt 0 view .LVU631
 2325              	.LBE680:
 2326              	.LBE679:
 2327              	.LBB690:
 2328              	.LBI690:
 181:../../libdaisy/src/hid/disp/display.h ****                   uint_fast8_t y1,
 2329              		.loc 5 181 10 is_stmt 1 view .LVU632
 2330              	.LBB691:
 2331              	.LBB692:
 2332              	.LBI692:
  41:../../libdaisy/src/hid/disp/oled_display.h ****     {
 2333              		.loc 1 41 10 view .LVU633
 2334              	.LBB693:
 2335              	.LBI693:
 239:../../libdaisy/src/dev/oled_ssd130x.h ****     {
 2336              		.loc 6 239 10 view .LVU634
 2337              	.LBB694:
 244:../../libdaisy/src/dev/oled_ssd130x.h ****         else
 2338              		.loc 6 244 42 is_stmt 0 view .LVU635
 2339 048c 94F85720 		ldrb	r2, [r4, #87]	@ zero_extendqisi2
 2340 0490 42F00102 		orr	r2, r2, #1
 2341 0494 84F85720 		strb	r2, [r4, #87]
 2342              	.LVL157:
 244:../../libdaisy/src/dev/oled_ssd130x.h ****         else
 2343              		.loc 6 244 42 view .LVU636
 2344              	.LBE694:
 2345              	.LBE693:
 2346              	.LBE692:
 199:../../libdaisy/src/hid/disp/display.h ****         {
 2347              		.loc 5 199 26 is_stmt 1 view .LVU637
 2348              	.L102:
 2349              	.LBB695:
 2350              	.LBI695:
ARM GAS  C:\Users\VINCIU~1\AppData\Local\Temp\ccYgfSqf.s 			page 75


  41:../../libdaisy/src/hid/disp/oled_display.h ****     {
 2351              		.loc 1 41 10 view .LVU638
 2352              	.LBB696:
 2353              	.LBI696:
 239:../../libdaisy/src/dev/oled_ssd130x.h ****     {
 2354              		.loc 6 239 10 view .LVU639
 2355              	.LBB697:
 244:../../libdaisy/src/dev/oled_ssd130x.h ****         else
 2356              		.loc 6 244 28 is_stmt 0 view .LVU640
 2357 0498 D908     		lsrs	r1, r3, #3
 244:../../libdaisy/src/dev/oled_ssd130x.h ****         else
 2358              		.loc 6 244 54 view .LVU641
 2359 049a 03F00700 		and	r0, r3, #7
 244:../../libdaisy/src/dev/oled_ssd130x.h ****         else
 2360              		.loc 6 244 48 view .LVU642
 2361 049e 0122     		movs	r2, #1
 2362              	.LBE697:
 2363              	.LBE696:
 2364              	.LBE695:
 199:../../libdaisy/src/hid/disp/display.h ****         {
 2365              		.loc 5 199 26 view .LVU643
 2366 04a0 013B     		subs	r3, r3, #1
 2367              	.LVL158:
 2368              	.LBB700:
 2369              	.LBB699:
 2370              	.LBB698:
 244:../../libdaisy/src/dev/oled_ssd130x.h ****         else
 2371              		.loc 6 244 42 view .LVU644
 2372 04a2 04EBC111 		add	r1, r4, r1, lsl #7
 244:../../libdaisy/src/dev/oled_ssd130x.h ****         else
 2373              		.loc 6 244 48 view .LVU645
 2374 04a6 02FA00F2 		lsl	r2, r2, r0
 244:../../libdaisy/src/dev/oled_ssd130x.h ****         else
 2375              		.loc 6 244 42 view .LVU646
 2376 04aa 91F85700 		ldrb	r0, [r1, #87]	@ zero_extendqisi2
 2377 04ae 42EA0002 		orr	r2, r2, r0
 2378 04b2 81F85720 		strb	r2, [r1, #87]
 2379              	.LVL159:
 244:../../libdaisy/src/dev/oled_ssd130x.h ****         else
 2380              		.loc 6 244 42 view .LVU647
 2381              	.LBE698:
 2382              	.LBE699:
 2383              	.LBE700:
 199:../../libdaisy/src/hid/disp/display.h ****         {
 2384              		.loc 5 199 26 is_stmt 1 view .LVU648
 2385 04b6 EFD1     		bne	.L102
 2386 04b8 D7E5     		b	.L101
 2387              	.LVL160:
 2388              	.L123:
 199:../../libdaisy/src/hid/disp/display.h ****         {
 2389              		.loc 5 199 26 is_stmt 0 view .LVU649
 2390              	.LBE691:
 2391              	.LBE690:
 2392              	.LBE653:
 2393 04ba F0EE476A 		vmov.f32	s13, s14
 2394 04be 96E7     		b	.L97
 2395              	.L151:
ARM GAS  C:\Users\VINCIU~1\AppData\Local\Temp\ccYgfSqf.s 			page 76


 493:Menus.cpp     ****         {
 2396              		.loc 2 493 9 is_stmt 1 view .LVU650
 2397 04c0 B5EEC07A 		vcmpe.f32	s14, #0
 2398 04c4 0023     		movs	r3, #0
 2399 04c6 F1EE10FA 		vmrs	APSR_nzcv, FPSCR
 495:Menus.cpp     ****         }
 2400              		.loc 2 495 13 view .LVU651
 495:Menus.cpp     ****         }
 2401              		.loc 2 495 33 is_stmt 0 view .LVU652
 2402 04ca 98BF     		it	ls
 2403 04cc C6F88830 		strls	r3, [r6, #136]	@ float
 2404 04d0 7BE7     		b	.L95
 2405              	.L121:
 495:Menus.cpp     ****         }
 2406              		.loc 2 495 33 view .LVU653
 2407 04d2 F0EE477A 		vmov.f32	s15, s14
 2408 04d6 6DE7     		b	.L92
 2409              	.L158:
 2410              	.LBB701:
 468:Menus.cpp     ****         this->glideInit += this->encoderRight.Increment();
 2411              		.loc 2 468 58 view .LVU654
 2412 04d8 03F1D402 		add	r2, r3, #212
 468:Menus.cpp     ****         this->glideInit += this->encoderRight.Increment();
 2413              		.loc 2 468 65 view .LVU655
 2414 04dc 06EE902A 		vmov	s13, r2	@ int
 468:Menus.cpp     ****         this->glideInit += this->encoderRight.Increment();
 2415              		.loc 2 468 38 view .LVU656
 2416 04e0 9FED075B 		vldr.64	d5, .L163
 2417 04e4 9FED087B 		vldr.64	d7, .L163+8
 468:Menus.cpp     ****         this->glideInit += this->encoderRight.Increment();
 2418              		.loc 2 468 65 view .LVU657
 2419 04e8 B8EEE66B 		vcvt.f64.s32	d6, s13
 468:Menus.cpp     ****         this->glideInit += this->encoderRight.Increment();
 2420              		.loc 2 468 38 view .LVU658
 2421 04ec A6EE457B 		vfms.f64	d7, d6, d5
 468:Menus.cpp     ****         this->glideInit += this->encoderRight.Increment();
 2422              		.loc 2 468 20 view .LVU659
 2423 04f0 FDEEC77B 		vcvt.s32.f64	s15, d7
 470:Menus.cpp     **** 
 2424              		.loc 2 470 29 view .LVU660
 2425 04f4 F8EEE77A 		vcvt.f32.s32	s15, s15
 2426 04f8 11E6     		b	.L85
 2427              	.L164:
 2428 04fa 00BFAFF3 		.align	3
 2428      0080
 2429              	.L163:
 2430 0500 33333333 		.word	858993459
 2431 0504 3333C33F 		.word	1069757235
 2432 0508 00000000 		.word	0
 2433 050c 00005040 		.word	1078984704
 2434 0510 0C000000 		.word	.LC2
 2435              	.LBE701:
 2436              	.LBE796:
 2437              		.cfi_endproc
 2438              	.LFE4040:
 2440              		.section	.rodata._ZN5Menus5Menu3E23OledDisplayExtravaganzaPN7daisysp10OscillatorE.str1.4,"aMS",%pr
 2441              		.align	2
ARM GAS  C:\Users\VINCIU~1\AppData\Local\Temp\ccYgfSqf.s 			page 77


 2442              	.LC3:
 2443 0000 4100     		.ascii	"A\000"
 2444 0002 0000     		.align	2
 2445              	.LC4:
 2446 0004 4400     		.ascii	"D\000"
 2447 0006 0000     		.align	2
 2448              	.LC5:
 2449 0008 5300     		.ascii	"S\000"
 2450 000a 0000     		.align	2
 2451              	.LC6:
 2452 000c 5200     		.ascii	"R\000"
 2453              		.section	.text._ZN5Menus5Menu3E23OledDisplayExtravaganzaPN7daisysp10OscillatorE,"ax",%progbits
 2454              		.align	1
 2455              		.p2align 2,,3
 2456              		.global	_ZN5Menus5Menu3E23OledDisplayExtravaganzaPN7daisysp10OscillatorE
 2457              		.syntax unified
 2458              		.thumb
 2459              		.thumb_func
 2460              		.fpu fpv5-d16
 2462              	_ZN5Menus5Menu3E23OledDisplayExtravaganzaPN7daisysp10OscillatorE:
 2463              	.LVL161:
 2464              	.LFB4041:
 527:Menus.cpp     **** 
 528:Menus.cpp     **** 
 529:Menus.cpp     **** void Menus::Menu3(OledDisplayExtravaganza screen, daisysp::Oscillator osc[])
 530:Menus.cpp     **** {
 2465              		.loc 2 530 1 is_stmt 1 view -0
 2466              		.cfi_startproc
 2467              		@ args = 0, pretend = 0, frame = 24
 2468              		@ frame_needed = 0, uses_anonymous_args = 0
 2469              		.loc 2 530 1 is_stmt 0 view .LVU662
 2470 0000 2DE9F04F 		push	{r4, r5, r6, r7, r8, r9, r10, fp, lr}
 2471              		.cfi_def_cfa_offset 36
 2472              		.cfi_offset 4, -36
 2473              		.cfi_offset 5, -32
 2474              		.cfi_offset 6, -28
 2475              		.cfi_offset 7, -24
 2476              		.cfi_offset 8, -20
 2477              		.cfi_offset 9, -16
 2478              		.cfi_offset 10, -12
 2479              		.cfi_offset 11, -8
 2480              		.cfi_offset 14, -4
 2481 0004 0C46     		mov	r4, r1
 2482 0006 0746     		mov	r7, r0
 531:Menus.cpp     ****     screen.Fill(false);
 2483              		.loc 2 531 5 is_stmt 1 view .LVU663
 2484              	.LVL162:
 2485              	.LBB1204:
 2486              	.LBI1204:
  33:../../libdaisy/src/hid/disp/oled_display.h **** 
 2487              		.loc 1 33 10 view .LVU664
 2488              	.LBB1205:
 2489              	.LBI1205:
 249:../../libdaisy/src/dev/oled_ssd130x.h ****     {
 2490              		.loc 6 249 10 view .LVU665
 2491              	.LBB1206:
 251:../../libdaisy/src/dev/oled_ssd130x.h ****         {
ARM GAS  C:\Users\VINCIU~1\AppData\Local\Temp\ccYgfSqf.s 			page 78


 2492              		.loc 6 251 29 view .LVU666
 2493              	.LBE1206:
 2494              	.LBE1205:
 2495              	.LBE1204:
 530:Menus.cpp     ****     screen.Fill(false);
 2496              		.loc 2 530 1 is_stmt 0 view .LVU667
 2497 0008 89B0     		sub	sp, sp, #36
 2498              		.cfi_def_cfa_offset 72
 2499              	.LBB1209:
 2500              	.LBB1208:
 2501              	.LBB1207:
 253:../../libdaisy/src/dev/oled_ssd130x.h ****         }
 2502              		.loc 6 253 24 view .LVU668
 2503 000a 4FF48062 		mov	r2, #1024
 2504              	.LVL163:
 253:../../libdaisy/src/dev/oled_ssd130x.h ****         }
 2505              		.loc 6 253 24 view .LVU669
 2506 000e 0021     		movs	r1, #0
 2507              	.LVL164:
 253:../../libdaisy/src/dev/oled_ssd130x.h ****         }
 2508              		.loc 6 253 24 view .LVU670
 2509 0010 04F11400 		add	r0, r4, #20
 2510              	.LVL165:
 253:../../libdaisy/src/dev/oled_ssd130x.h ****         }
 2511              		.loc 6 253 24 view .LVU671
 2512 0014 FFF7FEFF 		bl	memset
 2513              	.LVL166:
 253:../../libdaisy/src/dev/oled_ssd130x.h ****         }
 2514              		.loc 6 253 24 view .LVU672
 2515              	.LBE1207:
 2516              	.LBE1208:
 2517              	.LBE1209:
 532:Menus.cpp     ****     if(this->buttonLeft.RisingEdge())
 2518              		.loc 2 532 5 is_stmt 1 view .LVU673
 2519              	.LBB1210:
 2520              	.LBI1210:
 2521              		.loc 4 69 17 view .LVU674
 2522              	.LBB1211:
 2523              		.loc 4 69 38 view .LVU675
 2524              		.loc 4 69 38 is_stmt 0 view .LVU676
 2525              	.LBE1211:
 2526              	.LBE1210:
 2527              		.loc 2 532 5 view .LVU677
 2528 0018 97F85130 		ldrb	r3, [r7, #81]	@ zero_extendqisi2
 2529 001c 7F2B     		cmp	r3, #127
 533:Menus.cpp     **** 
 534:Menus.cpp     ****     {
 535:Menus.cpp     ****         this->menuStateEnv = this->menuStateEnv - 1;
 2530              		.loc 2 535 49 view .LVU678
 2531 001e D7F8A431 		ldr	r3, [r7, #420]
 532:Menus.cpp     ****     if(this->buttonLeft.RisingEdge())
 2532              		.loc 2 532 5 view .LVU679
 2533 0022 00F0B683 		beq	.L349
 2534              	.L168:
 536:Menus.cpp     ****         if(this->menuStateEnv < 0)
 537:Menus.cpp     ****         {
 538:Menus.cpp     ****             this->menuStateEnv = 3;
ARM GAS  C:\Users\VINCIU~1\AppData\Local\Temp\ccYgfSqf.s 			page 79


 539:Menus.cpp     ****         }
 540:Menus.cpp     ****     }
 541:Menus.cpp     ****     if(this->buttonRight.RisingEdge())
 2535              		.loc 2 541 5 is_stmt 1 view .LVU680
 2536              	.LVL167:
 2537              	.LBB1212:
 2538              	.LBI1212:
 2539              		.loc 4 69 17 view .LVU681
 2540              	.LBB1213:
 2541              		.loc 4 69 38 view .LVU682
 2542              		.loc 4 69 38 is_stmt 0 view .LVU683
 2543              	.LBE1213:
 2544              	.LBE1212:
 2545              		.loc 2 541 5 view .LVU684
 2546 0026 97F86120 		ldrb	r2, [r7, #97]	@ zero_extendqisi2
 2547 002a 7F2A     		cmp	r2, #127
 2548 002c 00F05D82 		beq	.L350
 2549              	.L171:
 542:Menus.cpp     **** 
 543:Menus.cpp     ****     {
 544:Menus.cpp     ****         this->menuStateEnv = this->menuStateEnv + 1;
 545:Menus.cpp     ****         if(this->menuStateEnv > 3)
 546:Menus.cpp     ****         {
 547:Menus.cpp     ****             this->menuStateEnv = 0;
 548:Menus.cpp     ****         }
 549:Menus.cpp     ****     }
 550:Menus.cpp     ****     if(menuStateEnv == 0)
 2550              		.loc 2 550 5 is_stmt 1 view .LVU685
 2551 0030 002B     		cmp	r3, #0
 2552 0032 00F06382 		beq	.L170
 551:Menus.cpp     ****     {
 552:Menus.cpp     ****         this->attackTime += this->encoderRight.Increment() * 3.3;
 553:Menus.cpp     ****         this->attackTimeScaleDraw += this->encoderRight.Increment();
 554:Menus.cpp     ****         if(attackTimeScaleDraw >= screen.Width() / 4)
 555:Menus.cpp     ****         {
 556:Menus.cpp     ****             attackTimeScaleDraw = screen.Width() / 4;
 557:Menus.cpp     ****         }
 558:Menus.cpp     ****         if(attackTimeScaleDraw <= 0)
 559:Menus.cpp     ****         {
 560:Menus.cpp     ****             attackTimeScaleDraw = 0;
 561:Menus.cpp     ****         }
 562:Menus.cpp     ****         if(attackTime >= 100)
 563:Menus.cpp     ****         {
 564:Menus.cpp     ****             attackTime = 100;
 565:Menus.cpp     ****         }
 566:Menus.cpp     ****         if(attackTime <= 0)
 567:Menus.cpp     ****         {
 568:Menus.cpp     ****             attackTime = 0;
 569:Menus.cpp     ****         }
 570:Menus.cpp     ****         screen.DrawRect(28, 0, 40, 13, true, false);
 571:Menus.cpp     ****     }
 572:Menus.cpp     ****     if(menuStateEnv == 1)
 2553              		.loc 2 572 5 view .LVU686
 2554 0036 012B     		cmp	r3, #1
 2555 0038 40F0F482 		bne	.L187
 573:Menus.cpp     ****     {
 574:Menus.cpp     ****         this->decayTime += this->encoderRight.Increment() * 3.3;
ARM GAS  C:\Users\VINCIU~1\AppData\Local\Temp\ccYgfSqf.s 			page 80


 2556              		.loc 2 574 9 view .LVU687
 2557              	.LVL168:
 2558              	.LBB1215:
 2559              	.LBI1215:
 2560              		.loc 3 41 20 view .LVU688
 2561              	.LBB1216:
 2562              		.loc 3 41 40 view .LVU689
 2563              		.loc 3 41 40 is_stmt 0 view .LVU690
 2564              	.LBE1216:
 2565              	.LBE1215:
 2566              		.loc 2 574 25 view .LVU691
 2567 003c 97ED677A 		vldr.32	s14, [r7, #412]
 2568              		.loc 2 574 59 view .LVU692
 2569 0040 D7ED127A 		vldr.32	s15, [r7, #72]	@ int
 575:Menus.cpp     ****         this->decayTimeScaleDraw += this->encoderRight.Increment();
 2570              		.loc 2 575 34 view .LVU693
 2571 0044 D7ED126A 		vldr.32	s13, [r7, #72]	@ int
 574:Menus.cpp     ****         this->decayTimeScaleDraw += this->encoderRight.Increment();
 2572              		.loc 2 574 59 view .LVU694
 2573 0048 B8EEE73B 		vcvt.f64.s32	d3, s15
 2574              		.loc 2 575 34 view .LVU695
 2575 004c D7ED6A5A 		vldr.32	s11, [r7, #424]
 574:Menus.cpp     ****         this->decayTimeScaleDraw += this->encoderRight.Increment();
 2576              		.loc 2 574 25 view .LVU696
 2577 0050 B7EEC77A 		vcvt.f64.f32	d7, s14
 576:Menus.cpp     ****         if(decayTimeScaleDraw >= screen.Width() / 4)
 2578              		.loc 2 576 9 view .LVU697
 2579 0054 9FEDCA6A 		vldr.32	s12, .L361+8
 575:Menus.cpp     ****         this->decayTimeScaleDraw += this->encoderRight.Increment();
 2580              		.loc 2 575 34 view .LVU698
 2581 0058 F8EEE66A 		vcvt.f32.s32	s13, s13
 574:Menus.cpp     ****         this->decayTimeScaleDraw += this->encoderRight.Increment();
 2582              		.loc 2 574 25 view .LVU699
 2583 005c 9FEDC64B 		vldr.64	d4, .L361
 575:Menus.cpp     ****         this->decayTimeScaleDraw += this->encoderRight.Increment();
 2584              		.loc 2 575 34 view .LVU700
 2585 0060 76EEA56A 		vadd.f32	s13, s13, s11
 574:Menus.cpp     ****         this->decayTimeScaleDraw += this->encoderRight.Increment();
 2586              		.loc 2 574 25 view .LVU701
 2587 0064 A3EE047B 		vfma.f64	d7, d3, d4
 2588              		.loc 2 576 9 view .LVU702
 2589 0068 F4EEC66A 		vcmpe.f32	s13, s12
 2590 006c F1EE10FA 		vmrs	APSR_nzcv, FPSCR
 574:Menus.cpp     ****         this->decayTimeScaleDraw += this->encoderRight.Increment();
 2591              		.loc 2 574 25 view .LVU703
 2592 0070 B7EEC77B 		vcvt.f32.f64	s14, d7
 2593 0074 87ED677A 		vstr.32	s14, [r7, #412]
 575:Menus.cpp     ****         this->decayTimeScaleDraw += this->encoderRight.Increment();
 2594              		.loc 2 575 9 is_stmt 1 view .LVU704
 2595              	.LVL169:
 2596              		.loc 3 41 40 view .LVU705
 2597              		.loc 2 576 9 view .LVU706
 2598 0078 80F24484 		bge	.L351
 577:Menus.cpp     ****         {
 578:Menus.cpp     ****             decayTimeScaleDraw = screen.Width() / 4;
 579:Menus.cpp     ****         }
 580:Menus.cpp     ****         if(decayTimeScaleDraw <= 0)
ARM GAS  C:\Users\VINCIU~1\AppData\Local\Temp\ccYgfSqf.s 			page 81


 2599              		.loc 2 580 9 view .LVU707
 2600 007c F5EEC06A 		vcmpe.f32	s13, #0
 581:Menus.cpp     ****         {
 582:Menus.cpp     ****             decayTimeScaleDraw = 0;
 583:Menus.cpp     ****         }
 584:Menus.cpp     ****         if(decayTime >= 100)
 2601              		.loc 2 584 9 is_stmt 0 view .LVU708
 2602 0080 DFEDC07A 		vldr.32	s15, .L361+12
 580:Menus.cpp     ****         {
 2603              		.loc 2 580 9 view .LVU709
 2604 0084 0023     		movs	r3, #0
 2605 0086 F1EE10FA 		vmrs	APSR_nzcv, FPSCR
 2606              		.loc 2 584 9 view .LVU710
 2607 008a B4EEE77A 		vcmpe.f32	s14, s15
 575:Menus.cpp     ****         if(decayTimeScaleDraw >= screen.Width() / 4)
 2608              		.loc 2 575 34 view .LVU711
 2609 008e 8CBF     		ite	hi
 2610 0090 C7ED6A6A 		vstrhi.32	s13, [r7, #424]
 582:Menus.cpp     ****         }
 2611              		.loc 2 582 13 is_stmt 1 view .LVU712
 582:Menus.cpp     ****         }
 2612              		.loc 2 582 32 is_stmt 0 view .LVU713
 2613 0094 C7F8A831 		strls	r3, [r7, #424]	@ float
 2614              		.loc 2 584 9 is_stmt 1 view .LVU714
 2615 0098 F1EE10FA 		vmrs	APSR_nzcv, FPSCR
 2616 009c C0F23C84 		blt	.L341
 2617              	.L360:
 585:Menus.cpp     ****         {
 586:Menus.cpp     ****             decayTime = 100;
 2618              		.loc 2 586 13 view .LVU715
 2619              		.loc 2 586 23 is_stmt 0 view .LVU716
 2620 00a0 C7ED677A 		vstr.32	s15, [r7, #412]
 587:Menus.cpp     ****         }
 588:Menus.cpp     ****         if(decayTime <= 0)
 2621              		.loc 2 588 9 is_stmt 1 view .LVU717
 2622              	.L194:
 589:Menus.cpp     ****         {
 590:Menus.cpp     ****             decayTime = 0;
 591:Menus.cpp     ****         }
 592:Menus.cpp     ****         screen.DrawRect(44, 0, 56, 13, true, false);
 2623              		.loc 2 592 9 view .LVU718
 2624              	.LVL170:
 2625              	.LBB1217:
 2626              	.LBI1217:
 217:../../libdaisy/src/hid/disp/display.h ****                   uint_fast8_t y1,
 2627              		.loc 5 217 10 view .LVU719
 2628              	.LBB1218:
 2629              	.LBI1218:
 181:../../libdaisy/src/hid/disp/display.h ****                   uint_fast8_t y1,
 2630              		.loc 5 181 10 view .LVU720
 2631              	.LBB1219:
 2632              	.LBB1220:
 2633              	.LBI1220:
  41:../../libdaisy/src/hid/disp/oled_display.h ****     {
 2634              		.loc 1 41 10 view .LVU721
 2635              	.LBB1221:
 2636              	.LBI1221:
ARM GAS  C:\Users\VINCIU~1\AppData\Local\Temp\ccYgfSqf.s 			page 82


 239:../../libdaisy/src/dev/oled_ssd130x.h ****     {
 2637              		.loc 6 239 10 view .LVU722
 2638              	.LBB1222:
 244:../../libdaisy/src/dev/oled_ssd130x.h ****         else
 2639              		.loc 6 244 42 is_stmt 0 view .LVU723
 2640 00a4 0122     		movs	r2, #1
 2641 00a6 04F13F03 		add	r3, r4, #63
 2642 00aa 04F14B01 		add	r1, r4, #75
 2643 00ae 84F84C20 		strb	r2, [r4, #76]
 2644              	.LVL171:
 244:../../libdaisy/src/dev/oled_ssd130x.h ****         else
 2645              		.loc 6 244 42 view .LVU724
 2646              	.LBE1222:
 2647              	.LBE1221:
 2648              	.LBE1220:
 199:../../libdaisy/src/hid/disp/display.h ****         {
 2649              		.loc 5 199 26 is_stmt 1 view .LVU725
 2650              	.L196:
 2651              	.LBB1223:
 2652              	.LBI1223:
  41:../../libdaisy/src/hid/disp/oled_display.h ****     {
 2653              		.loc 1 41 10 view .LVU726
 2654              	.LBB1224:
 2655              	.LBI1224:
 239:../../libdaisy/src/dev/oled_ssd130x.h ****     {
 2656              		.loc 6 239 10 view .LVU727
 2657              	.LBB1225:
 244:../../libdaisy/src/dev/oled_ssd130x.h ****         else
 2658              		.loc 6 244 42 is_stmt 0 view .LVU728
 2659 00b2 13F8012F 		ldrb	r2, [r3, #1]!	@ zero_extendqisi2
 244:../../libdaisy/src/dev/oled_ssd130x.h ****         else
 2660              		.loc 6 244 42 view .LVU729
 2661 00b6 42F00102 		orr	r2, r2, #1
 2662              	.LBE1225:
 2663              	.LBE1224:
 2664              	.LBE1223:
 199:../../libdaisy/src/hid/disp/display.h ****         {
 2665              		.loc 5 199 26 view .LVU730
 2666 00ba 9942     		cmp	r1, r3
 2667              	.LBB1228:
 2668              	.LBB1227:
 2669              	.LBB1226:
 244:../../libdaisy/src/dev/oled_ssd130x.h ****         else
 2670              		.loc 6 244 42 view .LVU731
 2671 00bc 1A70     		strb	r2, [r3]
 2672              	.LVL172:
 244:../../libdaisy/src/dev/oled_ssd130x.h ****         else
 2673              		.loc 6 244 42 view .LVU732
 2674              	.LBE1226:
 2675              	.LBE1227:
 2676              	.LBE1228:
 199:../../libdaisy/src/hid/disp/display.h ****         {
 2677              		.loc 5 199 26 is_stmt 1 view .LVU733
 2678 00be F8D1     		bne	.L196
 2679              	.LVL173:
 199:../../libdaisy/src/hid/disp/display.h ****         {
 2680              		.loc 5 199 26 is_stmt 0 view .LVU734
ARM GAS  C:\Users\VINCIU~1\AppData\Local\Temp\ccYgfSqf.s 			page 83


 2681              	.LBE1219:
 2682              	.LBE1218:
 2683              	.LBB1229:
 2684              	.LBI1229:
 181:../../libdaisy/src/hid/disp/display.h ****                   uint_fast8_t y1,
 2685              		.loc 5 181 10 is_stmt 1 view .LVU735
 2686              	.LBB1230:
 2687              	.LBB1231:
 2688              	.LBI1231:
  41:../../libdaisy/src/hid/disp/oled_display.h ****     {
 2689              		.loc 1 41 10 view .LVU736
 2690              	.LBB1232:
 2691              	.LBI1232:
 239:../../libdaisy/src/dev/oled_ssd130x.h ****     {
 2692              		.loc 6 239 10 view .LVU737
 2693              	.LBB1233:
 244:../../libdaisy/src/dev/oled_ssd130x.h ****         else
 2694              		.loc 6 244 42 is_stmt 0 view .LVU738
 2695 00c0 94F8CC20 		ldrb	r2, [r4, #204]	@ zero_extendqisi2
 2696 00c4 0023     		movs	r3, #0
 2697 00c6 42F02002 		orr	r2, r2, #32
 2698 00ca 84F8CC20 		strb	r2, [r4, #204]
 2699              	.LVL174:
 244:../../libdaisy/src/dev/oled_ssd130x.h ****         else
 2700              		.loc 6 244 42 view .LVU739
 2701              	.LBE1233:
 2702              	.LBE1232:
 2703              	.LBE1231:
 199:../../libdaisy/src/hid/disp/display.h ****         {
 2704              		.loc 5 199 26 is_stmt 1 view .LVU740
 2705              	.L197:
 2706              	.LBB1234:
 2707              	.LBI1234:
  41:../../libdaisy/src/hid/disp/oled_display.h ****     {
 2708              		.loc 1 41 10 view .LVU741
 2709              	.LBB1235:
 2710              	.LBI1235:
 239:../../libdaisy/src/dev/oled_ssd130x.h ****     {
 2711              		.loc 6 239 10 view .LVU742
 2712              	.LBB1236:
 244:../../libdaisy/src/dev/oled_ssd130x.h ****         else
 2713              		.loc 6 244 28 is_stmt 0 view .LVU743
 2714 00ce D908     		lsrs	r1, r3, #3
 244:../../libdaisy/src/dev/oled_ssd130x.h ****         else
 2715              		.loc 6 244 54 view .LVU744
 2716 00d0 03F00700 		and	r0, r3, #7
 244:../../libdaisy/src/dev/oled_ssd130x.h ****         else
 2717              		.loc 6 244 48 view .LVU745
 2718 00d4 0122     		movs	r2, #1
 244:../../libdaisy/src/dev/oled_ssd130x.h ****         else
 2719              		.loc 6 244 42 view .LVU746
 2720 00d6 04EBC111 		add	r1, r4, r1, lsl #7
 2721              	.LBE1236:
 2722              	.LBE1235:
 2723              	.LBE1234:
 212:../../libdaisy/src/hid/disp/display.h ****             }
 2724              		.loc 5 212 20 view .LVU747
ARM GAS  C:\Users\VINCIU~1\AppData\Local\Temp\ccYgfSqf.s 			page 84


 2725 00da 1344     		add	r3, r3, r2
 2726              	.LVL175:
 2727              	.LBB1241:
 2728              	.LBB1239:
 2729              	.LBB1237:
 244:../../libdaisy/src/dev/oled_ssd130x.h ****         else
 2730              		.loc 6 244 48 view .LVU748
 2731 00dc 8240     		lsls	r2, r2, r0
 244:../../libdaisy/src/dev/oled_ssd130x.h ****         else
 2732              		.loc 6 244 42 view .LVU749
 2733 00de 91F84C00 		ldrb	r0, [r1, #76]	@ zero_extendqisi2
 2734              	.LBE1237:
 2735              	.LBE1239:
 2736              	.LBE1241:
 199:../../libdaisy/src/hid/disp/display.h ****         {
 2737              		.loc 5 199 26 view .LVU750
 2738 00e2 0D2B     		cmp	r3, #13
 2739              	.LBB1242:
 2740              	.LBB1240:
 2741              	.LBB1238:
 244:../../libdaisy/src/dev/oled_ssd130x.h ****         else
 2742              		.loc 6 244 42 view .LVU751
 2743 00e4 42EA0002 		orr	r2, r2, r0
 2744 00e8 81F84C20 		strb	r2, [r1, #76]
 2745              	.LVL176:
 244:../../libdaisy/src/dev/oled_ssd130x.h ****         else
 2746              		.loc 6 244 42 view .LVU752
 2747              	.LBE1238:
 2748              	.LBE1240:
 2749              	.LBE1242:
 199:../../libdaisy/src/hid/disp/display.h ****         {
 2750              		.loc 5 199 26 is_stmt 1 view .LVU753
 2751 00ec EFD1     		bne	.L197
 2752              	.LVL177:
 199:../../libdaisy/src/hid/disp/display.h ****         {
 2753              		.loc 5 199 26 is_stmt 0 view .LVU754
 2754              	.LBE1230:
 2755              	.LBE1229:
 2756              	.LBB1243:
 2757              	.LBI1243:
 181:../../libdaisy/src/hid/disp/display.h ****                   uint_fast8_t y1,
 2758              		.loc 5 181 10 is_stmt 1 view .LVU755
 2759              	.LBB1244:
 2760              	.LBB1245:
 2761              	.LBI1245:
  41:../../libdaisy/src/hid/disp/oled_display.h ****     {
 2762              		.loc 1 41 10 view .LVU756
 2763              	.LBB1246:
 2764              	.LBI1246:
 239:../../libdaisy/src/dev/oled_ssd130x.h ****     {
 2765              		.loc 6 239 10 view .LVU757
 2766              	.LBB1247:
 244:../../libdaisy/src/dev/oled_ssd130x.h ****         else
 2767              		.loc 6 244 42 is_stmt 0 view .LVU758
 2768 00ee 94F8C010 		ldrb	r1, [r4, #192]	@ zero_extendqisi2
 2769 00f2 04F1CD02 		add	r2, r4, #205
 2770 00f6 04F1C100 		add	r0, r4, #193
ARM GAS  C:\Users\VINCIU~1\AppData\Local\Temp\ccYgfSqf.s 			page 85


 2771 00fa 41F02001 		orr	r1, r1, #32
 2772 00fe 84F8C010 		strb	r1, [r4, #192]
 2773              	.LVL178:
 244:../../libdaisy/src/dev/oled_ssd130x.h ****         else
 2774              		.loc 6 244 42 view .LVU759
 2775              	.LBE1247:
 2776              	.LBE1246:
 2777              	.LBE1245:
 199:../../libdaisy/src/hid/disp/display.h ****         {
 2778              		.loc 5 199 26 is_stmt 1 view .LVU760
 2779              	.L198:
 2780              	.LBB1248:
 2781              	.LBI1248:
  41:../../libdaisy/src/hid/disp/oled_display.h ****     {
 2782              		.loc 1 41 10 view .LVU761
 2783              	.LBB1249:
 2784              	.LBI1249:
 239:../../libdaisy/src/dev/oled_ssd130x.h ****     {
 2785              		.loc 6 239 10 view .LVU762
 2786              	.LBB1250:
 244:../../libdaisy/src/dev/oled_ssd130x.h ****         else
 2787              		.loc 6 244 42 is_stmt 0 view .LVU763
 2788 0102 12F8011D 		ldrb	r1, [r2, #-1]!	@ zero_extendqisi2
 244:../../libdaisy/src/dev/oled_ssd130x.h ****         else
 2789              		.loc 6 244 42 view .LVU764
 2790 0106 41F02001 		orr	r1, r1, #32
 2791              	.LBE1250:
 2792              	.LBE1249:
 2793              	.LBE1248:
 199:../../libdaisy/src/hid/disp/display.h ****         {
 2794              		.loc 5 199 26 view .LVU765
 2795 010a 9042     		cmp	r0, r2
 2796              	.LBB1253:
 2797              	.LBB1252:
 2798              	.LBB1251:
 244:../../libdaisy/src/dev/oled_ssd130x.h ****         else
 2799              		.loc 6 244 42 view .LVU766
 2800 010c 1170     		strb	r1, [r2]
 2801              	.LVL179:
 244:../../libdaisy/src/dev/oled_ssd130x.h ****         else
 2802              		.loc 6 244 42 view .LVU767
 2803              	.LBE1251:
 2804              	.LBE1252:
 2805              	.LBE1253:
 199:../../libdaisy/src/hid/disp/display.h ****         {
 2806              		.loc 5 199 26 is_stmt 1 view .LVU768
 2807 010e F8D1     		bne	.L198
 2808              	.LVL180:
 199:../../libdaisy/src/hid/disp/display.h ****         {
 2809              		.loc 5 199 26 is_stmt 0 view .LVU769
 2810              	.LBE1244:
 2811              	.LBE1243:
 2812              	.LBB1254:
 2813              	.LBI1254:
 181:../../libdaisy/src/hid/disp/display.h ****                   uint_fast8_t y1,
 2814              		.loc 5 181 10 is_stmt 1 view .LVU770
 2815              	.LBB1255:
ARM GAS  C:\Users\VINCIU~1\AppData\Local\Temp\ccYgfSqf.s 			page 86


 2816              	.LBB1256:
 2817              	.LBI1256:
  41:../../libdaisy/src/hid/disp/oled_display.h ****     {
 2818              		.loc 1 41 10 view .LVU771
 2819              	.LBB1257:
 2820              	.LBI1257:
 239:../../libdaisy/src/dev/oled_ssd130x.h ****     {
 2821              		.loc 6 239 10 view .LVU772
 2822              	.LBB1258:
 244:../../libdaisy/src/dev/oled_ssd130x.h ****         else
 2823              		.loc 6 244 42 is_stmt 0 view .LVU773
 2824 0110 94F84020 		ldrb	r2, [r4, #64]	@ zero_extendqisi2
 2825 0114 42F00102 		orr	r2, r2, #1
 2826 0118 84F84020 		strb	r2, [r4, #64]
 2827              	.LVL181:
 244:../../libdaisy/src/dev/oled_ssd130x.h ****         else
 2828              		.loc 6 244 42 view .LVU774
 2829              	.LBE1258:
 2830              	.LBE1257:
 2831              	.LBE1256:
 199:../../libdaisy/src/hid/disp/display.h ****         {
 2832              		.loc 5 199 26 is_stmt 1 view .LVU775
 2833              	.L199:
 2834              	.LBB1259:
 2835              	.LBI1259:
  41:../../libdaisy/src/hid/disp/oled_display.h ****     {
 2836              		.loc 1 41 10 view .LVU776
 2837              	.LBB1260:
 2838              	.LBI1260:
 239:../../libdaisy/src/dev/oled_ssd130x.h ****     {
 2839              		.loc 6 239 10 view .LVU777
 2840              	.LBB1261:
 244:../../libdaisy/src/dev/oled_ssd130x.h ****         else
 2841              		.loc 6 244 28 is_stmt 0 view .LVU778
 2842 011c D908     		lsrs	r1, r3, #3
 244:../../libdaisy/src/dev/oled_ssd130x.h ****         else
 2843              		.loc 6 244 54 view .LVU779
 2844 011e 03F00700 		and	r0, r3, #7
 244:../../libdaisy/src/dev/oled_ssd130x.h ****         else
 2845              		.loc 6 244 48 view .LVU780
 2846 0122 0122     		movs	r2, #1
 2847              	.LBE1261:
 2848              	.LBE1260:
 2849              	.LBE1259:
 199:../../libdaisy/src/hid/disp/display.h ****         {
 2850              		.loc 5 199 26 view .LVU781
 2851 0124 013B     		subs	r3, r3, #1
 2852              	.LVL182:
 2853              	.LBB1264:
 2854              	.LBB1263:
 2855              	.LBB1262:
 244:../../libdaisy/src/dev/oled_ssd130x.h ****         else
 2856              		.loc 6 244 42 view .LVU782
 2857 0126 04EBC111 		add	r1, r4, r1, lsl #7
 244:../../libdaisy/src/dev/oled_ssd130x.h ****         else
 2858              		.loc 6 244 48 view .LVU783
 2859 012a 02FA00F2 		lsl	r2, r2, r0
ARM GAS  C:\Users\VINCIU~1\AppData\Local\Temp\ccYgfSqf.s 			page 87


 244:../../libdaisy/src/dev/oled_ssd130x.h ****         else
 2860              		.loc 6 244 42 view .LVU784
 2861 012e 91F84000 		ldrb	r0, [r1, #64]	@ zero_extendqisi2
 2862 0132 42EA0002 		orr	r2, r2, r0
 2863 0136 81F84020 		strb	r2, [r1, #64]
 2864              	.LVL183:
 244:../../libdaisy/src/dev/oled_ssd130x.h ****         else
 2865              		.loc 6 244 42 view .LVU785
 2866              	.LBE1262:
 2867              	.LBE1263:
 2868              	.LBE1264:
 199:../../libdaisy/src/hid/disp/display.h ****         {
 2869              		.loc 5 199 26 is_stmt 1 view .LVU786
 2870 013a EFD1     		bne	.L199
 2871              	.LVL184:
 2872              	.L185:
 199:../../libdaisy/src/hid/disp/display.h ****         {
 2873              		.loc 5 199 26 is_stmt 0 view .LVU787
 2874              	.LBE1255:
 2875              	.LBE1254:
 2876              	.LBE1217:
 593:Menus.cpp     ****     }
 594:Menus.cpp     ****     if(menuStateEnv == 2)
 595:Menus.cpp     ****     {
 596:Menus.cpp     ****         this->sustatinLevel += this->encoderRight.Increment() * 3.3;
 597:Menus.cpp     ****         this->sustatinLevelScaleDraw += this->encoderRight.Increment();
 598:Menus.cpp     ****         if(this->sustatinLevelScaleDraw >= screen.Width() / 4)
 599:Menus.cpp     ****         {
 600:Menus.cpp     ****             this->sustatinLevelScaleDraw = screen.Width() / 4;
 601:Menus.cpp     ****         }
 602:Menus.cpp     ****         if(this->sustatinLevelScaleDraw <= 0)
 603:Menus.cpp     ****         {
 604:Menus.cpp     ****             this->sustatinLevelScaleDraw = 0;
 605:Menus.cpp     ****         }
 606:Menus.cpp     ****         if(this->sustatinLevel >= 100)
 607:Menus.cpp     ****         {
 608:Menus.cpp     ****             this->sustatinLevel = 100;
 609:Menus.cpp     ****         }
 610:Menus.cpp     ****         if(this->sustatinLevel <= 0)
 611:Menus.cpp     ****         {
 612:Menus.cpp     ****             this->sustatinLevel = 0;
 613:Menus.cpp     ****         }
 614:Menus.cpp     ****         screen.DrawRect(60, 0, 72, 13, true, false);
 615:Menus.cpp     ****     }
 616:Menus.cpp     ****       if(menuStateEnv == 3)
 617:Menus.cpp     ****     {
 618:Menus.cpp     ****         this->releaseTime += this->encoderRight.Increment() * 3.3;
 619:Menus.cpp     ****         this->releaseTimeScaleDraw += this->encoderRight.Increment();
 620:Menus.cpp     ****         if(this->releaseTimeScaleDraw >= screen.Width() / 4)
 621:Menus.cpp     ****         {
 622:Menus.cpp     ****             this->releaseTimeScaleDraw = screen.Width() / 4;
 623:Menus.cpp     ****         }
 624:Menus.cpp     ****         if(this->releaseTimeScaleDraw <= 0)
 625:Menus.cpp     ****         {
 626:Menus.cpp     ****             this->releaseTimeScaleDraw = 0;
 627:Menus.cpp     ****         }
 628:Menus.cpp     ****         if(this->releaseTime >= 100)
ARM GAS  C:\Users\VINCIU~1\AppData\Local\Temp\ccYgfSqf.s 			page 88


 629:Menus.cpp     ****         {
 630:Menus.cpp     ****             this->releaseTime = 100;
 631:Menus.cpp     ****         }
 632:Menus.cpp     ****         if(this->releaseTime <= 0)
 633:Menus.cpp     ****         {
 634:Menus.cpp     ****             this->releaseTime = 0;
 635:Menus.cpp     ****         }
 636:Menus.cpp     ****         screen.DrawRect(76, 0, 88, 13, true, false);
 637:Menus.cpp     ****     }
 638:Menus.cpp     **** 
 639:Menus.cpp     ****     screen.SetCursor(32, 4);
 2877              		.loc 2 639 5 is_stmt 1 view .LVU788
 2878              	.LBB1265:
 2879              	.LBI1265:
 131:../../libdaisy/src/hid/disp/display.h ****     {
 2880              		.loc 5 131 10 view .LVU789
 2881              	.LBB1266:
 133:../../libdaisy/src/hid/disp/display.h ****         currentY_ = (y >= Height()) ? Height() - 1 : y;
 2882              		.loc 5 133 9 view .LVU790
 134:../../libdaisy/src/hid/disp/display.h ****     }
 2883              		.loc 5 134 9 view .LVU791
 2884              	.LBE1266:
 2885              	.LBE1265:
 640:Menus.cpp     ****     screen.WriteString("A", Font_6x8, true);
 2886              		.loc 2 640 23 is_stmt 0 view .LVU792
 2887 013c 924D     		ldr	r5, .L361+16
 2888 013e 0126     		movs	r6, #1
 2889              	.LBB1269:
 2890              	.LBB1267:
 133:../../libdaisy/src/hid/disp/display.h ****         currentY_ = (y >= Height()) ? Height() - 1 : y;
 2891              		.loc 5 133 19 view .LVU793
 2892 0140 924B     		ldr	r3, .L361+20
 2893              	.LBE1267:
 2894              	.LBE1269:
 2895              		.loc 2 640 23 view .LVU794
 2896 0142 2046     		mov	r0, r4
 2897 0144 0096     		str	r6, [sp]
 2898 0146 9249     		ldr	r1, .L361+24
 2899              	.LBB1270:
 2900              	.LBB1268:
 133:../../libdaisy/src/hid/disp/display.h ****         currentY_ = (y >= Height()) ? Height() - 1 : y;
 2901              		.loc 5 133 19 view .LVU795
 2902 0148 6360     		str	r3, [r4, #4]
 2903              	.LVL185:
 133:../../libdaisy/src/hid/disp/display.h ****         currentY_ = (y >= Height()) ? Height() - 1 : y;
 2904              		.loc 5 133 19 view .LVU796
 2905              	.LBE1268:
 2906              	.LBE1270:
 2907              		.loc 2 640 5 is_stmt 1 view .LVU797
 2908              		.loc 2 640 23 is_stmt 0 view .LVU798
 2909 014a 95E80C00 		ldm	r5, {r2, r3}
 2910 014e FFF7FEFF 		bl	_ZN5daisy25OneBitGraphicsDisplayImplINS_11OledDisplayINS_13SSD130xDriverILj128ELj64ENS_24SSD130
 2911              	.LVL186:
 641:Menus.cpp     ****     screen.SetCursor(48, 4);
 2912              		.loc 2 641 5 is_stmt 1 view .LVU799
 2913              	.LBB1271:
 2914              	.LBI1271:
ARM GAS  C:\Users\VINCIU~1\AppData\Local\Temp\ccYgfSqf.s 			page 89


 131:../../libdaisy/src/hid/disp/display.h ****     {
 2915              		.loc 5 131 10 view .LVU800
 2916              	.LBB1272:
 133:../../libdaisy/src/hid/disp/display.h ****         currentY_ = (y >= Height()) ? Height() - 1 : y;
 2917              		.loc 5 133 9 view .LVU801
 134:../../libdaisy/src/hid/disp/display.h ****     }
 2918              		.loc 5 134 9 view .LVU802
 133:../../libdaisy/src/hid/disp/display.h ****         currentY_ = (y >= Height()) ? Height() - 1 : y;
 2919              		.loc 5 133 19 is_stmt 0 view .LVU803
 2920 0152 904B     		ldr	r3, .L361+28
 2921              	.LBE1272:
 2922              	.LBE1271:
 642:Menus.cpp     ****     screen.WriteString("D", Font_6x8, true);
 2923              		.loc 2 642 23 view .LVU804
 2924 0154 0096     		str	r6, [sp]
 2925 0156 2046     		mov	r0, r4
 2926 0158 8F49     		ldr	r1, .L361+32
 2927              	.LBB1274:
 2928              	.LBB1273:
 133:../../libdaisy/src/hid/disp/display.h ****         currentY_ = (y >= Height()) ? Height() - 1 : y;
 2929              		.loc 5 133 19 view .LVU805
 2930 015a 6360     		str	r3, [r4, #4]
 2931              	.LVL187:
 133:../../libdaisy/src/hid/disp/display.h ****         currentY_ = (y >= Height()) ? Height() - 1 : y;
 2932              		.loc 5 133 19 view .LVU806
 2933              	.LBE1273:
 2934              	.LBE1274:
 2935              		.loc 2 642 5 is_stmt 1 view .LVU807
 2936              		.loc 2 642 23 is_stmt 0 view .LVU808
 2937 015c 95E80C00 		ldm	r5, {r2, r3}
 2938 0160 FFF7FEFF 		bl	_ZN5daisy25OneBitGraphicsDisplayImplINS_11OledDisplayINS_13SSD130xDriverILj128ELj64ENS_24SSD130
 2939              	.LVL188:
 643:Menus.cpp     ****     screen.SetCursor(64, 4);
 2940              		.loc 2 643 5 is_stmt 1 view .LVU809
 2941              	.LBB1275:
 2942              	.LBI1275:
 131:../../libdaisy/src/hid/disp/display.h ****     {
 2943              		.loc 5 131 10 view .LVU810
 2944              	.LBB1276:
 133:../../libdaisy/src/hid/disp/display.h ****         currentY_ = (y >= Height()) ? Height() - 1 : y;
 2945              		.loc 5 133 9 view .LVU811
 134:../../libdaisy/src/hid/disp/display.h ****     }
 2946              		.loc 5 134 9 view .LVU812
 133:../../libdaisy/src/hid/disp/display.h ****         currentY_ = (y >= Height()) ? Height() - 1 : y;
 2947              		.loc 5 133 19 is_stmt 0 view .LVU813
 2948 0164 8D4B     		ldr	r3, .L361+36
 2949              	.LBE1276:
 2950              	.LBE1275:
 644:Menus.cpp     ****     screen.WriteString("S", Font_6x8, true);
 2951              		.loc 2 644 23 view .LVU814
 2952 0166 0096     		str	r6, [sp]
 2953 0168 2046     		mov	r0, r4
 2954 016a 8D49     		ldr	r1, .L361+40
 2955              	.LBB1278:
 2956              	.LBB1277:
 133:../../libdaisy/src/hid/disp/display.h ****         currentY_ = (y >= Height()) ? Height() - 1 : y;
 2957              		.loc 5 133 19 view .LVU815
ARM GAS  C:\Users\VINCIU~1\AppData\Local\Temp\ccYgfSqf.s 			page 90


 2958 016c 6360     		str	r3, [r4, #4]
 2959              	.LVL189:
 133:../../libdaisy/src/hid/disp/display.h ****         currentY_ = (y >= Height()) ? Height() - 1 : y;
 2960              		.loc 5 133 19 view .LVU816
 2961              	.LBE1277:
 2962              	.LBE1278:
 2963              		.loc 2 644 5 is_stmt 1 view .LVU817
 2964              		.loc 2 644 23 is_stmt 0 view .LVU818
 2965 016e 95E80C00 		ldm	r5, {r2, r3}
 2966 0172 FFF7FEFF 		bl	_ZN5daisy25OneBitGraphicsDisplayImplINS_11OledDisplayINS_13SSD130xDriverILj128ELj64ENS_24SSD130
 2967              	.LVL190:
 645:Menus.cpp     ****     screen.SetCursor(80, 4);
 2968              		.loc 2 645 5 is_stmt 1 view .LVU819
 2969              	.LBB1279:
 2970              	.LBI1279:
 131:../../libdaisy/src/hid/disp/display.h ****     {
 2971              		.loc 5 131 10 view .LVU820
 2972              	.LBB1280:
 133:../../libdaisy/src/hid/disp/display.h ****         currentY_ = (y >= Height()) ? Height() - 1 : y;
 2973              		.loc 5 133 9 view .LVU821
 134:../../libdaisy/src/hid/disp/display.h ****     }
 2974              		.loc 5 134 9 view .LVU822
 133:../../libdaisy/src/hid/disp/display.h ****         currentY_ = (y >= Height()) ? Height() - 1 : y;
 2975              		.loc 5 133 19 is_stmt 0 view .LVU823
 2976 0176 8B4B     		ldr	r3, .L361+44
 2977              	.LBE1280:
 2978              	.LBE1279:
 646:Menus.cpp     ****     screen.WriteString("R", Font_6x8, true);
 2979              		.loc 2 646 23 view .LVU824
 2980 0178 0096     		str	r6, [sp]
 2981 017a 2046     		mov	r0, r4
 2982 017c 8A49     		ldr	r1, .L361+48
 2983              	.LBB1282:
 2984              	.LBB1281:
 133:../../libdaisy/src/hid/disp/display.h ****         currentY_ = (y >= Height()) ? Height() - 1 : y;
 2985              		.loc 5 133 19 view .LVU825
 2986 017e 6360     		str	r3, [r4, #4]
 2987              	.LVL191:
 133:../../libdaisy/src/hid/disp/display.h ****         currentY_ = (y >= Height()) ? Height() - 1 : y;
 2988              		.loc 5 133 19 view .LVU826
 2989              	.LBE1281:
 2990              	.LBE1282:
 2991              		.loc 2 646 5 is_stmt 1 view .LVU827
 2992              		.loc 2 646 23 is_stmt 0 view .LVU828
 2993 0180 95E80C00 		ldm	r5, {r2, r3}
 2994 0184 FFF7FEFF 		bl	_ZN5daisy25OneBitGraphicsDisplayImplINS_11OledDisplayINS_13SSD130xDriverILj128ELj64ENS_24SSD130
 2995              	.LVL192:
 647:Menus.cpp     ****     screen.DrawLine(0, screen.Height() - 5, attackTimeScaleDraw, 25, true);
 2996              		.loc 2 647 5 is_stmt 1 view .LVU829
 2997              		.loc 2 647 45 is_stmt 0 view .LVU830
 2998 0188 D7ED687A 		vldr.32	s15, [r7, #416]
 2999              		.loc 2 647 20 view .LVU831
 3000 018c BCEEE77A 		vcvt.u32.f32	s14, s15
 3001 0190 17EE101A 		vmov	r1, s14	@ int
 3002              	.LVL193:
 3003              	.LBB1283:
 3004              	.LBI1283:
ARM GAS  C:\Users\VINCIU~1\AppData\Local\Temp\ccYgfSqf.s 			page 91


 181:../../libdaisy/src/hid/disp/display.h ****                   uint_fast8_t y1,
 3005              		.loc 5 181 10 is_stmt 1 view .LVU832
 3006              	.LBB1284:
 187:../../libdaisy/src/hid/disp/display.h ****         int_fast16_t deltaY = abs((int_fast16_t)y2 - (int_fast16_t)y1);
 3007              		.loc 5 187 22 is_stmt 0 view .LVU833
 3008 0194 81EAE179 		eor	r9, r1, r1, asr #31
 3009 0198 A9EBE179 		sub	r9, r9, r1, asr #31
 3010              	.LVL194:
 189:../../libdaisy/src/hid/disp/display.h ****         int_fast16_t signY  = ((y1 < y2) ? 1 : -1);
 3011              		.loc 5 189 42 view .LVU834
 3012 019c 0029     		cmp	r1, #0
 3013 019e 00F0C882 		beq	.L352
 3014              	.LVL195:
 3015              	.LBB1285:
 3016              	.LBB1286:
 3017              	.LBB1287:
 3018              	.LBB1288:
 241:../../libdaisy/src/dev/oled_ssd130x.h ****             return;
 3019              		.loc 6 241 9 view .LVU835
 3020 01a2 7F29     		cmp	r1, #127
 3021              	.LBE1288:
 3022              	.LBE1287:
 3023              	.LBE1286:
 3024              	.LBE1285:
 191:../../libdaisy/src/hid/disp/display.h ****         int_fast16_t error2;
 3025              		.loc 5 191 22 view .LVU836
 3026 01a4 A9F1220C 		sub	ip, r9, #34
 3027              	.LVL196:
 3028              	.LBB1299:
 3029              	.LBI1285:
  41:../../libdaisy/src/hid/disp/oled_display.h ****     {
 3030              		.loc 1 41 10 is_stmt 1 view .LVU837
 3031              	.LBB1295:
  43:../../libdaisy/src/hid/disp/oled_display.h ****     }
 3032              		.loc 1 43 26 is_stmt 0 view .LVU838
 3033 01a8 04F10805 		add	r5, r4, #8
 3034              	.LVL197:
 3035              	.LBB1291:
 3036              	.LBI1287:
 239:../../libdaisy/src/dev/oled_ssd130x.h ****     {
 3037              		.loc 6 239 10 is_stmt 1 view .LVU839
 3038              	.LBE1291:
 3039              	.LBE1295:
 3040              	.LBE1299:
 189:../../libdaisy/src/hid/disp/display.h ****         int_fast16_t signY  = ((y1 < y2) ? 1 : -1);
 3041              		.loc 5 189 42 is_stmt 0 view .LVU840
 3042 01ac B046     		mov	r8, r6
 3043              	.LBB1300:
 3044              	.LBB1296:
 3045              	.LBB1292:
 3046              	.LBB1289:
 241:../../libdaisy/src/dev/oled_ssd130x.h ****             return;
 3047              		.loc 6 241 9 view .LVU841
 3048 01ae 40F2C682 		bls	.L265
 3049              	.LVL198:
 3050              	.L227:
 241:../../libdaisy/src/dev/oled_ssd130x.h ****             return;
ARM GAS  C:\Users\VINCIU~1\AppData\Local\Temp\ccYgfSqf.s 			page 92


 3051              		.loc 6 241 9 view .LVU842
 3052              	.LBE1289:
 3053              	.LBE1292:
 3054              	.LBE1296:
 3055              	.LBE1300:
 199:../../libdaisy/src/hid/disp/display.h ****         {
 3056              		.loc 5 199 26 is_stmt 1 view .LVU843
 189:../../libdaisy/src/hid/disp/display.h ****         int_fast16_t signY  = ((y1 < y2) ? 1 : -1);
 3057              		.loc 5 189 42 is_stmt 0 view .LVU844
 3058 01b2 3B20     		movs	r0, #59
 3059 01b4 0026     		movs	r6, #0
 3060              	.LVL199:
 3061              	.L228:
 3062              	.LBB1301:
 3063              	.LBI1301:
  41:../../libdaisy/src/hid/disp/oled_display.h ****     {
 3064              		.loc 1 41 10 is_stmt 1 view .LVU845
 3065              	.LBB1302:
 3066              	.LBI1302:
 239:../../libdaisy/src/dev/oled_ssd130x.h ****     {
 3067              		.loc 6 239 10 view .LVU846
 3068              	.LBB1303:
 244:../../libdaisy/src/dev/oled_ssd130x.h ****         else
 3069              		.loc 6 244 28 is_stmt 0 view .LVU847
 3070 01b6 C308     		lsrs	r3, r0, #3
 244:../../libdaisy/src/dev/oled_ssd130x.h ****         else
 3071              		.loc 6 244 48 view .LVU848
 3072 01b8 0122     		movs	r2, #1
 244:../../libdaisy/src/dev/oled_ssd130x.h ****         else
 3073              		.loc 6 244 54 view .LVU849
 3074 01ba 00F0070A 		and	r10, r0, #7
 241:../../libdaisy/src/dev/oled_ssd130x.h ****             return;
 3075              		.loc 6 241 9 view .LVU850
 3076 01be 7F2E     		cmp	r6, #127
 244:../../libdaisy/src/dev/oled_ssd130x.h ****         else
 3077              		.loc 6 244 42 view .LVU851
 3078 01c0 06EBC313 		add	r3, r6, r3, lsl #7
 3079              	.LBE1303:
 3080              	.LBE1302:
 3081              	.LBE1301:
 202:../../libdaisy/src/hid/disp/display.h ****             if(error2 > -deltaY)
 3082              		.loc 5 202 20 view .LVU852
 3083 01c4 0CFA02FE 		lsl	lr, ip, r2
 3084              	.LVL200:
 3085              	.LBB1306:
 3086              	.LBB1305:
 3087              	.LBB1304:
 244:../../libdaisy/src/dev/oled_ssd130x.h ****         else
 3088              		.loc 6 244 48 view .LVU853
 3089 01c8 02FA0AF2 		lsl	r2, r2, r10
 244:../../libdaisy/src/dev/oled_ssd130x.h ****         else
 3090              		.loc 6 244 42 view .LVU854
 3091 01cc 2344     		add	r3, r3, r4
 241:../../libdaisy/src/dev/oled_ssd130x.h ****             return;
 3092              		.loc 6 241 9 view .LVU855
 3093 01ce 06D8     		bhi	.L231
 241:../../libdaisy/src/dev/oled_ssd130x.h ****             return;
ARM GAS  C:\Users\VINCIU~1\AppData\Local\Temp\ccYgfSqf.s 			page 93


 3094              		.loc 6 241 9 view .LVU856
 3095 01d0 3F28     		cmp	r0, #63
 3096 01d2 04D8     		bhi	.L231
 244:../../libdaisy/src/dev/oled_ssd130x.h ****         else
 3097              		.loc 6 244 42 view .LVU857
 3098 01d4 93F814A0 		ldrb	r10, [r3, #20]	@ zero_extendqisi2
 3099 01d8 42EA0A02 		orr	r2, r2, r10
 3100 01dc 1A75     		strb	r2, [r3, #20]
 3101              	.L231:
 3102              	.LBE1304:
 3103              	.LBE1305:
 3104              	.LBE1306:
 203:../../libdaisy/src/hid/disp/display.h ****             {
 3105              		.loc 5 203 13 view .LVU858
 3106 01de 1EF1210F 		cmn	lr, #33
 3107 01e2 C0F2A382 		blt	.L232
 209:../../libdaisy/src/hid/disp/display.h ****             {
 3108              		.loc 5 209 13 view .LVU859
 3109 01e6 F145     		cmp	r9, lr
 206:../../libdaisy/src/hid/disp/display.h ****             }
 3110              		.loc 5 206 20 view .LVU860
 3111 01e8 4644     		add	r6, r6, r8
 3112              	.LVL201:
 205:../../libdaisy/src/hid/disp/display.h ****                 x1 += signX;
 3113              		.loc 5 205 23 view .LVU861
 3114 01ea ACF1220C 		sub	ip, ip, #34
 3115              	.LVL202:
 209:../../libdaisy/src/hid/disp/display.h ****             {
 3116              		.loc 5 209 13 view .LVU862
 3117 01ee 00F39D82 		bgt	.L232
 3118              	.L233:
 199:../../libdaisy/src/hid/disp/display.h ****         {
 3119              		.loc 5 199 26 is_stmt 1 view .LVU863
 3120 01f2 B142     		cmp	r1, r6
 3121 01f4 DFD1     		bne	.L228
 199:../../libdaisy/src/hid/disp/display.h ****         {
 3122              		.loc 5 199 26 is_stmt 0 view .LVU864
 3123 01f6 1928     		cmp	r0, #25
 3124 01f8 DDD1     		bne	.L228
 3125              	.LVL203:
 199:../../libdaisy/src/hid/disp/display.h ****         {
 3126              		.loc 5 199 26 view .LVU865
 3127              	.LBE1284:
 3128              	.LBE1283:
 648:Menus.cpp     ****     screen.DrawLine(attackTimeScaleDraw,
 3129              		.loc 2 648 5 is_stmt 1 view .LVU866
 649:Menus.cpp     ****                     25,
 650:Menus.cpp     ****                     attackTimeScaleDraw + decayTimeScaleDraw,
 651:Menus.cpp     ****                     (screen.Height() - 5) - sustatinLevelScaleDraw,
 3130              		.loc 2 651 43 is_stmt 0 view .LVU867
 3131 01fa D7ED6C6A 		vldr.32	s13, [r7, #432]
 3132 01fe 9FED6B7A 		vldr.32	s14, .L361+52
 650:Menus.cpp     ****                     (screen.Height() - 5) - sustatinLevelScaleDraw,
 3133              		.loc 2 650 41 view .LVU868
 3134 0202 97ED6A6A 		vldr.32	s12, [r7, #424]
 3135              		.loc 2 651 43 view .LVU869
 3136 0206 37EE667A 		vsub.f32	s14, s14, s13
ARM GAS  C:\Users\VINCIU~1\AppData\Local\Temp\ccYgfSqf.s 			page 94


 650:Menus.cpp     ****                     (screen.Height() - 5) - sustatinLevelScaleDraw,
 3137              		.loc 2 650 41 view .LVU870
 3138 020a 77EE867A 		vadd.f32	s15, s15, s12
 648:Menus.cpp     ****     screen.DrawLine(attackTimeScaleDraw,
 3139              		.loc 2 648 20 view .LVU871
 3140 020e BCEEC77A 		vcvt.u32.f32	s14, s14
 3141 0212 FCEEE76A 		vcvt.u32.f32	s13, s15
 3142 0216 17EE102A 		vmov	r2, s14	@ int
 3143 021a 16EE906A 		vmov	r6, s13	@ int
 3144              	.LVL204:
 3145              	.LBB1310:
 3146              	.LBI1310:
 181:../../libdaisy/src/hid/disp/display.h ****                   uint_fast8_t y1,
 3147              		.loc 5 181 10 is_stmt 1 view .LVU872
 3148              	.LBB1311:
 188:../../libdaisy/src/hid/disp/display.h ****         int_fast16_t signX  = ((x1 < x2) ? 1 : -1);
 3149              		.loc 5 188 52 is_stmt 0 view .LVU873
 3150 021e A2F11903 		sub	r3, r2, #25
 187:../../libdaisy/src/hid/disp/display.h ****         int_fast16_t deltaY = abs((int_fast16_t)y2 - (int_fast16_t)y1);
 3151              		.loc 5 187 52 view .LVU874
 3152 0222 A6EB010E 		sub	lr, r6, r1
 188:../../libdaisy/src/hid/disp/display.h ****         int_fast16_t signX  = ((x1 < x2) ? 1 : -1);
 3153              		.loc 5 188 22 view .LVU875
 3154 0226 83EAE370 		eor	r0, r3, r3, asr #31
 187:../../libdaisy/src/hid/disp/display.h ****         int_fast16_t deltaY = abs((int_fast16_t)y2 - (int_fast16_t)y1);
 3155              		.loc 5 187 22 view .LVU876
 3156 022a BEF1000F 		cmp	lr, #0
 188:../../libdaisy/src/hid/disp/display.h ****         int_fast16_t signX  = ((x1 < x2) ? 1 : -1);
 3157              		.loc 5 188 22 view .LVU877
 3158 022e A0EBE370 		sub	r0, r0, r3, asr #31
 187:../../libdaisy/src/hid/disp/display.h ****         int_fast16_t deltaY = abs((int_fast16_t)y2 - (int_fast16_t)y1);
 3159              		.loc 5 187 22 view .LVU878
 3160 0232 B8BF     		it	lt
 3161 0234 CEF1000E 		rsblt	lr, lr, #0
 3162              	.LVL205:
 188:../../libdaisy/src/hid/disp/display.h ****         int_fast16_t signX  = ((x1 < x2) ? 1 : -1);
 3163              		.loc 5 188 22 view .LVU879
 3164 0238 0346     		mov	r3, r0
 3165 023a 0290     		str	r0, [sp, #8]
 3166              	.LVL206:
 189:../../libdaisy/src/hid/disp/display.h ****         int_fast16_t signY  = ((y1 < y2) ? 1 : -1);
 3167              		.loc 5 189 42 view .LVU880
 3168 023c B142     		cmp	r1, r6
 3169 023e 34BF     		ite	cc
 3170 0240 0120     		movcc	r0, #1
 3171 0242 4FF0FF30 		movcs	r0, #-1
 3172              	.LVL207:
 190:../../libdaisy/src/hid/disp/display.h ****         int_fast16_t error  = deltaX - deltaY;
 3173              		.loc 5 190 42 view .LVU881
 3174 0246 192A     		cmp	r2, #25
 189:../../libdaisy/src/hid/disp/display.h ****         int_fast16_t signY  = ((y1 < y2) ? 1 : -1);
 3175              		.loc 5 189 42 view .LVU882
 3176 0248 0390     		str	r0, [sp, #12]
 3177              	.LVL208:
 190:../../libdaisy/src/hid/disp/display.h ****         int_fast16_t error  = deltaX - deltaY;
 3178              		.loc 5 190 42 view .LVU883
 3179 024a 00F28082 		bhi	.L235
ARM GAS  C:\Users\VINCIU~1\AppData\Local\Temp\ccYgfSqf.s 			page 95


 3180              	.LVL209:
 191:../../libdaisy/src/hid/disp/display.h ****         int_fast16_t error2;
 3181              		.loc 5 191 22 view .LVU884
 3182 024e AEEB030C 		sub	ip, lr, r3
 3183              	.LVL210:
 3184              	.LBB1312:
 3185              	.LBI1312:
  41:../../libdaisy/src/hid/disp/oled_display.h ****     {
 3186              		.loc 1 41 10 is_stmt 1 view .LVU885
 3187              	.LBB1313:
 3188              	.LBI1313:
 239:../../libdaisy/src/dev/oled_ssd130x.h ****     {
 3189              		.loc 6 239 10 view .LVU886
 3190              	.LBB1314:
 241:../../libdaisy/src/dev/oled_ssd130x.h ****             return;
 3191              		.loc 6 241 9 is_stmt 0 view .LVU887
 3192 0252 7F2E     		cmp	r6, #127
 3193              	.LBE1314:
 3194              	.LBE1313:
 3195              	.LBE1312:
 190:../../libdaisy/src/hid/disp/display.h ****         int_fast16_t error  = deltaX - deltaY;
 3196              		.loc 5 190 42 view .LVU888
 3197 0254 4FF0FF33 		mov	r3, #-1
 3198              	.LVL211:
 190:../../libdaisy/src/hid/disp/display.h ****         int_fast16_t error  = deltaX - deltaY;
 3199              		.loc 5 190 42 view .LVU889
 3200 0258 0493     		str	r3, [sp, #16]
 3201              	.LBB1321:
 3202              	.LBB1318:
 3203              	.LBB1315:
 241:../../libdaisy/src/dev/oled_ssd130x.h ****             return;
 3204              		.loc 6 241 9 view .LVU890
 3205 025a 0DD8     		bhi	.L236
 3206              	.LVL212:
 3207              	.L268:
 244:../../libdaisy/src/dev/oled_ssd130x.h ****         else
 3208              		.loc 6 244 28 view .LVU891
 3209 025c D308     		lsrs	r3, r2, #3
 244:../../libdaisy/src/dev/oled_ssd130x.h ****         else
 3210              		.loc 6 244 54 view .LVU892
 3211 025e 02F00708 		and	r8, r2, #7
 244:../../libdaisy/src/dev/oled_ssd130x.h ****         else
 3212              		.loc 6 244 48 view .LVU893
 3213 0262 0120     		movs	r0, #1
 3214              	.LVL213:
 244:../../libdaisy/src/dev/oled_ssd130x.h ****         else
 3215              		.loc 6 244 42 view .LVU894
 3216 0264 06EBC313 		add	r3, r6, r3, lsl #7
 244:../../libdaisy/src/dev/oled_ssd130x.h ****         else
 3217              		.loc 6 244 48 view .LVU895
 3218 0268 00FA08F0 		lsl	r0, r0, r8
 244:../../libdaisy/src/dev/oled_ssd130x.h ****         else
 3219              		.loc 6 244 42 view .LVU896
 3220 026c 2344     		add	r3, r3, r4
 3221 026e 93F81480 		ldrb	r8, [r3, #20]	@ zero_extendqisi2
 3222 0272 40EA0800 		orr	r0, r0, r8
 3223 0276 1875     		strb	r0, [r3, #20]
ARM GAS  C:\Users\VINCIU~1\AppData\Local\Temp\ccYgfSqf.s 			page 96


 3224              	.L236:
 3225              	.LVL214:
 244:../../libdaisy/src/dev/oled_ssd130x.h ****         else
 3226              		.loc 6 244 42 view .LVU897
 3227              	.LBE1315:
 3228              	.LBE1318:
 3229              	.LBE1321:
 199:../../libdaisy/src/hid/disp/display.h ****         {
 3230              		.loc 5 199 26 is_stmt 1 view .LVU898
 3231 0278 B142     		cmp	r1, r6
 3232 027a 08BF     		it	eq
 3233 027c 192A     		cmpeq	r2, #25
 3234 027e 0CBF     		ite	eq
 3235 0280 0123     		moveq	r3, #1
 3236 0282 0023     		movne	r3, #0
 3237 0284 0593     		str	r3, [sp, #20]
 3238 0286 00F05D83 		beq	.L353
 3239              	.L238:
 3240              	.LVL215:
 203:../../libdaisy/src/hid/disp/display.h ****             {
 3241              		.loc 5 203 23 is_stmt 0 view .LVU899
 3242 028a 029B     		ldr	r3, [sp, #8]
 3243 028c 1920     		movs	r0, #25
 3244 028e C3F1000A 		rsb	r10, r3, #0
 3245              	.L240:
 3246              	.LVL216:
 3247              	.LBB1322:
 3248              	.LBI1322:
  41:../../libdaisy/src/hid/disp/oled_display.h ****     {
 3249              		.loc 1 41 10 is_stmt 1 view .LVU900
 3250              	.LBB1323:
 3251              	.LBI1323:
 239:../../libdaisy/src/dev/oled_ssd130x.h ****     {
 3252              		.loc 6 239 10 view .LVU901
 3253              	.LBB1324:
 244:../../libdaisy/src/dev/oled_ssd130x.h ****         else
 3254              		.loc 6 244 48 is_stmt 0 view .LVU902
 3255 0292 4FF0010B 		mov	fp, #1
 244:../../libdaisy/src/dev/oled_ssd130x.h ****         else
 3256              		.loc 6 244 28 view .LVU903
 3257 0296 C308     		lsrs	r3, r0, #3
 244:../../libdaisy/src/dev/oled_ssd130x.h ****         else
 3258              		.loc 6 244 54 view .LVU904
 3259 0298 00F00708 		and	r8, r0, #7
 241:../../libdaisy/src/dev/oled_ssd130x.h ****             return;
 3260              		.loc 6 241 9 view .LVU905
 3261 029c 7F29     		cmp	r1, #127
 244:../../libdaisy/src/dev/oled_ssd130x.h ****         else
 3262              		.loc 6 244 42 view .LVU906
 3263 029e 01EBC313 		add	r3, r1, r3, lsl #7
 3264              	.LBE1324:
 3265              	.LBE1323:
 3266              	.LBE1322:
 202:../../libdaisy/src/hid/disp/display.h ****             if(error2 > -deltaY)
 3267              		.loc 5 202 20 view .LVU907
 3268 02a2 0CFA0BF9 		lsl	r9, ip, fp
 3269              	.LVL217:
ARM GAS  C:\Users\VINCIU~1\AppData\Local\Temp\ccYgfSqf.s 			page 97


 3270              	.LBB1327:
 3271              	.LBB1326:
 3272              	.LBB1325:
 244:../../libdaisy/src/dev/oled_ssd130x.h ****         else
 3273              		.loc 6 244 48 view .LVU908
 3274 02a6 0BFA08F8 		lsl	r8, fp, r8
 241:../../libdaisy/src/dev/oled_ssd130x.h ****             return;
 3275              		.loc 6 241 9 view .LVU909
 3276 02aa 08D8     		bhi	.L241
 3277 02ac 3F28     		cmp	r0, #63
 244:../../libdaisy/src/dev/oled_ssd130x.h ****         else
 3278              		.loc 6 244 42 view .LVU910
 3279 02ae 2344     		add	r3, r3, r4
 241:../../libdaisy/src/dev/oled_ssd130x.h ****             return;
 3280              		.loc 6 241 9 view .LVU911
 3281 02b0 05D8     		bhi	.L241
 244:../../libdaisy/src/dev/oled_ssd130x.h ****         else
 3282              		.loc 6 244 42 view .LVU912
 3283 02b2 93F814B0 		ldrb	fp, [r3, #20]	@ zero_extendqisi2
 3284 02b6 48EA0B08 		orr	r8, r8, fp
 3285 02ba 83F81480 		strb	r8, [r3, #20]
 3286              	.L241:
 244:../../libdaisy/src/dev/oled_ssd130x.h ****         else
 3287              		.loc 6 244 42 view .LVU913
 3288              	.LBE1325:
 3289              	.LBE1326:
 3290              	.LBE1327:
 203:../../libdaisy/src/hid/disp/display.h ****             {
 3291              		.loc 5 203 13 view .LVU914
 3292 02be BAEB4C0F 		cmp	r10, ip, lsl #1
 3293 02c2 04DA     		bge	.L242
 205:../../libdaisy/src/hid/disp/display.h ****                 x1 += signX;
 3294              		.loc 5 205 23 view .LVU915
 3295 02c4 029B     		ldr	r3, [sp, #8]
 3296 02c6 ACEB030C 		sub	ip, ip, r3
 3297              	.LVL218:
 206:../../libdaisy/src/hid/disp/display.h ****             }
 3298              		.loc 5 206 20 view .LVU916
 3299 02ca 039B     		ldr	r3, [sp, #12]
 3300 02cc 1944     		add	r1, r1, r3
 3301              	.LVL219:
 3302              	.L242:
 209:../../libdaisy/src/hid/disp/display.h ****             {
 3303              		.loc 5 209 13 view .LVU917
 3304 02ce CE45     		cmp	lr, r9
 3305 02d0 02DD     		ble	.L243
 212:../../libdaisy/src/hid/disp/display.h ****             }
 3306              		.loc 5 212 20 view .LVU918
 3307 02d2 049B     		ldr	r3, [sp, #16]
 211:../../libdaisy/src/hid/disp/display.h ****                 y1 += signY;
 3308              		.loc 5 211 23 view .LVU919
 3309 02d4 F444     		add	ip, ip, lr
 3310              	.LVL220:
 212:../../libdaisy/src/hid/disp/display.h ****             }
 3311              		.loc 5 212 20 view .LVU920
 3312 02d6 1844     		add	r0, r0, r3
 3313              	.LVL221:
ARM GAS  C:\Users\VINCIU~1\AppData\Local\Temp\ccYgfSqf.s 			page 98


 3314              	.L243:
 199:../../libdaisy/src/hid/disp/display.h ****         {
 3315              		.loc 5 199 26 is_stmt 1 view .LVU921
 3316 02d8 8E42     		cmp	r6, r1
 3317 02da DAD1     		bne	.L240
 199:../../libdaisy/src/hid/disp/display.h ****         {
 3318              		.loc 5 199 26 is_stmt 0 view .LVU922
 3319 02dc 9042     		cmp	r0, r2
 3320 02de D8D1     		bne	.L240
 3321              	.LVL222:
 3322              	.L237:
 199:../../libdaisy/src/hid/disp/display.h ****         {
 3323              		.loc 5 199 26 view .LVU923
 3324              	.LBE1311:
 3325              	.LBE1310:
 652:Menus.cpp     ****                     true);
 653:Menus.cpp     **** 
 654:Menus.cpp     ****     screen.DrawLine(attackTimeScaleDraw + decayTimeScaleDraw,
 3326              		.loc 2 654 5 is_stmt 1 view .LVU924
 655:Menus.cpp     ****                     (screen.Height() - 5) - sustatinLevelScaleDraw,
 656:Menus.cpp     ****                     attackTimeScaleDraw + decayTimeScaleDraw
 657:Menus.cpp     ****                         + screen.Width() / 4,
 3327              		.loc 2 657 25 is_stmt 0 view .LVU925
 3328 02e0 9FED277A 		vldr.32	s14, .L361+8
 3329 02e4 77EE877A 		vadd.f32	s15, s15, s14
 654:Menus.cpp     ****                     (screen.Height() - 5) - sustatinLevelScaleDraw,
 3330              		.loc 2 654 20 view .LVU926
 3331 02e8 BCEEE77A 		vcvt.u32.f32	s14, s15
 3332 02ec 17EE101A 		vmov	r1, s14	@ int
 3333              	.LVL223:
 3334              	.LBB1333:
 3335              	.LBI1333:
 181:../../libdaisy/src/hid/disp/display.h ****                   uint_fast8_t y1,
 3336              		.loc 5 181 10 is_stmt 1 view .LVU927
 3337              	.LBB1334:
 187:../../libdaisy/src/hid/disp/display.h ****         int_fast16_t deltaY = abs((int_fast16_t)y2 - (int_fast16_t)y1);
 3338              		.loc 5 187 52 is_stmt 0 view .LVU928
 3339 02f0 A1EB0608 		sub	r8, r1, r6
 187:../../libdaisy/src/hid/disp/display.h ****         int_fast16_t deltaY = abs((int_fast16_t)y2 - (int_fast16_t)y1);
 3340              		.loc 5 187 22 view .LVU929
 3341 02f4 B8F1000F 		cmp	r8, #0
 3342 02f8 B8BF     		it	lt
 3343 02fa C8F10008 		rsblt	r8, r8, #0
 3344              	.LVL224:
 189:../../libdaisy/src/hid/disp/display.h ****         int_fast16_t signY  = ((y1 < y2) ? 1 : -1);
 3345              		.loc 5 189 42 view .LVU930
 3346 02fe 8E42     		cmp	r6, r1
 3347 0300 C0F03D82 		bcc	.L244
 3348              	.LVL225:
 3349              	.LBB1335:
 3350              	.LBI1335:
  41:../../libdaisy/src/hid/disp/oled_display.h ****     {
 3351              		.loc 1 41 10 is_stmt 1 view .LVU931
 3352              	.LBB1336:
 3353              	.LBI1336:
 239:../../libdaisy/src/dev/oled_ssd130x.h ****     {
 3354              		.loc 6 239 10 view .LVU932
ARM GAS  C:\Users\VINCIU~1\AppData\Local\Temp\ccYgfSqf.s 			page 99


 3355              	.LBB1337:
 241:../../libdaisy/src/dev/oled_ssd130x.h ****             return;
 3356              		.loc 6 241 9 is_stmt 0 view .LVU933
 3357 0304 7F29     		cmp	r1, #127
 3358              	.LBE1337:
 3359              	.LBE1336:
 3360              	.LBE1335:
 189:../../libdaisy/src/hid/disp/display.h ****         int_fast16_t signY  = ((y1 < y2) ? 1 : -1);
 3361              		.loc 5 189 42 view .LVU934
 3362 0306 4FF0FF39 		mov	r9, #-1
 3363              	.LBB1344:
 3364              	.LBB1341:
 3365              	.LBB1338:
 241:../../libdaisy/src/dev/oled_ssd130x.h ****             return;
 3366              		.loc 6 241 9 view .LVU935
 3367 030a 0FD8     		bhi	.L245
 241:../../libdaisy/src/dev/oled_ssd130x.h ****             return;
 3368              		.loc 6 241 9 view .LVU936
 3369 030c 059B     		ldr	r3, [sp, #20]
 3370 030e 6BB9     		cbnz	r3, .L245
 3371              	.LVL226:
 3372              	.L267:
 244:../../libdaisy/src/dev/oled_ssd130x.h ****         else
 3373              		.loc 6 244 28 view .LVU937
 3374 0310 D308     		lsrs	r3, r2, #3
 244:../../libdaisy/src/dev/oled_ssd130x.h ****         else
 3375              		.loc 6 244 54 view .LVU938
 3376 0312 02F0070C 		and	ip, r2, #7
 244:../../libdaisy/src/dev/oled_ssd130x.h ****         else
 3377              		.loc 6 244 48 view .LVU939
 3378 0316 0120     		movs	r0, #1
 244:../../libdaisy/src/dev/oled_ssd130x.h ****         else
 3379              		.loc 6 244 42 view .LVU940
 3380 0318 01EBC313 		add	r3, r1, r3, lsl #7
 244:../../libdaisy/src/dev/oled_ssd130x.h ****         else
 3381              		.loc 6 244 48 view .LVU941
 3382 031c 00FA0CF0 		lsl	r0, r0, ip
 244:../../libdaisy/src/dev/oled_ssd130x.h ****         else
 3383              		.loc 6 244 42 view .LVU942
 3384 0320 2344     		add	r3, r3, r4
 3385 0322 93F814C0 		ldrb	ip, [r3, #20]	@ zero_extendqisi2
 3386 0326 40EA0C00 		orr	r0, r0, ip
 3387 032a 1875     		strb	r0, [r3, #20]
 3388              	.L245:
 3389              	.LVL227:
 244:../../libdaisy/src/dev/oled_ssd130x.h ****         else
 3390              		.loc 6 244 42 view .LVU943
 3391              	.LBE1338:
 3392              	.LBE1341:
 3393              	.LBE1344:
 199:../../libdaisy/src/hid/disp/display.h ****         {
 3394              		.loc 5 199 26 is_stmt 1 view .LVU944
 3395 032c 8E42     		cmp	r6, r1
 3396 032e 41D0     		beq	.L246
 3397              	.L247:
 3398              	.LVL228:
 187:../../libdaisy/src/hid/disp/display.h ****         int_fast16_t deltaY = abs((int_fast16_t)y2 - (int_fast16_t)y1);
ARM GAS  C:\Users\VINCIU~1\AppData\Local\Temp\ccYgfSqf.s 			page 100


 3399              		.loc 5 187 22 is_stmt 0 view .LVU945
 3400 0330 C646     		mov	lr, r8
 3401              	.LBE1334:
 3402              	.LBE1333:
 648:Menus.cpp     ****                     25,
 3403              		.loc 2 648 20 view .LVU946
 3404 0332 9446     		mov	ip, r2
 3405              	.L249:
 3406              	.LVL229:
 3407              	.LBB1352:
 3408              	.LBB1350:
 3409              	.LBB1345:
 3410              	.LBI1345:
  41:../../libdaisy/src/hid/disp/oled_display.h ****     {
 3411              		.loc 1 41 10 is_stmt 1 view .LVU947
 3412              	.LBB1346:
 3413              	.LBI1346:
 239:../../libdaisy/src/dev/oled_ssd130x.h ****     {
 3414              		.loc 6 239 10 view .LVU948
 3415              	.LBB1347:
 244:../../libdaisy/src/dev/oled_ssd130x.h ****         else
 3416              		.loc 6 244 28 is_stmt 0 view .LVU949
 3417 0334 4FEADC03 		lsr	r3, ip, #3
 244:../../libdaisy/src/dev/oled_ssd130x.h ****         else
 3418              		.loc 6 244 54 view .LVU950
 3419 0338 0CF0070A 		and	r10, ip, #7
 244:../../libdaisy/src/dev/oled_ssd130x.h ****         else
 3420              		.loc 6 244 48 view .LVU951
 3421 033c 0120     		movs	r0, #1
 241:../../libdaisy/src/dev/oled_ssd130x.h ****             return;
 3422              		.loc 6 241 9 view .LVU952
 3423 033e 7F2E     		cmp	r6, #127
 244:../../libdaisy/src/dev/oled_ssd130x.h ****         else
 3424              		.loc 6 244 42 view .LVU953
 3425 0340 06EBC313 		add	r3, r6, r3, lsl #7
 244:../../libdaisy/src/dev/oled_ssd130x.h ****         else
 3426              		.loc 6 244 48 view .LVU954
 3427 0344 00FA0AF0 		lsl	r0, r0, r10
 241:../../libdaisy/src/dev/oled_ssd130x.h ****             return;
 3428              		.loc 6 241 9 view .LVU955
 3429 0348 08D8     		bhi	.L250
 3430 034a BCF13F0F 		cmp	ip, #63
 244:../../libdaisy/src/dev/oled_ssd130x.h ****         else
 3431              		.loc 6 244 42 view .LVU956
 3432 034e 2344     		add	r3, r3, r4
 241:../../libdaisy/src/dev/oled_ssd130x.h ****             return;
 3433              		.loc 6 241 9 view .LVU957
 3434 0350 04D8     		bhi	.L250
 244:../../libdaisy/src/dev/oled_ssd130x.h ****         else
 3435              		.loc 6 244 42 view .LVU958
 3436 0352 93F814A0 		ldrb	r10, [r3, #20]	@ zero_extendqisi2
 3437 0356 40EA0A00 		orr	r0, r0, r10
 3438 035a 1875     		strb	r0, [r3, #20]
 3439              	.L250:
 244:../../libdaisy/src/dev/oled_ssd130x.h ****         else
 3440              		.loc 6 244 42 view .LVU959
 3441              	.LBE1347:
ARM GAS  C:\Users\VINCIU~1\AppData\Local\Temp\ccYgfSqf.s 			page 101


 3442              	.LBE1346:
 3443              	.LBE1345:
 203:../../libdaisy/src/hid/disp/display.h ****             {
 3444              		.loc 5 203 13 view .LVU960
 3445 035c 5FEA4E03 		lsls	r3, lr, #1
 206:../../libdaisy/src/hid/disp/display.h ****             }
 3446              		.loc 5 206 20 view .LVU961
 3447 0360 18BF     		it	ne
 3448 0362 4E44     		addne	r6, r6, r9
 3449              	.LVL230:
 209:../../libdaisy/src/hid/disp/display.h ****             {
 3450              		.loc 5 209 13 view .LVU962
 3451 0364 9845     		cmp	r8, r3
 3452 0366 02DD     		ble	.L252
 211:../../libdaisy/src/hid/disp/display.h ****                 y1 += signY;
 3453              		.loc 5 211 23 view .LVU963
 3454 0368 C644     		add	lr, lr, r8
 3455              	.LVL231:
 212:../../libdaisy/src/hid/disp/display.h ****             }
 3456              		.loc 5 212 20 view .LVU964
 3457 036a 0CF1FF3C 		add	ip, ip, #-1
 3458              	.LVL232:
 3459              	.L252:
 199:../../libdaisy/src/hid/disp/display.h ****         {
 3460              		.loc 5 199 26 is_stmt 1 view .LVU965
 3461 036e B142     		cmp	r1, r6
 3462 0370 E0D1     		bne	.L249
 199:../../libdaisy/src/hid/disp/display.h ****         {
 3463              		.loc 5 199 26 is_stmt 0 view .LVU966
 3464 0372 6245     		cmp	r2, ip
 3465 0374 DED1     		bne	.L249
 3466 0376 1DE0     		b	.L362
 3467              	.L363:
 3468              		.align	3
 3469              	.L361:
 3470 0378 66666666 		.word	1717986918
 3471 037c 66660A40 		.word	1074423398
 3472 0380 00000042 		.word	1107296256
 3473 0384 0000C842 		.word	1120403456
 3474 0388 00000000 		.word	Font_6x8
 3475 038c 20000400 		.word	262176
 3476 0390 00000000 		.word	.LC3
 3477 0394 30000400 		.word	262192
 3478 0398 04000000 		.word	.LC4
 3479 039c 40000400 		.word	262208
 3480 03a0 08000000 		.word	.LC5
 3481 03a4 50000400 		.word	262224
 3482 03a8 0C000000 		.word	.LC6
 3483 03ac 00006C42 		.word	1114374144
 3484 03b0 00000042 		.word	1107296256
 3485              	.L362:
 3486              	.LVL233:
 3487              	.L246:
 199:../../libdaisy/src/hid/disp/display.h ****         {
 3488              		.loc 5 199 26 view .LVU967
 3489              	.LBE1350:
 3490              	.LBE1352:
ARM GAS  C:\Users\VINCIU~1\AppData\Local\Temp\ccYgfSqf.s 			page 102


 658:Menus.cpp     ****                     (screen.Height() - 5) - sustatinLevelScaleDraw,
 659:Menus.cpp     ****                     true);
 660:Menus.cpp     ****       screen.DrawLine( attackTimeScaleDraw + decayTimeScaleDraw
 3491              		.loc 2 660 7 is_stmt 1 view .LVU968
 661:Menus.cpp     ****                         + screen.Width() / 4,
 662:Menus.cpp     ****                     (screen.Height() - 5) - sustatinLevelScaleDraw,
 663:Menus.cpp     ****                     attackTimeScaleDraw + decayTimeScaleDraw
 664:Menus.cpp     ****                         + screen.Width() / 4 + releaseTimeScaleDraw, screen.Height()-5,true);
 3492              		.loc 2 664 46 is_stmt 0 view .LVU969
 3493 03b4 97ED6E7A 		vldr.32	s14, [r7, #440]
 3494              	.LBB1353:
 3495              	.LBB1354:
 188:../../libdaisy/src/hid/disp/display.h ****         int_fast16_t signX  = ((x1 < x2) ? 1 : -1);
 3496              		.loc 5 188 52 view .LVU970
 3497 03b8 C2F13B08 		rsb	r8, r2, #59
 3498              	.LBE1354:
 3499              	.LBE1353:
 3500              		.loc 2 664 46 view .LVU971
 3501 03bc 77EE877A 		vadd.f32	s15, s15, s14
 3502              	.LBB1380:
 3503              	.LBB1377:
 188:../../libdaisy/src/hid/disp/display.h ****         int_fast16_t signX  = ((x1 < x2) ? 1 : -1);
 3504              		.loc 5 188 22 view .LVU972
 3505 03c0 B8F1000F 		cmp	r8, #0
 3506 03c4 B8BF     		it	lt
 3507 03c6 C8F10008 		rsblt	r8, r8, #0
 3508              	.LBE1377:
 3509              	.LBE1380:
 660:Menus.cpp     ****                         + screen.Width() / 4,
 3510              		.loc 2 660 22 view .LVU973
 3511 03ca FCEEE77A 		vcvt.u32.f32	s15, s15
 3512 03ce 17EE90CA 		vmov	ip, s15	@ int
 3513              	.LVL234:
 3514              	.LBB1381:
 3515              	.LBI1353:
 181:../../libdaisy/src/hid/disp/display.h ****                   uint_fast8_t y1,
 3516              		.loc 5 181 10 is_stmt 1 view .LVU974
 3517              	.LBB1378:
 187:../../libdaisy/src/hid/disp/display.h ****         int_fast16_t deltaY = abs((int_fast16_t)y2 - (int_fast16_t)y1);
 3518              		.loc 5 187 52 is_stmt 0 view .LVU975
 3519 03d2 ACEB010E 		sub	lr, ip, r1
 187:../../libdaisy/src/hid/disp/display.h ****         int_fast16_t deltaY = abs((int_fast16_t)y2 - (int_fast16_t)y1);
 3520              		.loc 5 187 22 view .LVU976
 3521 03d6 BEF1000F 		cmp	lr, #0
 3522 03da B8BF     		it	lt
 3523 03dc CEF1000E 		rsblt	lr, lr, #0
 3524              	.LVL235:
 189:../../libdaisy/src/hid/disp/display.h ****         int_fast16_t signY  = ((y1 < y2) ? 1 : -1);
 3525              		.loc 5 189 42 view .LVU977
 3526 03e0 6145     		cmp	r1, ip
 3527 03e2 34BF     		ite	cc
 3528 03e4 4FF0010A 		movcc	r10, #1
 3529 03e8 4FF0FF3A 		movcs	r10, #-1
 3530              	.LVL236:
 190:../../libdaisy/src/hid/disp/display.h ****         int_fast16_t error  = deltaX - deltaY;
 3531              		.loc 5 190 42 view .LVU978
 3532 03ec 3A2A     		cmp	r2, #58
ARM GAS  C:\Users\VINCIU~1\AppData\Local\Temp\ccYgfSqf.s 			page 103


 191:../../libdaisy/src/hid/disp/display.h ****         int_fast16_t error2;
 3533              		.loc 5 191 22 view .LVU979
 3534 03ee AEEB0800 		sub	r0, lr, r8
 190:../../libdaisy/src/hid/disp/display.h ****         int_fast16_t error  = deltaX - deltaY;
 3535              		.loc 5 190 42 view .LVU980
 3536 03f2 40F2BD81 		bls	.L254
 3537              	.LVL237:
 3538              	.LBB1355:
 3539              	.LBI1355:
  41:../../libdaisy/src/hid/disp/oled_display.h ****     {
 3540              		.loc 1 41 10 is_stmt 1 view .LVU981
 3541              	.LBB1356:
 3542              	.LBI1356:
 239:../../libdaisy/src/dev/oled_ssd130x.h ****     {
 3543              		.loc 6 239 10 view .LVU982
 3544              	.LBE1356:
 3545              	.LBE1355:
 190:../../libdaisy/src/hid/disp/display.h ****         int_fast16_t error  = deltaX - deltaY;
 3546              		.loc 5 190 42 is_stmt 0 view .LVU983
 3547 03f6 4FF0FF33 		mov	r3, #-1
 3548              	.LBB1366:
 3549              	.LBB1361:
 3550              	.LBB1357:
 241:../../libdaisy/src/dev/oled_ssd130x.h ****             return;
 3551              		.loc 6 241 9 view .LVU984
 3552 03fa BCF17F0F 		cmp	ip, #127
 3553              	.LBE1357:
 3554              	.LBE1361:
 3555              	.LBE1366:
 190:../../libdaisy/src/hid/disp/display.h ****         int_fast16_t error  = deltaX - deltaY;
 3556              		.loc 5 190 42 view .LVU985
 3557 03fe 0293     		str	r3, [sp, #8]
 3558              	.LBB1367:
 3559              	.LBB1362:
 3560              	.LBB1358:
 241:../../libdaisy/src/dev/oled_ssd130x.h ****             return;
 3561              		.loc 6 241 9 view .LVU986
 3562 0400 06D8     		bhi	.L255
 3563              	.LVL238:
 3564              	.L266:
 244:../../libdaisy/src/dev/oled_ssd130x.h ****         else
 3565              		.loc 6 244 42 view .LVU987
 3566 0402 0CF56073 		add	r3, ip, #896
 3567 0406 2344     		add	r3, r3, r4
 3568 0408 1E7D     		ldrb	r6, [r3, #20]	@ zero_extendqisi2
 3569 040a 46F00806 		orr	r6, r6, #8
 3570 040e 1E75     		strb	r6, [r3, #20]
 3571              	.L255:
 3572              	.LVL239:
 244:../../libdaisy/src/dev/oled_ssd130x.h ****         else
 3573              		.loc 6 244 42 view .LVU988
 3574              	.LBE1358:
 3575              	.LBE1362:
 3576              	.LBE1367:
 199:../../libdaisy/src/hid/disp/display.h ****         {
 3577              		.loc 5 199 26 is_stmt 1 view .LVU989
 3578 0410 6145     		cmp	r1, ip
ARM GAS  C:\Users\VINCIU~1\AppData\Local\Temp\ccYgfSqf.s 			page 104


 3579 0412 01D1     		bne	.L258
 3580 0414 3B2A     		cmp	r2, #59
 3581 0416 25D0     		beq	.L256
 3582              	.L258:
 3583              	.LVL240:
 203:../../libdaisy/src/hid/disp/display.h ****             {
 3584              		.loc 5 203 23 is_stmt 0 view .LVU990
 3585 0418 C8F10009 		rsb	r9, r8, #0
 3586              	.LVL241:
 3587              	.L260:
 3588              	.LBB1368:
 3589              	.LBI1368:
  41:../../libdaisy/src/hid/disp/oled_display.h ****     {
 3590              		.loc 1 41 10 is_stmt 1 view .LVU991
 3591              	.LBB1369:
 3592              	.LBI1369:
 239:../../libdaisy/src/dev/oled_ssd130x.h ****     {
 3593              		.loc 6 239 10 view .LVU992
 3594              	.LBB1370:
 244:../../libdaisy/src/dev/oled_ssd130x.h ****         else
 3595              		.loc 6 244 48 is_stmt 0 view .LVU993
 3596 041c 4FF0010B 		mov	fp, #1
 244:../../libdaisy/src/dev/oled_ssd130x.h ****         else
 3597              		.loc 6 244 28 view .LVU994
 3598 0420 D308     		lsrs	r3, r2, #3
 244:../../libdaisy/src/dev/oled_ssd130x.h ****         else
 3599              		.loc 6 244 54 view .LVU995
 3600 0422 02F00706 		and	r6, r2, #7
 241:../../libdaisy/src/dev/oled_ssd130x.h ****             return;
 3601              		.loc 6 241 9 view .LVU996
 3602 0426 7F29     		cmp	r1, #127
 244:../../libdaisy/src/dev/oled_ssd130x.h ****         else
 3603              		.loc 6 244 42 view .LVU997
 3604 0428 01EBC313 		add	r3, r1, r3, lsl #7
 3605              	.LBE1370:
 3606              	.LBE1369:
 3607              	.LBE1368:
 202:../../libdaisy/src/hid/disp/display.h ****             if(error2 > -deltaY)
 3608              		.loc 5 202 20 view .LVU998
 3609 042c 00FA0BF7 		lsl	r7, r0, fp
 3610              	.LVL242:
 3611              	.LBB1373:
 3612              	.LBB1372:
 3613              	.LBB1371:
 244:../../libdaisy/src/dev/oled_ssd130x.h ****         else
 3614              		.loc 6 244 48 view .LVU999
 3615 0430 0BFA06F6 		lsl	r6, fp, r6
 241:../../libdaisy/src/dev/oled_ssd130x.h ****             return;
 3616              		.loc 6 241 9 view .LVU1000
 3617 0434 07D8     		bhi	.L261
 3618 0436 3F2A     		cmp	r2, #63
 244:../../libdaisy/src/dev/oled_ssd130x.h ****         else
 3619              		.loc 6 244 42 view .LVU1001
 3620 0438 2344     		add	r3, r3, r4
 241:../../libdaisy/src/dev/oled_ssd130x.h ****             return;
 3621              		.loc 6 241 9 view .LVU1002
 3622 043a 04D8     		bhi	.L261
ARM GAS  C:\Users\VINCIU~1\AppData\Local\Temp\ccYgfSqf.s 			page 105


 244:../../libdaisy/src/dev/oled_ssd130x.h ****         else
 3623              		.loc 6 244 42 view .LVU1003
 3624 043c 93F814B0 		ldrb	fp, [r3, #20]	@ zero_extendqisi2
 3625 0440 46EA0B06 		orr	r6, r6, fp
 3626 0444 1E75     		strb	r6, [r3, #20]
 3627              	.L261:
 244:../../libdaisy/src/dev/oled_ssd130x.h ****         else
 3628              		.loc 6 244 42 view .LVU1004
 3629              	.LBE1371:
 3630              	.LBE1372:
 3631              	.LBE1373:
 203:../../libdaisy/src/hid/disp/display.h ****             {
 3632              		.loc 5 203 13 view .LVU1005
 3633 0446 B9EB400F 		cmp	r9, r0, lsl #1
 3634 044a 02DA     		bge	.L262
 205:../../libdaisy/src/hid/disp/display.h ****                 x1 += signX;
 3635              		.loc 5 205 23 view .LVU1006
 3636 044c A0EB0800 		sub	r0, r0, r8
 3637              	.LVL243:
 206:../../libdaisy/src/hid/disp/display.h ****             }
 3638              		.loc 5 206 20 view .LVU1007
 3639 0450 5144     		add	r1, r1, r10
 3640              	.LVL244:
 3641              	.L262:
 209:../../libdaisy/src/hid/disp/display.h ****             {
 3642              		.loc 5 209 13 view .LVU1008
 3643 0452 BE45     		cmp	lr, r7
 3644 0454 02DD     		ble	.L263
 212:../../libdaisy/src/hid/disp/display.h ****             }
 3645              		.loc 5 212 20 view .LVU1009
 3646 0456 029B     		ldr	r3, [sp, #8]
 211:../../libdaisy/src/hid/disp/display.h ****                 y1 += signY;
 3647              		.loc 5 211 23 view .LVU1010
 3648 0458 7044     		add	r0, r0, lr
 3649              	.LVL245:
 212:../../libdaisy/src/hid/disp/display.h ****             }
 3650              		.loc 5 212 20 view .LVU1011
 3651 045a 1A44     		add	r2, r2, r3
 3652              	.LVL246:
 3653              	.L263:
 199:../../libdaisy/src/hid/disp/display.h ****         {
 3654              		.loc 5 199 26 is_stmt 1 view .LVU1012
 3655 045c 8C45     		cmp	ip, r1
 3656 045e DDD1     		bne	.L260
 199:../../libdaisy/src/hid/disp/display.h ****         {
 3657              		.loc 5 199 26 is_stmt 0 view .LVU1013
 3658 0460 3B2A     		cmp	r2, #59
 3659 0462 DBD1     		bne	.L260
 3660              	.LVL247:
 3661              	.L256:
 199:../../libdaisy/src/hid/disp/display.h ****         {
 3662              		.loc 5 199 26 view .LVU1014
 3663              	.LBE1378:
 3664              	.LBE1381:
 3665              	.LBB1382:
 3666              	.LBB1383:
 3667              	.LBB1384:
ARM GAS  C:\Users\VINCIU~1\AppData\Local\Temp\ccYgfSqf.s 			page 106


 3668              	.LBB1385:
 3669              	.LBB1386:
 111:../../libdaisy/src/dev/oled_ssd130x.h ****         spi_.BlockingTransmit(&cmd, 1);
 3670              		.loc 6 111 24 view .LVU1015
 3671 0464 05F10807 		add	r7, r5, #8
 3672 0468 05F10C06 		add	r6, r5, #12
 3673 046c 05F20C49 		addw	r9, r5, #1036
 3674 0470 B024     		movs	r4, #176
 3675              	.LVL248:
 3676              	.L264:
 111:../../libdaisy/src/dev/oled_ssd130x.h ****         spi_.BlockingTransmit(&cmd, 1);
 3677              		.loc 6 111 24 view .LVU1016
 3678 0472 4FF00008 		mov	r8, #0
 111:../../libdaisy/src/dev/oled_ssd130x.h ****         spi_.BlockingTransmit(&cmd, 1);
 3679              		.loc 6 111 23 view .LVU1017
 3680 0476 3846     		mov	r0, r7
 3681 0478 8DF81F40 		strb	r4, [sp, #31]
 3682              	.LVL249:
 111:../../libdaisy/src/dev/oled_ssd130x.h ****         spi_.BlockingTransmit(&cmd, 1);
 3683              		.loc 6 111 23 view .LVU1018
 3684              	.LBE1386:
 3685              	.LBI1385:
 109:../../libdaisy/src/dev/oled_ssd130x.h ****     {
 3686              		.loc 6 109 10 is_stmt 1 view .LVU1019
 3687              	.LBB1387:
 111:../../libdaisy/src/dev/oled_ssd130x.h ****         spi_.BlockingTransmit(&cmd, 1);
 3688              		.loc 6 111 9 view .LVU1020
 3689              	.LBE1387:
 3690              	.LBE1385:
 3691              		.loc 6 270 22 is_stmt 0 view .LVU1021
 3692 047c 0134     		adds	r4, r4, #1
 3693              	.LVL250:
 3694              	.LBB1390:
 3695              	.LBB1388:
 111:../../libdaisy/src/dev/oled_ssd130x.h ****         spi_.BlockingTransmit(&cmd, 1);
 3696              		.loc 6 111 23 view .LVU1022
 3697 047e 4146     		mov	r1, r8
 3698 0480 FFF7FEFF 		bl	dsy_gpio_write
 3699              	.LVL251:
 112:../../libdaisy/src/dev/oled_ssd130x.h ****     };
 3700              		.loc 6 112 9 is_stmt 1 view .LVU1023
 112:../../libdaisy/src/dev/oled_ssd130x.h ****     };
 3701              		.loc 6 112 30 is_stmt 0 view .LVU1024
 3702 0484 6423     		movs	r3, #100
 3703 0486 0122     		movs	r2, #1
 3704 0488 0DF11F01 		add	r1, sp, #31
 3705 048c 2846     		mov	r0, r5
 3706              	.LBE1388:
 3707              	.LBE1390:
 3708              		.loc 6 270 22 view .LVU1025
 3709 048e E4B2     		uxtb	r4, r4
 3710              	.LBB1391:
 3711              	.LBB1389:
 112:../../libdaisy/src/dev/oled_ssd130x.h ****     };
 3712              		.loc 6 112 30 view .LVU1026
 3713 0490 FFF7FEFF 		bl	_ZN5daisy9SpiHandle16BlockingTransmitEPhjm
 3714              	.LVL252:
ARM GAS  C:\Users\VINCIU~1\AppData\Local\Temp\ccYgfSqf.s 			page 107


 112:../../libdaisy/src/dev/oled_ssd130x.h ****     };
 3715              		.loc 6 112 30 view .LVU1027
 3716              	.LBE1389:
 3717              	.LBE1391:
 3718              	.LBB1392:
 3719              	.LBB1393:
 111:../../libdaisy/src/dev/oled_ssd130x.h ****         spi_.BlockingTransmit(&cmd, 1);
 3720              		.loc 6 111 23 view .LVU1028
 3721 0494 4146     		mov	r1, r8
 3722 0496 3846     		mov	r0, r7
 3723 0498 8DF81F80 		strb	r8, [sp, #31]
 3724              	.LVL253:
 111:../../libdaisy/src/dev/oled_ssd130x.h ****         spi_.BlockingTransmit(&cmd, 1);
 3725              		.loc 6 111 23 view .LVU1029
 3726              	.LBE1393:
 3727              	.LBI1392:
 109:../../libdaisy/src/dev/oled_ssd130x.h ****     {
 3728              		.loc 6 109 10 is_stmt 1 view .LVU1030
 3729              	.LBB1394:
 111:../../libdaisy/src/dev/oled_ssd130x.h ****         spi_.BlockingTransmit(&cmd, 1);
 3730              		.loc 6 111 9 view .LVU1031
 111:../../libdaisy/src/dev/oled_ssd130x.h ****         spi_.BlockingTransmit(&cmd, 1);
 3731              		.loc 6 111 23 is_stmt 0 view .LVU1032
 3732 049c FFF7FEFF 		bl	dsy_gpio_write
 3733              	.LVL254:
 112:../../libdaisy/src/dev/oled_ssd130x.h ****     };
 3734              		.loc 6 112 9 is_stmt 1 view .LVU1033
 112:../../libdaisy/src/dev/oled_ssd130x.h ****     };
 3735              		.loc 6 112 30 is_stmt 0 view .LVU1034
 3736 04a0 0122     		movs	r2, #1
 3737 04a2 6423     		movs	r3, #100
 3738 04a4 0DF11F01 		add	r1, sp, #31
 3739 04a8 2846     		mov	r0, r5
 3740 04aa FFF7FEFF 		bl	_ZN5daisy9SpiHandle16BlockingTransmitEPhjm
 3741              	.LVL255:
 112:../../libdaisy/src/dev/oled_ssd130x.h ****     };
 3742              		.loc 6 112 30 view .LVU1035
 3743 04ae 1023     		movs	r3, #16
 3744              	.LBE1394:
 3745              	.LBE1392:
 3746              	.LBB1395:
 3747              	.LBB1396:
 111:../../libdaisy/src/dev/oled_ssd130x.h ****         spi_.BlockingTransmit(&cmd, 1);
 3748              		.loc 6 111 23 view .LVU1036
 3749 04b0 4146     		mov	r1, r8
 3750 04b2 3846     		mov	r0, r7
 3751 04b4 8DF81F30 		strb	r3, [sp, #31]
 3752              	.LVL256:
 111:../../libdaisy/src/dev/oled_ssd130x.h ****         spi_.BlockingTransmit(&cmd, 1);
 3753              		.loc 6 111 23 view .LVU1037
 3754              	.LBE1396:
 3755              	.LBI1395:
 109:../../libdaisy/src/dev/oled_ssd130x.h ****     {
 3756              		.loc 6 109 10 is_stmt 1 view .LVU1038
 3757              	.LBB1397:
 111:../../libdaisy/src/dev/oled_ssd130x.h ****         spi_.BlockingTransmit(&cmd, 1);
 3758              		.loc 6 111 9 view .LVU1039
ARM GAS  C:\Users\VINCIU~1\AppData\Local\Temp\ccYgfSqf.s 			page 108


 111:../../libdaisy/src/dev/oled_ssd130x.h ****         spi_.BlockingTransmit(&cmd, 1);
 3759              		.loc 6 111 23 is_stmt 0 view .LVU1040
 3760 04b8 FFF7FEFF 		bl	dsy_gpio_write
 3761              	.LVL257:
 112:../../libdaisy/src/dev/oled_ssd130x.h ****     };
 3762              		.loc 6 112 9 is_stmt 1 view .LVU1041
 112:../../libdaisy/src/dev/oled_ssd130x.h ****     };
 3763              		.loc 6 112 30 is_stmt 0 view .LVU1042
 3764 04bc 6423     		movs	r3, #100
 3765 04be 0122     		movs	r2, #1
 3766 04c0 0DF11F01 		add	r1, sp, #31
 3767 04c4 2846     		mov	r0, r5
 3768 04c6 FFF7FEFF 		bl	_ZN5daisy9SpiHandle16BlockingTransmitEPhjm
 3769              	.LVL258:
 112:../../libdaisy/src/dev/oled_ssd130x.h ****     };
 3770              		.loc 6 112 30 view .LVU1043
 3771              	.LBE1397:
 3772              	.LBE1395:
 3773              	.LBB1398:
 3774              	.LBI1398:
 115:../../libdaisy/src/dev/oled_ssd130x.h ****     {
 3775              		.loc 6 115 10 is_stmt 1 view .LVU1044
 3776              	.LBB1399:
 117:../../libdaisy/src/dev/oled_ssd130x.h ****         spi_.BlockingTransmit(buff, size);
 3777              		.loc 6 117 9 view .LVU1045
 117:../../libdaisy/src/dev/oled_ssd130x.h ****         spi_.BlockingTransmit(buff, size);
 3778              		.loc 6 117 23 is_stmt 0 view .LVU1046
 3779 04ca 0121     		movs	r1, #1
 3780 04cc 3846     		mov	r0, r7
 3781 04ce FFF7FEFF 		bl	dsy_gpio_write
 3782              	.LVL259:
 118:../../libdaisy/src/dev/oled_ssd130x.h ****     };
 3783              		.loc 6 118 9 is_stmt 1 view .LVU1047
 118:../../libdaisy/src/dev/oled_ssd130x.h ****     };
 3784              		.loc 6 118 30 is_stmt 0 view .LVU1048
 3785 04d2 8022     		movs	r2, #128
 3786 04d4 3146     		mov	r1, r6
 3787 04d6 6423     		movs	r3, #100
 3788              	.LBE1399:
 3789              	.LBE1398:
 3790              		.loc 6 270 22 view .LVU1049
 3791 04d8 1644     		add	r6, r6, r2
 3792              	.LVL260:
 3793              	.LBB1401:
 3794              	.LBB1400:
 118:../../libdaisy/src/dev/oled_ssd130x.h ****     };
 3795              		.loc 6 118 30 view .LVU1050
 3796 04da 2846     		mov	r0, r5
 3797 04dc FFF7FEFF 		bl	_ZN5daisy9SpiHandle16BlockingTransmitEPhjm
 3798              	.LVL261:
 118:../../libdaisy/src/dev/oled_ssd130x.h ****     };
 3799              		.loc 6 118 30 view .LVU1051
 3800              	.LBE1400:
 3801              	.LBE1401:
 3802              		.loc 6 270 9 is_stmt 1 view .LVU1052
 3803              		.loc 6 270 22 view .LVU1053
 3804 04e0 4E45     		cmp	r6, r9
ARM GAS  C:\Users\VINCIU~1\AppData\Local\Temp\ccYgfSqf.s 			page 109


 3805 04e2 C6D1     		bne	.L264
 3806              	.LBE1384:
 3807              	.LBE1383:
 3808              	.LBE1382:
 665:Menus.cpp     ****                   
 666:Menus.cpp     ****                     
 667:Menus.cpp     **** 
 668:Menus.cpp     **** 
 669:Menus.cpp     ****     screen.Update();
 670:Menus.cpp     **** }...
 3809              		.loc 2 670 1 is_stmt 0 view .LVU1054
 3810 04e4 09B0     		add	sp, sp, #36
 3811              		.cfi_remember_state
 3812              		.cfi_def_cfa_offset 36
 3813              		@ sp needed
 3814 04e6 BDE8F08F 		pop	{r4, r5, r6, r7, r8, r9, r10, fp, pc}
 3815              	.LVL262:
 3816              	.L350:
 3817              		.cfi_restore_state
 544:Menus.cpp     ****         this->menuStateEnv = this->menuStateEnv + 1;
 3818              		.loc 2 544 9 is_stmt 1 view .LVU1055
 544:Menus.cpp     ****         this->menuStateEnv = this->menuStateEnv + 1;
 3819              		.loc 2 544 49 is_stmt 0 view .LVU1056
 3820 04ea 0133     		adds	r3, r3, #1
 545:Menus.cpp     ****         if(this->menuStateEnv > 3)
 3821              		.loc 2 545 9 view .LVU1057
 3822 04ec 032B     		cmp	r3, #3
 544:Menus.cpp     ****         this->menuStateEnv = this->menuStateEnv + 1;
 3823              		.loc 2 544 28 view .LVU1058
 3824 04ee C7F8A431 		str	r3, [r7, #420]
 545:Menus.cpp     ****         if(this->menuStateEnv > 3)
 3825              		.loc 2 545 9 is_stmt 1 view .LVU1059
 3826 04f2 7FF79DAD 		ble	.L171
 3827              	.L172:
 547:Menus.cpp     ****             this->menuStateEnv = 0;
 3828              		.loc 2 547 13 view .LVU1060
 547:Menus.cpp     ****             this->menuStateEnv = 0;
 3829              		.loc 2 547 32 is_stmt 0 view .LVU1061
 3830 04f6 0023     		movs	r3, #0
 3831 04f8 C7F8A431 		str	r3, [r7, #420]
 550:Menus.cpp     ****     if(menuStateEnv == 0)
 3832              		.loc 2 550 5 is_stmt 1 view .LVU1062
 3833              	.L170:
 552:Menus.cpp     ****         this->attackTime += this->encoderRight.Increment() * 3.3;
 3834              		.loc 2 552 9 view .LVU1063
 3835              	.LVL263:
 3836              	.LBB1402:
 3837              	.LBI1402:
 3838              		.loc 3 41 20 view .LVU1064
 3839              	.LBB1403:
 3840              		.loc 3 41 40 view .LVU1065
 3841              		.loc 3 41 40 is_stmt 0 view .LVU1066
 3842              	.LBE1403:
 3843              	.LBE1402:
 552:Menus.cpp     ****         this->attackTime += this->encoderRight.Increment() * 3.3;
 3844              		.loc 2 552 26 view .LVU1067
 3845 04fc 97ED667A 		vldr.32	s14, [r7, #408]
ARM GAS  C:\Users\VINCIU~1\AppData\Local\Temp\ccYgfSqf.s 			page 110


 552:Menus.cpp     ****         this->attackTime += this->encoderRight.Increment() * 3.3;
 3846              		.loc 2 552 60 view .LVU1068
 3847 0500 D7ED127A 		vldr.32	s15, [r7, #72]	@ int
 553:Menus.cpp     ****         this->attackTimeScaleDraw += this->encoderRight.Increment();
 3848              		.loc 2 553 35 view .LVU1069
 3849 0504 D7ED126A 		vldr.32	s13, [r7, #72]	@ int
 552:Menus.cpp     ****         this->attackTime += this->encoderRight.Increment() * 3.3;
 3850              		.loc 2 552 60 view .LVU1070
 3851 0508 B8EEE73B 		vcvt.f64.s32	d3, s15
 553:Menus.cpp     ****         this->attackTimeScaleDraw += this->encoderRight.Increment();
 3852              		.loc 2 553 35 view .LVU1071
 3853 050c D7ED685A 		vldr.32	s11, [r7, #416]
 552:Menus.cpp     ****         this->attackTime += this->encoderRight.Increment() * 3.3;
 3854              		.loc 2 552 26 view .LVU1072
 3855 0510 B7EEC77A 		vcvt.f64.f32	d7, s14
 554:Menus.cpp     ****         if(attackTimeScaleDraw >= screen.Width() / 4)
 3856              		.loc 2 554 9 view .LVU1073
 3857 0514 1FED5A6A 		vldr.32	s12, .L361+56
 553:Menus.cpp     ****         this->attackTimeScaleDraw += this->encoderRight.Increment();
 3858              		.loc 2 553 35 view .LVU1074
 3859 0518 F8EEE66A 		vcvt.f32.s32	s13, s13
 552:Menus.cpp     ****         this->attackTime += this->encoderRight.Increment() * 3.3;
 3860              		.loc 2 552 26 view .LVU1075
 3861 051c 9FEDA04B 		vldr.64	d4, .L364
 553:Menus.cpp     ****         this->attackTimeScaleDraw += this->encoderRight.Increment();
 3862              		.loc 2 553 35 view .LVU1076
 3863 0520 76EEA56A 		vadd.f32	s13, s13, s11
 552:Menus.cpp     ****         this->attackTime += this->encoderRight.Increment() * 3.3;
 3864              		.loc 2 552 26 view .LVU1077
 3865 0524 A3EE047B 		vfma.f64	d7, d3, d4
 554:Menus.cpp     ****         if(attackTimeScaleDraw >= screen.Width() / 4)
 3866              		.loc 2 554 9 view .LVU1078
 3867 0528 F4EEC66A 		vcmpe.f32	s13, s12
 3868 052c F1EE10FA 		vmrs	APSR_nzcv, FPSCR
 552:Menus.cpp     ****         this->attackTime += this->encoderRight.Increment() * 3.3;
 3869              		.loc 2 552 26 view .LVU1079
 3870 0530 B7EEC77B 		vcvt.f32.f64	s14, d7
 3871 0534 87ED667A 		vstr.32	s14, [r7, #408]
 553:Menus.cpp     ****         this->attackTimeScaleDraw += this->encoderRight.Increment();
 3872              		.loc 2 553 9 is_stmt 1 view .LVU1080
 3873              	.LVL264:
 3874              		.loc 3 41 40 view .LVU1081
 554:Menus.cpp     ****         if(attackTimeScaleDraw >= screen.Width() / 4)
 3875              		.loc 2 554 9 view .LVU1082
 3876 0538 62DA     		bge	.L354
 558:Menus.cpp     ****         if(attackTimeScaleDraw <= 0)
 3877              		.loc 2 558 9 view .LVU1083
 3878 053a F5EEC06A 		vcmpe.f32	s13, #0
 562:Menus.cpp     ****         if(attackTime >= 100)
 3879              		.loc 2 562 9 is_stmt 0 view .LVU1084
 3880 053e DFED9A7A 		vldr.32	s15, .L364+8
 558:Menus.cpp     ****         if(attackTimeScaleDraw <= 0)
 3881              		.loc 2 558 9 view .LVU1085
 3882 0542 0023     		movs	r3, #0
 3883 0544 F1EE10FA 		vmrs	APSR_nzcv, FPSCR
 562:Menus.cpp     ****         if(attackTime >= 100)
 3884              		.loc 2 562 9 view .LVU1086
ARM GAS  C:\Users\VINCIU~1\AppData\Local\Temp\ccYgfSqf.s 			page 111


 3885 0548 B4EEE77A 		vcmpe.f32	s14, s15
 553:Menus.cpp     ****         this->attackTimeScaleDraw += this->encoderRight.Increment();
 3886              		.loc 2 553 35 view .LVU1087
 3887 054c 8CBF     		ite	hi
 3888 054e C7ED686A 		vstrhi.32	s13, [r7, #416]
 560:Menus.cpp     ****             attackTimeScaleDraw = 0;
 3889              		.loc 2 560 13 is_stmt 1 view .LVU1088
 560:Menus.cpp     ****             attackTimeScaleDraw = 0;
 3890              		.loc 2 560 33 is_stmt 0 view .LVU1089
 3891 0552 C7F8A031 		strls	r3, [r7, #416]	@ float
 562:Menus.cpp     ****         if(attackTime >= 100)
 3892              		.loc 2 562 9 is_stmt 1 view .LVU1090
 3893 0556 F1EE10FA 		vmrs	APSR_nzcv, FPSCR
 3894 055a 5ADB     		blt	.L339
 3895              	.L355:
 564:Menus.cpp     ****             attackTime = 100;
 3896              		.loc 2 564 13 view .LVU1091
 564:Menus.cpp     ****             attackTime = 100;
 3897              		.loc 2 564 24 is_stmt 0 view .LVU1092
 3898 055c C7ED667A 		vstr.32	s15, [r7, #408]
 566:Menus.cpp     ****         if(attackTime <= 0)
 3899              		.loc 2 566 9 is_stmt 1 view .LVU1093
 3900              	.L180:
 570:Menus.cpp     ****         screen.DrawRect(28, 0, 40, 13, true, false);
 3901              		.loc 2 570 9 view .LVU1094
 3902              	.LVL265:
 3903              	.LBB1404:
 3904              	.LBI1404:
 217:../../libdaisy/src/hid/disp/display.h ****                   uint_fast8_t y1,
 3905              		.loc 5 217 10 view .LVU1095
 3906              	.LBB1405:
 3907              	.LBI1405:
 181:../../libdaisy/src/hid/disp/display.h ****                   uint_fast8_t y1,
 3908              		.loc 5 181 10 view .LVU1096
 3909              	.LBB1406:
 3910              	.LBB1407:
 3911              	.LBI1407:
  41:../../libdaisy/src/hid/disp/oled_display.h ****     {
 3912              		.loc 1 41 10 view .LVU1097
 3913              	.LBB1408:
 3914              	.LBI1408:
 239:../../libdaisy/src/dev/oled_ssd130x.h ****     {
 3915              		.loc 6 239 10 view .LVU1098
 3916              	.LBB1409:
 244:../../libdaisy/src/dev/oled_ssd130x.h ****         else
 3917              		.loc 6 244 42 is_stmt 0 view .LVU1099
 3918 0560 94F83C20 		ldrb	r2, [r4, #60]	@ zero_extendqisi2
 3919 0564 04F12F03 		add	r3, r4, #47
 3920 0568 04F13B01 		add	r1, r4, #59
 3921 056c 42F00102 		orr	r2, r2, #1
 3922 0570 84F83C20 		strb	r2, [r4, #60]
 3923              	.LVL266:
 244:../../libdaisy/src/dev/oled_ssd130x.h ****         else
 3924              		.loc 6 244 42 view .LVU1100
 3925              	.LBE1409:
 3926              	.LBE1408:
 3927              	.LBE1407:
ARM GAS  C:\Users\VINCIU~1\AppData\Local\Temp\ccYgfSqf.s 			page 112


 199:../../libdaisy/src/hid/disp/display.h ****         {
 3928              		.loc 5 199 26 is_stmt 1 view .LVU1101
 3929              	.L182:
 3930              	.LBB1410:
 3931              	.LBI1410:
  41:../../libdaisy/src/hid/disp/oled_display.h ****     {
 3932              		.loc 1 41 10 view .LVU1102
 3933              	.LBB1411:
 3934              	.LBI1411:
 239:../../libdaisy/src/dev/oled_ssd130x.h ****     {
 3935              		.loc 6 239 10 view .LVU1103
 3936              	.LBB1412:
 244:../../libdaisy/src/dev/oled_ssd130x.h ****         else
 3937              		.loc 6 244 42 is_stmt 0 view .LVU1104
 3938 0574 13F8012F 		ldrb	r2, [r3, #1]!	@ zero_extendqisi2
 244:../../libdaisy/src/dev/oled_ssd130x.h ****         else
 3939              		.loc 6 244 42 view .LVU1105
 3940 0578 42F00102 		orr	r2, r2, #1
 3941              	.LBE1412:
 3942              	.LBE1411:
 3943              	.LBE1410:
 199:../../libdaisy/src/hid/disp/display.h ****         {
 3944              		.loc 5 199 26 view .LVU1106
 3945 057c 9942     		cmp	r1, r3
 3946              	.LBB1415:
 3947              	.LBB1414:
 3948              	.LBB1413:
 244:../../libdaisy/src/dev/oled_ssd130x.h ****         else
 3949              		.loc 6 244 42 view .LVU1107
 3950 057e 1A70     		strb	r2, [r3]
 3951              	.LVL267:
 244:../../libdaisy/src/dev/oled_ssd130x.h ****         else
 3952              		.loc 6 244 42 view .LVU1108
 3953              	.LBE1413:
 3954              	.LBE1414:
 3955              	.LBE1415:
 199:../../libdaisy/src/hid/disp/display.h ****         {
 3956              		.loc 5 199 26 is_stmt 1 view .LVU1109
 3957 0580 F8D1     		bne	.L182
 3958              	.LVL268:
 199:../../libdaisy/src/hid/disp/display.h ****         {
 3959              		.loc 5 199 26 is_stmt 0 view .LVU1110
 3960              	.LBE1406:
 3961              	.LBE1405:
 3962              	.LBB1416:
 3963              	.LBI1416:
 181:../../libdaisy/src/hid/disp/display.h ****                   uint_fast8_t y1,
 3964              		.loc 5 181 10 is_stmt 1 view .LVU1111
 3965              	.LBB1417:
 3966              	.LBB1418:
 3967              	.LBI1418:
  41:../../libdaisy/src/hid/disp/oled_display.h ****     {
 3968              		.loc 1 41 10 view .LVU1112
 3969              	.LBB1419:
 3970              	.LBI1419:
 239:../../libdaisy/src/dev/oled_ssd130x.h ****     {
 3971              		.loc 6 239 10 view .LVU1113
ARM GAS  C:\Users\VINCIU~1\AppData\Local\Temp\ccYgfSqf.s 			page 113


 3972              	.LBB1420:
 244:../../libdaisy/src/dev/oled_ssd130x.h ****         else
 3973              		.loc 6 244 42 is_stmt 0 view .LVU1114
 3974 0582 94F8BC20 		ldrb	r2, [r4, #188]	@ zero_extendqisi2
 3975 0586 0023     		movs	r3, #0
 3976 0588 42F02002 		orr	r2, r2, #32
 3977 058c 84F8BC20 		strb	r2, [r4, #188]
 3978              	.LVL269:
 244:../../libdaisy/src/dev/oled_ssd130x.h ****         else
 3979              		.loc 6 244 42 view .LVU1115
 3980              	.LBE1420:
 3981              	.LBE1419:
 3982              	.LBE1418:
 199:../../libdaisy/src/hid/disp/display.h ****         {
 3983              		.loc 5 199 26 is_stmt 1 view .LVU1116
 3984              	.L183:
 3985              	.LBB1421:
 3986              	.LBI1421:
  41:../../libdaisy/src/hid/disp/oled_display.h ****     {
 3987              		.loc 1 41 10 view .LVU1117
 3988              	.LBB1422:
 3989              	.LBI1422:
 239:../../libdaisy/src/dev/oled_ssd130x.h ****     {
 3990              		.loc 6 239 10 view .LVU1118
 3991              	.LBB1423:
 244:../../libdaisy/src/dev/oled_ssd130x.h ****         else
 3992              		.loc 6 244 28 is_stmt 0 view .LVU1119
 3993 0590 D908     		lsrs	r1, r3, #3
 244:../../libdaisy/src/dev/oled_ssd130x.h ****         else
 3994              		.loc 6 244 54 view .LVU1120
 3995 0592 03F00700 		and	r0, r3, #7
 244:../../libdaisy/src/dev/oled_ssd130x.h ****         else
 3996              		.loc 6 244 48 view .LVU1121
 3997 0596 0122     		movs	r2, #1
 244:../../libdaisy/src/dev/oled_ssd130x.h ****         else
 3998              		.loc 6 244 42 view .LVU1122
 3999 0598 04EBC111 		add	r1, r4, r1, lsl #7
 4000              	.LBE1423:
 4001              	.LBE1422:
 4002              	.LBE1421:
 212:../../libdaisy/src/hid/disp/display.h ****             }
 4003              		.loc 5 212 20 view .LVU1123
 4004 059c 1344     		add	r3, r3, r2
 4005              	.LVL270:
 4006              	.LBB1428:
 4007              	.LBB1426:
 4008              	.LBB1424:
 244:../../libdaisy/src/dev/oled_ssd130x.h ****         else
 4009              		.loc 6 244 48 view .LVU1124
 4010 059e 8240     		lsls	r2, r2, r0
 244:../../libdaisy/src/dev/oled_ssd130x.h ****         else
 4011              		.loc 6 244 42 view .LVU1125
 4012 05a0 91F83C00 		ldrb	r0, [r1, #60]	@ zero_extendqisi2
 4013              	.LBE1424:
 4014              	.LBE1426:
 4015              	.LBE1428:
 199:../../libdaisy/src/hid/disp/display.h ****         {
ARM GAS  C:\Users\VINCIU~1\AppData\Local\Temp\ccYgfSqf.s 			page 114


 4016              		.loc 5 199 26 view .LVU1126
 4017 05a4 0D2B     		cmp	r3, #13
 4018              	.LBB1429:
 4019              	.LBB1427:
 4020              	.LBB1425:
 244:../../libdaisy/src/dev/oled_ssd130x.h ****         else
 4021              		.loc 6 244 42 view .LVU1127
 4022 05a6 42EA0002 		orr	r2, r2, r0
 4023 05aa 81F83C20 		strb	r2, [r1, #60]
 4024              	.LVL271:
 244:../../libdaisy/src/dev/oled_ssd130x.h ****         else
 4025              		.loc 6 244 42 view .LVU1128
 4026              	.LBE1425:
 4027              	.LBE1427:
 4028              	.LBE1429:
 199:../../libdaisy/src/hid/disp/display.h ****         {
 4029              		.loc 5 199 26 is_stmt 1 view .LVU1129
 4030 05ae EFD1     		bne	.L183
 4031              	.LVL272:
 199:../../libdaisy/src/hid/disp/display.h ****         {
 4032              		.loc 5 199 26 is_stmt 0 view .LVU1130
 4033              	.LBE1417:
 4034              	.LBE1416:
 4035              	.LBB1430:
 4036              	.LBI1430:
 181:../../libdaisy/src/hid/disp/display.h ****                   uint_fast8_t y1,
 4037              		.loc 5 181 10 is_stmt 1 view .LVU1131
 4038              	.LBB1431:
 4039              	.LBB1432:
 4040              	.LBI1432:
  41:../../libdaisy/src/hid/disp/oled_display.h ****     {
 4041              		.loc 1 41 10 view .LVU1132
 4042              	.LBB1433:
 4043              	.LBI1433:
 239:../../libdaisy/src/dev/oled_ssd130x.h ****     {
 4044              		.loc 6 239 10 view .LVU1133
 4045              	.LBB1434:
 244:../../libdaisy/src/dev/oled_ssd130x.h ****         else
 4046              		.loc 6 244 42 is_stmt 0 view .LVU1134
 4047 05b0 94F8B010 		ldrb	r1, [r4, #176]	@ zero_extendqisi2
 4048 05b4 04F1BD02 		add	r2, r4, #189
 4049 05b8 04F1B100 		add	r0, r4, #177
 4050 05bc 41F02001 		orr	r1, r1, #32
 4051 05c0 84F8B010 		strb	r1, [r4, #176]
 4052              	.LVL273:
 244:../../libdaisy/src/dev/oled_ssd130x.h ****         else
 4053              		.loc 6 244 42 view .LVU1135
 4054              	.LBE1434:
 4055              	.LBE1433:
 4056              	.LBE1432:
 199:../../libdaisy/src/hid/disp/display.h ****         {
 4057              		.loc 5 199 26 is_stmt 1 view .LVU1136
 4058              	.L184:
 4059              	.LBB1435:
 4060              	.LBI1435:
  41:../../libdaisy/src/hid/disp/oled_display.h ****     {
 4061              		.loc 1 41 10 view .LVU1137
ARM GAS  C:\Users\VINCIU~1\AppData\Local\Temp\ccYgfSqf.s 			page 115


 4062              	.LBB1436:
 4063              	.LBI1436:
 239:../../libdaisy/src/dev/oled_ssd130x.h ****     {
 4064              		.loc 6 239 10 view .LVU1138
 4065              	.LBB1437:
 244:../../libdaisy/src/dev/oled_ssd130x.h ****         else
 4066              		.loc 6 244 42 is_stmt 0 view .LVU1139
 4067 05c4 12F8011D 		ldrb	r1, [r2, #-1]!	@ zero_extendqisi2
 244:../../libdaisy/src/dev/oled_ssd130x.h ****         else
 4068              		.loc 6 244 42 view .LVU1140
 4069 05c8 41F02001 		orr	r1, r1, #32
 4070              	.LBE1437:
 4071              	.LBE1436:
 4072              	.LBE1435:
 199:../../libdaisy/src/hid/disp/display.h ****         {
 4073              		.loc 5 199 26 view .LVU1141
 4074 05cc 9042     		cmp	r0, r2
 4075              	.LBB1440:
 4076              	.LBB1439:
 4077              	.LBB1438:
 244:../../libdaisy/src/dev/oled_ssd130x.h ****         else
 4078              		.loc 6 244 42 view .LVU1142
 4079 05ce 1170     		strb	r1, [r2]
 4080              	.LVL274:
 244:../../libdaisy/src/dev/oled_ssd130x.h ****         else
 4081              		.loc 6 244 42 view .LVU1143
 4082              	.LBE1438:
 4083              	.LBE1439:
 4084              	.LBE1440:
 199:../../libdaisy/src/hid/disp/display.h ****         {
 4085              		.loc 5 199 26 is_stmt 1 view .LVU1144
 4086 05d0 F8D1     		bne	.L184
 4087              	.LVL275:
 199:../../libdaisy/src/hid/disp/display.h ****         {
 4088              		.loc 5 199 26 is_stmt 0 view .LVU1145
 4089              	.LBE1431:
 4090              	.LBE1430:
 4091              	.LBB1441:
 4092              	.LBI1441:
 181:../../libdaisy/src/hid/disp/display.h ****                   uint_fast8_t y1,
 4093              		.loc 5 181 10 is_stmt 1 view .LVU1146
 4094              	.LBB1442:
 4095              	.LBB1443:
 4096              	.LBI1443:
  41:../../libdaisy/src/hid/disp/oled_display.h ****     {
 4097              		.loc 1 41 10 view .LVU1147
 4098              	.LBB1444:
 4099              	.LBI1444:
 239:../../libdaisy/src/dev/oled_ssd130x.h ****     {
 4100              		.loc 6 239 10 view .LVU1148
 4101              	.LBB1445:
 244:../../libdaisy/src/dev/oled_ssd130x.h ****         else
 4102              		.loc 6 244 42 is_stmt 0 view .LVU1149
 4103 05d2 94F83020 		ldrb	r2, [r4, #48]	@ zero_extendqisi2
 4104 05d6 42F00102 		orr	r2, r2, #1
 4105 05da 84F83020 		strb	r2, [r4, #48]
 4106              	.LVL276:
ARM GAS  C:\Users\VINCIU~1\AppData\Local\Temp\ccYgfSqf.s 			page 116


 244:../../libdaisy/src/dev/oled_ssd130x.h ****         else
 4107              		.loc 6 244 42 view .LVU1150
 4108              	.LBE1445:
 4109              	.LBE1444:
 4110              	.LBE1443:
 199:../../libdaisy/src/hid/disp/display.h ****         {
 4111              		.loc 5 199 26 is_stmt 1 view .LVU1151
 4112              	.L186:
 4113              	.LBB1446:
 4114              	.LBI1446:
  41:../../libdaisy/src/hid/disp/oled_display.h ****     {
 4115              		.loc 1 41 10 view .LVU1152
 4116              	.LBB1447:
 4117              	.LBI1447:
 239:../../libdaisy/src/dev/oled_ssd130x.h ****     {
 4118              		.loc 6 239 10 view .LVU1153
 4119              	.LBB1448:
 244:../../libdaisy/src/dev/oled_ssd130x.h ****         else
 4120              		.loc 6 244 28 is_stmt 0 view .LVU1154
 4121 05de D908     		lsrs	r1, r3, #3
 244:../../libdaisy/src/dev/oled_ssd130x.h ****         else
 4122              		.loc 6 244 54 view .LVU1155
 4123 05e0 03F00700 		and	r0, r3, #7
 244:../../libdaisy/src/dev/oled_ssd130x.h ****         else
 4124              		.loc 6 244 48 view .LVU1156
 4125 05e4 0122     		movs	r2, #1
 4126              	.LBE1448:
 4127              	.LBE1447:
 4128              	.LBE1446:
 199:../../libdaisy/src/hid/disp/display.h ****         {
 4129              		.loc 5 199 26 view .LVU1157
 4130 05e6 013B     		subs	r3, r3, #1
 4131              	.LVL277:
 4132              	.LBB1451:
 4133              	.LBB1450:
 4134              	.LBB1449:
 244:../../libdaisy/src/dev/oled_ssd130x.h ****         else
 4135              		.loc 6 244 42 view .LVU1158
 4136 05e8 04EBC111 		add	r1, r4, r1, lsl #7
 244:../../libdaisy/src/dev/oled_ssd130x.h ****         else
 4137              		.loc 6 244 48 view .LVU1159
 4138 05ec 02FA00F2 		lsl	r2, r2, r0
 244:../../libdaisy/src/dev/oled_ssd130x.h ****         else
 4139              		.loc 6 244 42 view .LVU1160
 4140 05f0 91F83000 		ldrb	r0, [r1, #48]	@ zero_extendqisi2
 4141 05f4 42EA0002 		orr	r2, r2, r0
 4142 05f8 81F83020 		strb	r2, [r1, #48]
 4143              	.LVL278:
 244:../../libdaisy/src/dev/oled_ssd130x.h ****         else
 4144              		.loc 6 244 42 view .LVU1161
 4145              	.LBE1449:
 4146              	.LBE1450:
 4147              	.LBE1451:
 199:../../libdaisy/src/hid/disp/display.h ****         {
 4148              		.loc 5 199 26 is_stmt 1 view .LVU1162
 4149 05fc EFD1     		bne	.L186
 4150 05fe 9DE5     		b	.L185
ARM GAS  C:\Users\VINCIU~1\AppData\Local\Temp\ccYgfSqf.s 			page 117


 4151              	.LVL279:
 4152              	.L354:
 199:../../libdaisy/src/hid/disp/display.h ****         {
 4153              		.loc 5 199 26 is_stmt 0 view .LVU1163
 4154              	.LBE1442:
 4155              	.LBE1441:
 4156              	.LBE1404:
 556:Menus.cpp     ****             attackTimeScaleDraw = screen.Width() / 4;
 4157              		.loc 2 556 13 is_stmt 1 view .LVU1164
 562:Menus.cpp     ****         if(attackTime >= 100)
 4158              		.loc 2 562 9 is_stmt 0 view .LVU1165
 4159 0600 DFED697A 		vldr.32	s15, .L364+8
 556:Menus.cpp     ****             attackTimeScaleDraw = screen.Width() / 4;
 4160              		.loc 2 556 33 view .LVU1166
 4161 0604 87ED686A 		vstr.32	s12, [r7, #416]
 558:Menus.cpp     ****         if(attackTimeScaleDraw <= 0)
 4162              		.loc 2 558 9 is_stmt 1 view .LVU1167
 562:Menus.cpp     ****         if(attackTime >= 100)
 4163              		.loc 2 562 9 view .LVU1168
 4164 0608 B4EEE77A 		vcmpe.f32	s14, s15
 4165 060c F1EE10FA 		vmrs	APSR_nzcv, FPSCR
 4166 0610 A4DA     		bge	.L355
 4167              	.L339:
 566:Menus.cpp     ****         if(attackTime <= 0)
 4168              		.loc 2 566 9 view .LVU1169
 4169 0612 B5EEC07A 		vcmpe.f32	s14, #0
 4170 0616 0023     		movs	r3, #0
 4171 0618 F1EE10FA 		vmrs	APSR_nzcv, FPSCR
 568:Menus.cpp     ****             attackTime = 0;
 4172              		.loc 2 568 13 view .LVU1170
 568:Menus.cpp     ****             attackTime = 0;
 4173              		.loc 2 568 24 is_stmt 0 view .LVU1171
 4174 061c 98BF     		it	ls
 4175 061e C7F89831 		strls	r3, [r7, #408]	@ float
 4176 0622 9DE7     		b	.L180
 4177              	.L187:
 594:Menus.cpp     ****     if(menuStateEnv == 2)
 4178              		.loc 2 594 5 is_stmt 1 view .LVU1172
 4179 0624 022B     		cmp	r3, #2
 4180 0626 40F0C380 		bne	.L202
 596:Menus.cpp     ****         this->sustatinLevel += this->encoderRight.Increment() * 3.3;
 4181              		.loc 2 596 9 view .LVU1173
 4182              	.LVL280:
 4183              	.LBB1452:
 4184              	.LBI1452:
 4185              		.loc 3 41 20 view .LVU1174
 4186              	.LBB1453:
 4187              		.loc 3 41 40 view .LVU1175
 4188              		.loc 3 41 40 is_stmt 0 view .LVU1176
 4189              	.LBE1453:
 4190              	.LBE1452:
 596:Menus.cpp     ****         this->sustatinLevel += this->encoderRight.Increment() * 3.3;
 4191              		.loc 2 596 29 view .LVU1177
 4192 062a 97ED6B7A 		vldr.32	s14, [r7, #428]
 596:Menus.cpp     ****         this->sustatinLevel += this->encoderRight.Increment() * 3.3;
 4193              		.loc 2 596 63 view .LVU1178
 4194 062e D7ED127A 		vldr.32	s15, [r7, #72]	@ int
ARM GAS  C:\Users\VINCIU~1\AppData\Local\Temp\ccYgfSqf.s 			page 118


 597:Menus.cpp     ****         this->sustatinLevelScaleDraw += this->encoderRight.Increment();
 4195              		.loc 2 597 38 view .LVU1179
 4196 0632 D7ED126A 		vldr.32	s13, [r7, #72]	@ int
 596:Menus.cpp     ****         this->sustatinLevel += this->encoderRight.Increment() * 3.3;
 4197              		.loc 2 596 63 view .LVU1180
 4198 0636 B8EEE73B 		vcvt.f64.s32	d3, s15
 597:Menus.cpp     ****         this->sustatinLevelScaleDraw += this->encoderRight.Increment();
 4199              		.loc 2 597 38 view .LVU1181
 4200 063a D7ED6C5A 		vldr.32	s11, [r7, #432]
 596:Menus.cpp     ****         this->sustatinLevel += this->encoderRight.Increment() * 3.3;
 4201              		.loc 2 596 29 view .LVU1182
 4202 063e B7EEC77A 		vcvt.f64.f32	d7, s14
 598:Menus.cpp     ****         if(this->sustatinLevelScaleDraw >= screen.Width() / 4)
 4203              		.loc 2 598 9 view .LVU1183
 4204 0642 9FED5A6A 		vldr.32	s12, .L364+12
 597:Menus.cpp     ****         this->sustatinLevelScaleDraw += this->encoderRight.Increment();
 4205              		.loc 2 597 38 view .LVU1184
 4206 0646 F8EEE66A 		vcvt.f32.s32	s13, s13
 596:Menus.cpp     ****         this->sustatinLevel += this->encoderRight.Increment() * 3.3;
 4207              		.loc 2 596 29 view .LVU1185
 4208 064a 9FED554B 		vldr.64	d4, .L364
 597:Menus.cpp     ****         this->sustatinLevelScaleDraw += this->encoderRight.Increment();
 4209              		.loc 2 597 38 view .LVU1186
 4210 064e 76EEA56A 		vadd.f32	s13, s13, s11
 596:Menus.cpp     ****         this->sustatinLevel += this->encoderRight.Increment() * 3.3;
 4211              		.loc 2 596 29 view .LVU1187
 4212 0652 A3EE047B 		vfma.f64	d7, d3, d4
 598:Menus.cpp     ****         if(this->sustatinLevelScaleDraw >= screen.Width() / 4)
 4213              		.loc 2 598 9 view .LVU1188
 4214 0656 F4EEC66A 		vcmpe.f32	s13, s12
 4215 065a F1EE10FA 		vmrs	APSR_nzcv, FPSCR
 596:Menus.cpp     ****         this->sustatinLevel += this->encoderRight.Increment() * 3.3;
 4216              		.loc 2 596 29 view .LVU1189
 4217 065e B7EEC77B 		vcvt.f32.f64	s14, d7
 4218 0662 87ED6B7A 		vstr.32	s14, [r7, #428]
 597:Menus.cpp     ****         this->sustatinLevelScaleDraw += this->encoderRight.Increment();
 4219              		.loc 2 597 9 is_stmt 1 view .LVU1190
 4220              	.LVL281:
 4221              		.loc 3 41 40 view .LVU1191
 598:Menus.cpp     ****         if(this->sustatinLevelScaleDraw >= screen.Width() / 4)
 4222              		.loc 2 598 9 view .LVU1192
 4223 0666 80F23A81 		bge	.L356
 602:Menus.cpp     ****         if(this->sustatinLevelScaleDraw <= 0)
 4224              		.loc 2 602 9 view .LVU1193
 4225 066a F5EEC06A 		vcmpe.f32	s13, #0
 606:Menus.cpp     ****         if(this->sustatinLevel >= 100)
 4226              		.loc 2 606 9 is_stmt 0 view .LVU1194
 4227 066e DFED4E7A 		vldr.32	s15, .L364+8
 602:Menus.cpp     ****         if(this->sustatinLevelScaleDraw <= 0)
 4228              		.loc 2 602 9 view .LVU1195
 4229 0672 0023     		movs	r3, #0
 4230 0674 F1EE10FA 		vmrs	APSR_nzcv, FPSCR
 606:Menus.cpp     ****         if(this->sustatinLevel >= 100)
 4231              		.loc 2 606 9 view .LVU1196
 4232 0678 B4EEE77A 		vcmpe.f32	s14, s15
 597:Menus.cpp     ****         this->sustatinLevelScaleDraw += this->encoderRight.Increment();
 4233              		.loc 2 597 38 view .LVU1197
ARM GAS  C:\Users\VINCIU~1\AppData\Local\Temp\ccYgfSqf.s 			page 119


 4234 067c 8CBF     		ite	hi
 4235 067e C7ED6C6A 		vstrhi.32	s13, [r7, #432]
 604:Menus.cpp     ****             this->sustatinLevelScaleDraw = 0;
 4236              		.loc 2 604 13 is_stmt 1 view .LVU1198
 604:Menus.cpp     ****             this->sustatinLevelScaleDraw = 0;
 4237              		.loc 2 604 42 is_stmt 0 view .LVU1199
 4238 0682 C7F8B031 		strls	r3, [r7, #432]	@ float
 606:Menus.cpp     ****         if(this->sustatinLevel >= 100)
 4239              		.loc 2 606 9 is_stmt 1 view .LVU1200
 4240 0686 F1EE10FA 		vmrs	APSR_nzcv, FPSCR
 4241 068a C0F23281 		blt	.L344
 4242              	.L359:
 608:Menus.cpp     ****             this->sustatinLevel = 100;
 4243              		.loc 2 608 13 view .LVU1201
 608:Menus.cpp     ****             this->sustatinLevel = 100;
 4244              		.loc 2 608 33 is_stmt 0 view .LVU1202
 4245 068e C7ED6B7A 		vstr.32	s15, [r7, #428]
 610:Menus.cpp     ****         if(this->sustatinLevel <= 0)
 4246              		.loc 2 610 9 is_stmt 1 view .LVU1203
 4247              	.L209:
 614:Menus.cpp     ****         screen.DrawRect(60, 0, 72, 13, true, false);
 4248              		.loc 2 614 9 view .LVU1204
 4249              	.LVL282:
 4250              	.LBB1454:
 4251              	.LBI1454:
 217:../../libdaisy/src/hid/disp/display.h ****                   uint_fast8_t y1,
 4252              		.loc 5 217 10 view .LVU1205
 4253              	.LBB1455:
 4254              	.LBI1455:
 181:../../libdaisy/src/hid/disp/display.h ****                   uint_fast8_t y1,
 4255              		.loc 5 181 10 view .LVU1206
 4256              	.LBB1456:
 4257              	.LBB1457:
 4258              	.LBI1457:
  41:../../libdaisy/src/hid/disp/oled_display.h ****     {
 4259              		.loc 1 41 10 view .LVU1207
 4260              	.LBB1458:
 4261              	.LBI1458:
 239:../../libdaisy/src/dev/oled_ssd130x.h ****     {
 4262              		.loc 6 239 10 view .LVU1208
 4263              	.LBB1459:
 244:../../libdaisy/src/dev/oled_ssd130x.h ****         else
 4264              		.loc 6 244 42 is_stmt 0 view .LVU1209
 4265 0692 0122     		movs	r2, #1
 4266 0694 04F14F03 		add	r3, r4, #79
 4267 0698 04F15B01 		add	r1, r4, #91
 4268 069c 84F85C20 		strb	r2, [r4, #92]
 4269              	.LVL283:
 244:../../libdaisy/src/dev/oled_ssd130x.h ****         else
 4270              		.loc 6 244 42 view .LVU1210
 4271              	.LBE1459:
 4272              	.LBE1458:
 4273              	.LBE1457:
 199:../../libdaisy/src/hid/disp/display.h ****         {
 4274              		.loc 5 199 26 is_stmt 1 view .LVU1211
 4275              	.L211:
 4276              	.LBB1460:
ARM GAS  C:\Users\VINCIU~1\AppData\Local\Temp\ccYgfSqf.s 			page 120


 4277              	.LBI1460:
  41:../../libdaisy/src/hid/disp/oled_display.h ****     {
 4278              		.loc 1 41 10 view .LVU1212
 4279              	.LBB1461:
 4280              	.LBI1461:
 239:../../libdaisy/src/dev/oled_ssd130x.h ****     {
 4281              		.loc 6 239 10 view .LVU1213
 4282              	.LBB1462:
 244:../../libdaisy/src/dev/oled_ssd130x.h ****         else
 4283              		.loc 6 244 42 is_stmt 0 view .LVU1214
 4284 06a0 13F8012F 		ldrb	r2, [r3, #1]!	@ zero_extendqisi2
 244:../../libdaisy/src/dev/oled_ssd130x.h ****         else
 4285              		.loc 6 244 42 view .LVU1215
 4286 06a4 42F00102 		orr	r2, r2, #1
 4287              	.LBE1462:
 4288              	.LBE1461:
 4289              	.LBE1460:
 199:../../libdaisy/src/hid/disp/display.h ****         {
 4290              		.loc 5 199 26 view .LVU1216
 4291 06a8 9942     		cmp	r1, r3
 4292              	.LBB1465:
 4293              	.LBB1464:
 4294              	.LBB1463:
 244:../../libdaisy/src/dev/oled_ssd130x.h ****         else
 4295              		.loc 6 244 42 view .LVU1217
 4296 06aa 1A70     		strb	r2, [r3]
 4297              	.LVL284:
 244:../../libdaisy/src/dev/oled_ssd130x.h ****         else
 4298              		.loc 6 244 42 view .LVU1218
 4299              	.LBE1463:
 4300              	.LBE1464:
 4301              	.LBE1465:
 199:../../libdaisy/src/hid/disp/display.h ****         {
 4302              		.loc 5 199 26 is_stmt 1 view .LVU1219
 4303 06ac F8D1     		bne	.L211
 4304              	.LVL285:
 199:../../libdaisy/src/hid/disp/display.h ****         {
 4305              		.loc 5 199 26 is_stmt 0 view .LVU1220
 4306              	.LBE1456:
 4307              	.LBE1455:
 4308              	.LBB1466:
 4309              	.LBI1466:
 181:../../libdaisy/src/hid/disp/display.h ****                   uint_fast8_t y1,
 4310              		.loc 5 181 10 is_stmt 1 view .LVU1221
 4311              	.LBB1467:
 4312              	.LBB1468:
 4313              	.LBI1468:
  41:../../libdaisy/src/hid/disp/oled_display.h ****     {
 4314              		.loc 1 41 10 view .LVU1222
 4315              	.LBB1469:
 4316              	.LBI1469:
 239:../../libdaisy/src/dev/oled_ssd130x.h ****     {
 4317              		.loc 6 239 10 view .LVU1223
 4318              	.LBB1470:
 244:../../libdaisy/src/dev/oled_ssd130x.h ****         else
 4319              		.loc 6 244 42 is_stmt 0 view .LVU1224
 4320 06ae 94F8DC20 		ldrb	r2, [r4, #220]	@ zero_extendqisi2
ARM GAS  C:\Users\VINCIU~1\AppData\Local\Temp\ccYgfSqf.s 			page 121


 4321 06b2 0023     		movs	r3, #0
 4322 06b4 42F02002 		orr	r2, r2, #32
 4323 06b8 84F8DC20 		strb	r2, [r4, #220]
 4324              	.LVL286:
 244:../../libdaisy/src/dev/oled_ssd130x.h ****         else
 4325              		.loc 6 244 42 view .LVU1225
 4326              	.LBE1470:
 4327              	.LBE1469:
 4328              	.LBE1468:
 199:../../libdaisy/src/hid/disp/display.h ****         {
 4329              		.loc 5 199 26 is_stmt 1 view .LVU1226
 4330              	.L212:
 4331              	.LBB1471:
 4332              	.LBI1471:
  41:../../libdaisy/src/hid/disp/oled_display.h ****     {
 4333              		.loc 1 41 10 view .LVU1227
 4334              	.LBB1472:
 4335              	.LBI1472:
 239:../../libdaisy/src/dev/oled_ssd130x.h ****     {
 4336              		.loc 6 239 10 view .LVU1228
 4337              	.LBB1473:
 244:../../libdaisy/src/dev/oled_ssd130x.h ****         else
 4338              		.loc 6 244 28 is_stmt 0 view .LVU1229
 4339 06bc D908     		lsrs	r1, r3, #3
 244:../../libdaisy/src/dev/oled_ssd130x.h ****         else
 4340              		.loc 6 244 54 view .LVU1230
 4341 06be 03F00700 		and	r0, r3, #7
 244:../../libdaisy/src/dev/oled_ssd130x.h ****         else
 4342              		.loc 6 244 48 view .LVU1231
 4343 06c2 0122     		movs	r2, #1
 244:../../libdaisy/src/dev/oled_ssd130x.h ****         else
 4344              		.loc 6 244 42 view .LVU1232
 4345 06c4 04EBC111 		add	r1, r4, r1, lsl #7
 4346              	.LBE1473:
 4347              	.LBE1472:
 4348              	.LBE1471:
 212:../../libdaisy/src/hid/disp/display.h ****             }
 4349              		.loc 5 212 20 view .LVU1233
 4350 06c8 1344     		add	r3, r3, r2
 4351              	.LVL287:
 4352              	.LBB1478:
 4353              	.LBB1476:
 4354              	.LBB1474:
 244:../../libdaisy/src/dev/oled_ssd130x.h ****         else
 4355              		.loc 6 244 48 view .LVU1234
 4356 06ca 8240     		lsls	r2, r2, r0
 244:../../libdaisy/src/dev/oled_ssd130x.h ****         else
 4357              		.loc 6 244 42 view .LVU1235
 4358 06cc 91F85C00 		ldrb	r0, [r1, #92]	@ zero_extendqisi2
 4359              	.LBE1474:
 4360              	.LBE1476:
 4361              	.LBE1478:
 199:../../libdaisy/src/hid/disp/display.h ****         {
 4362              		.loc 5 199 26 view .LVU1236
 4363 06d0 0D2B     		cmp	r3, #13
 4364              	.LBB1479:
 4365              	.LBB1477:
ARM GAS  C:\Users\VINCIU~1\AppData\Local\Temp\ccYgfSqf.s 			page 122


 4366              	.LBB1475:
 244:../../libdaisy/src/dev/oled_ssd130x.h ****         else
 4367              		.loc 6 244 42 view .LVU1237
 4368 06d2 42EA0002 		orr	r2, r2, r0
 4369 06d6 81F85C20 		strb	r2, [r1, #92]
 4370              	.LVL288:
 244:../../libdaisy/src/dev/oled_ssd130x.h ****         else
 4371              		.loc 6 244 42 view .LVU1238
 4372              	.LBE1475:
 4373              	.LBE1477:
 4374              	.LBE1479:
 199:../../libdaisy/src/hid/disp/display.h ****         {
 4375              		.loc 5 199 26 is_stmt 1 view .LVU1239
 4376 06da EFD1     		bne	.L212
 4377              	.LVL289:
 199:../../libdaisy/src/hid/disp/display.h ****         {
 4378              		.loc 5 199 26 is_stmt 0 view .LVU1240
 4379              	.LBE1467:
 4380              	.LBE1466:
 4381              	.LBB1480:
 4382              	.LBI1480:
 181:../../libdaisy/src/hid/disp/display.h ****                   uint_fast8_t y1,
 4383              		.loc 5 181 10 is_stmt 1 view .LVU1241
 4384              	.LBB1481:
 4385              	.LBB1482:
 4386              	.LBI1482:
  41:../../libdaisy/src/hid/disp/oled_display.h ****     {
 4387              		.loc 1 41 10 view .LVU1242
 4388              	.LBB1483:
 4389              	.LBI1483:
 239:../../libdaisy/src/dev/oled_ssd130x.h ****     {
 4390              		.loc 6 239 10 view .LVU1243
 4391              	.LBB1484:
 244:../../libdaisy/src/dev/oled_ssd130x.h ****         else
 4392              		.loc 6 244 42 is_stmt 0 view .LVU1244
 4393 06dc 94F8D010 		ldrb	r1, [r4, #208]	@ zero_extendqisi2
 4394 06e0 04F1DD02 		add	r2, r4, #221
 4395 06e4 04F1D100 		add	r0, r4, #209
 4396 06e8 41F02001 		orr	r1, r1, #32
 4397 06ec 84F8D010 		strb	r1, [r4, #208]
 4398              	.LVL290:
 244:../../libdaisy/src/dev/oled_ssd130x.h ****         else
 4399              		.loc 6 244 42 view .LVU1245
 4400              	.LBE1484:
 4401              	.LBE1483:
 4402              	.LBE1482:
 199:../../libdaisy/src/hid/disp/display.h ****         {
 4403              		.loc 5 199 26 is_stmt 1 view .LVU1246
 4404              	.L213:
 4405              	.LBB1485:
 4406              	.LBI1485:
  41:../../libdaisy/src/hid/disp/oled_display.h ****     {
 4407              		.loc 1 41 10 view .LVU1247
 4408              	.LBB1486:
 4409              	.LBI1486:
 239:../../libdaisy/src/dev/oled_ssd130x.h ****     {
 4410              		.loc 6 239 10 view .LVU1248
ARM GAS  C:\Users\VINCIU~1\AppData\Local\Temp\ccYgfSqf.s 			page 123


 4411              	.LBB1487:
 244:../../libdaisy/src/dev/oled_ssd130x.h ****         else
 4412              		.loc 6 244 42 is_stmt 0 view .LVU1249
 4413 06f0 12F8011D 		ldrb	r1, [r2, #-1]!	@ zero_extendqisi2
 244:../../libdaisy/src/dev/oled_ssd130x.h ****         else
 4414              		.loc 6 244 42 view .LVU1250
 4415 06f4 41F02001 		orr	r1, r1, #32
 4416              	.LBE1487:
 4417              	.LBE1486:
 4418              	.LBE1485:
 199:../../libdaisy/src/hid/disp/display.h ****         {
 4419              		.loc 5 199 26 view .LVU1251
 4420 06f8 9042     		cmp	r0, r2
 4421              	.LBB1490:
 4422              	.LBB1489:
 4423              	.LBB1488:
 244:../../libdaisy/src/dev/oled_ssd130x.h ****         else
 4424              		.loc 6 244 42 view .LVU1252
 4425 06fa 1170     		strb	r1, [r2]
 4426              	.LVL291:
 244:../../libdaisy/src/dev/oled_ssd130x.h ****         else
 4427              		.loc 6 244 42 view .LVU1253
 4428              	.LBE1488:
 4429              	.LBE1489:
 4430              	.LBE1490:
 199:../../libdaisy/src/hid/disp/display.h ****         {
 4431              		.loc 5 199 26 is_stmt 1 view .LVU1254
 4432 06fc F8D1     		bne	.L213
 4433              	.LVL292:
 199:../../libdaisy/src/hid/disp/display.h ****         {
 4434              		.loc 5 199 26 is_stmt 0 view .LVU1255
 4435              	.LBE1481:
 4436              	.LBE1480:
 4437              	.LBB1491:
 4438              	.LBI1491:
 181:../../libdaisy/src/hid/disp/display.h ****                   uint_fast8_t y1,
 4439              		.loc 5 181 10 is_stmt 1 view .LVU1256
 4440              	.LBB1492:
 4441              	.LBB1493:
 4442              	.LBI1493:
  41:../../libdaisy/src/hid/disp/oled_display.h ****     {
 4443              		.loc 1 41 10 view .LVU1257
 4444              	.LBB1494:
 4445              	.LBI1494:
 239:../../libdaisy/src/dev/oled_ssd130x.h ****     {
 4446              		.loc 6 239 10 view .LVU1258
 4447              	.LBB1495:
 244:../../libdaisy/src/dev/oled_ssd130x.h ****         else
 4448              		.loc 6 244 42 is_stmt 0 view .LVU1259
 4449 06fe 94F85020 		ldrb	r2, [r4, #80]	@ zero_extendqisi2
 4450 0702 42F00102 		orr	r2, r2, #1
 4451 0706 84F85020 		strb	r2, [r4, #80]
 4452              	.LVL293:
 244:../../libdaisy/src/dev/oled_ssd130x.h ****         else
 4453              		.loc 6 244 42 view .LVU1260
 4454              	.LBE1495:
 4455              	.LBE1494:
ARM GAS  C:\Users\VINCIU~1\AppData\Local\Temp\ccYgfSqf.s 			page 124


 4456              	.LBE1493:
 199:../../libdaisy/src/hid/disp/display.h ****         {
 4457              		.loc 5 199 26 is_stmt 1 view .LVU1261
 4458              	.L214:
 4459              	.LBB1496:
 4460              	.LBI1496:
  41:../../libdaisy/src/hid/disp/oled_display.h ****     {
 4461              		.loc 1 41 10 view .LVU1262
 4462              	.LBB1497:
 4463              	.LBI1497:
 239:../../libdaisy/src/dev/oled_ssd130x.h ****     {
 4464              		.loc 6 239 10 view .LVU1263
 4465              	.LBB1498:
 244:../../libdaisy/src/dev/oled_ssd130x.h ****         else
 4466              		.loc 6 244 28 is_stmt 0 view .LVU1264
 4467 070a D908     		lsrs	r1, r3, #3
 244:../../libdaisy/src/dev/oled_ssd130x.h ****         else
 4468              		.loc 6 244 54 view .LVU1265
 4469 070c 03F00700 		and	r0, r3, #7
 244:../../libdaisy/src/dev/oled_ssd130x.h ****         else
 4470              		.loc 6 244 48 view .LVU1266
 4471 0710 0122     		movs	r2, #1
 4472              	.LBE1498:
 4473              	.LBE1497:
 4474              	.LBE1496:
 199:../../libdaisy/src/hid/disp/display.h ****         {
 4475              		.loc 5 199 26 view .LVU1267
 4476 0712 013B     		subs	r3, r3, #1
 4477              	.LVL294:
 4478              	.LBB1501:
 4479              	.LBB1500:
 4480              	.LBB1499:
 244:../../libdaisy/src/dev/oled_ssd130x.h ****         else
 4481              		.loc 6 244 42 view .LVU1268
 4482 0714 04EBC111 		add	r1, r4, r1, lsl #7
 244:../../libdaisy/src/dev/oled_ssd130x.h ****         else
 4483              		.loc 6 244 48 view .LVU1269
 4484 0718 02FA00F2 		lsl	r2, r2, r0
 244:../../libdaisy/src/dev/oled_ssd130x.h ****         else
 4485              		.loc 6 244 42 view .LVU1270
 4486 071c 91F85000 		ldrb	r0, [r1, #80]	@ zero_extendqisi2
 4487 0720 42EA0002 		orr	r2, r2, r0
 4488 0724 81F85020 		strb	r2, [r1, #80]
 4489              	.LVL295:
 244:../../libdaisy/src/dev/oled_ssd130x.h ****         else
 4490              		.loc 6 244 42 view .LVU1271
 4491              	.LBE1499:
 4492              	.LBE1500:
 4493              	.LBE1501:
 199:../../libdaisy/src/hid/disp/display.h ****         {
 4494              		.loc 5 199 26 is_stmt 1 view .LVU1272
 4495 0728 EFD1     		bne	.L214
 4496 072a 07E5     		b	.L185
 4497              	.LVL296:
 4498              	.L232:
 199:../../libdaisy/src/hid/disp/display.h ****         {
 4499              		.loc 5 199 26 is_stmt 0 view .LVU1273
ARM GAS  C:\Users\VINCIU~1\AppData\Local\Temp\ccYgfSqf.s 			page 125


 4500              	.LBE1492:
 4501              	.LBE1491:
 4502              	.LBE1454:
 4503              	.LBB1502:
 4504              	.LBB1309:
 211:../../libdaisy/src/hid/disp/display.h ****                 y1 += signY;
 4505              		.loc 5 211 23 view .LVU1274
 4506 072c CC44     		add	ip, ip, r9
 4507              	.LVL297:
 212:../../libdaisy/src/hid/disp/display.h ****             }
 4508              		.loc 5 212 20 view .LVU1275
 4509 072e 0138     		subs	r0, r0, #1
 4510              	.LVL298:
 212:../../libdaisy/src/hid/disp/display.h ****             }
 4511              		.loc 5 212 20 view .LVU1276
 4512 0730 5FE5     		b	.L233
 4513              	.LVL299:
 4514              	.L352:
 191:../../libdaisy/src/hid/disp/display.h ****         int_fast16_t error2;
 4515              		.loc 5 191 22 view .LVU1277
 4516 0732 A9F1220C 		sub	ip, r9, #34
 4517              	.LVL300:
 4518              	.LBB1307:
  41:../../libdaisy/src/hid/disp/oled_display.h ****     {
 4519              		.loc 1 41 10 is_stmt 1 view .LVU1278
 4520              	.LBB1297:
  43:../../libdaisy/src/hid/disp/oled_display.h ****     }
 4521              		.loc 1 43 26 is_stmt 0 view .LVU1279
 4522 0736 04F10805 		add	r5, r4, #8
 4523              	.LVL301:
 4524              	.LBB1293:
 239:../../libdaisy/src/dev/oled_ssd130x.h ****     {
 4525              		.loc 6 239 10 is_stmt 1 view .LVU1280
 4526              	.LBE1293:
 4527              	.LBE1297:
 4528              	.LBE1307:
 189:../../libdaisy/src/hid/disp/display.h ****         int_fast16_t signY  = ((y1 < y2) ? 1 : -1);
 4529              		.loc 5 189 42 is_stmt 0 view .LVU1281
 4530 073a 4FF0FF38 		mov	r8, #-1
 4531              	.LVL302:
 4532              	.L265:
 4533              	.LBB1308:
 4534              	.LBB1298:
 4535              	.LBB1294:
 4536              	.LBB1290:
 244:../../libdaisy/src/dev/oled_ssd130x.h ****         else
 4537              		.loc 6 244 42 view .LVU1282
 4538 073e 01F5C073 		add	r3, r1, #384
 4539 0742 2344     		add	r3, r3, r4
 4540 0744 1A7D     		ldrb	r2, [r3, #20]	@ zero_extendqisi2
 4541 0746 42F00202 		orr	r2, r2, #2
 4542 074a 1A75     		strb	r2, [r3, #20]
 4543 074c 31E5     		b	.L227
 4544              	.LVL303:
 4545              	.L235:
 244:../../libdaisy/src/dev/oled_ssd130x.h ****         else
 4546              		.loc 6 244 42 view .LVU1283
ARM GAS  C:\Users\VINCIU~1\AppData\Local\Temp\ccYgfSqf.s 			page 126


 4547              	.LBE1290:
 4548              	.LBE1294:
 4549              	.LBE1298:
 4550              	.LBE1308:
 4551              	.LBE1309:
 4552              	.LBE1502:
 4553              	.LBB1503:
 4554              	.LBB1330:
 191:../../libdaisy/src/hid/disp/display.h ****         int_fast16_t error2;
 4555              		.loc 5 191 22 view .LVU1284
 4556 074e 029B     		ldr	r3, [sp, #8]
 4557              	.LVL304:
 4558              	.LBB1328:
 4559              	.LBB1319:
 4560              	.LBB1316:
 241:../../libdaisy/src/dev/oled_ssd130x.h ****             return;
 4561              		.loc 6 241 28 view .LVU1285
 4562 0750 3F2A     		cmp	r2, #63
 4563              	.LBE1316:
 4564              	.LBE1319:
 4565              	.LBE1328:
 191:../../libdaisy/src/hid/disp/display.h ****         int_fast16_t error2;
 4566              		.loc 5 191 22 view .LVU1286
 4567 0752 AEEB030C 		sub	ip, lr, r3
 4568              	.LVL305:
 4569              	.LBB1329:
  41:../../libdaisy/src/hid/disp/oled_display.h ****     {
 4570              		.loc 1 41 10 is_stmt 1 view .LVU1287
 4571              	.LBB1320:
 239:../../libdaisy/src/dev/oled_ssd130x.h ****     {
 4572              		.loc 6 239 10 view .LVU1288
 4573              	.LBB1317:
 241:../../libdaisy/src/dev/oled_ssd130x.h ****             return;
 4574              		.loc 6 241 28 is_stmt 0 view .LVU1289
 4575 0756 94BF     		ite	ls
 4576 0758 0023     		movls	r3, #0
 4577 075a 0123     		movhi	r3, #1
 241:../../libdaisy/src/dev/oled_ssd130x.h ****             return;
 4578              		.loc 6 241 9 view .LVU1290
 4579 075c 7F2E     		cmp	r6, #127
 241:../../libdaisy/src/dev/oled_ssd130x.h ****             return;
 4580              		.loc 6 241 28 view .LVU1291
 4581 075e 0593     		str	r3, [sp, #20]
 241:../../libdaisy/src/dev/oled_ssd130x.h ****             return;
 4582              		.loc 6 241 9 view .LVU1292
 4583 0760 00F2E480 		bhi	.L278
 241:../../libdaisy/src/dev/oled_ssd130x.h ****             return;
 4584              		.loc 6 241 9 view .LVU1293
 4585 0764 002B     		cmp	r3, #0
 4586 0766 40F0E180 		bne	.L278
 4587              	.LBE1317:
 4588              	.LBE1320:
 4589              	.LBE1329:
 190:../../libdaisy/src/hid/disp/display.h ****         int_fast16_t error  = deltaX - deltaY;
 4590              		.loc 5 190 42 view .LVU1294
 4591 076a 0123     		movs	r3, #1
 4592 076c 0493     		str	r3, [sp, #16]
ARM GAS  C:\Users\VINCIU~1\AppData\Local\Temp\ccYgfSqf.s 			page 127


 4593 076e 75E5     		b	.L268
 4594              	.LVL306:
 4595              	.L254:
 190:../../libdaisy/src/hid/disp/display.h ****         int_fast16_t error  = deltaX - deltaY;
 4596              		.loc 5 190 42 view .LVU1295
 4597              	.LBE1330:
 4598              	.LBE1503:
 4599              	.LBB1504:
 4600              	.LBB1379:
 4601              	.LBB1374:
  41:../../libdaisy/src/hid/disp/oled_display.h ****     {
 4602              		.loc 1 41 10 is_stmt 1 view .LVU1296
 4603              	.LBB1363:
 239:../../libdaisy/src/dev/oled_ssd130x.h ****     {
 4604              		.loc 6 239 10 view .LVU1297
 4605              	.LBE1363:
 4606              	.LBE1374:
 190:../../libdaisy/src/hid/disp/display.h ****         int_fast16_t error  = deltaX - deltaY;
 4607              		.loc 5 190 42 is_stmt 0 view .LVU1298
 4608 0770 0123     		movs	r3, #1
 4609              	.LBB1375:
 4610              	.LBB1364:
 4611              	.LBB1359:
 241:../../libdaisy/src/dev/oled_ssd130x.h ****             return;
 4612              		.loc 6 241 9 view .LVU1299
 4613 0772 BCF17F0F 		cmp	ip, #127
 4614              	.LBE1359:
 4615              	.LBE1364:
 4616              	.LBE1375:
 190:../../libdaisy/src/hid/disp/display.h ****         int_fast16_t error  = deltaX - deltaY;
 4617              		.loc 5 190 42 view .LVU1300
 4618 0776 0293     		str	r3, [sp, #8]
 4619              	.LBB1376:
 4620              	.LBB1365:
 4621              	.LBB1360:
 241:../../libdaisy/src/dev/oled_ssd130x.h ****             return;
 4622              		.loc 6 241 9 view .LVU1301
 4623 0778 7FF643AE 		bls	.L266
 241:../../libdaisy/src/dev/oled_ssd130x.h ****             return;
 4624              		.loc 6 241 9 view .LVU1302
 4625 077c 4CE6     		b	.L258
 4626              	.LVL307:
 4627              	.L244:
 241:../../libdaisy/src/dev/oled_ssd130x.h ****             return;
 4628              		.loc 6 241 9 view .LVU1303
 4629              	.LBE1360:
 4630              	.LBE1365:
 4631              	.LBE1376:
 4632              	.LBE1379:
 4633              	.LBE1504:
 4634              	.LBB1505:
 4635              	.LBB1351:
 4636              	.LBB1348:
  41:../../libdaisy/src/hid/disp/oled_display.h ****     {
 4637              		.loc 1 41 10 is_stmt 1 view .LVU1304
 4638              	.LBB1342:
 239:../../libdaisy/src/dev/oled_ssd130x.h ****     {
ARM GAS  C:\Users\VINCIU~1\AppData\Local\Temp\ccYgfSqf.s 			page 128


 4639              		.loc 6 239 10 view .LVU1305
 4640              	.LBB1339:
 241:../../libdaisy/src/dev/oled_ssd130x.h ****             return;
 4641              		.loc 6 241 9 is_stmt 0 view .LVU1306
 4642 077e 7F29     		cmp	r1, #127
 4643              	.LBE1339:
 4644              	.LBE1342:
 4645              	.LBE1348:
 189:../../libdaisy/src/hid/disp/display.h ****         int_fast16_t signY  = ((y1 < y2) ? 1 : -1);
 4646              		.loc 5 189 42 view .LVU1307
 4647 0780 4FF00109 		mov	r9, #1
 4648              	.LBB1349:
 4649              	.LBB1343:
 4650              	.LBB1340:
 241:../../libdaisy/src/dev/oled_ssd130x.h ****             return;
 4651              		.loc 6 241 9 view .LVU1308
 4652 0784 3FF6D4AD 		bhi	.L247
 241:../../libdaisy/src/dev/oled_ssd130x.h ****             return;
 4653              		.loc 6 241 9 view .LVU1309
 4654 0788 059B     		ldr	r3, [sp, #20]
 4655 078a 002B     		cmp	r3, #0
 4656 078c 3FF4C0AD 		beq	.L267
 4657 0790 CEE5     		b	.L247
 4658              	.LVL308:
 4659              	.L349:
 241:../../libdaisy/src/dev/oled_ssd130x.h ****             return;
 4660              		.loc 6 241 9 view .LVU1310
 4661              	.LBE1340:
 4662              	.LBE1343:
 4663              	.LBE1349:
 4664              	.LBE1351:
 4665              	.LBE1505:
 535:Menus.cpp     ****         this->menuStateEnv = this->menuStateEnv - 1;
 4666              		.loc 2 535 9 is_stmt 1 view .LVU1311
 536:Menus.cpp     ****         if(this->menuStateEnv < 0)
 4667              		.loc 2 536 9 view .LVU1312
 4668 0792 013B     		subs	r3, r3, #1
 4669 0794 00F1CD80 		bmi	.L167
 535:Menus.cpp     ****         this->menuStateEnv = this->menuStateEnv - 1;
 4670              		.loc 2 535 28 is_stmt 0 view .LVU1313
 4671 0798 C7F8A431 		str	r3, [r7, #420]
 4672 079c 43E4     		b	.L168
 4673              	.L365:
 4674 079e 00BF     		.align	3
 4675              	.L364:
 4676 07a0 66666666 		.word	1717986918
 4677 07a4 66660A40 		.word	1074423398
 4678 07a8 0000C842 		.word	1120403456
 4679 07ac 00000042 		.word	1107296256
 4680              	.L202:
 616:Menus.cpp     ****       if(menuStateEnv == 3)
 4681              		.loc 2 616 7 is_stmt 1 view .LVU1314
 4682 07b0 032B     		cmp	r3, #3
 4683 07b2 7FF4C3AC 		bne	.L185
 4684              	.L169:
 618:Menus.cpp     ****         this->releaseTime += this->encoderRight.Increment() * 3.3;
 4685              		.loc 2 618 9 view .LVU1315
ARM GAS  C:\Users\VINCIU~1\AppData\Local\Temp\ccYgfSqf.s 			page 129


 4686              	.LVL309:
 4687              	.LBB1506:
 4688              	.LBI1506:
 4689              		.loc 3 41 20 view .LVU1316
 4690              	.LBB1507:
 4691              		.loc 3 41 40 view .LVU1317
 4692              		.loc 3 41 40 is_stmt 0 view .LVU1318
 4693              	.LBE1507:
 4694              	.LBE1506:
 618:Menus.cpp     ****         this->releaseTime += this->encoderRight.Increment() * 3.3;
 4695              		.loc 2 618 27 view .LVU1319
 4696 07b6 97ED6D7A 		vldr.32	s14, [r7, #436]
 618:Menus.cpp     ****         this->releaseTime += this->encoderRight.Increment() * 3.3;
 4697              		.loc 2 618 61 view .LVU1320
 4698 07ba D7ED127A 		vldr.32	s15, [r7, #72]	@ int
 619:Menus.cpp     ****         this->releaseTimeScaleDraw += this->encoderRight.Increment();
 4699              		.loc 2 619 36 view .LVU1321
 4700 07be D7ED126A 		vldr.32	s13, [r7, #72]	@ int
 618:Menus.cpp     ****         this->releaseTime += this->encoderRight.Increment() * 3.3;
 4701              		.loc 2 618 61 view .LVU1322
 4702 07c2 B8EEE73B 		vcvt.f64.s32	d3, s15
 619:Menus.cpp     ****         this->releaseTimeScaleDraw += this->encoderRight.Increment();
 4703              		.loc 2 619 36 view .LVU1323
 4704 07c6 D7ED6E5A 		vldr.32	s11, [r7, #440]
 618:Menus.cpp     ****         this->releaseTime += this->encoderRight.Increment() * 3.3;
 4705              		.loc 2 618 27 view .LVU1324
 4706 07ca B7EEC77A 		vcvt.f64.f32	d7, s14
 620:Menus.cpp     ****         if(this->releaseTimeScaleDraw >= screen.Width() / 4)
 4707              		.loc 2 620 9 view .LVU1325
 4708 07ce 1FED096A 		vldr.32	s12, .L364+12
 619:Menus.cpp     ****         this->releaseTimeScaleDraw += this->encoderRight.Increment();
 4709              		.loc 2 619 36 view .LVU1326
 4710 07d2 F8EEE66A 		vcvt.f32.s32	s13, s13
 618:Menus.cpp     ****         this->releaseTime += this->encoderRight.Increment() * 3.3;
 4711              		.loc 2 618 27 view .LVU1327
 4712 07d6 9FED5E4B 		vldr.64	d4, .L366
 619:Menus.cpp     ****         this->releaseTimeScaleDraw += this->encoderRight.Increment();
 4713              		.loc 2 619 36 view .LVU1328
 4714 07da 76EEA56A 		vadd.f32	s13, s13, s11
 618:Menus.cpp     ****         this->releaseTime += this->encoderRight.Increment() * 3.3;
 4715              		.loc 2 618 27 view .LVU1329
 4716 07de A3EE047B 		vfma.f64	d7, d3, d4
 620:Menus.cpp     ****         if(this->releaseTimeScaleDraw >= screen.Width() / 4)
 4717              		.loc 2 620 9 view .LVU1330
 4718 07e2 F4EEC66A 		vcmpe.f32	s13, s12
 4719 07e6 F1EE10FA 		vmrs	APSR_nzcv, FPSCR
 618:Menus.cpp     ****         this->releaseTime += this->encoderRight.Increment() * 3.3;
 4720              		.loc 2 618 27 view .LVU1331
 4721 07ea B7EEC77B 		vcvt.f32.f64	s14, d7
 4722 07ee 87ED6D7A 		vstr.32	s14, [r7, #436]
 619:Menus.cpp     ****         this->releaseTimeScaleDraw += this->encoderRight.Increment();
 4723              		.loc 2 619 9 is_stmt 1 view .LVU1332
 4724              	.LVL310:
 4725              		.loc 3 41 40 view .LVU1333
 620:Menus.cpp     ****         if(this->releaseTimeScaleDraw >= screen.Width() / 4)
 4726              		.loc 2 620 9 view .LVU1334
 4727 07f2 62DA     		bge	.L357
ARM GAS  C:\Users\VINCIU~1\AppData\Local\Temp\ccYgfSqf.s 			page 130


 624:Menus.cpp     ****         if(this->releaseTimeScaleDraw <= 0)
 4728              		.loc 2 624 9 view .LVU1335
 4729 07f4 F5EEC06A 		vcmpe.f32	s13, #0
 628:Menus.cpp     ****         if(this->releaseTime >= 100)
 4730              		.loc 2 628 9 is_stmt 0 view .LVU1336
 4731 07f8 DFED577A 		vldr.32	s15, .L366+8
 624:Menus.cpp     ****         if(this->releaseTimeScaleDraw <= 0)
 4732              		.loc 2 624 9 view .LVU1337
 4733 07fc 0023     		movs	r3, #0
 4734 07fe F1EE10FA 		vmrs	APSR_nzcv, FPSCR
 628:Menus.cpp     ****         if(this->releaseTime >= 100)
 4735              		.loc 2 628 9 view .LVU1338
 4736 0802 B4EEE77A 		vcmpe.f32	s14, s15
 619:Menus.cpp     ****         this->releaseTimeScaleDraw += this->encoderRight.Increment();
 4737              		.loc 2 619 36 view .LVU1339
 4738 0806 8CBF     		ite	hi
 4739 0808 C7ED6E6A 		vstrhi.32	s13, [r7, #440]
 626:Menus.cpp     ****             this->releaseTimeScaleDraw = 0;
 4740              		.loc 2 626 13 is_stmt 1 view .LVU1340
 626:Menus.cpp     ****             this->releaseTimeScaleDraw = 0;
 4741              		.loc 2 626 40 is_stmt 0 view .LVU1341
 4742 080c C7F8B831 		strls	r3, [r7, #440]	@ float
 628:Menus.cpp     ****         if(this->releaseTime >= 100)
 4743              		.loc 2 628 9 is_stmt 1 view .LVU1342
 4744 0810 F1EE10FA 		vmrs	APSR_nzcv, FPSCR
 4745 0814 5ADB     		blt	.L346
 4746              	.L358:
 630:Menus.cpp     ****             this->releaseTime = 100;
 4747              		.loc 2 630 13 view .LVU1343
 630:Menus.cpp     ****             this->releaseTime = 100;
 4748              		.loc 2 630 31 is_stmt 0 view .LVU1344
 4749 0816 C7ED6D7A 		vstr.32	s15, [r7, #436]
 632:Menus.cpp     ****         if(this->releaseTime <= 0)
 4750              		.loc 2 632 9 is_stmt 1 view .LVU1345
 4751              	.L221:
 636:Menus.cpp     ****         screen.DrawRect(76, 0, 88, 13, true, false);
 4752              		.loc 2 636 9 view .LVU1346
 4753              	.LVL311:
 4754              	.LBB1508:
 4755              	.LBI1508:
 217:../../libdaisy/src/hid/disp/display.h ****                   uint_fast8_t y1,
 4756              		.loc 5 217 10 view .LVU1347
 4757              	.LBB1509:
 4758              	.LBI1509:
 181:../../libdaisy/src/hid/disp/display.h ****                   uint_fast8_t y1,
 4759              		.loc 5 181 10 view .LVU1348
 4760              	.LBB1510:
 4761              	.LBB1511:
 4762              	.LBI1511:
  41:../../libdaisy/src/hid/disp/oled_display.h ****     {
 4763              		.loc 1 41 10 view .LVU1349
 4764              	.LBB1512:
 4765              	.LBI1512:
 239:../../libdaisy/src/dev/oled_ssd130x.h ****     {
 4766              		.loc 6 239 10 view .LVU1350
 4767              	.LBB1513:
 244:../../libdaisy/src/dev/oled_ssd130x.h ****         else
ARM GAS  C:\Users\VINCIU~1\AppData\Local\Temp\ccYgfSqf.s 			page 131


 4768              		.loc 6 244 42 is_stmt 0 view .LVU1351
 4769 081a 94F86C20 		ldrb	r2, [r4, #108]	@ zero_extendqisi2
 4770 081e 04F15F03 		add	r3, r4, #95
 4771 0822 04F16B01 		add	r1, r4, #107
 4772 0826 42F00102 		orr	r2, r2, #1
 4773 082a 84F86C20 		strb	r2, [r4, #108]
 4774              	.LVL312:
 244:../../libdaisy/src/dev/oled_ssd130x.h ****         else
 4775              		.loc 6 244 42 view .LVU1352
 4776              	.LBE1513:
 4777              	.LBE1512:
 4778              	.LBE1511:
 199:../../libdaisy/src/hid/disp/display.h ****         {
 4779              		.loc 5 199 26 is_stmt 1 view .LVU1353
 4780              	.L223:
 4781              	.LBB1514:
 4782              	.LBI1514:
  41:../../libdaisy/src/hid/disp/oled_display.h ****     {
 4783              		.loc 1 41 10 view .LVU1354
 4784              	.LBB1515:
 4785              	.LBI1515:
 239:../../libdaisy/src/dev/oled_ssd130x.h ****     {
 4786              		.loc 6 239 10 view .LVU1355
 4787              	.LBB1516:
 244:../../libdaisy/src/dev/oled_ssd130x.h ****         else
 4788              		.loc 6 244 42 is_stmt 0 view .LVU1356
 4789 082e 13F8012F 		ldrb	r2, [r3, #1]!	@ zero_extendqisi2
 244:../../libdaisy/src/dev/oled_ssd130x.h ****         else
 4790              		.loc 6 244 42 view .LVU1357
 4791 0832 42F00102 		orr	r2, r2, #1
 4792              	.LBE1516:
 4793              	.LBE1515:
 4794              	.LBE1514:
 199:../../libdaisy/src/hid/disp/display.h ****         {
 4795              		.loc 5 199 26 view .LVU1358
 4796 0836 9942     		cmp	r1, r3
 4797              	.LBB1519:
 4798              	.LBB1518:
 4799              	.LBB1517:
 244:../../libdaisy/src/dev/oled_ssd130x.h ****         else
 4800              		.loc 6 244 42 view .LVU1359
 4801 0838 1A70     		strb	r2, [r3]
 4802              	.LVL313:
 244:../../libdaisy/src/dev/oled_ssd130x.h ****         else
 4803              		.loc 6 244 42 view .LVU1360
 4804              	.LBE1517:
 4805              	.LBE1518:
 4806              	.LBE1519:
 199:../../libdaisy/src/hid/disp/display.h ****         {
 4807              		.loc 5 199 26 is_stmt 1 view .LVU1361
 4808 083a F8D1     		bne	.L223
 4809              	.LVL314:
 199:../../libdaisy/src/hid/disp/display.h ****         {
 4810              		.loc 5 199 26 is_stmt 0 view .LVU1362
 4811              	.LBE1510:
 4812              	.LBE1509:
 4813              	.LBB1520:
ARM GAS  C:\Users\VINCIU~1\AppData\Local\Temp\ccYgfSqf.s 			page 132


 4814              	.LBI1520:
 181:../../libdaisy/src/hid/disp/display.h ****                   uint_fast8_t y1,
 4815              		.loc 5 181 10 is_stmt 1 view .LVU1363
 4816              	.LBB1521:
 4817              	.LBB1522:
 4818              	.LBI1522:
  41:../../libdaisy/src/hid/disp/oled_display.h ****     {
 4819              		.loc 1 41 10 view .LVU1364
 4820              	.LBB1523:
 4821              	.LBI1523:
 239:../../libdaisy/src/dev/oled_ssd130x.h ****     {
 4822              		.loc 6 239 10 view .LVU1365
 4823              	.LBB1524:
 244:../../libdaisy/src/dev/oled_ssd130x.h ****         else
 4824              		.loc 6 244 42 is_stmt 0 view .LVU1366
 4825 083c 94F8EC20 		ldrb	r2, [r4, #236]	@ zero_extendqisi2
 4826 0840 0023     		movs	r3, #0
 4827 0842 42F02002 		orr	r2, r2, #32
 4828 0846 84F8EC20 		strb	r2, [r4, #236]
 4829              	.LVL315:
 244:../../libdaisy/src/dev/oled_ssd130x.h ****         else
 4830              		.loc 6 244 42 view .LVU1367
 4831              	.LBE1524:
 4832              	.LBE1523:
 4833              	.LBE1522:
 199:../../libdaisy/src/hid/disp/display.h ****         {
 4834              		.loc 5 199 26 is_stmt 1 view .LVU1368
 4835              	.L224:
 4836              	.LBB1525:
 4837              	.LBI1525:
  41:../../libdaisy/src/hid/disp/oled_display.h ****     {
 4838              		.loc 1 41 10 view .LVU1369
 4839              	.LBB1526:
 4840              	.LBI1526:
 239:../../libdaisy/src/dev/oled_ssd130x.h ****     {
 4841              		.loc 6 239 10 view .LVU1370
 4842              	.LBB1527:
 244:../../libdaisy/src/dev/oled_ssd130x.h ****         else
 4843              		.loc 6 244 28 is_stmt 0 view .LVU1371
 4844 084a D908     		lsrs	r1, r3, #3
 244:../../libdaisy/src/dev/oled_ssd130x.h ****         else
 4845              		.loc 6 244 54 view .LVU1372
 4846 084c 03F00700 		and	r0, r3, #7
 244:../../libdaisy/src/dev/oled_ssd130x.h ****         else
 4847              		.loc 6 244 48 view .LVU1373
 4848 0850 0122     		movs	r2, #1
 244:../../libdaisy/src/dev/oled_ssd130x.h ****         else
 4849              		.loc 6 244 42 view .LVU1374
 4850 0852 04EBC111 		add	r1, r4, r1, lsl #7
 4851              	.LBE1527:
 4852              	.LBE1526:
 4853              	.LBE1525:
 212:../../libdaisy/src/hid/disp/display.h ****             }
 4854              		.loc 5 212 20 view .LVU1375
 4855 0856 1344     		add	r3, r3, r2
 4856              	.LVL316:
 4857              	.LBB1532:
ARM GAS  C:\Users\VINCIU~1\AppData\Local\Temp\ccYgfSqf.s 			page 133


 4858              	.LBB1530:
 4859              	.LBB1528:
 244:../../libdaisy/src/dev/oled_ssd130x.h ****         else
 4860              		.loc 6 244 48 view .LVU1376
 4861 0858 8240     		lsls	r2, r2, r0
 244:../../libdaisy/src/dev/oled_ssd130x.h ****         else
 4862              		.loc 6 244 42 view .LVU1377
 4863 085a 91F86C00 		ldrb	r0, [r1, #108]	@ zero_extendqisi2
 4864              	.LBE1528:
 4865              	.LBE1530:
 4866              	.LBE1532:
 199:../../libdaisy/src/hid/disp/display.h ****         {
 4867              		.loc 5 199 26 view .LVU1378
 4868 085e 0D2B     		cmp	r3, #13
 4869              	.LBB1533:
 4870              	.LBB1531:
 4871              	.LBB1529:
 244:../../libdaisy/src/dev/oled_ssd130x.h ****         else
 4872              		.loc 6 244 42 view .LVU1379
 4873 0860 42EA0002 		orr	r2, r2, r0
 4874 0864 81F86C20 		strb	r2, [r1, #108]
 4875              	.LVL317:
 244:../../libdaisy/src/dev/oled_ssd130x.h ****         else
 4876              		.loc 6 244 42 view .LVU1380
 4877              	.LBE1529:
 4878              	.LBE1531:
 4879              	.LBE1533:
 199:../../libdaisy/src/hid/disp/display.h ****         {
 4880              		.loc 5 199 26 is_stmt 1 view .LVU1381
 4881 0868 EFD1     		bne	.L224
 4882              	.LVL318:
 199:../../libdaisy/src/hid/disp/display.h ****         {
 4883              		.loc 5 199 26 is_stmt 0 view .LVU1382
 4884              	.LBE1521:
 4885              	.LBE1520:
 4886              	.LBB1534:
 4887              	.LBI1534:
 181:../../libdaisy/src/hid/disp/display.h ****                   uint_fast8_t y1,
 4888              		.loc 5 181 10 is_stmt 1 view .LVU1383
 4889              	.LBB1535:
 4890              	.LBB1536:
 4891              	.LBI1536:
  41:../../libdaisy/src/hid/disp/oled_display.h ****     {
 4892              		.loc 1 41 10 view .LVU1384
 4893              	.LBB1537:
 4894              	.LBI1537:
 239:../../libdaisy/src/dev/oled_ssd130x.h ****     {
 4895              		.loc 6 239 10 view .LVU1385
 4896              	.LBB1538:
 244:../../libdaisy/src/dev/oled_ssd130x.h ****         else
 4897              		.loc 6 244 42 is_stmt 0 view .LVU1386
 4898 086a 94F8E010 		ldrb	r1, [r4, #224]	@ zero_extendqisi2
 4899 086e 04F1ED02 		add	r2, r4, #237
 4900 0872 04F1E100 		add	r0, r4, #225
 4901 0876 41F02001 		orr	r1, r1, #32
 4902 087a 84F8E010 		strb	r1, [r4, #224]
 4903              	.LVL319:
ARM GAS  C:\Users\VINCIU~1\AppData\Local\Temp\ccYgfSqf.s 			page 134


 244:../../libdaisy/src/dev/oled_ssd130x.h ****         else
 4904              		.loc 6 244 42 view .LVU1387
 4905              	.LBE1538:
 4906              	.LBE1537:
 4907              	.LBE1536:
 199:../../libdaisy/src/hid/disp/display.h ****         {
 4908              		.loc 5 199 26 is_stmt 1 view .LVU1388
 4909              	.L225:
 4910              	.LBB1539:
 4911              	.LBI1539:
  41:../../libdaisy/src/hid/disp/oled_display.h ****     {
 4912              		.loc 1 41 10 view .LVU1389
 4913              	.LBB1540:
 4914              	.LBI1540:
 239:../../libdaisy/src/dev/oled_ssd130x.h ****     {
 4915              		.loc 6 239 10 view .LVU1390
 4916              	.LBB1541:
 244:../../libdaisy/src/dev/oled_ssd130x.h ****         else
 4917              		.loc 6 244 42 is_stmt 0 view .LVU1391
 4918 087e 12F8011D 		ldrb	r1, [r2, #-1]!	@ zero_extendqisi2
 244:../../libdaisy/src/dev/oled_ssd130x.h ****         else
 4919              		.loc 6 244 42 view .LVU1392
 4920 0882 41F02001 		orr	r1, r1, #32
 4921              	.LBE1541:
 4922              	.LBE1540:
 4923              	.LBE1539:
 199:../../libdaisy/src/hid/disp/display.h ****         {
 4924              		.loc 5 199 26 view .LVU1393
 4925 0886 9042     		cmp	r0, r2
 4926              	.LBB1544:
 4927              	.LBB1543:
 4928              	.LBB1542:
 244:../../libdaisy/src/dev/oled_ssd130x.h ****         else
 4929              		.loc 6 244 42 view .LVU1394
 4930 0888 1170     		strb	r1, [r2]
 4931              	.LVL320:
 244:../../libdaisy/src/dev/oled_ssd130x.h ****         else
 4932              		.loc 6 244 42 view .LVU1395
 4933              	.LBE1542:
 4934              	.LBE1543:
 4935              	.LBE1544:
 199:../../libdaisy/src/hid/disp/display.h ****         {
 4936              		.loc 5 199 26 is_stmt 1 view .LVU1396
 4937 088a F8D1     		bne	.L225
 4938              	.LVL321:
 199:../../libdaisy/src/hid/disp/display.h ****         {
 4939              		.loc 5 199 26 is_stmt 0 view .LVU1397
 4940              	.LBE1535:
 4941              	.LBE1534:
 4942              	.LBB1545:
 4943              	.LBI1545:
 181:../../libdaisy/src/hid/disp/display.h ****                   uint_fast8_t y1,
 4944              		.loc 5 181 10 is_stmt 1 view .LVU1398
 4945              	.LBB1546:
 4946              	.LBB1547:
 4947              	.LBI1547:
  41:../../libdaisy/src/hid/disp/oled_display.h ****     {
ARM GAS  C:\Users\VINCIU~1\AppData\Local\Temp\ccYgfSqf.s 			page 135


 4948              		.loc 1 41 10 view .LVU1399
 4949              	.LBB1548:
 4950              	.LBI1548:
 239:../../libdaisy/src/dev/oled_ssd130x.h ****     {
 4951              		.loc 6 239 10 view .LVU1400
 4952              	.LBB1549:
 244:../../libdaisy/src/dev/oled_ssd130x.h ****         else
 4953              		.loc 6 244 42 is_stmt 0 view .LVU1401
 4954 088c 94F86020 		ldrb	r2, [r4, #96]	@ zero_extendqisi2
 4955 0890 42F00102 		orr	r2, r2, #1
 4956 0894 84F86020 		strb	r2, [r4, #96]
 4957              	.LVL322:
 244:../../libdaisy/src/dev/oled_ssd130x.h ****         else
 4958              		.loc 6 244 42 view .LVU1402
 4959              	.LBE1549:
 4960              	.LBE1548:
 4961              	.LBE1547:
 199:../../libdaisy/src/hid/disp/display.h ****         {
 4962              		.loc 5 199 26 is_stmt 1 view .LVU1403
 4963              	.L226:
 4964              	.LBB1550:
 4965              	.LBI1550:
  41:../../libdaisy/src/hid/disp/oled_display.h ****     {
 4966              		.loc 1 41 10 view .LVU1404
 4967              	.LBB1551:
 4968              	.LBI1551:
 239:../../libdaisy/src/dev/oled_ssd130x.h ****     {
 4969              		.loc 6 239 10 view .LVU1405
 4970              	.LBB1552:
 244:../../libdaisy/src/dev/oled_ssd130x.h ****         else
 4971              		.loc 6 244 28 is_stmt 0 view .LVU1406
 4972 0898 D908     		lsrs	r1, r3, #3
 244:../../libdaisy/src/dev/oled_ssd130x.h ****         else
 4973              		.loc 6 244 54 view .LVU1407
 4974 089a 03F00700 		and	r0, r3, #7
 244:../../libdaisy/src/dev/oled_ssd130x.h ****         else
 4975              		.loc 6 244 48 view .LVU1408
 4976 089e 0122     		movs	r2, #1
 4977              	.LBE1552:
 4978              	.LBE1551:
 4979              	.LBE1550:
 199:../../libdaisy/src/hid/disp/display.h ****         {
 4980              		.loc 5 199 26 view .LVU1409
 4981 08a0 013B     		subs	r3, r3, #1
 4982              	.LVL323:
 4983              	.LBB1555:
 4984              	.LBB1554:
 4985              	.LBB1553:
 244:../../libdaisy/src/dev/oled_ssd130x.h ****         else
 4986              		.loc 6 244 42 view .LVU1410
 4987 08a2 04EBC111 		add	r1, r4, r1, lsl #7
 244:../../libdaisy/src/dev/oled_ssd130x.h ****         else
 4988              		.loc 6 244 48 view .LVU1411
 4989 08a6 02FA00F2 		lsl	r2, r2, r0
 244:../../libdaisy/src/dev/oled_ssd130x.h ****         else
 4990              		.loc 6 244 42 view .LVU1412
 4991 08aa 91F86000 		ldrb	r0, [r1, #96]	@ zero_extendqisi2
ARM GAS  C:\Users\VINCIU~1\AppData\Local\Temp\ccYgfSqf.s 			page 136


 4992 08ae 42EA0002 		orr	r2, r2, r0
 4993 08b2 81F86020 		strb	r2, [r1, #96]
 4994              	.LVL324:
 244:../../libdaisy/src/dev/oled_ssd130x.h ****         else
 4995              		.loc 6 244 42 view .LVU1413
 4996              	.LBE1553:
 4997              	.LBE1554:
 4998              	.LBE1555:
 199:../../libdaisy/src/hid/disp/display.h ****         {
 4999              		.loc 5 199 26 is_stmt 1 view .LVU1414
 5000 08b6 EFD1     		bne	.L226
 5001 08b8 40E4     		b	.L185
 5002              	.LVL325:
 5003              	.L357:
 199:../../libdaisy/src/hid/disp/display.h ****         {
 5004              		.loc 5 199 26 is_stmt 0 view .LVU1415
 5005              	.LBE1546:
 5006              	.LBE1545:
 5007              	.LBE1508:
 622:Menus.cpp     ****             this->releaseTimeScaleDraw = screen.Width() / 4;
 5008              		.loc 2 622 13 is_stmt 1 view .LVU1416
 628:Menus.cpp     ****         if(this->releaseTime >= 100)
 5009              		.loc 2 628 9 is_stmt 0 view .LVU1417
 5010 08ba DFED277A 		vldr.32	s15, .L366+8
 622:Menus.cpp     ****             this->releaseTimeScaleDraw = screen.Width() / 4;
 5011              		.loc 2 622 40 view .LVU1418
 5012 08be 87ED6E6A 		vstr.32	s12, [r7, #440]
 624:Menus.cpp     ****         if(this->releaseTimeScaleDraw <= 0)
 5013              		.loc 2 624 9 is_stmt 1 view .LVU1419
 628:Menus.cpp     ****         if(this->releaseTime >= 100)
 5014              		.loc 2 628 9 view .LVU1420
 5015 08c2 B4EEE77A 		vcmpe.f32	s14, s15
 5016 08c6 F1EE10FA 		vmrs	APSR_nzcv, FPSCR
 5017 08ca A4DA     		bge	.L358
 5018              	.L346:
 632:Menus.cpp     ****         if(this->releaseTime <= 0)
 5019              		.loc 2 632 9 view .LVU1421
 5020 08cc B5EEC07A 		vcmpe.f32	s14, #0
 5021 08d0 0023     		movs	r3, #0
 5022 08d2 F1EE10FA 		vmrs	APSR_nzcv, FPSCR
 634:Menus.cpp     ****             this->releaseTime = 0;
 5023              		.loc 2 634 13 view .LVU1422
 634:Menus.cpp     ****             this->releaseTime = 0;
 5024              		.loc 2 634 31 is_stmt 0 view .LVU1423
 5025 08d6 98BF     		it	ls
 5026 08d8 C7F8B431 		strls	r3, [r7, #436]	@ float
 5027 08dc 9DE7     		b	.L221
 5028              	.L356:
 600:Menus.cpp     ****             this->sustatinLevelScaleDraw = screen.Width() / 4;
 5029              		.loc 2 600 13 is_stmt 1 view .LVU1424
 606:Menus.cpp     ****         if(this->sustatinLevel >= 100)
 5030              		.loc 2 606 9 is_stmt 0 view .LVU1425
 5031 08de DFED1E7A 		vldr.32	s15, .L366+8
 600:Menus.cpp     ****             this->sustatinLevelScaleDraw = screen.Width() / 4;
 5032              		.loc 2 600 42 view .LVU1426
 5033 08e2 87ED6C6A 		vstr.32	s12, [r7, #432]
 602:Menus.cpp     ****         if(this->sustatinLevelScaleDraw <= 0)
ARM GAS  C:\Users\VINCIU~1\AppData\Local\Temp\ccYgfSqf.s 			page 137


 5034              		.loc 2 602 9 is_stmt 1 view .LVU1427
 606:Menus.cpp     ****         if(this->sustatinLevel >= 100)
 5035              		.loc 2 606 9 view .LVU1428
 5036 08e6 B4EEE77A 		vcmpe.f32	s14, s15
 5037 08ea F1EE10FA 		vmrs	APSR_nzcv, FPSCR
 5038 08ee BFF6CEAE 		bge	.L359
 5039              	.L344:
 610:Menus.cpp     ****         if(this->sustatinLevel <= 0)
 5040              		.loc 2 610 9 view .LVU1429
 5041 08f2 B5EEC07A 		vcmpe.f32	s14, #0
 5042 08f6 0023     		movs	r3, #0
 5043 08f8 F1EE10FA 		vmrs	APSR_nzcv, FPSCR
 612:Menus.cpp     ****             this->sustatinLevel = 0;
 5044              		.loc 2 612 13 view .LVU1430
 612:Menus.cpp     ****             this->sustatinLevel = 0;
 5045              		.loc 2 612 33 is_stmt 0 view .LVU1431
 5046 08fc 98BF     		it	ls
 5047 08fe C7F8AC31 		strls	r3, [r7, #428]	@ float
 5048 0902 C6E6     		b	.L209
 5049              	.L351:
 578:Menus.cpp     ****             decayTimeScaleDraw = screen.Width() / 4;
 5050              		.loc 2 578 13 is_stmt 1 view .LVU1432
 584:Menus.cpp     ****         if(decayTime >= 100)
 5051              		.loc 2 584 9 is_stmt 0 view .LVU1433
 5052 0904 DFED147A 		vldr.32	s15, .L366+8
 578:Menus.cpp     ****             decayTimeScaleDraw = screen.Width() / 4;
 5053              		.loc 2 578 32 view .LVU1434
 5054 0908 87ED6A6A 		vstr.32	s12, [r7, #424]
 580:Menus.cpp     ****         if(decayTimeScaleDraw <= 0)
 5055              		.loc 2 580 9 is_stmt 1 view .LVU1435
 584:Menus.cpp     ****         if(decayTime >= 100)
 5056              		.loc 2 584 9 view .LVU1436
 5057 090c B4EEE77A 		vcmpe.f32	s14, s15
 5058 0910 F1EE10FA 		vmrs	APSR_nzcv, FPSCR
 5059 0914 BFF6C4AB 		bge	.L360
 5060              	.L341:
 588:Menus.cpp     ****         if(decayTime <= 0)
 5061              		.loc 2 588 9 view .LVU1437
 5062 0918 B5EEC07A 		vcmpe.f32	s14, #0
 5063 091c 0023     		movs	r3, #0
 5064 091e F1EE10FA 		vmrs	APSR_nzcv, FPSCR
 590:Menus.cpp     ****             decayTime = 0;
 5065              		.loc 2 590 13 view .LVU1438
 590:Menus.cpp     ****             decayTime = 0;
 5066              		.loc 2 590 23 is_stmt 0 view .LVU1439
 5067 0922 98BF     		it	ls
 5068 0924 C7F89C31 		strls	r3, [r7, #412]	@ float
 5069 0928 FFF7BCBB 		b	.L194
 5070              	.LVL326:
 5071              	.L278:
 5072              	.LBB1556:
 5073              	.LBB1331:
 190:../../libdaisy/src/hid/disp/display.h ****         int_fast16_t error  = deltaX - deltaY;
 5074              		.loc 5 190 42 view .LVU1440
 5075 092c 0123     		movs	r3, #1
 5076 092e 0493     		str	r3, [sp, #16]
 5077 0930 ABE4     		b	.L238
ARM GAS  C:\Users\VINCIU~1\AppData\Local\Temp\ccYgfSqf.s 			page 138


 5078              	.LVL327:
 5079              	.L167:
 190:../../libdaisy/src/hid/disp/display.h ****         int_fast16_t error  = deltaX - deltaY;
 5080              		.loc 5 190 42 view .LVU1441
 5081              	.LBE1331:
 5082              	.LBE1556:
 538:Menus.cpp     ****             this->menuStateEnv = 3;
 5083              		.loc 2 538 13 is_stmt 1 view .LVU1442
 541:Menus.cpp     ****     if(this->buttonRight.RisingEdge())
 5084              		.loc 2 541 5 is_stmt 0 view .LVU1443
 5085 0932 97F86130 		ldrb	r3, [r7, #97]	@ zero_extendqisi2
 538:Menus.cpp     ****             this->menuStateEnv = 3;
 5086              		.loc 2 538 32 view .LVU1444
 5087 0936 0322     		movs	r2, #3
 541:Menus.cpp     ****     if(this->buttonRight.RisingEdge())
 5088              		.loc 2 541 5 view .LVU1445
 5089 0938 7F2B     		cmp	r3, #127
 538:Menus.cpp     ****             this->menuStateEnv = 3;
 5090              		.loc 2 538 32 view .LVU1446
 5091 093a C7F8A421 		str	r2, [r7, #420]
 541:Menus.cpp     ****     if(this->buttonRight.RisingEdge())
 5092              		.loc 2 541 5 is_stmt 1 view .LVU1447
 5093              	.LVL328:
 5094              	.LBB1557:
 5095              		.loc 4 69 17 view .LVU1448
 5096              	.LBB1214:
 5097              		.loc 4 69 38 view .LVU1449
 5098              		.loc 4 69 38 is_stmt 0 view .LVU1450
 5099              	.LBE1214:
 5100              	.LBE1557:
 541:Menus.cpp     ****     if(this->buttonRight.RisingEdge())
 5101              		.loc 2 541 5 view .LVU1451
 5102 093e 7FF43AAF 		bne	.L169
 5103 0942 D8E5     		b	.L172
 5104              	.LVL329:
 5105              	.L353:
 5106              	.LBB1558:
 5107              	.LBB1332:
 199:../../libdaisy/src/hid/disp/display.h ****         {
 5108              		.loc 5 199 26 view .LVU1452
 5109 0944 0023     		movs	r3, #0
 5110 0946 0593     		str	r3, [sp, #20]
 5111 0948 CAE4     		b	.L237
 5112              	.L367:
 5113 094a 00BFAFF3 		.align	3
 5113      0080
 5114              	.L366:
 5115 0950 66666666 		.word	1717986918
 5116 0954 66660A40 		.word	1074423398
 5117 0958 0000C842 		.word	1120403456
 5118              	.LBE1332:
 5119              	.LBE1558:
 5120              		.cfi_endproc
 5121              	.LFE4041:
 5123              		.section	.text._ZN5daisy25OneBitGraphicsDisplayImplINS_11OledDisplayINS_13SSD130xDriverILj128ELj64
 5124              		.align	1
 5125              		.p2align 2,,3
ARM GAS  C:\Users\VINCIU~1\AppData\Local\Temp\ccYgfSqf.s 			page 139


 5126              		.weak	_ZN5daisy25OneBitGraphicsDisplayImplINS_11OledDisplayINS_13SSD130xDriverILj128ELj64ENS_24SSD
 5127              		.syntax unified
 5128              		.thumb
 5129              		.thumb_func
 5130              		.fpu fpv5-d16
 5132              	_ZN5daisy25OneBitGraphicsDisplayImplINS_11OledDisplayINS_13SSD130xDriverILj128ELj64ENS_24SSD130x4Wi
 5133              	.LVL330:
 5134              	.LFB4341:
 217:../../libdaisy/src/hid/disp/display.h ****                   uint_fast8_t y1,
 5135              		.loc 5 217 10 is_stmt 1 view -0
 5136              		.cfi_startproc
 5137              		@ args = 12, pretend = 0, frame = 24
 5138              		@ frame_needed = 0, uses_anonymous_args = 0
 217:../../libdaisy/src/hid/disp/display.h ****                   uint_fast8_t y1,
 5139              		.loc 5 217 10 is_stmt 0 view .LVU1454
 5140 0000 2DE9F04F 		push	{r4, r5, r6, r7, r8, r9, r10, fp, lr}
 5141              		.cfi_def_cfa_offset 36
 5142              		.cfi_offset 4, -36
 5143              		.cfi_offset 5, -32
 5144              		.cfi_offset 6, -28
 5145              		.cfi_offset 7, -24
 5146              		.cfi_offset 8, -20
 5147              		.cfi_offset 9, -16
 5148              		.cfi_offset 10, -12
 5149              		.cfi_offset 11, -8
 5150              		.cfi_offset 14, -4
 5151 0004 87B0     		sub	sp, sp, #28
 5152              		.cfi_def_cfa_offset 64
 217:../../libdaisy/src/hid/disp/display.h ****                   uint_fast8_t y1,
 5153              		.loc 5 217 10 view .LVU1455
 5154 0006 9DF84850 		ldrb	r5, [sp, #72]	@ zero_extendqisi2
 5155 000a 109C     		ldr	r4, [sp, #64]
 5156 000c 2E46     		mov	r6, r5
 5157 000e 0195     		str	r5, [sp, #4]
 5158 0010 9DF84450 		ldrb	r5, [sp, #68]	@ zero_extendqisi2
 5159              	.LBB1630:
 224:../../libdaisy/src/hid/disp/display.h ****         {
 5160              		.loc 5 224 9 view .LVU1456
 5161 0014 9EB3     		cbz	r6, .L369
 5162              	.LVL331:
 224:../../libdaisy/src/hid/disp/display.h ****         {
 5163              		.loc 5 224 9 view .LVU1457
 5164              	.LBE1630:
 5165              	.LBB1752:
 5166              	.LBB1753:
 226:../../libdaisy/src/hid/disp/display.h ****             {
 5167              		.loc 5 226 40 is_stmt 1 view .LVU1458
 5168 0016 9942     		cmp	r1, r3
 5169 0018 2ED8     		bhi	.L368
 5170 001a 9946     		mov	r9, r3
 5171              	.LVL332:
 5172              	.L372:
 5173              	.LBB1754:
 228:../../libdaisy/src/hid/disp/display.h ****                 {
 5174              		.loc 5 228 44 view .LVU1459
 5175 001c A242     		cmp	r2, r4
 5176 001e 28D8     		bhi	.L375
ARM GAS  C:\Users\VINCIU~1\AppData\Local\Temp\ccYgfSqf.s 			page 140


 5177              	.LBB1755:
 5178              	.LBB1756:
 5179              	.LBB1757:
 241:../../libdaisy/src/dev/oled_ssd130x.h ****             return;
 5180              		.loc 6 241 14 is_stmt 0 view .LVU1460
 5181 0020 7F29     		cmp	r1, #127
 5182 0022 1646     		mov	r6, r2
 5183 0024 94BF     		ite	ls
 5184 0026 0023     		movls	r3, #0
 5185 0028 0123     		movhi	r3, #1
 5186 002a 08E0     		b	.L376
 5187              	.LVL333:
 5188              	.L459:
 244:../../libdaisy/src/dev/oled_ssd130x.h ****         else
 5189              		.loc 6 244 42 view .LVU1461
 5190 002c 9CF81480 		ldrb	r8, [ip, #20]	@ zero_extendqisi2
 5191 0030 4EEA080E 		orr	lr, lr, r8
 5192 0034 8CF814E0 		strb	lr, [ip, #20]
 5193              	.LVL334:
 5194              	.L373:
 244:../../libdaisy/src/dev/oled_ssd130x.h ****         else
 5195              		.loc 6 244 42 view .LVU1462
 5196              	.LBE1757:
 5197              	.LBE1756:
 5198              	.LBE1755:
 228:../../libdaisy/src/hid/disp/display.h ****                 {
 5199              		.loc 5 228 17 is_stmt 1 view .LVU1463
 5200 0038 0136     		adds	r6, r6, #1
 5201              	.LVL335:
 228:../../libdaisy/src/hid/disp/display.h ****                 {
 5202              		.loc 5 228 44 view .LVU1464
 5203 003a B442     		cmp	r4, r6
 5204 003c 19D3     		bcc	.L375
 5205              	.L376:
 5206              	.LVL336:
 5207              	.LBB1771:
 5208              	.LBI1755:
  41:../../libdaisy/src/hid/disp/oled_display.h ****     {
 5209              		.loc 1 41 10 view .LVU1465
 5210              	.LBB1768:
 5211              	.LBI1756:
 239:../../libdaisy/src/dev/oled_ssd130x.h ****     {
 5212              		.loc 6 239 10 view .LVU1466
 5213              	.LBB1765:
 241:../../libdaisy/src/dev/oled_ssd130x.h ****             return;
 5214              		.loc 6 241 9 is_stmt 0 view .LVU1467
 5215 003e 3F2E     		cmp	r6, #63
 5216 0040 FAD8     		bhi	.L373
 241:../../libdaisy/src/dev/oled_ssd130x.h ****             return;
 5217              		.loc 6 241 9 view .LVU1468
 5218 0042 002B     		cmp	r3, #0
 5219 0044 F8D1     		bne	.L373
 5220              	.LVL337:
 5221              	.LBB1758:
 5222              	.LBI1758:
 239:../../libdaisy/src/dev/oled_ssd130x.h ****     {
 5223              		.loc 6 239 10 is_stmt 1 view .LVU1469
ARM GAS  C:\Users\VINCIU~1\AppData\Local\Temp\ccYgfSqf.s 			page 141


 239:../../libdaisy/src/dev/oled_ssd130x.h ****     {
 5224              		.loc 6 239 10 is_stmt 0 view .LVU1470
 5225              	.LBE1758:
 244:../../libdaisy/src/dev/oled_ssd130x.h ****         else
 5226              		.loc 6 244 28 view .LVU1471
 5227 0046 4FEAD60C 		lsr	ip, r6, #3
 244:../../libdaisy/src/dev/oled_ssd130x.h ****         else
 5228              		.loc 6 244 54 view .LVU1472
 5229 004a 06F0070E 		and	lr, r6, #7
 244:../../libdaisy/src/dev/oled_ssd130x.h ****         else
 5230              		.loc 6 244 48 view .LVU1473
 5231 004e 4FF00108 		mov	r8, #1
 244:../../libdaisy/src/dev/oled_ssd130x.h ****         else
 5232              		.loc 6 244 42 view .LVU1474
 5233 0052 01EBCC1C 		add	ip, r1, ip, lsl #7
 244:../../libdaisy/src/dev/oled_ssd130x.h ****         else
 5234              		.loc 6 244 48 view .LVU1475
 5235 0056 08FA0EFE 		lsl	lr, r8, lr
 244:../../libdaisy/src/dev/oled_ssd130x.h ****         else
 5236              		.loc 6 244 42 view .LVU1476
 5237 005a 8444     		add	ip, ip, r0
 243:../../libdaisy/src/dev/oled_ssd130x.h ****             buffer_[x + (y / 8) * width] |= (1 << (y % 8));
 5238              		.loc 6 243 9 view .LVU1477
 5239 005c 002D     		cmp	r5, #0
 5240 005e E5D1     		bne	.L459
 5241              	.LBB1762:
 5242              	.LBB1759:
 246:../../libdaisy/src/dev/oled_ssd130x.h ****     }
 5243              		.loc 6 246 42 view .LVU1478
 5244 0060 9CF814B0 		ldrb	fp, [ip, #20]	@ zero_extendqisi2
 5245              	.LBE1759:
 5246              	.LBE1762:
 5247              	.LBE1765:
 5248              	.LBE1768:
 5249              	.LBE1771:
 228:../../libdaisy/src/hid/disp/display.h ****                 {
 5250              		.loc 5 228 17 view .LVU1479
 5251 0064 0136     		adds	r6, r6, #1
 5252              	.LVL338:
 5253              	.LBB1772:
 5254              	.LBB1769:
 5255              	.LBB1766:
 5256              	.LBB1763:
 5257              	.LBB1760:
 246:../../libdaisy/src/dev/oled_ssd130x.h ****     }
 5258              		.loc 6 246 42 view .LVU1480
 5259 0066 2BEA0E0A 		bic	r10, fp, lr
 5260              	.LBE1760:
 5261              	.LBE1763:
 5262              	.LBE1766:
 5263              	.LBE1769:
 5264              	.LBE1772:
 228:../../libdaisy/src/hid/disp/display.h ****                 {
 5265              		.loc 5 228 44 view .LVU1481
 5266 006a B442     		cmp	r4, r6
 5267              	.LBB1773:
 5268              	.LBB1770:
ARM GAS  C:\Users\VINCIU~1\AppData\Local\Temp\ccYgfSqf.s 			page 142


 5269              	.LBB1767:
 5270              	.LBB1764:
 5271              	.LBB1761:
 246:../../libdaisy/src/dev/oled_ssd130x.h ****     }
 5272              		.loc 6 246 42 view .LVU1482
 5273 006c 8CF814A0 		strb	r10, [ip, #20]
 5274              	.LVL339:
 246:../../libdaisy/src/dev/oled_ssd130x.h ****     }
 5275              		.loc 6 246 42 view .LVU1483
 5276              	.LBE1761:
 5277              	.LBE1764:
 5278              	.LBE1767:
 5279              	.LBE1770:
 5280              	.LBE1773:
 228:../../libdaisy/src/hid/disp/display.h ****                 {
 5281              		.loc 5 228 17 is_stmt 1 view .LVU1484
 228:../../libdaisy/src/hid/disp/display.h ****                 {
 5282              		.loc 5 228 44 view .LVU1485
 5283 0070 E5D2     		bcs	.L376
 5284              	.LVL340:
 5285              	.L375:
 228:../../libdaisy/src/hid/disp/display.h ****                 {
 5286              		.loc 5 228 44 is_stmt 0 view .LVU1486
 5287              	.LBE1754:
 226:../../libdaisy/src/hid/disp/display.h ****             {
 5288              		.loc 5 226 13 is_stmt 1 view .LVU1487
 5289 0072 0131     		adds	r1, r1, #1
 5290              	.LVL341:
 226:../../libdaisy/src/hid/disp/display.h ****             {
 5291              		.loc 5 226 40 view .LVU1488
 5292 0074 8945     		cmp	r9, r1
 5293 0076 D1D2     		bcs	.L372
 5294              	.LVL342:
 5295              	.L368:
 226:../../libdaisy/src/hid/disp/display.h ****             {
 5296              		.loc 5 226 40 is_stmt 0 view .LVU1489
 5297              	.LBE1753:
 5298              	.LBE1752:
 241:../../libdaisy/src/hid/disp/display.h **** 
 5299              		.loc 5 241 5 view .LVU1490
 5300 0078 07B0     		add	sp, sp, #28
 5301              		.cfi_remember_state
 5302              		.cfi_def_cfa_offset 36
 5303              		@ sp needed
 5304 007a BDE8F08F 		pop	{r4, r5, r6, r7, r8, r9, r10, fp, pc}
 5305              	.LVL343:
 5306              	.L369:
 5307              		.cfi_restore_state
 5308              	.LBB1774:
 5309              	.LBB1631:
 5310              	.LBI1631:
 181:../../libdaisy/src/hid/disp/display.h ****                   uint_fast8_t y1,
 5311              		.loc 5 181 10 is_stmt 1 view .LVU1491
 5312              	.LBB1632:
 187:../../libdaisy/src/hid/disp/display.h ****         int_fast16_t deltaY = abs((int_fast16_t)y2 - (int_fast16_t)y1);
 5313              		.loc 5 187 52 is_stmt 0 view .LVU1492
 5314 007e A3EB0108 		sub	r8, r3, r1
ARM GAS  C:\Users\VINCIU~1\AppData\Local\Temp\ccYgfSqf.s 			page 143


 187:../../libdaisy/src/hid/disp/display.h ****         int_fast16_t deltaY = abs((int_fast16_t)y2 - (int_fast16_t)y1);
 5315              		.loc 5 187 22 view .LVU1493
 5316 0082 B8F1000F 		cmp	r8, #0
 5317 0086 B8BF     		it	lt
 5318 0088 C8F10008 		rsblt	r8, r8, #0
 5319              	.LVL344:
 189:../../libdaisy/src/hid/disp/display.h ****         int_fast16_t signY  = ((y1 < y2) ? 1 : -1);
 5320              		.loc 5 189 42 view .LVU1494
 5321 008c 9942     		cmp	r1, r3
 5322 008e C0F04E81 		bcc	.L377
 5323              	.LVL345:
 5324              	.LBB1633:
 5325              	.LBI1633:
  41:../../libdaisy/src/hid/disp/oled_display.h ****     {
 5326              		.loc 1 41 10 is_stmt 1 view .LVU1495
 5327              	.LBB1634:
 5328              	.LBI1634:
 239:../../libdaisy/src/dev/oled_ssd130x.h ****     {
 5329              		.loc 6 239 10 view .LVU1496
 5330              	.LBB1635:
 241:../../libdaisy/src/dev/oled_ssd130x.h ****             return;
 5331              		.loc 6 241 14 is_stmt 0 view .LVU1497
 5332 0092 7F2B     		cmp	r3, #127
 5333              	.LBE1635:
 5334              	.LBE1634:
 5335              	.LBE1633:
 189:../../libdaisy/src/hid/disp/display.h ****         int_fast16_t signY  = ((y1 < y2) ? 1 : -1);
 5336              		.loc 5 189 42 view .LVU1498
 5337 0094 4FF0FF3A 		mov	r10, #-1
 5338              	.LBB1646:
 5339              	.LBB1642:
 5340              	.LBB1638:
 241:../../libdaisy/src/dev/oled_ssd130x.h ****             return;
 5341              		.loc 6 241 14 view .LVU1499
 5342 0098 94BF     		ite	ls
 5343 009a 0026     		movls	r6, #0
 5344 009c 0126     		movhi	r6, #1
 241:../../libdaisy/src/dev/oled_ssd130x.h ****             return;
 5345              		.loc 6 241 28 view .LVU1500
 5346 009e 3F2A     		cmp	r2, #63
 241:../../libdaisy/src/dev/oled_ssd130x.h ****             return;
 5347              		.loc 6 241 14 view .LVU1501
 5348 00a0 0096     		str	r6, [sp]
 241:../../libdaisy/src/dev/oled_ssd130x.h ****             return;
 5349              		.loc 6 241 28 view .LVU1502
 5350 00a2 94BF     		ite	ls
 5351 00a4 0027     		movls	r7, #0
 5352 00a6 0127     		movhi	r7, #1
 5353 00a8 0297     		str	r7, [sp, #8]
 241:../../libdaisy/src/dev/oled_ssd130x.h ****             return;
 5354              		.loc 6 241 9 view .LVU1503
 5355 00aa A6B9     		cbnz	r6, .L378
 5356 00ac 9FB9     		cbnz	r7, .L378
 5357              	.LVL346:
 5358              	.L419:
 244:../../libdaisy/src/dev/oled_ssd130x.h ****         else
 5359              		.loc 6 244 28 view .LVU1504
ARM GAS  C:\Users\VINCIU~1\AppData\Local\Temp\ccYgfSqf.s 			page 144


 5360 00ae D608     		lsrs	r6, r2, #3
 244:../../libdaisy/src/dev/oled_ssd130x.h ****         else
 5361              		.loc 6 244 54 view .LVU1505
 5362 00b0 02F0070C 		and	ip, r2, #7
 244:../../libdaisy/src/dev/oled_ssd130x.h ****         else
 5363              		.loc 6 244 48 view .LVU1506
 5364 00b4 0127     		movs	r7, #1
 244:../../libdaisy/src/dev/oled_ssd130x.h ****         else
 5365              		.loc 6 244 42 view .LVU1507
 5366 00b6 03EBC616 		add	r6, r3, r6, lsl #7
 5367 00ba 0644     		add	r6, r6, r0
 243:../../libdaisy/src/dev/oled_ssd130x.h ****             buffer_[x + (y / 8) * width] |= (1 << (y % 8));
 5368              		.loc 6 243 9 view .LVU1508
 5369 00bc 002D     		cmp	r5, #0
 5370 00be 00F09481 		beq	.L379
 244:../../libdaisy/src/dev/oled_ssd130x.h ****         else
 5371              		.loc 6 244 48 view .LVU1509
 5372 00c2 07FA0CF7 		lsl	r7, r7, ip
 244:../../libdaisy/src/dev/oled_ssd130x.h ****         else
 5373              		.loc 6 244 42 view .LVU1510
 5374 00c6 96F814C0 		ldrb	ip, [r6, #20]	@ zero_extendqisi2
 5375 00ca 47EA0C07 		orr	r7, r7, ip
 5376 00ce 3775     		strb	r7, [r6, #20]
 5377 00d0 0026     		movs	r6, #0
 5378 00d2 0296     		str	r6, [sp, #8]
 5379 00d4 0096     		str	r6, [sp]
 5380              	.L378:
 5381              	.LVL347:
 244:../../libdaisy/src/dev/oled_ssd130x.h ****         else
 5382              		.loc 6 244 42 view .LVU1511
 5383              	.LBE1638:
 5384              	.LBE1642:
 5385              	.LBE1646:
 199:../../libdaisy/src/hid/disp/display.h ****         {
 5386              		.loc 5 199 26 is_stmt 1 view .LVU1512
 5387 00d6 9942     		cmp	r1, r3
 5388 00d8 00F09781 		beq	.L460
 5389              	.L381:
 5390              	.LVL348:
 187:../../libdaisy/src/hid/disp/display.h ****         int_fast16_t deltaY = abs((int_fast16_t)y2 - (int_fast16_t)y1);
 5391              		.loc 5 187 22 is_stmt 0 view .LVU1513
 5392 00dc 4646     		mov	r6, r8
 5393 00de 9446     		mov	ip, r2
 5394 00e0 8E46     		mov	lr, r1
 5395              	.LVL349:
 5396              	.L383:
 5397              	.LBB1647:
 5398              	.LBI1647:
  41:../../libdaisy/src/hid/disp/oled_display.h ****     {
 5399              		.loc 1 41 10 is_stmt 1 view .LVU1514
 5400              	.LBB1648:
 5401              	.LBI1648:
 239:../../libdaisy/src/dev/oled_ssd130x.h ****     {
 5402              		.loc 6 239 10 view .LVU1515
 5403              	.LBB1649:
 241:../../libdaisy/src/dev/oled_ssd130x.h ****             return;
 5404              		.loc 6 241 9 is_stmt 0 view .LVU1516
ARM GAS  C:\Users\VINCIU~1\AppData\Local\Temp\ccYgfSqf.s 			page 145


 5405 00e2 BEF17F0F 		cmp	lr, #127
 5406 00e6 16D8     		bhi	.L384
 5407 00e8 BCF13F0F 		cmp	ip, #63
 5408 00ec 13D8     		bhi	.L384
 244:../../libdaisy/src/dev/oled_ssd130x.h ****         else
 5409              		.loc 6 244 28 view .LVU1517
 5410 00ee 4FEADC07 		lsr	r7, ip, #3
 244:../../libdaisy/src/dev/oled_ssd130x.h ****         else
 5411              		.loc 6 244 54 view .LVU1518
 5412 00f2 0CF0070B 		and	fp, ip, #7
 244:../../libdaisy/src/dev/oled_ssd130x.h ****         else
 5413              		.loc 6 244 48 view .LVU1519
 5414 00f6 4FF00109 		mov	r9, #1
 244:../../libdaisy/src/dev/oled_ssd130x.h ****         else
 5415              		.loc 6 244 42 view .LVU1520
 5416 00fa 0EEBC717 		add	r7, lr, r7, lsl #7
 5417 00fe 0744     		add	r7, r7, r0
 243:../../libdaisy/src/dev/oled_ssd130x.h ****             buffer_[x + (y / 8) * width] |= (1 << (y % 8));
 5418              		.loc 6 243 9 view .LVU1521
 5419 0100 002D     		cmp	r5, #0
 5420 0102 00F03981 		beq	.L385
 244:../../libdaisy/src/dev/oled_ssd130x.h ****         else
 5421              		.loc 6 244 48 view .LVU1522
 5422 0106 09FA0BF9 		lsl	r9, r9, fp
 244:../../libdaisy/src/dev/oled_ssd130x.h ****         else
 5423              		.loc 6 244 42 view .LVU1523
 5424 010a 97F814B0 		ldrb	fp, [r7, #20]	@ zero_extendqisi2
 5425 010e 49EA0B09 		orr	r9, r9, fp
 5426 0112 87F81490 		strb	r9, [r7, #20]
 5427              	.L384:
 5428              	.LVL350:
 244:../../libdaisy/src/dev/oled_ssd130x.h ****         else
 5429              		.loc 6 244 42 view .LVU1524
 5430              	.LBE1649:
 5431              	.LBE1648:
 5432              	.LBE1647:
 203:../../libdaisy/src/hid/disp/display.h ****             {
 5433              		.loc 5 203 13 view .LVU1525
 5434 0116 7700     		lsls	r7, r6, #1
 5435              	.LVL351:
 206:../../libdaisy/src/hid/disp/display.h ****             }
 5436              		.loc 5 206 20 view .LVU1526
 5437 0118 18BF     		it	ne
 5438 011a D644     		addne	lr, lr, r10
 5439              	.LVL352:
 209:../../libdaisy/src/hid/disp/display.h ****             {
 5440              		.loc 5 209 13 view .LVU1527
 5441 011c B845     		cmp	r8, r7
 5442 011e 02DD     		ble	.L387
 211:../../libdaisy/src/hid/disp/display.h ****                 y1 += signY;
 5443              		.loc 5 211 23 view .LVU1528
 5444 0120 4644     		add	r6, r6, r8
 5445              	.LVL353:
 212:../../libdaisy/src/hid/disp/display.h ****             }
 5446              		.loc 5 212 20 view .LVU1529
 5447 0122 0CF1FF3C 		add	ip, ip, #-1
 5448              	.LVL354:
ARM GAS  C:\Users\VINCIU~1\AppData\Local\Temp\ccYgfSqf.s 			page 146


 5449              	.L387:
 199:../../libdaisy/src/hid/disp/display.h ****         {
 5450              		.loc 5 199 26 is_stmt 1 view .LVU1530
 5451 0126 7345     		cmp	r3, lr
 5452 0128 DBD1     		bne	.L383
 199:../../libdaisy/src/hid/disp/display.h ****         {
 5453              		.loc 5 199 26 is_stmt 0 view .LVU1531
 5454 012a 6245     		cmp	r2, ip
 5455 012c D9D1     		bne	.L383
 5456 012e 0026     		movs	r6, #0
 5457              	.LVL355:
 199:../../libdaisy/src/hid/disp/display.h ****         {
 5458              		.loc 5 199 26 view .LVU1532
 5459 0130 0496     		str	r6, [sp, #16]
 5460              	.LVL356:
 5461              	.L380:
 199:../../libdaisy/src/hid/disp/display.h ****         {
 5462              		.loc 5 199 26 view .LVU1533
 5463              	.LBE1632:
 5464              	.LBE1631:
 5465              	.LBB1662:
 5466              	.LBI1662:
 181:../../libdaisy/src/hid/disp/display.h ****                   uint_fast8_t y1,
 5467              		.loc 5 181 10 is_stmt 1 view .LVU1534
 5468              	.LBB1663:
 188:../../libdaisy/src/hid/disp/display.h ****         int_fast16_t signX  = ((x1 < x2) ? 1 : -1);
 5469              		.loc 5 188 52 is_stmt 0 view .LVU1535
 5470 0132 A4EB0209 		sub	r9, r4, r2
 5471              	.LBB1664:
 5472              	.LBB1665:
 5473              	.LBB1666:
 241:../../libdaisy/src/dev/oled_ssd130x.h ****             return;
 5474              		.loc 6 241 9 view .LVU1536
 5475 0136 009F     		ldr	r7, [sp]
 5476              	.LBE1666:
 5477              	.LBE1665:
 5478              	.LBE1664:
 188:../../libdaisy/src/hid/disp/display.h ****         int_fast16_t signX  = ((x1 < x2) ? 1 : -1);
 5479              		.loc 5 188 22 view .LVU1537
 5480 0138 B9F1000F 		cmp	r9, #0
 5481 013c B8BF     		it	lt
 5482 013e C9F10009 		rsblt	r9, r9, #0
 5483              	.LVL357:
 5484              	.LBB1681:
 5485              	.LBB1675:
 5486              	.LBB1669:
 241:../../libdaisy/src/dev/oled_ssd130x.h ****             return;
 5487              		.loc 6 241 28 view .LVU1538
 5488 0142 3F2C     		cmp	r4, #63
 5489 0144 94BF     		ite	ls
 5490 0146 0026     		movls	r6, #0
 5491 0148 0126     		movhi	r6, #1
 5492              	.LBE1669:
 5493              	.LBE1675:
 5494              	.LBE1681:
 190:../../libdaisy/src/hid/disp/display.h ****         int_fast16_t error  = deltaX - deltaY;
 5495              		.loc 5 190 42 view .LVU1539
ARM GAS  C:\Users\VINCIU~1\AppData\Local\Temp\ccYgfSqf.s 			page 147


 5496 014a A242     		cmp	r2, r4
 191:../../libdaisy/src/hid/disp/display.h ****         int_fast16_t error2;
 5497              		.loc 5 191 22 view .LVU1540
 5498 014c C9F10008 		rsb	r8, r9, #0
 5499              	.LVL358:
 5500              	.LBB1682:
 5501              	.LBI1664:
  41:../../libdaisy/src/hid/disp/oled_display.h ****     {
 5502              		.loc 1 41 10 is_stmt 1 view .LVU1541
 5503              	.LBB1676:
 5504              	.LBI1665:
 239:../../libdaisy/src/dev/oled_ssd130x.h ****     {
 5505              		.loc 6 239 10 view .LVU1542
 5506              	.LBB1670:
 241:../../libdaisy/src/dev/oled_ssd130x.h ****             return;
 5507              		.loc 6 241 28 is_stmt 0 view .LVU1543
 5508 0150 0396     		str	r6, [sp, #12]
 5509              	.LBE1670:
 5510              	.LBE1676:
 5511              	.LBE1682:
 190:../../libdaisy/src/hid/disp/display.h ****         int_fast16_t error  = deltaX - deltaY;
 5512              		.loc 5 190 42 view .LVU1544
 5513 0152 C0F02381 		bcc	.L388
 5514              	.LVL359:
 5515              	.LBB1683:
 5516              	.LBB1677:
 5517              	.LBB1671:
 241:../../libdaisy/src/dev/oled_ssd130x.h ****             return;
 5518              		.loc 6 241 9 view .LVU1545
 5519 0156 002F     		cmp	r7, #0
 5520 0158 40F05081 		bne	.L423
 5521 015c 002E     		cmp	r6, #0
 5522 015e 40F04D81 		bne	.L423
 5523              	.LBE1671:
 5524              	.LBE1677:
 5525              	.LBE1683:
 190:../../libdaisy/src/hid/disp/display.h ****         int_fast16_t error  = deltaX - deltaY;
 5526              		.loc 5 190 42 view .LVU1546
 5527 0162 4FF0FF36 		mov	r6, #-1
 5528 0166 0096     		str	r6, [sp]
 5529              	.LBB1684:
 5530              	.LBB1678:
 5531              	.LBB1672:
 244:../../libdaisy/src/dev/oled_ssd130x.h ****         else
 5532              		.loc 6 244 28 view .LVU1547
 5533 0168 E608     		lsrs	r6, r4, #3
 244:../../libdaisy/src/dev/oled_ssd130x.h ****         else
 5534              		.loc 6 244 42 view .LVU1548
 5535 016a 03EBC616 		add	r6, r3, r6, lsl #7
 5536 016e 0644     		add	r6, r6, r0
 243:../../libdaisy/src/dev/oled_ssd130x.h ****             buffer_[x + (y / 8) * width] |= (1 << (y % 8));
 5537              		.loc 6 243 9 view .LVU1549
 5538 0170 002D     		cmp	r5, #0
 5539 0172 00F01E81 		beq	.L390
 5540              	.LVL360:
 5541              	.L462:
 244:../../libdaisy/src/dev/oled_ssd130x.h ****         else
ARM GAS  C:\Users\VINCIU~1\AppData\Local\Temp\ccYgfSqf.s 			page 148


 5542              		.loc 6 244 48 view .LVU1550
 5543 0176 4FF0010C 		mov	ip, #1
 244:../../libdaisy/src/dev/oled_ssd130x.h ****         else
 5544              		.loc 6 244 54 view .LVU1551
 5545 017a 04F00707 		and	r7, r4, #7
 244:../../libdaisy/src/dev/oled_ssd130x.h ****         else
 5546              		.loc 6 244 48 view .LVU1552
 5547 017e 0CFA07F7 		lsl	r7, ip, r7
 244:../../libdaisy/src/dev/oled_ssd130x.h ****         else
 5548              		.loc 6 244 42 view .LVU1553
 5549 0182 96F814C0 		ldrb	ip, [r6, #20]	@ zero_extendqisi2
 5550 0186 47EA0C07 		orr	r7, r7, ip
 5551 018a 3775     		strb	r7, [r6, #20]
 5552 018c 0026     		movs	r6, #0
 5553 018e 0396     		str	r6, [sp, #12]
 5554              	.L389:
 5555              	.LVL361:
 244:../../libdaisy/src/dev/oled_ssd130x.h ****         else
 5556              		.loc 6 244 42 view .LVU1554
 5557              	.LBE1672:
 5558              	.LBE1678:
 5559              	.LBE1684:
 199:../../libdaisy/src/hid/disp/display.h ****         {
 5560              		.loc 5 199 26 is_stmt 1 view .LVU1555
 5561 0190 A242     		cmp	r2, r4
 5562 0192 00F03D81 		beq	.L461
 5563              	.L392:
 5564              	.LVL362:
 190:../../libdaisy/src/hid/disp/display.h ****         int_fast16_t error  = deltaX - deltaY;
 5565              		.loc 5 190 42 is_stmt 0 view .LVU1556
 5566 0196 C446     		mov	ip, r8
 5567 0198 1646     		mov	r6, r2
 5568 019a 1F46     		mov	r7, r3
 5569 019c 0592     		str	r2, [sp, #20]
 5570              	.LVL363:
 5571              	.L394:
 5572              	.LBB1685:
 5573              	.LBI1685:
  41:../../libdaisy/src/hid/disp/oled_display.h ****     {
 5574              		.loc 1 41 10 is_stmt 1 view .LVU1557
 5575              	.LBB1686:
 5576              	.LBI1686:
 239:../../libdaisy/src/dev/oled_ssd130x.h ****     {
 5577              		.loc 6 239 10 view .LVU1558
 5578              	.LBB1687:
 241:../../libdaisy/src/dev/oled_ssd130x.h ****             return;
 5579              		.loc 6 241 9 is_stmt 0 view .LVU1559
 5580 019e 7F2F     		cmp	r7, #127
 5581 01a0 15D8     		bhi	.L395
 5582 01a2 3F2E     		cmp	r6, #63
 5583 01a4 13D8     		bhi	.L395
 244:../../libdaisy/src/dev/oled_ssd130x.h ****         else
 5584              		.loc 6 244 28 view .LVU1560
 5585 01a6 4FEAD60E 		lsr	lr, r6, #3
 244:../../libdaisy/src/dev/oled_ssd130x.h ****         else
 5586              		.loc 6 244 54 view .LVU1561
 5587 01aa 06F0070B 		and	fp, r6, #7
ARM GAS  C:\Users\VINCIU~1\AppData\Local\Temp\ccYgfSqf.s 			page 149


 244:../../libdaisy/src/dev/oled_ssd130x.h ****         else
 5588              		.loc 6 244 48 view .LVU1562
 5589 01ae 4FF0010A 		mov	r10, #1
 244:../../libdaisy/src/dev/oled_ssd130x.h ****         else
 5590              		.loc 6 244 42 view .LVU1563
 5591 01b2 07EBCE1E 		add	lr, r7, lr, lsl #7
 5592 01b6 8644     		add	lr, lr, r0
 243:../../libdaisy/src/dev/oled_ssd130x.h ****             buffer_[x + (y / 8) * width] |= (1 << (y % 8));
 5593              		.loc 6 243 9 view .LVU1564
 5594 01b8 002D     		cmp	r5, #0
 5595 01ba 00F0E680 		beq	.L396
 244:../../libdaisy/src/dev/oled_ssd130x.h ****         else
 5596              		.loc 6 244 48 view .LVU1565
 5597 01be 0AFA0BFA 		lsl	r10, r10, fp
 244:../../libdaisy/src/dev/oled_ssd130x.h ****         else
 5598              		.loc 6 244 42 view .LVU1566
 5599 01c2 9EF814B0 		ldrb	fp, [lr, #20]	@ zero_extendqisi2
 5600 01c6 4AEA0B0A 		orr	r10, r10, fp
 5601 01ca 8EF814A0 		strb	r10, [lr, #20]
 5602              	.L395:
 5603              	.LVL364:
 244:../../libdaisy/src/dev/oled_ssd130x.h ****         else
 5604              		.loc 6 244 42 view .LVU1567
 5605              	.LBE1687:
 5606              	.LBE1686:
 5607              	.LBE1685:
 203:../../libdaisy/src/hid/disp/display.h ****             {
 5608              		.loc 5 203 13 view .LVU1568
 5609 01ce B8EB4C0F 		cmp	r8, ip, lsl #1
 202:../../libdaisy/src/hid/disp/display.h ****             if(error2 > -deltaY)
 5610              		.loc 5 202 20 view .LVU1569
 5611 01d2 4FEA4C0E 		lsl	lr, ip, #1
 5612              	.LVL365:
 203:../../libdaisy/src/hid/disp/display.h ****             {
 5613              		.loc 5 203 13 view .LVU1570
 5614 01d6 02DA     		bge	.L397
 205:../../libdaisy/src/hid/disp/display.h ****                 x1 += signX;
 5615              		.loc 5 205 23 view .LVU1571
 5616 01d8 ACEB090C 		sub	ip, ip, r9
 5617              	.LVL366:
 206:../../libdaisy/src/hid/disp/display.h ****             }
 5618              		.loc 5 206 20 view .LVU1572
 5619 01dc 013F     		subs	r7, r7, #1
 5620              	.LVL367:
 5621              	.L397:
 209:../../libdaisy/src/hid/disp/display.h ****             {
 5622              		.loc 5 209 13 view .LVU1573
 5623 01de BEF1000F 		cmp	lr, #0
 5624 01e2 01D0     		beq	.L398
 212:../../libdaisy/src/hid/disp/display.h ****             }
 5625              		.loc 5 212 20 view .LVU1574
 5626 01e4 009A     		ldr	r2, [sp]
 5627 01e6 1644     		add	r6, r6, r2
 5628              	.LVL368:
 5629              	.L398:
 199:../../libdaisy/src/hid/disp/display.h ****         {
 5630              		.loc 5 199 26 is_stmt 1 view .LVU1575
ARM GAS  C:\Users\VINCIU~1\AppData\Local\Temp\ccYgfSqf.s 			page 150


 5631 01e8 BB42     		cmp	r3, r7
 5632 01ea D8D1     		bne	.L394
 199:../../libdaisy/src/hid/disp/display.h ****         {
 5633              		.loc 5 199 26 is_stmt 0 view .LVU1576
 5634 01ec B442     		cmp	r4, r6
 5635 01ee D6D1     		bne	.L394
 5636 01f0 059A     		ldr	r2, [sp, #20]
 5637              	.LVL369:
 5638              	.L391:
 199:../../libdaisy/src/hid/disp/display.h ****         {
 5639              		.loc 5 199 26 view .LVU1577
 5640              	.LBE1663:
 5641              	.LBE1662:
 5642              	.LBB1698:
 5643              	.LBI1698:
 181:../../libdaisy/src/hid/disp/display.h ****                   uint_fast8_t y1,
 5644              		.loc 5 181 10 is_stmt 1 view .LVU1578
 5645              	.LBB1699:
 187:../../libdaisy/src/hid/disp/display.h ****         int_fast16_t deltaY = abs((int_fast16_t)y2 - (int_fast16_t)y1);
 5646              		.loc 5 187 52 is_stmt 0 view .LVU1579
 5647 01f2 A1EB030E 		sub	lr, r1, r3
 187:../../libdaisy/src/hid/disp/display.h ****         int_fast16_t deltaY = abs((int_fast16_t)y2 - (int_fast16_t)y1);
 5648              		.loc 5 187 22 view .LVU1580
 5649 01f6 BEF1000F 		cmp	lr, #0
 5650 01fa B8BF     		it	lt
 5651 01fc CEF1000E 		rsblt	lr, lr, #0
 5652              	.LVL370:
 5653              	.LBB1700:
 5654              	.LBB1701:
 5655              	.LBB1702:
 241:../../libdaisy/src/dev/oled_ssd130x.h ****             return;
 5656              		.loc 6 241 14 view .LVU1581
 5657 0200 7F29     		cmp	r1, #127
 5658 0202 94BF     		ite	ls
 5659 0204 4FF0000A 		movls	r10, #0
 5660 0208 4FF0010A 		movhi	r10, #1
 5661              	.LBE1702:
 5662              	.LBE1701:
 5663              	.LBE1700:
 189:../../libdaisy/src/hid/disp/display.h ****         int_fast16_t signY  = ((y1 < y2) ? 1 : -1);
 5664              		.loc 5 189 42 view .LVU1582
 5665 020c 9942     		cmp	r1, r3
 5666 020e 8CBF     		ite	hi
 5667 0210 4FF00109 		movhi	r9, #1
 5668 0214 4FF0FF39 		movls	r9, #-1
 5669              	.LVL371:
 5670              	.LBB1709:
 5671              	.LBI1700:
  41:../../libdaisy/src/hid/disp/oled_display.h ****     {
 5672              		.loc 1 41 10 is_stmt 1 view .LVU1583
 5673              	.LBB1707:
 5674              	.LBI1701:
 239:../../libdaisy/src/dev/oled_ssd130x.h ****     {
 5675              		.loc 6 239 10 view .LVU1584
 5676              	.LBB1705:
 241:../../libdaisy/src/dev/oled_ssd130x.h ****             return;
 5677              		.loc 6 241 9 is_stmt 0 view .LVU1585
ARM GAS  C:\Users\VINCIU~1\AppData\Local\Temp\ccYgfSqf.s 			page 151


 5678 0218 BAF1000F 		cmp	r10, #0
 5679 021c 13D1     		bne	.L400
 5680 021e 039E     		ldr	r6, [sp, #12]
 5681 0220 8EB9     		cbnz	r6, .L400
 244:../../libdaisy/src/dev/oled_ssd130x.h ****         else
 5682              		.loc 6 244 28 view .LVU1586
 5683 0222 E608     		lsrs	r6, r4, #3
 244:../../libdaisy/src/dev/oled_ssd130x.h ****         else
 5684              		.loc 6 244 42 view .LVU1587
 5685 0224 01EBC616 		add	r6, r1, r6, lsl #7
 5686 0228 0644     		add	r6, r6, r0
 243:../../libdaisy/src/dev/oled_ssd130x.h ****             buffer_[x + (y / 8) * width] |= (1 << (y % 8));
 5687              		.loc 6 243 9 view .LVU1588
 5688 022a 002D     		cmp	r5, #0
 5689 022c 00F0D380 		beq	.L401
 244:../../libdaisy/src/dev/oled_ssd130x.h ****         else
 5690              		.loc 6 244 48 view .LVU1589
 5691 0230 4FF0010C 		mov	ip, #1
 244:../../libdaisy/src/dev/oled_ssd130x.h ****         else
 5692              		.loc 6 244 54 view .LVU1590
 5693 0234 04F00707 		and	r7, r4, #7
 244:../../libdaisy/src/dev/oled_ssd130x.h ****         else
 5694              		.loc 6 244 48 view .LVU1591
 5695 0238 0CFA07F7 		lsl	r7, ip, r7
 244:../../libdaisy/src/dev/oled_ssd130x.h ****         else
 5696              		.loc 6 244 42 view .LVU1592
 5697 023c 96F814C0 		ldrb	ip, [r6, #20]	@ zero_extendqisi2
 5698 0240 47EA0C07 		orr	r7, r7, ip
 5699 0244 3775     		strb	r7, [r6, #20]
 5700              	.L400:
 5701              	.LVL372:
 244:../../libdaisy/src/dev/oled_ssd130x.h ****         else
 5702              		.loc 6 244 42 view .LVU1593
 5703              	.LBE1705:
 5704              	.LBE1707:
 5705              	.LBE1709:
 199:../../libdaisy/src/hid/disp/display.h ****         {
 5706              		.loc 5 199 26 is_stmt 1 view .LVU1594
 5707 0246 049E     		ldr	r6, [sp, #16]
 5708 0248 26BB     		cbnz	r6, .L402
 187:../../libdaisy/src/hid/disp/display.h ****         int_fast16_t deltaY = abs((int_fast16_t)y2 - (int_fast16_t)y1);
 5709              		.loc 5 187 22 is_stmt 0 view .LVU1595
 5710 024a 7746     		mov	r7, lr
 199:../../libdaisy/src/hid/disp/display.h ****         {
 5711              		.loc 5 199 26 view .LVU1596
 5712 024c 2646     		mov	r6, r4
 5713              	.LVL373:
 5714              	.L403:
 5715              	.LBB1710:
 5716              	.LBI1710:
  41:../../libdaisy/src/hid/disp/oled_display.h ****     {
 5717              		.loc 1 41 10 is_stmt 1 view .LVU1597
 5718              	.LBB1711:
 5719              	.LBI1711:
 239:../../libdaisy/src/dev/oled_ssd130x.h ****     {
 5720              		.loc 6 239 10 view .LVU1598
 5721              	.LBB1712:
ARM GAS  C:\Users\VINCIU~1\AppData\Local\Temp\ccYgfSqf.s 			page 152


 241:../../libdaisy/src/dev/oled_ssd130x.h ****             return;
 5722              		.loc 6 241 9 is_stmt 0 view .LVU1599
 5723 024e 7F2B     		cmp	r3, #127
 5724 0250 14D8     		bhi	.L405
 241:../../libdaisy/src/dev/oled_ssd130x.h ****             return;
 5725              		.loc 6 241 9 view .LVU1600
 5726 0252 3F2E     		cmp	r6, #63
 5727 0254 12D8     		bhi	.L405
 244:../../libdaisy/src/dev/oled_ssd130x.h ****         else
 5728              		.loc 6 244 28 view .LVU1601
 5729 0256 4FEAD60C 		lsr	ip, r6, #3
 244:../../libdaisy/src/dev/oled_ssd130x.h ****         else
 5730              		.loc 6 244 54 view .LVU1602
 5731 025a 06F0070B 		and	fp, r6, #7
 244:../../libdaisy/src/dev/oled_ssd130x.h ****         else
 5732              		.loc 6 244 48 view .LVU1603
 5733 025e 4FF00108 		mov	r8, #1
 244:../../libdaisy/src/dev/oled_ssd130x.h ****         else
 5734              		.loc 6 244 42 view .LVU1604
 5735 0262 03EBCC1C 		add	ip, r3, ip, lsl #7
 5736 0266 8444     		add	ip, ip, r0
 243:../../libdaisy/src/dev/oled_ssd130x.h ****             buffer_[x + (y / 8) * width] |= (1 << (y % 8));
 5737              		.loc 6 243 9 view .LVU1605
 5738 0268 002D     		cmp	r5, #0
 5739 026a 73D0     		beq	.L406
 244:../../libdaisy/src/dev/oled_ssd130x.h ****         else
 5740              		.loc 6 244 48 view .LVU1606
 5741 026c 08FA0BF8 		lsl	r8, r8, fp
 244:../../libdaisy/src/dev/oled_ssd130x.h ****         else
 5742              		.loc 6 244 42 view .LVU1607
 5743 0270 9CF814B0 		ldrb	fp, [ip, #20]	@ zero_extendqisi2
 5744 0274 48EA0B08 		orr	r8, r8, fp
 5745 0278 8CF81480 		strb	r8, [ip, #20]
 5746              	.L405:
 5747              	.LVL374:
 244:../../libdaisy/src/dev/oled_ssd130x.h ****         else
 5748              		.loc 6 244 42 view .LVU1608
 5749              	.LBE1712:
 5750              	.LBE1711:
 5751              	.LBE1710:
 203:../../libdaisy/src/hid/disp/display.h ****             {
 5752              		.loc 5 203 13 view .LVU1609
 5753 027c 5FEA470C 		lsls	ip, r7, #1
 5754              	.LVL375:
 206:../../libdaisy/src/hid/disp/display.h ****             }
 5755              		.loc 5 206 20 view .LVU1610
 5756 0280 18BF     		it	ne
 5757 0282 4B44     		addne	r3, r3, r9
 5758              	.LVL376:
 209:../../libdaisy/src/hid/disp/display.h ****             {
 5759              		.loc 5 209 13 view .LVU1611
 5760 0284 E645     		cmp	lr, ip
 5761 0286 01DD     		ble	.L408
 211:../../libdaisy/src/hid/disp/display.h ****                 y1 += signY;
 5762              		.loc 5 211 23 view .LVU1612
 5763 0288 7744     		add	r7, r7, lr
 5764              	.LVL377:
ARM GAS  C:\Users\VINCIU~1\AppData\Local\Temp\ccYgfSqf.s 			page 153


 212:../../libdaisy/src/hid/disp/display.h ****             }
 5765              		.loc 5 212 20 view .LVU1613
 5766 028a 013E     		subs	r6, r6, #1
 5767              	.LVL378:
 5768              	.L408:
 199:../../libdaisy/src/hid/disp/display.h ****         {
 5769              		.loc 5 199 26 is_stmt 1 view .LVU1614
 5770 028c 9942     		cmp	r1, r3
 5771 028e DED1     		bne	.L403
 199:../../libdaisy/src/hid/disp/display.h ****         {
 5772              		.loc 5 199 26 is_stmt 0 view .LVU1615
 5773 0290 B442     		cmp	r4, r6
 5774 0292 DCD1     		bne	.L403
 5775              	.LVL379:
 5776              	.L402:
 199:../../libdaisy/src/hid/disp/display.h ****         {
 5777              		.loc 5 199 26 view .LVU1616
 5778              	.LBE1699:
 5779              	.LBE1698:
 5780              	.LBB1721:
 5781              	.LBI1721:
 181:../../libdaisy/src/hid/disp/display.h ****                   uint_fast8_t y1,
 5782              		.loc 5 181 10 is_stmt 1 view .LVU1617
 5783              	.LBB1722:
 188:../../libdaisy/src/hid/disp/display.h ****         int_fast16_t signX  = ((x1 < x2) ? 1 : -1);
 5784              		.loc 5 188 52 is_stmt 0 view .LVU1618
 5785 0294 A2EB040E 		sub	lr, r2, r4
 188:../../libdaisy/src/hid/disp/display.h ****         int_fast16_t signX  = ((x1 < x2) ? 1 : -1);
 5786              		.loc 5 188 22 view .LVU1619
 5787 0298 BEF1000F 		cmp	lr, #0
 5788 029c B8BF     		it	lt
 5789 029e CEF1000E 		rsblt	lr, lr, #0
 5790              	.LVL380:
 190:../../libdaisy/src/hid/disp/display.h ****         int_fast16_t error  = deltaX - deltaY;
 5791              		.loc 5 190 42 view .LVU1620
 5792 02a2 A242     		cmp	r2, r4
 5793 02a4 8CBF     		ite	hi
 5794 02a6 4FF00108 		movhi	r8, #1
 5795 02aa 4FF0FF38 		movls	r8, #-1
 5796              	.LVL381:
 191:../../libdaisy/src/hid/disp/display.h ****         int_fast16_t error2;
 5797              		.loc 5 191 22 view .LVU1621
 5798 02ae CEF1000C 		rsb	ip, lr, #0
 5799              	.LVL382:
 5800              	.LBB1723:
 5801              	.LBI1723:
  41:../../libdaisy/src/hid/disp/oled_display.h ****     {
 5802              		.loc 1 41 10 is_stmt 1 view .LVU1622
 5803              	.LBB1724:
 5804              	.LBI1724:
 239:../../libdaisy/src/dev/oled_ssd130x.h ****     {
 5805              		.loc 6 239 10 view .LVU1623
 5806              	.LBB1725:
 241:../../libdaisy/src/dev/oled_ssd130x.h ****             return;
 5807              		.loc 6 241 9 is_stmt 0 view .LVU1624
 5808 02b2 BAF1000F 		cmp	r10, #0
 5809 02b6 0ED1     		bne	.L410
ARM GAS  C:\Users\VINCIU~1\AppData\Local\Temp\ccYgfSqf.s 			page 154


 5810 02b8 029B     		ldr	r3, [sp, #8]
 5811 02ba 63B9     		cbnz	r3, .L410
 244:../../libdaisy/src/dev/oled_ssd130x.h ****         else
 5812              		.loc 6 244 28 view .LVU1625
 5813 02bc D308     		lsrs	r3, r2, #3
 244:../../libdaisy/src/dev/oled_ssd130x.h ****         else
 5814              		.loc 6 244 54 view .LVU1626
 5815 02be 02F00707 		and	r7, r2, #7
 244:../../libdaisy/src/dev/oled_ssd130x.h ****         else
 5816              		.loc 6 244 48 view .LVU1627
 5817 02c2 0126     		movs	r6, #1
 244:../../libdaisy/src/dev/oled_ssd130x.h ****         else
 5818              		.loc 6 244 42 view .LVU1628
 5819 02c4 01EBC313 		add	r3, r1, r3, lsl #7
 5820 02c8 0344     		add	r3, r3, r0
 243:../../libdaisy/src/dev/oled_ssd130x.h ****             buffer_[x + (y / 8) * width] |= (1 << (y % 8));
 5821              		.loc 6 243 9 view .LVU1629
 5822 02ca 002D     		cmp	r5, #0
 5823 02cc 7CD0     		beq	.L411
 244:../../libdaisy/src/dev/oled_ssd130x.h ****         else
 5824              		.loc 6 244 48 view .LVU1630
 5825 02ce BE40     		lsls	r6, r6, r7
 244:../../libdaisy/src/dev/oled_ssd130x.h ****         else
 5826              		.loc 6 244 42 view .LVU1631
 5827 02d0 1F7D     		ldrb	r7, [r3, #20]	@ zero_extendqisi2
 5828 02d2 3E43     		orrs	r6, r6, r7
 5829 02d4 1E75     		strb	r6, [r3, #20]
 5830              	.L410:
 5831              	.LVL383:
 244:../../libdaisy/src/dev/oled_ssd130x.h ****         else
 5832              		.loc 6 244 42 view .LVU1632
 5833              	.LBE1725:
 5834              	.LBE1724:
 5835              	.LBE1723:
 199:../../libdaisy/src/hid/disp/display.h ****         {
 5836              		.loc 5 199 26 is_stmt 1 view .LVU1633
 5837 02d6 019B     		ldr	r3, [sp, #4]
 5838 02d8 002B     		cmp	r3, #0
 5839 02da 7FF4CDAE 		bne	.L368
 5840 02de 6646     		mov	r6, ip
 5841 02e0 0B46     		mov	r3, r1
 5842              	.LVL384:
 5843              	.L412:
 5844              	.LBB1730:
 5845              	.LBI1730:
  41:../../libdaisy/src/hid/disp/oled_display.h ****     {
 5846              		.loc 1 41 10 view .LVU1634
 5847              	.LBB1731:
 5848              	.LBI1731:
 239:../../libdaisy/src/dev/oled_ssd130x.h ****     {
 5849              		.loc 6 239 10 view .LVU1635
 5850              	.LBB1732:
 241:../../libdaisy/src/dev/oled_ssd130x.h ****             return;
 5851              		.loc 6 241 9 is_stmt 0 view .LVU1636
 5852 02e2 7F2B     		cmp	r3, #127
 5853 02e4 12D8     		bhi	.L414
 241:../../libdaisy/src/dev/oled_ssd130x.h ****             return;
ARM GAS  C:\Users\VINCIU~1\AppData\Local\Temp\ccYgfSqf.s 			page 155


 5854              		.loc 6 241 9 view .LVU1637
 5855 02e6 3F2C     		cmp	r4, #63
 5856 02e8 10D8     		bhi	.L414
 244:../../libdaisy/src/dev/oled_ssd130x.h ****         else
 5857              		.loc 6 244 28 view .LVU1638
 5858 02ea E708     		lsrs	r7, r4, #3
 244:../../libdaisy/src/dev/oled_ssd130x.h ****         else
 5859              		.loc 6 244 54 view .LVU1639
 5860 02ec 04F0070A 		and	r10, r4, #7
 244:../../libdaisy/src/dev/oled_ssd130x.h ****         else
 5861              		.loc 6 244 48 view .LVU1640
 5862 02f0 4FF00109 		mov	r9, #1
 244:../../libdaisy/src/dev/oled_ssd130x.h ****         else
 5863              		.loc 6 244 42 view .LVU1641
 5864 02f4 03EBC717 		add	r7, r3, r7, lsl #7
 5865 02f8 0744     		add	r7, r7, r0
 243:../../libdaisy/src/dev/oled_ssd130x.h ****             buffer_[x + (y / 8) * width] |= (1 << (y % 8));
 5866              		.loc 6 243 9 view .LVU1642
 5867 02fa A5B3     		cbz	r5, .L415
 244:../../libdaisy/src/dev/oled_ssd130x.h ****         else
 5868              		.loc 6 244 48 view .LVU1643
 5869 02fc 09FA0AF9 		lsl	r9, r9, r10
 244:../../libdaisy/src/dev/oled_ssd130x.h ****         else
 5870              		.loc 6 244 42 view .LVU1644
 5871 0300 97F814A0 		ldrb	r10, [r7, #20]	@ zero_extendqisi2
 5872 0304 49EA0A09 		orr	r9, r9, r10
 5873 0308 87F81490 		strb	r9, [r7, #20]
 5874              	.L414:
 5875              	.LVL385:
 244:../../libdaisy/src/dev/oled_ssd130x.h ****         else
 5876              		.loc 6 244 42 view .LVU1645
 5877              	.LBE1732:
 5878              	.LBE1731:
 5879              	.LBE1730:
 203:../../libdaisy/src/hid/disp/display.h ****             {
 5880              		.loc 5 203 13 view .LVU1646
 5881 030c BCEB460F 		cmp	ip, r6, lsl #1
 202:../../libdaisy/src/hid/disp/display.h ****             if(error2 > -deltaY)
 5882              		.loc 5 202 20 view .LVU1647
 5883 0310 4FEA4607 		lsl	r7, r6, #1
 5884              	.LVL386:
 203:../../libdaisy/src/hid/disp/display.h ****             {
 5885              		.loc 5 203 13 view .LVU1648
 5886 0314 02DA     		bge	.L416
 205:../../libdaisy/src/hid/disp/display.h ****                 x1 += signX;
 5887              		.loc 5 205 23 view .LVU1649
 5888 0316 A6EB0E06 		sub	r6, r6, lr
 5889              	.LVL387:
 206:../../libdaisy/src/hid/disp/display.h ****             }
 5890              		.loc 5 206 20 view .LVU1650
 5891 031a 013B     		subs	r3, r3, #1
 5892              	.LVL388:
 5893              	.L416:
 209:../../libdaisy/src/hid/disp/display.h ****             {
 5894              		.loc 5 209 13 view .LVU1651
 5895 031c 07B1     		cbz	r7, .L417
 212:../../libdaisy/src/hid/disp/display.h ****             }
ARM GAS  C:\Users\VINCIU~1\AppData\Local\Temp\ccYgfSqf.s 			page 156


 5896              		.loc 5 212 20 view .LVU1652
 5897 031e 4444     		add	r4, r4, r8
 5898              	.LVL389:
 5899              	.L417:
 199:../../libdaisy/src/hid/disp/display.h ****         {
 5900              		.loc 5 199 26 is_stmt 1 view .LVU1653
 5901 0320 9942     		cmp	r1, r3
 5902 0322 DED1     		bne	.L412
 199:../../libdaisy/src/hid/disp/display.h ****         {
 5903              		.loc 5 199 26 is_stmt 0 view .LVU1654
 5904 0324 A242     		cmp	r2, r4
 5905 0326 DCD1     		bne	.L412
 5906              	.LBE1722:
 5907              	.LBE1721:
 5908              	.LBE1774:
 241:../../libdaisy/src/hid/disp/display.h **** 
 5909              		.loc 5 241 5 view .LVU1655
 5910 0328 07B0     		add	sp, sp, #28
 5911              		.cfi_remember_state
 5912              		.cfi_def_cfa_offset 36
 5913              		@ sp needed
 5914 032a BDE8F08F 		pop	{r4, r5, r6, r7, r8, r9, r10, fp, pc}
 5915              	.LVL390:
 5916              	.L377:
 5917              		.cfi_restore_state
 5918              	.LBB1775:
 5919              	.LBB1741:
 5920              	.LBB1658:
 5921              	.LBB1654:
  41:../../libdaisy/src/hid/disp/oled_display.h ****     {
 5922              		.loc 1 41 10 is_stmt 1 view .LVU1656
 5923              	.LBB1643:
 239:../../libdaisy/src/dev/oled_ssd130x.h ****     {
 5924              		.loc 6 239 10 view .LVU1657
 5925              	.LBB1639:
 241:../../libdaisy/src/dev/oled_ssd130x.h ****             return;
 5926              		.loc 6 241 28 is_stmt 0 view .LVU1658
 5927 032e 3F2A     		cmp	r2, #63
 5928              	.LBE1639:
 5929              	.LBE1643:
 5930              	.LBE1654:
 189:../../libdaisy/src/hid/disp/display.h ****         int_fast16_t signY  = ((y1 < y2) ? 1 : -1);
 5931              		.loc 5 189 42 view .LVU1659
 5932 0330 4FF0010A 		mov	r10, #1
 5933              	.LBB1655:
 5934              	.LBB1644:
 5935              	.LBB1640:
 241:../../libdaisy/src/dev/oled_ssd130x.h ****             return;
 5936              		.loc 6 241 28 view .LVU1660
 5937 0334 94BF     		ite	ls
 5938 0336 0026     		movls	r6, #0
 5939 0338 0126     		movhi	r6, #1
 241:../../libdaisy/src/dev/oled_ssd130x.h ****             return;
 5940              		.loc 6 241 14 view .LVU1661
 5941 033a 7F2B     		cmp	r3, #127
 241:../../libdaisy/src/dev/oled_ssd130x.h ****             return;
 5942              		.loc 6 241 28 view .LVU1662
ARM GAS  C:\Users\VINCIU~1\AppData\Local\Temp\ccYgfSqf.s 			page 157


 5943 033c 0296     		str	r6, [sp, #8]
 241:../../libdaisy/src/dev/oled_ssd130x.h ****             return;
 5944              		.loc 6 241 14 view .LVU1663
 5945 033e 94BF     		ite	ls
 5946 0340 0027     		movls	r7, #0
 5947 0342 0127     		movhi	r7, #1
 5948 0344 0097     		str	r7, [sp]
 241:../../libdaisy/src/dev/oled_ssd130x.h ****             return;
 5949              		.loc 6 241 9 view .LVU1664
 5950 0346 002E     		cmp	r6, #0
 5951 0348 7FF4C8AE 		bne	.L381
 5952 034c 002F     		cmp	r7, #0
 5953 034e 3FF4AEAE 		beq	.L419
 5954 0352 C3E6     		b	.L381
 5955              	.LVL391:
 5956              	.L406:
 241:../../libdaisy/src/dev/oled_ssd130x.h ****             return;
 5957              		.loc 6 241 9 view .LVU1665
 5958              	.LBE1640:
 5959              	.LBE1644:
 5960              	.LBE1655:
 5961              	.LBE1658:
 5962              	.LBE1741:
 5963              	.LBB1742:
 5964              	.LBB1719:
 5965              	.LBB1717:
 5966              	.LBB1716:
 5967              	.LBB1715:
 5968              	.LBB1713:
 5969              	.LBI1713:
 239:../../libdaisy/src/dev/oled_ssd130x.h ****     {
 5970              		.loc 6 239 10 is_stmt 1 view .LVU1666
 5971              	.LBB1714:
 246:../../libdaisy/src/dev/oled_ssd130x.h ****     }
 5972              		.loc 6 246 49 is_stmt 0 view .LVU1667
 5973 0354 08FA0BFB 		lsl	fp, r8, fp
 246:../../libdaisy/src/dev/oled_ssd130x.h ****     }
 5974              		.loc 6 246 42 view .LVU1668
 5975 0358 9CF81480 		ldrb	r8, [ip, #20]	@ zero_extendqisi2
 5976 035c 28EA0B08 		bic	r8, r8, fp
 5977 0360 8CF81480 		strb	r8, [ip, #20]
 5978 0364 8AE7     		b	.L405
 5979              	.LVL392:
 5980              	.L415:
 246:../../libdaisy/src/dev/oled_ssd130x.h ****     }
 5981              		.loc 6 246 42 view .LVU1669
 5982              	.LBE1714:
 5983              	.LBE1713:
 5984              	.LBE1715:
 5985              	.LBE1716:
 5986              	.LBE1717:
 5987              	.LBE1719:
 5988              	.LBE1742:
 5989              	.LBB1743:
 5990              	.LBB1739:
 5991              	.LBB1737:
 5992              	.LBB1736:
ARM GAS  C:\Users\VINCIU~1\AppData\Local\Temp\ccYgfSqf.s 			page 158


 5993              	.LBB1735:
 5994              	.LBB1733:
 5995              	.LBI1733:
 239:../../libdaisy/src/dev/oled_ssd130x.h ****     {
 5996              		.loc 6 239 10 is_stmt 1 view .LVU1670
 5997              	.LBB1734:
 246:../../libdaisy/src/dev/oled_ssd130x.h ****     }
 5998              		.loc 6 246 49 is_stmt 0 view .LVU1671
 5999 0366 09FA0AFA 		lsl	r10, r9, r10
 246:../../libdaisy/src/dev/oled_ssd130x.h ****     }
 6000              		.loc 6 246 42 view .LVU1672
 6001 036a 97F81490 		ldrb	r9, [r7, #20]	@ zero_extendqisi2
 6002 036e 29EA0A09 		bic	r9, r9, r10
 6003 0372 87F81490 		strb	r9, [r7, #20]
 6004 0376 C9E7     		b	.L414
 6005              	.LVL393:
 6006              	.L385:
 246:../../libdaisy/src/dev/oled_ssd130x.h ****     }
 6007              		.loc 6 246 42 view .LVU1673
 6008              	.LBE1734:
 6009              	.LBE1733:
 6010              	.LBE1735:
 6011              	.LBE1736:
 6012              	.LBE1737:
 6013              	.LBE1739:
 6014              	.LBE1743:
 6015              	.LBB1744:
 6016              	.LBB1659:
 6017              	.LBB1656:
 6018              	.LBB1653:
 6019              	.LBB1652:
 6020              	.LBB1650:
 6021              	.LBI1650:
 239:../../libdaisy/src/dev/oled_ssd130x.h ****     {
 6022              		.loc 6 239 10 is_stmt 1 view .LVU1674
 6023              	.LBB1651:
 246:../../libdaisy/src/dev/oled_ssd130x.h ****     }
 6024              		.loc 6 246 49 is_stmt 0 view .LVU1675
 6025 0378 09FA0BFB 		lsl	fp, r9, fp
 246:../../libdaisy/src/dev/oled_ssd130x.h ****     }
 6026              		.loc 6 246 42 view .LVU1676
 6027 037c 97F81490 		ldrb	r9, [r7, #20]	@ zero_extendqisi2
 6028 0380 29EA0B09 		bic	r9, r9, fp
 6029 0384 87F81490 		strb	r9, [r7, #20]
 6030 0388 C5E6     		b	.L384
 6031              	.LVL394:
 6032              	.L396:
 246:../../libdaisy/src/dev/oled_ssd130x.h ****     }
 6033              		.loc 6 246 42 view .LVU1677
 6034              	.LBE1651:
 6035              	.LBE1650:
 6036              	.LBE1652:
 6037              	.LBE1653:
 6038              	.LBE1656:
 6039              	.LBE1659:
 6040              	.LBE1744:
 6041              	.LBB1745:
ARM GAS  C:\Users\VINCIU~1\AppData\Local\Temp\ccYgfSqf.s 			page 159


 6042              	.LBB1695:
 6043              	.LBB1692:
 6044              	.LBB1691:
 6045              	.LBB1690:
 6046              	.LBB1688:
 6047              	.LBI1688:
 239:../../libdaisy/src/dev/oled_ssd130x.h ****     {
 6048              		.loc 6 239 10 is_stmt 1 view .LVU1678
 6049              	.LBB1689:
 246:../../libdaisy/src/dev/oled_ssd130x.h ****     }
 6050              		.loc 6 246 49 is_stmt 0 view .LVU1679
 6051 038a 0AFA0BFB 		lsl	fp, r10, fp
 246:../../libdaisy/src/dev/oled_ssd130x.h ****     }
 6052              		.loc 6 246 42 view .LVU1680
 6053 038e 9EF814A0 		ldrb	r10, [lr, #20]	@ zero_extendqisi2
 6054 0392 2AEA0B0A 		bic	r10, r10, fp
 6055 0396 8EF814A0 		strb	r10, [lr, #20]
 6056 039a 18E7     		b	.L395
 6057              	.LVL395:
 6058              	.L388:
 246:../../libdaisy/src/dev/oled_ssd130x.h ****     }
 6059              		.loc 6 246 42 view .LVU1681
 6060              	.LBE1689:
 6061              	.LBE1688:
 6062              	.LBE1690:
 6063              	.LBE1691:
 6064              	.LBE1692:
 6065              	.LBB1693:
 6066              	.LBB1679:
 6067              	.LBB1673:
 241:../../libdaisy/src/dev/oled_ssd130x.h ****             return;
 6068              		.loc 6 241 9 view .LVU1682
 6069 039c 97BB     		cbnz	r7, .L427
 6070 039e 8EBB     		cbnz	r6, .L427
 6071              	.LBE1673:
 6072              	.LBE1679:
 6073              	.LBE1693:
 190:../../libdaisy/src/hid/disp/display.h ****         int_fast16_t error  = deltaX - deltaY;
 6074              		.loc 5 190 42 view .LVU1683
 6075 03a0 0126     		movs	r6, #1
 6076 03a2 0096     		str	r6, [sp]
 6077              	.LBB1694:
 6078              	.LBB1680:
 6079              	.LBB1674:
 244:../../libdaisy/src/dev/oled_ssd130x.h ****         else
 6080              		.loc 6 244 28 view .LVU1684
 6081 03a4 E608     		lsrs	r6, r4, #3
 244:../../libdaisy/src/dev/oled_ssd130x.h ****         else
 6082              		.loc 6 244 42 view .LVU1685
 6083 03a6 03EBC616 		add	r6, r3, r6, lsl #7
 6084 03aa 0644     		add	r6, r6, r0
 243:../../libdaisy/src/dev/oled_ssd130x.h ****             buffer_[x + (y / 8) * width] |= (1 << (y % 8));
 6085              		.loc 6 243 9 view .LVU1686
 6086 03ac 002D     		cmp	r5, #0
 6087 03ae 7FF4E2AE 		bne	.L462
 6088              	.LVL396:
 6089              	.L390:
ARM GAS  C:\Users\VINCIU~1\AppData\Local\Temp\ccYgfSqf.s 			page 160


 6090              	.LBB1667:
 6091              	.LBI1667:
 239:../../libdaisy/src/dev/oled_ssd130x.h ****     {
 6092              		.loc 6 239 10 is_stmt 1 view .LVU1687
 6093              	.LBB1668:
 246:../../libdaisy/src/dev/oled_ssd130x.h ****     }
 6094              		.loc 6 246 49 is_stmt 0 view .LVU1688
 6095 03b2 0127     		movs	r7, #1
 246:../../libdaisy/src/dev/oled_ssd130x.h ****     }
 6096              		.loc 6 246 55 view .LVU1689
 6097 03b4 04F0070C 		and	ip, r4, #7
 246:../../libdaisy/src/dev/oled_ssd130x.h ****     }
 6098              		.loc 6 246 42 view .LVU1690
 6099 03b8 0395     		str	r5, [sp, #12]
 246:../../libdaisy/src/dev/oled_ssd130x.h ****     }
 6100              		.loc 6 246 49 view .LVU1691
 6101 03ba 07FA0CFC 		lsl	ip, r7, ip
 246:../../libdaisy/src/dev/oled_ssd130x.h ****     }
 6102              		.loc 6 246 42 view .LVU1692
 6103 03be 377D     		ldrb	r7, [r6, #20]	@ zero_extendqisi2
 6104 03c0 27EA0C07 		bic	r7, r7, ip
 6105 03c4 3775     		strb	r7, [r6, #20]
 6106 03c6 E3E6     		b	.L389
 6107              	.LVL397:
 6108              	.L411:
 246:../../libdaisy/src/dev/oled_ssd130x.h ****     }
 6109              		.loc 6 246 42 view .LVU1693
 6110              	.LBE1668:
 6111              	.LBE1667:
 6112              	.LBE1674:
 6113              	.LBE1680:
 6114              	.LBE1694:
 6115              	.LBE1695:
 6116              	.LBE1745:
 6117              	.LBB1746:
 6118              	.LBB1740:
 6119              	.LBB1738:
 6120              	.LBB1729:
 6121              	.LBB1728:
 6122              	.LBB1726:
 6123              	.LBI1726:
 239:../../libdaisy/src/dev/oled_ssd130x.h ****     {
 6124              		.loc 6 239 10 is_stmt 1 view .LVU1694
 6125              	.LBB1727:
 246:../../libdaisy/src/dev/oled_ssd130x.h ****     }
 6126              		.loc 6 246 49 is_stmt 0 view .LVU1695
 6127 03c8 06FA07F7 		lsl	r7, r6, r7
 246:../../libdaisy/src/dev/oled_ssd130x.h ****     }
 6128              		.loc 6 246 42 view .LVU1696
 6129 03cc 1E7D     		ldrb	r6, [r3, #20]	@ zero_extendqisi2
 6130 03ce 26EA0706 		bic	r6, r6, r7
 6131 03d2 1E75     		strb	r6, [r3, #20]
 6132 03d4 7FE7     		b	.L410
 6133              	.LVL398:
 6134              	.L401:
 246:../../libdaisy/src/dev/oled_ssd130x.h ****     }
 6135              		.loc 6 246 42 view .LVU1697
ARM GAS  C:\Users\VINCIU~1\AppData\Local\Temp\ccYgfSqf.s 			page 161


 6136              	.LBE1727:
 6137              	.LBE1726:
 6138              	.LBE1728:
 6139              	.LBE1729:
 6140              	.LBE1738:
 6141              	.LBE1740:
 6142              	.LBE1746:
 6143              	.LBB1747:
 6144              	.LBB1720:
 6145              	.LBB1718:
 6146              	.LBB1708:
 6147              	.LBB1706:
 6148              	.LBB1703:
 6149              	.LBI1703:
 239:../../libdaisy/src/dev/oled_ssd130x.h ****     {
 6150              		.loc 6 239 10 is_stmt 1 view .LVU1698
 6151              	.LBB1704:
 246:../../libdaisy/src/dev/oled_ssd130x.h ****     }
 6152              		.loc 6 246 49 is_stmt 0 view .LVU1699
 6153 03d6 0127     		movs	r7, #1
 246:../../libdaisy/src/dev/oled_ssd130x.h ****     }
 6154              		.loc 6 246 55 view .LVU1700
 6155 03d8 04F0070C 		and	ip, r4, #7
 246:../../libdaisy/src/dev/oled_ssd130x.h ****     }
 6156              		.loc 6 246 49 view .LVU1701
 6157 03dc 07FA0CFC 		lsl	ip, r7, ip
 246:../../libdaisy/src/dev/oled_ssd130x.h ****     }
 6158              		.loc 6 246 42 view .LVU1702
 6159 03e0 377D     		ldrb	r7, [r6, #20]	@ zero_extendqisi2
 6160 03e2 27EA0C07 		bic	r7, r7, ip
 6161 03e6 3775     		strb	r7, [r6, #20]
 6162 03e8 2DE7     		b	.L400
 6163              	.LVL399:
 6164              	.L379:
 246:../../libdaisy/src/dev/oled_ssd130x.h ****     }
 6165              		.loc 6 246 42 view .LVU1703
 6166              	.LBE1704:
 6167              	.LBE1703:
 6168              	.LBE1706:
 6169              	.LBE1708:
 6170              	.LBE1718:
 6171              	.LBE1720:
 6172              	.LBE1747:
 6173              	.LBB1748:
 6174              	.LBB1660:
 6175              	.LBB1657:
 6176              	.LBB1645:
 6177              	.LBB1641:
 6178              	.LBB1636:
 6179              	.LBI1636:
 239:../../libdaisy/src/dev/oled_ssd130x.h ****     {
 6180              		.loc 6 239 10 is_stmt 1 view .LVU1704
 6181              	.LBB1637:
 246:../../libdaisy/src/dev/oled_ssd130x.h ****     }
 6182              		.loc 6 246 49 is_stmt 0 view .LVU1705
 6183 03ea 07FA0CFC 		lsl	ip, r7, ip
 246:../../libdaisy/src/dev/oled_ssd130x.h ****     }
ARM GAS  C:\Users\VINCIU~1\AppData\Local\Temp\ccYgfSqf.s 			page 162


 6184              		.loc 6 246 42 view .LVU1706
 6185 03ee 377D     		ldrb	r7, [r6, #20]	@ zero_extendqisi2
 6186 03f0 0295     		str	r5, [sp, #8]
 6187 03f2 27EA0C07 		bic	r7, r7, ip
 6188 03f6 0095     		str	r5, [sp]
 6189 03f8 3775     		strb	r7, [r6, #20]
 6190 03fa 6CE6     		b	.L378
 6191              	.LVL400:
 6192              	.L423:
 246:../../libdaisy/src/dev/oled_ssd130x.h ****     }
 6193              		.loc 6 246 42 view .LVU1707
 6194              	.LBE1637:
 6195              	.LBE1636:
 6196              	.LBE1641:
 6197              	.LBE1645:
 6198              	.LBE1657:
 6199              	.LBE1660:
 6200              	.LBE1748:
 6201              	.LBB1749:
 6202              	.LBB1696:
 190:../../libdaisy/src/hid/disp/display.h ****         int_fast16_t error  = deltaX - deltaY;
 6203              		.loc 5 190 42 view .LVU1708
 6204 03fc 4FF0FF36 		mov	r6, #-1
 6205 0400 0096     		str	r6, [sp]
 6206 0402 C5E6     		b	.L389
 6207              	.LVL401:
 6208              	.L427:
 190:../../libdaisy/src/hid/disp/display.h ****         int_fast16_t error  = deltaX - deltaY;
 6209              		.loc 5 190 42 view .LVU1709
 6210 0404 0126     		movs	r6, #1
 6211 0406 0096     		str	r6, [sp]
 6212 0408 C5E6     		b	.L392
 6213              	.LVL402:
 6214              	.L460:
 190:../../libdaisy/src/hid/disp/display.h ****         int_fast16_t error  = deltaX - deltaY;
 6215              		.loc 5 190 42 view .LVU1710
 6216              	.LBE1696:
 6217              	.LBE1749:
 6218              	.LBB1750:
 6219              	.LBB1661:
 199:../../libdaisy/src/hid/disp/display.h ****         {
 6220              		.loc 5 199 19 view .LVU1711
 6221 040a 0126     		movs	r6, #1
 6222 040c 0496     		str	r6, [sp, #16]
 6223 040e 90E6     		b	.L380
 6224              	.LVL403:
 6225              	.L461:
 199:../../libdaisy/src/hid/disp/display.h ****         {
 6226              		.loc 5 199 19 view .LVU1712
 6227              	.LBE1661:
 6228              	.LBE1750:
 6229              	.LBB1751:
 6230              	.LBB1697:
 199:../../libdaisy/src/hid/disp/display.h ****         {
 6231              		.loc 5 199 33 view .LVU1713
 6232 0410 0126     		movs	r6, #1
 6233 0412 0196     		str	r6, [sp, #4]
ARM GAS  C:\Users\VINCIU~1\AppData\Local\Temp\ccYgfSqf.s 			page 163


 6234 0414 EDE6     		b	.L391
 6235              	.LBE1697:
 6236              	.LBE1751:
 6237              	.LBE1775:
 6238              		.cfi_endproc
 6239              	.LFE4341:
 6241 0416 00BF     		.section	.rodata._ZN5Menus5Menu1E23OledDisplayExtravaganzaPN7daisysp10OscillatorE.str1.4,"aMS",%pr
 6242              		.align	2
 6243              	.LC7:
 6244 0000 00       		.ascii	"\000"
 6245 0001 000000   		.align	2
 6246              	.LC8:
 6247 0004 4F736300 		.ascii	"Osc\000"
 6248              		.align	2
 6249              	.LC9:
 6250 0008 53656D69 		.ascii	"Semi_%dst\000"
 6250      5F256473 
 6250      7400
 6251 0012 0000     		.align	2
 6252              	.LC10:
 6253 0014 46696E65 		.ascii	"Fine_%d%%\000"
 6253      5F256425 
 6253      2500
 6254              		.section	.text._ZN5Menus5Menu1E23OledDisplayExtravaganzaPN7daisysp10OscillatorE,"ax",%progbits
 6255              		.align	1
 6256              		.p2align 2,,3
 6257              		.global	_ZN5Menus5Menu1E23OledDisplayExtravaganzaPN7daisysp10OscillatorE
 6258              		.syntax unified
 6259              		.thumb
 6260              		.thumb_func
 6261              		.fpu fpv5-d16
 6263              	_ZN5Menus5Menu1E23OledDisplayExtravaganzaPN7daisysp10OscillatorE:
 6264              	.LVL404:
 6265              	.LFB4039:
  95:Menus.cpp     **** {
 6266              		.loc 2 95 1 is_stmt 1 view -0
 6267              		.cfi_startproc
 6268              		@ args = 0, pretend = 0, frame = 8
 6269              		@ frame_needed = 0, uses_anonymous_args = 0
  95:Menus.cpp     **** {
 6270              		.loc 2 95 1 is_stmt 0 view .LVU1715
 6271 0000 2DE9F043 		push	{r4, r5, r6, r7, r8, r9, lr}
 6272              		.cfi_def_cfa_offset 28
 6273              		.cfi_offset 4, -28
 6274              		.cfi_offset 5, -24
 6275              		.cfi_offset 6, -20
 6276              		.cfi_offset 7, -16
 6277              		.cfi_offset 8, -12
 6278              		.cfi_offset 9, -8
 6279              		.cfi_offset 14, -4
  96:Menus.cpp     ****     screen.Fill(!on);
 6280              		.loc 2 96 18 view .LVU1716
 6281 0004 90F8BC81 		ldrb	r8, [r0, #444]	@ zero_extendqisi2
 6282 0008 01F11406 		add	r6, r1, #20
  95:Menus.cpp     **** {
 6283              		.loc 2 95 1 view .LVU1717
 6284 000c 0C46     		mov	r4, r1
ARM GAS  C:\Users\VINCIU~1\AppData\Local\Temp\ccYgfSqf.s 			page 164


 6285 000e 0546     		mov	r5, r0
  96:Menus.cpp     ****     screen.Fill(!on);
 6286              		.loc 2 96 5 is_stmt 1 view .LVU1718
 6287              	.LVL405:
 6288              	.LBB1997:
 6289              	.LBI1997:
  33:../../libdaisy/src/hid/disp/oled_display.h **** 
 6290              		.loc 1 33 10 view .LVU1719
 6291              	.LBB1998:
 6292              	.LBI1998:
 249:../../libdaisy/src/dev/oled_ssd130x.h ****     {
 6293              		.loc 6 249 10 view .LVU1720
 6294              	.LBB1999:
 251:../../libdaisy/src/dev/oled_ssd130x.h ****         {
 6295              		.loc 6 251 29 view .LVU1721
 253:../../libdaisy/src/dev/oled_ssd130x.h ****         }
 6296              		.loc 6 253 24 is_stmt 0 view .LVU1722
 6297 0010 88F00101 		eor	r1, r8, #1
 6298              	.LVL406:
 253:../../libdaisy/src/dev/oled_ssd130x.h ****         }
 6299              		.loc 6 253 24 view .LVU1723
 6300              	.LBE1999:
 6301              	.LBE1998:
 6302              	.LBE1997:
  95:Menus.cpp     **** {
 6303              		.loc 2 95 1 view .LVU1724
 6304 0014 1746     		mov	r7, r2
 6305              	.LBB2006:
 6306              	.LBB2003:
 6307              	.LBB2000:
 253:../../libdaisy/src/dev/oled_ssd130x.h ****         }
 6308              		.loc 6 253 24 view .LVU1725
 6309 0016 3046     		mov	r0, r6
 6310              	.LVL407:
 253:../../libdaisy/src/dev/oled_ssd130x.h ****         }
 6311              		.loc 6 253 24 view .LVU1726
 6312 0018 4FF48062 		mov	r2, #1024
 6313              	.LVL408:
 253:../../libdaisy/src/dev/oled_ssd130x.h ****         }
 6314              		.loc 6 253 24 view .LVU1727
 6315 001c 4942     		rsbs	r1, r1, #0
 6316              	.LBE2000:
 6317              	.LBE2003:
 6318              	.LBE2006:
  95:Menus.cpp     **** {
 6319              		.loc 2 95 1 view .LVU1728
 6320 001e 2DED028B 		vpush.64	{d8}
 6321              		.cfi_def_cfa_offset 36
 6322              		.cfi_offset 80, -36
 6323              		.cfi_offset 81, -32
 6324              	.LBB2007:
 6325              	.LBB2004:
 6326              	.LBB2001:
 253:../../libdaisy/src/dev/oled_ssd130x.h ****         }
 6327              		.loc 6 253 24 view .LVU1729
 6328 0022 C9B2     		uxtb	r1, r1
 6329              	.LBE2001:
ARM GAS  C:\Users\VINCIU~1\AppData\Local\Temp\ccYgfSqf.s 			page 165


 6330              	.LBE2004:
 6331              	.LBE2007:
  95:Menus.cpp     **** {
 6332              		.loc 2 95 1 view .LVU1730
 6333 0024 87B0     		sub	sp, sp, #28
 6334              		.cfi_def_cfa_offset 64
 6335              	.LBB2008:
 6336              	.LBB2005:
 6337              	.LBB2002:
 253:../../libdaisy/src/dev/oled_ssd130x.h ****         }
 6338              		.loc 6 253 24 view .LVU1731
 6339 0026 FFF7FEFF 		bl	memset
 6340              	.LVL409:
 253:../../libdaisy/src/dev/oled_ssd130x.h ****         }
 6341              		.loc 6 253 24 view .LVU1732
 6342              	.LBE2002:
 6343              	.LBE2005:
 6344              	.LBE2008:
  97:Menus.cpp     ****     if(this->buttonLeft.RisingEdge())
 6345              		.loc 2 97 5 is_stmt 1 view .LVU1733
 6346              	.LBB2009:
 6347              	.LBI2009:
 6348              		.loc 4 69 17 view .LVU1734
 6349              	.LBB2010:
 6350              		.loc 4 69 38 view .LVU1735
 6351              		.loc 4 69 38 is_stmt 0 view .LVU1736
 6352              	.LBE2010:
 6353              	.LBE2009:
  97:Menus.cpp     ****     if(this->buttonLeft.RisingEdge())
 6354              		.loc 2 97 5 view .LVU1737
 6355 002a 95F85130 		ldrb	r3, [r5, #81]	@ zero_extendqisi2
 6356 002e 7F2B     		cmp	r3, #127
 6357 0030 00F0BC82 		beq	.L579
 106:Menus.cpp     ****     if(this->buttonRight.RisingEdge())
 6358              		.loc 2 106 5 is_stmt 1 view .LVU1738
 6359              	.LVL410:
 6360              	.LBB2011:
 6361              	.LBI2011:
 6362              		.loc 4 69 17 view .LVU1739
 6363              	.LBB2012:
 6364              		.loc 4 69 38 view .LVU1740
 6365              		.loc 4 69 38 is_stmt 0 view .LVU1741
 6366              	.LBE2012:
 6367              	.LBE2011:
 106:Menus.cpp     ****     if(this->buttonRight.RisingEdge())
 6368              		.loc 2 106 5 view .LVU1742
 6369 0034 95F86130 		ldrb	r3, [r5, #97]	@ zero_extendqisi2
 6370 0038 7F2B     		cmp	r3, #127
 6371 003a 00F0C082 		beq	.L580
 6372              	.L467:
 116:Menus.cpp     ****     screen.drawHorizontalToggle(46, 13, 8, on, this->OscSelector, "");
 6373              		.loc 2 116 5 is_stmt 1 view .LVU1743
 116:Menus.cpp     ****     screen.drawHorizontalToggle(46, 13, 8, on, this->OscSelector, "");
 6374              		.loc 2 116 32 is_stmt 0 view .LVU1744
 6375 003e 4146     		mov	r1, r8
 6376 0040 B2EE001A 		vmov.f32	s2, #8.0e+0
 6377 0044 F2EE0A0A 		vmov.f32	s1, #1.3e+1
ARM GAS  C:\Users\VINCIU~1\AppData\Local\Temp\ccYgfSqf.s 			page 166


 6378 0048 9FEDC30A 		vldr.32	s0, .L604
 6379 004c C34B     		ldr	r3, .L604+4
 6380 004e 2046     		mov	r0, r4
 6381 0050 95F87420 		ldrb	r2, [r5, #116]	@ zero_extendqisi2
 6382 0054 FFF7FEFF 		bl	_ZN23OledDisplayExtravaganza20drawHorizontalToggleEfffbbPKc
 6383              	.LVL411:
 118:Menus.cpp     ****     if(this->OscSelector == true)
 6384              		.loc 2 118 5 is_stmt 1 view .LVU1745
 6385 0058 95F87480 		ldrb	r8, [r5, #116]	@ zero_extendqisi2
 6386 005c B8F1000F 		cmp	r8, #0
 6387 0060 00F02681 		beq	.L469
 120:Menus.cpp     ****         screen.drawSlider(70, 7, 50, 3, on, ((this->drawSliderSemi)) / 40);
 6388              		.loc 2 120 9 view .LVU1746
 120:Menus.cpp     ****         screen.drawSlider(70, 7, 50, 3, on, ((this->drawSliderSemi)) / 40);
 6389              		.loc 2 120 26 is_stmt 0 view .LVU1747
 6390 0064 95F8BC31 		ldrb	r3, [r5, #444]	@ zero_extendqisi2
 6391 0068 F0EE081A 		vmov.f32	s3, #3.0e+0
 6392 006c D5ED1E2A 		vldr.32	s5, [r5, #120]
 6393 0070 F1EE0C0A 		vmov.f32	s1, #7.0e+0
 6394 0074 02EE103A 		vmov	s4, r3	@ int
 6395 0078 9FEDC68A 		vldr.32	s16, .L604+60
 6396 007c 2046     		mov	r0, r4
 6397 007e 9FEDB81A 		vldr.32	s2, .L604+8
 6398 0082 C2EE882A 		vdiv.f32	s5, s5, s16
 6399 0086 9FEDB70A 		vldr.32	s0, .L604+12
 125:Menus.cpp     ****         screen.WriteString(this->buff, Font_6x8, true);
 6400              		.loc 2 125 27 view .LVU1748
 6401 008a DFF8FC82 		ldr	r8, .L604+48
 6402 008e 4FF00109 		mov	r9, #1
 120:Menus.cpp     ****         screen.drawSlider(70, 7, 50, 3, on, ((this->drawSliderSemi)) / 40);
 6403              		.loc 2 120 26 view .LVU1749
 6404 0092 B8EE422A 		vcvt.f32.u32	s4, s4
 6405 0096 FFF7FEFF 		bl	_ZN23OledDisplayExtravaganza10drawSliderEffffff
 6406              	.LVL412:
 121:Menus.cpp     ****         screen.drawSlider(70, 40, 50, 3, on, drawSliderFine);
 6407              		.loc 2 121 9 is_stmt 1 view .LVU1750
 121:Menus.cpp     ****         screen.drawSlider(70, 40, 50, 3, on, drawSliderFine);
 6408              		.loc 2 121 26 is_stmt 0 view .LVU1751
 6409 009a 95F8BC31 		ldrb	r3, [r5, #444]	@ zero_extendqisi2
 6410 009e F0EE081A 		vmov.f32	s3, #3.0e+0
 6411 00a2 D5ED1F2A 		vldr.32	s5, [r5, #124]
 6412 00a6 02EE103A 		vmov	s4, r3	@ int
 6413 00aa F0EE480A 		vmov.f32	s1, s16
 6414 00ae 2046     		mov	r0, r4
 6415 00b0 9FEDAB1A 		vldr.32	s2, .L604+8
 6416 00b4 B8EE422A 		vcvt.f32.u32	s4, s4
 6417 00b8 9FEDAA0A 		vldr.32	s0, .L604+12
 6418 00bc FFF7FEFF 		bl	_ZN23OledDisplayExtravaganza10drawSliderEffffff
 6419              	.LVL413:
 122:Menus.cpp     ****         screen.drawVerticalToggle(13, 51, 8, on, this->toggleOsc, "");
 6420              		.loc 2 122 9 is_stmt 1 view .LVU1752
 122:Menus.cpp     ****         screen.drawVerticalToggle(13, 51, 8, on, this->toggleOsc, "");
 6421              		.loc 2 122 34 is_stmt 0 view .LVU1753
 6422 00c0 B2EE001A 		vmov.f32	s2, #8.0e+0
 6423 00c4 B2EE0A0A 		vmov.f32	s0, #1.3e+1
 6424 00c8 DFEDA70A 		vldr.32	s1, .L604+16
 6425 00cc 2046     		mov	r0, r4
ARM GAS  C:\Users\VINCIU~1\AppData\Local\Temp\ccYgfSqf.s 			page 167


 6426 00ce A34B     		ldr	r3, .L604+4
 6427 00d0 95F89820 		ldrb	r2, [r5, #152]	@ zero_extendqisi2
 6428 00d4 95F8BC11 		ldrb	r1, [r5, #444]	@ zero_extendqisi2
 6429 00d8 FFF7FEFF 		bl	_ZN23OledDisplayExtravaganza18drawVerticalToggleEfffbbPKc
 6430              	.LVL414:
 123:Menus.cpp     ****         screen.WaveIcons(35, 42, 55, this->selectedWave, on);
 6431              		.loc 2 123 9 is_stmt 1 view .LVU1754
 123:Menus.cpp     ****         screen.WaveIcons(35, 42, 55, this->selectedWave, on);
 6432              		.loc 2 123 25 is_stmt 0 view .LVU1755
 6433 00dc 95F8BC31 		ldrb	r3, [r5, #444]	@ zero_extendqisi2
 6434 00e0 2046     		mov	r0, r4
 6435 00e2 2A22     		movs	r2, #42
 6436 00e4 0193     		str	r3, [sp, #4]
 6437 00e6 2321     		movs	r1, #35
 6438 00e8 D5F89C30 		ldr	r3, [r5, #156]
 6439 00ec 0093     		str	r3, [sp]
 6440 00ee 3723     		movs	r3, #55
 6441 00f0 FFF7FEFF 		bl	_ZN23OledDisplayExtravaganza9WaveIconsEiiiib
 6442              	.LVL415:
 124:Menus.cpp     ****         screen.SetCursor(70, 17);
 6443              		.loc 2 124 9 is_stmt 1 view .LVU1756
 6444              	.LBB2015:
 6445              	.LBI2015:
 131:../../libdaisy/src/hid/disp/display.h ****     {
 6446              		.loc 5 131 10 view .LVU1757
 6447              	.LBB2016:
 133:../../libdaisy/src/hid/disp/display.h ****         currentY_ = (y >= Height()) ? Height() - 1 : y;
 6448              		.loc 5 133 9 view .LVU1758
 134:../../libdaisy/src/hid/disp/display.h ****     }
 6449              		.loc 5 134 9 view .LVU1759
 133:../../libdaisy/src/hid/disp/display.h ****         currentY_ = (y >= Height()) ? Height() - 1 : y;
 6450              		.loc 5 133 19 is_stmt 0 view .LVU1760
 6451 00f4 9D4B     		ldr	r3, .L604+20
 6452              	.LBE2016:
 6453              	.LBE2015:
 125:Menus.cpp     ****         screen.WriteString(this->buff, Font_6x8, true);
 6454              		.loc 2 125 27 view .LVU1761
 6455 00f6 05F1A401 		add	r1, r5, #164
 6456 00fa 2046     		mov	r0, r4
 6457              	.LBB2018:
 6458              	.LBB2017:
 133:../../libdaisy/src/hid/disp/display.h ****         currentY_ = (y >= Height()) ? Height() - 1 : y;
 6459              		.loc 5 133 19 view .LVU1762
 6460 00fc 6360     		str	r3, [r4, #4]
 6461              	.LVL416:
 133:../../libdaisy/src/hid/disp/display.h ****         currentY_ = (y >= Height()) ? Height() - 1 : y;
 6462              		.loc 5 133 19 view .LVU1763
 6463              	.LBE2017:
 6464              	.LBE2018:
 125:Menus.cpp     ****         screen.WriteString(this->buff, Font_6x8, true);
 6465              		.loc 2 125 9 is_stmt 1 view .LVU1764
 125:Menus.cpp     ****         screen.WriteString(this->buff, Font_6x8, true);
 6466              		.loc 2 125 27 is_stmt 0 view .LVU1765
 6467 00fe CDF80090 		str	r9, [sp]
 6468 0102 98E80C00 		ldm	r8, {r2, r3}
 6469 0106 FFF7FEFF 		bl	_ZN5daisy25OneBitGraphicsDisplayImplINS_11OledDisplayINS_13SSD130xDriverILj128ELj64ENS_24SSD130
 6470              	.LVL417:
ARM GAS  C:\Users\VINCIU~1\AppData\Local\Temp\ccYgfSqf.s 			page 168


 126:Menus.cpp     ****         screen.SetCursor(70, 50);
 6471              		.loc 2 126 9 is_stmt 1 view .LVU1766
 6472              	.LBB2019:
 6473              	.LBI2019:
 131:../../libdaisy/src/hid/disp/display.h ****     {
 6474              		.loc 5 131 10 view .LVU1767
 6475              	.LBB2020:
 133:../../libdaisy/src/hid/disp/display.h ****         currentY_ = (y >= Height()) ? Height() - 1 : y;
 6476              		.loc 5 133 9 view .LVU1768
 134:../../libdaisy/src/hid/disp/display.h ****     }
 6477              		.loc 5 134 9 view .LVU1769
 133:../../libdaisy/src/hid/disp/display.h ****         currentY_ = (y >= Height()) ? Height() - 1 : y;
 6478              		.loc 5 133 19 is_stmt 0 view .LVU1770
 6479 010a 994B     		ldr	r3, .L604+24
 6480              	.LBE2020:
 6481              	.LBE2019:
 127:Menus.cpp     ****         screen.WriteString(this->buffFine, Font_6x8, true);
 6482              		.loc 2 127 27 view .LVU1771
 6483 010c CDF80090 		str	r9, [sp]
 6484 0110 05F1D401 		add	r1, r5, #212
 6485              	.LBB2022:
 6486              	.LBB2021:
 133:../../libdaisy/src/hid/disp/display.h ****         currentY_ = (y >= Height()) ? Height() - 1 : y;
 6487              		.loc 5 133 19 view .LVU1772
 6488 0114 6360     		str	r3, [r4, #4]
 6489              	.LVL418:
 133:../../libdaisy/src/hid/disp/display.h ****         currentY_ = (y >= Height()) ? Height() - 1 : y;
 6490              		.loc 5 133 19 view .LVU1773
 6491              	.LBE2021:
 6492              	.LBE2022:
 127:Menus.cpp     ****         screen.WriteString(this->buffFine, Font_6x8, true);
 6493              		.loc 2 127 9 is_stmt 1 view .LVU1774
 127:Menus.cpp     ****         screen.WriteString(this->buffFine, Font_6x8, true);
 6494              		.loc 2 127 27 is_stmt 0 view .LVU1775
 6495 0116 2046     		mov	r0, r4
 6496 0118 98E80C00 		ldm	r8, {r2, r3}
 6497 011c FFF7FEFF 		bl	_ZN5daisy25OneBitGraphicsDisplayImplINS_11OledDisplayINS_13SSD130xDriverILj128ELj64ENS_24SSD130
 6498              	.LVL419:
 6499              	.L470:
 142:Menus.cpp     ****     screen.SetCursor(4, 8);
 6500              		.loc 2 142 5 is_stmt 1 view .LVU1776
 6501              	.LBB2023:
 6502              	.LBI2023:
 131:../../libdaisy/src/hid/disp/display.h ****     {
 6503              		.loc 5 131 10 view .LVU1777
 6504              	.LBB2024:
 133:../../libdaisy/src/hid/disp/display.h ****         currentY_ = (y >= Height()) ? Height() - 1 : y;
 6505              		.loc 5 133 9 view .LVU1778
 134:../../libdaisy/src/hid/disp/display.h ****     }
 6506              		.loc 5 134 9 view .LVU1779
 133:../../libdaisy/src/hid/disp/display.h ****         currentY_ = (y >= Height()) ? Height() - 1 : y;
 6507              		.loc 5 133 19 is_stmt 0 view .LVU1780
 6508 0120 944B     		ldr	r3, .L604+28
 6509              	.LBE2024:
 6510              	.LBE2023:
 143:Menus.cpp     ****     screen.WriteString("Osc", Font_7x10, on);
 6511              		.loc 2 143 23 view .LVU1781
ARM GAS  C:\Users\VINCIU~1\AppData\Local\Temp\ccYgfSqf.s 			page 169


 6512 0122 2046     		mov	r0, r4
 6513 0124 95F8BC21 		ldrb	r2, [r5, #444]	@ zero_extendqisi2
 6514              	.LBB2026:
 6515              	.LBB2025:
 133:../../libdaisy/src/hid/disp/display.h ****         currentY_ = (y >= Height()) ? Height() - 1 : y;
 6516              		.loc 5 133 19 view .LVU1782
 6517 0128 6360     		str	r3, [r4, #4]
 6518              	.LVL420:
 133:../../libdaisy/src/hid/disp/display.h ****         currentY_ = (y >= Height()) ? Height() - 1 : y;
 6519              		.loc 5 133 19 view .LVU1783
 6520              	.LBE2025:
 6521              	.LBE2026:
 143:Menus.cpp     ****     screen.WriteString("Osc", Font_7x10, on);
 6522              		.loc 2 143 5 is_stmt 1 view .LVU1784
 143:Menus.cpp     ****     screen.WriteString("Osc", Font_7x10, on);
 6523              		.loc 2 143 23 is_stmt 0 view .LVU1785
 6524 012a 934B     		ldr	r3, .L604+32
 6525 012c 0092     		str	r2, [sp]
 6526 012e 9349     		ldr	r1, .L604+36
 6527 0130 0CCB     		ldm	r3, {r2, r3}
 6528 0132 FFF7FEFF 		bl	_ZN5daisy25OneBitGraphicsDisplayImplINS_11OledDisplayINS_13SSD130xDriverILj128ELj64ENS_24SSD130
 6529              	.LVL421:
 146:Menus.cpp     ****     for(int i = 0; i < screen.Width(); i++)
 6530              		.loc 2 146 5 is_stmt 1 view .LVU1786
 6531              	.LBB2027:
 146:Menus.cpp     ****     for(int i = 0; i < screen.Width(); i++)
 6532              		.loc 2 146 22 view .LVU1787
 148:Menus.cpp     ****         screen.DrawPixel(i * 3, (screen.Height() / 2) - 3, on);
 6533              		.loc 2 148 25 is_stmt 0 view .LVU1788
 6534 0136 95F8BC01 		ldrb	r0, [r5, #444]	@ zero_extendqisi2
 6535 013a A446     		mov	ip, r4
 6536 013c 0023     		movs	r3, #0
 6537              	.LVL422:
 6538              	.L475:
 148:Menus.cpp     ****         screen.DrawPixel(i * 3, (screen.Height() / 2) - 3, on);
 6539              		.loc 2 148 9 is_stmt 1 discriminator 2 view .LVU1789
 6540              	.LBB2028:
 6541              	.LBI2028:
  41:../../libdaisy/src/hid/disp/oled_display.h ****     {
 6542              		.loc 1 41 10 discriminator 2 view .LVU1790
 6543              	.LBB2029:
 6544              	.LBI2029:
 239:../../libdaisy/src/dev/oled_ssd130x.h ****     {
 6545              		.loc 6 239 10 discriminator 2 view .LVU1791
 6546              	.LBB2030:
 241:../../libdaisy/src/dev/oled_ssd130x.h ****             return;
 6547              		.loc 6 241 9 is_stmt 0 discriminator 2 view .LVU1792
 6548 013e 7F2B     		cmp	r3, #127
 6549 0140 0DD8     		bhi	.L471
 6550              	.LVL423:
 6551              	.L581:
 6552              	.LBB2031:
 6553              	.LBI2031:
 239:../../libdaisy/src/dev/oled_ssd130x.h ****     {
 6554              		.loc 6 239 10 is_stmt 1 view .LVU1793
 239:../../libdaisy/src/dev/oled_ssd130x.h ****     {
 6555              		.loc 6 239 10 is_stmt 0 view .LVU1794
ARM GAS  C:\Users\VINCIU~1\AppData\Local\Temp\ccYgfSqf.s 			page 170


 6556              	.LBE2031:
 244:../../libdaisy/src/dev/oled_ssd130x.h ****         else
 6557              		.loc 6 244 42 view .LVU1795
 6558 0142 9CF89421 		ldrb	r2, [ip, #404]	@ zero_extendqisi2
 243:../../libdaisy/src/dev/oled_ssd130x.h ****             buffer_[x + (y / 8) * width] |= (1 << (y % 8));
 6559              		.loc 6 243 9 view .LVU1796
 6560 0146 0028     		cmp	r0, #0
 6561 0148 00F09B80 		beq	.L472
 244:../../libdaisy/src/dev/oled_ssd130x.h ****         else
 6562              		.loc 6 244 42 view .LVU1797
 6563 014c 42F02002 		orr	r2, r2, #32
 6564 0150 8CF89421 		strb	r2, [ip, #404]
 6565              	.L473:
 6566              	.LVL424:
 244:../../libdaisy/src/dev/oled_ssd130x.h ****         else
 6567              		.loc 6 244 42 view .LVU1798
 6568              	.LBE2030:
 6569              	.LBE2029:
 6570              	.LBE2028:
 146:Menus.cpp     ****     for(int i = 0; i < screen.Width(); i++)
 6571              		.loc 2 146 5 is_stmt 1 view .LVU1799
 146:Menus.cpp     ****     for(int i = 0; i < screen.Width(); i++)
 6572              		.loc 2 146 22 view .LVU1800
 6573 0154 0333     		adds	r3, r3, #3
 6574 0156 0CF1030C 		add	ip, ip, #3
 148:Menus.cpp     ****         screen.DrawPixel(i * 3, (screen.Height() / 2) - 3, on);
 6575              		.loc 2 148 9 view .LVU1801
 6576              	.LVL425:
 6577              	.LBB2038:
  41:../../libdaisy/src/hid/disp/oled_display.h ****     {
 6578              		.loc 1 41 10 view .LVU1802
 6579              	.LBB2036:
 239:../../libdaisy/src/dev/oled_ssd130x.h ****     {
 6580              		.loc 6 239 10 view .LVU1803
 6581              	.LBB2034:
 241:../../libdaisy/src/dev/oled_ssd130x.h ****             return;
 6582              		.loc 6 241 9 is_stmt 0 view .LVU1804
 6583 015a 7F2B     		cmp	r3, #127
 6584 015c F1D9     		bls	.L581
 6585              	.LVL426:
 6586              	.L471:
 241:../../libdaisy/src/dev/oled_ssd130x.h ****             return;
 6587              		.loc 6 241 9 view .LVU1805
 6588              	.LBE2034:
 6589              	.LBE2036:
 6590              	.LBE2038:
 146:Menus.cpp     ****     for(int i = 0; i < screen.Width(); i++)
 6591              		.loc 2 146 5 is_stmt 1 view .LVU1806
 146:Menus.cpp     ****     for(int i = 0; i < screen.Width(); i++)
 6592              		.loc 2 146 22 view .LVU1807
 6593 015e 0333     		adds	r3, r3, #3
 6594 0160 0CF1030C 		add	ip, ip, #3
 6595 0164 B3F5C07F 		cmp	r3, #384
 6596 0168 E9D1     		bne	.L475
 6597 016a 0023     		movs	r3, #0
 6598              	.L474:
 6599              	.LBE2027:
ARM GAS  C:\Users\VINCIU~1\AppData\Local\Temp\ccYgfSqf.s 			page 171


 6600              	.LBB2040:
 152:Menus.cpp     ****         screen.DrawPixel(60, i * 2, on);
 6601              		.loc 2 152 9 discriminator 2 view .LVU1808
 6602              	.LVL427:
 6603              	.LBB2041:
 6604              	.LBI2041:
  41:../../libdaisy/src/hid/disp/oled_display.h ****     {
 6605              		.loc 1 41 10 discriminator 2 view .LVU1809
 6606              	.LBB2042:
 6607              	.LBI2042:
 239:../../libdaisy/src/dev/oled_ssd130x.h ****     {
 6608              		.loc 6 239 10 discriminator 2 view .LVU1810
 6609              	.LBB2043:
 241:../../libdaisy/src/dev/oled_ssd130x.h ****             return;
 6610              		.loc 6 241 9 is_stmt 0 discriminator 2 view .LVU1811
 6611 016c 3F2B     		cmp	r3, #63
 6612 016e 14D8     		bhi	.L476
 6613              	.LVL428:
 6614              	.L582:
 6615              	.LBB2044:
 6616              	.LBI2044:
 239:../../libdaisy/src/dev/oled_ssd130x.h ****     {
 6617              		.loc 6 239 10 is_stmt 1 view .LVU1812
 239:../../libdaisy/src/dev/oled_ssd130x.h ****     {
 6618              		.loc 6 239 10 is_stmt 0 view .LVU1813
 6619              	.LBE2044:
 244:../../libdaisy/src/dev/oled_ssd130x.h ****         else
 6620              		.loc 6 244 48 view .LVU1814
 6621 0170 0121     		movs	r1, #1
 244:../../libdaisy/src/dev/oled_ssd130x.h ****         else
 6622              		.loc 6 244 28 view .LVU1815
 6623 0172 4FEAD30C 		lsr	ip, r3, #3
 244:../../libdaisy/src/dev/oled_ssd130x.h ****         else
 6624              		.loc 6 244 54 view .LVU1816
 6625 0176 03F0070E 		and	lr, r3, #7
 6626              	.LBB2047:
 6627              	.LBB2045:
 246:../../libdaisy/src/dev/oled_ssd130x.h ****     }
 6628              		.loc 6 246 49 view .LVU1817
 6629 017a 8846     		mov	r8, r1
 6630              	.LBE2045:
 6631              	.LBE2047:
 244:../../libdaisy/src/dev/oled_ssd130x.h ****         else
 6632              		.loc 6 244 42 view .LVU1818
 6633 017c 04EBCC1C 		add	ip, r4, ip, lsl #7
 244:../../libdaisy/src/dev/oled_ssd130x.h ****         else
 6634              		.loc 6 244 48 view .LVU1819
 6635 0180 01FA0EF1 		lsl	r1, r1, lr
 243:../../libdaisy/src/dev/oled_ssd130x.h ****             buffer_[x + (y / 8) * width] |= (1 << (y % 8));
 6636              		.loc 6 243 9 view .LVU1820
 6637 0184 0028     		cmp	r0, #0
 6638 0186 00F08180 		beq	.L477
 244:../../libdaisy/src/dev/oled_ssd130x.h ****         else
 6639              		.loc 6 244 42 view .LVU1821
 6640 018a 9CF85020 		ldrb	r2, [ip, #80]	@ zero_extendqisi2
 6641 018e 1143     		orrs	r1, r1, r2
 6642 0190 8CF85010 		strb	r1, [ip, #80]
ARM GAS  C:\Users\VINCIU~1\AppData\Local\Temp\ccYgfSqf.s 			page 172


 6643              	.L478:
 6644              	.LVL429:
 244:../../libdaisy/src/dev/oled_ssd130x.h ****         else
 6645              		.loc 6 244 42 view .LVU1822
 6646              	.LBE2043:
 6647              	.LBE2042:
 6648              	.LBE2041:
 150:Menus.cpp     ****     for(int i = 0; i < screen.Height(); i++)
 6649              		.loc 2 150 5 is_stmt 1 view .LVU1823
 150:Menus.cpp     ****     for(int i = 0; i < screen.Height(); i++)
 6650              		.loc 2 150 22 view .LVU1824
 6651 0194 0233     		adds	r3, r3, #2
 152:Menus.cpp     ****         screen.DrawPixel(60, i * 2, on);
 6652              		.loc 2 152 9 view .LVU1825
 6653              	.LVL430:
 6654              	.LBB2053:
  41:../../libdaisy/src/hid/disp/oled_display.h ****     {
 6655              		.loc 1 41 10 view .LVU1826
 6656              	.LBB2051:
 239:../../libdaisy/src/dev/oled_ssd130x.h ****     {
 6657              		.loc 6 239 10 view .LVU1827
 6658              	.LBB2049:
 241:../../libdaisy/src/dev/oled_ssd130x.h ****             return;
 6659              		.loc 6 241 9 is_stmt 0 view .LVU1828
 6660 0196 3F2B     		cmp	r3, #63
 6661 0198 EAD9     		bls	.L582
 6662              	.LVL431:
 6663              	.L476:
 241:../../libdaisy/src/dev/oled_ssd130x.h ****             return;
 6664              		.loc 6 241 9 view .LVU1829
 6665              	.LBE2049:
 6666              	.LBE2051:
 6667              	.LBE2053:
 150:Menus.cpp     ****     for(int i = 0; i < screen.Height(); i++)
 6668              		.loc 2 150 5 is_stmt 1 view .LVU1830
 150:Menus.cpp     ****     for(int i = 0; i < screen.Height(); i++)
 6669              		.loc 2 150 22 view .LVU1831
 6670 019a 0233     		adds	r3, r3, #2
 6671 019c 802B     		cmp	r3, #128
 6672 019e E5D1     		bne	.L474
 6673 01a0 1E23     		movs	r3, #30
 6674              	.L479:
 6675              	.LBE2040:
 6676              	.LBB2055:
 156:Menus.cpp     ****         screen.DrawPixel(29, i * 2, on);
 6677              		.loc 2 156 9 discriminator 2 view .LVU1832
 6678              	.LVL432:
 6679              	.LBB2056:
 6680              	.LBI2056:
  41:../../libdaisy/src/hid/disp/oled_display.h ****     {
 6681              		.loc 1 41 10 discriminator 2 view .LVU1833
 6682              	.LBB2057:
 6683              	.LBI2057:
 239:../../libdaisy/src/dev/oled_ssd130x.h ****     {
 6684              		.loc 6 239 10 discriminator 2 view .LVU1834
 6685              	.LBB2058:
 241:../../libdaisy/src/dev/oled_ssd130x.h ****             return;
ARM GAS  C:\Users\VINCIU~1\AppData\Local\Temp\ccYgfSqf.s 			page 173


 6686              		.loc 6 241 9 is_stmt 0 discriminator 2 view .LVU1835
 6687 01a2 3F2B     		cmp	r3, #63
 6688 01a4 13D8     		bhi	.L480
 6689              	.LVL433:
 6690              	.L583:
 6691              	.LBB2059:
 6692              	.LBI2059:
 239:../../libdaisy/src/dev/oled_ssd130x.h ****     {
 6693              		.loc 6 239 10 is_stmt 1 view .LVU1836
 239:../../libdaisy/src/dev/oled_ssd130x.h ****     {
 6694              		.loc 6 239 10 is_stmt 0 view .LVU1837
 6695              	.LBE2059:
 244:../../libdaisy/src/dev/oled_ssd130x.h ****         else
 6696              		.loc 6 244 48 view .LVU1838
 6697 01a6 0122     		movs	r2, #1
 244:../../libdaisy/src/dev/oled_ssd130x.h ****         else
 6698              		.loc 6 244 28 view .LVU1839
 6699 01a8 4FEAD30C 		lsr	ip, r3, #3
 244:../../libdaisy/src/dev/oled_ssd130x.h ****         else
 6700              		.loc 6 244 54 view .LVU1840
 6701 01ac 03F0070E 		and	lr, r3, #7
 6702              	.LBB2062:
 6703              	.LBB2060:
 246:../../libdaisy/src/dev/oled_ssd130x.h ****     }
 6704              		.loc 6 246 49 view .LVU1841
 6705 01b0 9046     		mov	r8, r2
 6706              	.LBE2060:
 6707              	.LBE2062:
 244:../../libdaisy/src/dev/oled_ssd130x.h ****         else
 6708              		.loc 6 244 42 view .LVU1842
 6709 01b2 04EBCC1C 		add	ip, r4, ip, lsl #7
 244:../../libdaisy/src/dev/oled_ssd130x.h ****         else
 6710              		.loc 6 244 48 view .LVU1843
 6711 01b6 02FA0EF2 		lsl	r2, r2, lr
 243:../../libdaisy/src/dev/oled_ssd130x.h ****             buffer_[x + (y / 8) * width] |= (1 << (y % 8));
 6712              		.loc 6 243 9 view .LVU1844
 6713 01ba 0028     		cmp	r0, #0
 6714 01bc 6FD0     		beq	.L481
 244:../../libdaisy/src/dev/oled_ssd130x.h ****         else
 6715              		.loc 6 244 42 view .LVU1845
 6716 01be 9CF83110 		ldrb	r1, [ip, #49]	@ zero_extendqisi2
 6717 01c2 0A43     		orrs	r2, r2, r1
 6718 01c4 8CF83120 		strb	r2, [ip, #49]
 6719              	.L482:
 6720              	.LVL434:
 244:../../libdaisy/src/dev/oled_ssd130x.h ****         else
 6721              		.loc 6 244 42 view .LVU1846
 6722              	.LBE2058:
 6723              	.LBE2057:
 6724              	.LBE2056:
 154:Menus.cpp     ****     for(int i = screen.Height() / 4 - 1; i < screen.Height(); i++)
 6725              		.loc 2 154 5 is_stmt 1 view .LVU1847
 154:Menus.cpp     ****     for(int i = screen.Height() / 4 - 1; i < screen.Height(); i++)
 6726              		.loc 2 154 44 view .LVU1848
 6727 01c8 0233     		adds	r3, r3, #2
 156:Menus.cpp     ****         screen.DrawPixel(29, i * 2, on);
 6728              		.loc 2 156 9 view .LVU1849
ARM GAS  C:\Users\VINCIU~1\AppData\Local\Temp\ccYgfSqf.s 			page 174


 6729              	.LVL435:
 6730              	.LBB2068:
  41:../../libdaisy/src/hid/disp/oled_display.h ****     {
 6731              		.loc 1 41 10 view .LVU1850
 6732              	.LBB2066:
 239:../../libdaisy/src/dev/oled_ssd130x.h ****     {
 6733              		.loc 6 239 10 view .LVU1851
 6734              	.LBB2064:
 241:../../libdaisy/src/dev/oled_ssd130x.h ****             return;
 6735              		.loc 6 241 9 is_stmt 0 view .LVU1852
 6736 01ca 3F2B     		cmp	r3, #63
 6737 01cc EBD9     		bls	.L583
 6738              	.LVL436:
 6739              	.L480:
 241:../../libdaisy/src/dev/oled_ssd130x.h ****             return;
 6740              		.loc 6 241 9 view .LVU1853
 6741              	.LBE2064:
 6742              	.LBE2066:
 6743              	.LBE2068:
 154:Menus.cpp     ****     for(int i = screen.Height() / 4 - 1; i < screen.Height(); i++)
 6744              		.loc 2 154 5 is_stmt 1 view .LVU1854
 154:Menus.cpp     ****     for(int i = screen.Height() / 4 - 1; i < screen.Height(); i++)
 6745              		.loc 2 154 44 view .LVU1855
 6746 01ce 0233     		adds	r3, r3, #2
 6747 01d0 802B     		cmp	r3, #128
 6748 01d2 E6D1     		bne	.L479
 6749              	.LBE2055:
 159:Menus.cpp     ****     if(encoderLeft.RisingEdge())
 6750              		.loc 2 159 5 view .LVU1856
 6751              	.LVL437:
 6752              	.LBB2070:
 6753              	.LBB2071:
 6754              	.LBI2071:
  42:../../libdaisy/src/hid/encoder.h ****     /** Returns true if the encoder was just pressed.
  43:../../libdaisy/src/hid/encoder.h **** */
  44:../../libdaisy/src/hid/encoder.h ****     inline bool RisingEdge() const { return sw_.RisingEdge(); }
 6755              		.loc 3 44 17 view .LVU1857
 6756              	.LBE2071:
 6757              	.LBE2070:
 6758              		.loc 3 44 38 view .LVU1858
 6759              	.LBB2339:
 6760              	.LBB2074:
 6761              	.LBB2072:
 6762              	.LBI2072:
 6763              		.loc 4 69 17 view .LVU1859
 6764              	.LBB2073:
 6765              		.loc 4 69 38 view .LVU1860
 6766              		.loc 4 69 38 is_stmt 0 view .LVU1861
 6767              	.LBE2073:
 6768              	.LBE2072:
 6769              	.LBE2074:
 159:Menus.cpp     ****     if(encoderLeft.RisingEdge())
 6770              		.loc 2 159 5 view .LVU1862
 6771 01d4 6B7C     		ldrb	r3, [r5, #17]	@ zero_extendqisi2
 6772 01d6 7F2B     		cmp	r3, #127
 6773 01d8 00F09E81 		beq	.L584
 6774              	.LBE2339:
ARM GAS  C:\Users\VINCIU~1\AppData\Local\Temp\ccYgfSqf.s 			page 175


 164:Menus.cpp     ****     else if(menuState == 0)
 6775              		.loc 2 164 10 is_stmt 1 view .LVU1863
 6776              	.LBB2340:
 6777              	.LBB2075:
 164:Menus.cpp     ****     else if(menuState == 0)
 6778              		.loc 2 164 13 is_stmt 0 view .LVU1864
 6779 01dc EB6E     		ldr	r3, [r5, #108]
 164:Menus.cpp     ****     else if(menuState == 0)
 6780              		.loc 2 164 10 view .LVU1865
 6781 01de 002B     		cmp	r3, #0
 6782 01e0 00F0DA80 		beq	.L585
 6783              	.LBE2075:
 6784              	.LBE2340:
 217:Menus.cpp     ****     else if(menuState == 1)
 6785              		.loc 2 217 10 is_stmt 1 view .LVU1866
 6786              	.LBB2341:
 6787              	.LBB2318:
 6788              	.LBB2076:
 6789 01e4 012B     		cmp	r3, #1
 6790 01e6 00F07282 		beq	.L586
 6791              	.LBE2076:
 6792              	.LBE2318:
 6793              	.LBE2341:
 250:Menus.cpp     ****     else if(menuState == 2)
 6794              		.loc 2 250 10 view .LVU1867
 6795              	.LBB2342:
 6796              	.LBB2319:
 6797              	.LBB2178:
 6798              	.LBB2077:
 6799 01ea 022B     		cmp	r3, #2
 6800 01ec 00F02582 		beq	.L587
 359:Menus.cpp     ****     else if(menuState == 3)
 6801              		.loc 2 359 10 view .LVU1868
 6802 01f0 032B     		cmp	r3, #3
 6803 01f2 40F09981 		bne	.L485
 367:Menus.cpp     ****         if(this->OscSelector == true)
 6804              		.loc 2 367 9 view .LVU1869
 6805 01f6 95F87430 		ldrb	r3, [r5, #116]	@ zero_extendqisi2
 369:Menus.cpp     ****             if(this->freqFine >= 1)
 6806              		.loc 2 369 13 is_stmt 0 view .LVU1870
 6807 01fa B7EE007A 		vmov.f32	s14, #1.0e+0
 367:Menus.cpp     ****         if(this->OscSelector == true)
 6808              		.loc 2 367 9 view .LVU1871
 6809 01fe 002B     		cmp	r3, #0
 6810 0200 00F0BB82 		beq	.L534
 369:Menus.cpp     ****             if(this->freqFine >= 1)
 6811              		.loc 2 369 13 is_stmt 1 view .LVU1872
 369:Menus.cpp     ****             if(this->freqFine >= 1)
 6812              		.loc 2 369 22 is_stmt 0 view .LVU1873
 6813 0204 D5ED5D7A 		vldr.32	s15, [r5, #372]
 369:Menus.cpp     ****             if(this->freqFine >= 1)
 6814              		.loc 2 369 13 view .LVU1874
 6815 0208 F4EEC77A 		vcmpe.f32	s15, s14
 6816 020c F1EE10FA 		vmrs	APSR_nzcv, FPSCR
 6817 0210 C0F20183 		blt	.L588
 6818 0214 F0EE477A 		vmov.f32	s15, s14
 6819              	.L535:
ARM GAS  C:\Users\VINCIU~1\AppData\Local\Temp\ccYgfSqf.s 			page 176


 377:Menus.cpp     ****             if(this->drawSliderFine >= 1)
 6820              		.loc 2 377 13 is_stmt 1 view .LVU1875
 6821 0218 F7EE006A 		vmov.f32	s13, #1.0e+0
 377:Menus.cpp     ****             if(this->drawSliderFine >= 1)
 6822              		.loc 2 377 22 is_stmt 0 view .LVU1876
 6823 021c 95ED1F7A 		vldr.32	s14, [r5, #124]
 377:Menus.cpp     ****             if(this->drawSliderFine >= 1)
 6824              		.loc 2 377 13 view .LVU1877
 6825 0220 B4EEE67A 		vcmpe.f32	s14, s13
 6826 0224 F1EE10FA 		vmrs	APSR_nzcv, FPSCR
 6827 0228 C0F2EC82 		blt	.L589
 6828 022c B0EE667A 		vmov.f32	s14, s13
 6829              	.L536:
 386:Menus.cpp     ****             this->freqFine += (((float)this->encoderRight.Increment()) / 32);
 6830              		.loc 2 386 13 is_stmt 1 view .LVU1878
 6831              	.LVL438:
 6832              	.LBB2078:
 6833              	.LBI2078:
  41:../../libdaisy/src/hid/encoder.h ****     /** Returns true if the encoder was just pressed.
 6834              		.loc 3 41 20 view .LVU1879
 6835              	.LBB2079:
  41:../../libdaisy/src/hid/encoder.h ****     /** Returns true if the encoder was just pressed.
 6836              		.loc 3 41 40 view .LVU1880
  41:../../libdaisy/src/hid/encoder.h ****     /** Returns true if the encoder was just pressed.
 6837              		.loc 3 41 40 is_stmt 0 view .LVU1881
 6838              	.LBE2079:
 6839              	.LBE2078:
 386:Menus.cpp     ****             this->freqFine += (((float)this->encoderRight.Increment()) / 32);
 6840              		.loc 2 386 33 view .LVU1882
 6841 0230 D5ED126A 		vldr.32	s13, [r5, #72]	@ int
 389:Menus.cpp     ****             sprintf(this->buffFine, "Fine_%d%%", (int)(freqFine * 100));
 6842              		.loc 2 389 20 view .LVU1883
 6843 0234 05F1D400 		add	r0, r5, #212
 386:Menus.cpp     ****             this->freqFine += (((float)this->encoderRight.Increment()) / 32);
 6844              		.loc 2 386 28 view .LVU1884
 6845 0238 DFED555A 		vldr.32	s11, .L604+56
 386:Menus.cpp     ****             this->freqFine += (((float)this->encoderRight.Increment()) / 32);
 6846              		.loc 2 386 33 view .LVU1885
 6847 023c F8EEE66A 		vcvt.f32.s32	s13, s13
 389:Menus.cpp     ****             sprintf(this->buffFine, "Fine_%d%%", (int)(freqFine * 100));
 6848              		.loc 2 389 65 view .LVU1886
 6849 0240 9FED4F6A 		vldr.32	s12, .L604+40
 389:Menus.cpp     ****             sprintf(this->buffFine, "Fine_%d%%", (int)(freqFine * 100));
 6850              		.loc 2 389 20 view .LVU1887
 6851 0244 4F49     		ldr	r1, .L604+44
 386:Menus.cpp     ****             this->freqFine += (((float)this->encoderRight.Increment()) / 32);
 6852              		.loc 2 386 28 view .LVU1888
 6853 0246 E6EEA57A 		vfma.f32	s15, s13, s11
 388:Menus.cpp     ****                 += (((float)this->encoderRight.Increment()) / 32);
 6854              		.loc 2 388 17 view .LVU1889
 6855 024a A6EEA57A 		vfma.f32	s14, s13, s11
 389:Menus.cpp     ****             sprintf(this->buffFine, "Fine_%d%%", (int)(freqFine * 100));
 6856              		.loc 2 389 65 view .LVU1890
 6857 024e 67EE866A 		vmul.f32	s13, s15, s12
 386:Menus.cpp     ****             this->freqFine += (((float)this->encoderRight.Increment()) / 32);
 6858              		.loc 2 386 28 view .LVU1891
 6859 0252 C5ED5D7A 		vstr.32	s15, [r5, #372]
ARM GAS  C:\Users\VINCIU~1\AppData\Local\Temp\ccYgfSqf.s 			page 177


 387:Menus.cpp     ****             this->drawSliderFine
 6860              		.loc 2 387 13 is_stmt 1 view .LVU1892
 6861              	.LVL439:
 387:Menus.cpp     ****             this->drawSliderFine
 6862              		.loc 2 387 13 is_stmt 0 view .LVU1893
 6863              	.LBE2077:
 6864              	.LBE2178:
 6865              	.LBE2319:
 6866              	.LBE2342:
  41:../../libdaisy/src/hid/encoder.h ****     /** Returns true if the encoder was just pressed.
 6867              		.loc 3 41 40 is_stmt 1 view .LVU1894
 6868              	.LBB2343:
 6869              	.LBB2320:
 6870              	.LBB2179:
 6871              	.LBB2162:
 388:Menus.cpp     ****                 += (((float)this->encoderRight.Increment()) / 32);
 6872              		.loc 2 388 17 is_stmt 0 view .LVU1895
 6873 0256 85ED1F7A 		vstr.32	s14, [r5, #124]
 389:Menus.cpp     ****             sprintf(this->buffFine, "Fine_%d%%", (int)(freqFine * 100));
 6874              		.loc 2 389 13 is_stmt 1 view .LVU1896
 389:Menus.cpp     ****             sprintf(this->buffFine, "Fine_%d%%", (int)(freqFine * 100));
 6875              		.loc 2 389 20 is_stmt 0 view .LVU1897
 6876 025a FDEEE67A 		vcvt.s32.f32	s15, s13
 6877 025e 17EE902A 		vmov	r2, s15	@ int
 6878 0262 FFF7FEFF 		bl	sprintf
 6879              	.LVL440:
 6880              	.L537:
 416:Menus.cpp     ****         screen.DrawRect(60,
 6881              		.loc 2 416 9 is_stmt 1 view .LVU1898
 416:Menus.cpp     ****         screen.DrawRect(60,
 6882              		.loc 2 416 24 is_stmt 0 view .LVU1899
 6883 0266 95F8BC31 		ldrb	r3, [r5, #444]	@ zero_extendqisi2
 6884 026a 0022     		movs	r2, #0
 6885 026c 3F21     		movs	r1, #63
 6886 026e 2046     		mov	r0, r4
 6887 0270 CDE90132 		strd	r3, r2, [sp, #4]
 6888 0274 0091     		str	r1, [sp]
 6889 0276 7F23     		movs	r3, #127
 6890 0278 1D22     		movs	r2, #29
 6891 027a 3C21     		movs	r1, #60
 6892 027c FFF7FEFF 		bl	_ZN5daisy25OneBitGraphicsDisplayImplINS_11OledDisplayINS_13SSD130xDriverILj128ELj64ENS_24SSD130
 6893              	.LVL441:
 6894 0280 52E1     		b	.L485
 6895              	.LVL442:
 6896              	.L472:
 416:Menus.cpp     ****         screen.DrawRect(60,
 6897              		.loc 2 416 24 view .LVU1900
 6898              	.LBE2162:
 6899              	.LBE2179:
 6900              	.LBE2320:
 6901              	.LBE2343:
 6902              	.LBB2344:
 6903              	.LBB2039:
 6904              	.LBB2037:
 6905              	.LBB2035:
 6906              	.LBB2033:
 6907              	.LBB2032:
ARM GAS  C:\Users\VINCIU~1\AppData\Local\Temp\ccYgfSqf.s 			page 178


 246:../../libdaisy/src/dev/oled_ssd130x.h ****     }
 6908              		.loc 6 246 42 view .LVU1901
 6909 0282 22F02002 		bic	r2, r2, #32
 6910 0286 8CF89421 		strb	r2, [ip, #404]
 6911 028a 63E7     		b	.L473
 6912              	.LVL443:
 6913              	.L477:
 246:../../libdaisy/src/dev/oled_ssd130x.h ****     }
 6914              		.loc 6 246 42 view .LVU1902
 6915              	.LBE2032:
 6916              	.LBE2033:
 6917              	.LBE2035:
 6918              	.LBE2037:
 6919              	.LBE2039:
 6920              	.LBE2344:
 6921              	.LBB2345:
 6922              	.LBB2054:
 6923              	.LBB2052:
 6924              	.LBB2050:
 6925              	.LBB2048:
 6926              	.LBB2046:
 6927 028c 9CF85010 		ldrb	r1, [ip, #80]	@ zero_extendqisi2
 246:../../libdaisy/src/dev/oled_ssd130x.h ****     }
 6928              		.loc 6 246 49 view .LVU1903
 6929 0290 08FA0EF8 		lsl	r8, r8, lr
 246:../../libdaisy/src/dev/oled_ssd130x.h ****     }
 6930              		.loc 6 246 42 view .LVU1904
 6931 0294 21EA0808 		bic	r8, r1, r8
 6932 0298 8CF85080 		strb	r8, [ip, #80]
 6933 029c 7AE7     		b	.L478
 6934              	.LVL444:
 6935              	.L481:
 246:../../libdaisy/src/dev/oled_ssd130x.h ****     }
 6936              		.loc 6 246 42 view .LVU1905
 6937              	.LBE2046:
 6938              	.LBE2048:
 6939              	.LBE2050:
 6940              	.LBE2052:
 6941              	.LBE2054:
 6942              	.LBE2345:
 6943              	.LBB2346:
 6944              	.LBB2069:
 6945              	.LBB2067:
 6946              	.LBB2065:
 6947              	.LBB2063:
 6948              	.LBB2061:
 6949 029e 9CF83120 		ldrb	r2, [ip, #49]	@ zero_extendqisi2
 246:../../libdaisy/src/dev/oled_ssd130x.h ****     }
 6950              		.loc 6 246 49 view .LVU1906
 6951 02a2 08FA0EF8 		lsl	r8, r8, lr
 246:../../libdaisy/src/dev/oled_ssd130x.h ****     }
 6952              		.loc 6 246 42 view .LVU1907
 6953 02a6 22EA0808 		bic	r8, r2, r8
 6954 02aa 8CF83180 		strb	r8, [ip, #49]
 6955 02ae 8BE7     		b	.L482
 6956              	.LVL445:
 6957              	.L469:
ARM GAS  C:\Users\VINCIU~1\AppData\Local\Temp\ccYgfSqf.s 			page 179


 246:../../libdaisy/src/dev/oled_ssd130x.h ****     }
 6958              		.loc 6 246 42 view .LVU1908
 6959              	.LBE2061:
 6960              	.LBE2063:
 6961              	.LBE2065:
 6962              	.LBE2067:
 6963              	.LBE2069:
 6964              	.LBE2346:
 131:Menus.cpp     ****         screen.drawSlider(70, 7, 50, 3, false, (this->drawSliderSemi2) / 40);
 6965              		.loc 2 131 9 is_stmt 1 view .LVU1909
 131:Menus.cpp     ****         screen.drawSlider(70, 7, 50, 3, false, (this->drawSliderSemi2) / 40);
 6966              		.loc 2 131 26 is_stmt 0 view .LVU1910
 6967 02b0 D5ED202A 		vldr.32	s5, [r5, #128]
 6968 02b4 2046     		mov	r0, r4
 6969 02b6 9FED378A 		vldr.32	s16, .L604+60
 6970 02ba F0EE081A 		vmov.f32	s3, #3.0e+0
 6971 02be F1EE0C0A 		vmov.f32	s1, #7.0e+0
 6972 02c2 9FED322A 		vldr.32	s4, .L604+52
 6973 02c6 C2EE882A 		vdiv.f32	s5, s5, s16
 6974 02ca 9FED251A 		vldr.32	s2, .L604+8
 6975 02ce 9FED250A 		vldr.32	s0, .L604+12
 6976 02d2 FFF7FEFF 		bl	_ZN23OledDisplayExtravaganza10drawSliderEffffff
 6977              	.LVL446:
 132:Menus.cpp     ****         screen.drawSlider(70, 40, 50, 3, false, drawSliderFine2);
 6978              		.loc 2 132 9 is_stmt 1 view .LVU1911
 132:Menus.cpp     ****         screen.drawSlider(70, 40, 50, 3, false, drawSliderFine2);
 6979              		.loc 2 132 26 is_stmt 0 view .LVU1912
 6980 02d6 D5ED212A 		vldr.32	s5, [r5, #132]
 6981 02da 9FED2C2A 		vldr.32	s4, .L604+52
 6982 02de 2046     		mov	r0, r4
 6983 02e0 9FED1F1A 		vldr.32	s2, .L604+8
 6984 02e4 F0EE081A 		vmov.f32	s3, #3.0e+0
 6985 02e8 9FED1E0A 		vldr.32	s0, .L604+12
 6986 02ec F0EE480A 		vmov.f32	s1, s16
 136:Menus.cpp     ****         screen.WriteString(this->buff2, Font_6x8, false);
 6987              		.loc 2 136 27 view .LVU1913
 6988 02f0 DFF89490 		ldr	r9, .L604+48
 132:Menus.cpp     ****         screen.drawSlider(70, 40, 50, 3, false, drawSliderFine2);
 6989              		.loc 2 132 26 view .LVU1914
 6990 02f4 FFF7FEFF 		bl	_ZN23OledDisplayExtravaganza10drawSliderEffffff
 6991              	.LVL447:
 133:Menus.cpp     ****         screen.drawVerticalToggle(13, 51, 8, false, this->toggleOsc2, "");
 6992              		.loc 2 133 9 is_stmt 1 view .LVU1915
 133:Menus.cpp     ****         screen.drawVerticalToggle(13, 51, 8, false, this->toggleOsc2, "");
 6993              		.loc 2 133 34 is_stmt 0 view .LVU1916
 6994 02f8 B2EE001A 		vmov.f32	s2, #8.0e+0
 6995 02fc B2EE0A0A 		vmov.f32	s0, #1.3e+1
 6996 0300 DFED190A 		vldr.32	s1, .L604+16
 6997 0304 95F89920 		ldrb	r2, [r5, #153]	@ zero_extendqisi2
 6998 0308 4146     		mov	r1, r8
 6999 030a 2046     		mov	r0, r4
 7000 030c 134B     		ldr	r3, .L604+4
 7001 030e FFF7FEFF 		bl	_ZN23OledDisplayExtravaganza18drawVerticalToggleEfffbbPKc
 7002              	.LVL448:
 134:Menus.cpp     ****         screen.WaveIcons(35, 42, 55, this->selectedWave2, false);
 7003              		.loc 2 134 9 is_stmt 1 view .LVU1917
 134:Menus.cpp     ****         screen.WaveIcons(35, 42, 55, this->selectedWave2, false);
ARM GAS  C:\Users\VINCIU~1\AppData\Local\Temp\ccYgfSqf.s 			page 180


 7004              		.loc 2 134 25 is_stmt 0 view .LVU1918
 7005 0312 CDF80480 		str	r8, [sp, #4]
 7006 0316 D5F8A030 		ldr	r3, [r5, #160]
 7007 031a 2046     		mov	r0, r4
 7008 031c 2A22     		movs	r2, #42
 7009 031e 2321     		movs	r1, #35
 7010 0320 0093     		str	r3, [sp]
 7011 0322 3723     		movs	r3, #55
 7012 0324 FFF7FEFF 		bl	_ZN23OledDisplayExtravaganza9WaveIconsEiiiib
 7013              	.LVL449:
 135:Menus.cpp     ****         screen.SetCursor(70, 17);
 7014              		.loc 2 135 9 is_stmt 1 view .LVU1919
 7015              	.LBB2347:
 7016              	.LBI2347:
 131:../../libdaisy/src/hid/disp/display.h ****     {
 7017              		.loc 5 131 10 view .LVU1920
 7018              	.LBB2348:
 133:../../libdaisy/src/hid/disp/display.h ****         currentY_ = (y >= Height()) ? Height() - 1 : y;
 7019              		.loc 5 133 9 view .LVU1921
 134:../../libdaisy/src/hid/disp/display.h ****     }
 7020              		.loc 5 134 9 view .LVU1922
 133:../../libdaisy/src/hid/disp/display.h ****         currentY_ = (y >= Height()) ? Height() - 1 : y;
 7021              		.loc 5 133 19 is_stmt 0 view .LVU1923
 7022 0328 104B     		ldr	r3, .L604+20
 7023              	.LBE2348:
 7024              	.LBE2347:
 136:Menus.cpp     ****         screen.WriteString(this->buff2, Font_6x8, false);
 7025              		.loc 2 136 27 view .LVU1924
 7026 032a CDF80080 		str	r8, [sp]
 7027 032e 05F1BC01 		add	r1, r5, #188
 7028              	.LBB2350:
 7029              	.LBB2349:
 133:../../libdaisy/src/hid/disp/display.h ****         currentY_ = (y >= Height()) ? Height() - 1 : y;
 7030              		.loc 5 133 19 view .LVU1925
 7031 0332 6360     		str	r3, [r4, #4]
 7032              	.LVL450:
 133:../../libdaisy/src/hid/disp/display.h ****         currentY_ = (y >= Height()) ? Height() - 1 : y;
 7033              		.loc 5 133 19 view .LVU1926
 7034              	.LBE2349:
 7035              	.LBE2350:
 136:Menus.cpp     ****         screen.WriteString(this->buff2, Font_6x8, false);
 7036              		.loc 2 136 9 is_stmt 1 view .LVU1927
 136:Menus.cpp     ****         screen.WriteString(this->buff2, Font_6x8, false);
 7037              		.loc 2 136 27 is_stmt 0 view .LVU1928
 7038 0334 2046     		mov	r0, r4
 7039 0336 99E80C00 		ldm	r9, {r2, r3}
 7040 033a FFF7FEFF 		bl	_ZN5daisy25OneBitGraphicsDisplayImplINS_11OledDisplayINS_13SSD130xDriverILj128ELj64ENS_24SSD130
 7041              	.LVL451:
 137:Menus.cpp     ****         screen.SetCursor(70, 50);
 7042              		.loc 2 137 9 is_stmt 1 view .LVU1929
 7043              	.LBB2351:
 7044              	.LBI2351:
 131:../../libdaisy/src/hid/disp/display.h ****     {
 7045              		.loc 5 131 10 view .LVU1930
 7046              	.LBB2352:
 133:../../libdaisy/src/hid/disp/display.h ****         currentY_ = (y >= Height()) ? Height() - 1 : y;
 7047              		.loc 5 133 9 view .LVU1931
ARM GAS  C:\Users\VINCIU~1\AppData\Local\Temp\ccYgfSqf.s 			page 181


 134:../../libdaisy/src/hid/disp/display.h ****     }
 7048              		.loc 5 134 9 view .LVU1932
 133:../../libdaisy/src/hid/disp/display.h ****         currentY_ = (y >= Height()) ? Height() - 1 : y;
 7049              		.loc 5 133 19 is_stmt 0 view .LVU1933
 7050 033e 0C4B     		ldr	r3, .L604+24
 7051              	.LBE2352:
 7052              	.LBE2351:
 138:Menus.cpp     ****         screen.WriteString(this->buffFine2, Font_6x8, false);
 7053              		.loc 2 138 27 view .LVU1934
 7054 0340 CDF80080 		str	r8, [sp]
 7055 0344 05F1EC01 		add	r1, r5, #236
 7056              	.LBB2354:
 7057              	.LBB2353:
 133:../../libdaisy/src/hid/disp/display.h ****         currentY_ = (y >= Height()) ? Height() - 1 : y;
 7058              		.loc 5 133 19 view .LVU1935
 7059 0348 6360     		str	r3, [r4, #4]
 7060              	.LVL452:
 133:../../libdaisy/src/hid/disp/display.h ****         currentY_ = (y >= Height()) ? Height() - 1 : y;
 7061              		.loc 5 133 19 view .LVU1936
 7062              	.LBE2353:
 7063              	.LBE2354:
 138:Menus.cpp     ****         screen.WriteString(this->buffFine2, Font_6x8, false);
 7064              		.loc 2 138 9 is_stmt 1 view .LVU1937
 138:Menus.cpp     ****         screen.WriteString(this->buffFine2, Font_6x8, false);
 7065              		.loc 2 138 27 is_stmt 0 view .LVU1938
 7066 034a 2046     		mov	r0, r4
 7067 034c 99E80C00 		ldm	r9, {r2, r3}
 7068 0350 FFF7FEFF 		bl	_ZN5daisy25OneBitGraphicsDisplayImplINS_11OledDisplayINS_13SSD130xDriverILj128ELj64ENS_24SSD130
 7069              	.LVL453:
 7070 0354 E4E6     		b	.L470
 7071              	.L605:
 7072 0356 00BF     		.align	2
 7073              	.L604:
 7074 0358 00003842 		.word	1110966272
 7075 035c 00000000 		.word	.LC7
 7076 0360 00004842 		.word	1112014848
 7077 0364 00008C42 		.word	1116471296
 7078 0368 00004C42 		.word	1112276992
 7079 036c 46001100 		.word	1114182
 7080 0370 46003200 		.word	3276870
 7081 0374 04000800 		.word	524292
 7082 0378 00000000 		.word	Font_7x10
 7083 037c 04000000 		.word	.LC8
 7084 0380 0000C842 		.word	1120403456
 7085 0384 14000000 		.word	.LC10
 7086 0388 00000000 		.word	Font_6x8
 7087 038c 00000000 		.word	0
 7088 0390 0000003D 		.word	1023410176
 7089 0394 00002042 		.word	1109393408
 7090              	.L585:
 7091              	.LBB2355:
 7092              	.LBB2321:
 166:Menus.cpp     ****         if(this->OscSelector == true)
 7093              		.loc 2 166 9 is_stmt 1 view .LVU1939
 7094 0398 95F87430 		ldrb	r3, [r5, #116]	@ zero_extendqisi2
 7095 039c 002B     		cmp	r3, #0
 7096 039e 40F01781 		bne	.L590
ARM GAS  C:\Users\VINCIU~1\AppData\Local\Temp\ccYgfSqf.s 			page 182


 191:Menus.cpp     ****             if(this->noteSemiAdd2 > 32)
 7097              		.loc 2 191 13 view .LVU1940
 191:Menus.cpp     ****             if(this->noteSemiAdd2 > 32)
 7098              		.loc 2 191 22 is_stmt 0 view .LVU1941
 7099 03a2 D5F86831 		ldr	r3, [r5, #360]
 191:Menus.cpp     ****             if(this->noteSemiAdd2 > 32)
 7100              		.loc 2 191 13 view .LVU1942
 7101 03a6 202B     		cmp	r3, #32
 7102 03a8 00F3A281 		bgt	.L548
 195:Menus.cpp     ****             if(this->noteSemiAdd2 < 0)
 7103              		.loc 2 195 13 is_stmt 1 view .LVU1943
 7104 03ac 002B     		cmp	r3, #0
 7105 03ae 80F21482 		bge	.L591
 7106 03b2 5FED0A7A 		vldr.32	s15, .L604+52
 7107              	.L490:
 199:Menus.cpp     ****             if(this->drawSliderSemi2 >= 40)
 7108              		.loc 2 199 13 view .LVU1944
 199:Menus.cpp     ****             if(this->drawSliderSemi2 >= 40)
 7109              		.loc 2 199 22 is_stmt 0 view .LVU1945
 7110 03b6 95ED207A 		vldr.32	s14, [r5, #128]
 199:Menus.cpp     ****             if(this->drawSliderSemi2 >= 40)
 7111              		.loc 2 199 13 view .LVU1946
 7112 03ba 5FED0A6A 		vldr.32	s13, .L604+60
 7113 03be B4EEE67A 		vcmpe.f32	s14, s13
 7114 03c2 F1EE10FA 		vmrs	APSR_nzcv, FPSCR
 7115 03c6 80F29081 		bge	.L550
 203:Menus.cpp     ****             if(this->drawSliderSemi2 < 0)
 7116              		.loc 2 203 13 is_stmt 1 view .LVU1947
 7117 03ca B5EEC07A 		vcmpe.f32	s14, #0
 7118 03ce F1EE10FA 		vmrs	APSR_nzcv, FPSCR
 7119 03d2 01D5     		bpl	.L491
 7120 03d4 1FED137A 		vldr.32	s14, .L604+52
 7121              	.L491:
 207:Menus.cpp     ****             this->noteSemiAdd2 += (float)this->encoderRight.Increment();
 7122              		.loc 2 207 13 view .LVU1948
 7123              	.LVL454:
 7124              	.LBB2180:
 7125              	.LBI2180:
  41:../../libdaisy/src/hid/encoder.h ****     /** Returns true if the encoder was just pressed.
 7126              		.loc 3 41 20 view .LVU1949
 7127              	.LBB2181:
  41:../../libdaisy/src/hid/encoder.h ****     /** Returns true if the encoder was just pressed.
 7128              		.loc 3 41 40 view .LVU1950
  41:../../libdaisy/src/hid/encoder.h ****     /** Returns true if the encoder was just pressed.
 7129              		.loc 3 41 40 is_stmt 0 view .LVU1951
 7130              	.LBE2181:
 7131              	.LBE2180:
 207:Menus.cpp     ****             this->noteSemiAdd2 += (float)this->encoderRight.Increment();
 7132              		.loc 2 207 35 view .LVU1952
 7133 03d8 D5ED126A 		vldr.32	s13, [r5, #72]	@ int
 210:Menus.cpp     ****             sprintf(this->buff2, "Semi_%dst", this->noteSemiAdd2);
 7134              		.loc 2 210 20 view .LVU1953
 7135 03dc 05F1BC00 		add	r0, r5, #188
 209:Menus.cpp     ****                 += (((float)this->encoderRight.Increment()) / 32) * 40;
 7136              		.loc 2 209 61 view .LVU1954
 7137 03e0 1FED156A 		vldr.32	s12, .L604+56
 207:Menus.cpp     ****             this->noteSemiAdd2 += (float)this->encoderRight.Increment();
ARM GAS  C:\Users\VINCIU~1\AppData\Local\Temp\ccYgfSqf.s 			page 183


 7138              		.loc 2 207 35 view .LVU1955
 7139 03e4 F8EEE66A 		vcvt.f32.s32	s13, s13
 209:Menus.cpp     ****                 += (((float)this->encoderRight.Increment()) / 32) * 40;
 7140              		.loc 2 209 17 view .LVU1956
 7141 03e8 5FED165A 		vldr.32	s11, .L604+60
 210:Menus.cpp     ****             sprintf(this->buff2, "Semi_%dst", this->noteSemiAdd2);
 7142              		.loc 2 210 20 view .LVU1957
 7143 03ec C349     		ldr	r1, .L606
 209:Menus.cpp     ****                 += (((float)this->encoderRight.Increment()) / 32) * 40;
 7144              		.loc 2 209 61 view .LVU1958
 7145 03ee 26EE866A 		vmul.f32	s12, s13, s12
 207:Menus.cpp     ****             this->noteSemiAdd2 += (float)this->encoderRight.Increment();
 7146              		.loc 2 207 32 view .LVU1959
 7147 03f2 77EEA67A 		vadd.f32	s15, s15, s13
 209:Menus.cpp     ****                 += (((float)this->encoderRight.Increment()) / 32) * 40;
 7148              		.loc 2 209 17 view .LVU1960
 7149 03f6 A6EE257A 		vfma.f32	s14, s12, s11
 207:Menus.cpp     ****             this->noteSemiAdd2 += (float)this->encoderRight.Increment();
 7150              		.loc 2 207 32 view .LVU1961
 7151 03fa FDEEE77A 		vcvt.s32.f32	s15, s15
 7152 03fe 17EE902A 		vmov	r2, s15	@ int
 7153 0402 C5ED5A7A 		vstr.32	s15, [r5, #360]	@ int
 208:Menus.cpp     ****             this->drawSliderSemi2
 7154              		.loc 2 208 13 is_stmt 1 view .LVU1962
 7155              	.LVL455:
 208:Menus.cpp     ****             this->drawSliderSemi2
 7156              		.loc 2 208 13 is_stmt 0 view .LVU1963
 7157              	.LBE2321:
 7158              	.LBE2355:
  41:../../libdaisy/src/hid/encoder.h ****     /** Returns true if the encoder was just pressed.
 7159              		.loc 3 41 40 is_stmt 1 view .LVU1964
 7160              	.LBB2356:
 7161              	.LBB2322:
 209:Menus.cpp     ****                 += (((float)this->encoderRight.Increment()) / 32) * 40;
 7162              		.loc 2 209 17 is_stmt 0 view .LVU1965
 7163 0406 85ED207A 		vstr.32	s14, [r5, #128]
 210:Menus.cpp     ****             sprintf(this->buff2, "Semi_%dst", this->noteSemiAdd2);
 7164              		.loc 2 210 13 is_stmt 1 view .LVU1966
 210:Menus.cpp     ****             sprintf(this->buff2, "Semi_%dst", this->noteSemiAdd2);
 7165              		.loc 2 210 20 is_stmt 0 view .LVU1967
 7166 040a FFF7FEFF 		bl	sprintf
 7167              	.LVL456:
 214:Menus.cpp     ****         screen.DrawRect(
 7168              		.loc 2 214 9 is_stmt 1 view .LVU1968
 214:Menus.cpp     ****         screen.DrawRect(
 7169              		.loc 2 214 24 is_stmt 0 view .LVU1969
 7170 040e 95F8BC01 		ldrb	r0, [r5, #444]	@ zero_extendqisi2
 7171              	.LVL457:
 7172              	.LBB2182:
 7173              	.LBI2182:
 217:../../libdaisy/src/hid/disp/display.h ****                   uint_fast8_t y1,
 7174              		.loc 5 217 10 is_stmt 1 view .LVU1970
 7175              	.LBB2183:
 7176              	.LBI2183:
 181:../../libdaisy/src/hid/disp/display.h ****                   uint_fast8_t y1,
 7177              		.loc 5 181 10 view .LVU1971
 7178              	.LBB2184:
ARM GAS  C:\Users\VINCIU~1\AppData\Local\Temp\ccYgfSqf.s 			page 184


 7179              	.LBB2185:
 7180              	.LBI2185:
  41:../../libdaisy/src/hid/disp/oled_display.h ****     {
 7181              		.loc 1 41 10 view .LVU1972
 7182              	.LBB2186:
 7183              	.LBI2186:
 239:../../libdaisy/src/dev/oled_ssd130x.h ****     {
 7184              		.loc 6 239 10 view .LVU1973
 7185              	.LBB2187:
 244:../../libdaisy/src/dev/oled_ssd130x.h ****         else
 7186              		.loc 6 244 42 is_stmt 0 view .LVU1974
 7187 0412 94F89320 		ldrb	r2, [r4, #147]	@ zero_extendqisi2
 243:../../libdaisy/src/dev/oled_ssd130x.h ****             buffer_[x + (y / 8) * width] |= (1 << (y % 8));
 7188              		.loc 6 243 9 view .LVU1975
 7189 0416 0028     		cmp	r0, #0
 7190 0418 00F00C81 		beq	.L492
 7191              	.LVL458:
 7192              	.L599:
 244:../../libdaisy/src/dev/oled_ssd130x.h ****         else
 7193              		.loc 6 244 42 view .LVU1976
 7194 041c 42F00102 		orr	r2, r2, #1
 7195              	.L493:
 244:../../libdaisy/src/dev/oled_ssd130x.h ****         else
 7196              		.loc 6 244 42 view .LVU1977
 7197 0420 04F14F03 		add	r3, r4, #79
 7198 0424 04F19201 		add	r1, r4, #146
 7199 0428 84F89320 		strb	r2, [r4, #147]
 7200              	.LVL459:
 244:../../libdaisy/src/dev/oled_ssd130x.h ****         else
 7201              		.loc 6 244 42 view .LVU1978
 7202              	.LBE2187:
 7203              	.LBE2186:
 7204              	.LBE2185:
 199:../../libdaisy/src/hid/disp/display.h ****         {
 7205              		.loc 5 199 26 is_stmt 1 view .LVU1979
 7206 042c 05E0     		b	.L496
 7207              	.LVL460:
 7208              	.L593:
 7209              	.LBB2192:
 7210              	.LBB2193:
 7211              	.LBB2194:
 244:../../libdaisy/src/dev/oled_ssd130x.h ****         else
 7212              		.loc 6 244 42 is_stmt 0 view .LVU1980
 7213 042e 42F00102 		orr	r2, r2, #1
 7214 0432 03F8012F 		strb	r2, [r3, #1]!
 7215              	.LVL461:
 244:../../libdaisy/src/dev/oled_ssd130x.h ****         else
 7216              		.loc 6 244 42 view .LVU1981
 7217              	.LBE2194:
 7218              	.LBE2193:
 7219              	.LBE2192:
 199:../../libdaisy/src/hid/disp/display.h ****         {
 7220              		.loc 5 199 26 is_stmt 1 view .LVU1982
 7221 0436 9942     		cmp	r1, r3
 7222 0438 08D0     		beq	.L592
 7223              	.LVL462:
 7224              	.L496:
ARM GAS  C:\Users\VINCIU~1\AppData\Local\Temp\ccYgfSqf.s 			page 185


 7225              	.LBB2200:
 7226              	.LBI2192:
  41:../../libdaisy/src/hid/disp/oled_display.h ****     {
 7227              		.loc 1 41 10 view .LVU1983
 7228              	.LBB2199:
 7229              	.LBI2193:
 239:../../libdaisy/src/dev/oled_ssd130x.h ****     {
 7230              		.loc 6 239 10 view .LVU1984
 7231              	.LBB2198:
 7232              	.LBB2195:
 7233              	.LBI2195:
 239:../../libdaisy/src/dev/oled_ssd130x.h ****     {
 7234              		.loc 6 239 10 view .LVU1985
 239:../../libdaisy/src/dev/oled_ssd130x.h ****     {
 7235              		.loc 6 239 10 is_stmt 0 view .LVU1986
 7236              	.LBE2195:
 244:../../libdaisy/src/dev/oled_ssd130x.h ****         else
 7237              		.loc 6 244 42 view .LVU1987
 7238 043a 5A78     		ldrb	r2, [r3, #1]	@ zero_extendqisi2
 243:../../libdaisy/src/dev/oled_ssd130x.h ****             buffer_[x + (y / 8) * width] |= (1 << (y % 8));
 7239              		.loc 6 243 9 view .LVU1988
 7240 043c 0028     		cmp	r0, #0
 7241 043e F6D1     		bne	.L593
 7242              	.LBB2197:
 7243              	.LBB2196:
 246:../../libdaisy/src/dev/oled_ssd130x.h ****     }
 7244              		.loc 6 246 42 view .LVU1989
 7245 0440 02F0FE02 		and	r2, r2, #254
 7246 0444 03F8012F 		strb	r2, [r3, #1]!
 7247              	.LVL463:
 246:../../libdaisy/src/dev/oled_ssd130x.h ****     }
 7248              		.loc 6 246 42 view .LVU1990
 7249              	.LBE2196:
 7250              	.LBE2197:
 7251              	.LBE2198:
 7252              	.LBE2199:
 7253              	.LBE2200:
 199:../../libdaisy/src/hid/disp/display.h ****         {
 7254              		.loc 5 199 26 is_stmt 1 view .LVU1991
 7255 0448 9942     		cmp	r1, r3
 7256 044a F6D1     		bne	.L496
 7257              	.LVL464:
 7258              	.L592:
 199:../../libdaisy/src/hid/disp/display.h ****         {
 7259              		.loc 5 199 26 is_stmt 0 view .LVU1992
 7260              	.LBE2184:
 7261              	.LBE2183:
 7262              	.LBB2203:
 7263              	.LBI2203:
 181:../../libdaisy/src/hid/disp/display.h ****                   uint_fast8_t y1,
 7264              		.loc 5 181 10 is_stmt 1 view .LVU1993
 7265              	.LBB2204:
 7266              	.LBB2205:
 7267              	.LBI2205:
  41:../../libdaisy/src/hid/disp/oled_display.h ****     {
 7268              		.loc 1 41 10 view .LVU1994
 7269              	.LBB2206:
ARM GAS  C:\Users\VINCIU~1\AppData\Local\Temp\ccYgfSqf.s 			page 186


 7270              	.LBI2206:
 239:../../libdaisy/src/dev/oled_ssd130x.h ****     {
 7271              		.loc 6 239 10 view .LVU1995
 7272              	.LBB2207:
 244:../../libdaisy/src/dev/oled_ssd130x.h ****         else
 7273              		.loc 6 244 42 is_stmt 0 view .LVU1996
 7274 044c 94F81322 		ldrb	r2, [r4, #531]	@ zero_extendqisi2
 243:../../libdaisy/src/dev/oled_ssd130x.h ****             buffer_[x + (y / 8) * width] |= (1 << (y % 8));
 7275              		.loc 6 243 9 view .LVU1997
 7276 0450 0028     		cmp	r0, #0
 7277 0452 00F03981 		beq	.L497
 7278              	.LVL465:
 244:../../libdaisy/src/dev/oled_ssd130x.h ****         else
 7279              		.loc 6 244 42 view .LVU1998
 7280 0456 42F02002 		orr	r2, r2, #32
 7281              	.LVL466:
 7282              	.L498:
 244:../../libdaisy/src/dev/oled_ssd130x.h ****         else
 7283              		.loc 6 244 42 view .LVU1999
 7284              	.LBE2207:
 7285              	.LBE2206:
 7286              	.LBE2205:
 7287              	.LBE2204:
 7288              	.LBE2203:
 7289              	.LBE2182:
 7290 045a 0023     		movs	r3, #0
 7291 045c 84F81322 		strb	r2, [r4, #531]
 7292              	.LVL467:
 7293              	.LBB2297:
 7294              	.LBB2242:
 7295              	.LBB2240:
 199:../../libdaisy/src/hid/disp/display.h ****         {
 7296              		.loc 5 199 26 is_stmt 1 view .LVU2000
 7297 0460 05E0     		b	.L501
 7298              	.LVL468:
 7299              	.L595:
 7300              	.LBB2212:
 7301              	.LBB2213:
 7302              	.LBB2214:
 244:../../libdaisy/src/dev/oled_ssd130x.h ****         else
 7303              		.loc 6 244 42 is_stmt 0 view .LVU2001
 7304 0462 0A7D     		ldrb	r2, [r1, #20]	@ zero_extendqisi2
 7305              	.LBE2214:
 7306              	.LBE2213:
 7307              	.LBE2212:
 212:../../libdaisy/src/hid/disp/display.h ****             }
 7308              		.loc 5 212 20 view .LVU2002
 7309 0464 0133     		adds	r3, r3, #1
 7310              	.LVL469:
 7311              	.LBB2234:
 7312              	.LBB2229:
 7313              	.LBB2224:
 244:../../libdaisy/src/dev/oled_ssd130x.h ****         else
 7314              		.loc 6 244 42 view .LVU2003
 7315 0466 1543     		orrs	r5, r5, r2
 7316              	.LBE2224:
 7317              	.LBE2229:
ARM GAS  C:\Users\VINCIU~1\AppData\Local\Temp\ccYgfSqf.s 			page 187


 7318              	.LBE2234:
 199:../../libdaisy/src/hid/disp/display.h ****         {
 7319              		.loc 5 199 26 view .LVU2004
 7320 0468 1D2B     		cmp	r3, #29
 7321              	.LBB2235:
 7322              	.LBB2230:
 7323              	.LBB2225:
 244:../../libdaisy/src/dev/oled_ssd130x.h ****         else
 7324              		.loc 6 244 42 view .LVU2005
 7325 046a 0D75     		strb	r5, [r1, #20]
 7326              	.LVL470:
 244:../../libdaisy/src/dev/oled_ssd130x.h ****         else
 7327              		.loc 6 244 42 view .LVU2006
 7328              	.LBE2225:
 7329              	.LBE2230:
 7330              	.LBE2235:
 199:../../libdaisy/src/hid/disp/display.h ****         {
 7331              		.loc 5 199 26 is_stmt 1 view .LVU2007
 7332 046c 12D0     		beq	.L594
 7333              	.LVL471:
 7334              	.L501:
 7335              	.LBB2236:
 7336              	.LBI2212:
  41:../../libdaisy/src/hid/disp/oled_display.h ****     {
 7337              		.loc 1 41 10 view .LVU2008
 7338              	.LBB2231:
 7339              	.LBI2213:
 239:../../libdaisy/src/dev/oled_ssd130x.h ****     {
 7340              		.loc 6 239 10 view .LVU2009
 7341              	.LBB2226:
 7342              	.LBB2215:
 7343              	.LBI2215:
 239:../../libdaisy/src/dev/oled_ssd130x.h ****     {
 7344              		.loc 6 239 10 view .LVU2010
 239:../../libdaisy/src/dev/oled_ssd130x.h ****     {
 7345              		.loc 6 239 10 is_stmt 0 view .LVU2011
 7346              	.LBE2215:
 244:../../libdaisy/src/dev/oled_ssd130x.h ****         else
 7347              		.loc 6 244 42 view .LVU2012
 7348 046e 1901     		lsls	r1, r3, #4
 244:../../libdaisy/src/dev/oled_ssd130x.h ****         else
 7349              		.loc 6 244 54 view .LVU2013
 7350 0470 03F00707 		and	r7, r3, #7
 244:../../libdaisy/src/dev/oled_ssd130x.h ****         else
 7351              		.loc 6 244 48 view .LVU2014
 7352 0474 0125     		movs	r5, #1
 244:../../libdaisy/src/dev/oled_ssd130x.h ****         else
 7353              		.loc 6 244 42 view .LVU2015
 7354 0476 41F07F01 		orr	r1, r1, #127
 244:../../libdaisy/src/dev/oled_ssd130x.h ****         else
 7355              		.loc 6 244 48 view .LVU2016
 7356 047a BD40     		lsls	r5, r5, r7
 244:../../libdaisy/src/dev/oled_ssd130x.h ****         else
 7357              		.loc 6 244 42 view .LVU2017
 7358 047c 2144     		add	r1, r1, r4
 7359              	.LBB2220:
 7360              	.LBB2216:
ARM GAS  C:\Users\VINCIU~1\AppData\Local\Temp\ccYgfSqf.s 			page 188


 246:../../libdaisy/src/dev/oled_ssd130x.h ****     }
 7361              		.loc 6 246 42 view .LVU2018
 7362 047e 0A46     		mov	r2, r1
 7363              	.LBE2216:
 7364              	.LBE2220:
 243:../../libdaisy/src/dev/oled_ssd130x.h ****             buffer_[x + (y / 8) * width] |= (1 << (y % 8));
 7365              		.loc 6 243 9 view .LVU2019
 7366 0480 0028     		cmp	r0, #0
 7367 0482 EED1     		bne	.L595
 7368              	.LBB2221:
 7369              	.LBB2217:
 246:../../libdaisy/src/dev/oled_ssd130x.h ****     }
 7370              		.loc 6 246 42 view .LVU2020
 7371 0484 097D     		ldrb	r1, [r1, #20]	@ zero_extendqisi2
 7372              	.LBE2217:
 7373              	.LBE2221:
 7374              	.LBE2226:
 7375              	.LBE2231:
 7376              	.LBE2236:
 212:../../libdaisy/src/hid/disp/display.h ****             }
 7377              		.loc 5 212 20 view .LVU2021
 7378 0486 0133     		adds	r3, r3, #1
 7379              	.LVL472:
 7380              	.LBB2237:
 7381              	.LBB2232:
 7382              	.LBB2227:
 7383              	.LBB2222:
 7384              	.LBB2218:
 246:../../libdaisy/src/dev/oled_ssd130x.h ****     }
 7385              		.loc 6 246 42 view .LVU2022
 7386 0488 21EA050C 		bic	ip, r1, r5
 7387              	.LBE2218:
 7388              	.LBE2222:
 7389              	.LBE2227:
 7390              	.LBE2232:
 7391              	.LBE2237:
 199:../../libdaisy/src/hid/disp/display.h ****         {
 7392              		.loc 5 199 26 view .LVU2023
 7393 048c 1D2B     		cmp	r3, #29
 7394              	.LBB2238:
 7395              	.LBB2233:
 7396              	.LBB2228:
 7397              	.LBB2223:
 7398              	.LBB2219:
 246:../../libdaisy/src/dev/oled_ssd130x.h ****     }
 7399              		.loc 6 246 42 view .LVU2024
 7400 048e 82F814C0 		strb	ip, [r2, #20]
 7401              	.LVL473:
 246:../../libdaisy/src/dev/oled_ssd130x.h ****     }
 7402              		.loc 6 246 42 view .LVU2025
 7403              	.LBE2219:
 7404              	.LBE2223:
 7405              	.LBE2228:
 7406              	.LBE2233:
 7407              	.LBE2238:
 199:../../libdaisy/src/hid/disp/display.h ****         {
 7408              		.loc 5 199 26 is_stmt 1 view .LVU2026
ARM GAS  C:\Users\VINCIU~1\AppData\Local\Temp\ccYgfSqf.s 			page 189


 7409 0492 ECD1     		bne	.L501
 7410              	.L594:
 7411              	.LVL474:
 199:../../libdaisy/src/hid/disp/display.h ****         {
 7412              		.loc 5 199 26 is_stmt 0 view .LVU2027
 7413              	.LBE2240:
 7414              	.LBE2242:
 7415              	.LBB2243:
 7416              	.LBI2243:
 181:../../libdaisy/src/hid/disp/display.h ****                   uint_fast8_t y1,
 7417              		.loc 5 181 10 is_stmt 1 view .LVU2028
 7418              	.LBB2244:
 7419              	.LBB2245:
 7420              	.LBI2245:
  41:../../libdaisy/src/hid/disp/oled_display.h ****     {
 7421              		.loc 1 41 10 view .LVU2029
 7422              	.LBB2246:
 7423              	.LBI2246:
 239:../../libdaisy/src/dev/oled_ssd130x.h ****     {
 7424              		.loc 6 239 10 view .LVU2030
 7425              	.LBB2247:
 244:../../libdaisy/src/dev/oled_ssd130x.h ****         else
 7426              		.loc 6 244 42 is_stmt 0 view .LVU2031
 7427 0494 94F8D021 		ldrb	r2, [r4, #464]	@ zero_extendqisi2
 243:../../libdaisy/src/dev/oled_ssd130x.h ****             buffer_[x + (y / 8) * width] |= (1 << (y % 8));
 7428              		.loc 6 243 9 view .LVU2032
 7429 0498 0028     		cmp	r0, #0
 7430 049a 00F01281 		beq	.L502
 7431              	.LVL475:
 244:../../libdaisy/src/dev/oled_ssd130x.h ****         else
 7432              		.loc 6 244 42 view .LVU2033
 7433 049e 42F02002 		orr	r2, r2, #32
 7434              	.LVL476:
 7435              	.L503:
 244:../../libdaisy/src/dev/oled_ssd130x.h ****         else
 7436              		.loc 6 244 42 view .LVU2034
 7437 04a2 84F8D021 		strb	r2, [r4, #464]
 7438              	.LVL477:
 244:../../libdaisy/src/dev/oled_ssd130x.h ****         else
 7439              		.loc 6 244 42 view .LVU2035
 7440              	.LBE2247:
 7441              	.LBE2246:
 7442              	.LBE2245:
 199:../../libdaisy/src/hid/disp/display.h ****         {
 7443              		.loc 5 199 26 is_stmt 1 view .LVU2036
 7444 04a6 04F5E875 		add	r5, r4, #464
 7445 04aa 04F21322 		addw	r2, r4, #531
 7446 04ae 05E0     		b	.L506
 7447              	.LVL478:
 7448              	.L597:
 7449              	.LBB2252:
 7450              	.LBB2253:
 7451              	.LBB2254:
 244:../../libdaisy/src/dev/oled_ssd130x.h ****         else
 7452              		.loc 6 244 42 is_stmt 0 view .LVU2037
 7453 04b0 41F02001 		orr	r1, r1, #32
 7454              	.LBE2254:
ARM GAS  C:\Users\VINCIU~1\AppData\Local\Temp\ccYgfSqf.s 			page 190


 7455              	.LBE2253:
 7456              	.LBE2252:
 199:../../libdaisy/src/hid/disp/display.h ****         {
 7457              		.loc 5 199 26 view .LVU2038
 7458 04b4 013A     		subs	r2, r2, #1
 7459              	.LVL479:
 7460              	.LBB2266:
 7461              	.LBB2263:
 7462              	.LBB2260:
 244:../../libdaisy/src/dev/oled_ssd130x.h ****         else
 7463              		.loc 6 244 42 view .LVU2039
 7464 04b6 5170     		strb	r1, [r2, #1]
 7465              	.LVL480:
 244:../../libdaisy/src/dev/oled_ssd130x.h ****         else
 7466              		.loc 6 244 42 view .LVU2040
 7467              	.LBE2260:
 7468              	.LBE2263:
 7469              	.LBE2266:
 199:../../libdaisy/src/hid/disp/display.h ****         {
 7470              		.loc 5 199 26 is_stmt 1 view .LVU2041
 7471 04b8 9542     		cmp	r5, r2
 7472 04ba 08D0     		beq	.L596
 7473              	.LVL481:
 7474              	.L506:
 7475              	.LBB2267:
 7476              	.LBI2252:
  41:../../libdaisy/src/hid/disp/oled_display.h ****     {
 7477              		.loc 1 41 10 view .LVU2042
 7478              	.LBB2264:
 7479              	.LBI2253:
 239:../../libdaisy/src/dev/oled_ssd130x.h ****     {
 7480              		.loc 6 239 10 view .LVU2043
 7481              	.LBB2261:
 7482              	.LBB2255:
 7483              	.LBI2255:
 239:../../libdaisy/src/dev/oled_ssd130x.h ****     {
 7484              		.loc 6 239 10 view .LVU2044
 239:../../libdaisy/src/dev/oled_ssd130x.h ****     {
 7485              		.loc 6 239 10 is_stmt 0 view .LVU2045
 7486              	.LBE2255:
 244:../../libdaisy/src/dev/oled_ssd130x.h ****         else
 7487              		.loc 6 244 42 view .LVU2046
 7488 04bc 1178     		ldrb	r1, [r2]	@ zero_extendqisi2
 243:../../libdaisy/src/dev/oled_ssd130x.h ****             buffer_[x + (y / 8) * width] |= (1 << (y % 8));
 7489              		.loc 6 243 9 view .LVU2047
 7490 04be 0028     		cmp	r0, #0
 7491 04c0 F6D1     		bne	.L597
 7492              	.LBB2258:
 7493              	.LBB2256:
 246:../../libdaisy/src/dev/oled_ssd130x.h ****     }
 7494              		.loc 6 246 42 view .LVU2048
 7495 04c2 21F02001 		bic	r1, r1, #32
 7496              	.LBE2256:
 7497              	.LBE2258:
 7498              	.LBE2261:
 7499              	.LBE2264:
 7500              	.LBE2267:
ARM GAS  C:\Users\VINCIU~1\AppData\Local\Temp\ccYgfSqf.s 			page 191


 199:../../libdaisy/src/hid/disp/display.h ****         {
 7501              		.loc 5 199 26 view .LVU2049
 7502 04c6 013A     		subs	r2, r2, #1
 7503              	.LVL482:
 7504              	.LBB2268:
 7505              	.LBB2265:
 7506              	.LBB2262:
 7507              	.LBB2259:
 7508              	.LBB2257:
 246:../../libdaisy/src/dev/oled_ssd130x.h ****     }
 7509              		.loc 6 246 42 view .LVU2050
 7510 04c8 5170     		strb	r1, [r2, #1]
 7511              	.LVL483:
 246:../../libdaisy/src/dev/oled_ssd130x.h ****     }
 7512              		.loc 6 246 42 view .LVU2051
 7513              	.LBE2257:
 7514              	.LBE2259:
 7515              	.LBE2262:
 7516              	.LBE2265:
 7517              	.LBE2268:
 199:../../libdaisy/src/hid/disp/display.h ****         {
 7518              		.loc 5 199 26 is_stmt 1 view .LVU2052
 7519 04ca 9542     		cmp	r5, r2
 7520 04cc F6D1     		bne	.L506
 7521              	.L596:
 7522              	.LVL484:
 199:../../libdaisy/src/hid/disp/display.h ****         {
 7523              		.loc 5 199 26 is_stmt 0 view .LVU2053
 7524              	.LBE2244:
 7525              	.LBE2243:
 7526              	.LBB2271:
 7527              	.LBI2271:
 181:../../libdaisy/src/hid/disp/display.h ****                   uint_fast8_t y1,
 7528              		.loc 5 181 10 is_stmt 1 view .LVU2054
 7529              	.LBB2272:
 7530              	.LBB2273:
 7531              	.LBI2273:
  41:../../libdaisy/src/hid/disp/oled_display.h ****     {
 7532              		.loc 1 41 10 view .LVU2055
 7533              	.LBB2274:
 7534              	.LBI2274:
 239:../../libdaisy/src/dev/oled_ssd130x.h ****     {
 7535              		.loc 6 239 10 view .LVU2056
 7536              	.LBB2275:
 244:../../libdaisy/src/dev/oled_ssd130x.h ****         else
 7537              		.loc 6 244 42 is_stmt 0 view .LVU2057
 7538 04ce 94F85020 		ldrb	r2, [r4, #80]	@ zero_extendqisi2
 243:../../libdaisy/src/dev/oled_ssd130x.h ****             buffer_[x + (y / 8) * width] |= (1 << (y % 8));
 7539              		.loc 6 243 9 view .LVU2058
 7540 04d2 0028     		cmp	r0, #0
 7541 04d4 00F0F280 		beq	.L507
 7542              	.LVL485:
 244:../../libdaisy/src/dev/oled_ssd130x.h ****         else
 7543              		.loc 6 244 42 view .LVU2059
 7544 04d8 42F00102 		orr	r2, r2, #1
 7545              	.LVL486:
 7546              	.L508:
ARM GAS  C:\Users\VINCIU~1\AppData\Local\Temp\ccYgfSqf.s 			page 192


 244:../../libdaisy/src/dev/oled_ssd130x.h ****         else
 7547              		.loc 6 244 42 view .LVU2060
 7548 04dc 84F85020 		strb	r2, [r4, #80]
 7549              	.LVL487:
 244:../../libdaisy/src/dev/oled_ssd130x.h ****         else
 7550              		.loc 6 244 42 view .LVU2061
 7551              	.LBE2275:
 7552              	.LBE2274:
 7553              	.LBE2273:
 199:../../libdaisy/src/hid/disp/display.h ****         {
 7554              		.loc 5 199 26 is_stmt 1 view .LVU2062
 7555 04e0 06E0     		b	.L511
 7556              	.LVL488:
 7557              	.L598:
 7558              	.LBB2280:
 7559              	.LBB2281:
 7560              	.LBB2282:
 244:../../libdaisy/src/dev/oled_ssd130x.h ****         else
 7561              		.loc 6 244 42 is_stmt 0 view .LVU2063
 7562 04e2 95F85020 		ldrb	r2, [r5, #80]	@ zero_extendqisi2
 7563 04e6 1143     		orrs	r1, r1, r2
 7564 04e8 85F85010 		strb	r1, [r5, #80]
 7565              	.L510:
 7566              	.LVL489:
 244:../../libdaisy/src/dev/oled_ssd130x.h ****         else
 7567              		.loc 6 244 42 view .LVU2064
 7568              	.LBE2282:
 7569              	.LBE2281:
 7570              	.LBE2280:
 199:../../libdaisy/src/hid/disp/display.h ****         {
 7571              		.loc 5 199 26 is_stmt 1 view .LVU2065
 7572 04ec 013B     		subs	r3, r3, #1
 7573              	.LVL490:
 199:../../libdaisy/src/hid/disp/display.h ****         {
 7574              		.loc 5 199 26 is_stmt 0 view .LVU2066
 7575 04ee 1BD0     		beq	.L485
 7576              	.LVL491:
 7577              	.L511:
 7578              	.LBB2290:
 7579              	.LBI2280:
  41:../../libdaisy/src/hid/disp/oled_display.h ****     {
 7580              		.loc 1 41 10 is_stmt 1 view .LVU2067
 7581              	.LBB2289:
 7582              	.LBI2281:
 239:../../libdaisy/src/dev/oled_ssd130x.h ****     {
 7583              		.loc 6 239 10 view .LVU2068
 7584              	.LBB2288:
 7585              	.LBB2283:
 7586              	.LBI2283:
 239:../../libdaisy/src/dev/oled_ssd130x.h ****     {
 7587              		.loc 6 239 10 view .LVU2069
 239:../../libdaisy/src/dev/oled_ssd130x.h ****     {
 7588              		.loc 6 239 10 is_stmt 0 view .LVU2070
 7589              	.LBE2283:
 244:../../libdaisy/src/dev/oled_ssd130x.h ****         else
 7590              		.loc 6 244 48 view .LVU2071
 7591 04f0 0121     		movs	r1, #1
ARM GAS  C:\Users\VINCIU~1\AppData\Local\Temp\ccYgfSqf.s 			page 193


 244:../../libdaisy/src/dev/oled_ssd130x.h ****         else
 7592              		.loc 6 244 28 view .LVU2072
 7593 04f2 DD08     		lsrs	r5, r3, #3
 244:../../libdaisy/src/dev/oled_ssd130x.h ****         else
 7594              		.loc 6 244 54 view .LVU2073
 7595 04f4 03F0070C 		and	ip, r3, #7
 7596              	.LBB2286:
 7597              	.LBB2284:
 246:../../libdaisy/src/dev/oled_ssd130x.h ****     }
 7598              		.loc 6 246 49 view .LVU2074
 7599 04f8 0F46     		mov	r7, r1
 7600              	.LBE2284:
 7601              	.LBE2286:
 244:../../libdaisy/src/dev/oled_ssd130x.h ****         else
 7602              		.loc 6 244 42 view .LVU2075
 7603 04fa 04EBC515 		add	r5, r4, r5, lsl #7
 244:../../libdaisy/src/dev/oled_ssd130x.h ****         else
 7604              		.loc 6 244 48 view .LVU2076
 7605 04fe 01FA0CF1 		lsl	r1, r1, ip
 243:../../libdaisy/src/dev/oled_ssd130x.h ****             buffer_[x + (y / 8) * width] |= (1 << (y % 8));
 7606              		.loc 6 243 9 view .LVU2077
 7607 0502 0028     		cmp	r0, #0
 7608 0504 EDD1     		bne	.L598
 7609              	.LBB2287:
 7610              	.LBB2285:
 246:../../libdaisy/src/dev/oled_ssd130x.h ****     }
 7611              		.loc 6 246 42 view .LVU2078
 7612 0506 95F85010 		ldrb	r1, [r5, #80]	@ zero_extendqisi2
 246:../../libdaisy/src/dev/oled_ssd130x.h ****     }
 7613              		.loc 6 246 49 view .LVU2079
 7614 050a 07FA0CF7 		lsl	r7, r7, ip
 246:../../libdaisy/src/dev/oled_ssd130x.h ****     }
 7615              		.loc 6 246 42 view .LVU2080
 7616 050e 21EA0707 		bic	r7, r1, r7
 7617 0512 85F85070 		strb	r7, [r5, #80]
 7618 0516 E9E7     		b	.L510
 7619              	.LVL492:
 7620              	.L584:
 246:../../libdaisy/src/dev/oled_ssd130x.h ****     }
 7621              		.loc 6 246 42 view .LVU2081
 7622              	.LBE2285:
 7623              	.LBE2287:
 7624              	.LBE2288:
 7625              	.LBE2289:
 7626              	.LBE2290:
 7627              	.LBE2272:
 7628              	.LBE2271:
 7629              	.LBE2297:
 7630              	.LBE2322:
 161:Menus.cpp     ****         this->OscSelector = !this->OscSelector;
 7631              		.loc 2 161 9 is_stmt 1 view .LVU2082
 161:Menus.cpp     ****         this->OscSelector = !this->OscSelector;
 7632              		.loc 2 161 29 is_stmt 0 view .LVU2083
 7633 0518 95F87430 		ldrb	r3, [r5, #116]	@ zero_extendqisi2
 7634 051c 83F00103 		eor	r3, r3, #1
 161:Menus.cpp     ****         this->OscSelector = !this->OscSelector;
 7635              		.loc 2 161 27 view .LVU2084
ARM GAS  C:\Users\VINCIU~1\AppData\Local\Temp\ccYgfSqf.s 			page 194


 7636 0520 85F87430 		strb	r3, [r5, #116]
 162:Menus.cpp     ****         on                = this->OscSelector;
 7637              		.loc 2 162 9 is_stmt 1 view .LVU2085
 162:Menus.cpp     ****         on                = this->OscSelector;
 7638              		.loc 2 162 27 is_stmt 0 view .LVU2086
 7639 0524 85F8BC31 		strb	r3, [r5, #444]
 7640              	.LVL493:
 7641              	.L485:
 162:Menus.cpp     ****         on                = this->OscSelector;
 7642              		.loc 2 162 27 view .LVU2087
 7643              	.LBE2356:
 7644              	.LBB2357:
 7645              	.LBB2358:
 7646              	.LBB2359:
 7647              	.LBB2360:
 7648              	.LBB2361:
 111:../../libdaisy/src/dev/oled_ssd130x.h ****         spi_.BlockingTransmit(&cmd, 1);
 7649              		.loc 6 111 24 view .LVU2088
 7650 0528 04F10807 		add	r7, r4, #8
 112:../../libdaisy/src/dev/oled_ssd130x.h ****     };
 7651              		.loc 6 112 30 view .LVU2089
 7652 052c B025     		movs	r5, #176
 111:../../libdaisy/src/dev/oled_ssd130x.h ****         spi_.BlockingTransmit(&cmd, 1);
 7653              		.loc 6 111 24 view .LVU2090
 7654 052e 1034     		adds	r4, r4, #16
 7655              	.LVL494:
 7656              	.L540:
 111:../../libdaisy/src/dev/oled_ssd130x.h ****         spi_.BlockingTransmit(&cmd, 1);
 7657              		.loc 6 111 24 view .LVU2091
 7658 0530 4FF00008 		mov	r8, #0
 111:../../libdaisy/src/dev/oled_ssd130x.h ****         spi_.BlockingTransmit(&cmd, 1);
 7659              		.loc 6 111 23 view .LVU2092
 7660 0534 2046     		mov	r0, r4
 7661 0536 8DF81750 		strb	r5, [sp, #23]
 7662              	.LVL495:
 111:../../libdaisy/src/dev/oled_ssd130x.h ****         spi_.BlockingTransmit(&cmd, 1);
 7663              		.loc 6 111 23 view .LVU2093
 7664              	.LBE2361:
 7665              	.LBI2360:
 109:../../libdaisy/src/dev/oled_ssd130x.h ****     {
 7666              		.loc 6 109 10 is_stmt 1 view .LVU2094
 7667              	.LBB2362:
 111:../../libdaisy/src/dev/oled_ssd130x.h ****         spi_.BlockingTransmit(&cmd, 1);
 7668              		.loc 6 111 9 view .LVU2095
 7669              	.LBE2362:
 7670              	.LBE2360:
 7671              		.loc 6 270 22 is_stmt 0 view .LVU2096
 7672 053a 0135     		adds	r5, r5, #1
 7673              	.LVL496:
 7674              	.LBB2365:
 7675              	.LBB2363:
 111:../../libdaisy/src/dev/oled_ssd130x.h ****         spi_.BlockingTransmit(&cmd, 1);
 7676              		.loc 6 111 23 view .LVU2097
 7677 053c 4146     		mov	r1, r8
 7678 053e FFF7FEFF 		bl	dsy_gpio_write
 7679              	.LVL497:
 112:../../libdaisy/src/dev/oled_ssd130x.h ****     };
ARM GAS  C:\Users\VINCIU~1\AppData\Local\Temp\ccYgfSqf.s 			page 195


 7680              		.loc 6 112 9 is_stmt 1 view .LVU2098
 112:../../libdaisy/src/dev/oled_ssd130x.h ****     };
 7681              		.loc 6 112 30 is_stmt 0 view .LVU2099
 7682 0542 6423     		movs	r3, #100
 7683 0544 0122     		movs	r2, #1
 7684 0546 0DF11701 		add	r1, sp, #23
 7685 054a 3846     		mov	r0, r7
 7686              	.LBE2363:
 7687              	.LBE2365:
 7688              		.loc 6 270 22 view .LVU2100
 7689 054c EDB2     		uxtb	r5, r5
 7690              	.LBB2366:
 7691              	.LBB2364:
 112:../../libdaisy/src/dev/oled_ssd130x.h ****     };
 7692              		.loc 6 112 30 view .LVU2101
 7693 054e FFF7FEFF 		bl	_ZN5daisy9SpiHandle16BlockingTransmitEPhjm
 7694              	.LVL498:
 112:../../libdaisy/src/dev/oled_ssd130x.h ****     };
 7695              		.loc 6 112 30 view .LVU2102
 7696              	.LBE2364:
 7697              	.LBE2366:
 7698              	.LBB2367:
 7699              	.LBB2368:
 111:../../libdaisy/src/dev/oled_ssd130x.h ****         spi_.BlockingTransmit(&cmd, 1);
 7700              		.loc 6 111 23 view .LVU2103
 7701 0552 4146     		mov	r1, r8
 7702 0554 2046     		mov	r0, r4
 7703 0556 8DF81780 		strb	r8, [sp, #23]
 7704              	.LVL499:
 111:../../libdaisy/src/dev/oled_ssd130x.h ****         spi_.BlockingTransmit(&cmd, 1);
 7705              		.loc 6 111 23 view .LVU2104
 7706              	.LBE2368:
 7707              	.LBI2367:
 109:../../libdaisy/src/dev/oled_ssd130x.h ****     {
 7708              		.loc 6 109 10 is_stmt 1 view .LVU2105
 7709              	.LBB2369:
 111:../../libdaisy/src/dev/oled_ssd130x.h ****         spi_.BlockingTransmit(&cmd, 1);
 7710              		.loc 6 111 9 view .LVU2106
 111:../../libdaisy/src/dev/oled_ssd130x.h ****         spi_.BlockingTransmit(&cmd, 1);
 7711              		.loc 6 111 23 is_stmt 0 view .LVU2107
 7712 055a FFF7FEFF 		bl	dsy_gpio_write
 7713              	.LVL500:
 112:../../libdaisy/src/dev/oled_ssd130x.h ****     };
 7714              		.loc 6 112 9 is_stmt 1 view .LVU2108
 112:../../libdaisy/src/dev/oled_ssd130x.h ****     };
 7715              		.loc 6 112 30 is_stmt 0 view .LVU2109
 7716 055e 0122     		movs	r2, #1
 7717 0560 6423     		movs	r3, #100
 7718 0562 0DF11701 		add	r1, sp, #23
 7719 0566 3846     		mov	r0, r7
 7720 0568 FFF7FEFF 		bl	_ZN5daisy9SpiHandle16BlockingTransmitEPhjm
 7721              	.LVL501:
 112:../../libdaisy/src/dev/oled_ssd130x.h ****     };
 7722              		.loc 6 112 30 view .LVU2110
 7723 056c 1023     		movs	r3, #16
 7724              	.LBE2369:
 7725              	.LBE2367:
ARM GAS  C:\Users\VINCIU~1\AppData\Local\Temp\ccYgfSqf.s 			page 196


 7726              	.LBB2370:
 7727              	.LBB2371:
 111:../../libdaisy/src/dev/oled_ssd130x.h ****         spi_.BlockingTransmit(&cmd, 1);
 7728              		.loc 6 111 23 view .LVU2111
 7729 056e 4146     		mov	r1, r8
 7730 0570 2046     		mov	r0, r4
 7731 0572 8DF81730 		strb	r3, [sp, #23]
 7732              	.LVL502:
 111:../../libdaisy/src/dev/oled_ssd130x.h ****         spi_.BlockingTransmit(&cmd, 1);
 7733              		.loc 6 111 23 view .LVU2112
 7734              	.LBE2371:
 7735              	.LBI2370:
 109:../../libdaisy/src/dev/oled_ssd130x.h ****     {
 7736              		.loc 6 109 10 is_stmt 1 view .LVU2113
 7737              	.LBB2372:
 111:../../libdaisy/src/dev/oled_ssd130x.h ****         spi_.BlockingTransmit(&cmd, 1);
 7738              		.loc 6 111 9 view .LVU2114
 111:../../libdaisy/src/dev/oled_ssd130x.h ****         spi_.BlockingTransmit(&cmd, 1);
 7739              		.loc 6 111 23 is_stmt 0 view .LVU2115
 7740 0576 FFF7FEFF 		bl	dsy_gpio_write
 7741              	.LVL503:
 112:../../libdaisy/src/dev/oled_ssd130x.h ****     };
 7742              		.loc 6 112 9 is_stmt 1 view .LVU2116
 112:../../libdaisy/src/dev/oled_ssd130x.h ****     };
 7743              		.loc 6 112 30 is_stmt 0 view .LVU2117
 7744 057a 6423     		movs	r3, #100
 7745 057c 0122     		movs	r2, #1
 7746 057e 0DF11701 		add	r1, sp, #23
 7747 0582 3846     		mov	r0, r7
 7748 0584 FFF7FEFF 		bl	_ZN5daisy9SpiHandle16BlockingTransmitEPhjm
 7749              	.LVL504:
 112:../../libdaisy/src/dev/oled_ssd130x.h ****     };
 7750              		.loc 6 112 30 view .LVU2118
 7751              	.LBE2372:
 7752              	.LBE2370:
 7753              	.LBB2373:
 7754              	.LBI2373:
 115:../../libdaisy/src/dev/oled_ssd130x.h ****     {
 7755              		.loc 6 115 10 is_stmt 1 view .LVU2119
 7756              	.LBB2374:
 117:../../libdaisy/src/dev/oled_ssd130x.h ****         spi_.BlockingTransmit(buff, size);
 7757              		.loc 6 117 9 view .LVU2120
 117:../../libdaisy/src/dev/oled_ssd130x.h ****         spi_.BlockingTransmit(buff, size);
 7758              		.loc 6 117 23 is_stmt 0 view .LVU2121
 7759 0588 0121     		movs	r1, #1
 7760 058a 2046     		mov	r0, r4
 7761 058c FFF7FEFF 		bl	dsy_gpio_write
 7762              	.LVL505:
 118:../../libdaisy/src/dev/oled_ssd130x.h ****     };
 7763              		.loc 6 118 9 is_stmt 1 view .LVU2122
 118:../../libdaisy/src/dev/oled_ssd130x.h ****     };
 7764              		.loc 6 118 30 is_stmt 0 view .LVU2123
 7765 0590 8022     		movs	r2, #128
 7766 0592 3146     		mov	r1, r6
 7767 0594 6423     		movs	r3, #100
 7768 0596 3846     		mov	r0, r7
 7769              	.LBE2374:
ARM GAS  C:\Users\VINCIU~1\AppData\Local\Temp\ccYgfSqf.s 			page 197


 7770              	.LBE2373:
 7771              		.loc 6 270 22 view .LVU2124
 7772 0598 1644     		add	r6, r6, r2
 7773              	.LVL506:
 7774              	.LBB2376:
 7775              	.LBB2375:
 118:../../libdaisy/src/dev/oled_ssd130x.h ****     };
 7776              		.loc 6 118 30 view .LVU2125
 7777 059a FFF7FEFF 		bl	_ZN5daisy9SpiHandle16BlockingTransmitEPhjm
 7778              	.LVL507:
 118:../../libdaisy/src/dev/oled_ssd130x.h ****     };
 7779              		.loc 6 118 30 view .LVU2126
 7780              	.LBE2375:
 7781              	.LBE2376:
 7782              		.loc 6 270 9 is_stmt 1 view .LVU2127
 7783              		.loc 6 270 22 view .LVU2128
 7784 059e B82D     		cmp	r5, #184
 7785 05a0 C6D1     		bne	.L540
 7786              	.LBE2359:
 7787              	.LBE2358:
 7788              	.LBE2357:
 425:Menus.cpp     **** }
 7789              		.loc 2 425 1 is_stmt 0 view .LVU2129
 7790 05a2 07B0     		add	sp, sp, #28
 7791              		.cfi_remember_state
 7792              		.cfi_def_cfa_offset 36
 7793              		@ sp needed
 7794 05a4 BDEC028B 		vldm	sp!, {d8}
 7795              		.cfi_restore 80
 7796              		.cfi_restore 81
 7797              		.cfi_def_cfa_offset 28
 7798 05a8 BDE8F083 		pop	{r4, r5, r6, r7, r8, r9, pc}
 7799              	.LVL508:
 7800              	.L579:
 7801              		.cfi_restore_state
 100:Menus.cpp     ****         menuState = menuState - 1;
 7802              		.loc 2 100 9 is_stmt 1 view .LVU2130
 101:Menus.cpp     ****         if(menuState < 0)
 7803              		.loc 2 101 9 view .LVU2131
 100:Menus.cpp     ****         menuState = menuState - 1;
 7804              		.loc 2 100 31 is_stmt 0 view .LVU2132
 7805 05ac EB6E     		ldr	r3, [r5, #108]
 101:Menus.cpp     ****         if(menuState < 0)
 7806              		.loc 2 101 9 view .LVU2133
 7807 05ae 013B     		subs	r3, r3, #1
 7808 05b0 7CD4     		bmi	.L465
 100:Menus.cpp     ****         menuState = menuState - 1;
 7809              		.loc 2 100 19 view .LVU2134
 7810 05b2 EB66     		str	r3, [r5, #108]
 106:Menus.cpp     ****     if(this->buttonRight.RisingEdge())
 7811              		.loc 2 106 5 is_stmt 1 view .LVU2135
 7812              	.LVL509:
 7813              	.LBB2377:
 7814              		.loc 4 69 17 view .LVU2136
 7815              	.LBB2013:
 7816              		.loc 4 69 38 view .LVU2137
 7817              		.loc 4 69 38 is_stmt 0 view .LVU2138
ARM GAS  C:\Users\VINCIU~1\AppData\Local\Temp\ccYgfSqf.s 			page 198


 7818              	.LBE2013:
 7819              	.LBE2377:
 106:Menus.cpp     ****     if(this->buttonRight.RisingEdge())
 7820              		.loc 2 106 5 view .LVU2139
 7821 05b4 95F86130 		ldrb	r3, [r5, #97]	@ zero_extendqisi2
 7822 05b8 7F2B     		cmp	r3, #127
 7823 05ba 7FF440AD 		bne	.L467
 7824              	.L580:
 109:Menus.cpp     ****         menuState = menuState + 1;
 7825              		.loc 2 109 9 is_stmt 1 view .LVU2140
 109:Menus.cpp     ****         menuState = menuState + 1;
 7826              		.loc 2 109 31 is_stmt 0 view .LVU2141
 7827 05be EB6E     		ldr	r3, [r5, #108]
 7828 05c0 0133     		adds	r3, r3, #1
 110:Menus.cpp     ****         if(menuState > 3)
 7829              		.loc 2 110 9 view .LVU2142
 7830 05c2 032B     		cmp	r3, #3
 109:Menus.cpp     ****         menuState = menuState + 1;
 7831              		.loc 2 109 19 view .LVU2143
 7832 05c4 EB66     		str	r3, [r5, #108]
 110:Menus.cpp     ****         if(menuState > 3)
 7833              		.loc 2 110 9 is_stmt 1 view .LVU2144
 7834 05c6 7FF73AAD 		ble	.L467
 7835              	.L466:
 112:Menus.cpp     ****             menuState = 0;
 7836              		.loc 2 112 13 view .LVU2145
 112:Menus.cpp     ****             menuState = 0;
 7837              		.loc 2 112 23 is_stmt 0 view .LVU2146
 7838 05ca 0023     		movs	r3, #0
 7839 05cc EB66     		str	r3, [r5, #108]
 7840 05ce 36E5     		b	.L467
 7841              	.L590:
 7842              	.LBB2378:
 7843              	.LBB2323:
 168:Menus.cpp     ****             if(this->noteSemiAdd > 32)
 7844              		.loc 2 168 13 is_stmt 1 view .LVU2147
 7845 05d0 D5F86421 		ldr	r2, [r5, #356]
 176:Menus.cpp     ****             if(this->drawSliderSemi >= 40)
 7846              		.loc 2 176 22 is_stmt 0 view .LVU2148
 7847 05d4 D5ED1E7A 		vldr.32	s15, [r5, #120]
 176:Menus.cpp     ****             if(this->drawSliderSemi >= 40)
 7848              		.loc 2 176 13 view .LVU2149
 7849 05d8 9FED497A 		vldr.32	s14, .L606+4
 7850 05dc 22EAE272 		bic	r2, r2, r2, asr #31
 7851 05e0 F4EEC77A 		vcmpe.f32	s15, s14
 7852 05e4 202A     		cmp	r2, #32
 7853 05e6 A8BF     		it	ge
 7854 05e8 2022     		movge	r2, #32
 176:Menus.cpp     ****             if(this->drawSliderSemi >= 40)
 7855              		.loc 2 176 13 is_stmt 1 view .LVU2150
 7856 05ea F1EE10FA 		vmrs	APSR_nzcv, FPSCR
 7857 05ee 80F28280 		bge	.L546
 180:Menus.cpp     ****             if(this->drawSliderSemi < 0)
 7858              		.loc 2 180 13 view .LVU2151
 7859 05f2 F5EEC07A 		vcmpe.f32	s15, #0
 7860 05f6 F1EE10FA 		vmrs	APSR_nzcv, FPSCR
 7861 05fa 01D5     		bpl	.L488
ARM GAS  C:\Users\VINCIU~1\AppData\Local\Temp\ccYgfSqf.s 			page 199


 7862 05fc DFED417A 		vldr.32	s15, .L606+8
 7863              	.L488:
 184:Menus.cpp     ****             this->noteSemiAdd += this->encoderRight.Increment();
 7864              		.loc 2 184 13 view .LVU2152
 7865              	.LVL510:
 7866              	.LBB2298:
 7867              	.LBI2298:
  41:../../libdaisy/src/hid/encoder.h ****     /** Returns true if the encoder was just pressed.
 7868              		.loc 3 41 20 view .LVU2153
 7869              	.LBB2299:
  41:../../libdaisy/src/hid/encoder.h ****     /** Returns true if the encoder was just pressed.
 7870              		.loc 3 41 40 view .LVU2154
  41:../../libdaisy/src/hid/encoder.h ****     /** Returns true if the encoder was just pressed.
 7871              		.loc 3 41 40 is_stmt 0 view .LVU2155
 7872              	.LBE2299:
 7873              	.LBE2298:
 186:Menus.cpp     ****                 += (((float)this->encoderRight.Increment()) / 32) * 40;
 7874              		.loc 2 186 61 view .LVU2156
 7875 0600 D5ED126A 		vldr.32	s13, [r5, #72]	@ int
 187:Menus.cpp     ****             sprintf(this->buff, "Semi_%dst", this->noteSemiAdd);
 7876              		.loc 2 187 20 view .LVU2157
 7877 0604 05F1A400 		add	r0, r5, #164
 186:Menus.cpp     ****                 += (((float)this->encoderRight.Increment()) / 32) * 40;
 7878              		.loc 2 186 17 view .LVU2158
 7879 0608 9FED3D7A 		vldr.32	s14, .L606+4
 186:Menus.cpp     ****                 += (((float)this->encoderRight.Increment()) / 32) * 40;
 7880              		.loc 2 186 61 view .LVU2159
 7881 060c FAEEED6A 		vcvt.f32.s32	s13, s13, #5
 184:Menus.cpp     ****             this->noteSemiAdd += this->encoderRight.Increment();
 7882              		.loc 2 184 31 view .LVU2160
 7883 0610 AB6C     		ldr	r3, [r5, #72]
 187:Menus.cpp     ****             sprintf(this->buff, "Semi_%dst", this->noteSemiAdd);
 7884              		.loc 2 187 20 view .LVU2161
 7885 0612 3A49     		ldr	r1, .L606
 184:Menus.cpp     ****             this->noteSemiAdd += this->encoderRight.Increment();
 7886              		.loc 2 184 31 view .LVU2162
 7887 0614 1A44     		add	r2, r2, r3
 186:Menus.cpp     ****                 += (((float)this->encoderRight.Increment()) / 32) * 40;
 7888              		.loc 2 186 17 view .LVU2163
 7889 0616 E6EE877A 		vfma.f32	s15, s13, s14
 184:Menus.cpp     ****             this->noteSemiAdd += this->encoderRight.Increment();
 7890              		.loc 2 184 31 view .LVU2164
 7891 061a C5F86421 		str	r2, [r5, #356]
 185:Menus.cpp     ****             this->drawSliderSemi
 7892              		.loc 2 185 13 is_stmt 1 view .LVU2165
 7893              	.LVL511:
 185:Menus.cpp     ****             this->drawSliderSemi
 7894              		.loc 2 185 13 is_stmt 0 view .LVU2166
 7895              	.LBE2323:
 7896              	.LBE2378:
  41:../../libdaisy/src/hid/encoder.h ****     /** Returns true if the encoder was just pressed.
 7897              		.loc 3 41 40 is_stmt 1 view .LVU2167
 7898              	.LBB2379:
 7899              	.LBB2324:
 186:Menus.cpp     ****                 += (((float)this->encoderRight.Increment()) / 32) * 40;
 7900              		.loc 2 186 17 is_stmt 0 view .LVU2168
 7901 061e C5ED1E7A 		vstr.32	s15, [r5, #120]
ARM GAS  C:\Users\VINCIU~1\AppData\Local\Temp\ccYgfSqf.s 			page 200


 187:Menus.cpp     ****             sprintf(this->buff, "Semi_%dst", this->noteSemiAdd);
 7902              		.loc 2 187 13 is_stmt 1 view .LVU2169
 187:Menus.cpp     ****             sprintf(this->buff, "Semi_%dst", this->noteSemiAdd);
 7903              		.loc 2 187 20 is_stmt 0 view .LVU2170
 7904 0622 FFF7FEFF 		bl	sprintf
 7905              	.LVL512:
 214:Menus.cpp     ****         screen.DrawRect(
 7906              		.loc 2 214 9 is_stmt 1 view .LVU2171
 214:Menus.cpp     ****         screen.DrawRect(
 7907              		.loc 2 214 24 is_stmt 0 view .LVU2172
 7908 0626 95F8BC01 		ldrb	r0, [r5, #444]	@ zero_extendqisi2
 7909              	.LVL513:
 7910              	.LBB2300:
 217:../../libdaisy/src/hid/disp/display.h ****                   uint_fast8_t y1,
 7911              		.loc 5 217 10 is_stmt 1 view .LVU2173
 7912              	.LBB2293:
 181:../../libdaisy/src/hid/disp/display.h ****                   uint_fast8_t y1,
 7913              		.loc 5 181 10 view .LVU2174
 7914              	.LBB2202:
 7915              	.LBB2201:
  41:../../libdaisy/src/hid/disp/oled_display.h ****     {
 7916              		.loc 1 41 10 view .LVU2175
 7917              	.LBB2191:
 239:../../libdaisy/src/dev/oled_ssd130x.h ****     {
 7918              		.loc 6 239 10 view .LVU2176
 7919              	.LBB2190:
 244:../../libdaisy/src/dev/oled_ssd130x.h ****         else
 7920              		.loc 6 244 42 is_stmt 0 view .LVU2177
 7921 062a 94F89320 		ldrb	r2, [r4, #147]	@ zero_extendqisi2
 243:../../libdaisy/src/dev/oled_ssd130x.h ****             buffer_[x + (y / 8) * width] |= (1 << (y % 8));
 7922              		.loc 6 243 9 view .LVU2178
 7923 062e 0028     		cmp	r0, #0
 7924 0630 7FF4F4AE 		bne	.L599
 7925              	.LVL514:
 7926              	.L492:
 7927              	.LBB2188:
 7928              	.LBI2188:
 239:../../libdaisy/src/dev/oled_ssd130x.h ****     {
 7929              		.loc 6 239 10 is_stmt 1 view .LVU2179
 7930              	.LBB2189:
 246:../../libdaisy/src/dev/oled_ssd130x.h ****     }
 7931              		.loc 6 246 42 is_stmt 0 view .LVU2180
 7932 0634 02F0FE02 		and	r2, r2, #254
 7933 0638 F2E6     		b	.L493
 7934              	.LVL515:
 7935              	.L587:
 246:../../libdaisy/src/dev/oled_ssd130x.h ****     }
 7936              		.loc 6 246 42 view .LVU2181
 7937              	.LBE2189:
 7938              	.LBE2188:
 7939              	.LBE2190:
 7940              	.LBE2191:
 7941              	.LBE2201:
 7942              	.LBE2202:
 7943              	.LBE2293:
 7944              	.LBE2300:
 7945              	.LBE2324:
ARM GAS  C:\Users\VINCIU~1\AppData\Local\Temp\ccYgfSqf.s 			page 201


 7946              	.LBE2379:
 252:Menus.cpp     ****         if(this->OscSelector == true)
 7947              		.loc 2 252 9 is_stmt 1 view .LVU2182
 7948              	.LBB2380:
 7949              	.LBB2325:
 7950              	.LBB2301:
 7951              	.LBB2163:
 7952              	.LBB2080:
 7953 063a 95F87430 		ldrb	r3, [r5, #116]	@ zero_extendqisi2
 7954 063e 9BB1     		cbz	r3, .L518
 7955              	.LBB2081:
 254:Menus.cpp     ****             this->setWave += this->encoderRight.Increment();
 7956              		.loc 2 254 13 view .LVU2183
 7957              	.LVL516:
 7958              	.LBB2082:
 7959              	.LBI2082:
  41:../../libdaisy/src/hid/encoder.h ****     /** Returns true if the encoder was just pressed.
 7960              		.loc 3 41 20 view .LVU2184
 7961              	.LBB2083:
  41:../../libdaisy/src/hid/encoder.h ****     /** Returns true if the encoder was just pressed.
 7962              		.loc 3 41 40 view .LVU2185
  41:../../libdaisy/src/hid/encoder.h ****     /** Returns true if the encoder was just pressed.
 7963              		.loc 3 41 40 is_stmt 0 view .LVU2186
 7964              	.LBE2083:
 7965              	.LBE2082:
 254:Menus.cpp     ****             this->setWave += this->encoderRight.Increment();
 7966              		.loc 2 254 27 view .LVU2187
 7967 0640 D5F89031 		ldr	r3, [r5, #400]
 7968 0644 AA6C     		ldr	r2, [r5, #72]
 7969 0646 1344     		add	r3, r3, r2
 255:Menus.cpp     ****             if(setWave > 3)
 7970              		.loc 2 255 13 is_stmt 1 view .LVU2188
 7971 0648 032B     		cmp	r3, #3
 7972 064a 40F38280 		ble	.L519
 257:Menus.cpp     ****                 this->setWave = 3;
 7973              		.loc 2 257 17 view .LVU2189
 257:Menus.cpp     ****                 this->setWave = 3;
 7974              		.loc 2 257 31 is_stmt 0 view .LVU2190
 7975 064e 0323     		movs	r3, #3
 7976 0650 C5F89031 		str	r3, [r5, #400]
 259:Menus.cpp     ****             if(this->setWave < 0)
 7977              		.loc 2 259 13 is_stmt 1 view .LVU2191
 263:Menus.cpp     ****             if(this->setWave == 0)
 7978              		.loc 2 263 13 view .LVU2192
 7979              	.LBE2081:
 7980              	.LBE2080:
 7981              	.LBE2163:
 7982              	.LBE2301:
 7983              	.LBE2325:
 7984              	.LBE2380:
 271:Menus.cpp     ****             else if(setWave == 1)
 7985              		.loc 2 271 18 view .LVU2193
 7986              	.L520:
 7987              	.LVL517:
 7988              	.LBB2381:
 7989              	.LBB2326:
 7990              	.LBB2302:
ARM GAS  C:\Users\VINCIU~1\AppData\Local\Temp\ccYgfSqf.s 			page 202


 7991              	.LBB2164:
 7992              	.LBB2114:
 7993              	.LBB2109:
 7994              	.LBB2084:
 7995              	.LBB2085:
 7996              	.LBB2086:
 7997              	.LBB2087:
 289:Menus.cpp     ****                 for(int i = 0; i < 2; i++)
 7998              		.loc 2 289 34 view .LVU2194
 291:Menus.cpp     ****                     selectedWave = setWave;
 7999              		.loc 2 291 21 view .LVU2195
 292:Menus.cpp     ****                     osc[0].SetWaveform(osc[0].WAVE_SAW);
 8000              		.loc 2 292 21 view .LVU2196
 8001              	.LBB2088:
 8002              	.LBI2088:
 8003              		.file 7 "../../DaisySP/Source/Synthesis/oscillator.h"
   1:../../DaisySP/Source/Synthesis/oscillator.h **** #pragma once
   2:../../DaisySP/Source/Synthesis/oscillator.h **** #ifndef DSY_OSCILLATOR_H
   3:../../DaisySP/Source/Synthesis/oscillator.h **** #define DSY_OSCILLATOR_H
   4:../../DaisySP/Source/Synthesis/oscillator.h **** #include <stdint.h>
   5:../../DaisySP/Source/Synthesis/oscillator.h **** #include "Utility/dsp.h"
   6:../../DaisySP/Source/Synthesis/oscillator.h **** #ifdef __cplusplus
   7:../../DaisySP/Source/Synthesis/oscillator.h **** 
   8:../../DaisySP/Source/Synthesis/oscillator.h **** namespace daisysp
   9:../../DaisySP/Source/Synthesis/oscillator.h **** {
  10:../../DaisySP/Source/Synthesis/oscillator.h **** /** Synthesis of several waveforms, including polyBLEP bandlimited waveforms.
  11:../../DaisySP/Source/Synthesis/oscillator.h **** */
  12:../../DaisySP/Source/Synthesis/oscillator.h **** class Oscillator
  13:../../DaisySP/Source/Synthesis/oscillator.h **** {
  14:../../DaisySP/Source/Synthesis/oscillator.h ****   public:
  15:../../DaisySP/Source/Synthesis/oscillator.h ****     Oscillator() {}
  16:../../DaisySP/Source/Synthesis/oscillator.h ****     ~Oscillator() {}
  17:../../DaisySP/Source/Synthesis/oscillator.h ****     /** Choices for output waveforms, POLYBLEP are appropriately labeled. Others are naive forms.
  18:../../DaisySP/Source/Synthesis/oscillator.h ****     */
  19:../../DaisySP/Source/Synthesis/oscillator.h ****     enum
  20:../../DaisySP/Source/Synthesis/oscillator.h ****     {
  21:../../DaisySP/Source/Synthesis/oscillator.h ****         WAVE_SIN,
  22:../../DaisySP/Source/Synthesis/oscillator.h ****         WAVE_TRI,
  23:../../DaisySP/Source/Synthesis/oscillator.h ****         WAVE_SAW,
  24:../../DaisySP/Source/Synthesis/oscillator.h ****         WAVE_RAMP,
  25:../../DaisySP/Source/Synthesis/oscillator.h ****         WAVE_SQUARE,
  26:../../DaisySP/Source/Synthesis/oscillator.h ****         WAVE_POLYBLEP_TRI,
  27:../../DaisySP/Source/Synthesis/oscillator.h ****         WAVE_POLYBLEP_SAW,
  28:../../DaisySP/Source/Synthesis/oscillator.h ****         WAVE_POLYBLEP_SQUARE,
  29:../../DaisySP/Source/Synthesis/oscillator.h ****         WAVE_LAST,
  30:../../DaisySP/Source/Synthesis/oscillator.h ****     };
  31:../../DaisySP/Source/Synthesis/oscillator.h **** 
  32:../../DaisySP/Source/Synthesis/oscillator.h **** 
  33:../../DaisySP/Source/Synthesis/oscillator.h ****     /** Initializes the Oscillator
  34:../../DaisySP/Source/Synthesis/oscillator.h **** 
  35:../../DaisySP/Source/Synthesis/oscillator.h ****         \param sample_rate - sample rate of the audio engine being run, and the frequency that the 
  36:../../DaisySP/Source/Synthesis/oscillator.h **** 
  37:../../DaisySP/Source/Synthesis/oscillator.h ****         Defaults:
  38:../../DaisySP/Source/Synthesis/oscillator.h ****         - freq_ = 100 Hz
  39:../../DaisySP/Source/Synthesis/oscillator.h ****         - amp_ = 0.5
  40:../../DaisySP/Source/Synthesis/oscillator.h ****         - waveform_ = sine wave.
  41:../../DaisySP/Source/Synthesis/oscillator.h ****     */
ARM GAS  C:\Users\VINCIU~1\AppData\Local\Temp\ccYgfSqf.s 			page 203


  42:../../DaisySP/Source/Synthesis/oscillator.h ****     void Init(float sample_rate)
  43:../../DaisySP/Source/Synthesis/oscillator.h ****     {
  44:../../DaisySP/Source/Synthesis/oscillator.h ****         sr_        = sample_rate;
  45:../../DaisySP/Source/Synthesis/oscillator.h ****         sr_recip_  = 1.0f / sample_rate;
  46:../../DaisySP/Source/Synthesis/oscillator.h ****         freq_      = 100.0f;
  47:../../DaisySP/Source/Synthesis/oscillator.h ****         amp_       = 0.5f;
  48:../../DaisySP/Source/Synthesis/oscillator.h ****         phase_     = 0.0f;
  49:../../DaisySP/Source/Synthesis/oscillator.h ****         phase_inc_ = CalcPhaseInc(freq_);
  50:../../DaisySP/Source/Synthesis/oscillator.h ****         waveform_  = WAVE_SIN;
  51:../../DaisySP/Source/Synthesis/oscillator.h ****         eoc_       = true;
  52:../../DaisySP/Source/Synthesis/oscillator.h ****         eor_       = true;
  53:../../DaisySP/Source/Synthesis/oscillator.h ****     }
  54:../../DaisySP/Source/Synthesis/oscillator.h **** 
  55:../../DaisySP/Source/Synthesis/oscillator.h **** 
  56:../../DaisySP/Source/Synthesis/oscillator.h ****     /** Changes the frequency of the Oscillator, and recalculates phase increment.
  57:../../DaisySP/Source/Synthesis/oscillator.h ****     */
  58:../../DaisySP/Source/Synthesis/oscillator.h ****     inline void SetFreq(const float f)
  59:../../DaisySP/Source/Synthesis/oscillator.h ****     {
  60:../../DaisySP/Source/Synthesis/oscillator.h ****         freq_      = f;
  61:../../DaisySP/Source/Synthesis/oscillator.h ****         phase_inc_ = CalcPhaseInc(f);
  62:../../DaisySP/Source/Synthesis/oscillator.h ****     }
  63:../../DaisySP/Source/Synthesis/oscillator.h **** 
  64:../../DaisySP/Source/Synthesis/oscillator.h **** 
  65:../../DaisySP/Source/Synthesis/oscillator.h ****     /** Sets the amplitude of the waveform.
  66:../../DaisySP/Source/Synthesis/oscillator.h ****     */
  67:../../DaisySP/Source/Synthesis/oscillator.h ****     inline void SetAmp(const float a) { amp_ = a; }
  68:../../DaisySP/Source/Synthesis/oscillator.h ****     /** Sets the waveform to be synthesized by the Process() function.
  69:../../DaisySP/Source/Synthesis/oscillator.h ****     */
  70:../../DaisySP/Source/Synthesis/oscillator.h ****     inline void SetWaveform(const uint8_t wf)
 8004              		.loc 7 70 17 view .LVU2197
 8005              	.LBB2089:
  71:../../DaisySP/Source/Synthesis/oscillator.h ****     {
  72:../../DaisySP/Source/Synthesis/oscillator.h ****         waveform_ = wf < WAVE_LAST ? wf : WAVE_SIN;
 8006              		.loc 7 72 9 view .LVU2198
 8007              		.loc 7 72 19 is_stmt 0 view .LVU2199
 8008 0654 0223     		movs	r3, #2
 8009              	.LVL518:
 8010              	.L576:
 8011              		.loc 7 72 19 view .LVU2200
 8012 0656 3B70     		strb	r3, [r7]
 8013              	.LBE2089:
 8014              	.LBE2088:
 289:Menus.cpp     ****                 for(int i = 0; i < 2; i++)
 8015              		.loc 2 289 17 is_stmt 1 view .LVU2201
 8016              	.LVL519:
 289:Menus.cpp     ****                 for(int i = 0; i < 2; i++)
 8017              		.loc 2 289 34 view .LVU2202
 291:Menus.cpp     ****                     selectedWave = setWave;
 8018              		.loc 2 291 21 view .LVU2203
 291:Menus.cpp     ****                     selectedWave = setWave;
 8019              		.loc 2 291 34 is_stmt 0 view .LVU2204
 8020 0658 D5F89021 		ldr	r2, [r5, #400]
 8021 065c C5F89C20 		str	r2, [r5, #156]
 292:Menus.cpp     ****                     osc[0].SetWaveform(osc[0].WAVE_SAW);
 8022              		.loc 2 292 21 is_stmt 1 view .LVU2205
 8023              	.LVL520:
 8024              	.LBB2091:
ARM GAS  C:\Users\VINCIU~1\AppData\Local\Temp\ccYgfSqf.s 			page 204


  70:../../DaisySP/Source/Synthesis/oscillator.h ****     {
 8025              		.loc 7 70 17 view .LVU2206
 8026              	.LBB2090:
 8027              		.loc 7 72 9 view .LVU2207
 8028              		.loc 7 72 19 is_stmt 0 view .LVU2208
 8029 0660 3B70     		strb	r3, [r7]
 8030              	.LVL521:
 8031              		.loc 7 72 19 view .LVU2209
 8032              	.LBE2090:
 8033              	.LBE2091:
 289:Menus.cpp     ****                 for(int i = 0; i < 2; i++)
 8034              		.loc 2 289 17 is_stmt 1 view .LVU2210
 289:Menus.cpp     ****                 for(int i = 0; i < 2; i++)
 8035              		.loc 2 289 34 view .LVU2211
 8036              	.L524:
 289:Menus.cpp     ****                 for(int i = 0; i < 2; i++)
 8037              		.loc 2 289 34 is_stmt 0 view .LVU2212
 8038              	.LBE2087:
 8039              	.LBE2086:
 8040              	.LBE2085:
 8041              	.LBE2084:
 8042              	.LBE2109:
 8043              	.LBE2114:
 8044              	.LBE2164:
 8045              	.LBE2302:
 8046              	.LBE2326:
 8047              	.LBE2381:
 296:Menus.cpp     ****         {
 8048              		.loc 2 296 9 is_stmt 1 view .LVU2213
 8049              	.LBB2382:
 8050              	.LBB2327:
 8051              	.LBB2303:
 8052              	.LBB2165:
 8053              	.LBB2115:
 297:Menus.cpp     ****             if(this->OscSelector == false)
 8054              		.loc 2 297 13 view .LVU2214
 8055              	.LBB2116:
 8056 0662 95F87430 		ldrb	r3, [r5, #116]	@ zero_extendqisi2
 8057 0666 9BB9     		cbnz	r3, .L578
 8058              	.L518:
 8059              	.LBB2117:
 299:Menus.cpp     ****                 if(setWave2 > 3)
 8060              		.loc 2 299 17 view .LVU2215
 307:Menus.cpp     ****                 this->setWave2 += this->encoderRight.Increment();
 8061              		.loc 2 307 17 view .LVU2216
 8062              	.LVL522:
 8063              	.LBB2118:
 8064              	.LBI2118:
  41:../../libdaisy/src/hid/encoder.h ****     /** Returns true if the encoder was just pressed.
 8065              		.loc 3 41 20 view .LVU2217
 8066              	.LBB2119:
  41:../../libdaisy/src/hid/encoder.h ****     /** Returns true if the encoder was just pressed.
 8067              		.loc 3 41 40 view .LVU2218
  41:../../libdaisy/src/hid/encoder.h ****     /** Returns true if the encoder was just pressed.
 8068              		.loc 3 41 40 is_stmt 0 view .LVU2219
 8069              	.LBE2119:
 8070              	.LBE2118:
ARM GAS  C:\Users\VINCIU~1\AppData\Local\Temp\ccYgfSqf.s 			page 205


 307:Menus.cpp     ****                 this->setWave2 += this->encoderRight.Increment();
 8071              		.loc 2 307 32 view .LVU2220
 8072 0668 D5F89431 		ldr	r3, [r5, #404]
 8073 066c AA6C     		ldr	r2, [r5, #72]
 8074 066e 83F30203 		usat	r3, #2, r3
 8075 0672 1344     		add	r3, r3, r2
 308:Menus.cpp     ****                 if(setWave2 > 3)
 8076              		.loc 2 308 17 is_stmt 1 view .LVU2221
 8077 0674 032B     		cmp	r3, #3
 8078 0676 79DD     		ble	.L527
 310:Menus.cpp     ****                     this->setWave2 = 3;
 8079              		.loc 2 310 21 view .LVU2222
 310:Menus.cpp     ****                     this->setWave2 = 3;
 8080              		.loc 2 310 36 is_stmt 0 view .LVU2223
 8081 0678 0323     		movs	r3, #3
 8082 067a C5F89431 		str	r3, [r5, #404]
 312:Menus.cpp     ****                 if(this->setWave2 < 0)
 8083              		.loc 2 312 17 is_stmt 1 view .LVU2224
 316:Menus.cpp     ****                 if(this->setWave2 == 0)
 8084              		.loc 2 316 17 view .LVU2225
 8085              	.LBE2117:
 8086              	.LBE2116:
 8087              	.LBE2115:
 8088              	.LBE2165:
 8089              	.LBE2303:
 8090              	.LBE2327:
 8091              	.LBE2382:
 324:Menus.cpp     ****                 else if(setWave2 == 1)
 8092              		.loc 2 324 22 view .LVU2226
 8093              	.L528:
 8094              	.LVL523:
 8095              	.LBB2383:
 8096              	.LBB2328:
 8097              	.LBB2304:
 8098              	.LBB2166:
 8099              	.LBB2151:
 8100              	.LBB2146:
 8101              	.LBB2141:
 8102              	.LBB2120:
 8103              	.LBB2121:
 8104              	.LBB2122:
 8105              	.LBB2123:
 342:Menus.cpp     ****                     for(int i = 0; i < 2; i++)
 8106              		.loc 2 342 38 view .LVU2227
 344:Menus.cpp     ****                         selectedWave2 = setWave2;
 8107              		.loc 2 344 25 view .LVU2228
 345:Menus.cpp     ****                         osc[1].SetWaveform(osc[1].WAVE_SAW);
 8108              		.loc 2 345 25 view .LVU2229
 8109              	.LBB2124:
 8110              	.LBI2124:
  70:../../DaisySP/Source/Synthesis/oscillator.h ****     {
 8111              		.loc 7 70 17 view .LVU2230
 8112              	.LBB2125:
 8113              		.loc 7 72 9 view .LVU2231
 8114              		.loc 7 72 19 is_stmt 0 view .LVU2232
 8115 067e 0223     		movs	r3, #2
 8116              	.LVL524:
ARM GAS  C:\Users\VINCIU~1\AppData\Local\Temp\ccYgfSqf.s 			page 206


 8117              	.L577:
 8118              		.loc 7 72 19 view .LVU2233
 8119 0680 87F82830 		strb	r3, [r7, #40]
 8120              	.LBE2125:
 8121              	.LBE2124:
 342:Menus.cpp     ****                     for(int i = 0; i < 2; i++)
 8122              		.loc 2 342 21 is_stmt 1 view .LVU2234
 8123              	.LVL525:
 342:Menus.cpp     ****                     for(int i = 0; i < 2; i++)
 8124              		.loc 2 342 38 view .LVU2235
 344:Menus.cpp     ****                         selectedWave2 = setWave2;
 8125              		.loc 2 344 25 view .LVU2236
 344:Menus.cpp     ****                         selectedWave2 = setWave2;
 8126              		.loc 2 344 39 is_stmt 0 view .LVU2237
 8127 0684 D5F89421 		ldr	r2, [r5, #404]
 8128 0688 C5F8A020 		str	r2, [r5, #160]
 345:Menus.cpp     ****                         osc[1].SetWaveform(osc[1].WAVE_SAW);
 8129              		.loc 2 345 25 is_stmt 1 view .LVU2238
 8130              	.LVL526:
 8131              	.LBB2127:
  70:../../DaisySP/Source/Synthesis/oscillator.h ****     {
 8132              		.loc 7 70 17 view .LVU2239
 8133              	.LBB2126:
 8134              		.loc 7 72 9 view .LVU2240
 8135              		.loc 7 72 19 is_stmt 0 view .LVU2241
 8136 068c 87F82830 		strb	r3, [r7, #40]
 8137              	.LVL527:
 8138              	.L578:
 8139              		.loc 7 72 19 view .LVU2242
 8140              	.LBE2126:
 8141              	.LBE2127:
 342:Menus.cpp     ****                     for(int i = 0; i < 2; i++)
 8142              		.loc 2 342 21 is_stmt 1 view .LVU2243
 342:Menus.cpp     ****                     for(int i = 0; i < 2; i++)
 8143              		.loc 2 342 38 view .LVU2244
 8144              	.LBE2123:
 8145              	.LBE2122:
 8146              	.LBE2121:
 8147              	.LBE2120:
 8148              	.LBE2141:
 8149              	.LBE2146:
 351:Menus.cpp     ****             screen.DrawRect(29,
 8150              		.loc 2 351 28 is_stmt 0 view .LVU2245
 8151 0690 95F8BC31 		ldrb	r3, [r5, #444]	@ zero_extendqisi2
 351:Menus.cpp     ****             screen.DrawRect(29,
 8152              		.loc 2 351 13 is_stmt 1 view .LVU2246
 351:Menus.cpp     ****             screen.DrawRect(29,
 8153              		.loc 2 351 28 is_stmt 0 view .LVU2247
 8154 0694 0022     		movs	r2, #0
 8155 0696 3F21     		movs	r1, #63
 8156 0698 2046     		mov	r0, r4
 8157 069a CDE90132 		strd	r3, r2, [sp, #4]
 8158 069e 1D22     		movs	r2, #29
 8159 06a0 0091     		str	r1, [sp]
 8160 06a2 3C23     		movs	r3, #60
 8161 06a4 1146     		mov	r1, r2
 8162 06a6 FFF7FEFF 		bl	_ZN5daisy25OneBitGraphicsDisplayImplINS_11OledDisplayINS_13SSD130xDriverILj128ELj64ENS_24SSD130
ARM GAS  C:\Users\VINCIU~1\AppData\Local\Temp\ccYgfSqf.s 			page 207


 8163              	.LVL528:
 8164              	.LBE2151:
 8165 06aa 3DE7     		b	.L485
 8166              	.LVL529:
 8167              	.L465:
 351:Menus.cpp     ****             screen.DrawRect(29,
 8168              		.loc 2 351 28 view .LVU2248
 8169              	.LBE2166:
 8170              	.LBE2304:
 8171              	.LBE2328:
 8172              	.LBE2383:
 103:Menus.cpp     ****             menuState = 3;
 8173              		.loc 2 103 13 is_stmt 1 view .LVU2249
 103:Menus.cpp     ****             menuState = 3;
 8174              		.loc 2 103 23 is_stmt 0 view .LVU2250
 8175 06ac 0323     		movs	r3, #3
 8176 06ae EB66     		str	r3, [r5, #108]
 106:Menus.cpp     ****     if(this->buttonRight.RisingEdge())
 8177              		.loc 2 106 5 is_stmt 1 view .LVU2251
 8178              	.LVL530:
 8179              	.LBB2384:
 8180              		.loc 4 69 17 view .LVU2252
 8181              	.LBB2014:
 8182              		.loc 4 69 38 view .LVU2253
 8183              		.loc 4 69 38 is_stmt 0 view .LVU2254
 8184              	.LBE2014:
 8185              	.LBE2384:
 106:Menus.cpp     ****     if(this->buttonRight.RisingEdge())
 8186              		.loc 2 106 5 view .LVU2255
 8187 06b0 95F86130 		ldrb	r3, [r5, #97]	@ zero_extendqisi2
 8188 06b4 7F2B     		cmp	r3, #127
 8189 06b6 7FF4C2AC 		bne	.L467
 8190 06ba 86E7     		b	.L466
 8191              	.LVL531:
 8192              	.L507:
 8193              	.LBB2385:
 8194              	.LBB2329:
 8195              	.LBB2305:
 8196              	.LBB2294:
 8197              	.LBB2292:
 8198              	.LBB2291:
 8199              	.LBB2279:
 8200              	.LBB2278:
 8201              	.LBB2276:
 8202              	.LBI2276:
 239:../../libdaisy/src/dev/oled_ssd130x.h ****     {
 8203              		.loc 6 239 10 is_stmt 1 view .LVU2256
 8204              	.LBB2277:
 246:../../libdaisy/src/dev/oled_ssd130x.h ****     }
 8205              		.loc 6 246 42 is_stmt 0 view .LVU2257
 8206 06bc 02F0FE02 		and	r2, r2, #254
 8207 06c0 0CE7     		b	.L508
 8208              	.LVL532:
 8209              	.L502:
 246:../../libdaisy/src/dev/oled_ssd130x.h ****     }
 8210              		.loc 6 246 42 view .LVU2258
 8211              	.LBE2277:
ARM GAS  C:\Users\VINCIU~1\AppData\Local\Temp\ccYgfSqf.s 			page 208


 8212              	.LBE2276:
 8213              	.LBE2278:
 8214              	.LBE2279:
 8215              	.LBE2291:
 8216              	.LBE2292:
 8217              	.LBE2294:
 8218              	.LBB2295:
 8219              	.LBB2270:
 8220              	.LBB2269:
 8221              	.LBB2251:
 8222              	.LBB2250:
 8223              	.LBB2248:
 8224              	.LBI2248:
 239:../../libdaisy/src/dev/oled_ssd130x.h ****     {
 8225              		.loc 6 239 10 is_stmt 1 view .LVU2259
 8226              	.LBB2249:
 246:../../libdaisy/src/dev/oled_ssd130x.h ****     }
 8227              		.loc 6 246 42 is_stmt 0 view .LVU2260
 8228 06c2 02F0DF02 		and	r2, r2, #223
 8229 06c6 ECE6     		b	.L503
 8230              	.LVL533:
 8231              	.L497:
 246:../../libdaisy/src/dev/oled_ssd130x.h ****     }
 8232              		.loc 6 246 42 view .LVU2261
 8233              	.LBE2249:
 8234              	.LBE2248:
 8235              	.LBE2250:
 8236              	.LBE2251:
 8237              	.LBE2269:
 8238              	.LBE2270:
 8239              	.LBE2295:
 8240              	.LBB2296:
 8241              	.LBB2241:
 8242              	.LBB2239:
 8243              	.LBB2211:
 8244              	.LBB2210:
 8245              	.LBB2208:
 8246              	.LBI2208:
 239:../../libdaisy/src/dev/oled_ssd130x.h ****     {
 8247              		.loc 6 239 10 is_stmt 1 view .LVU2262
 8248              	.LBB2209:
 246:../../libdaisy/src/dev/oled_ssd130x.h ****     }
 8249              		.loc 6 246 42 is_stmt 0 view .LVU2263
 8250 06c8 02F0DF02 		and	r2, r2, #223
 8251 06cc C5E6     		b	.L498
 8252              	.LVL534:
 8253              	.L586:
 246:../../libdaisy/src/dev/oled_ssd130x.h ****     }
 8254              		.loc 6 246 42 view .LVU2264
 8255              	.LBE2209:
 8256              	.LBE2208:
 8257              	.LBE2210:
 8258              	.LBE2211:
 8259              	.LBE2239:
 8260              	.LBE2241:
 8261              	.LBE2296:
 8262              	.LBE2305:
ARM GAS  C:\Users\VINCIU~1\AppData\Local\Temp\ccYgfSqf.s 			page 209


 8263              	.LBB2306:
 219:Menus.cpp     ****         if(this->OscSelector == true)
 8264              		.loc 2 219 9 is_stmt 1 view .LVU2265
 8265 06ce 95F87420 		ldrb	r2, [r5, #116]	@ zero_extendqisi2
 8266 06d2 FAB1     		cbz	r2, .L513
 222:Menus.cpp     ****             if(this->encoderRight.Increment() == 1)
 8267              		.loc 2 222 13 view .LVU2266
 8268              	.LVL535:
 8269              	.LBB2167:
 8270              	.LBI2167:
  41:../../libdaisy/src/hid/encoder.h ****     /** Returns true if the encoder was just pressed.
 8271              		.loc 3 41 20 view .LVU2267
 8272              	.LBB2168:
  41:../../libdaisy/src/hid/encoder.h ****     /** Returns true if the encoder was just pressed.
 8273              		.loc 3 41 40 view .LVU2268
  41:../../libdaisy/src/hid/encoder.h ****     /** Returns true if the encoder was just pressed.
 8274              		.loc 3 41 47 is_stmt 0 view .LVU2269
 8275 06d4 AA6C     		ldr	r2, [r5, #72]
 8276              	.LVL536:
  41:../../libdaisy/src/hid/encoder.h ****     /** Returns true if the encoder was just pressed.
 8277              		.loc 3 41 47 view .LVU2270
 8278              	.LBE2168:
 8279              	.LBE2167:
 222:Menus.cpp     ****             if(this->encoderRight.Increment() == 1)
 8280              		.loc 2 222 13 view .LVU2271
 8281 06d6 012A     		cmp	r2, #1
 8282 06d8 30D0     		beq	.L600
 227:Menus.cpp     ****             if(this->encoderRight.Increment() == -1)
 8283              		.loc 2 227 13 is_stmt 1 view .LVU2272
 8284              	.LVL537:
 227:Menus.cpp     ****             if(this->encoderRight.Increment() == -1)
 8285              		.loc 2 227 13 is_stmt 0 view .LVU2273
 8286              	.LBE2306:
 8287              	.LBE2329:
 8288              	.LBE2385:
  41:../../libdaisy/src/hid/encoder.h ****     /** Returns true if the encoder was just pressed.
 8289              		.loc 3 41 40 is_stmt 1 view .LVU2274
 8290              	.LBB2386:
 8291              	.LBB2330:
 8292              	.LBB2307:
 227:Menus.cpp     ****             if(this->encoderRight.Increment() == -1)
 8293              		.loc 2 227 13 is_stmt 0 view .LVU2275
 8294 06da 0132     		adds	r2, r2, #1
 8295 06dc 23D1     		bne	.L515
 229:Menus.cpp     ****                 synthOn         = 0;
 8296              		.loc 2 229 17 is_stmt 1 view .LVU2276
 230:Menus.cpp     ****                 this->toggleOsc = true;
 8297              		.loc 2 230 33 is_stmt 0 view .LVU2277
 8298 06de 85F89830 		strb	r3, [r5, #152]
 229:Menus.cpp     ****                 synthOn         = 0;
 8299              		.loc 2 229 33 view .LVU2278
 8300 06e2 0023     		movs	r3, #0
 8301 06e4 C5F86C31 		str	r3, [r5, #364]
 230:Menus.cpp     ****                 this->toggleOsc = true;
 8302              		.loc 2 230 17 is_stmt 1 view .LVU2279
 8303 06e8 1DE0     		b	.L515
 8304              	.L550:
ARM GAS  C:\Users\VINCIU~1\AppData\Local\Temp\ccYgfSqf.s 			page 210


 230:Menus.cpp     ****                 this->toggleOsc = true;
 8305              		.loc 2 230 17 is_stmt 0 view .LVU2280
 8306              	.LBE2307:
 8307 06ea B0EE667A 		vmov.f32	s14, s13
 8308 06ee 73E6     		b	.L491
 8309              	.L548:
 230:Menus.cpp     ****                 this->toggleOsc = true;
 8310              		.loc 2 230 17 view .LVU2281
 8311 06f0 DFED057A 		vldr.32	s15, .L606+12
 8312 06f4 5FE6     		b	.L490
 8313              	.L546:
 230:Menus.cpp     ****                 this->toggleOsc = true;
 8314              		.loc 2 230 17 view .LVU2282
 8315 06f6 F0EE477A 		vmov.f32	s15, s14
 8316 06fa 81E7     		b	.L488
 8317              	.L607:
 8318              		.align	2
 8319              	.L606:
 8320 06fc 08000000 		.word	.LC9
 8321 0700 00002042 		.word	1109393408
 8322 0704 00000000 		.word	0
 8323 0708 00000042 		.word	1107296256
 8324 070c 0000003D 		.word	1023410176
 8325 0710 0000C842 		.word	1120403456
 8326              	.L513:
 8327              	.LBB2308:
 235:Menus.cpp     ****             if(this->encoderRight.Increment() == 1)
 8328              		.loc 2 235 13 is_stmt 1 view .LVU2283
 8329              	.LVL538:
 8330              	.LBB2169:
 8331              	.LBI2169:
  41:../../libdaisy/src/hid/encoder.h ****     /** Returns true if the encoder was just pressed.
 8332              		.loc 3 41 20 view .LVU2284
 8333              	.LBB2170:
  41:../../libdaisy/src/hid/encoder.h ****     /** Returns true if the encoder was just pressed.
 8334              		.loc 3 41 40 view .LVU2285
  41:../../libdaisy/src/hid/encoder.h ****     /** Returns true if the encoder was just pressed.
 8335              		.loc 3 41 47 is_stmt 0 view .LVU2286
 8336 0714 A96C     		ldr	r1, [r5, #72]
 8337              	.LVL539:
  41:../../libdaisy/src/hid/encoder.h ****     /** Returns true if the encoder was just pressed.
 8338              		.loc 3 41 47 view .LVU2287
 8339              	.LBE2170:
 8340              	.LBE2169:
 235:Menus.cpp     ****             if(this->encoderRight.Increment() == 1)
 8341              		.loc 2 235 13 view .LVU2288
 8342 0716 0129     		cmp	r1, #1
 8343 0718 16D0     		beq	.L601
 240:Menus.cpp     ****             if(this->encoderRight.Increment() == -1)
 8344              		.loc 2 240 13 is_stmt 1 view .LVU2289
 8345              	.LVL540:
 240:Menus.cpp     ****             if(this->encoderRight.Increment() == -1)
 8346              		.loc 2 240 13 is_stmt 0 view .LVU2290
 8347              	.LBE2308:
 8348              	.LBE2330:
 8349              	.LBE2386:
  41:../../libdaisy/src/hid/encoder.h ****     /** Returns true if the encoder was just pressed.
ARM GAS  C:\Users\VINCIU~1\AppData\Local\Temp\ccYgfSqf.s 			page 211


 8350              		.loc 3 41 40 is_stmt 1 view .LVU2291
 8351              	.LBB2387:
 8352              	.LBB2331:
 8353              	.LBB2309:
 240:Menus.cpp     ****             if(this->encoderRight.Increment() == -1)
 8354              		.loc 2 240 13 is_stmt 0 view .LVU2292
 8355 071a 0131     		adds	r1, r1, #1
 8356 071c 03D1     		bne	.L515
 242:Menus.cpp     ****                 synthOn2         = 0;
 8357              		.loc 2 242 17 is_stmt 1 view .LVU2293
 242:Menus.cpp     ****                 synthOn2         = 0;
 8358              		.loc 2 242 34 is_stmt 0 view .LVU2294
 8359 071e C5F87021 		str	r2, [r5, #368]
 243:Menus.cpp     ****                 this->toggleOsc2 = true;
 8360              		.loc 2 243 17 is_stmt 1 view .LVU2295
 243:Menus.cpp     ****                 this->toggleOsc2 = true;
 8361              		.loc 2 243 34 is_stmt 0 view .LVU2296
 8362 0722 85F89930 		strb	r3, [r5, #153]
 8363              	.L515:
 247:Menus.cpp     ****         screen.DrawRect(
 8364              		.loc 2 247 9 is_stmt 1 view .LVU2297
 247:Menus.cpp     ****         screen.DrawRect(
 8365              		.loc 2 247 24 is_stmt 0 view .LVU2298
 8366 0726 3F23     		movs	r3, #63
 8367 0728 0021     		movs	r1, #0
 8368 072a 0093     		str	r3, [sp]
 8369 072c 1D23     		movs	r3, #29
 8370 072e CDE90101 		strd	r0, r1, [sp, #4]
 8371 0732 1A46     		mov	r2, r3
 8372 0734 2046     		mov	r0, r4
 8373 0736 FFF7FEFF 		bl	_ZN5daisy25OneBitGraphicsDisplayImplINS_11OledDisplayINS_13SSD130xDriverILj128ELj64ENS_24SSD130
 8374              	.LVL541:
 8375 073a F5E6     		b	.L485
 8376              	.L600:
 224:Menus.cpp     ****                 synthOn         = 1;
 8377              		.loc 2 224 17 is_stmt 1 view .LVU2299
 225:Menus.cpp     ****                 this->toggleOsc = false;
 8378              		.loc 2 225 33 is_stmt 0 view .LVU2300
 8379 073c 0023     		movs	r3, #0
 224:Menus.cpp     ****                 synthOn         = 1;
 8380              		.loc 2 224 33 view .LVU2301
 8381 073e C5F86C21 		str	r2, [r5, #364]
 225:Menus.cpp     ****                 this->toggleOsc = false;
 8382              		.loc 2 225 17 is_stmt 1 view .LVU2302
 225:Menus.cpp     ****                 this->toggleOsc = false;
 8383              		.loc 2 225 33 is_stmt 0 view .LVU2303
 8384 0742 85F89830 		strb	r3, [r5, #152]
 227:Menus.cpp     ****             if(this->encoderRight.Increment() == -1)
 8385              		.loc 2 227 13 is_stmt 1 view .LVU2304
 8386              	.LVL542:
 227:Menus.cpp     ****             if(this->encoderRight.Increment() == -1)
 8387              		.loc 2 227 13 is_stmt 0 view .LVU2305
 8388              	.LBE2309:
 8389              	.LBE2331:
 8390              	.LBE2387:
  41:../../libdaisy/src/hid/encoder.h ****     /** Returns true if the encoder was just pressed.
 8391              		.loc 3 41 40 is_stmt 1 view .LVU2306
ARM GAS  C:\Users\VINCIU~1\AppData\Local\Temp\ccYgfSqf.s 			page 212


  41:../../libdaisy/src/hid/encoder.h ****     /** Returns true if the encoder was just pressed.
 8392              		.loc 3 41 40 is_stmt 0 view .LVU2307
 8393 0746 EEE7     		b	.L515
 8394              	.L601:
 8395              	.LBB2388:
 8396              	.LBB2332:
 8397              	.LBB2310:
 237:Menus.cpp     ****                 synthOn2         = 1;
 8398              		.loc 2 237 17 is_stmt 1 view .LVU2308
 237:Menus.cpp     ****                 synthOn2         = 1;
 8399              		.loc 2 237 34 is_stmt 0 view .LVU2309
 8400 0748 C5F87011 		str	r1, [r5, #368]
 238:Menus.cpp     ****                 this->toggleOsc2 = false;
 8401              		.loc 2 238 17 is_stmt 1 view .LVU2310
 238:Menus.cpp     ****                 this->toggleOsc2 = false;
 8402              		.loc 2 238 34 is_stmt 0 view .LVU2311
 8403 074c 85F89920 		strb	r2, [r5, #153]
 240:Menus.cpp     ****             if(this->encoderRight.Increment() == -1)
 8404              		.loc 2 240 13 is_stmt 1 view .LVU2312
 8405              	.LVL543:
 240:Menus.cpp     ****             if(this->encoderRight.Increment() == -1)
 8406              		.loc 2 240 13 is_stmt 0 view .LVU2313
 8407              	.LBE2310:
 8408              	.LBE2332:
 8409              	.LBE2388:
  41:../../libdaisy/src/hid/encoder.h ****     /** Returns true if the encoder was just pressed.
 8410              		.loc 3 41 40 is_stmt 1 view .LVU2314
  41:../../libdaisy/src/hid/encoder.h ****     /** Returns true if the encoder was just pressed.
 8411              		.loc 3 41 40 is_stmt 0 view .LVU2315
 8412 0750 E9E7     		b	.L515
 8413              	.L519:
 8414              	.LBB2389:
 8415              	.LBB2333:
 8416              	.LBB2311:
 8417              	.LBB2171:
 8418              	.LBB2152:
 8419              	.LBB2110:
 259:Menus.cpp     ****             if(this->setWave < 0)
 8420              		.loc 2 259 13 is_stmt 1 view .LVU2316
 8421 0752 002B     		cmp	r3, #0
 8422 0754 68DA     		bge	.L521
 261:Menus.cpp     ****                 this->setWave = 0;
 8423              		.loc 2 261 17 view .LVU2317
 261:Menus.cpp     ****                 this->setWave = 0;
 8424              		.loc 2 261 31 is_stmt 0 view .LVU2318
 8425 0756 0023     		movs	r3, #0
 8426 0758 C5F89031 		str	r3, [r5, #400]
 263:Menus.cpp     ****             if(this->setWave == 0)
 8427              		.loc 2 263 13 is_stmt 1 view .LVU2319
 8428              	.L522:
 8429              	.LVL544:
 8430              	.LBB2105:
 8431              	.LBB2098:
 265:Menus.cpp     ****                 for(int i = 0; i < 2; i++)
 8432              		.loc 2 265 34 view .LVU2320
 267:Menus.cpp     ****                     selectedWave = setWave;
 8433              		.loc 2 267 21 view .LVU2321
ARM GAS  C:\Users\VINCIU~1\AppData\Local\Temp\ccYgfSqf.s 			page 213


 268:Menus.cpp     ****                     osc[0].SetWaveform(osc[0].WAVE_SIN);
 8434              		.loc 2 268 21 view .LVU2322
 8435              	.LBB2099:
 8436              	.LBI2099:
  70:../../DaisySP/Source/Synthesis/oscillator.h ****     {
 8437              		.loc 7 70 17 view .LVU2323
 8438              	.LBB2100:
 8439              		.loc 7 72 9 view .LVU2324
 8440              		.loc 7 72 19 is_stmt 0 view .LVU2325
 8441 075c 0023     		movs	r3, #0
 8442 075e 3B70     		strb	r3, [r7]
 8443              	.LVL545:
 8444              		.loc 7 72 19 view .LVU2326
 8445              	.LBE2100:
 8446              	.LBE2099:
 265:Menus.cpp     ****                 for(int i = 0; i < 2; i++)
 8447              		.loc 2 265 17 is_stmt 1 view .LVU2327
 265:Menus.cpp     ****                 for(int i = 0; i < 2; i++)
 8448              		.loc 2 265 34 view .LVU2328
 267:Menus.cpp     ****                     selectedWave = setWave;
 8449              		.loc 2 267 21 view .LVU2329
 267:Menus.cpp     ****                     selectedWave = setWave;
 8450              		.loc 2 267 34 is_stmt 0 view .LVU2330
 8451 0760 D5F89021 		ldr	r2, [r5, #400]
 8452 0764 C5F89C20 		str	r2, [r5, #156]
 268:Menus.cpp     ****                     osc[0].SetWaveform(osc[0].WAVE_SIN);
 8453              		.loc 2 268 21 is_stmt 1 view .LVU2331
 8454              	.LVL546:
 8455              	.LBB2102:
  70:../../DaisySP/Source/Synthesis/oscillator.h ****     {
 8456              		.loc 7 70 17 view .LVU2332
 8457              	.LBB2101:
 8458              		.loc 7 72 9 view .LVU2333
 8459              		.loc 7 72 19 is_stmt 0 view .LVU2334
 8460 0768 3B70     		strb	r3, [r7]
 8461              	.LVL547:
 8462              		.loc 7 72 19 view .LVU2335
 8463              	.LBE2101:
 8464              	.LBE2102:
 265:Menus.cpp     ****                 for(int i = 0; i < 2; i++)
 8465              		.loc 2 265 17 is_stmt 1 view .LVU2336
 265:Menus.cpp     ****                 for(int i = 0; i < 2; i++)
 8466              		.loc 2 265 34 view .LVU2337
 8467 076a 7AE7     		b	.L524
 8468              	.LVL548:
 8469              	.L527:
 265:Menus.cpp     ****                 for(int i = 0; i < 2; i++)
 8470              		.loc 2 265 34 is_stmt 0 view .LVU2338
 8471              	.LBE2098:
 8472              	.LBE2105:
 8473              	.LBE2110:
 8474              	.LBE2152:
 8475              	.LBB2153:
 8476              	.LBB2147:
 8477              	.LBB2142:
 312:Menus.cpp     ****                 if(this->setWave2 < 0)
 8478              		.loc 2 312 17 is_stmt 1 view .LVU2339
ARM GAS  C:\Users\VINCIU~1\AppData\Local\Temp\ccYgfSqf.s 			page 214


 8479 076c 002B     		cmp	r3, #0
 8480 076e 6CDA     		bge	.L529
 314:Menus.cpp     ****                     this->setWave2 = 0;
 8481              		.loc 2 314 21 view .LVU2340
 314:Menus.cpp     ****                     this->setWave2 = 0;
 8482              		.loc 2 314 36 is_stmt 0 view .LVU2341
 8483 0770 0023     		movs	r3, #0
 8484 0772 C5F89431 		str	r3, [r5, #404]
 316:Menus.cpp     ****                 if(this->setWave2 == 0)
 8485              		.loc 2 316 17 is_stmt 1 view .LVU2342
 8486              	.L530:
 8487              	.LVL549:
 8488              	.LBB2137:
 8489              	.LBB2132:
 318:Menus.cpp     ****                     for(int i = 0; i < 2; i++)
 8490              		.loc 2 318 38 view .LVU2343
 320:Menus.cpp     ****                         selectedWave2 = setWave2;
 8491              		.loc 2 320 25 view .LVU2344
 321:Menus.cpp     ****                         osc[1].SetWaveform(osc[1].WAVE_SIN);
 8492              		.loc 2 321 25 view .LVU2345
 8493              	.LBB2133:
 8494              	.LBI2133:
  70:../../DaisySP/Source/Synthesis/oscillator.h ****     {
 8495              		.loc 7 70 17 view .LVU2346
 8496              	.LBB2134:
 8497              		.loc 7 72 9 view .LVU2347
 8498              		.loc 7 72 19 is_stmt 0 view .LVU2348
 8499 0776 0023     		movs	r3, #0
 8500 0778 82E7     		b	.L577
 8501              	.LVL550:
 8502              	.L534:
 8503              		.loc 7 72 19 view .LVU2349
 8504              	.LBE2134:
 8505              	.LBE2133:
 8506              	.LBE2132:
 8507              	.LBE2137:
 8508              	.LBE2142:
 8509              	.LBE2147:
 8510              	.LBE2153:
 393:Menus.cpp     ****             if(this->freqFine2 > 1)
 8511              		.loc 2 393 13 is_stmt 1 view .LVU2350
 393:Menus.cpp     ****             if(this->freqFine2 > 1)
 8512              		.loc 2 393 22 is_stmt 0 view .LVU2351
 8513 077a D5ED5E7A 		vldr.32	s15, [r5, #376]
 393:Menus.cpp     ****             if(this->freqFine2 > 1)
 8514              		.loc 2 393 13 view .LVU2352
 8515 077e F4EEC77A 		vcmpe.f32	s15, s14
 8516 0782 F1EE10FA 		vmrs	APSR_nzcv, FPSCR
 8517 0786 35DD     		ble	.L602
 8518 0788 F0EE477A 		vmov.f32	s15, s14
 8519              	.L538:
 401:Menus.cpp     ****             if(this->drawSliderFine2 >= 1)
 8520              		.loc 2 401 13 is_stmt 1 view .LVU2353
 8521 078c F7EE006A 		vmov.f32	s13, #1.0e+0
 401:Menus.cpp     ****             if(this->drawSliderFine2 >= 1)
 8522              		.loc 2 401 22 is_stmt 0 view .LVU2354
 8523 0790 95ED217A 		vldr.32	s14, [r5, #132]
ARM GAS  C:\Users\VINCIU~1\AppData\Local\Temp\ccYgfSqf.s 			page 215


 401:Menus.cpp     ****             if(this->drawSliderFine2 >= 1)
 8524              		.loc 2 401 13 view .LVU2355
 8525 0794 B4EEE67A 		vcmpe.f32	s14, s13
 8526 0798 F1EE10FA 		vmrs	APSR_nzcv, FPSCR
 8527 079c 22DB     		blt	.L603
 8528 079e B0EE667A 		vmov.f32	s14, s13
 8529              	.L539:
 410:Menus.cpp     ****             this->freqFine2 += (((float)this->encoderRight.Increment()) / 32);
 8530              		.loc 2 410 13 is_stmt 1 view .LVU2356
 8531              	.LVL551:
 8532              	.LBB2154:
 8533              	.LBI2154:
  41:../../libdaisy/src/hid/encoder.h ****     /** Returns true if the encoder was just pressed.
 8534              		.loc 3 41 20 view .LVU2357
 8535              	.LBB2155:
  41:../../libdaisy/src/hid/encoder.h ****     /** Returns true if the encoder was just pressed.
 8536              		.loc 3 41 40 view .LVU2358
  41:../../libdaisy/src/hid/encoder.h ****     /** Returns true if the encoder was just pressed.
 8537              		.loc 3 41 40 is_stmt 0 view .LVU2359
 8538              	.LBE2155:
 8539              	.LBE2154:
 410:Menus.cpp     ****             this->freqFine2 += (((float)this->encoderRight.Increment()) / 32);
 8540              		.loc 2 410 34 view .LVU2360
 8541 07a2 D5ED126A 		vldr.32	s13, [r5, #72]	@ int
 413:Menus.cpp     ****             sprintf(this->buffFine2, "Fine_%d%%", (int)(freqFine2 * 100));
 8542              		.loc 2 413 20 view .LVU2361
 8543 07a6 05F1EC00 		add	r0, r5, #236
 410:Menus.cpp     ****             this->freqFine2 += (((float)this->encoderRight.Increment()) / 32);
 8544              		.loc 2 410 29 view .LVU2362
 8545 07aa 5FED285A 		vldr.32	s11, .L606+16
 410:Menus.cpp     ****             this->freqFine2 += (((float)this->encoderRight.Increment()) / 32);
 8546              		.loc 2 410 34 view .LVU2363
 8547 07ae F8EEE66A 		vcvt.f32.s32	s13, s13
 413:Menus.cpp     ****             sprintf(this->buffFine2, "Fine_%d%%", (int)(freqFine2 * 100));
 8548              		.loc 2 413 67 view .LVU2364
 8549 07b2 1FED296A 		vldr.32	s12, .L606+20
 413:Menus.cpp     ****             sprintf(this->buffFine2, "Fine_%d%%", (int)(freqFine2 * 100));
 8550              		.loc 2 413 20 view .LVU2365
 8551 07b6 2A49     		ldr	r1, .L608
 410:Menus.cpp     ****             this->freqFine2 += (((float)this->encoderRight.Increment()) / 32);
 8552              		.loc 2 410 29 view .LVU2366
 8553 07b8 E6EEA57A 		vfma.f32	s15, s13, s11
 412:Menus.cpp     ****                 += (((float)this->encoderRight.Increment()) / 32);
 8554              		.loc 2 412 17 view .LVU2367
 8555 07bc A6EEA57A 		vfma.f32	s14, s13, s11
 413:Menus.cpp     ****             sprintf(this->buffFine2, "Fine_%d%%", (int)(freqFine2 * 100));
 8556              		.loc 2 413 67 view .LVU2368
 8557 07c0 67EE866A 		vmul.f32	s13, s15, s12
 410:Menus.cpp     ****             this->freqFine2 += (((float)this->encoderRight.Increment()) / 32);
 8558              		.loc 2 410 29 view .LVU2369
 8559 07c4 C5ED5E7A 		vstr.32	s15, [r5, #376]
 411:Menus.cpp     ****             this->drawSliderFine2
 8560              		.loc 2 411 13 is_stmt 1 view .LVU2370
 8561              	.LVL552:
 411:Menus.cpp     ****             this->drawSliderFine2
 8562              		.loc 2 411 13 is_stmt 0 view .LVU2371
 8563              	.LBE2171:
ARM GAS  C:\Users\VINCIU~1\AppData\Local\Temp\ccYgfSqf.s 			page 216


 8564              	.LBE2311:
 8565              	.LBE2333:
 8566              	.LBE2389:
  41:../../libdaisy/src/hid/encoder.h ****     /** Returns true if the encoder was just pressed.
 8567              		.loc 3 41 40 is_stmt 1 view .LVU2372
 8568              	.LBB2390:
 8569              	.LBB2334:
 8570              	.LBB2312:
 8571              	.LBB2172:
 412:Menus.cpp     ****                 += (((float)this->encoderRight.Increment()) / 32);
 8572              		.loc 2 412 17 is_stmt 0 view .LVU2373
 8573 07c8 85ED217A 		vstr.32	s14, [r5, #132]
 413:Menus.cpp     ****             sprintf(this->buffFine2, "Fine_%d%%", (int)(freqFine2 * 100));
 8574              		.loc 2 413 13 is_stmt 1 view .LVU2374
 413:Menus.cpp     ****             sprintf(this->buffFine2, "Fine_%d%%", (int)(freqFine2 * 100));
 8575              		.loc 2 413 20 is_stmt 0 view .LVU2375
 8576 07cc FDEEE67A 		vcvt.s32.f32	s15, s13
 8577 07d0 17EE902A 		vmov	r2, s15	@ int
 8578 07d4 FFF7FEFF 		bl	sprintf
 8579              	.LVL553:
 8580 07d8 45E5     		b	.L537
 8581              	.L591:
 413:Menus.cpp     ****             sprintf(this->buffFine2, "Fine_%d%%", (int)(freqFine2 * 100));
 8582              		.loc 2 413 20 view .LVU2376
 8583              	.LBE2172:
 8584              	.LBE2312:
 207:Menus.cpp     ****             this->noteSemiAdd2 += (float)this->encoderRight.Increment();
 8585              		.loc 2 207 32 view .LVU2377
 8586 07da 07EE903A 		vmov	s15, r3	@ int
 8587 07de F8EEE77A 		vcvt.f32.s32	s15, s15
 8588 07e2 E8E5     		b	.L490
 8589              	.L603:
 8590              	.LBB2313:
 8591              	.LBB2173:
 405:Menus.cpp     ****             if(this->drawSliderFine2 < 0)
 8592              		.loc 2 405 13 is_stmt 1 view .LVU2378
 8593 07e4 B5EEC07A 		vcmpe.f32	s14, #0
 8594 07e8 F1EE10FA 		vmrs	APSR_nzcv, FPSCR
 8595 07ec D9D5     		bpl	.L539
 8596 07ee 9FED1D7A 		vldr.32	s14, .L608+4
 8597 07f2 D6E7     		b	.L539
 8598              	.L602:
 397:Menus.cpp     ****             if(this->freqFine2 < 0)
 8599              		.loc 2 397 13 view .LVU2379
 8600 07f4 F5EEC07A 		vcmpe.f32	s15, #0
 8601 07f8 F1EE10FA 		vmrs	APSR_nzcv, FPSCR
 8602 07fc C6D5     		bpl	.L538
 8603 07fe DFED197A 		vldr.32	s15, .L608+4
 8604 0802 C3E7     		b	.L538
 8605              	.L589:
 381:Menus.cpp     ****             if(this->drawSliderFine < 0)
 8606              		.loc 2 381 13 view .LVU2380
 8607 0804 B5EEC07A 		vcmpe.f32	s14, #0
 8608 0808 F1EE10FA 		vmrs	APSR_nzcv, FPSCR
 8609 080c 7FF510AD 		bpl	.L536
 8610 0810 9FED147A 		vldr.32	s14, .L608+4
 8611 0814 0CE5     		b	.L536
ARM GAS  C:\Users\VINCIU~1\AppData\Local\Temp\ccYgfSqf.s 			page 217


 8612              	.L588:
 373:Menus.cpp     ****             if(this->freqFine < 0)
 8613              		.loc 2 373 13 view .LVU2381
 8614 0816 F5EEC07A 		vcmpe.f32	s15, #0
 8615 081a F1EE10FA 		vmrs	APSR_nzcv, FPSCR
 8616 081e 7FF5FBAC 		bpl	.L535
 8617 0822 DFED107A 		vldr.32	s15, .L608+4
 8618 0826 F7E4     		b	.L535
 8619              	.L521:
 8620              	.LBB2156:
 8621              	.LBB2111:
 254:Menus.cpp     ****             this->setWave += this->encoderRight.Increment();
 8622              		.loc 2 254 27 is_stmt 0 view .LVU2382
 8623 0828 C5F89031 		str	r3, [r5, #400]
 263:Menus.cpp     ****             if(this->setWave == 0)
 8624              		.loc 2 263 13 is_stmt 1 view .LVU2383
 8625              	.LBB2106:
 8626 082c 96D0     		beq	.L522
 8627              	.LBE2106:
 8628              	.LBE2111:
 8629              	.LBE2156:
 8630              	.LBE2173:
 8631              	.LBE2313:
 8632              	.LBE2334:
 8633              	.LBE2390:
 271:Menus.cpp     ****             else if(setWave == 1)
 8634              		.loc 2 271 18 view .LVU2384
 8635              	.LBB2391:
 8636              	.LBB2335:
 8637              	.LBB2314:
 8638              	.LBB2174:
 8639              	.LBB2157:
 8640              	.LBB2112:
 8641              	.LBB2107:
 8642              	.LBB2103:
 8643 082e 012B     		cmp	r3, #1
 8644 0830 3FF411AF 		beq	.L576
 8645              	.LBE2103:
 8646              	.LBE2107:
 8647              	.LBE2112:
 8648              	.LBE2157:
 8649              	.LBE2174:
 8650              	.LBE2314:
 8651              	.LBE2335:
 8652              	.LBE2391:
 279:Menus.cpp     ****             else if(setWave == 2)
 8653              		.loc 2 279 18 view .LVU2385
 8654              	.LBB2392:
 8655              	.LBB2336:
 8656              	.LBB2315:
 8657              	.LBB2175:
 8658              	.LBB2158:
 8659              	.LBB2113:
 8660              	.LBB2108:
 8661              	.LBB2104:
 8662              	.LBB2097:
 8663 0834 022B     		cmp	r3, #2
ARM GAS  C:\Users\VINCIU~1\AppData\Local\Temp\ccYgfSqf.s 			page 218


 8664 0836 7FF40DAF 		bne	.L520
 8665              	.LVL554:
 8666              	.LBB2092:
 281:Menus.cpp     ****                 for(int i = 0; i < 2; i++)
 8667              		.loc 2 281 34 view .LVU2386
 283:Menus.cpp     ****                     selectedWave = setWave;
 8668              		.loc 2 283 21 view .LVU2387
 284:Menus.cpp     ****                     osc[0].SetWaveform(osc[0].WAVE_SQUARE);
 8669              		.loc 2 284 21 view .LVU2388
 8670              	.LBB2093:
 8671              	.LBI2093:
  70:../../DaisySP/Source/Synthesis/oscillator.h ****     {
 8672              		.loc 7 70 17 view .LVU2389
 8673              	.LBB2094:
 8674              		.loc 7 72 9 view .LVU2390
 8675              		.loc 7 72 19 is_stmt 0 view .LVU2391
 8676 083a 0423     		movs	r3, #4
 8677 083c 3B70     		strb	r3, [r7]
 8678              	.LVL555:
 8679              		.loc 7 72 19 view .LVU2392
 8680              	.LBE2094:
 8681              	.LBE2093:
 281:Menus.cpp     ****                 for(int i = 0; i < 2; i++)
 8682              		.loc 2 281 17 is_stmt 1 view .LVU2393
 281:Menus.cpp     ****                 for(int i = 0; i < 2; i++)
 8683              		.loc 2 281 34 view .LVU2394
 283:Menus.cpp     ****                     selectedWave = setWave;
 8684              		.loc 2 283 21 view .LVU2395
 283:Menus.cpp     ****                     selectedWave = setWave;
 8685              		.loc 2 283 34 is_stmt 0 view .LVU2396
 8686 083e D5F89021 		ldr	r2, [r5, #400]
 8687 0842 C5F89C20 		str	r2, [r5, #156]
 284:Menus.cpp     ****                     osc[0].SetWaveform(osc[0].WAVE_SQUARE);
 8688              		.loc 2 284 21 is_stmt 1 view .LVU2397
 8689              	.LVL556:
 8690              	.LBB2096:
  70:../../DaisySP/Source/Synthesis/oscillator.h ****     {
 8691              		.loc 7 70 17 view .LVU2398
 8692              	.LBB2095:
 8693              		.loc 7 72 9 view .LVU2399
 8694              		.loc 7 72 19 is_stmt 0 view .LVU2400
 8695 0846 3B70     		strb	r3, [r7]
 8696              	.LVL557:
 8697              		.loc 7 72 19 view .LVU2401
 8698              	.LBE2095:
 8699              	.LBE2096:
 281:Menus.cpp     ****                 for(int i = 0; i < 2; i++)
 8700              		.loc 2 281 17 is_stmt 1 view .LVU2402
 281:Menus.cpp     ****                 for(int i = 0; i < 2; i++)
 8701              		.loc 2 281 34 view .LVU2403
 8702 0848 0BE7     		b	.L524
 8703              	.LVL558:
 8704              	.L529:
 281:Menus.cpp     ****                 for(int i = 0; i < 2; i++)
 8705              		.loc 2 281 34 is_stmt 0 view .LVU2404
 8706              	.LBE2092:
 8707              	.LBE2097:
ARM GAS  C:\Users\VINCIU~1\AppData\Local\Temp\ccYgfSqf.s 			page 219


 8708              	.LBE2104:
 8709              	.LBE2108:
 8710              	.LBE2113:
 8711              	.LBE2158:
 8712              	.LBB2159:
 8713              	.LBB2148:
 8714              	.LBB2143:
 307:Menus.cpp     ****                 this->setWave2 += this->encoderRight.Increment();
 8715              		.loc 2 307 32 view .LVU2405
 8716 084a C5F89431 		str	r3, [r5, #404]
 316:Menus.cpp     ****                 if(this->setWave2 == 0)
 8717              		.loc 2 316 17 is_stmt 1 view .LVU2406
 8718              	.LBB2138:
 8719 084e 92D0     		beq	.L530
 8720              	.LBE2138:
 8721              	.LBE2143:
 8722              	.LBE2148:
 8723              	.LBE2159:
 8724              	.LBE2175:
 8725              	.LBE2315:
 8726              	.LBE2336:
 8727              	.LBE2392:
 324:Menus.cpp     ****                 else if(setWave2 == 1)
 8728              		.loc 2 324 22 view .LVU2407
 8729              	.LBB2393:
 8730              	.LBB2337:
 8731              	.LBB2316:
 8732              	.LBB2176:
 8733              	.LBB2160:
 8734              	.LBB2149:
 8735              	.LBB2144:
 8736              	.LBB2139:
 8737              	.LBB2135:
 8738 0850 012B     		cmp	r3, #1
 8739 0852 3FF415AF 		beq	.L577
 8740              	.LBE2135:
 8741              	.LBE2139:
 8742              	.LBE2144:
 8743              	.LBE2149:
 8744              	.LBE2160:
 8745              	.LBE2176:
 8746              	.LBE2316:
 8747              	.LBE2337:
 8748              	.LBE2393:
 332:Menus.cpp     ****                 else if(setWave2 == 2)
 8749              		.loc 2 332 22 view .LVU2408
 8750              	.LBB2394:
 8751              	.LBB2338:
 8752              	.LBB2317:
 8753              	.LBB2177:
 8754              	.LBB2161:
 8755              	.LBB2150:
 8756              	.LBB2145:
 8757              	.LBB2140:
 8758              	.LBB2136:
 8759              	.LBB2131:
 8760 0856 022B     		cmp	r3, #2
ARM GAS  C:\Users\VINCIU~1\AppData\Local\Temp\ccYgfSqf.s 			page 220


 8761 0858 7FF411AF 		bne	.L528
 8762              	.LVL559:
 8763              	.LBB2128:
 334:Menus.cpp     ****                     for(int i = 0; i < 2; i++)
 8764              		.loc 2 334 38 view .LVU2409
 336:Menus.cpp     ****                         selectedWave2 = setWave2;
 8765              		.loc 2 336 25 view .LVU2410
 337:Menus.cpp     ****                         osc[1].SetWaveform(osc[1].WAVE_SQUARE);
 8766              		.loc 2 337 25 view .LVU2411
 8767              	.LBB2129:
 8768              	.LBI2129:
  70:../../DaisySP/Source/Synthesis/oscillator.h ****     {
 8769              		.loc 7 70 17 view .LVU2412
 8770              	.LBB2130:
 8771              		.loc 7 72 9 view .LVU2413
 8772              		.loc 7 72 19 is_stmt 0 view .LVU2414
 8773 085c 0423     		movs	r3, #4
 8774 085e 0FE7     		b	.L577
 8775              	.L609:
 8776              		.align	2
 8777              	.L608:
 8778 0860 14000000 		.word	.LC10
 8779 0864 00000000 		.word	0
 8780              	.LBE2130:
 8781              	.LBE2129:
 8782              	.LBE2128:
 8783              	.LBE2131:
 8784              	.LBE2136:
 8785              	.LBE2140:
 8786              	.LBE2145:
 8787              	.LBE2150:
 8788              	.LBE2161:
 8789              	.LBE2177:
 8790              	.LBE2317:
 8791              	.LBE2338:
 8792              	.LBE2394:
 8793              		.cfi_endproc
 8794              	.LFE4039:
 8796              		.text
 8797              	.Letext0:
 8798              		.file 8 "c:\\users\\vin\355cius\\documents\\daisytoolchain-0.3.1\\windows\\arm-none-eabi\\include\
 8799              		.file 9 "c:\\users\\vin\355cius\\documents\\daisytoolchain-0.3.1\\windows\\arm-none-eabi\\include\
 8800              		.file 10 "c:\\users\\vin\355cius\\documents\\daisytoolchain-0.3.1\\windows\\arm-none-eabi\\include
 8801              		.file 11 "c:\\users\\vin\355cius\\documents\\daisytoolchain-0.3.1\\windows\\lib\\gcc\\arm-none-eab
 8802              		.file 12 "c:\\users\\vin\355cius\\documents\\daisytoolchain-0.3.1\\windows\\arm-none-eabi\\include
 8803              		.file 13 "c:\\users\\vin\355cius\\documents\\daisytoolchain-0.3.1\\windows\\arm-none-eabi\\include
 8804              		.file 14 "c:\\users\\vin\355cius\\documents\\daisytoolchain-0.3.1\\windows\\arm-none-eabi\\include
 8805              		.file 15 "c:\\users\\vin\355cius\\documents\\daisytoolchain-0.3.1\\windows\\arm-none-eabi\\include
 8806              		.file 16 "c:\\users\\vin\355cius\\documents\\daisytoolchain-0.3.1\\windows\\arm-none-eabi\\include
 8807              		.file 17 "c:\\users\\vin\355cius\\documents\\daisytoolchain-0.3.1\\windows\\arm-none-eabi\\include
 8808              		.file 18 "c:\\users\\vin\355cius\\documents\\daisytoolchain-0.3.1\\windows\\arm-none-eabi\\include
 8809              		.file 19 "c:\\users\\vin\355cius\\documents\\daisytoolchain-0.3.1\\windows\\arm-none-eabi\\include
 8810              		.file 20 "c:\\users\\vin\355cius\\documents\\daisytoolchain-0.3.1\\windows\\arm-none-eabi\\include
 8811              		.file 21 "c:\\users\\vin\355cius\\documents\\daisytoolchain-0.3.1\\windows\\arm-none-eabi\\include
 8812              		.file 22 "c:\\users\\vin\355cius\\documents\\daisytoolchain-0.3.1\\windows\\arm-none-eabi\\include
 8813              		.file 23 "c:\\users\\vin\355cius\\documents\\daisytoolchain-0.3.1\\windows\\arm-none-eabi\\include
 8814              		.file 24 "c:\\users\\vin\355cius\\documents\\daisytoolchain-0.3.1\\windows\\arm-none-eabi\\include
ARM GAS  C:\Users\VINCIU~1\AppData\Local\Temp\ccYgfSqf.s 			page 221


 8815              		.file 25 "c:\\users\\vin\355cius\\documents\\daisytoolchain-0.3.1\\windows\\arm-none-eabi\\include
 8816              		.file 26 "c:\\users\\vin\355cius\\documents\\daisytoolchain-0.3.1\\windows\\arm-none-eabi\\include
 8817              		.file 27 "c:\\users\\vin\355cius\\documents\\daisytoolchain-0.3.1\\windows\\arm-none-eabi\\include
 8818              		.file 28 "c:\\users\\vin\355cius\\documents\\daisytoolchain-0.3.1\\windows\\arm-none-eabi\\include
 8819              		.file 29 "c:\\users\\vin\355cius\\documents\\daisytoolchain-0.3.1\\windows\\arm-none-eabi\\include
 8820              		.file 30 "c:\\users\\vin\355cius\\documents\\daisytoolchain-0.3.1\\windows\\arm-none-eabi\\include
 8821              		.file 31 "c:\\users\\vin\355cius\\documents\\daisytoolchain-0.3.1\\windows\\arm-none-eabi\\include
 8822              		.file 32 "c:\\users\\vin\355cius\\documents\\daisytoolchain-0.3.1\\windows\\arm-none-eabi\\include
 8823              		.file 33 "c:\\users\\vin\355cius\\documents\\daisytoolchain-0.3.1\\windows\\arm-none-eabi\\include
 8824              		.file 34 "c:\\users\\vin\355cius\\documents\\daisytoolchain-0.3.1\\windows\\arm-none-eabi\\include
 8825              		.file 35 "c:\\users\\vin\355cius\\documents\\daisytoolchain-0.3.1\\windows\\arm-none-eabi\\include
 8826              		.file 36 "c:\\users\\vin\355cius\\documents\\daisytoolchain-0.3.1\\windows\\arm-none-eabi\\include
 8827              		.file 37 "../../libdaisy/src/daisy_core.h"
 8828              		.file 38 "../../libdaisy/src/per/tim.h"
 8829              		.file 39 "../../libdaisy/src/per/spi.h"
 8830              		.file 40 "../../libdaisy/src/util/wav_format.h"
 8831              		.file 41 "../../libdaisy/src/per/gpio.h"
 8832              		.file 42 "c:\\users\\vin\355cius\\documents\\daisytoolchain-0.3.1\\windows\\lib\\gcc\\arm-none-eab
 8833              		.file 43 "c:\\users\\vin\355cius\\documents\\daisytoolchain-0.3.1\\windows\\arm-none-eabi\\include
 8834              		.file 44 "../../libdaisy/src/util/oled_fonts.h"
 8835              		.file 45 "../../DaisySP/Source/Control/adenv.h"
 8836              		.file 46 "../../DaisySP/Source/Utility/dsp.h"
 8837              		.file 47 "c:\\users\\vin\355cius\\documents\\daisytoolchain-0.3.1\\windows\\arm-none-eabi\\include
 8838              		.file 48 "c:\\users\\vin\355cius\\documents\\daisytoolchain-0.3.1\\windows\\arm-none-eabi\\include
 8839              		.file 49 "c:\\users\\vin\355cius\\documents\\daisytoolchain-0.3.1\\windows\\arm-none-eabi\\include
 8840              		.file 50 "Menus.h"
 8841              		.file 51 "OledDisplayExtravaganza.h"
 8842              		.file 52 "<built-in>"
 8843              		.file 53 "../../libdaisy/src/dev/sr_595.h"
ARM GAS  C:\Users\VINCIU~1\AppData\Local\Temp\ccYgfSqf.s 			page 222


DEFINED SYMBOLS
                            *ABS*:00000000 Menus.cpp
C:\Users\VINCIU~1\AppData\Local\Temp\ccYgfSqf.s:17     .text._ZNK5daisy11OledDisplayINS_13SSD130xDriverILj128ELj64ENS_24SSD130x4WireSpiTransportEEEE5WidthEv:00000000 $t
C:\Users\VINCIU~1\AppData\Local\Temp\ccYgfSqf.s:26     .text._ZNK5daisy11OledDisplayINS_13SSD130xDriverILj128ELj64ENS_24SSD130x4WireSpiTransportEEEE5WidthEv:00000000 _ZNK5daisy11OledDisplayINS_13SSD130xDriverILj128ELj64ENS_24SSD130x4WireSpiTransportEEEE5WidthEv
C:\Users\VINCIU~1\AppData\Local\Temp\ccYgfSqf.s:44     .text._ZNK5daisy11OledDisplayINS_13SSD130xDriverILj128ELj64ENS_24SSD130x4WireSpiTransportEEEE6HeightEv:00000000 $t
C:\Users\VINCIU~1\AppData\Local\Temp\ccYgfSqf.s:52     .text._ZNK5daisy11OledDisplayINS_13SSD130xDriverILj128ELj64ENS_24SSD130x4WireSpiTransportEEEE6HeightEv:00000000 _ZNK5daisy11OledDisplayINS_13SSD130xDriverILj128ELj64ENS_24SSD130x4WireSpiTransportEEEE6HeightEv
C:\Users\VINCIU~1\AppData\Local\Temp\ccYgfSqf.s:69     .rodata._ZN5MenusC2Ev.str1.4:00000000 $d
C:\Users\VINCIU~1\AppData\Local\Temp\ccYgfSqf.s:73     .text._ZN5MenusC2Ev:00000000 $t
C:\Users\VINCIU~1\AppData\Local\Temp\ccYgfSqf.s:81     .text._ZN5MenusC2Ev:00000000 _ZN5MenusC2Ev
C:\Users\VINCIU~1\AppData\Local\Temp\ccYgfSqf.s:219    .text._ZN5MenusC2Ev:00000068 $d
C:\Users\VINCIU~1\AppData\Local\Temp\ccYgfSqf.s:81     .text._ZN5MenusC2Ev:00000000 _ZN5MenusC1Ev
C:\Users\VINCIU~1\AppData\Local\Temp\ccYgfSqf.s:227    .text._ZN5Menus10WaveSelectEf:00000000 $t
C:\Users\VINCIU~1\AppData\Local\Temp\ccYgfSqf.s:235    .text._ZN5Menus10WaveSelectEf:00000000 _ZN5Menus10WaveSelectEf
C:\Users\VINCIU~1\AppData\Local\Temp\ccYgfSqf.s:310    .text._ZN5Menus9OscSelectEf:00000000 $t
C:\Users\VINCIU~1\AppData\Local\Temp\ccYgfSqf.s:318    .text._ZN5Menus9OscSelectEf:00000000 _ZN5Menus9OscSelectEf
C:\Users\VINCIU~1\AppData\Local\Temp\ccYgfSqf.s:384    .text._ZN5daisy25OneBitGraphicsDisplayImplINS_11OledDisplayINS_13SSD130xDriverILj128ELj64ENS_24SSD130x4WireSpiTransportEEEEEE11WriteStringEPKc7FontDefb:00000000 $t
C:\Users\VINCIU~1\AppData\Local\Temp\ccYgfSqf.s:392    .text._ZN5daisy25OneBitGraphicsDisplayImplINS_11OledDisplayINS_13SSD130xDriverILj128ELj64ENS_24SSD130x4WireSpiTransportEEEEEE11WriteStringEPKc7FontDefb:00000000 _ZN5daisy25OneBitGraphicsDisplayImplINS_11OledDisplayINS_13SSD130xDriverILj128ELj64ENS_24SSD130x4WireSpiTransportEEEEEE11WriteStringEPKc7FontDefb
C:\Users\VINCIU~1\AppData\Local\Temp\ccYgfSqf.s:851    .text._ZN5daisy25OneBitGraphicsDisplayImplINS_11OledDisplayINS_13SSD130xDriverILj128ELj64ENS_24SSD130x4WireSpiTransportEEEEEE11WriteStringEPKc7FontDefb:000001b8 $d
C:\Users\VINCIU~1\AppData\Local\Temp\ccYgfSqf.s:861    .rodata._ZN5Menus5Menu2E23OledDisplayExtravaganzaPN7daisysp10OscillatorE.str1.4:00000000 $d
C:\Users\VINCIU~1\AppData\Local\Temp\ccYgfSqf.s:868    .text._ZN5Menus5Menu2E23OledDisplayExtravaganzaPN7daisysp10OscillatorE:00000000 $t
C:\Users\VINCIU~1\AppData\Local\Temp\ccYgfSqf.s:876    .text._ZN5Menus5Menu2E23OledDisplayExtravaganzaPN7daisysp10OscillatorE:00000000 _ZN5Menus5Menu2E23OledDisplayExtravaganzaPN7daisysp10OscillatorE
C:\Users\VINCIU~1\AppData\Local\Temp\ccYgfSqf.s:2016   .text._ZN5Menus5Menu2E23OledDisplayExtravaganzaPN7daisysp10OscillatorE:00000368 $d
C:\Users\VINCIU~1\AppData\Local\Temp\ccYgfSqf.s:2034   .text._ZN5Menus5Menu2E23OledDisplayExtravaganzaPN7daisysp10OscillatorE:00000384 $t
C:\Users\VINCIU~1\AppData\Local\Temp\ccYgfSqf.s:2430   .text._ZN5Menus5Menu2E23OledDisplayExtravaganzaPN7daisysp10OscillatorE:00000500 $d
C:\Users\VINCIU~1\AppData\Local\Temp\ccYgfSqf.s:2441   .rodata._ZN5Menus5Menu3E23OledDisplayExtravaganzaPN7daisysp10OscillatorE.str1.4:00000000 $d
C:\Users\VINCIU~1\AppData\Local\Temp\ccYgfSqf.s:2454   .text._ZN5Menus5Menu3E23OledDisplayExtravaganzaPN7daisysp10OscillatorE:00000000 $t
C:\Users\VINCIU~1\AppData\Local\Temp\ccYgfSqf.s:2462   .text._ZN5Menus5Menu3E23OledDisplayExtravaganzaPN7daisysp10OscillatorE:00000000 _ZN5Menus5Menu3E23OledDisplayExtravaganzaPN7daisysp10OscillatorE
C:\Users\VINCIU~1\AppData\Local\Temp\ccYgfSqf.s:3470   .text._ZN5Menus5Menu3E23OledDisplayExtravaganzaPN7daisysp10OscillatorE:00000378 $d
C:\Users\VINCIU~1\AppData\Local\Temp\ccYgfSqf.s:3493   .text._ZN5Menus5Menu3E23OledDisplayExtravaganzaPN7daisysp10OscillatorE:000003b4 $t
C:\Users\VINCIU~1\AppData\Local\Temp\ccYgfSqf.s:4676   .text._ZN5Menus5Menu3E23OledDisplayExtravaganzaPN7daisysp10OscillatorE:000007a0 $d
C:\Users\VINCIU~1\AppData\Local\Temp\ccYgfSqf.s:4682   .text._ZN5Menus5Menu3E23OledDisplayExtravaganzaPN7daisysp10OscillatorE:000007b0 $t
C:\Users\VINCIU~1\AppData\Local\Temp\ccYgfSqf.s:5115   .text._ZN5Menus5Menu3E23OledDisplayExtravaganzaPN7daisysp10OscillatorE:00000950 $d
C:\Users\VINCIU~1\AppData\Local\Temp\ccYgfSqf.s:5124   .text._ZN5daisy25OneBitGraphicsDisplayImplINS_11OledDisplayINS_13SSD130xDriverILj128ELj64ENS_24SSD130x4WireSpiTransportEEEEEE8DrawRectEjjjjbb:00000000 $t
C:\Users\VINCIU~1\AppData\Local\Temp\ccYgfSqf.s:5132   .text._ZN5daisy25OneBitGraphicsDisplayImplINS_11OledDisplayINS_13SSD130xDriverILj128ELj64ENS_24SSD130x4WireSpiTransportEEEEEE8DrawRectEjjjjbb:00000000 _ZN5daisy25OneBitGraphicsDisplayImplINS_11OledDisplayINS_13SSD130xDriverILj128ELj64ENS_24SSD130x4WireSpiTransportEEEEEE8DrawRectEjjjjbb
C:\Users\VINCIU~1\AppData\Local\Temp\ccYgfSqf.s:6242   .rodata._ZN5Menus5Menu1E23OledDisplayExtravaganzaPN7daisysp10OscillatorE.str1.4:00000000 $d
C:\Users\VINCIU~1\AppData\Local\Temp\ccYgfSqf.s:6255   .text._ZN5Menus5Menu1E23OledDisplayExtravaganzaPN7daisysp10OscillatorE:00000000 $t
C:\Users\VINCIU~1\AppData\Local\Temp\ccYgfSqf.s:6263   .text._ZN5Menus5Menu1E23OledDisplayExtravaganzaPN7daisysp10OscillatorE:00000000 _ZN5Menus5Menu1E23OledDisplayExtravaganzaPN7daisysp10OscillatorE
C:\Users\VINCIU~1\AppData\Local\Temp\ccYgfSqf.s:7074   .text._ZN5Menus5Menu1E23OledDisplayExtravaganzaPN7daisysp10OscillatorE:00000358 $d
C:\Users\VINCIU~1\AppData\Local\Temp\ccYgfSqf.s:7094   .text._ZN5Menus5Menu1E23OledDisplayExtravaganzaPN7daisysp10OscillatorE:00000398 $t
C:\Users\VINCIU~1\AppData\Local\Temp\ccYgfSqf.s:8320   .text._ZN5Menus5Menu1E23OledDisplayExtravaganzaPN7daisysp10OscillatorE:000006fc $d
C:\Users\VINCIU~1\AppData\Local\Temp\ccYgfSqf.s:8336   .text._ZN5Menus5Menu1E23OledDisplayExtravaganzaPN7daisysp10OscillatorE:00000714 $t
C:\Users\VINCIU~1\AppData\Local\Temp\ccYgfSqf.s:8778   .text._ZN5Menus5Menu1E23OledDisplayExtravaganzaPN7daisysp10OscillatorE:00000860 $d

UNDEFINED SYMBOLS
sprintf
memset
dsy_gpio_write
_ZN5daisy9SpiHandle16BlockingTransmitEPhjm
Font_6x8
_ZN23OledDisplayExtravaganza20drawHorizontalToggleEfffbbPKc
_ZN23OledDisplayExtravaganza10drawSliderEffffff
_ZN23OledDisplayExtravaganza18drawVerticalToggleEfffbbPKc
_ZN23OledDisplayExtravaganza9WaveIconsEiiiib
Font_7x10
