ARM GAS  C:\Users\VINCIU~1\AppData\Local\Temp\ccdS0pnQ.s 			page 1


   1              		.cpu cortex-m7
   2              		.eabi_attribute 28, 1
   3              		.eabi_attribute 20, 1
   4              		.eabi_attribute 21, 1
   5              		.eabi_attribute 23, 3
   6              		.eabi_attribute 24, 1
   7              		.eabi_attribute 25, 1
   8              		.eabi_attribute 26, 1
   9              		.eabi_attribute 30, 2
  10              		.eabi_attribute 34, 1
  11              		.eabi_attribute 18, 4
  12              		.file	"Menus.cpp"
  13              		.text
  14              	.Ltext0:
  15              		.cfi_sections	.debug_frame
  16              		.section	.text._ZNK5daisy11OledDisplayINS_13SSD130xDriverILj128ELj64ENS_24SSD130x4WireSpiTransport
  17              		.align	1
  18              		.p2align 2,,3
  19              		.weak	_ZNK5daisy11OledDisplayINS_13SSD130xDriverILj128ELj64ENS_24SSD130x4WireSpiTransportEEEE5Widt
  20              		.arch armv7e-m
  21              		.syntax unified
  22              		.thumb
  23              		.thumb_func
  24              		.fpu fpv5-d16
  26              	_ZNK5daisy11OledDisplayINS_13SSD130xDriverILj128ELj64ENS_24SSD130x4WireSpiTransportEEEE5WidthEv:
  27              	.LVL0:
  28              	.LFB4339:
  29              		.file 1 "../../libdaisy/src/hid/disp/oled_display.h"
   1:../../libdaisy/src/hid/disp/oled_display.h **** #pragma once
   2:../../libdaisy/src/hid/disp/oled_display.h **** #ifndef DSY_OLED_DISPLAY_H
   3:../../libdaisy/src/hid/disp/oled_display.h **** #define DSY_OLED_DISPLAY_H /**< Macro */
   4:../../libdaisy/src/hid/disp/oled_display.h **** 
   5:../../libdaisy/src/hid/disp/oled_display.h **** #include "display.h"
   6:../../libdaisy/src/hid/disp/oled_display.h **** 
   7:../../libdaisy/src/hid/disp/oled_display.h **** namespace daisy
   8:../../libdaisy/src/hid/disp/oled_display.h **** {
   9:../../libdaisy/src/hid/disp/oled_display.h **** /** 
  10:../../libdaisy/src/hid/disp/oled_display.h ****  * This class is for drawing to a monochrome OLED display. 
  11:../../libdaisy/src/hid/disp/oled_display.h **** */
  12:../../libdaisy/src/hid/disp/oled_display.h **** template <typename DisplayDriver>
  13:../../libdaisy/src/hid/disp/oled_display.h **** class OledDisplay : public OneBitGraphicsDisplayImpl<OledDisplay<DisplayDriver>>
  14:../../libdaisy/src/hid/disp/oled_display.h **** {
  15:../../libdaisy/src/hid/disp/oled_display.h ****   public:
  16:../../libdaisy/src/hid/disp/oled_display.h ****     OledDisplay() {}
  17:../../libdaisy/src/hid/disp/oled_display.h ****     virtual ~OledDisplay() {}
  18:../../libdaisy/src/hid/disp/oled_display.h **** 
  19:../../libdaisy/src/hid/disp/oled_display.h ****     struct Config
  20:../../libdaisy/src/hid/disp/oled_display.h ****     {
  21:../../libdaisy/src/hid/disp/oled_display.h ****         typename DisplayDriver::Config driver_config;
  22:../../libdaisy/src/hid/disp/oled_display.h ****     };
  23:../../libdaisy/src/hid/disp/oled_display.h **** 
  24:../../libdaisy/src/hid/disp/oled_display.h ****     void Init(Config config) { driver_.Init(config.driver_config); }
  25:../../libdaisy/src/hid/disp/oled_display.h **** 
  26:../../libdaisy/src/hid/disp/oled_display.h ****     uint16_t Height() const override { return driver_.Height(); }
  27:../../libdaisy/src/hid/disp/oled_display.h ****     uint16_t Width() const override { return driver_.Width(); }
  30              		.loc 1 27 14 view -0
  31              		.cfi_startproc
ARM GAS  C:\Users\VINCIU~1\AppData\Local\Temp\ccdS0pnQ.s 			page 2


  32              		@ args = 0, pretend = 0, frame = 0
  33              		@ frame_needed = 0, uses_anonymous_args = 0
  34              		@ link register save eliminated.
  35              		.loc 1 27 63 is_stmt 0 view .LVU1
  36 0000 8020     		movs	r0, #128
  37              	.LVL1:
  38              		.loc 1 27 63 view .LVU2
  39 0002 7047     		bx	lr
  40              		.cfi_endproc
  41              	.LFE4339:
  43              		.section	.text._ZNK5daisy11OledDisplayINS_13SSD130xDriverILj128ELj64ENS_24SSD130x4WireSpiTransport
  44              		.align	1
  45              		.p2align 2,,3
  46              		.weak	_ZNK5daisy11OledDisplayINS_13SSD130xDriverILj128ELj64ENS_24SSD130x4WireSpiTransportEEEE6Heig
  47              		.syntax unified
  48              		.thumb
  49              		.thumb_func
  50              		.fpu fpv5-d16
  52              	_ZNK5daisy11OledDisplayINS_13SSD130xDriverILj128ELj64ENS_24SSD130x4WireSpiTransportEEEE6HeightEv:
  53              	.LVL2:
  54              	.LFB4342:
  26:../../libdaisy/src/hid/disp/oled_display.h ****     uint16_t Width() const override { return driver_.Width(); }
  55              		.loc 1 26 14 is_stmt 1 view -0
  56              		.cfi_startproc
  57              		@ args = 0, pretend = 0, frame = 0
  58              		@ frame_needed = 0, uses_anonymous_args = 0
  59              		@ link register save eliminated.
  26:../../libdaisy/src/hid/disp/oled_display.h ****     uint16_t Width() const override { return driver_.Width(); }
  60              		.loc 1 26 65 is_stmt 0 view .LVU4
  61 0000 4020     		movs	r0, #64
  62              	.LVL3:
  26:../../libdaisy/src/hid/disp/oled_display.h ****     uint16_t Width() const override { return driver_.Width(); }
  63              		.loc 1 26 65 view .LVU5
  64 0002 7047     		bx	lr
  65              		.cfi_endproc
  66              	.LFE4342:
  68              		.section	.rodata._ZN5MenusC2Ev.str1.4,"aMS",%progbits,1
  69              		.align	2
  70              	.LC0:
  71 0000 54696D65 		.ascii	"Time_0%%\000"
  71      5F302525 
  71      00
  72              		.section	.text._ZN5MenusC2Ev,"ax",%progbits
  73              		.align	1
  74              		.p2align 2,,3
  75              		.global	_ZN5MenusC2Ev
  76              		.syntax unified
  77              		.thumb
  78              		.thumb_func
  79              		.fpu fpv5-d16
  81              	_ZN5MenusC2Ev:
  82              	.LVL4:
  83              	.LFB4035:
  84              		.file 2 "Menus.cpp"
   1:Menus.cpp     **** #include "Menus.h"
   2:Menus.cpp     **** 
   3:Menus.cpp     **** 
ARM GAS  C:\Users\VINCIU~1\AppData\Local\Temp\ccdS0pnQ.s 			page 3


   4:Menus.cpp     **** Menus::Menus()
  85              		.loc 2 4 1 is_stmt 1 view -0
  86              		.cfi_startproc
  87              		@ args = 0, pretend = 0, frame = 0
  88              		@ frame_needed = 0, uses_anonymous_args = 0
  89              		.loc 2 4 1 is_stmt 0 view .LVU7
  90 0000 10B5     		push	{r4, lr}
  91              		.cfi_def_cfa_offset 8
  92              		.cfi_offset 4, -8
  93              		.cfi_offset 14, -4
  94              	.LBB370:
   5:Menus.cpp     **** {
   6:Menus.cpp     ****     this->on                      = true;
   7:Menus.cpp     ****     this->analogRead              = 0;
   8:Menus.cpp     ****     this->analogLastRead          = 0;
   9:Menus.cpp     ****     this->updateValue             = false;
  95              		.loc 2 9 35 view .LVU8
  96 0002 0023     		movs	r3, #0
  97              	.LBE370:
   4:Menus.cpp     **** {
  98              		.loc 2 4 1 view .LVU9
  99 0004 0446     		mov	r4, r0
 100              	.LVL5:
 101              	.LBB377:
 102              	.LBB371:
 103              	.LBI371:
 104              		.file 3 "../../libdaisy/src/hid/encoder.h"
   1:../../libdaisy/src/hid/encoder.h **** #pragma once
   2:../../libdaisy/src/hid/encoder.h **** #ifndef DSY_ENCODER_H
   3:../../libdaisy/src/hid/encoder.h **** #define DSY_ENCODER_H
   4:../../libdaisy/src/hid/encoder.h **** #include "daisy_core.h"
   5:../../libdaisy/src/hid/encoder.h **** #include "per/gpio.h"
   6:../../libdaisy/src/hid/encoder.h **** #include "hid/switch.h"
   7:../../libdaisy/src/hid/encoder.h **** 
   8:../../libdaisy/src/hid/encoder.h **** namespace daisy
   9:../../libdaisy/src/hid/encoder.h **** {
  10:../../libdaisy/src/hid/encoder.h **** /** 
  11:../../libdaisy/src/hid/encoder.h ****     @brief Generic Class for handling Quadrature Encoders \n 
  12:../../libdaisy/src/hid/encoder.h ****     Inspired/influenced by Mutable Instruments (pichenettes) Encoder classes
  13:../../libdaisy/src/hid/encoder.h ****     @author Stephen Hensley
  14:../../libdaisy/src/hid/encoder.h ****     @date December 2019
  15:../../libdaisy/src/hid/encoder.h ****     @ingroup controls
  16:../../libdaisy/src/hid/encoder.h **** */
  17:../../libdaisy/src/hid/encoder.h **** class Encoder
  18:../../libdaisy/src/hid/encoder.h **** {
  19:../../libdaisy/src/hid/encoder.h ****   public:
  20:../../libdaisy/src/hid/encoder.h ****     Encoder() {}
 105              		.loc 3 20 5 is_stmt 1 view .LVU10
 106              	.LBB372:
 107              	.LBI372:
 108              		.file 4 "../../libdaisy/src/hid/switch.h"
   1:../../libdaisy/src/hid/switch.h **** #pragma once
   2:../../libdaisy/src/hid/switch.h **** #ifndef DSY_SWITCH_H
   3:../../libdaisy/src/hid/switch.h **** #define DSY_SWITCH_H
   4:../../libdaisy/src/hid/switch.h **** #include "daisy_core.h"
   5:../../libdaisy/src/hid/switch.h **** #include "per/gpio.h"
   6:../../libdaisy/src/hid/switch.h **** 
ARM GAS  C:\Users\VINCIU~1\AppData\Local\Temp\ccdS0pnQ.s 			page 4


   7:../../libdaisy/src/hid/switch.h **** namespace daisy
   8:../../libdaisy/src/hid/switch.h **** {
   9:../../libdaisy/src/hid/switch.h **** /** 
  10:../../libdaisy/src/hid/switch.h ****     Generic Class for handling momentary/latching switches \n 
  11:../../libdaisy/src/hid/switch.h ****     Inspired/influenced by Mutable Instruments (pichenettes) Switch classes
  12:../../libdaisy/src/hid/switch.h ****     @author Stephen Hensley
  13:../../libdaisy/src/hid/switch.h ****     @date December 2019
  14:../../libdaisy/src/hid/switch.h ****     @ingroup controls
  15:../../libdaisy/src/hid/switch.h **** */
  16:../../libdaisy/src/hid/switch.h **** class Switch
  17:../../libdaisy/src/hid/switch.h **** {
  18:../../libdaisy/src/hid/switch.h ****   public:
  19:../../libdaisy/src/hid/switch.h ****     /** Specifies the expected behavior of the switch */
  20:../../libdaisy/src/hid/switch.h ****     enum Type
  21:../../libdaisy/src/hid/switch.h ****     {
  22:../../libdaisy/src/hid/switch.h ****         TYPE_TOGGLE,    /**< & */
  23:../../libdaisy/src/hid/switch.h ****         TYPE_MOMENTARY, /**< & */
  24:../../libdaisy/src/hid/switch.h ****     };
  25:../../libdaisy/src/hid/switch.h ****     /** Specifies whether the pressed is HIGH or LOW. */
  26:../../libdaisy/src/hid/switch.h ****     enum Polarity
  27:../../libdaisy/src/hid/switch.h ****     {
  28:../../libdaisy/src/hid/switch.h ****         POLARITY_NORMAL,   /**< & */
  29:../../libdaisy/src/hid/switch.h ****         POLARITY_INVERTED, /**< & */
  30:../../libdaisy/src/hid/switch.h ****     };
  31:../../libdaisy/src/hid/switch.h **** 
  32:../../libdaisy/src/hid/switch.h ****     /** Specifies whether to use built-in Pull Up/Down resistors to hold button at a given state wh
  33:../../libdaisy/src/hid/switch.h ****     enum Pull
  34:../../libdaisy/src/hid/switch.h ****     {
  35:../../libdaisy/src/hid/switch.h ****         PULL_UP,   /**< & */
  36:../../libdaisy/src/hid/switch.h ****         PULL_DOWN, /**< & */
  37:../../libdaisy/src/hid/switch.h ****         PULL_NONE, /**< & */
  38:../../libdaisy/src/hid/switch.h ****     };
  39:../../libdaisy/src/hid/switch.h **** 
  40:../../libdaisy/src/hid/switch.h ****     Switch() {}
 109              		.loc 4 40 5 view .LVU11
 110              		.loc 4 40 5 is_stmt 0 view .LVU12
 111              	.LBE372:
 112              	.LBE371:
 113              	.LBB373:
 114              	.LBI373:
 115              		.loc 3 20 5 is_stmt 1 view .LVU13
 116              	.LBB374:
 117              	.LBI374:
 118              		.loc 4 40 5 view .LVU14
 119              		.loc 4 40 5 is_stmt 0 view .LVU15
 120              	.LBE374:
 121              	.LBE373:
 122              	.LBB375:
 123              	.LBI375:
 124              		.loc 4 40 5 is_stmt 1 view .LVU16
 125              		.loc 4 40 5 is_stmt 0 view .LVU17
 126              	.LBE375:
 127              	.LBB376:
 128              	.LBI376:
 129              		.loc 4 40 5 is_stmt 1 view .LVU18
 130              		.loc 4 40 5 is_stmt 0 view .LVU19
 131              	.LBE376:
ARM GAS  C:\Users\VINCIU~1\AppData\Local\Temp\ccdS0pnQ.s 			page 5


   6:Menus.cpp     ****     this->analogRead              = 0;
 132              		.loc 2 6 5 is_stmt 1 view .LVU20
   7:Menus.cpp     ****     this->analogLastRead          = 0;
 133              		.loc 2 7 5 view .LVU21
  10:Menus.cpp     ****     this->menuState               = 0;
  11:Menus.cpp     ****     this->menuStateGlide          = 0;
  12:Menus.cpp     ****     this->menuStateEnv            = 0;
  13:Menus.cpp     ****     this->menuStateEnvFilter      = 0;
  14:Menus.cpp     ****     this->OscSelector             = true;
  15:Menus.cpp     ****     this->synthOn                 = 1;
  16:Menus.cpp     ****     this->synthOn2                = 1;
  17:Menus.cpp     ****     this->freqFine2               = 0;
  18:Menus.cpp     ****     this->freqFine                = 0;
  19:Menus.cpp     ****     this->analogRead              = 0;
  20:Menus.cpp     ****     this->glideTime               = 1;
 134              		.loc 2 20 35 is_stmt 0 view .LVU22
 135 0006 4FF07E52 		mov	r2, #1065353216
  21:Menus.cpp     ****     this->circleGlideTimePosition = 10;
  22:Menus.cpp     ****     this->state                   = 1;
  23:Menus.cpp     ****     this->stateWave               = 0;
  24:Menus.cpp     ****     this->toggleState             = 1;
  25:Menus.cpp     ****     this->toggleState2            = 1;
  26:Menus.cpp     ****     this->setWave                 = 0;
  27:Menus.cpp     ****     this->setWave2                = 0;
  28:Menus.cpp     ****     this->attackTime              = 0.1f;
  29:Menus.cpp     ****     this->attackTime              = 0.5f;
 136              		.loc 2 29 35 view .LVU23
 137 000a 4FF07C5C 		mov	ip, #1056964608
  21:Menus.cpp     ****     this->circleGlideTimePosition = 10;
 138              		.loc 2 21 35 view .LVU24
 139 000e 1649     		ldr	r1, .L6
  20:Menus.cpp     ****     this->circleGlideTimePosition = 10;
 140              		.loc 2 20 35 view .LVU25
 141 0010 C0F89420 		str	r2, [r0, #148]	@ float
   7:Menus.cpp     ****     this->analogLastRead          = 0;
 142              		.loc 2 7 35 view .LVU26
 143 0014 0022     		movs	r2, #0
   9:Menus.cpp     ****     this->menuState               = 0;
 144              		.loc 2 9 35 view .LVU27
 145 0016 2372     		strb	r3, [r4, #8]
  30:Menus.cpp     ****     this->attackTimeScaleDraw     = 0.5f;
  31:Menus.cpp     ****     this-> colorTemplate = false;
 146              		.loc 2 31 26 view .LVU28
 147 0018 4FF48070 		mov	r0, #256
 148              	.LVL6:
  23:Menus.cpp     ****     this->toggleState             = 1;
 149              		.loc 2 23 35 view .LVU29
 150 001c C4F88431 		str	r3, [r4, #388]
 151              		.loc 2 31 26 view .LVU30
 152 0020 A4F8E401 		strh	r0, [r4, #484]	@ movhi
  32:Menus.cpp     **** 
  33:Menus.cpp     ****     sprintf(this->buffPitchTime, "Time_0%%");
 153              		.loc 2 33 12 view .LVU31
 154 0024 04F58E70 		add	r0, r4, #284
  21:Menus.cpp     ****     this->state                   = 1;
 155              		.loc 2 21 35 view .LVU32
 156 0028 C4F88C10 		str	r1, [r4, #140]	@ float
ARM GAS  C:\Users\VINCIU~1\AppData\Local\Temp\ccdS0pnQ.s 			page 6


   7:Menus.cpp     ****     this->analogLastRead          = 0;
 157              		.loc 2 7 35 view .LVU33
 158 002c 2260     		str	r2, [r4]	@ float
   8:Menus.cpp     ****     this->updateValue             = false;
 159              		.loc 2 8 5 is_stmt 1 view .LVU34
 160              		.loc 2 33 12 is_stmt 0 view .LVU35
 161 002e 0F49     		ldr	r1, .L6+4
   8:Menus.cpp     ****     this->updateValue             = false;
 162              		.loc 2 8 35 view .LVU36
 163 0030 6260     		str	r2, [r4, #4]	@ float
   9:Menus.cpp     ****     this->menuState               = 0;
 164              		.loc 2 9 5 is_stmt 1 view .LVU37
  10:Menus.cpp     ****     this->menuStateGlide          = 0;
 165              		.loc 2 10 5 view .LVU38
  17:Menus.cpp     ****     this->freqFine                = 0;
 166              		.loc 2 17 35 is_stmt 0 view .LVU39
 167 0032 C4F87821 		str	r2, [r4, #376]	@ float
  18:Menus.cpp     ****     this->analogRead              = 0;
 168              		.loc 2 18 35 view .LVU40
 169 0036 C4F87421 		str	r2, [r4, #372]	@ float
  29:Menus.cpp     ****     this->attackTimeScaleDraw     = 0.5f;
 170              		.loc 2 29 35 view .LVU41
 171 003a C4F898C1 		str	ip, [r4, #408]	@ float
  30:Menus.cpp     ****     this-> colorTemplate = false;
 172              		.loc 2 30 35 view .LVU42
 173 003e C4F8A4C1 		str	ip, [r4, #420]	@ float
  11:Menus.cpp     ****     this->menuStateEnv            = 0;
 174              		.loc 2 11 35 view .LVU43
 175 0042 C4E91B33 		strd	r3, r3, [r4, #108]
  12:Menus.cpp     ****     this->menuStateEnvFilter      = 0;
 176              		.loc 2 12 5 is_stmt 1 view .LVU44
  13:Menus.cpp     ****     this->OscSelector             = true;
 177              		.loc 2 13 35 is_stmt 0 view .LVU45
 178 0046 C4E96B33 		strd	r3, r3, [r4, #428]
  14:Menus.cpp     ****     this->synthOn                 = 1;
 179              		.loc 2 14 5 is_stmt 1 view .LVU46
  27:Menus.cpp     ****     this->attackTime              = 0.1f;
 180              		.loc 2 27 35 is_stmt 0 view .LVU47
 181 004a C4E96433 		strd	r3, r3, [r4, #400]
  14:Menus.cpp     ****     this->synthOn                 = 1;
 182              		.loc 2 14 35 view .LVU48
 183 004e 0123     		movs	r3, #1
 184 0050 84F87430 		strb	r3, [r4, #116]
  15:Menus.cpp     ****     this->synthOn2                = 1;
 185              		.loc 2 15 5 is_stmt 1 view .LVU49
  22:Menus.cpp     ****     this->stateWave               = 0;
 186              		.loc 2 22 35 is_stmt 0 view .LVU50
 187 0054 C4F88031 		str	r3, [r4, #384]
  16:Menus.cpp     ****     this->freqFine2               = 0;
 188              		.loc 2 16 35 view .LVU51
 189 0058 C4E95B33 		strd	r3, r3, [r4, #364]
  17:Menus.cpp     ****     this->freqFine                = 0;
 190              		.loc 2 17 5 is_stmt 1 view .LVU52
  18:Menus.cpp     ****     this->analogRead              = 0;
 191              		.loc 2 18 5 view .LVU53
  19:Menus.cpp     ****     this->glideTime               = 1;
 192              		.loc 2 19 5 view .LVU54
ARM GAS  C:\Users\VINCIU~1\AppData\Local\Temp\ccdS0pnQ.s 			page 7


  20:Menus.cpp     ****     this->circleGlideTimePosition = 10;
 193              		.loc 2 20 5 view .LVU55
  21:Menus.cpp     ****     this->state                   = 1;
 194              		.loc 2 21 5 view .LVU56
  22:Menus.cpp     ****     this->stateWave               = 0;
 195              		.loc 2 22 5 view .LVU57
  23:Menus.cpp     ****     this->toggleState             = 1;
 196              		.loc 2 23 5 view .LVU58
  24:Menus.cpp     ****     this->toggleState2            = 1;
 197              		.loc 2 24 5 view .LVU59
  25:Menus.cpp     ****     this->setWave                 = 0;
 198              		.loc 2 25 35 is_stmt 0 view .LVU60
 199 005c C4E96233 		strd	r3, r3, [r4, #392]
  26:Menus.cpp     ****     this->setWave2                = 0;
 200              		.loc 2 26 5 is_stmt 1 view .LVU61
  27:Menus.cpp     ****     this->attackTime              = 0.1f;
 201              		.loc 2 27 5 view .LVU62
  28:Menus.cpp     ****     this->attackTime              = 0.5f;
 202              		.loc 2 28 5 view .LVU63
  29:Menus.cpp     ****     this->attackTimeScaleDraw     = 0.5f;
 203              		.loc 2 29 5 view .LVU64
  30:Menus.cpp     ****     this-> colorTemplate = false;
 204              		.loc 2 30 5 view .LVU65
  31:Menus.cpp     **** 
 205              		.loc 2 31 5 view .LVU66
 206              		.loc 2 33 5 view .LVU67
 207              		.loc 2 33 12 is_stmt 0 view .LVU68
 208 0060 FFF7FEFF 		bl	sprintf
 209              	.LVL7:
 210              	.LBE377:
  34:Menus.cpp     **** }
 211              		.loc 2 34 1 view .LVU69
 212 0064 2046     		mov	r0, r4
 213 0066 10BD     		pop	{r4, pc}
 214              	.LVL8:
 215              	.L7:
 216              		.loc 2 34 1 view .LVU70
 217              		.align	2
 218              	.L6:
 219 0068 00002041 		.word	1092616192
 220 006c 00000000 		.word	.LC0
 221              		.cfi_endproc
 222              	.LFE4035:
 224              		.global	_ZN5MenusC1Ev
 225              		.thumb_set _ZN5MenusC1Ev,_ZN5MenusC2Ev
 226              		.section	.text._ZN5Menus12SplashScreenE23OledDisplayExtravaganza,"ax",%progbits
 227              		.align	1
 228              		.p2align 2,,3
 229              		.global	_ZN5Menus12SplashScreenE23OledDisplayExtravaganza
 230              		.syntax unified
 231              		.thumb
 232              		.thumb_func
 233              		.fpu fpv5-d16
 235              	_ZN5Menus12SplashScreenE23OledDisplayExtravaganza:
 236              	.LVL9:
 237              	.LFB4037:
  35:Menus.cpp     **** 
ARM GAS  C:\Users\VINCIU~1\AppData\Local\Temp\ccdS0pnQ.s 			page 8


  36:Menus.cpp     **** void Menus::SplashScreen(OledDisplayExtravaganza screen)
  37:Menus.cpp     **** {
 238              		.loc 2 37 1 is_stmt 1 view -0
 239              		.cfi_startproc
 240              		@ args = 0, pretend = 0, frame = 16
 241              		@ frame_needed = 0, uses_anonymous_args = 0
 242              		.loc 2 37 1 is_stmt 0 view .LVU72
 243 0000 2DE9F04F 		push	{r4, r5, r6, r7, r8, r9, r10, fp, lr}
 244              		.cfi_def_cfa_offset 36
 245              		.cfi_offset 4, -36
 246              		.cfi_offset 5, -32
 247              		.cfi_offset 6, -28
 248              		.cfi_offset 7, -24
 249              		.cfi_offset 8, -20
 250              		.cfi_offset 9, -16
 251              		.cfi_offset 10, -12
 252              		.cfi_offset 11, -8
 253              		.cfi_offset 14, -4
  38:Menus.cpp     ****     
  39:Menus.cpp     ****    
  40:Menus.cpp     ****     screen.Fill(colorTemplate);
 254              		.loc 2 40 16 view .LVU73
 255 0004 90F8E451 		ldrb	r5, [r0, #484]	@ zero_extendqisi2
  37:Menus.cpp     ****     
 256              		.loc 2 37 1 view .LVU74
 257 0008 85B0     		sub	sp, sp, #20
 258              		.cfi_def_cfa_offset 56
  37:Menus.cpp     ****     
 259              		.loc 2 37 1 view .LVU75
 260 000a 0C46     		mov	r4, r1
 261              	.LBB642:
 262              	.LBB643:
 263              	.LBB644:
 264              		.file 5 "../../libdaisy/src/dev/oled_ssd130x.h"
   1:../../libdaisy/src/dev/oled_ssd130x.h **** #pragma once
   2:../../libdaisy/src/dev/oled_ssd130x.h **** #ifndef SA_OLED_SSD130X_H
   3:../../libdaisy/src/dev/oled_ssd130x.h **** #define SA_OLED_SSD130X_H /**< & */
   4:../../libdaisy/src/dev/oled_ssd130x.h **** 
   5:../../libdaisy/src/dev/oled_ssd130x.h **** #include "per/i2c.h"
   6:../../libdaisy/src/dev/oled_ssd130x.h **** #include "per/spi.h"
   7:../../libdaisy/src/dev/oled_ssd130x.h **** #include "per/gpio.h"
   8:../../libdaisy/src/dev/oled_ssd130x.h **** #include "sys/system.h"
   9:../../libdaisy/src/dev/oled_ssd130x.h **** 
  10:../../libdaisy/src/dev/oled_ssd130x.h **** namespace daisy
  11:../../libdaisy/src/dev/oled_ssd130x.h **** {
  12:../../libdaisy/src/dev/oled_ssd130x.h **** /**
  13:../../libdaisy/src/dev/oled_ssd130x.h ****  * I2C Transport for SSD1306 / SSD1309 OLED display devices
  14:../../libdaisy/src/dev/oled_ssd130x.h ****  */
  15:../../libdaisy/src/dev/oled_ssd130x.h **** class SSD130xI2CTransport
  16:../../libdaisy/src/dev/oled_ssd130x.h **** {
  17:../../libdaisy/src/dev/oled_ssd130x.h ****   public:
  18:../../libdaisy/src/dev/oled_ssd130x.h ****     struct Config
  19:../../libdaisy/src/dev/oled_ssd130x.h ****     {
  20:../../libdaisy/src/dev/oled_ssd130x.h ****         I2CHandle::Config i2c_config;
  21:../../libdaisy/src/dev/oled_ssd130x.h ****         uint8_t           i2c_address;
  22:../../libdaisy/src/dev/oled_ssd130x.h ****         void              Defaults()
  23:../../libdaisy/src/dev/oled_ssd130x.h ****         {
ARM GAS  C:\Users\VINCIU~1\AppData\Local\Temp\ccdS0pnQ.s 			page 9


  24:../../libdaisy/src/dev/oled_ssd130x.h ****             i2c_config.periph         = I2CHandle::Config::Peripheral::I2C_1;
  25:../../libdaisy/src/dev/oled_ssd130x.h ****             i2c_config.speed          = I2CHandle::Config::Speed::I2C_1MHZ;
  26:../../libdaisy/src/dev/oled_ssd130x.h ****             i2c_config.mode           = I2CHandle::Config::Mode::I2C_MASTER;
  27:../../libdaisy/src/dev/oled_ssd130x.h ****             i2c_config.pin_config.scl = {DSY_GPIOB, 8};
  28:../../libdaisy/src/dev/oled_ssd130x.h ****             i2c_config.pin_config.sda = {DSY_GPIOB, 9};
  29:../../libdaisy/src/dev/oled_ssd130x.h ****             i2c_address               = 0x3C;
  30:../../libdaisy/src/dev/oled_ssd130x.h ****         }
  31:../../libdaisy/src/dev/oled_ssd130x.h ****     };
  32:../../libdaisy/src/dev/oled_ssd130x.h ****     void Init(const Config& config)
  33:../../libdaisy/src/dev/oled_ssd130x.h ****     {
  34:../../libdaisy/src/dev/oled_ssd130x.h ****         i2c_address_ = config.i2c_address;
  35:../../libdaisy/src/dev/oled_ssd130x.h ****         i2c_.Init(config.i2c_config);
  36:../../libdaisy/src/dev/oled_ssd130x.h ****     };
  37:../../libdaisy/src/dev/oled_ssd130x.h ****     void SendCommand(uint8_t cmd)
  38:../../libdaisy/src/dev/oled_ssd130x.h ****     {
  39:../../libdaisy/src/dev/oled_ssd130x.h ****         uint8_t buf[2] = {0X00, cmd};
  40:../../libdaisy/src/dev/oled_ssd130x.h ****         i2c_.TransmitBlocking(i2c_address_, buf, 2, 1000);
  41:../../libdaisy/src/dev/oled_ssd130x.h ****     };
  42:../../libdaisy/src/dev/oled_ssd130x.h **** 
  43:../../libdaisy/src/dev/oled_ssd130x.h ****     void SendData(uint8_t* buff, size_t size)
  44:../../libdaisy/src/dev/oled_ssd130x.h ****     {
  45:../../libdaisy/src/dev/oled_ssd130x.h ****         for(size_t i = 0; i < size; i++)
  46:../../libdaisy/src/dev/oled_ssd130x.h ****         {
  47:../../libdaisy/src/dev/oled_ssd130x.h ****             uint8_t buf[2] = {0X40, buff[i]};
  48:../../libdaisy/src/dev/oled_ssd130x.h ****             i2c_.TransmitBlocking(i2c_address_, buf, 2, 1000);
  49:../../libdaisy/src/dev/oled_ssd130x.h ****         }
  50:../../libdaisy/src/dev/oled_ssd130x.h ****     };
  51:../../libdaisy/src/dev/oled_ssd130x.h **** 
  52:../../libdaisy/src/dev/oled_ssd130x.h ****   private:
  53:../../libdaisy/src/dev/oled_ssd130x.h ****     daisy::I2CHandle i2c_;
  54:../../libdaisy/src/dev/oled_ssd130x.h ****     uint8_t          i2c_address_;
  55:../../libdaisy/src/dev/oled_ssd130x.h **** };
  56:../../libdaisy/src/dev/oled_ssd130x.h **** 
  57:../../libdaisy/src/dev/oled_ssd130x.h **** /**
  58:../../libdaisy/src/dev/oled_ssd130x.h ****  * 4 Wire SPI Transport for SSD1306 / SSD1309 OLED display devices
  59:../../libdaisy/src/dev/oled_ssd130x.h ****  */
  60:../../libdaisy/src/dev/oled_ssd130x.h **** class SSD130x4WireSpiTransport
  61:../../libdaisy/src/dev/oled_ssd130x.h **** {
  62:../../libdaisy/src/dev/oled_ssd130x.h ****   public:
  63:../../libdaisy/src/dev/oled_ssd130x.h ****     struct Config
  64:../../libdaisy/src/dev/oled_ssd130x.h ****     {
  65:../../libdaisy/src/dev/oled_ssd130x.h ****         struct
  66:../../libdaisy/src/dev/oled_ssd130x.h ****         {
  67:../../libdaisy/src/dev/oled_ssd130x.h ****             dsy_gpio_pin dc;    /**< & */
  68:../../libdaisy/src/dev/oled_ssd130x.h ****             dsy_gpio_pin reset; /**< & */
  69:../../libdaisy/src/dev/oled_ssd130x.h ****         } pin_config;
  70:../../libdaisy/src/dev/oled_ssd130x.h ****         void Defaults()
  71:../../libdaisy/src/dev/oled_ssd130x.h ****         {
  72:../../libdaisy/src/dev/oled_ssd130x.h ****             pin_config.dc    = {DSY_GPIOB, 4};
  73:../../libdaisy/src/dev/oled_ssd130x.h ****             pin_config.reset = {DSY_GPIOB, 15};
  74:../../libdaisy/src/dev/oled_ssd130x.h ****         }
  75:../../libdaisy/src/dev/oled_ssd130x.h ****     };
  76:../../libdaisy/src/dev/oled_ssd130x.h ****     void Init(const Config& config)
  77:../../libdaisy/src/dev/oled_ssd130x.h ****     {
  78:../../libdaisy/src/dev/oled_ssd130x.h ****         // Initialize both GPIO
  79:../../libdaisy/src/dev/oled_ssd130x.h ****         pin_dc_.mode = DSY_GPIO_MODE_OUTPUT_PP;
  80:../../libdaisy/src/dev/oled_ssd130x.h ****         pin_dc_.pin  = config.pin_config.dc;
ARM GAS  C:\Users\VINCIU~1\AppData\Local\Temp\ccdS0pnQ.s 			page 10


  81:../../libdaisy/src/dev/oled_ssd130x.h ****         dsy_gpio_init(&pin_dc_);
  82:../../libdaisy/src/dev/oled_ssd130x.h ****         pin_reset_.mode = DSY_GPIO_MODE_OUTPUT_PP;
  83:../../libdaisy/src/dev/oled_ssd130x.h ****         pin_reset_.pin  = config.pin_config.reset;
  84:../../libdaisy/src/dev/oled_ssd130x.h ****         dsy_gpio_init(&pin_reset_);
  85:../../libdaisy/src/dev/oled_ssd130x.h ****         // Initialize SPI
  86:../../libdaisy/src/dev/oled_ssd130x.h ****         SpiHandle::Config spi_config;
  87:../../libdaisy/src/dev/oled_ssd130x.h ****         spi_config.periph    = SpiHandle::Config::Peripheral::SPI_1;
  88:../../libdaisy/src/dev/oled_ssd130x.h ****         spi_config.mode      = SpiHandle::Config::Mode::MASTER;
  89:../../libdaisy/src/dev/oled_ssd130x.h ****         spi_config.direction = SpiHandle::Config::Direction::TWO_LINES_TX_ONLY;
  90:../../libdaisy/src/dev/oled_ssd130x.h ****         spi_config.datasize  = 8;
  91:../../libdaisy/src/dev/oled_ssd130x.h ****         spi_config.clock_polarity = SpiHandle::Config::ClockPolarity::LOW;
  92:../../libdaisy/src/dev/oled_ssd130x.h ****         spi_config.clock_phase    = SpiHandle::Config::ClockPhase::ONE_EDGE;
  93:../../libdaisy/src/dev/oled_ssd130x.h ****         spi_config.nss            = SpiHandle::Config::NSS::HARD_OUTPUT;
  94:../../libdaisy/src/dev/oled_ssd130x.h ****         spi_config.baud_prescaler = SpiHandle::Config::BaudPrescaler::PS_8;
  95:../../libdaisy/src/dev/oled_ssd130x.h **** 
  96:../../libdaisy/src/dev/oled_ssd130x.h ****         spi_config.pin_config.sclk = {DSY_GPIOG, 11};
  97:../../libdaisy/src/dev/oled_ssd130x.h ****         spi_config.pin_config.miso = {DSY_GPIOX, 0};
  98:../../libdaisy/src/dev/oled_ssd130x.h ****         spi_config.pin_config.mosi = {DSY_GPIOB, 5};
  99:../../libdaisy/src/dev/oled_ssd130x.h ****         spi_config.pin_config.nss  = {DSY_GPIOG, 10};
 100:../../libdaisy/src/dev/oled_ssd130x.h **** 
 101:../../libdaisy/src/dev/oled_ssd130x.h ****         spi_.Init(spi_config);
 102:../../libdaisy/src/dev/oled_ssd130x.h **** 
 103:../../libdaisy/src/dev/oled_ssd130x.h ****         // Reset and Configure OLED.
 104:../../libdaisy/src/dev/oled_ssd130x.h ****         dsy_gpio_write(&pin_reset_, 0);
 105:../../libdaisy/src/dev/oled_ssd130x.h ****         System::Delay(10);
 106:../../libdaisy/src/dev/oled_ssd130x.h ****         dsy_gpio_write(&pin_reset_, 1);
 107:../../libdaisy/src/dev/oled_ssd130x.h ****         System::Delay(10);
 108:../../libdaisy/src/dev/oled_ssd130x.h ****     };
 109:../../libdaisy/src/dev/oled_ssd130x.h ****     void SendCommand(uint8_t cmd)
 110:../../libdaisy/src/dev/oled_ssd130x.h ****     {
 111:../../libdaisy/src/dev/oled_ssd130x.h ****         dsy_gpio_write(&pin_dc_, 0);
 112:../../libdaisy/src/dev/oled_ssd130x.h ****         spi_.BlockingTransmit(&cmd, 1);
 113:../../libdaisy/src/dev/oled_ssd130x.h ****     };
 114:../../libdaisy/src/dev/oled_ssd130x.h **** 
 115:../../libdaisy/src/dev/oled_ssd130x.h ****     void SendData(uint8_t* buff, size_t size)
 116:../../libdaisy/src/dev/oled_ssd130x.h ****     {
 117:../../libdaisy/src/dev/oled_ssd130x.h ****         dsy_gpio_write(&pin_dc_, 1);
 118:../../libdaisy/src/dev/oled_ssd130x.h ****         spi_.BlockingTransmit(buff, size);
 119:../../libdaisy/src/dev/oled_ssd130x.h ****     };
 120:../../libdaisy/src/dev/oled_ssd130x.h **** 
 121:../../libdaisy/src/dev/oled_ssd130x.h ****   private:
 122:../../libdaisy/src/dev/oled_ssd130x.h ****     SpiHandle spi_;
 123:../../libdaisy/src/dev/oled_ssd130x.h ****     dsy_gpio  pin_reset_;
 124:../../libdaisy/src/dev/oled_ssd130x.h ****     dsy_gpio  pin_dc_;
 125:../../libdaisy/src/dev/oled_ssd130x.h **** };
 126:../../libdaisy/src/dev/oled_ssd130x.h **** 
 127:../../libdaisy/src/dev/oled_ssd130x.h **** 
 128:../../libdaisy/src/dev/oled_ssd130x.h **** /**
 129:../../libdaisy/src/dev/oled_ssd130x.h ****  * A driver implementation for the SSD1306/SSD1309
 130:../../libdaisy/src/dev/oled_ssd130x.h ****  */
 131:../../libdaisy/src/dev/oled_ssd130x.h **** template <size_t width, size_t height, typename Transport>
 132:../../libdaisy/src/dev/oled_ssd130x.h **** class SSD130xDriver
 133:../../libdaisy/src/dev/oled_ssd130x.h **** {
 134:../../libdaisy/src/dev/oled_ssd130x.h ****   public:
 135:../../libdaisy/src/dev/oled_ssd130x.h ****     struct Config
 136:../../libdaisy/src/dev/oled_ssd130x.h ****     {
 137:../../libdaisy/src/dev/oled_ssd130x.h ****         typename Transport::Config transport_config;
ARM GAS  C:\Users\VINCIU~1\AppData\Local\Temp\ccdS0pnQ.s 			page 11


 138:../../libdaisy/src/dev/oled_ssd130x.h ****     };
 139:../../libdaisy/src/dev/oled_ssd130x.h **** 
 140:../../libdaisy/src/dev/oled_ssd130x.h ****     void Init(Config config)
 141:../../libdaisy/src/dev/oled_ssd130x.h ****     {
 142:../../libdaisy/src/dev/oled_ssd130x.h ****         transport_.Init(config.transport_config);
 143:../../libdaisy/src/dev/oled_ssd130x.h **** 
 144:../../libdaisy/src/dev/oled_ssd130x.h ****         // Init routine...
 145:../../libdaisy/src/dev/oled_ssd130x.h **** 
 146:../../libdaisy/src/dev/oled_ssd130x.h ****         // Display Off
 147:../../libdaisy/src/dev/oled_ssd130x.h ****         transport_.SendCommand(0xaE);
 148:../../libdaisy/src/dev/oled_ssd130x.h ****         // Dimension dependent commands...
 149:../../libdaisy/src/dev/oled_ssd130x.h ****         switch(height)
 150:../../libdaisy/src/dev/oled_ssd130x.h ****         {
 151:../../libdaisy/src/dev/oled_ssd130x.h ****             case 16:
 152:../../libdaisy/src/dev/oled_ssd130x.h ****                 // Display Clock Divide Ratio
 153:../../libdaisy/src/dev/oled_ssd130x.h ****                 transport_.SendCommand(0xD5);
 154:../../libdaisy/src/dev/oled_ssd130x.h ****                 transport_.SendCommand(0x60);
 155:../../libdaisy/src/dev/oled_ssd130x.h ****                 // Multiplex Ratio
 156:../../libdaisy/src/dev/oled_ssd130x.h ****                 transport_.SendCommand(0xA8);
 157:../../libdaisy/src/dev/oled_ssd130x.h ****                 transport_.SendCommand(0x0F);
 158:../../libdaisy/src/dev/oled_ssd130x.h ****                 // COM Pins
 159:../../libdaisy/src/dev/oled_ssd130x.h ****                 transport_.SendCommand(0xDA);
 160:../../libdaisy/src/dev/oled_ssd130x.h ****                 transport_.SendCommand(0x02);
 161:../../libdaisy/src/dev/oled_ssd130x.h ****                 break;
 162:../../libdaisy/src/dev/oled_ssd130x.h ****             case 32:
 163:../../libdaisy/src/dev/oled_ssd130x.h ****                 // Display Clock Divide Ratio
 164:../../libdaisy/src/dev/oled_ssd130x.h ****                 transport_.SendCommand(0xD5);
 165:../../libdaisy/src/dev/oled_ssd130x.h ****                 transport_.SendCommand(0x80);
 166:../../libdaisy/src/dev/oled_ssd130x.h ****                 // Multiplex Ratio
 167:../../libdaisy/src/dev/oled_ssd130x.h ****                 transport_.SendCommand(0xA8);
 168:../../libdaisy/src/dev/oled_ssd130x.h ****                 transport_.SendCommand(0x1F);
 169:../../libdaisy/src/dev/oled_ssd130x.h ****                 // COM Pins
 170:../../libdaisy/src/dev/oled_ssd130x.h ****                 transport_.SendCommand(0xDA);
 171:../../libdaisy/src/dev/oled_ssd130x.h ****                 if(width == 64)
 172:../../libdaisy/src/dev/oled_ssd130x.h ****                 {
 173:../../libdaisy/src/dev/oled_ssd130x.h ****                     transport_.SendCommand(0x12);
 174:../../libdaisy/src/dev/oled_ssd130x.h ****                 }
 175:../../libdaisy/src/dev/oled_ssd130x.h ****                 else
 176:../../libdaisy/src/dev/oled_ssd130x.h ****                 {
 177:../../libdaisy/src/dev/oled_ssd130x.h ****                     transport_.SendCommand(0x02);
 178:../../libdaisy/src/dev/oled_ssd130x.h ****                 }
 179:../../libdaisy/src/dev/oled_ssd130x.h **** 
 180:../../libdaisy/src/dev/oled_ssd130x.h ****                 break;
 181:../../libdaisy/src/dev/oled_ssd130x.h ****             case 48:
 182:../../libdaisy/src/dev/oled_ssd130x.h ****                 // Display Clock Divide Ratio
 183:../../libdaisy/src/dev/oled_ssd130x.h ****                 transport_.SendCommand(0xD5);
 184:../../libdaisy/src/dev/oled_ssd130x.h ****                 transport_.SendCommand(0x80);
 185:../../libdaisy/src/dev/oled_ssd130x.h ****                 // Multiplex Ratio
 186:../../libdaisy/src/dev/oled_ssd130x.h ****                 transport_.SendCommand(0xA8);
 187:../../libdaisy/src/dev/oled_ssd130x.h ****                 transport_.SendCommand(0x2F);
 188:../../libdaisy/src/dev/oled_ssd130x.h ****                 // COM Pins
 189:../../libdaisy/src/dev/oled_ssd130x.h ****                 transport_.SendCommand(0xDA);
 190:../../libdaisy/src/dev/oled_ssd130x.h ****                 transport_.SendCommand(0x12);
 191:../../libdaisy/src/dev/oled_ssd130x.h ****                 break;
 192:../../libdaisy/src/dev/oled_ssd130x.h ****             default: // 128
 193:../../libdaisy/src/dev/oled_ssd130x.h ****                 // Display Clock Divide Ratio
 194:../../libdaisy/src/dev/oled_ssd130x.h ****                 transport_.SendCommand(0xD5);
ARM GAS  C:\Users\VINCIU~1\AppData\Local\Temp\ccdS0pnQ.s 			page 12


 195:../../libdaisy/src/dev/oled_ssd130x.h ****                 transport_.SendCommand(0x80);
 196:../../libdaisy/src/dev/oled_ssd130x.h ****                 // Multiplex Ratio
 197:../../libdaisy/src/dev/oled_ssd130x.h ****                 transport_.SendCommand(0xA8);
 198:../../libdaisy/src/dev/oled_ssd130x.h ****                 transport_.SendCommand(0x3F);
 199:../../libdaisy/src/dev/oled_ssd130x.h ****                 // COM Pins
 200:../../libdaisy/src/dev/oled_ssd130x.h ****                 transport_.SendCommand(0xDA);
 201:../../libdaisy/src/dev/oled_ssd130x.h ****                 transport_.SendCommand(0x12);
 202:../../libdaisy/src/dev/oled_ssd130x.h ****                 break;
 203:../../libdaisy/src/dev/oled_ssd130x.h ****         }
 204:../../libdaisy/src/dev/oled_ssd130x.h **** 
 205:../../libdaisy/src/dev/oled_ssd130x.h ****         // Display Offset
 206:../../libdaisy/src/dev/oled_ssd130x.h ****         transport_.SendCommand(0xD3);
 207:../../libdaisy/src/dev/oled_ssd130x.h ****         transport_.SendCommand(0x00);
 208:../../libdaisy/src/dev/oled_ssd130x.h ****         // Start Line Address
 209:../../libdaisy/src/dev/oled_ssd130x.h ****         transport_.SendCommand(0x40);
 210:../../libdaisy/src/dev/oled_ssd130x.h ****         // Normal Display
 211:../../libdaisy/src/dev/oled_ssd130x.h ****         transport_.SendCommand(0xA6);
 212:../../libdaisy/src/dev/oled_ssd130x.h ****         // All On Resume
 213:../../libdaisy/src/dev/oled_ssd130x.h ****         transport_.SendCommand(0xA4);
 214:../../libdaisy/src/dev/oled_ssd130x.h ****         // Charge Pump
 215:../../libdaisy/src/dev/oled_ssd130x.h ****         transport_.SendCommand(0x8D);
 216:../../libdaisy/src/dev/oled_ssd130x.h ****         transport_.SendCommand(0x14);
 217:../../libdaisy/src/dev/oled_ssd130x.h ****         // Set Segment Remap
 218:../../libdaisy/src/dev/oled_ssd130x.h ****         transport_.SendCommand(0xA1);
 219:../../libdaisy/src/dev/oled_ssd130x.h ****         // COM Output Scan Direction
 220:../../libdaisy/src/dev/oled_ssd130x.h ****         transport_.SendCommand(0xC8);
 221:../../libdaisy/src/dev/oled_ssd130x.h ****         // Contrast Control
 222:../../libdaisy/src/dev/oled_ssd130x.h ****         transport_.SendCommand(0x81);
 223:../../libdaisy/src/dev/oled_ssd130x.h ****         transport_.SendCommand(0x8F);
 224:../../libdaisy/src/dev/oled_ssd130x.h ****         // Pre Charge
 225:../../libdaisy/src/dev/oled_ssd130x.h ****         transport_.SendCommand(0xD9);
 226:../../libdaisy/src/dev/oled_ssd130x.h ****         transport_.SendCommand(0x25);
 227:../../libdaisy/src/dev/oled_ssd130x.h ****         // VCOM Detect
 228:../../libdaisy/src/dev/oled_ssd130x.h ****         transport_.SendCommand(0xDB);
 229:../../libdaisy/src/dev/oled_ssd130x.h ****         transport_.SendCommand(0x34);
 230:../../libdaisy/src/dev/oled_ssd130x.h **** 
 231:../../libdaisy/src/dev/oled_ssd130x.h **** 
 232:../../libdaisy/src/dev/oled_ssd130x.h ****         // Display On
 233:../../libdaisy/src/dev/oled_ssd130x.h ****         transport_.SendCommand(0xAF); //--turn on oled panel
 234:../../libdaisy/src/dev/oled_ssd130x.h ****     };
 235:../../libdaisy/src/dev/oled_ssd130x.h **** 
 236:../../libdaisy/src/dev/oled_ssd130x.h ****     size_t Width() const { return width; };
 237:../../libdaisy/src/dev/oled_ssd130x.h ****     size_t Height() const { return height; };
 238:../../libdaisy/src/dev/oled_ssd130x.h **** 
 239:../../libdaisy/src/dev/oled_ssd130x.h ****     void DrawPixel(uint_fast8_t x, uint_fast8_t y, bool on)
 240:../../libdaisy/src/dev/oled_ssd130x.h ****     {
 241:../../libdaisy/src/dev/oled_ssd130x.h ****         if(x >= width || y >= height)
 242:../../libdaisy/src/dev/oled_ssd130x.h ****             return;
 243:../../libdaisy/src/dev/oled_ssd130x.h ****         if(on)
 244:../../libdaisy/src/dev/oled_ssd130x.h ****             buffer_[x + (y / 8) * width] |= (1 << (y % 8));
 245:../../libdaisy/src/dev/oled_ssd130x.h ****         else
 246:../../libdaisy/src/dev/oled_ssd130x.h ****             buffer_[x + (y / 8) * width] &= ~(1 << (y % 8));
 247:../../libdaisy/src/dev/oled_ssd130x.h ****     }
 248:../../libdaisy/src/dev/oled_ssd130x.h **** 
 249:../../libdaisy/src/dev/oled_ssd130x.h ****     void Fill(bool on)
 250:../../libdaisy/src/dev/oled_ssd130x.h ****     {
 251:../../libdaisy/src/dev/oled_ssd130x.h ****         for(size_t i = 0; i < sizeof(buffer_); i++)
ARM GAS  C:\Users\VINCIU~1\AppData\Local\Temp\ccdS0pnQ.s 			page 13


 252:../../libdaisy/src/dev/oled_ssd130x.h ****         {
 253:../../libdaisy/src/dev/oled_ssd130x.h ****             buffer_[i] = on ? 0xff : 0x00;
 265              		.loc 5 253 24 view .LVU76
 266 000c 4FF48062 		mov	r2, #1024
 267 0010 6F42     		rsbs	r7, r5, #0
 268              	.LBE644:
 269              	.LBE643:
 270              	.LBE642:
  37:Menus.cpp     ****     
 271              		.loc 2 37 1 view .LVU77
 272 0012 0090     		str	r0, [sp]
 273              		.loc 2 40 5 is_stmt 1 view .LVU78
 274              	.LVL10:
 275              	.LBB647:
 276              	.LBI642:
  28:../../libdaisy/src/hid/disp/oled_display.h **** 
  29:../../libdaisy/src/hid/disp/oled_display.h ****     /** 
  30:../../libdaisy/src/hid/disp/oled_display.h ****     Fills the entire display with either on/off.
  31:../../libdaisy/src/hid/disp/oled_display.h ****     \param on Sets on or off.
  32:../../libdaisy/src/hid/disp/oled_display.h ****     */
  33:../../libdaisy/src/hid/disp/oled_display.h ****     void Fill(bool on) override { driver_.Fill(on); }
 277              		.loc 1 33 10 view .LVU79
 278              	.LBB646:
 279              	.LBI643:
 249:../../libdaisy/src/dev/oled_ssd130x.h ****     {
 280              		.loc 5 249 10 view .LVU80
 281              	.LBB645:
 251:../../libdaisy/src/dev/oled_ssd130x.h ****         {
 282              		.loc 5 251 29 view .LVU81
 283 0014 01F11400 		add	r0, r1, #20
 284              	.LVL11:
 285              		.loc 5 253 24 is_stmt 0 view .LVU82
 286 0018 FFB2     		uxtb	r7, r7
 287 001a 0190     		str	r0, [sp, #4]
 288 001c 3946     		mov	r1, r7
 289              	.LVL12:
 290              		.loc 5 253 24 view .LVU83
 291 001e FFF7FEFF 		bl	memset
 292              	.LVL13:
 293              		.loc 5 253 24 view .LVU84
 294              	.LBE645:
 295              	.LBE646:
 296              	.LBE647:
  41:Menus.cpp     **** 
  42:Menus.cpp     ****     /**
  43:Menus.cpp     ****  * Made with Marlin Bitmap Converter
  44:Menus.cpp     ****  * https://marlinfw.org/tools/u8glib/converter.html
  45:Menus.cpp     ****  *
  46:Menus.cpp     ****  * This bitmap from the file 'pt.png'
  47:Menus.cpp     ****  */
  48:Menus.cpp     ****     
  49:Menus.cpp     ****    /*  const unsigned char pt[] = {
  50:Menus.cpp     **** 0xff, 0xff, 0xff, 0xff, 0xff, 0xff, 0xff, 0xff, 0xff, 0xff, 0xff, 0xff, 0xff, 0xff, 0xff, 0xff, 
  51:Menus.cpp     **** 	0xff, 0xff, 0xff, 0xff, 0xff, 0xff, 0xff, 0xff, 0xff, 0xff, 0xff, 0xff, 0xff, 0xff, 0xff, 0xff, 
  52:Menus.cpp     **** 	0xff, 0xff, 0xff, 0xff, 0xff, 0xff, 0xff, 0xff, 0xff, 0xff, 0xff, 0xff, 0xff, 0xff, 0xff, 0xff, 
  53:Menus.cpp     **** 	0xff, 0xff, 0xff, 0xff, 0xff, 0xff, 0xff, 0xff, 0xff, 0xff, 0xff, 0xff, 0xff, 0xff, 0xff, 0xff, 
  54:Menus.cpp     **** 	0xff, 0xff, 0xff, 0xff, 0xff, 0xff, 0xff, 0xff, 0xff, 0xff, 0xff, 0xff, 0xff, 0xff, 0xff, 0xff, 
ARM GAS  C:\Users\VINCIU~1\AppData\Local\Temp\ccdS0pnQ.s 			page 14


  55:Menus.cpp     **** 	0xff, 0xff, 0xff, 0xff, 0xff, 0xff, 0xff, 0xff, 0xff, 0xff, 0xff, 0xff, 0xff, 0xff, 0xff, 0xff, 
  56:Menus.cpp     **** 	0xff, 0xff, 0xff, 0xff, 0xff, 0xff, 0xff, 0xff, 0xff, 0xff, 0xff, 0xff, 0xff, 0xff, 0xff, 0xff, 
  57:Menus.cpp     **** 	0xff, 0xff, 0xff, 0xff, 0xff, 0xff, 0xfc, 0x00, 0x00, 0x07, 0xff, 0xff, 0xff, 0xff, 0xff, 0xff, 
  58:Menus.cpp     **** 	0xff, 0xff, 0xff, 0xff, 0xff, 0xff, 0xfc, 0x00, 0x00, 0x07, 0xff, 0xff, 0xff, 0xff, 0xff, 0xff, 
  59:Menus.cpp     **** 	0xff, 0xff, 0xff, 0xff, 0xff, 0xff, 0xfc, 0x00, 0x00, 0x07, 0xff, 0xff, 0xff, 0xff, 0xff, 0xff, 
  60:Menus.cpp     **** 	0xff, 0xff, 0xff, 0xff, 0xff, 0xff, 0xfc, 0x00, 0x00, 0x07, 0xff, 0xff, 0xff, 0xff, 0xff, 0xff, 
  61:Menus.cpp     **** 	0xff, 0xff, 0xff, 0xff, 0xff, 0xff, 0xfc, 0x00, 0x00, 0x07, 0xff, 0xff, 0xff, 0xff, 0xff, 0xff, 
  62:Menus.cpp     **** 	0xff, 0xff, 0xff, 0xff, 0xff, 0xff, 0xfc, 0x00, 0x00, 0x07, 0xff, 0xff, 0xff, 0xff, 0xff, 0xff, 
  63:Menus.cpp     **** 	0xff, 0xff, 0xff, 0xff, 0xff, 0xff, 0xfc, 0x00, 0x00, 0x07, 0xff, 0xff, 0xff, 0xff, 0xff, 0xff, 
  64:Menus.cpp     **** 	0xff, 0xff, 0xff, 0xff, 0xff, 0xff, 0xfc, 0x00, 0x00, 0x07, 0xff, 0xff, 0xff, 0xff, 0xff, 0xff, 
  65:Menus.cpp     **** 	0xff, 0xff, 0xff, 0xff, 0xff, 0xff, 0xfc, 0x00, 0x00, 0x07, 0xff, 0xff, 0xff, 0xff, 0xff, 0xff, 
  66:Menus.cpp     **** 	0xff, 0xff, 0xff, 0xff, 0xff, 0xff, 0xfc, 0x00, 0x00, 0x07, 0xff, 0xff, 0xff, 0xff, 0xff, 0xff, 
  67:Menus.cpp     **** 	0xff, 0xff, 0xff, 0xff, 0xff, 0xff, 0xfc, 0x00, 0x00, 0x07, 0xff, 0xff, 0xff, 0xff, 0xff, 0xff, 
  68:Menus.cpp     **** 	0xff, 0xff, 0xff, 0xff, 0xff, 0xff, 0xfc, 0x00, 0x00, 0x07, 0xff, 0xff, 0xff, 0xff, 0xff, 0xff, 
  69:Menus.cpp     **** 	0xff, 0xff, 0xff, 0xff, 0xff, 0xff, 0xfc, 0x00, 0x00, 0x07, 0xff, 0xff, 0xff, 0xff, 0xff, 0xff, 
  70:Menus.cpp     **** 	0xff, 0xff, 0xff, 0xff, 0xff, 0xff, 0xfc, 0x00, 0x00, 0x07, 0xff, 0xff, 0xff, 0xff, 0xff, 0xff, 
  71:Menus.cpp     **** 	0xff, 0xff, 0xff, 0xff, 0xff, 0xff, 0xfc, 0x00, 0x00, 0x07, 0xff, 0xff, 0xff, 0xff, 0xff, 0xff, 
  72:Menus.cpp     **** 	0xff, 0xff, 0xff, 0xff, 0xff, 0xff, 0xfc, 0x00, 0x00, 0x07, 0xff, 0xff, 0xff, 0xff, 0xff, 0xff, 
  73:Menus.cpp     **** 	0xff, 0xff, 0xff, 0xff, 0xff, 0xff, 0xfc, 0x00, 0x00, 0x07, 0xff, 0xff, 0xff, 0xff, 0xff, 0xff, 
  74:Menus.cpp     **** 	0xff, 0xff, 0xff, 0xff, 0xff, 0xff, 0xfc, 0x00, 0x00, 0x07, 0xff, 0xff, 0xff, 0xff, 0xff, 0xff, 
  75:Menus.cpp     **** 	0xff, 0xff, 0xff, 0xff, 0xff, 0xff, 0xfc, 0x00, 0x00, 0x07, 0xff, 0xff, 0xff, 0xff, 0xff, 0xff, 
  76:Menus.cpp     **** 	0xff, 0xff, 0xff, 0xff, 0xff, 0xff, 0xfc, 0x00, 0x00, 0x07, 0xff, 0xff, 0xff, 0xff, 0xff, 0xff, 
  77:Menus.cpp     **** 	0xff, 0xff, 0xff, 0xff, 0xff, 0xff, 0xfc, 0x00, 0x00, 0x07, 0xff, 0xff, 0xff, 0xff, 0xff, 0xff, 
  78:Menus.cpp     **** 	0xff, 0xff, 0xff, 0xff, 0xff, 0xff, 0xfc, 0x00, 0x00, 0x07, 0xff, 0xff, 0xff, 0xff, 0xff, 0xff, 
  79:Menus.cpp     **** 	0xff, 0xff, 0xff, 0xff, 0xff, 0xff, 0xfc, 0x00, 0x00, 0x07, 0xff, 0xff, 0xff, 0xff, 0xff, 0xff, 
  80:Menus.cpp     **** 	0xff, 0xff, 0xff, 0xff, 0xff, 0xff, 0xfc, 0x00, 0x00, 0x07, 0xff, 0xff, 0xff, 0xff, 0xff, 0xff, 
  81:Menus.cpp     **** 	0xff, 0xff, 0xff, 0xff, 0xff, 0xff, 0xfc, 0x00, 0x00, 0x07, 0xff, 0xff, 0xff, 0xff, 0xff, 0xff, 
  82:Menus.cpp     **** 	0xff, 0xff, 0xff, 0xff, 0xff, 0xff, 0xfc, 0x00, 0x00, 0x07, 0xff, 0xff, 0xff, 0xff, 0xff, 0xff, 
  83:Menus.cpp     **** 	0xff, 0xff, 0xff, 0xff, 0xff, 0xff, 0xfc, 0x00, 0x00, 0x07, 0xff, 0xff, 0xff, 0xff, 0xff, 0xff, 
  84:Menus.cpp     **** 	0xff, 0xff, 0xff, 0xff, 0xff, 0xff, 0xfc, 0x00, 0x00, 0x07, 0xff, 0xff, 0xff, 0xff, 0xff, 0xff, 
  85:Menus.cpp     **** 	0xff, 0xff, 0xff, 0xff, 0xff, 0xff, 0xff, 0xff, 0xff, 0xff, 0xff, 0xff, 0xff, 0xff, 0xff, 0xff, 
  86:Menus.cpp     **** 	0xff, 0xff, 0xff, 0xff, 0xff, 0xff, 0xff, 0xff, 0xff, 0xff, 0xff, 0xff, 0xff, 0xff, 0xff, 0xff, 
  87:Menus.cpp     **** 	0xff, 0xff, 0xff, 0xff, 0xff, 0xff, 0xfc, 0xca, 0x96, 0x87, 0xff, 0xff, 0xff, 0xff, 0xff, 0xff, 
  88:Menus.cpp     **** 	0xff, 0xff, 0xff, 0xff, 0xff, 0xff, 0xfc, 0xca, 0x96, 0x9f, 0xff, 0xff, 0xff, 0xff, 0xff, 0xff, 
  89:Menus.cpp     **** 	0xff, 0xff, 0xff, 0xff, 0xff, 0xff, 0xfc, 0x8a, 0x96, 0xdf, 0xff, 0xff, 0xff, 0xff, 0xff, 0xff, 
  90:Menus.cpp     **** 	0xff, 0xff, 0xff, 0xff, 0xff, 0xff, 0xfc, 0x8a, 0x96, 0xdf, 0xff, 0xff, 0xff, 0xff, 0xff, 0xff, 
  91:Menus.cpp     **** 	0xff, 0xff, 0xff, 0xff, 0xff, 0xff, 0xfc, 0x8a, 0x96, 0xdf, 0xff, 0xff, 0xff, 0xff, 0xff, 0xff, 
  92:Menus.cpp     **** 	0xff, 0xff, 0xff, 0xff, 0xff, 0xff, 0xfc, 0x8a, 0x96, 0xcf, 0xff, 0xff, 0xff, 0xff, 0xff, 0xff, 
  93:Menus.cpp     **** 	0xff, 0xff, 0xff, 0xff, 0xff, 0xff, 0xfc, 0x8a, 0x86, 0xef, 0xff, 0xff, 0xff, 0xff, 0xff, 0xff, 
  94:Menus.cpp     **** 	0xff, 0xff, 0xff, 0xff, 0xff, 0xff, 0xfc, 0x0a, 0x86, 0xef, 0xff, 0xff, 0xff, 0xff, 0xff, 0xff, 
  95:Menus.cpp     **** 	0xff, 0xff, 0xff, 0xff, 0xff, 0xff, 0xfd, 0x28, 0x86, 0xef, 0xff, 0xff, 0xff, 0xff, 0xff, 0xff, 
  96:Menus.cpp     **** 	0xff, 0xff, 0xff, 0xff, 0xff, 0xff, 0xfd, 0x2a, 0xa6, 0xef, 0xff, 0xff, 0xff, 0xff, 0xff, 0xff, 
  97:Menus.cpp     **** 	0xff, 0xff, 0xff, 0xff, 0xff, 0xff, 0xfd, 0x2a, 0x86, 0xef, 0xff, 0xff, 0xff, 0xff, 0xff, 0xff, 
  98:Menus.cpp     **** 	0xff, 0xff, 0xff, 0xff, 0xff, 0xff, 0xfd, 0x2a, 0x86, 0xcf, 0xff, 0xff, 0xff, 0xff, 0xff, 0xff, 
  99:Menus.cpp     **** 	0xff, 0xff, 0xff, 0xff, 0xff, 0xff, 0xfd, 0x2a, 0x86, 0xcf, 0xff, 0xff, 0xff, 0xff, 0xff, 0xff, 
 100:Menus.cpp     **** 	0xff, 0xff, 0xff, 0xff, 0xff, 0xff, 0xfd, 0x2a, 0x96, 0xdf, 0xff, 0xff, 0xff, 0xff, 0xff, 0xff, 
 101:Menus.cpp     **** 	0xff, 0xff, 0xff, 0xff, 0xff, 0xff, 0xfd, 0x2a, 0x96, 0xdf, 0xff, 0xff, 0xff, 0xff, 0xff, 0xff, 
 102:Menus.cpp     **** 	0xff, 0xff, 0xff, 0xff, 0xff, 0xff, 0xfd, 0x2a, 0x96, 0x9f, 0xff, 0xff, 0xff, 0xff, 0xff, 0xff, 
 103:Menus.cpp     **** 	0xff, 0xff, 0xff, 0xff, 0xff, 0xff, 0xfd, 0x2a, 0x96, 0x9f, 0xff, 0xff, 0xff, 0xff, 0xff, 0xff, 
 104:Menus.cpp     **** 	0xff, 0xff, 0xff, 0xff, 0xff, 0xff, 0xfd, 0x2a, 0x96, 0x87, 0xff, 0xff, 0xff, 0xff, 0xff, 0xff, 
 105:Menus.cpp     **** 	0xff, 0xff, 0xff, 0xff, 0xff, 0xff, 0xff, 0xff, 0xff, 0xff, 0xff, 0xff, 0xff, 0xff, 0xff, 0xff, 
 106:Menus.cpp     **** 	0xff, 0xff, 0xff, 0xff, 0xff, 0xff, 0xff, 0xff, 0xff, 0xff, 0xff, 0xff, 0xff, 0xff, 0xff, 0xff, 
 107:Menus.cpp     **** 	0xff, 0xff, 0xff, 0xff, 0xff, 0xff, 0xff, 0xff, 0xff, 0xff, 0xff, 0xff, 0xff, 0xff, 0xff, 0xff, 
 108:Menus.cpp     **** 	0xff, 0xff, 0xff, 0xff, 0xff, 0xff, 0xff, 0xff, 0xff, 0xff, 0xff, 0xff, 0xff, 0xff, 0xff, 0xff, 
 109:Menus.cpp     **** 	0xff, 0xff, 0xff, 0xff, 0xff, 0xff, 0xff, 0xff, 0xff, 0xff, 0xff, 0xff, 0xff, 0xff, 0xff, 0xff, 
 110:Menus.cpp     **** 	0xff, 0xff, 0xff, 0xff, 0xff, 0xff, 0xff, 0xff, 0xff, 0xff, 0xff, 0xff, 0xff, 0xff, 0xff, 0xff, 
 111:Menus.cpp     **** 	0xff, 0xff, 0xff, 0xff, 0xff, 0xff, 0xff, 0xff, 0xff, 0xff, 0xff, 0xff, 0xff, 0xff, 0xff, 0xff, 
ARM GAS  C:\Users\VINCIU~1\AppData\Local\Temp\ccdS0pnQ.s 			page 15


 112:Menus.cpp     **** 	0xff, 0xff, 0xff, 0xff, 0xff, 0xff, 0xff, 0xff, 0xff, 0xff, 0xff, 0xff, 0xff, 0xff, 0xff, 0xff, 
 113:Menus.cpp     **** 	0xff, 0xff, 0xff, 0xff, 0xff, 0xff, 0xff, 0xff, 0xff, 0xff, 0xff, 0xff, 0xff, 0xff, 0xff, 0xff};
 114:Menus.cpp     **** 
 115:Menus.cpp     ****         unsigned char bits[sizeof(pt)*8]={};
 116:Menus.cpp     **** 
 117:Menus.cpp     ****     for(int i = 0; i < (sizeof(pt) * 8)-1; i++)
 118:Menus.cpp     ****     {
 119:Menus.cpp     ****         bits[i] = ((128>> (i % 8)) & (pt[i/8])) ;
 120:Menus.cpp     ****     }
 121:Menus.cpp     **** 
 122:Menus.cpp     ****     for(int x = 0; x < screen.Width(); x++)
 123:Menus.cpp     ****     {
 124:Menus.cpp     ****         for(int y = 0; y < screen.Height(); y++)
 125:Menus.cpp     ****         {
 126:Menus.cpp     ****             screen.DrawPixel(x,y,bits[x+y*screen.Width()]);
 127:Menus.cpp     ****         }
 128:Menus.cpp     ****     } */
 129:Menus.cpp     **** 
 130:Menus.cpp     ****     
 131:Menus.cpp     ****     screen.DrawRect(screen.Width()/2-10,6,screen.Width()/2+12,33,!colorTemplate,true);
 297              		.loc 2 131 5 is_stmt 1 view .LVU85
 298              		.loc 2 131 20 is_stmt 0 view .LVU86
 299 0022 85F00100 		eor	r0, r5, #1
 300              	.LVL14:
 301              	.LBB648:
 302              	.LBI648:
 303              		.file 6 "../../libdaisy/src/hid/disp/display.h"
   1:../../libdaisy/src/hid/disp/display.h **** #pragma once
   2:../../libdaisy/src/hid/disp/display.h **** #ifndef DSY_DISPLAY_H
   3:../../libdaisy/src/hid/disp/display.h **** #define DSY_DISPLAY_H /**< Macro */
   4:../../libdaisy/src/hid/disp/display.h **** #include <cmath>
   5:../../libdaisy/src/hid/disp/display.h **** #include "util/oled_fonts.h"
   6:../../libdaisy/src/hid/disp/display.h **** #include "daisy_core.h"
   7:../../libdaisy/src/hid/disp/display.h **** 
   8:../../libdaisy/src/hid/disp/display.h **** #ifndef deg2rad
   9:../../libdaisy/src/hid/disp/display.h **** #define deg2rad(deg) ((deg)*3.141592 / 180.0)
  10:../../libdaisy/src/hid/disp/display.h **** #endif
  11:../../libdaisy/src/hid/disp/display.h **** 
  12:../../libdaisy/src/hid/disp/display.h **** namespace daisy
  13:../../libdaisy/src/hid/disp/display.h **** {
  14:../../libdaisy/src/hid/disp/display.h **** /** 
  15:../../libdaisy/src/hid/disp/display.h ****  * This interface is used as a base class for all types of 1bit-per-pixel
  16:../../libdaisy/src/hid/disp/display.h ****  * graphics displays.
  17:../../libdaisy/src/hid/disp/display.h **** */
  18:../../libdaisy/src/hid/disp/display.h **** class OneBitGraphicsDisplay
  19:../../libdaisy/src/hid/disp/display.h **** {
  20:../../libdaisy/src/hid/disp/display.h ****   public:
  21:../../libdaisy/src/hid/disp/display.h ****     OneBitGraphicsDisplay() {}
  22:../../libdaisy/src/hid/disp/display.h ****     virtual ~OneBitGraphicsDisplay() {}
  23:../../libdaisy/src/hid/disp/display.h **** 
  24:../../libdaisy/src/hid/disp/display.h ****     virtual uint16_t Height() const = 0;
  25:../../libdaisy/src/hid/disp/display.h ****     virtual uint16_t Width() const  = 0;
  26:../../libdaisy/src/hid/disp/display.h **** 
  27:../../libdaisy/src/hid/disp/display.h ****     size_t CurrentX() { return currentX_; };
  28:../../libdaisy/src/hid/disp/display.h ****     size_t CurrentY() { return currentY_; };
  29:../../libdaisy/src/hid/disp/display.h **** 
  30:../../libdaisy/src/hid/disp/display.h ****     /** 
ARM GAS  C:\Users\VINCIU~1\AppData\Local\Temp\ccdS0pnQ.s 			page 16


  31:../../libdaisy/src/hid/disp/display.h ****     Fills the entire display with either on/off.
  32:../../libdaisy/src/hid/disp/display.h ****     \param on Sets on or off.
  33:../../libdaisy/src/hid/disp/display.h ****     */
  34:../../libdaisy/src/hid/disp/display.h ****     virtual void Fill(bool on) = 0;
  35:../../libdaisy/src/hid/disp/display.h **** 
  36:../../libdaisy/src/hid/disp/display.h ****     /**
  37:../../libdaisy/src/hid/disp/display.h ****     Sets the pixel at the specified coordinate to be on/off.
  38:../../libdaisy/src/hid/disp/display.h ****     \param x   x Coordinate
  39:../../libdaisy/src/hid/disp/display.h ****     \param y   y coordinate
  40:../../libdaisy/src/hid/disp/display.h ****     \param on  on or off
  41:../../libdaisy/src/hid/disp/display.h ****     */
  42:../../libdaisy/src/hid/disp/display.h ****     virtual void DrawPixel(uint_fast8_t x, uint_fast8_t y, bool on) = 0;
  43:../../libdaisy/src/hid/disp/display.h **** 
  44:../../libdaisy/src/hid/disp/display.h ****     /**
  45:../../libdaisy/src/hid/disp/display.h ****     Draws a line from (x1, y1) to (y1, y2)
  46:../../libdaisy/src/hid/disp/display.h ****     \param x1  x Coordinate of the starting point
  47:../../libdaisy/src/hid/disp/display.h ****     \param y1  y Coordinate of the starting point
  48:../../libdaisy/src/hid/disp/display.h ****     \param x2  x Coordinate of the ending point
  49:../../libdaisy/src/hid/disp/display.h ****     \param y2  y Coordinate of the ending point
  50:../../libdaisy/src/hid/disp/display.h ****     \param on  on or off
  51:../../libdaisy/src/hid/disp/display.h ****     */
  52:../../libdaisy/src/hid/disp/display.h ****     virtual void DrawLine(uint_fast8_t x1,
  53:../../libdaisy/src/hid/disp/display.h ****                           uint_fast8_t y1,
  54:../../libdaisy/src/hid/disp/display.h ****                           uint_fast8_t x2,
  55:../../libdaisy/src/hid/disp/display.h ****                           uint_fast8_t y2,
  56:../../libdaisy/src/hid/disp/display.h ****                           bool         on)
  57:../../libdaisy/src/hid/disp/display.h ****         = 0;
  58:../../libdaisy/src/hid/disp/display.h **** 
  59:../../libdaisy/src/hid/disp/display.h ****     /**
  60:../../libdaisy/src/hid/disp/display.h ****     Draws a rectangle based on two coordinates.
  61:../../libdaisy/src/hid/disp/display.h ****     \param x1 x Coordinate of the first point
  62:../../libdaisy/src/hid/disp/display.h ****     \param y1 y Coordinate of the first point
  63:../../libdaisy/src/hid/disp/display.h ****     \param x2 x Coordinate of the second point
  64:../../libdaisy/src/hid/disp/display.h ****     \param y2 y Coordinate of the second point
  65:../../libdaisy/src/hid/disp/display.h ****     \param on on or off
  66:../../libdaisy/src/hid/disp/display.h ****     */
  67:../../libdaisy/src/hid/disp/display.h ****     virtual void DrawRect(uint_fast8_t x1,
  68:../../libdaisy/src/hid/disp/display.h ****                           uint_fast8_t y1,
  69:../../libdaisy/src/hid/disp/display.h ****                           uint_fast8_t x2,
  70:../../libdaisy/src/hid/disp/display.h ****                           uint_fast8_t y2,
  71:../../libdaisy/src/hid/disp/display.h ****                           bool         on,
  72:../../libdaisy/src/hid/disp/display.h ****                           bool         fill = false)
  73:../../libdaisy/src/hid/disp/display.h ****         = 0;
  74:../../libdaisy/src/hid/disp/display.h **** 
  75:../../libdaisy/src/hid/disp/display.h ****     /**
  76:../../libdaisy/src/hid/disp/display.h ****     Draws an arc around the specified coordinate
  77:../../libdaisy/src/hid/disp/display.h ****     \param x           x Coordinate of the center of the arc
  78:../../libdaisy/src/hid/disp/display.h ****     \param y           y Coordinate of the center of the arc
  79:../../libdaisy/src/hid/disp/display.h ****     \param radius      radius of the arc
  80:../../libdaisy/src/hid/disp/display.h ****     \param start_angle angle where to start the arc
  81:../../libdaisy/src/hid/disp/display.h ****     \param sweep       total angle of the arc
  82:../../libdaisy/src/hid/disp/display.h ****     \param on  on or off
  83:../../libdaisy/src/hid/disp/display.h ****     */
  84:../../libdaisy/src/hid/disp/display.h ****     virtual void DrawArc(uint_fast8_t x,
  85:../../libdaisy/src/hid/disp/display.h ****                          uint_fast8_t y,
  86:../../libdaisy/src/hid/disp/display.h ****                          uint_fast8_t radius,
  87:../../libdaisy/src/hid/disp/display.h ****                          int_fast16_t start_angle,
ARM GAS  C:\Users\VINCIU~1\AppData\Local\Temp\ccdS0pnQ.s 			page 17


  88:../../libdaisy/src/hid/disp/display.h ****                          int_fast16_t sweep,
  89:../../libdaisy/src/hid/disp/display.h ****                          bool         on)
  90:../../libdaisy/src/hid/disp/display.h ****         = 0;
  91:../../libdaisy/src/hid/disp/display.h **** 
  92:../../libdaisy/src/hid/disp/display.h ****     /**
  93:../../libdaisy/src/hid/disp/display.h ****     Draws a circle around the specified coordinate
  94:../../libdaisy/src/hid/disp/display.h ****     \param x           x Coordinate of the center of the circle
  95:../../libdaisy/src/hid/disp/display.h ****     \param y           y Coordinate of the center of the circle
  96:../../libdaisy/src/hid/disp/display.h ****     \param radius      radius of the circle
  97:../../libdaisy/src/hid/disp/display.h ****     \param on  on or off
  98:../../libdaisy/src/hid/disp/display.h ****     */
  99:../../libdaisy/src/hid/disp/display.h ****     void
 100:../../libdaisy/src/hid/disp/display.h ****     DrawCircle(uint_fast8_t x, uint_fast8_t y, uint_fast8_t radius, bool on)
 101:../../libdaisy/src/hid/disp/display.h ****     {
 102:../../libdaisy/src/hid/disp/display.h ****         DrawArc(x, y, radius, 0, 360, on);
 103:../../libdaisy/src/hid/disp/display.h ****     };
 104:../../libdaisy/src/hid/disp/display.h **** 
 105:../../libdaisy/src/hid/disp/display.h ****     /** 
 106:../../libdaisy/src/hid/disp/display.h ****     Writes the character with the specific FontDef
 107:../../libdaisy/src/hid/disp/display.h ****     to the display buffer at the current Cursor position.
 108:../../libdaisy/src/hid/disp/display.h ****     \param ch character to be written
 109:../../libdaisy/src/hid/disp/display.h ****     \param font font to be written in
 110:../../libdaisy/src/hid/disp/display.h ****     \param on    on or off
 111:../../libdaisy/src/hid/disp/display.h ****     \return &
 112:../../libdaisy/src/hid/disp/display.h ****     */
 113:../../libdaisy/src/hid/disp/display.h ****     virtual char WriteChar(char ch, FontDef font, bool on) = 0;
 114:../../libdaisy/src/hid/disp/display.h **** 
 115:../../libdaisy/src/hid/disp/display.h ****     /** 
 116:../../libdaisy/src/hid/disp/display.h ****     Similar to WriteChar, except it will handle an entire String.
 117:../../libdaisy/src/hid/disp/display.h ****     Wrapping does not happen automatically, so the width
 118:../../libdaisy/src/hid/disp/display.h ****     of the string must be kept within the dimensions of the screen.
 119:../../libdaisy/src/hid/disp/display.h ****     \param str string to be written
 120:../../libdaisy/src/hid/disp/display.h ****     \param font font to use
 121:../../libdaisy/src/hid/disp/display.h ****     \param on  on or off
 122:../../libdaisy/src/hid/disp/display.h ****     \return &
 123:../../libdaisy/src/hid/disp/display.h ****     */
 124:../../libdaisy/src/hid/disp/display.h ****     virtual char WriteString(const char* str, FontDef font, bool on) = 0;
 125:../../libdaisy/src/hid/disp/display.h **** 
 126:../../libdaisy/src/hid/disp/display.h ****     /** 
 127:../../libdaisy/src/hid/disp/display.h ****     Moves the 'Cursor' position used for WriteChar, and WriteStr to the specified coordinate.
 128:../../libdaisy/src/hid/disp/display.h ****     \param x x pos
 129:../../libdaisy/src/hid/disp/display.h ****     \param y y pos
 130:../../libdaisy/src/hid/disp/display.h ****     */
 131:../../libdaisy/src/hid/disp/display.h ****     void SetCursor(uint16_t x, uint16_t y)
 132:../../libdaisy/src/hid/disp/display.h ****     {
 133:../../libdaisy/src/hid/disp/display.h ****         currentX_ = (x >= Width()) ? Width() - 1 : x;
 134:../../libdaisy/src/hid/disp/display.h ****         currentY_ = (y >= Height()) ? Height() - 1 : y;
 135:../../libdaisy/src/hid/disp/display.h ****     }
 136:../../libdaisy/src/hid/disp/display.h **** 
 137:../../libdaisy/src/hid/disp/display.h ****     /** 
 138:../../libdaisy/src/hid/disp/display.h ****     Writes the current display buffer to the OLED device using SPI or I2C depending on 
 139:../../libdaisy/src/hid/disp/display.h ****     how the object was initialized.
 140:../../libdaisy/src/hid/disp/display.h ****     */
 141:../../libdaisy/src/hid/disp/display.h ****     virtual void Update() = 0;
 142:../../libdaisy/src/hid/disp/display.h **** 
 143:../../libdaisy/src/hid/disp/display.h ****   protected:
 144:../../libdaisy/src/hid/disp/display.h ****     uint16_t currentX_;
ARM GAS  C:\Users\VINCIU~1\AppData\Local\Temp\ccdS0pnQ.s 			page 18


 145:../../libdaisy/src/hid/disp/display.h ****     uint16_t currentY_;
 146:../../libdaisy/src/hid/disp/display.h **** };
 147:../../libdaisy/src/hid/disp/display.h **** 
 148:../../libdaisy/src/hid/disp/display.h **** /** This class is intended as a intermediary class for your actual implementation of the OneBitGrap
 149:../../libdaisy/src/hid/disp/display.h ****  *  interface. It uses the CRTP design pattern where the template argument is the child class. It p
 150:../../libdaisy/src/hid/disp/display.h ****  *  implementations for most of the functions, except DrawPixel(), Update() and Fill(), which you'l
 151:../../libdaisy/src/hid/disp/display.h ****  *  to provide in your child class.
 152:../../libdaisy/src/hid/disp/display.h ****  *  The main goal of this class is to provide common drawing functions without relying on massive a
 153:../../libdaisy/src/hid/disp/display.h ****  *  virtual function calls that would result in a performance loss. To achieve this, any drawing fu
 154:../../libdaisy/src/hid/disp/display.h ****  *  is implemented here and internally calls other drawing functions (e.g. DrawRect() which interna
 155:../../libdaisy/src/hid/disp/display.h ****  *  DrawPixel() and DrawLine()) makes these calls via the qualified name of these functions to expl
 156:../../libdaisy/src/hid/disp/display.h ****  *  suppress the virtual dispatch mechanism like this:
 157:../../libdaisy/src/hid/disp/display.h ****  * 
 158:../../libdaisy/src/hid/disp/display.h ****  *      ChildType::DrawPixel(...); // no virtual function call; direct call into the child class fu
 159:../../libdaisy/src/hid/disp/display.h ****  *  
 160:../../libdaisy/src/hid/disp/display.h ****  *  To create a custom OneBitGraphicsDisplay implementation, you can 
 161:../../libdaisy/src/hid/disp/display.h ****  *  A) inherit from OneBitGraphicsDisplay directly and provide all the drawing functions yourself
 162:../../libdaisy/src/hid/disp/display.h ****  *  B) Inherit from OneBitGraphicsDisplayImpl and only provide DrawPixel(), Fill() and Update()
 163:../../libdaisy/src/hid/disp/display.h ****  *     like this:
 164:../../libdaisy/src/hid/disp/display.h ****  *  
 165:../../libdaisy/src/hid/disp/display.h ****  *      class MyDisplayClass : public OneBitGraphicsDisplayImpl<MyDisplayClass> 
 166:../../libdaisy/src/hid/disp/display.h ****  *      {
 167:../../libdaisy/src/hid/disp/display.h ****  *      public:
 168:../../libdaisy/src/hid/disp/display.h ****  *          void Fill() override { ... };
 169:../../libdaisy/src/hid/disp/display.h ****  *          void DrawPixel(uint_fast8_t x, uint_fast8_t y, bool on) override { ... };
 170:../../libdaisy/src/hid/disp/display.h ****  *          void Update() override { ... }
 171:../../libdaisy/src/hid/disp/display.h ****  *      };
 172:../../libdaisy/src/hid/disp/display.h ****  *  
 173:../../libdaisy/src/hid/disp/display.h ****  */
 174:../../libdaisy/src/hid/disp/display.h **** template <class ChildType>
 175:../../libdaisy/src/hid/disp/display.h **** class OneBitGraphicsDisplayImpl : public OneBitGraphicsDisplay
 176:../../libdaisy/src/hid/disp/display.h **** {
 177:../../libdaisy/src/hid/disp/display.h ****   public:
 178:../../libdaisy/src/hid/disp/display.h ****     OneBitGraphicsDisplayImpl() {}
 179:../../libdaisy/src/hid/disp/display.h ****     virtual ~OneBitGraphicsDisplayImpl() {}
 180:../../libdaisy/src/hid/disp/display.h **** 
 181:../../libdaisy/src/hid/disp/display.h ****     void DrawLine(uint_fast8_t x1,
 182:../../libdaisy/src/hid/disp/display.h ****                   uint_fast8_t y1,
 183:../../libdaisy/src/hid/disp/display.h ****                   uint_fast8_t x2,
 184:../../libdaisy/src/hid/disp/display.h ****                   uint_fast8_t y2,
 185:../../libdaisy/src/hid/disp/display.h ****                   bool         on) override
 186:../../libdaisy/src/hid/disp/display.h ****     {
 187:../../libdaisy/src/hid/disp/display.h ****         int_fast16_t deltaX = abs((int_fast16_t)x2 - (int_fast16_t)x1);
 188:../../libdaisy/src/hid/disp/display.h ****         int_fast16_t deltaY = abs((int_fast16_t)y2 - (int_fast16_t)y1);
 189:../../libdaisy/src/hid/disp/display.h ****         int_fast16_t signX  = ((x1 < x2) ? 1 : -1);
 190:../../libdaisy/src/hid/disp/display.h ****         int_fast16_t signY  = ((y1 < y2) ? 1 : -1);
 191:../../libdaisy/src/hid/disp/display.h ****         int_fast16_t error  = deltaX - deltaY;
 192:../../libdaisy/src/hid/disp/display.h ****         int_fast16_t error2;
 193:../../libdaisy/src/hid/disp/display.h **** 
 194:../../libdaisy/src/hid/disp/display.h ****         // If we write "ChildType::DrawPixel(x2, y2, on);", we end up with
 195:../../libdaisy/src/hid/disp/display.h ****         // all sorts of weird compiler errors when the Child class is a template
 196:../../libdaisy/src/hid/disp/display.h ****         // class. The only way around this is to use this very verbose syntax:
 197:../../libdaisy/src/hid/disp/display.h ****         ((ChildType*)(this))->ChildType::DrawPixel(x2, y2, on);
 198:../../libdaisy/src/hid/disp/display.h **** 
 199:../../libdaisy/src/hid/disp/display.h ****         while((x1 != x2) || (y1 != y2))
 200:../../libdaisy/src/hid/disp/display.h ****         {
 201:../../libdaisy/src/hid/disp/display.h ****             ((ChildType*)(this))->ChildType::DrawPixel(x1, y1, on);
ARM GAS  C:\Users\VINCIU~1\AppData\Local\Temp\ccdS0pnQ.s 			page 19


 202:../../libdaisy/src/hid/disp/display.h ****             error2 = error * 2;
 203:../../libdaisy/src/hid/disp/display.h ****             if(error2 > -deltaY)
 204:../../libdaisy/src/hid/disp/display.h ****             {
 205:../../libdaisy/src/hid/disp/display.h ****                 error -= deltaY;
 206:../../libdaisy/src/hid/disp/display.h ****                 x1 += signX;
 207:../../libdaisy/src/hid/disp/display.h ****             }
 208:../../libdaisy/src/hid/disp/display.h **** 
 209:../../libdaisy/src/hid/disp/display.h ****             if(error2 < deltaX)
 210:../../libdaisy/src/hid/disp/display.h ****             {
 211:../../libdaisy/src/hid/disp/display.h ****                 error += deltaX;
 212:../../libdaisy/src/hid/disp/display.h ****                 y1 += signY;
 213:../../libdaisy/src/hid/disp/display.h ****             }
 214:../../libdaisy/src/hid/disp/display.h ****         }
 215:../../libdaisy/src/hid/disp/display.h ****     }
 216:../../libdaisy/src/hid/disp/display.h **** 
 217:../../libdaisy/src/hid/disp/display.h ****     void DrawRect(uint_fast8_t x1,
 304              		.loc 6 217 10 is_stmt 1 view .LVU87
 305              	.LBB649:
 306              	.LBI649:
 307              		.loc 6 217 10 view .LVU88
 308              	.LBB650:
 218:../../libdaisy/src/hid/disp/display.h ****                   uint_fast8_t y1,
 219:../../libdaisy/src/hid/disp/display.h ****                   uint_fast8_t x2,
 220:../../libdaisy/src/hid/disp/display.h ****                   uint_fast8_t y2,
 221:../../libdaisy/src/hid/disp/display.h ****                   bool         on,
 222:../../libdaisy/src/hid/disp/display.h ****                   bool         fill = false) override
 223:../../libdaisy/src/hid/disp/display.h ****     {
 224:../../libdaisy/src/hid/disp/display.h ****         if(fill)
 225:../../libdaisy/src/hid/disp/display.h ****         {
 226:../../libdaisy/src/hid/disp/display.h ****             for(uint_fast8_t x = x1; x <= x2; x++)
 309              		.loc 6 226 40 view .LVU89
 310              		.loc 6 226 30 is_stmt 0 view .LVU90
 311 0026 4FF0360C 		mov	ip, #54
 312              	.LVL15:
 313              	.L12:
 314              	.LBB651:
 227:../../libdaisy/src/hid/disp/display.h ****             {
 228:../../libdaisy/src/hid/disp/display.h ****                 for(uint_fast8_t y = y1; y <= y2; y++)
 315              		.loc 6 228 44 is_stmt 1 view .LVU91
 316              		.loc 6 228 34 is_stmt 0 view .LVU92
 317 002a 0621     		movs	r1, #6
 318 002c 07E0     		b	.L11
 319              	.LVL16:
 320              	.L147:
 321              	.LBB652:
 322              	.LBB653:
 323              	.LBB654:
 244:../../libdaisy/src/dev/oled_ssd130x.h ****         else
 324              		.loc 5 244 42 view .LVU93
 325 002e 92F814E0 		ldrb	lr, [r2, #20]	@ zero_extendqisi2
 326              	.LBE654:
 327              	.LBE653:
 328              	.LBE652:
 329              		.loc 6 228 17 view .LVU94
 330 0032 0131     		adds	r1, r1, #1
 331              	.LVL17:
 332              	.LBB672:
ARM GAS  C:\Users\VINCIU~1\AppData\Local\Temp\ccdS0pnQ.s 			page 20


 333              	.LBB667:
 334              	.LBB662:
 244:../../libdaisy/src/dev/oled_ssd130x.h ****         else
 335              		.loc 5 244 42 view .LVU95
 336 0034 46EA0E06 		orr	r6, r6, lr
 337              	.LBE662:
 338              	.LBE667:
 339              	.LBE672:
 340              		.loc 6 228 44 view .LVU96
 341 0038 2229     		cmp	r1, #34
 342              	.LBB673:
 343              	.LBB668:
 344              	.LBB663:
 244:../../libdaisy/src/dev/oled_ssd130x.h ****         else
 345              		.loc 5 244 42 view .LVU97
 346 003a 1675     		strb	r6, [r2, #20]
 347              	.LVL18:
 244:../../libdaisy/src/dev/oled_ssd130x.h ****         else
 348              		.loc 5 244 42 view .LVU98
 349              	.LBE663:
 350              	.LBE668:
 351              	.LBE673:
 352              		.loc 6 228 17 is_stmt 1 view .LVU99
 353              		.loc 6 228 44 view .LVU100
 354 003c 13D0     		beq	.L146
 355              	.LVL19:
 356              	.L11:
 357              	.LBB674:
 358              	.LBI652:
  34:../../libdaisy/src/hid/disp/oled_display.h **** 
  35:../../libdaisy/src/hid/disp/oled_display.h ****     /**
  36:../../libdaisy/src/hid/disp/oled_display.h ****     Sets the pixel at the specified coordinate to be on/off.
  37:../../libdaisy/src/hid/disp/oled_display.h ****     \param x   x Coordinate
  38:../../libdaisy/src/hid/disp/oled_display.h ****     \param y   y coordinate
  39:../../libdaisy/src/hid/disp/oled_display.h ****     \param on  on or off
  40:../../libdaisy/src/hid/disp/oled_display.h ****     */
  41:../../libdaisy/src/hid/disp/oled_display.h ****     void DrawPixel(uint_fast8_t x, uint_fast8_t y, bool on) override
 359              		.loc 1 41 10 view .LVU101
 360              	.LBB669:
 361              	.LBI653:
 239:../../libdaisy/src/dev/oled_ssd130x.h ****     {
 362              		.loc 5 239 10 view .LVU102
 363              	.LBB664:
 364              	.LBB655:
 365              	.LBI655:
 239:../../libdaisy/src/dev/oled_ssd130x.h ****     {
 366              		.loc 5 239 10 view .LVU103
 239:../../libdaisy/src/dev/oled_ssd130x.h ****     {
 367              		.loc 5 239 10 is_stmt 0 view .LVU104
 368              	.LBE655:
 244:../../libdaisy/src/dev/oled_ssd130x.h ****         else
 369              		.loc 5 244 28 view .LVU105
 370 003e CA08     		lsrs	r2, r1, #3
 244:../../libdaisy/src/dev/oled_ssd130x.h ****         else
 371              		.loc 5 244 54 view .LVU106
 372 0040 01F0070E 		and	lr, r1, #7
 244:../../libdaisy/src/dev/oled_ssd130x.h ****         else
ARM GAS  C:\Users\VINCIU~1\AppData\Local\Temp\ccdS0pnQ.s 			page 21


 373              		.loc 5 244 48 view .LVU107
 374 0044 0126     		movs	r6, #1
 244:../../libdaisy/src/dev/oled_ssd130x.h ****         else
 375              		.loc 5 244 42 view .LVU108
 376 0046 0CEBC212 		add	r2, ip, r2, lsl #7
 244:../../libdaisy/src/dev/oled_ssd130x.h ****         else
 377              		.loc 5 244 48 view .LVU109
 378 004a 06FA0EF6 		lsl	r6, r6, lr
 244:../../libdaisy/src/dev/oled_ssd130x.h ****         else
 379              		.loc 5 244 42 view .LVU110
 380 004e 2244     		add	r2, r2, r4
 243:../../libdaisy/src/dev/oled_ssd130x.h ****             buffer_[x + (y / 8) * width] |= (1 << (y % 8));
 381              		.loc 5 243 9 view .LVU111
 382 0050 002D     		cmp	r5, #0
 383 0052 ECD0     		beq	.L147
 384              	.LBB659:
 385              	.LBB656:
 246:../../libdaisy/src/dev/oled_ssd130x.h ****     }
 386              		.loc 5 246 42 view .LVU112
 387 0054 92F81490 		ldrb	r9, [r2, #20]	@ zero_extendqisi2
 388              	.LBE656:
 389              	.LBE659:
 390              	.LBE664:
 391              	.LBE669:
 392              	.LBE674:
 393              		.loc 6 228 17 view .LVU113
 394 0058 0131     		adds	r1, r1, #1
 395              	.LVL20:
 396              	.LBB675:
 397              	.LBB670:
 398              	.LBB665:
 399              	.LBB660:
 400              	.LBB657:
 246:../../libdaisy/src/dev/oled_ssd130x.h ****     }
 401              		.loc 5 246 42 view .LVU114
 402 005a 29EA0608 		bic	r8, r9, r6
 403              	.LBE657:
 404              	.LBE660:
 405              	.LBE665:
 406              	.LBE670:
 407              	.LBE675:
 408              		.loc 6 228 44 view .LVU115
 409 005e 2229     		cmp	r1, #34
 410              	.LBB676:
 411              	.LBB671:
 412              	.LBB666:
 413              	.LBB661:
 414              	.LBB658:
 246:../../libdaisy/src/dev/oled_ssd130x.h ****     }
 415              		.loc 5 246 42 view .LVU116
 416 0060 82F81480 		strb	r8, [r2, #20]
 417              	.LVL21:
 246:../../libdaisy/src/dev/oled_ssd130x.h ****     }
 418              		.loc 5 246 42 view .LVU117
 419              	.LBE658:
 420              	.LBE661:
 421              	.LBE666:
ARM GAS  C:\Users\VINCIU~1\AppData\Local\Temp\ccdS0pnQ.s 			page 22


 422              	.LBE671:
 423              	.LBE676:
 424              		.loc 6 228 17 is_stmt 1 view .LVU118
 425              		.loc 6 228 44 view .LVU119
 426 0064 EBD1     		bne	.L11
 427              	.L146:
 428              		.loc 6 228 44 is_stmt 0 view .LVU120
 429              	.LBE651:
 226:../../libdaisy/src/hid/disp/display.h ****             {
 430              		.loc 6 226 13 is_stmt 1 view .LVU121
 431 0066 0CF1010C 		add	ip, ip, #1
 432              	.LVL22:
 226:../../libdaisy/src/hid/disp/display.h ****             {
 433              		.loc 6 226 40 view .LVU122
 434 006a BCF14D0F 		cmp	ip, #77
 435 006e DCD1     		bne	.L12
 436              	.LVL23:
 226:../../libdaisy/src/hid/disp/display.h ****             {
 437              		.loc 6 226 40 is_stmt 0 view .LVU123
 438              	.LBE650:
 439              	.LBE649:
 440              	.LBE648:
 132:Menus.cpp     ****     //M
 133:Menus.cpp     ****     screen.DrawLine(screen.Width()/2-10,37,screen.Width()/2-10,52,!colorTemplate);
 441              		.loc 2 133 5 is_stmt 1 view .LVU124
 442              	.LBB707:
 443              	.LBI707:
 181:../../libdaisy/src/hid/disp/display.h ****                   uint_fast8_t y1,
 444              		.loc 6 181 10 view .LVU125
 445              	.LBB708:
 446              	.LBB709:
 447              	.LBI709:
 448              		.loc 1 41 10 view .LVU126
 449              	.LBB710:
  42:../../libdaisy/src/hid/disp/oled_display.h ****     {
  43:../../libdaisy/src/hid/disp/oled_display.h ****         driver_.DrawPixel(x, y, on);
 450              		.loc 1 43 26 is_stmt 0 view .LVU127
 451 0070 04F10806 		add	r6, r4, #8
 452              	.LVL24:
 453              	.LBB711:
 454              	.LBI711:
 239:../../libdaisy/src/dev/oled_ssd130x.h ****     {
 455              		.loc 5 239 10 is_stmt 1 view .LVU128
 456              	.LBB712:
 243:../../libdaisy/src/dev/oled_ssd130x.h ****             buffer_[x + (y / 8) * width] |= (1 << (y % 8));
 457              		.loc 5 243 9 is_stmt 0 view .LVU129
 458 0074 0028     		cmp	r0, #0
 459 0076 00F08A83 		beq	.L13
 244:../../libdaisy/src/dev/oled_ssd130x.h ****         else
 460              		.loc 5 244 42 view .LVU130
 461 007a 47F01003 		orr	r3, r7, #16
 462              	.L14:
 463 007e 84F84A33 		strb	r3, [r4, #842]
 464              	.LVL25:
 244:../../libdaisy/src/dev/oled_ssd130x.h ****         else
 465              		.loc 5 244 42 view .LVU131
 466              	.LBE712:
ARM GAS  C:\Users\VINCIU~1\AppData\Local\Temp\ccdS0pnQ.s 			page 23


 467              	.LBE711:
 468              	.LBE710:
 469              	.LBE709:
 199:../../libdaisy/src/hid/disp/display.h ****         {
 470              		.loc 6 199 26 is_stmt 1 view .LVU132
 471              	.LBE708:
 472              	.LBE707:
 473              	.LBB748:
 474              	.LBB697:
 475              	.LBB687:
 476              	.LBB677:
 477              		.loc 6 228 34 is_stmt 0 view .LVU133
 478 0082 2523     		movs	r3, #37
 479 0084 07E0     		b	.L17
 480              	.LVL26:
 481              	.L149:
 482              		.loc 6 228 34 view .LVU134
 483              	.LBE677:
 484              	.LBE687:
 485              	.LBE697:
 486              	.LBE748:
 487              	.LBB749:
 488              	.LBB746:
 489              	.LBB718:
 490              	.LBB719:
 491              	.LBB720:
 244:../../libdaisy/src/dev/oled_ssd130x.h ****         else
 492              		.loc 5 244 42 view .LVU135
 493 0086 9CF84A10 		ldrb	r1, [ip, #74]	@ zero_extendqisi2
 494              	.LBE720:
 495              	.LBE719:
 496              	.LBE718:
 212:../../libdaisy/src/hid/disp/display.h ****             }
 497              		.loc 6 212 20 view .LVU136
 498 008a 0133     		adds	r3, r3, #1
 499              	.LVL27:
 500              	.LBB740:
 501              	.LBB735:
 502              	.LBB730:
 244:../../libdaisy/src/dev/oled_ssd130x.h ****         else
 503              		.loc 5 244 42 view .LVU137
 504 008c 0A43     		orrs	r2, r2, r1
 505              	.LBE730:
 506              	.LBE735:
 507              	.LBE740:
 199:../../libdaisy/src/hid/disp/display.h ****         {
 508              		.loc 6 199 26 view .LVU138
 509 008e 342B     		cmp	r3, #52
 510              	.LBB741:
 511              	.LBB736:
 512              	.LBB731:
 244:../../libdaisy/src/dev/oled_ssd130x.h ****         else
 513              		.loc 5 244 42 view .LVU139
 514 0090 8CF84A20 		strb	r2, [ip, #74]
 515              	.LVL28:
 244:../../libdaisy/src/dev/oled_ssd130x.h ****         else
 516              		.loc 5 244 42 view .LVU140
ARM GAS  C:\Users\VINCIU~1\AppData\Local\Temp\ccdS0pnQ.s 			page 24


 517              	.LBE731:
 518              	.LBE736:
 519              	.LBE741:
 199:../../libdaisy/src/hid/disp/display.h ****         {
 520              		.loc 6 199 26 is_stmt 1 view .LVU141
 521 0094 16D0     		beq	.L148
 522              	.LVL29:
 523              	.L17:
 524              	.LBB742:
 525              	.LBI718:
  41:../../libdaisy/src/hid/disp/oled_display.h ****     {
 526              		.loc 1 41 10 view .LVU142
 527              	.LBB737:
 528              	.LBI719:
 239:../../libdaisy/src/dev/oled_ssd130x.h ****     {
 529              		.loc 5 239 10 view .LVU143
 530              	.LBB732:
 531              	.LBB721:
 532              	.LBI721:
 239:../../libdaisy/src/dev/oled_ssd130x.h ****     {
 533              		.loc 5 239 10 view .LVU144
 239:../../libdaisy/src/dev/oled_ssd130x.h ****     {
 534              		.loc 5 239 10 is_stmt 0 view .LVU145
 535              	.LBE721:
 244:../../libdaisy/src/dev/oled_ssd130x.h ****         else
 536              		.loc 5 244 48 view .LVU146
 537 0096 0122     		movs	r2, #1
 244:../../libdaisy/src/dev/oled_ssd130x.h ****         else
 538              		.loc 5 244 28 view .LVU147
 539 0098 4FEAD30C 		lsr	ip, r3, #3
 244:../../libdaisy/src/dev/oled_ssd130x.h ****         else
 540              		.loc 5 244 54 view .LVU148
 541 009c 03F00708 		and	r8, r3, #7
 542              	.LBB726:
 543              	.LBB722:
 246:../../libdaisy/src/dev/oled_ssd130x.h ****     }
 544              		.loc 5 246 49 view .LVU149
 545 00a0 9646     		mov	lr, r2
 546              	.LBE722:
 547              	.LBE726:
 244:../../libdaisy/src/dev/oled_ssd130x.h ****         else
 548              		.loc 5 244 42 view .LVU150
 549 00a2 04EBCC1C 		add	ip, r4, ip, lsl #7
 244:../../libdaisy/src/dev/oled_ssd130x.h ****         else
 550              		.loc 5 244 48 view .LVU151
 551 00a6 02FA08F2 		lsl	r2, r2, r8
 243:../../libdaisy/src/dev/oled_ssd130x.h ****             buffer_[x + (y / 8) * width] |= (1 << (y % 8));
 552              		.loc 5 243 9 view .LVU152
 553 00aa 0028     		cmp	r0, #0
 554 00ac EBD1     		bne	.L149
 555              	.LBB727:
 556              	.LBB723:
 246:../../libdaisy/src/dev/oled_ssd130x.h ****     }
 557              		.loc 5 246 42 view .LVU153
 558 00ae 9CF84A20 		ldrb	r2, [ip, #74]	@ zero_extendqisi2
 246:../../libdaisy/src/dev/oled_ssd130x.h ****     }
 559              		.loc 5 246 49 view .LVU154
ARM GAS  C:\Users\VINCIU~1\AppData\Local\Temp\ccdS0pnQ.s 			page 25


 560 00b2 0EFA08FE 		lsl	lr, lr, r8
 561              	.LBE723:
 562              	.LBE727:
 563              	.LBE732:
 564              	.LBE737:
 565              	.LBE742:
 212:../../libdaisy/src/hid/disp/display.h ****             }
 566              		.loc 6 212 20 view .LVU155
 567 00b6 0133     		adds	r3, r3, #1
 568              	.LVL30:
 569              	.LBB743:
 570              	.LBB738:
 571              	.LBB733:
 572              	.LBB728:
 573              	.LBB724:
 246:../../libdaisy/src/dev/oled_ssd130x.h ****     }
 574              		.loc 5 246 42 view .LVU156
 575 00b8 22EA0E0E 		bic	lr, r2, lr
 576              	.LBE724:
 577              	.LBE728:
 578              	.LBE733:
 579              	.LBE738:
 580              	.LBE743:
 199:../../libdaisy/src/hid/disp/display.h ****         {
 581              		.loc 6 199 26 view .LVU157
 582 00bc 342B     		cmp	r3, #52
 583              	.LBB744:
 584              	.LBB739:
 585              	.LBB734:
 586              	.LBB729:
 587              	.LBB725:
 246:../../libdaisy/src/dev/oled_ssd130x.h ****     }
 588              		.loc 5 246 42 view .LVU158
 589 00be 8CF84AE0 		strb	lr, [ip, #74]
 590              	.LVL31:
 246:../../libdaisy/src/dev/oled_ssd130x.h ****     }
 591              		.loc 5 246 42 view .LVU159
 592              	.LBE725:
 593              	.LBE729:
 594              	.LBE734:
 595              	.LBE739:
 596              	.LBE744:
 199:../../libdaisy/src/hid/disp/display.h ****         {
 597              		.loc 6 199 26 is_stmt 1 view .LVU160
 598 00c2 E8D1     		bne	.L17
 599              	.L148:
 600              	.LVL32:
 199:../../libdaisy/src/hid/disp/display.h ****         {
 601              		.loc 6 199 26 is_stmt 0 view .LVU161
 602              	.LBE746:
 603              	.LBE749:
 134:Menus.cpp     ****     screen.DrawLine(screen.Width()/2-10,37,screen.Width()/2-10+3,52,!colorTemplate);
 604              		.loc 2 134 5 is_stmt 1 view .LVU162
 605              	.LBB750:
 606              	.LBI750:
 181:../../libdaisy/src/hid/disp/display.h ****                   uint_fast8_t y1,
 607              		.loc 6 181 10 view .LVU163
ARM GAS  C:\Users\VINCIU~1\AppData\Local\Temp\ccdS0pnQ.s 			page 26


 608              	.LBB751:
 609              	.LBB752:
 610              	.LBI752:
  41:../../libdaisy/src/hid/disp/oled_display.h ****     {
 611              		.loc 1 41 10 view .LVU164
 612              	.LBB753:
 613              	.LBI753:
 239:../../libdaisy/src/dev/oled_ssd130x.h ****     {
 614              		.loc 5 239 10 view .LVU165
 615              	.LBB754:
 243:../../libdaisy/src/dev/oled_ssd130x.h ****             buffer_[x + (y / 8) * width] |= (1 << (y % 8));
 616              		.loc 5 243 9 is_stmt 0 view .LVU166
 617 00c4 0028     		cmp	r0, #0
 618 00c6 00F06583 		beq	.L18
 619              	.LVL33:
 244:../../libdaisy/src/dev/oled_ssd130x.h ****         else
 620              		.loc 5 244 42 view .LVU167
 621 00ca 47F01007 		orr	r7, r7, #16
 622              	.LVL34:
 623              	.L19:
 244:../../libdaisy/src/dev/oled_ssd130x.h ****         else
 624              		.loc 5 244 42 view .LVU168
 625 00ce 84F84D73 		strb	r7, [r4, #845]
 626              	.LVL35:
 244:../../libdaisy/src/dev/oled_ssd130x.h ****         else
 627              		.loc 5 244 42 view .LVU169
 628              	.LBE754:
 629              	.LBE753:
 630              	.LBE752:
 199:../../libdaisy/src/hid/disp/display.h ****         {
 631              		.loc 6 199 26 is_stmt 1 view .LVU170
 632              	.LBE751:
 633              	.LBE750:
 634              	.LBB775:
 635              	.LBB698:
 636              	.LBB688:
 637              	.LBB678:
 638              		.loc 6 228 34 is_stmt 0 view .LVU171
 639 00d2 6FF00B0E 		mvn	lr, #11
 640 00d6 2527     		movs	r7, #37
 641 00d8 4FF0360C 		mov	ip, #54
 642              	.LVL36:
 643              	.L20:
 644              		.loc 6 228 34 view .LVU172
 645              	.LBE678:
 646              	.LBE688:
 647              	.LBE698:
 648              	.LBE775:
 649              	.LBB776:
 650              	.LBB772:
 651              	.LBB759:
 652              	.LBI759:
  41:../../libdaisy/src/hid/disp/oled_display.h ****     {
 653              		.loc 1 41 10 is_stmt 1 view .LVU173
 654              	.LBB760:
 655              	.LBI760:
 239:../../libdaisy/src/dev/oled_ssd130x.h ****     {
ARM GAS  C:\Users\VINCIU~1\AppData\Local\Temp\ccdS0pnQ.s 			page 27


 656              		.loc 5 239 10 view .LVU174
 657              	.LBB761:
 241:../../libdaisy/src/dev/oled_ssd130x.h ****             return;
 658              		.loc 5 241 9 is_stmt 0 view .LVU175
 659 00dc BCF17F0F 		cmp	ip, #127
 660 00e0 15D8     		bhi	.L23
 661 00e2 3F2F     		cmp	r7, #63
 662 00e4 13D8     		bhi	.L23
 663              	.LVL37:
 664              	.LBB762:
 665              	.LBI762:
 239:../../libdaisy/src/dev/oled_ssd130x.h ****     {
 666              		.loc 5 239 10 is_stmt 1 view .LVU176
 667              	.LBB763:
 246:../../libdaisy/src/dev/oled_ssd130x.h ****     }
 668              		.loc 5 246 28 is_stmt 0 view .LVU177
 669 00e6 FA08     		lsrs	r2, r7, #3
 246:../../libdaisy/src/dev/oled_ssd130x.h ****     }
 670              		.loc 5 246 55 view .LVU178
 671 00e8 07F00708 		and	r8, r7, #7
 672              	.LBE763:
 673              	.LBE762:
 244:../../libdaisy/src/dev/oled_ssd130x.h ****         else
 674              		.loc 5 244 48 view .LVU179
 675 00ec 4FF0010A 		mov	r10, #1
 676              	.LBB766:
 677              	.LBB764:
 246:../../libdaisy/src/dev/oled_ssd130x.h ****     }
 678              		.loc 5 246 42 view .LVU180
 679 00f0 0CEBC212 		add	r2, ip, r2, lsl #7
 680              	.LBE764:
 681              	.LBE766:
 244:../../libdaisy/src/dev/oled_ssd130x.h ****         else
 682              		.loc 5 244 48 view .LVU181
 683 00f4 0AFA08F9 		lsl	r9, r10, r8
 244:../../libdaisy/src/dev/oled_ssd130x.h ****         else
 684              		.loc 5 244 42 view .LVU182
 685 00f8 1146     		mov	r1, r2
 686 00fa 2144     		add	r1, r1, r4
 243:../../libdaisy/src/dev/oled_ssd130x.h ****             buffer_[x + (y / 8) * width] |= (1 << (y % 8));
 687              		.loc 5 243 9 view .LVU183
 688 00fc 0028     		cmp	r0, #0
 689 00fe 00F00683 		beq	.L24
 244:../../libdaisy/src/dev/oled_ssd130x.h ****         else
 690              		.loc 5 244 42 view .LVU184
 691 0102 91F814A0 		ldrb	r10, [r1, #20]	@ zero_extendqisi2
 692 0106 49EA0A09 		orr	r9, r9, r10
 693 010a 81F81490 		strb	r9, [r1, #20]
 694              	.LVL38:
 695              	.L23:
 244:../../libdaisy/src/dev/oled_ssd130x.h ****         else
 696              		.loc 5 244 42 view .LVU185
 697              	.LBE761:
 698              	.LBE760:
 699              	.LBE759:
 202:../../libdaisy/src/hid/disp/display.h ****             if(error2 > -deltaY)
 700              		.loc 6 202 20 view .LVU186
ARM GAS  C:\Users\VINCIU~1\AppData\Local\Temp\ccdS0pnQ.s 			page 28


 701 010e 4FEA4E02 		lsl	r2, lr, #1
 702              	.LVL39:
 203:../../libdaisy/src/hid/disp/display.h ****             {
 703              		.loc 6 203 13 view .LVU187
 704 0112 12F10E0F 		cmn	r2, #14
 705 0116 C0F2F682 		blt	.L25
 209:../../libdaisy/src/hid/disp/display.h ****             {
 706              		.loc 6 209 13 view .LVU188
 707 011a 022A     		cmp	r2, #2
 206:../../libdaisy/src/hid/disp/display.h ****             }
 708              		.loc 6 206 20 view .LVU189
 709 011c 0CF1010C 		add	ip, ip, #1
 710              	.LVL40:
 205:../../libdaisy/src/hid/disp/display.h ****                 x1 += signX;
 711              		.loc 6 205 23 view .LVU190
 712 0120 AEF10F0E 		sub	lr, lr, #15
 713              	.LVL41:
 209:../../libdaisy/src/hid/disp/display.h ****             {
 714              		.loc 6 209 13 view .LVU191
 715 0124 40F3EF82 		ble	.L25
 716              	.L26:
 199:../../libdaisy/src/hid/disp/display.h ****         {
 717              		.loc 6 199 26 is_stmt 1 view .LVU192
 718 0128 BCF1390F 		cmp	ip, #57
 719 012c D6D1     		bne	.L20
 199:../../libdaisy/src/hid/disp/display.h ****         {
 720              		.loc 6 199 26 is_stmt 0 view .LVU193
 721 012e 342F     		cmp	r7, #52
 722 0130 D4D1     		bne	.L20
 723              	.LVL42:
 199:../../libdaisy/src/hid/disp/display.h ****         {
 724              		.loc 6 199 26 view .LVU194
 725              	.LBE772:
 726              	.LBE776:
 135:Menus.cpp     ****     screen.DrawLine(screen.Width()/2-10+3,52,screen.Width()/2-10+6,37,!colorTemplate);
 727              		.loc 2 135 5 is_stmt 1 view .LVU195
 728              	.LBB777:
 729              	.LBI777:
 181:../../libdaisy/src/hid/disp/display.h ****                   uint_fast8_t y1,
 730              		.loc 6 181 10 view .LVU196
 731              	.LBB778:
 732              	.LBB779:
 733              	.LBI779:
  41:../../libdaisy/src/hid/disp/oled_display.h ****     {
 734              		.loc 1 41 10 view .LVU197
 735              	.LBB780:
 736              	.LBI780:
 239:../../libdaisy/src/dev/oled_ssd130x.h ****     {
 737              		.loc 5 239 10 view .LVU198
 738              	.LBB781:
 244:../../libdaisy/src/dev/oled_ssd130x.h ****         else
 739              		.loc 5 244 42 is_stmt 0 view .LVU199
 740 0132 94F85022 		ldrb	r2, [r4, #592]	@ zero_extendqisi2
 243:../../libdaisy/src/dev/oled_ssd130x.h ****             buffer_[x + (y / 8) * width] |= (1 << (y % 8));
 741              		.loc 5 243 9 view .LVU200
 742 0136 0028     		cmp	r0, #0
 743 0138 00F03283 		beq	.L27
ARM GAS  C:\Users\VINCIU~1\AppData\Local\Temp\ccdS0pnQ.s 			page 29


 244:../../libdaisy/src/dev/oled_ssd130x.h ****         else
 744              		.loc 5 244 42 view .LVU201
 745 013c 42F02002 		orr	r2, r2, #32
 746              	.L28:
 244:../../libdaisy/src/dev/oled_ssd130x.h ****         else
 747              		.loc 5 244 42 view .LVU202
 748              	.LBE781:
 749              	.LBE780:
 750              	.LBE779:
 751              	.LBE778:
 752              	.LBE777:
 753              	.LBB803:
 754              	.LBB699:
 755              	.LBB689:
 756              	.LBB679:
 757              		.loc 6 228 34 view .LVU203
 758 0140 6FF00B0C 		mvn	ip, #11
 759 0144 3927     		movs	r7, #57
 760 0146 84F85022 		strb	r2, [r4, #592]
 761              	.LVL43:
 762              		.loc 6 228 34 view .LVU204
 763              	.LBE679:
 764              	.LBE689:
 765              	.LBE699:
 766              	.LBE803:
 767              	.LBB804:
 768              	.LBB799:
 199:../../libdaisy/src/hid/disp/display.h ****         {
 769              		.loc 6 199 26 is_stmt 1 view .LVU205
 770              	.L29:
 771              	.LBB786:
 772              	.LBI786:
  41:../../libdaisy/src/hid/disp/oled_display.h ****     {
 773              		.loc 1 41 10 view .LVU206
 774              	.LBB787:
 775              	.LBI787:
 239:../../libdaisy/src/dev/oled_ssd130x.h ****     {
 776              		.loc 5 239 10 view .LVU207
 777              	.LBB788:
 241:../../libdaisy/src/dev/oled_ssd130x.h ****             return;
 778              		.loc 5 241 9 is_stmt 0 view .LVU208
 779 014a 7F2F     		cmp	r7, #127
 780 014c 14D8     		bhi	.L32
 781 014e 3F2B     		cmp	r3, #63
 782 0150 12D8     		bhi	.L32
 783              	.LVL44:
 784              	.LBB789:
 785              	.LBI789:
 239:../../libdaisy/src/dev/oled_ssd130x.h ****     {
 786              		.loc 5 239 10 is_stmt 1 view .LVU209
 787              	.LBB790:
 246:../../libdaisy/src/dev/oled_ssd130x.h ****     }
 788              		.loc 5 246 28 is_stmt 0 view .LVU210
 789 0152 DA08     		lsrs	r2, r3, #3
 246:../../libdaisy/src/dev/oled_ssd130x.h ****     }
 790              		.loc 5 246 55 view .LVU211
 791 0154 03F00708 		and	r8, r3, #7
ARM GAS  C:\Users\VINCIU~1\AppData\Local\Temp\ccdS0pnQ.s 			page 30


 792              	.LBE790:
 793              	.LBE789:
 244:../../libdaisy/src/dev/oled_ssd130x.h ****         else
 794              		.loc 5 244 48 view .LVU212
 795 0158 4FF0010E 		mov	lr, #1
 796              	.LBB793:
 797              	.LBB791:
 246:../../libdaisy/src/dev/oled_ssd130x.h ****     }
 798              		.loc 5 246 42 view .LVU213
 799 015c 07EBC212 		add	r2, r7, r2, lsl #7
 800              	.LBE791:
 801              	.LBE793:
 244:../../libdaisy/src/dev/oled_ssd130x.h ****         else
 802              		.loc 5 244 48 view .LVU214
 803 0160 0EFA08FE 		lsl	lr, lr, r8
 244:../../libdaisy/src/dev/oled_ssd130x.h ****         else
 804              		.loc 5 244 42 view .LVU215
 805 0164 1146     		mov	r1, r2
 806 0166 2144     		add	r1, r1, r4
 243:../../libdaisy/src/dev/oled_ssd130x.h ****             buffer_[x + (y / 8) * width] |= (1 << (y % 8));
 807              		.loc 5 243 9 view .LVU216
 808 0168 0028     		cmp	r0, #0
 809 016a 00F0D782 		beq	.L33
 244:../../libdaisy/src/dev/oled_ssd130x.h ****         else
 810              		.loc 5 244 42 view .LVU217
 811 016e 0A7D     		ldrb	r2, [r1, #20]	@ zero_extendqisi2
 812 0170 4EEA020E 		orr	lr, lr, r2
 813 0174 81F814E0 		strb	lr, [r1, #20]
 814              	.LVL45:
 815              	.L32:
 244:../../libdaisy/src/dev/oled_ssd130x.h ****         else
 816              		.loc 5 244 42 view .LVU218
 817              	.LBE788:
 818              	.LBE787:
 819              	.LBE786:
 202:../../libdaisy/src/hid/disp/display.h ****             if(error2 > -deltaY)
 820              		.loc 6 202 20 view .LVU219
 821 0178 4FEA4C02 		lsl	r2, ip, #1
 822              	.LVL46:
 203:../../libdaisy/src/hid/disp/display.h ****             {
 823              		.loc 6 203 13 view .LVU220
 824 017c 12F10E0F 		cmn	r2, #14
 825 0180 C0F2BD82 		blt	.L34
 209:../../libdaisy/src/hid/disp/display.h ****             {
 826              		.loc 6 209 13 view .LVU221
 827 0184 022A     		cmp	r2, #2
 206:../../libdaisy/src/hid/disp/display.h ****             }
 828              		.loc 6 206 20 view .LVU222
 829 0186 07F10107 		add	r7, r7, #1
 830              	.LVL47:
 205:../../libdaisy/src/hid/disp/display.h ****                 x1 += signX;
 831              		.loc 6 205 23 view .LVU223
 832 018a ACF10F0C 		sub	ip, ip, #15
 833              	.LVL48:
 209:../../libdaisy/src/hid/disp/display.h ****             {
 834              		.loc 6 209 13 view .LVU224
 835 018e 40F3B682 		ble	.L34
ARM GAS  C:\Users\VINCIU~1\AppData\Local\Temp\ccdS0pnQ.s 			page 31


 836              	.L35:
 199:../../libdaisy/src/hid/disp/display.h ****         {
 837              		.loc 6 199 26 is_stmt 1 view .LVU225
 838 0192 3C2F     		cmp	r7, #60
 839 0194 D9D1     		bne	.L29
 199:../../libdaisy/src/hid/disp/display.h ****         {
 840              		.loc 6 199 26 is_stmt 0 view .LVU226
 841 0196 252B     		cmp	r3, #37
 842 0198 D7D1     		bne	.L29
 843              	.LVL49:
 199:../../libdaisy/src/hid/disp/display.h ****         {
 844              		.loc 6 199 26 view .LVU227
 845              	.LBE799:
 846              	.LBE804:
 136:Menus.cpp     ****     screen.DrawLine(screen.Width()/2-10+6,37,screen.Width()/2-10+6,52,!colorTemplate);
 847              		.loc 2 136 5 is_stmt 1 view .LVU228
 848              	.LBB805:
 849              	.LBI805:
 181:../../libdaisy/src/hid/disp/display.h ****                   uint_fast8_t y1,
 850              		.loc 6 181 10 view .LVU229
 851              	.LBB806:
 852              	.LBB807:
 853              	.LBI807:
  41:../../libdaisy/src/hid/disp/oled_display.h ****     {
 854              		.loc 1 41 10 view .LVU230
 855              	.LBB808:
 856              	.LBI808:
 239:../../libdaisy/src/dev/oled_ssd130x.h ****     {
 857              		.loc 5 239 10 view .LVU231
 858              	.LBB809:
 244:../../libdaisy/src/dev/oled_ssd130x.h ****         else
 859              		.loc 5 244 42 is_stmt 0 view .LVU232
 860 019a 94F85033 		ldrb	r3, [r4, #848]	@ zero_extendqisi2
 243:../../libdaisy/src/dev/oled_ssd130x.h ****             buffer_[x + (y / 8) * width] |= (1 << (y % 8));
 861              		.loc 5 243 9 view .LVU233
 862 019e 0028     		cmp	r0, #0
 863 01a0 00F0FB82 		beq	.L36
 244:../../libdaisy/src/dev/oled_ssd130x.h ****         else
 864              		.loc 5 244 42 view .LVU234
 865 01a4 43F01003 		orr	r3, r3, #16
 866              	.L37:
 244:../../libdaisy/src/dev/oled_ssd130x.h ****         else
 867              		.loc 5 244 42 view .LVU235
 868              	.LBE809:
 869              	.LBE808:
 870              	.LBE807:
 871              	.LBE806:
 872              	.LBE805:
 873              	.LBB844:
 874              	.LBB700:
 875              	.LBB690:
 876              	.LBB680:
 877              		.loc 6 228 34 view .LVU236
 878 01a8 2522     		movs	r2, #37
 879 01aa 84F85033 		strb	r3, [r4, #848]
 880              	.LVL50:
 881              		.loc 6 228 34 view .LVU237
ARM GAS  C:\Users\VINCIU~1\AppData\Local\Temp\ccdS0pnQ.s 			page 32


 882              	.LBE680:
 883              	.LBE690:
 884              	.LBE700:
 885              	.LBE844:
 886              	.LBB845:
 887              	.LBB842:
 199:../../libdaisy/src/hid/disp/display.h ****         {
 888              		.loc 6 199 26 is_stmt 1 view .LVU238
 889 01ae 07E0     		b	.L40
 890              	.LVL51:
 891              	.L151:
 892              	.LBB814:
 893              	.LBB815:
 894              	.LBB816:
 244:../../libdaisy/src/dev/oled_ssd130x.h ****         else
 895              		.loc 5 244 42 is_stmt 0 view .LVU239
 896 01b0 97F85010 		ldrb	r1, [r7, #80]	@ zero_extendqisi2
 897              	.LBE816:
 898              	.LBE815:
 899              	.LBE814:
 212:../../libdaisy/src/hid/disp/display.h ****             }
 900              		.loc 6 212 20 view .LVU240
 901 01b4 0132     		adds	r2, r2, #1
 902              	.LVL52:
 903              	.LBB836:
 904              	.LBB831:
 905              	.LBB826:
 244:../../libdaisy/src/dev/oled_ssd130x.h ****         else
 906              		.loc 5 244 42 view .LVU241
 907 01b6 0B43     		orrs	r3, r3, r1
 908              	.LBE826:
 909              	.LBE831:
 910              	.LBE836:
 199:../../libdaisy/src/hid/disp/display.h ****         {
 911              		.loc 6 199 26 view .LVU242
 912 01b8 342A     		cmp	r2, #52
 913              	.LBB837:
 914              	.LBB832:
 915              	.LBB827:
 244:../../libdaisy/src/dev/oled_ssd130x.h ****         else
 916              		.loc 5 244 42 view .LVU243
 917 01ba 87F85030 		strb	r3, [r7, #80]
 918              	.LVL53:
 244:../../libdaisy/src/dev/oled_ssd130x.h ****         else
 919              		.loc 5 244 42 view .LVU244
 920              	.LBE827:
 921              	.LBE832:
 922              	.LBE837:
 199:../../libdaisy/src/hid/disp/display.h ****         {
 923              		.loc 6 199 26 is_stmt 1 view .LVU245
 924 01be 15D0     		beq	.L150
 925              	.LVL54:
 926              	.L40:
 927              	.LBB838:
 928              	.LBI814:
  41:../../libdaisy/src/hid/disp/oled_display.h ****     {
 929              		.loc 1 41 10 view .LVU246
ARM GAS  C:\Users\VINCIU~1\AppData\Local\Temp\ccdS0pnQ.s 			page 33


 930              	.LBB833:
 931              	.LBI815:
 239:../../libdaisy/src/dev/oled_ssd130x.h ****     {
 932              		.loc 5 239 10 view .LVU247
 933              	.LBB828:
 934              	.LBB817:
 935              	.LBI817:
 239:../../libdaisy/src/dev/oled_ssd130x.h ****     {
 936              		.loc 5 239 10 view .LVU248
 239:../../libdaisy/src/dev/oled_ssd130x.h ****     {
 937              		.loc 5 239 10 is_stmt 0 view .LVU249
 938              	.LBE817:
 244:../../libdaisy/src/dev/oled_ssd130x.h ****         else
 939              		.loc 5 244 48 view .LVU250
 940 01c0 0123     		movs	r3, #1
 244:../../libdaisy/src/dev/oled_ssd130x.h ****         else
 941              		.loc 5 244 28 view .LVU251
 942 01c2 D708     		lsrs	r7, r2, #3
 244:../../libdaisy/src/dev/oled_ssd130x.h ****         else
 943              		.loc 5 244 54 view .LVU252
 944 01c4 02F0070E 		and	lr, r2, #7
 945              	.LBB822:
 946              	.LBB818:
 246:../../libdaisy/src/dev/oled_ssd130x.h ****     }
 947              		.loc 5 246 49 view .LVU253
 948 01c8 9C46     		mov	ip, r3
 949              	.LBE818:
 950              	.LBE822:
 244:../../libdaisy/src/dev/oled_ssd130x.h ****         else
 951              		.loc 5 244 42 view .LVU254
 952 01ca 04EBC717 		add	r7, r4, r7, lsl #7
 244:../../libdaisy/src/dev/oled_ssd130x.h ****         else
 953              		.loc 5 244 48 view .LVU255
 954 01ce 03FA0EF3 		lsl	r3, r3, lr
 243:../../libdaisy/src/dev/oled_ssd130x.h ****             buffer_[x + (y / 8) * width] |= (1 << (y % 8));
 955              		.loc 5 243 9 view .LVU256
 956 01d2 0028     		cmp	r0, #0
 957 01d4 ECD1     		bne	.L151
 958              	.LBB823:
 959              	.LBB819:
 246:../../libdaisy/src/dev/oled_ssd130x.h ****     }
 960              		.loc 5 246 42 view .LVU257
 961 01d6 97F85030 		ldrb	r3, [r7, #80]	@ zero_extendqisi2
 246:../../libdaisy/src/dev/oled_ssd130x.h ****     }
 962              		.loc 5 246 49 view .LVU258
 963 01da 0CFA0EFC 		lsl	ip, ip, lr
 964              	.LBE819:
 965              	.LBE823:
 966              	.LBE828:
 967              	.LBE833:
 968              	.LBE838:
 212:../../libdaisy/src/hid/disp/display.h ****             }
 969              		.loc 6 212 20 view .LVU259
 970 01de 0132     		adds	r2, r2, #1
 971              	.LVL55:
 972              	.LBB839:
 973              	.LBB834:
ARM GAS  C:\Users\VINCIU~1\AppData\Local\Temp\ccdS0pnQ.s 			page 34


 974              	.LBB829:
 975              	.LBB824:
 976              	.LBB820:
 246:../../libdaisy/src/dev/oled_ssd130x.h ****     }
 977              		.loc 5 246 42 view .LVU260
 978 01e0 23EA0C0C 		bic	ip, r3, ip
 979              	.LBE820:
 980              	.LBE824:
 981              	.LBE829:
 982              	.LBE834:
 983              	.LBE839:
 199:../../libdaisy/src/hid/disp/display.h ****         {
 984              		.loc 6 199 26 view .LVU261
 985 01e4 342A     		cmp	r2, #52
 986              	.LBB840:
 987              	.LBB835:
 988              	.LBB830:
 989              	.LBB825:
 990              	.LBB821:
 246:../../libdaisy/src/dev/oled_ssd130x.h ****     }
 991              		.loc 5 246 42 view .LVU262
 992 01e6 87F850C0 		strb	ip, [r7, #80]
 993              	.LVL56:
 246:../../libdaisy/src/dev/oled_ssd130x.h ****     }
 994              		.loc 5 246 42 view .LVU263
 995              	.LBE821:
 996              	.LBE825:
 997              	.LBE830:
 998              	.LBE835:
 999              	.LBE840:
 199:../../libdaisy/src/hid/disp/display.h ****         {
 1000              		.loc 6 199 26 is_stmt 1 view .LVU264
 1001 01ea E9D1     		bne	.L40
 1002              	.L150:
 1003              	.LVL57:
 199:../../libdaisy/src/hid/disp/display.h ****         {
 1004              		.loc 6 199 26 is_stmt 0 view .LVU265
 1005              	.LBE842:
 1006              	.LBE845:
 137:Menus.cpp     ****     //H
 138:Menus.cpp     ****     screen.DrawLine(screen.Width()/2-10+8,52,screen.Width()/2-10+8,37,!colorTemplate);
 1007              		.loc 2 138 5 is_stmt 1 view .LVU266
 1008              	.LBB846:
 1009              	.LBI846:
 181:../../libdaisy/src/hid/disp/display.h ****                   uint_fast8_t y1,
 1010              		.loc 6 181 10 view .LVU267
 1011              	.LBB847:
 1012              	.LBB848:
 1013              	.LBI848:
  41:../../libdaisy/src/hid/disp/oled_display.h ****     {
 1014              		.loc 1 41 10 view .LVU268
 1015              	.LBB849:
 1016              	.LBI849:
 239:../../libdaisy/src/dev/oled_ssd130x.h ****     {
 1017              		.loc 5 239 10 view .LVU269
 1018              	.LBB850:
 244:../../libdaisy/src/dev/oled_ssd130x.h ****         else
ARM GAS  C:\Users\VINCIU~1\AppData\Local\Temp\ccdS0pnQ.s 			page 35


 1019              		.loc 5 244 42 is_stmt 0 view .LVU270
 1020 01ec 94F85232 		ldrb	r3, [r4, #594]	@ zero_extendqisi2
 243:../../libdaisy/src/dev/oled_ssd130x.h ****             buffer_[x + (y / 8) * width] |= (1 << (y % 8));
 1021              		.loc 5 243 9 view .LVU271
 1022 01f0 0028     		cmp	r0, #0
 1023 01f2 00F0D882 		beq	.L41
 1024              	.LVL58:
 244:../../libdaisy/src/dev/oled_ssd130x.h ****         else
 1025              		.loc 5 244 42 view .LVU272
 1026 01f6 43F02003 		orr	r3, r3, #32
 1027              	.LVL59:
 1028              	.L42:
 244:../../libdaisy/src/dev/oled_ssd130x.h ****         else
 1029              		.loc 5 244 42 view .LVU273
 1030 01fa 84F85232 		strb	r3, [r4, #594]
 1031              	.LVL60:
 244:../../libdaisy/src/dev/oled_ssd130x.h ****         else
 1032              		.loc 5 244 42 view .LVU274
 1033              	.LBE850:
 1034              	.LBE849:
 1035              	.LBE848:
 199:../../libdaisy/src/hid/disp/display.h ****         {
 1036              		.loc 6 199 26 is_stmt 1 view .LVU275
 1037              	.LBE847:
 1038              	.LBE846:
 1039              	.LBB885:
 1040              	.LBB701:
 1041              	.LBB691:
 1042              	.LBB681:
 1043              		.loc 6 228 34 is_stmt 0 view .LVU276
 1044 01fe 3423     		movs	r3, #52
 1045 0200 07E0     		b	.L45
 1046              	.LVL61:
 1047              	.L153:
 1048              		.loc 6 228 34 view .LVU277
 1049              	.LBE681:
 1050              	.LBE691:
 1051              	.LBE701:
 1052              	.LBE885:
 1053              	.LBB886:
 1054              	.LBB883:
 1055              	.LBB855:
 1056              	.LBB856:
 1057              	.LBB857:
 244:../../libdaisy/src/dev/oled_ssd130x.h ****         else
 1058              		.loc 5 244 42 view .LVU278
 1059 0202 9CF85270 		ldrb	r7, [ip, #82]	@ zero_extendqisi2
 1060              	.LBE857:
 1061              	.LBE856:
 1062              	.LBE855:
 212:../../libdaisy/src/hid/disp/display.h ****             }
 1063              		.loc 6 212 20 view .LVU279
 1064 0206 013B     		subs	r3, r3, #1
 1065              	.LVL62:
 1066              	.LBB877:
 1067              	.LBB872:
 1068              	.LBB867:
ARM GAS  C:\Users\VINCIU~1\AppData\Local\Temp\ccdS0pnQ.s 			page 36


 244:../../libdaisy/src/dev/oled_ssd130x.h ****         else
 1069              		.loc 5 244 42 view .LVU280
 1070 0208 3943     		orrs	r1, r1, r7
 1071              	.LBE867:
 1072              	.LBE872:
 1073              	.LBE877:
 199:../../libdaisy/src/hid/disp/display.h ****         {
 1074              		.loc 6 199 26 view .LVU281
 1075 020a 252B     		cmp	r3, #37
 1076              	.LBB878:
 1077              	.LBB873:
 1078              	.LBB868:
 244:../../libdaisy/src/dev/oled_ssd130x.h ****         else
 1079              		.loc 5 244 42 view .LVU282
 1080 020c 8CF85210 		strb	r1, [ip, #82]
 1081              	.LVL63:
 244:../../libdaisy/src/dev/oled_ssd130x.h ****         else
 1082              		.loc 5 244 42 view .LVU283
 1083              	.LBE868:
 1084              	.LBE873:
 1085              	.LBE878:
 199:../../libdaisy/src/hid/disp/display.h ****         {
 1086              		.loc 6 199 26 is_stmt 1 view .LVU284
 1087 0210 16D0     		beq	.L152
 1088              	.LVL64:
 1089              	.L45:
 1090              	.LBB879:
 1091              	.LBI855:
  41:../../libdaisy/src/hid/disp/oled_display.h ****     {
 1092              		.loc 1 41 10 view .LVU285
 1093              	.LBB874:
 1094              	.LBI856:
 239:../../libdaisy/src/dev/oled_ssd130x.h ****     {
 1095              		.loc 5 239 10 view .LVU286
 1096              	.LBB869:
 1097              	.LBB858:
 1098              	.LBI858:
 239:../../libdaisy/src/dev/oled_ssd130x.h ****     {
 1099              		.loc 5 239 10 view .LVU287
 239:../../libdaisy/src/dev/oled_ssd130x.h ****     {
 1100              		.loc 5 239 10 is_stmt 0 view .LVU288
 1101              	.LBE858:
 244:../../libdaisy/src/dev/oled_ssd130x.h ****         else
 1102              		.loc 5 244 48 view .LVU289
 1103 0212 0121     		movs	r1, #1
 244:../../libdaisy/src/dev/oled_ssd130x.h ****         else
 1104              		.loc 5 244 28 view .LVU290
 1105 0214 4FEAD30C 		lsr	ip, r3, #3
 244:../../libdaisy/src/dev/oled_ssd130x.h ****         else
 1106              		.loc 5 244 54 view .LVU291
 1107 0218 03F00708 		and	r8, r3, #7
 1108              	.LBB863:
 1109              	.LBB859:
 246:../../libdaisy/src/dev/oled_ssd130x.h ****     }
 1110              		.loc 5 246 49 view .LVU292
 1111 021c 8E46     		mov	lr, r1
 1112              	.LBE859:
ARM GAS  C:\Users\VINCIU~1\AppData\Local\Temp\ccdS0pnQ.s 			page 37


 1113              	.LBE863:
 244:../../libdaisy/src/dev/oled_ssd130x.h ****         else
 1114              		.loc 5 244 42 view .LVU293
 1115 021e 04EBCC1C 		add	ip, r4, ip, lsl #7
 244:../../libdaisy/src/dev/oled_ssd130x.h ****         else
 1116              		.loc 5 244 48 view .LVU294
 1117 0222 01FA08F1 		lsl	r1, r1, r8
 243:../../libdaisy/src/dev/oled_ssd130x.h ****             buffer_[x + (y / 8) * width] |= (1 << (y % 8));
 1118              		.loc 5 243 9 view .LVU295
 1119 0226 0028     		cmp	r0, #0
 1120 0228 EBD1     		bne	.L153
 1121              	.LBB864:
 1122              	.LBB860:
 246:../../libdaisy/src/dev/oled_ssd130x.h ****     }
 1123              		.loc 5 246 42 view .LVU296
 1124 022a 9CF85210 		ldrb	r1, [ip, #82]	@ zero_extendqisi2
 246:../../libdaisy/src/dev/oled_ssd130x.h ****     }
 1125              		.loc 5 246 49 view .LVU297
 1126 022e 0EFA08FE 		lsl	lr, lr, r8
 1127              	.LBE860:
 1128              	.LBE864:
 1129              	.LBE869:
 1130              	.LBE874:
 1131              	.LBE879:
 212:../../libdaisy/src/hid/disp/display.h ****             }
 1132              		.loc 6 212 20 view .LVU298
 1133 0232 013B     		subs	r3, r3, #1
 1134              	.LVL65:
 1135              	.LBB880:
 1136              	.LBB875:
 1137              	.LBB870:
 1138              	.LBB865:
 1139              	.LBB861:
 246:../../libdaisy/src/dev/oled_ssd130x.h ****     }
 1140              		.loc 5 246 42 view .LVU299
 1141 0234 21EA0E0E 		bic	lr, r1, lr
 1142              	.LBE861:
 1143              	.LBE865:
 1144              	.LBE870:
 1145              	.LBE875:
 1146              	.LBE880:
 199:../../libdaisy/src/hid/disp/display.h ****         {
 1147              		.loc 6 199 26 view .LVU300
 1148 0238 252B     		cmp	r3, #37
 1149              	.LBB881:
 1150              	.LBB876:
 1151              	.LBB871:
 1152              	.LBB866:
 1153              	.LBB862:
 246:../../libdaisy/src/dev/oled_ssd130x.h ****     }
 1154              		.loc 5 246 42 view .LVU301
 1155 023a 8CF852E0 		strb	lr, [ip, #82]
 1156              	.LVL66:
 246:../../libdaisy/src/dev/oled_ssd130x.h ****     }
 1157              		.loc 5 246 42 view .LVU302
 1158              	.LBE862:
 1159              	.LBE866:
ARM GAS  C:\Users\VINCIU~1\AppData\Local\Temp\ccdS0pnQ.s 			page 38


 1160              	.LBE871:
 1161              	.LBE876:
 1162              	.LBE881:
 199:../../libdaisy/src/hid/disp/display.h ****         {
 1163              		.loc 6 199 26 is_stmt 1 view .LVU303
 1164 023e E8D1     		bne	.L45
 1165              	.L152:
 1166              	.LVL67:
 199:../../libdaisy/src/hid/disp/display.h ****         {
 1167              		.loc 6 199 26 is_stmt 0 view .LVU304
 1168              	.LBE883:
 1169              	.LBE886:
 139:Menus.cpp     ****      screen.DrawLine(screen.Width()/2-10+8,45,screen.Width()/2-10+11,45,!colorTemplate);
 1170              		.loc 2 139 6 is_stmt 1 view .LVU305
 1171              	.LBB887:
 1172              	.LBI887:
 181:../../libdaisy/src/hid/disp/display.h ****                   uint_fast8_t y1,
 1173              		.loc 6 181 10 view .LVU306
 1174              	.LBB888:
 1175              	.LBB889:
 1176              	.LBI889:
  41:../../libdaisy/src/hid/disp/oled_display.h ****     {
 1177              		.loc 1 41 10 view .LVU307
 1178              	.LBB890:
 1179              	.LBI890:
 239:../../libdaisy/src/dev/oled_ssd130x.h ****     {
 1180              		.loc 5 239 10 view .LVU308
 1181              	.LBB891:
 244:../../libdaisy/src/dev/oled_ssd130x.h ****         else
 1182              		.loc 5 244 42 is_stmt 0 view .LVU309
 1183 0240 94F8D532 		ldrb	r3, [r4, #725]	@ zero_extendqisi2
 243:../../libdaisy/src/dev/oled_ssd130x.h ****             buffer_[x + (y / 8) * width] |= (1 << (y % 8));
 1184              		.loc 5 243 9 view .LVU310
 1185 0244 0028     		cmp	r0, #0
 1186 0246 00F0B182 		beq	.L46
 1187              	.LVL68:
 244:../../libdaisy/src/dev/oled_ssd130x.h ****         else
 1188              		.loc 5 244 42 view .LVU311
 1189 024a 43F02003 		orr	r3, r3, #32
 1190              	.LVL69:
 1191              	.L47:
 244:../../libdaisy/src/dev/oled_ssd130x.h ****         else
 1192              		.loc 5 244 42 view .LVU312
 1193 024e 84F8D532 		strb	r3, [r4, #725]
 1194              	.LVL70:
 244:../../libdaisy/src/dev/oled_ssd130x.h ****         else
 1195              		.loc 5 244 42 view .LVU313
 1196              	.LBE891:
 1197              	.LBE890:
 1198              	.LBE889:
 199:../../libdaisy/src/hid/disp/display.h ****         {
 1199              		.loc 6 199 26 is_stmt 1 view .LVU314
 1200 0252 04F2D527 		addw	r7, r4, #725
 1201 0256 04F2D223 		addw	r3, r4, #722
 1202 025a 06E0     		b	.L50
 1203              	.LVL71:
 1204              	.L155:
ARM GAS  C:\Users\VINCIU~1\AppData\Local\Temp\ccdS0pnQ.s 			page 39


 1205              	.LBB896:
 1206              	.LBB897:
 1207              	.LBB898:
 244:../../libdaisy/src/dev/oled_ssd130x.h ****         else
 1208              		.loc 5 244 42 is_stmt 0 view .LVU315
 1209 025c 41F02001 		orr	r1, r1, #32
 1210              	.LBE898:
 1211              	.LBE897:
 1212              	.LBE896:
 199:../../libdaisy/src/hid/disp/display.h ****         {
 1213              		.loc 6 199 26 view .LVU316
 1214 0260 0133     		adds	r3, r3, #1
 1215              	.LVL72:
 1216              	.LBB910:
 1217              	.LBB907:
 1218              	.LBB904:
 244:../../libdaisy/src/dev/oled_ssd130x.h ****         else
 1219              		.loc 5 244 42 view .LVU317
 1220 0262 03F8011C 		strb	r1, [r3, #-1]
 1221              	.LVL73:
 244:../../libdaisy/src/dev/oled_ssd130x.h ****         else
 1222              		.loc 5 244 42 view .LVU318
 1223              	.LBE904:
 1224              	.LBE907:
 1225              	.LBE910:
 199:../../libdaisy/src/hid/disp/display.h ****         {
 1226              		.loc 6 199 26 is_stmt 1 view .LVU319
 1227 0266 9F42     		cmp	r7, r3
 1228 0268 09D0     		beq	.L154
 1229              	.LVL74:
 1230              	.L50:
 1231              	.LBB911:
 1232              	.LBI896:
  41:../../libdaisy/src/hid/disp/oled_display.h ****     {
 1233              		.loc 1 41 10 view .LVU320
 1234              	.LBB908:
 1235              	.LBI897:
 239:../../libdaisy/src/dev/oled_ssd130x.h ****     {
 1236              		.loc 5 239 10 view .LVU321
 1237              	.LBB905:
 1238              	.LBB899:
 1239              	.LBI899:
 239:../../libdaisy/src/dev/oled_ssd130x.h ****     {
 1240              		.loc 5 239 10 view .LVU322
 239:../../libdaisy/src/dev/oled_ssd130x.h ****     {
 1241              		.loc 5 239 10 is_stmt 0 view .LVU323
 1242              	.LBE899:
 244:../../libdaisy/src/dev/oled_ssd130x.h ****         else
 1243              		.loc 5 244 42 view .LVU324
 1244 026a 1978     		ldrb	r1, [r3]	@ zero_extendqisi2
 243:../../libdaisy/src/dev/oled_ssd130x.h ****             buffer_[x + (y / 8) * width] |= (1 << (y % 8));
 1245              		.loc 5 243 9 view .LVU325
 1246 026c 0028     		cmp	r0, #0
 1247 026e F5D1     		bne	.L155
 1248              	.LBB902:
 1249              	.LBB900:
 246:../../libdaisy/src/dev/oled_ssd130x.h ****     }
ARM GAS  C:\Users\VINCIU~1\AppData\Local\Temp\ccdS0pnQ.s 			page 40


 1250              		.loc 5 246 42 view .LVU326
 1251 0270 21F02001 		bic	r1, r1, #32
 1252              	.LBE900:
 1253              	.LBE902:
 1254              	.LBE905:
 1255              	.LBE908:
 1256              	.LBE911:
 199:../../libdaisy/src/hid/disp/display.h ****         {
 1257              		.loc 6 199 26 view .LVU327
 1258 0274 0133     		adds	r3, r3, #1
 1259              	.LVL75:
 1260              	.LBB912:
 1261              	.LBB909:
 1262              	.LBB906:
 1263              	.LBB903:
 1264              	.LBB901:
 246:../../libdaisy/src/dev/oled_ssd130x.h ****     }
 1265              		.loc 5 246 42 view .LVU328
 1266 0276 03F8011C 		strb	r1, [r3, #-1]
 1267              	.LVL76:
 246:../../libdaisy/src/dev/oled_ssd130x.h ****     }
 1268              		.loc 5 246 42 view .LVU329
 1269              	.LBE901:
 1270              	.LBE903:
 1271              	.LBE906:
 1272              	.LBE909:
 1273              	.LBE912:
 199:../../libdaisy/src/hid/disp/display.h ****         {
 1274              		.loc 6 199 26 is_stmt 1 view .LVU330
 1275 027a 9F42     		cmp	r7, r3
 1276 027c F5D1     		bne	.L50
 1277              	.L154:
 1278              	.LVL77:
 199:../../libdaisy/src/hid/disp/display.h ****         {
 1279              		.loc 6 199 26 is_stmt 0 view .LVU331
 1280              	.LBE888:
 1281              	.LBE887:
 140:Menus.cpp     ****      screen.DrawLine(screen.Width()/2-10+11,52,screen.Width()/2-10+11,37,!colorTemplate);
 1282              		.loc 2 140 6 is_stmt 1 view .LVU332
 1283              	.LBB915:
 1284              	.LBI915:
 181:../../libdaisy/src/hid/disp/display.h ****                   uint_fast8_t y1,
 1285              		.loc 6 181 10 view .LVU333
 1286              	.LBB916:
 1287              	.LBB917:
 1288              	.LBI917:
  41:../../libdaisy/src/hid/disp/oled_display.h ****     {
 1289              		.loc 1 41 10 view .LVU334
 1290              	.LBB918:
 1291              	.LBI918:
 239:../../libdaisy/src/dev/oled_ssd130x.h ****     {
 1292              		.loc 5 239 10 view .LVU335
 1293              	.LBB919:
 244:../../libdaisy/src/dev/oled_ssd130x.h ****         else
 1294              		.loc 5 244 42 is_stmt 0 view .LVU336
 1295 027e 94F85532 		ldrb	r3, [r4, #597]	@ zero_extendqisi2
 243:../../libdaisy/src/dev/oled_ssd130x.h ****             buffer_[x + (y / 8) * width] |= (1 << (y % 8));
ARM GAS  C:\Users\VINCIU~1\AppData\Local\Temp\ccdS0pnQ.s 			page 41


 1296              		.loc 5 243 9 view .LVU337
 1297 0282 0028     		cmp	r0, #0
 1298 0284 00F09582 		beq	.L51
 1299              	.LVL78:
 244:../../libdaisy/src/dev/oled_ssd130x.h ****         else
 1300              		.loc 5 244 42 view .LVU338
 1301 0288 43F02003 		orr	r3, r3, #32
 1302              	.LVL79:
 1303              	.L52:
 244:../../libdaisy/src/dev/oled_ssd130x.h ****         else
 1304              		.loc 5 244 42 view .LVU339
 1305 028c 84F85532 		strb	r3, [r4, #597]
 1306              	.LVL80:
 244:../../libdaisy/src/dev/oled_ssd130x.h ****         else
 1307              		.loc 5 244 42 view .LVU340
 1308              	.LBE919:
 1309              	.LBE918:
 1310              	.LBE917:
 199:../../libdaisy/src/hid/disp/display.h ****         {
 1311              		.loc 6 199 26 is_stmt 1 view .LVU341
 1312 0290 07E0     		b	.L55
 1313              	.LVL81:
 1314              	.L157:
 1315              	.LBB924:
 1316              	.LBB925:
 1317              	.LBB926:
 244:../../libdaisy/src/dev/oled_ssd130x.h ****         else
 1318              		.loc 5 244 42 is_stmt 0 view .LVU342
 1319 0292 97F85510 		ldrb	r1, [r7, #85]	@ zero_extendqisi2
 1320              	.LBE926:
 1321              	.LBE925:
 1322              	.LBE924:
 212:../../libdaisy/src/hid/disp/display.h ****             }
 1323              		.loc 6 212 20 view .LVU343
 1324 0296 013A     		subs	r2, r2, #1
 1325              	.LVL82:
 1326              	.LBB946:
 1327              	.LBB941:
 1328              	.LBB936:
 244:../../libdaisy/src/dev/oled_ssd130x.h ****         else
 1329              		.loc 5 244 42 view .LVU344
 1330 0298 0B43     		orrs	r3, r3, r1
 1331              	.LBE936:
 1332              	.LBE941:
 1333              	.LBE946:
 199:../../libdaisy/src/hid/disp/display.h ****         {
 1334              		.loc 6 199 26 view .LVU345
 1335 029a 252A     		cmp	r2, #37
 1336              	.LBB947:
 1337              	.LBB942:
 1338              	.LBB937:
 244:../../libdaisy/src/dev/oled_ssd130x.h ****         else
 1339              		.loc 5 244 42 view .LVU346
 1340 029c 87F85530 		strb	r3, [r7, #85]
 1341              	.LVL83:
 244:../../libdaisy/src/dev/oled_ssd130x.h ****         else
 1342              		.loc 5 244 42 view .LVU347
ARM GAS  C:\Users\VINCIU~1\AppData\Local\Temp\ccdS0pnQ.s 			page 42


 1343              	.LBE937:
 1344              	.LBE942:
 1345              	.LBE947:
 199:../../libdaisy/src/hid/disp/display.h ****         {
 1346              		.loc 6 199 26 is_stmt 1 view .LVU348
 1347 02a0 15D0     		beq	.L156
 1348              	.LVL84:
 1349              	.L55:
 1350              	.LBB948:
 1351              	.LBI924:
  41:../../libdaisy/src/hid/disp/oled_display.h ****     {
 1352              		.loc 1 41 10 view .LVU349
 1353              	.LBB943:
 1354              	.LBI925:
 239:../../libdaisy/src/dev/oled_ssd130x.h ****     {
 1355              		.loc 5 239 10 view .LVU350
 1356              	.LBB938:
 1357              	.LBB927:
 1358              	.LBI927:
 239:../../libdaisy/src/dev/oled_ssd130x.h ****     {
 1359              		.loc 5 239 10 view .LVU351
 239:../../libdaisy/src/dev/oled_ssd130x.h ****     {
 1360              		.loc 5 239 10 is_stmt 0 view .LVU352
 1361              	.LBE927:
 244:../../libdaisy/src/dev/oled_ssd130x.h ****         else
 1362              		.loc 5 244 48 view .LVU353
 1363 02a2 0123     		movs	r3, #1
 244:../../libdaisy/src/dev/oled_ssd130x.h ****         else
 1364              		.loc 5 244 28 view .LVU354
 1365 02a4 D708     		lsrs	r7, r2, #3
 244:../../libdaisy/src/dev/oled_ssd130x.h ****         else
 1366              		.loc 5 244 54 view .LVU355
 1367 02a6 02F0070E 		and	lr, r2, #7
 1368              	.LBB932:
 1369              	.LBB928:
 246:../../libdaisy/src/dev/oled_ssd130x.h ****     }
 1370              		.loc 5 246 49 view .LVU356
 1371 02aa 9C46     		mov	ip, r3
 1372              	.LBE928:
 1373              	.LBE932:
 244:../../libdaisy/src/dev/oled_ssd130x.h ****         else
 1374              		.loc 5 244 42 view .LVU357
 1375 02ac 04EBC717 		add	r7, r4, r7, lsl #7
 244:../../libdaisy/src/dev/oled_ssd130x.h ****         else
 1376              		.loc 5 244 48 view .LVU358
 1377 02b0 03FA0EF3 		lsl	r3, r3, lr
 243:../../libdaisy/src/dev/oled_ssd130x.h ****             buffer_[x + (y / 8) * width] |= (1 << (y % 8));
 1378              		.loc 5 243 9 view .LVU359
 1379 02b4 0028     		cmp	r0, #0
 1380 02b6 ECD1     		bne	.L157
 1381              	.LBB933:
 1382              	.LBB929:
 246:../../libdaisy/src/dev/oled_ssd130x.h ****     }
 1383              		.loc 5 246 42 view .LVU360
 1384 02b8 97F85530 		ldrb	r3, [r7, #85]	@ zero_extendqisi2
 246:../../libdaisy/src/dev/oled_ssd130x.h ****     }
 1385              		.loc 5 246 49 view .LVU361
ARM GAS  C:\Users\VINCIU~1\AppData\Local\Temp\ccdS0pnQ.s 			page 43


 1386 02bc 0CFA0EFC 		lsl	ip, ip, lr
 1387              	.LBE929:
 1388              	.LBE933:
 1389              	.LBE938:
 1390              	.LBE943:
 1391              	.LBE948:
 212:../../libdaisy/src/hid/disp/display.h ****             }
 1392              		.loc 6 212 20 view .LVU362
 1393 02c0 013A     		subs	r2, r2, #1
 1394              	.LVL85:
 1395              	.LBB949:
 1396              	.LBB944:
 1397              	.LBB939:
 1398              	.LBB934:
 1399              	.LBB930:
 246:../../libdaisy/src/dev/oled_ssd130x.h ****     }
 1400              		.loc 5 246 42 view .LVU363
 1401 02c2 23EA0C0C 		bic	ip, r3, ip
 1402              	.LBE930:
 1403              	.LBE934:
 1404              	.LBE939:
 1405              	.LBE944:
 1406              	.LBE949:
 199:../../libdaisy/src/hid/disp/display.h ****         {
 1407              		.loc 6 199 26 view .LVU364
 1408 02c6 252A     		cmp	r2, #37
 1409              	.LBB950:
 1410              	.LBB945:
 1411              	.LBB940:
 1412              	.LBB935:
 1413              	.LBB931:
 246:../../libdaisy/src/dev/oled_ssd130x.h ****     }
 1414              		.loc 5 246 42 view .LVU365
 1415 02c8 87F855C0 		strb	ip, [r7, #85]
 1416              	.LVL86:
 246:../../libdaisy/src/dev/oled_ssd130x.h ****     }
 1417              		.loc 5 246 42 view .LVU366
 1418              	.LBE931:
 1419              	.LBE935:
 1420              	.LBE940:
 1421              	.LBE945:
 1422              	.LBE950:
 199:../../libdaisy/src/hid/disp/display.h ****         {
 1423              		.loc 6 199 26 is_stmt 1 view .LVU367
 1424 02cc E9D1     		bne	.L55
 1425              	.L156:
 1426              	.LVL87:
 199:../../libdaisy/src/hid/disp/display.h ****         {
 1427              		.loc 6 199 26 is_stmt 0 view .LVU368
 1428              	.LBE916:
 1429              	.LBE915:
 141:Menus.cpp     ****      //N
 142:Menus.cpp     ****     screen.DrawLine(screen.Width()/2-10+13,37,screen.Width()/2-10+13,52,!colorTemplate);
 1430              		.loc 2 142 5 is_stmt 1 view .LVU369
 1431              	.LBB953:
 1432              	.LBI953:
 181:../../libdaisy/src/hid/disp/display.h ****                   uint_fast8_t y1,
ARM GAS  C:\Users\VINCIU~1\AppData\Local\Temp\ccdS0pnQ.s 			page 44


 1433              		.loc 6 181 10 view .LVU370
 1434              	.LBB954:
 1435              	.LBB955:
 1436              	.LBI955:
  41:../../libdaisy/src/hid/disp/oled_display.h ****     {
 1437              		.loc 1 41 10 view .LVU371
 1438              	.LBB956:
 1439              	.LBI956:
 239:../../libdaisy/src/dev/oled_ssd130x.h ****     {
 1440              		.loc 5 239 10 view .LVU372
 1441              	.LBB957:
 244:../../libdaisy/src/dev/oled_ssd130x.h ****         else
 1442              		.loc 5 244 42 is_stmt 0 view .LVU373
 1443 02ce 94F85733 		ldrb	r3, [r4, #855]	@ zero_extendqisi2
 243:../../libdaisy/src/dev/oled_ssd130x.h ****             buffer_[x + (y / 8) * width] |= (1 << (y % 8));
 1444              		.loc 5 243 9 view .LVU374
 1445 02d2 0028     		cmp	r0, #0
 1446 02d4 00F07082 		beq	.L56
 1447              	.LVL88:
 244:../../libdaisy/src/dev/oled_ssd130x.h ****         else
 1448              		.loc 5 244 42 view .LVU375
 1449 02d8 43F01003 		orr	r3, r3, #16
 1450              	.LVL89:
 1451              	.L57:
 244:../../libdaisy/src/dev/oled_ssd130x.h ****         else
 1452              		.loc 5 244 42 view .LVU376
 1453 02dc 84F85733 		strb	r3, [r4, #855]
 1454              	.LVL90:
 244:../../libdaisy/src/dev/oled_ssd130x.h ****         else
 1455              		.loc 5 244 42 view .LVU377
 1456              	.LBE957:
 1457              	.LBE956:
 1458              	.LBE955:
 199:../../libdaisy/src/hid/disp/display.h ****         {
 1459              		.loc 6 199 26 is_stmt 1 view .LVU378
 1460              	.LBE954:
 1461              	.LBE953:
 1462              	.LBB992:
 1463              	.LBB702:
 1464              	.LBB692:
 1465              	.LBB682:
 1466              		.loc 6 228 34 is_stmt 0 view .LVU379
 1467 02e0 2523     		movs	r3, #37
 1468 02e2 07E0     		b	.L60
 1469              	.LVL91:
 1470              	.L159:
 1471              		.loc 6 228 34 view .LVU380
 1472              	.LBE682:
 1473              	.LBE692:
 1474              	.LBE702:
 1475              	.LBE992:
 1476              	.LBB993:
 1477              	.LBB990:
 1478              	.LBB962:
 1479              	.LBB963:
 1480              	.LBB964:
 244:../../libdaisy/src/dev/oled_ssd130x.h ****         else
ARM GAS  C:\Users\VINCIU~1\AppData\Local\Temp\ccdS0pnQ.s 			page 45


 1481              		.loc 5 244 42 view .LVU381
 1482 02e4 9CF85770 		ldrb	r7, [ip, #87]	@ zero_extendqisi2
 1483              	.LBE964:
 1484              	.LBE963:
 1485              	.LBE962:
 212:../../libdaisy/src/hid/disp/display.h ****             }
 1486              		.loc 6 212 20 view .LVU382
 1487 02e8 0133     		adds	r3, r3, #1
 1488              	.LVL92:
 1489              	.LBB984:
 1490              	.LBB979:
 1491              	.LBB974:
 244:../../libdaisy/src/dev/oled_ssd130x.h ****         else
 1492              		.loc 5 244 42 view .LVU383
 1493 02ea 3943     		orrs	r1, r1, r7
 1494              	.LBE974:
 1495              	.LBE979:
 1496              	.LBE984:
 199:../../libdaisy/src/hid/disp/display.h ****         {
 1497              		.loc 6 199 26 view .LVU384
 1498 02ec 342B     		cmp	r3, #52
 1499              	.LBB985:
 1500              	.LBB980:
 1501              	.LBB975:
 244:../../libdaisy/src/dev/oled_ssd130x.h ****         else
 1502              		.loc 5 244 42 view .LVU385
 1503 02ee 8CF85710 		strb	r1, [ip, #87]
 1504              	.LVL93:
 244:../../libdaisy/src/dev/oled_ssd130x.h ****         else
 1505              		.loc 5 244 42 view .LVU386
 1506              	.LBE975:
 1507              	.LBE980:
 1508              	.LBE985:
 199:../../libdaisy/src/hid/disp/display.h ****         {
 1509              		.loc 6 199 26 is_stmt 1 view .LVU387
 1510 02f2 16D0     		beq	.L158
 1511              	.LVL94:
 1512              	.L60:
 1513              	.LBB986:
 1514              	.LBI962:
  41:../../libdaisy/src/hid/disp/oled_display.h ****     {
 1515              		.loc 1 41 10 view .LVU388
 1516              	.LBB981:
 1517              	.LBI963:
 239:../../libdaisy/src/dev/oled_ssd130x.h ****     {
 1518              		.loc 5 239 10 view .LVU389
 1519              	.LBB976:
 1520              	.LBB965:
 1521              	.LBI965:
 239:../../libdaisy/src/dev/oled_ssd130x.h ****     {
 1522              		.loc 5 239 10 view .LVU390
 239:../../libdaisy/src/dev/oled_ssd130x.h ****     {
 1523              		.loc 5 239 10 is_stmt 0 view .LVU391
 1524              	.LBE965:
 244:../../libdaisy/src/dev/oled_ssd130x.h ****         else
 1525              		.loc 5 244 48 view .LVU392
 1526 02f4 0121     		movs	r1, #1
ARM GAS  C:\Users\VINCIU~1\AppData\Local\Temp\ccdS0pnQ.s 			page 46


 244:../../libdaisy/src/dev/oled_ssd130x.h ****         else
 1527              		.loc 5 244 28 view .LVU393
 1528 02f6 4FEAD30C 		lsr	ip, r3, #3
 244:../../libdaisy/src/dev/oled_ssd130x.h ****         else
 1529              		.loc 5 244 54 view .LVU394
 1530 02fa 03F00708 		and	r8, r3, #7
 1531              	.LBB970:
 1532              	.LBB966:
 246:../../libdaisy/src/dev/oled_ssd130x.h ****     }
 1533              		.loc 5 246 49 view .LVU395
 1534 02fe 8E46     		mov	lr, r1
 1535              	.LBE966:
 1536              	.LBE970:
 244:../../libdaisy/src/dev/oled_ssd130x.h ****         else
 1537              		.loc 5 244 42 view .LVU396
 1538 0300 04EBCC1C 		add	ip, r4, ip, lsl #7
 244:../../libdaisy/src/dev/oled_ssd130x.h ****         else
 1539              		.loc 5 244 48 view .LVU397
 1540 0304 01FA08F1 		lsl	r1, r1, r8
 243:../../libdaisy/src/dev/oled_ssd130x.h ****             buffer_[x + (y / 8) * width] |= (1 << (y % 8));
 1541              		.loc 5 243 9 view .LVU398
 1542 0308 0028     		cmp	r0, #0
 1543 030a EBD1     		bne	.L159
 1544              	.LBB971:
 1545              	.LBB967:
 246:../../libdaisy/src/dev/oled_ssd130x.h ****     }
 1546              		.loc 5 246 42 view .LVU399
 1547 030c 9CF85710 		ldrb	r1, [ip, #87]	@ zero_extendqisi2
 246:../../libdaisy/src/dev/oled_ssd130x.h ****     }
 1548              		.loc 5 246 49 view .LVU400
 1549 0310 0EFA08FE 		lsl	lr, lr, r8
 1550              	.LBE967:
 1551              	.LBE971:
 1552              	.LBE976:
 1553              	.LBE981:
 1554              	.LBE986:
 212:../../libdaisy/src/hid/disp/display.h ****             }
 1555              		.loc 6 212 20 view .LVU401
 1556 0314 0133     		adds	r3, r3, #1
 1557              	.LVL95:
 1558              	.LBB987:
 1559              	.LBB982:
 1560              	.LBB977:
 1561              	.LBB972:
 1562              	.LBB968:
 246:../../libdaisy/src/dev/oled_ssd130x.h ****     }
 1563              		.loc 5 246 42 view .LVU402
 1564 0316 21EA0E0E 		bic	lr, r1, lr
 1565              	.LBE968:
 1566              	.LBE972:
 1567              	.LBE977:
 1568              	.LBE982:
 1569              	.LBE987:
 199:../../libdaisy/src/hid/disp/display.h ****         {
 1570              		.loc 6 199 26 view .LVU403
 1571 031a 342B     		cmp	r3, #52
 1572              	.LBB988:
ARM GAS  C:\Users\VINCIU~1\AppData\Local\Temp\ccdS0pnQ.s 			page 47


 1573              	.LBB983:
 1574              	.LBB978:
 1575              	.LBB973:
 1576              	.LBB969:
 246:../../libdaisy/src/dev/oled_ssd130x.h ****     }
 1577              		.loc 5 246 42 view .LVU404
 1578 031c 8CF857E0 		strb	lr, [ip, #87]
 1579              	.LVL96:
 246:../../libdaisy/src/dev/oled_ssd130x.h ****     }
 1580              		.loc 5 246 42 view .LVU405
 1581              	.LBE969:
 1582              	.LBE973:
 1583              	.LBE978:
 1584              	.LBE983:
 1585              	.LBE988:
 199:../../libdaisy/src/hid/disp/display.h ****         {
 1586              		.loc 6 199 26 is_stmt 1 view .LVU406
 1587 0320 E8D1     		bne	.L60
 1588              	.L158:
 1589              	.LVL97:
 199:../../libdaisy/src/hid/disp/display.h ****         {
 1590              		.loc 6 199 26 is_stmt 0 view .LVU407
 1591              	.LBE990:
 1592              	.LBE993:
 143:Menus.cpp     ****     screen.DrawLine(screen.Width()/2-10+13,37,screen.Width()/2-10+16,52,!colorTemplate);
 1593              		.loc 2 143 5 is_stmt 1 view .LVU408
 1594              	.LBB994:
 1595              	.LBI994:
 181:../../libdaisy/src/hid/disp/display.h ****                   uint_fast8_t y1,
 1596              		.loc 6 181 10 view .LVU409
 1597              	.LBB995:
 1598              	.LBB996:
 1599              	.LBI996:
  41:../../libdaisy/src/hid/disp/oled_display.h ****     {
 1600              		.loc 1 41 10 view .LVU410
 1601              	.LBB997:
 1602              	.LBI997:
 239:../../libdaisy/src/dev/oled_ssd130x.h ****     {
 1603              		.loc 5 239 10 view .LVU411
 1604              	.LBB998:
 244:../../libdaisy/src/dev/oled_ssd130x.h ****         else
 1605              		.loc 5 244 42 is_stmt 0 view .LVU412
 1606 0322 94F85A13 		ldrb	r1, [r4, #858]	@ zero_extendqisi2
 243:../../libdaisy/src/dev/oled_ssd130x.h ****             buffer_[x + (y / 8) * width] |= (1 << (y % 8));
 1607              		.loc 5 243 9 view .LVU413
 1608 0326 0028     		cmp	r0, #0
 1609 0328 00F04C82 		beq	.L61
 1610              	.LVL98:
 244:../../libdaisy/src/dev/oled_ssd130x.h ****         else
 1611              		.loc 5 244 42 view .LVU414
 1612 032c 41F01001 		orr	r1, r1, #16
 1613              	.LVL99:
 1614              	.L62:
 244:../../libdaisy/src/dev/oled_ssd130x.h ****         else
 1615              		.loc 5 244 42 view .LVU415
 1616              	.LBE998:
 1617              	.LBE997:
ARM GAS  C:\Users\VINCIU~1\AppData\Local\Temp\ccdS0pnQ.s 			page 48


 1618              	.LBE996:
 1619              	.LBE995:
 1620              	.LBE994:
 1621              	.LBB1019:
 1622              	.LBB703:
 1623              	.LBB693:
 1624              	.LBB683:
 1625              		.loc 6 228 34 view .LVU416
 1626 0330 6FF00B0E 		mvn	lr, #11
 1627 0334 4FF0430C 		mov	ip, #67
 1628 0338 84F85A13 		strb	r1, [r4, #858]
 1629              	.LVL100:
 1630              		.loc 6 228 34 view .LVU417
 1631              	.LBE683:
 1632              	.LBE693:
 1633              	.LBE703:
 1634              	.LBE1019:
 1635              	.LBB1020:
 1636              	.LBB1016:
 199:../../libdaisy/src/hid/disp/display.h ****         {
 1637              		.loc 6 199 26 is_stmt 1 view .LVU418
 1638              	.L63:
 1639              	.LBB1003:
 1640              	.LBI1003:
  41:../../libdaisy/src/hid/disp/oled_display.h ****     {
 1641              		.loc 1 41 10 view .LVU419
 1642              	.LBB1004:
 1643              	.LBI1004:
 239:../../libdaisy/src/dev/oled_ssd130x.h ****     {
 1644              		.loc 5 239 10 view .LVU420
 1645              	.LBB1005:
 241:../../libdaisy/src/dev/oled_ssd130x.h ****             return;
 1646              		.loc 5 241 9 is_stmt 0 view .LVU421
 1647 033c BCF17F0F 		cmp	ip, #127
 1648 0340 15D8     		bhi	.L66
 1649 0342 3F2A     		cmp	r2, #63
 1650 0344 13D8     		bhi	.L66
 1651              	.LVL101:
 1652              	.LBB1006:
 1653              	.LBI1006:
 239:../../libdaisy/src/dev/oled_ssd130x.h ****     {
 1654              		.loc 5 239 10 is_stmt 1 view .LVU422
 1655              	.LBB1007:
 246:../../libdaisy/src/dev/oled_ssd130x.h ****     }
 1656              		.loc 5 246 28 is_stmt 0 view .LVU423
 1657 0346 D108     		lsrs	r1, r2, #3
 246:../../libdaisy/src/dev/oled_ssd130x.h ****     }
 1658              		.loc 5 246 55 view .LVU424
 1659 0348 02F00708 		and	r8, r2, #7
 1660              	.LBE1007:
 1661              	.LBE1006:
 244:../../libdaisy/src/dev/oled_ssd130x.h ****         else
 1662              		.loc 5 244 48 view .LVU425
 1663 034c 4FF0010A 		mov	r10, #1
 1664              	.LBB1010:
 1665              	.LBB1008:
 246:../../libdaisy/src/dev/oled_ssd130x.h ****     }
ARM GAS  C:\Users\VINCIU~1\AppData\Local\Temp\ccdS0pnQ.s 			page 49


 1666              		.loc 5 246 42 view .LVU426
 1667 0350 0CEBC111 		add	r1, ip, r1, lsl #7
 1668              	.LBE1008:
 1669              	.LBE1010:
 244:../../libdaisy/src/dev/oled_ssd130x.h ****         else
 1670              		.loc 5 244 48 view .LVU427
 1671 0354 0AFA08F9 		lsl	r9, r10, r8
 244:../../libdaisy/src/dev/oled_ssd130x.h ****         else
 1672              		.loc 5 244 42 view .LVU428
 1673 0358 0F46     		mov	r7, r1
 1674 035a 2744     		add	r7, r7, r4
 243:../../libdaisy/src/dev/oled_ssd130x.h ****             buffer_[x + (y / 8) * width] |= (1 << (y % 8));
 1675              		.loc 5 243 9 view .LVU429
 1676 035c 0028     		cmp	r0, #0
 1677 035e 00F0E881 		beq	.L67
 244:../../libdaisy/src/dev/oled_ssd130x.h ****         else
 1678              		.loc 5 244 42 view .LVU430
 1679 0362 97F814A0 		ldrb	r10, [r7, #20]	@ zero_extendqisi2
 1680 0366 49EA0A09 		orr	r9, r9, r10
 1681 036a 87F81490 		strb	r9, [r7, #20]
 1682              	.LVL102:
 1683              	.L66:
 244:../../libdaisy/src/dev/oled_ssd130x.h ****         else
 1684              		.loc 5 244 42 view .LVU431
 1685              	.LBE1005:
 1686              	.LBE1004:
 1687              	.LBE1003:
 202:../../libdaisy/src/hid/disp/display.h ****             if(error2 > -deltaY)
 1688              		.loc 6 202 20 view .LVU432
 1689 036e 4FEA4E01 		lsl	r1, lr, #1
 1690              	.LVL103:
 203:../../libdaisy/src/hid/disp/display.h ****             {
 1691              		.loc 6 203 13 view .LVU433
 1692 0372 11F10E0F 		cmn	r1, #14
 1693 0376 C0F2D881 		blt	.L68
 209:../../libdaisy/src/hid/disp/display.h ****             {
 1694              		.loc 6 209 13 view .LVU434
 1695 037a 0229     		cmp	r1, #2
 206:../../libdaisy/src/hid/disp/display.h ****             }
 1696              		.loc 6 206 20 view .LVU435
 1697 037c 0CF1010C 		add	ip, ip, #1
 1698              	.LVL104:
 205:../../libdaisy/src/hid/disp/display.h ****                 x1 += signX;
 1699              		.loc 6 205 23 view .LVU436
 1700 0380 AEF10F0E 		sub	lr, lr, #15
 1701              	.LVL105:
 209:../../libdaisy/src/hid/disp/display.h ****             {
 1702              		.loc 6 209 13 view .LVU437
 1703 0384 40F3D181 		ble	.L68
 1704              	.L69:
 199:../../libdaisy/src/hid/disp/display.h ****         {
 1705              		.loc 6 199 26 is_stmt 1 view .LVU438
 1706 0388 BCF1460F 		cmp	ip, #70
 1707 038c D6D1     		bne	.L63
 199:../../libdaisy/src/hid/disp/display.h ****         {
 1708              		.loc 6 199 26 is_stmt 0 view .LVU439
 1709 038e 342A     		cmp	r2, #52
ARM GAS  C:\Users\VINCIU~1\AppData\Local\Temp\ccdS0pnQ.s 			page 50


 1710 0390 D4D1     		bne	.L63
 1711              	.LVL106:
 199:../../libdaisy/src/hid/disp/display.h ****         {
 1712              		.loc 6 199 26 view .LVU440
 1713              	.LBE1016:
 1714              	.LBE1020:
 144:Menus.cpp     ****     screen.DrawLine(screen.Width()/2-10+16,52,screen.Width()/2-10+16,37,!colorTemplate);
 1715              		.loc 2 144 5 is_stmt 1 view .LVU441
 1716              	.LBB1021:
 1717              	.LBI1021:
 181:../../libdaisy/src/hid/disp/display.h ****                   uint_fast8_t y1,
 1718              		.loc 6 181 10 view .LVU442
 1719              	.LBB1022:
 1720              	.LBB1023:
 1721              	.LBI1023:
  41:../../libdaisy/src/hid/disp/oled_display.h ****     {
 1722              		.loc 1 41 10 view .LVU443
 1723              	.LBB1024:
 1724              	.LBI1024:
 239:../../libdaisy/src/dev/oled_ssd130x.h ****     {
 1725              		.loc 5 239 10 view .LVU444
 1726              	.LBB1025:
 244:../../libdaisy/src/dev/oled_ssd130x.h ****         else
 1727              		.loc 5 244 42 is_stmt 0 view .LVU445
 1728 0392 94F85A22 		ldrb	r2, [r4, #602]	@ zero_extendqisi2
 243:../../libdaisy/src/dev/oled_ssd130x.h ****             buffer_[x + (y / 8) * width] |= (1 << (y % 8));
 1729              		.loc 5 243 9 view .LVU446
 1730 0396 0028     		cmp	r0, #0
 1731 0398 00F01182 		beq	.L70
 244:../../libdaisy/src/dev/oled_ssd130x.h ****         else
 1732              		.loc 5 244 42 view .LVU447
 1733 039c 42F02002 		orr	r2, r2, #32
 1734              	.L71:
 244:../../libdaisy/src/dev/oled_ssd130x.h ****         else
 1735              		.loc 5 244 42 view .LVU448
 1736 03a0 84F85A22 		strb	r2, [r4, #602]
 1737              	.LVL107:
 244:../../libdaisy/src/dev/oled_ssd130x.h ****         else
 1738              		.loc 5 244 42 view .LVU449
 1739              	.LBE1025:
 1740              	.LBE1024:
 1741              	.LBE1023:
 199:../../libdaisy/src/hid/disp/display.h ****         {
 1742              		.loc 6 199 26 is_stmt 1 view .LVU450
 1743              	.LBE1022:
 1744              	.LBE1021:
 1745              	.LBB1060:
 1746              	.LBB704:
 1747              	.LBB694:
 1748              	.LBB684:
 1749              		.loc 6 228 34 is_stmt 0 view .LVU451
 1750 03a4 3422     		movs	r2, #52
 1751 03a6 07E0     		b	.L74
 1752              	.LVL108:
 1753              	.L161:
 1754              		.loc 6 228 34 view .LVU452
 1755              	.LBE684:
ARM GAS  C:\Users\VINCIU~1\AppData\Local\Temp\ccdS0pnQ.s 			page 51


 1756              	.LBE694:
 1757              	.LBE704:
 1758              	.LBE1060:
 1759              	.LBB1061:
 1760              	.LBB1058:
 1761              	.LBB1030:
 1762              	.LBB1031:
 1763              	.LBB1032:
 244:../../libdaisy/src/dev/oled_ssd130x.h ****         else
 1764              		.loc 5 244 42 view .LVU453
 1765 03a8 9CF85A70 		ldrb	r7, [ip, #90]	@ zero_extendqisi2
 1766              	.LBE1032:
 1767              	.LBE1031:
 1768              	.LBE1030:
 212:../../libdaisy/src/hid/disp/display.h ****             }
 1769              		.loc 6 212 20 view .LVU454
 1770 03ac 013A     		subs	r2, r2, #1
 1771              	.LVL109:
 1772              	.LBB1052:
 1773              	.LBB1047:
 1774              	.LBB1042:
 244:../../libdaisy/src/dev/oled_ssd130x.h ****         else
 1775              		.loc 5 244 42 view .LVU455
 1776 03ae 3943     		orrs	r1, r1, r7
 1777              	.LBE1042:
 1778              	.LBE1047:
 1779              	.LBE1052:
 199:../../libdaisy/src/hid/disp/display.h ****         {
 1780              		.loc 6 199 26 view .LVU456
 1781 03b0 252A     		cmp	r2, #37
 1782              	.LBB1053:
 1783              	.LBB1048:
 1784              	.LBB1043:
 244:../../libdaisy/src/dev/oled_ssd130x.h ****         else
 1785              		.loc 5 244 42 view .LVU457
 1786 03b2 8CF85A10 		strb	r1, [ip, #90]
 1787              	.LVL110:
 244:../../libdaisy/src/dev/oled_ssd130x.h ****         else
 1788              		.loc 5 244 42 view .LVU458
 1789              	.LBE1043:
 1790              	.LBE1048:
 1791              	.LBE1053:
 199:../../libdaisy/src/hid/disp/display.h ****         {
 1792              		.loc 6 199 26 is_stmt 1 view .LVU459
 1793 03b6 16D0     		beq	.L160
 1794              	.LVL111:
 1795              	.L74:
 1796              	.LBB1054:
 1797              	.LBI1030:
  41:../../libdaisy/src/hid/disp/oled_display.h ****     {
 1798              		.loc 1 41 10 view .LVU460
 1799              	.LBB1049:
 1800              	.LBI1031:
 239:../../libdaisy/src/dev/oled_ssd130x.h ****     {
 1801              		.loc 5 239 10 view .LVU461
 1802              	.LBB1044:
 1803              	.LBB1033:
ARM GAS  C:\Users\VINCIU~1\AppData\Local\Temp\ccdS0pnQ.s 			page 52


 1804              	.LBI1033:
 239:../../libdaisy/src/dev/oled_ssd130x.h ****     {
 1805              		.loc 5 239 10 view .LVU462
 239:../../libdaisy/src/dev/oled_ssd130x.h ****     {
 1806              		.loc 5 239 10 is_stmt 0 view .LVU463
 1807              	.LBE1033:
 244:../../libdaisy/src/dev/oled_ssd130x.h ****         else
 1808              		.loc 5 244 48 view .LVU464
 1809 03b8 0121     		movs	r1, #1
 244:../../libdaisy/src/dev/oled_ssd130x.h ****         else
 1810              		.loc 5 244 28 view .LVU465
 1811 03ba 4FEAD20C 		lsr	ip, r2, #3
 244:../../libdaisy/src/dev/oled_ssd130x.h ****         else
 1812              		.loc 5 244 54 view .LVU466
 1813 03be 02F00708 		and	r8, r2, #7
 1814              	.LBB1038:
 1815              	.LBB1034:
 246:../../libdaisy/src/dev/oled_ssd130x.h ****     }
 1816              		.loc 5 246 49 view .LVU467
 1817 03c2 8E46     		mov	lr, r1
 1818              	.LBE1034:
 1819              	.LBE1038:
 244:../../libdaisy/src/dev/oled_ssd130x.h ****         else
 1820              		.loc 5 244 42 view .LVU468
 1821 03c4 04EBCC1C 		add	ip, r4, ip, lsl #7
 244:../../libdaisy/src/dev/oled_ssd130x.h ****         else
 1822              		.loc 5 244 48 view .LVU469
 1823 03c8 01FA08F1 		lsl	r1, r1, r8
 243:../../libdaisy/src/dev/oled_ssd130x.h ****             buffer_[x + (y / 8) * width] |= (1 << (y % 8));
 1824              		.loc 5 243 9 view .LVU470
 1825 03cc 0028     		cmp	r0, #0
 1826 03ce EBD1     		bne	.L161
 1827              	.LBB1039:
 1828              	.LBB1035:
 246:../../libdaisy/src/dev/oled_ssd130x.h ****     }
 1829              		.loc 5 246 42 view .LVU471
 1830 03d0 9CF85A10 		ldrb	r1, [ip, #90]	@ zero_extendqisi2
 246:../../libdaisy/src/dev/oled_ssd130x.h ****     }
 1831              		.loc 5 246 49 view .LVU472
 1832 03d4 0EFA08FE 		lsl	lr, lr, r8
 1833              	.LBE1035:
 1834              	.LBE1039:
 1835              	.LBE1044:
 1836              	.LBE1049:
 1837              	.LBE1054:
 212:../../libdaisy/src/hid/disp/display.h ****             }
 1838              		.loc 6 212 20 view .LVU473
 1839 03d8 013A     		subs	r2, r2, #1
 1840              	.LVL112:
 1841              	.LBB1055:
 1842              	.LBB1050:
 1843              	.LBB1045:
 1844              	.LBB1040:
 1845              	.LBB1036:
 246:../../libdaisy/src/dev/oled_ssd130x.h ****     }
 1846              		.loc 5 246 42 view .LVU474
 1847 03da 21EA0E0E 		bic	lr, r1, lr
ARM GAS  C:\Users\VINCIU~1\AppData\Local\Temp\ccdS0pnQ.s 			page 53


 1848              	.LBE1036:
 1849              	.LBE1040:
 1850              	.LBE1045:
 1851              	.LBE1050:
 1852              	.LBE1055:
 199:../../libdaisy/src/hid/disp/display.h ****         {
 1853              		.loc 6 199 26 view .LVU475
 1854 03de 252A     		cmp	r2, #37
 1855              	.LBB1056:
 1856              	.LBB1051:
 1857              	.LBB1046:
 1858              	.LBB1041:
 1859              	.LBB1037:
 246:../../libdaisy/src/dev/oled_ssd130x.h ****     }
 1860              		.loc 5 246 42 view .LVU476
 1861 03e0 8CF85AE0 		strb	lr, [ip, #90]
 1862              	.LVL113:
 246:../../libdaisy/src/dev/oled_ssd130x.h ****     }
 1863              		.loc 5 246 42 view .LVU477
 1864              	.LBE1037:
 1865              	.LBE1041:
 1866              	.LBE1046:
 1867              	.LBE1051:
 1868              	.LBE1056:
 199:../../libdaisy/src/hid/disp/display.h ****         {
 1869              		.loc 6 199 26 is_stmt 1 view .LVU478
 1870 03e4 E8D1     		bne	.L74
 1871              	.L160:
 1872              	.LVL114:
 199:../../libdaisy/src/hid/disp/display.h ****         {
 1873              		.loc 6 199 26 is_stmt 0 view .LVU479
 1874              	.LBE1058:
 1875              	.LBE1061:
 145:Menus.cpp     ****     //I
 146:Menus.cpp     ****     screen.DrawLine(screen.Width()/2-10+18,52,screen.Width()/2-10+18,37,!colorTemplate);
 1876              		.loc 2 146 5 is_stmt 1 view .LVU480
 1877              	.LBB1062:
 1878              	.LBI1062:
 181:../../libdaisy/src/hid/disp/display.h ****                   uint_fast8_t y1,
 1879              		.loc 6 181 10 view .LVU481
 1880              	.LBB1063:
 1881              	.LBB1064:
 1882              	.LBI1064:
  41:../../libdaisy/src/hid/disp/oled_display.h ****     {
 1883              		.loc 1 41 10 view .LVU482
 1884              	.LBB1065:
 1885              	.LBI1065:
 239:../../libdaisy/src/dev/oled_ssd130x.h ****     {
 1886              		.loc 5 239 10 view .LVU483
 1887              	.LBB1066:
 244:../../libdaisy/src/dev/oled_ssd130x.h ****         else
 1888              		.loc 5 244 42 is_stmt 0 view .LVU484
 1889 03e6 94F85C22 		ldrb	r2, [r4, #604]	@ zero_extendqisi2
 243:../../libdaisy/src/dev/oled_ssd130x.h ****             buffer_[x + (y / 8) * width] |= (1 << (y % 8));
 1890              		.loc 5 243 9 view .LVU485
 1891 03ea 0028     		cmp	r0, #0
 1892 03ec 00F0ED81 		beq	.L75
ARM GAS  C:\Users\VINCIU~1\AppData\Local\Temp\ccdS0pnQ.s 			page 54


 1893              	.LVL115:
 244:../../libdaisy/src/dev/oled_ssd130x.h ****         else
 1894              		.loc 5 244 42 view .LVU486
 1895 03f0 42F02002 		orr	r2, r2, #32
 1896              	.LVL116:
 1897              	.L76:
 244:../../libdaisy/src/dev/oled_ssd130x.h ****         else
 1898              		.loc 5 244 42 view .LVU487
 1899 03f4 84F85C22 		strb	r2, [r4, #604]
 1900              	.LVL117:
 244:../../libdaisy/src/dev/oled_ssd130x.h ****         else
 1901              		.loc 5 244 42 view .LVU488
 1902              	.LBE1066:
 1903              	.LBE1065:
 1904              	.LBE1064:
 199:../../libdaisy/src/hid/disp/display.h ****         {
 1905              		.loc 6 199 26 is_stmt 1 view .LVU489
 1906 03f8 07E0     		b	.L79
 1907              	.LVL118:
 1908              	.L163:
 1909              	.LBB1071:
 1910              	.LBB1072:
 1911              	.LBB1073:
 244:../../libdaisy/src/dev/oled_ssd130x.h ****         else
 1912              		.loc 5 244 42 is_stmt 0 view .LVU490
 1913 03fa 97F85C10 		ldrb	r1, [r7, #92]	@ zero_extendqisi2
 1914              	.LBE1073:
 1915              	.LBE1072:
 1916              	.LBE1071:
 212:../../libdaisy/src/hid/disp/display.h ****             }
 1917              		.loc 6 212 20 view .LVU491
 1918 03fe 013B     		subs	r3, r3, #1
 1919              	.LVL119:
 1920              	.LBB1093:
 1921              	.LBB1088:
 1922              	.LBB1083:
 244:../../libdaisy/src/dev/oled_ssd130x.h ****         else
 1923              		.loc 5 244 42 view .LVU492
 1924 0400 0A43     		orrs	r2, r2, r1
 1925              	.LBE1083:
 1926              	.LBE1088:
 1927              	.LBE1093:
 199:../../libdaisy/src/hid/disp/display.h ****         {
 1928              		.loc 6 199 26 view .LVU493
 1929 0402 252B     		cmp	r3, #37
 1930              	.LBB1094:
 1931              	.LBB1089:
 1932              	.LBB1084:
 244:../../libdaisy/src/dev/oled_ssd130x.h ****         else
 1933              		.loc 5 244 42 view .LVU494
 1934 0404 87F85C20 		strb	r2, [r7, #92]
 1935              	.LVL120:
 244:../../libdaisy/src/dev/oled_ssd130x.h ****         else
 1936              		.loc 5 244 42 view .LVU495
 1937              	.LBE1084:
 1938              	.LBE1089:
 1939              	.LBE1094:
ARM GAS  C:\Users\VINCIU~1\AppData\Local\Temp\ccdS0pnQ.s 			page 55


 199:../../libdaisy/src/hid/disp/display.h ****         {
 1940              		.loc 6 199 26 is_stmt 1 view .LVU496
 1941 0408 15D0     		beq	.L162
 1942              	.LVL121:
 1943              	.L79:
 1944              	.LBB1095:
 1945              	.LBI1071:
  41:../../libdaisy/src/hid/disp/oled_display.h ****     {
 1946              		.loc 1 41 10 view .LVU497
 1947              	.LBB1090:
 1948              	.LBI1072:
 239:../../libdaisy/src/dev/oled_ssd130x.h ****     {
 1949              		.loc 5 239 10 view .LVU498
 1950              	.LBB1085:
 1951              	.LBB1074:
 1952              	.LBI1074:
 239:../../libdaisy/src/dev/oled_ssd130x.h ****     {
 1953              		.loc 5 239 10 view .LVU499
 239:../../libdaisy/src/dev/oled_ssd130x.h ****     {
 1954              		.loc 5 239 10 is_stmt 0 view .LVU500
 1955              	.LBE1074:
 244:../../libdaisy/src/dev/oled_ssd130x.h ****         else
 1956              		.loc 5 244 48 view .LVU501
 1957 040a 0122     		movs	r2, #1
 244:../../libdaisy/src/dev/oled_ssd130x.h ****         else
 1958              		.loc 5 244 28 view .LVU502
 1959 040c DF08     		lsrs	r7, r3, #3
 244:../../libdaisy/src/dev/oled_ssd130x.h ****         else
 1960              		.loc 5 244 54 view .LVU503
 1961 040e 03F0070E 		and	lr, r3, #7
 1962              	.LBB1079:
 1963              	.LBB1075:
 246:../../libdaisy/src/dev/oled_ssd130x.h ****     }
 1964              		.loc 5 246 49 view .LVU504
 1965 0412 9446     		mov	ip, r2
 1966              	.LBE1075:
 1967              	.LBE1079:
 244:../../libdaisy/src/dev/oled_ssd130x.h ****         else
 1968              		.loc 5 244 42 view .LVU505
 1969 0414 04EBC717 		add	r7, r4, r7, lsl #7
 244:../../libdaisy/src/dev/oled_ssd130x.h ****         else
 1970              		.loc 5 244 48 view .LVU506
 1971 0418 02FA0EF2 		lsl	r2, r2, lr
 243:../../libdaisy/src/dev/oled_ssd130x.h ****             buffer_[x + (y / 8) * width] |= (1 << (y % 8));
 1972              		.loc 5 243 9 view .LVU507
 1973 041c 0028     		cmp	r0, #0
 1974 041e ECD1     		bne	.L163
 1975              	.LBB1080:
 1976              	.LBB1076:
 246:../../libdaisy/src/dev/oled_ssd130x.h ****     }
 1977              		.loc 5 246 42 view .LVU508
 1978 0420 97F85C20 		ldrb	r2, [r7, #92]	@ zero_extendqisi2
 246:../../libdaisy/src/dev/oled_ssd130x.h ****     }
 1979              		.loc 5 246 49 view .LVU509
 1980 0424 0CFA0EFC 		lsl	ip, ip, lr
 1981              	.LBE1076:
 1982              	.LBE1080:
ARM GAS  C:\Users\VINCIU~1\AppData\Local\Temp\ccdS0pnQ.s 			page 56


 1983              	.LBE1085:
 1984              	.LBE1090:
 1985              	.LBE1095:
 212:../../libdaisy/src/hid/disp/display.h ****             }
 1986              		.loc 6 212 20 view .LVU510
 1987 0428 013B     		subs	r3, r3, #1
 1988              	.LVL122:
 1989              	.LBB1096:
 1990              	.LBB1091:
 1991              	.LBB1086:
 1992              	.LBB1081:
 1993              	.LBB1077:
 246:../../libdaisy/src/dev/oled_ssd130x.h ****     }
 1994              		.loc 5 246 42 view .LVU511
 1995 042a 22EA0C0C 		bic	ip, r2, ip
 1996              	.LBE1077:
 1997              	.LBE1081:
 1998              	.LBE1086:
 1999              	.LBE1091:
 2000              	.LBE1096:
 199:../../libdaisy/src/hid/disp/display.h ****         {
 2001              		.loc 6 199 26 view .LVU512
 2002 042e 252B     		cmp	r3, #37
 2003              	.LBB1097:
 2004              	.LBB1092:
 2005              	.LBB1087:
 2006              	.LBB1082:
 2007              	.LBB1078:
 246:../../libdaisy/src/dev/oled_ssd130x.h ****     }
 2008              		.loc 5 246 42 view .LVU513
 2009 0430 87F85CC0 		strb	ip, [r7, #92]
 2010              	.LVL123:
 246:../../libdaisy/src/dev/oled_ssd130x.h ****     }
 2011              		.loc 5 246 42 view .LVU514
 2012              	.LBE1078:
 2013              	.LBE1082:
 2014              	.LBE1087:
 2015              	.LBE1092:
 2016              	.LBE1097:
 199:../../libdaisy/src/hid/disp/display.h ****         {
 2017              		.loc 6 199 26 is_stmt 1 view .LVU515
 2018 0434 E9D1     		bne	.L79
 2019              	.L162:
 2020              	.LVL124:
 199:../../libdaisy/src/hid/disp/display.h ****         {
 2021              		.loc 6 199 26 is_stmt 0 view .LVU516
 2022              	.LBE1063:
 2023              	.LBE1062:
 147:Menus.cpp     ****     
 148:Menus.cpp     ****     //S
 149:Menus.cpp     ****     screen.DrawLine(screen.Width()/2-10+20,37,screen.Width()/2-10+22,37,!colorTemplate);
 2024              		.loc 2 149 5 is_stmt 1 view .LVU517
 2025              	.LBB1100:
 2026              	.LBI1100:
 181:../../libdaisy/src/hid/disp/display.h ****                   uint_fast8_t y1,
 2027              		.loc 6 181 10 view .LVU518
 2028              	.LBB1101:
ARM GAS  C:\Users\VINCIU~1\AppData\Local\Temp\ccdS0pnQ.s 			page 57


 2029              	.LBB1102:
 2030              	.LBI1102:
  41:../../libdaisy/src/hid/disp/oled_display.h ****     {
 2031              		.loc 1 41 10 view .LVU519
 2032              	.LBB1103:
 2033              	.LBI1103:
 239:../../libdaisy/src/dev/oled_ssd130x.h ****     {
 2034              		.loc 5 239 10 view .LVU520
 2035              	.LBB1104:
 244:../../libdaisy/src/dev/oled_ssd130x.h ****         else
 2036              		.loc 5 244 42 is_stmt 0 view .LVU521
 2037 0436 94F86022 		ldrb	r2, [r4, #608]	@ zero_extendqisi2
 243:../../libdaisy/src/dev/oled_ssd130x.h ****             buffer_[x + (y / 8) * width] |= (1 << (y % 8));
 2038              		.loc 5 243 9 view .LVU522
 2039 043a 0028     		cmp	r0, #0
 2040 043c 00F0C881 		beq	.L80
 2041              	.LVL125:
 244:../../libdaisy/src/dev/oled_ssd130x.h ****         else
 2042              		.loc 5 244 42 view .LVU523
 2043 0440 42F02002 		orr	r2, r2, #32
 2044 0444 84F86022 		strb	r2, [r4, #608]
 2045              	.LVL126:
 244:../../libdaisy/src/dev/oled_ssd130x.h ****         else
 2046              		.loc 5 244 42 view .LVU524
 2047              	.LBE1104:
 2048              	.LBE1103:
 2049              	.LBE1102:
 199:../../libdaisy/src/hid/disp/display.h ****         {
 2050              		.loc 6 199 26 is_stmt 1 view .LVU525
 2051              	.LBB1109:
 2052              	.LBI1109:
  41:../../libdaisy/src/hid/disp/oled_display.h ****     {
 2053              		.loc 1 41 10 view .LVU526
 2054              	.LBB1110:
 2055              	.LBI1110:
 239:../../libdaisy/src/dev/oled_ssd130x.h ****     {
 2056              		.loc 5 239 10 view .LVU527
 2057              	.LBB1111:
 244:../../libdaisy/src/dev/oled_ssd130x.h ****         else
 2058              		.loc 5 244 42 is_stmt 0 view .LVU528
 2059 0448 94F85E22 		ldrb	r2, [r4, #606]	@ zero_extendqisi2
 2060 044c 42F02002 		orr	r2, r2, #32
 2061 0450 84F85E22 		strb	r2, [r4, #606]
 2062              	.LVL127:
 244:../../libdaisy/src/dev/oled_ssd130x.h ****         else
 2063              		.loc 5 244 42 view .LVU529
 2064              	.LBE1111:
 2065              	.LBE1110:
 2066              	.LBE1109:
 199:../../libdaisy/src/hid/disp/display.h ****         {
 2067              		.loc 6 199 26 is_stmt 1 view .LVU530
 2068              	.LBB1122:
  41:../../libdaisy/src/hid/disp/oled_display.h ****     {
 2069              		.loc 1 41 10 view .LVU531
 2070              	.LBB1119:
 239:../../libdaisy/src/dev/oled_ssd130x.h ****     {
 2071              		.loc 5 239 10 view .LVU532
ARM GAS  C:\Users\VINCIU~1\AppData\Local\Temp\ccdS0pnQ.s 			page 58


 2072              	.LBB1116:
 244:../../libdaisy/src/dev/oled_ssd130x.h ****         else
 2073              		.loc 5 244 42 is_stmt 0 view .LVU533
 2074 0454 94F85F22 		ldrb	r2, [r4, #607]	@ zero_extendqisi2
 2075 0458 42F02002 		orr	r2, r2, #32
 2076 045c 84F85F22 		strb	r2, [r4, #607]
 2077              	.LVL128:
 244:../../libdaisy/src/dev/oled_ssd130x.h ****         else
 2078              		.loc 5 244 42 view .LVU534
 2079              	.LBE1116:
 2080              	.LBE1119:
 2081              	.LBE1122:
 199:../../libdaisy/src/hid/disp/display.h ****         {
 2082              		.loc 6 199 26 is_stmt 1 view .LVU535
 199:../../libdaisy/src/hid/disp/display.h ****         {
 2083              		.loc 6 199 26 is_stmt 0 view .LVU536
 2084              	.LBE1101:
 2085              	.LBE1100:
 150:Menus.cpp     ****     screen.DrawLine(screen.Width()/2-10+20,37,screen.Width()/2-10+22,44,!colorTemplate);
 2086              		.loc 2 150 5 is_stmt 1 view .LVU537
 2087              	.LBB1127:
 2088              	.LBI1127:
 181:../../libdaisy/src/hid/disp/display.h ****                   uint_fast8_t y1,
 2089              		.loc 6 181 10 view .LVU538
 2090              	.LBB1128:
 2091              	.LBB1129:
 2092              	.LBI1129:
  41:../../libdaisy/src/hid/disp/oled_display.h ****     {
 2093              		.loc 1 41 10 view .LVU539
 2094              	.LBB1130:
 2095              	.LBI1130:
 239:../../libdaisy/src/dev/oled_ssd130x.h ****     {
 2096              		.loc 5 239 10 view .LVU540
 2097              	.LBB1131:
 244:../../libdaisy/src/dev/oled_ssd130x.h ****         else
 2098              		.loc 5 244 42 is_stmt 0 view .LVU541
 2099 0460 94F8E022 		ldrb	r2, [r4, #736]	@ zero_extendqisi2
 2100 0464 42F01002 		orr	r2, r2, #16
 2101              	.LVL129:
 2102              	.L81:
 244:../../libdaisy/src/dev/oled_ssd130x.h ****         else
 2103              		.loc 5 244 42 view .LVU542
 2104              	.LBE1131:
 2105              	.LBE1130:
 2106              	.LBE1129:
 2107              	.LBE1128:
 2108              	.LBE1127:
 2109              	.LBB1152:
 2110              	.LBB705:
 2111              	.LBB695:
 2112              	.LBB685:
 2113              		.loc 6 228 34 view .LVU543
 2114 0468 6FF0040C 		mvn	ip, #4
 2115 046c 4A27     		movs	r7, #74
 2116 046e 84F8E022 		strb	r2, [r4, #736]
 2117              	.LVL130:
 2118              		.loc 6 228 34 view .LVU544
ARM GAS  C:\Users\VINCIU~1\AppData\Local\Temp\ccdS0pnQ.s 			page 59


 2119              	.LBE685:
 2120              	.LBE695:
 2121              	.LBE705:
 2122              	.LBE1152:
 2123              	.LBB1153:
 2124              	.LBB1149:
 199:../../libdaisy/src/hid/disp/display.h ****         {
 2125              		.loc 6 199 26 is_stmt 1 view .LVU545
 2126              	.L82:
 2127              	.LBB1136:
 2128              	.LBI1136:
  41:../../libdaisy/src/hid/disp/oled_display.h ****     {
 2129              		.loc 1 41 10 view .LVU546
 2130              	.LBB1137:
 2131              	.LBI1137:
 239:../../libdaisy/src/dev/oled_ssd130x.h ****     {
 2132              		.loc 5 239 10 view .LVU547
 2133              	.LBB1138:
 241:../../libdaisy/src/dev/oled_ssd130x.h ****             return;
 2134              		.loc 5 241 9 is_stmt 0 view .LVU548
 2135 0472 7F2F     		cmp	r7, #127
 2136 0474 14D8     		bhi	.L85
 2137 0476 3F2B     		cmp	r3, #63
 2138 0478 12D8     		bhi	.L85
 2139              	.LVL131:
 2140              	.LBB1139:
 2141              	.LBI1139:
 239:../../libdaisy/src/dev/oled_ssd130x.h ****     {
 2142              		.loc 5 239 10 is_stmt 1 view .LVU549
 2143              	.LBB1140:
 246:../../libdaisy/src/dev/oled_ssd130x.h ****     }
 2144              		.loc 5 246 28 is_stmt 0 view .LVU550
 2145 047a DA08     		lsrs	r2, r3, #3
 246:../../libdaisy/src/dev/oled_ssd130x.h ****     }
 2146              		.loc 5 246 55 view .LVU551
 2147 047c 03F00708 		and	r8, r3, #7
 2148              	.LBE1140:
 2149              	.LBE1139:
 244:../../libdaisy/src/dev/oled_ssd130x.h ****         else
 2150              		.loc 5 244 48 view .LVU552
 2151 0480 4FF0010E 		mov	lr, #1
 2152              	.LBB1143:
 2153              	.LBB1141:
 246:../../libdaisy/src/dev/oled_ssd130x.h ****     }
 2154              		.loc 5 246 42 view .LVU553
 2155 0484 07EBC212 		add	r2, r7, r2, lsl #7
 2156              	.LBE1141:
 2157              	.LBE1143:
 244:../../libdaisy/src/dev/oled_ssd130x.h ****         else
 2158              		.loc 5 244 48 view .LVU554
 2159 0488 0EFA08FE 		lsl	lr, lr, r8
 244:../../libdaisy/src/dev/oled_ssd130x.h ****         else
 2160              		.loc 5 244 42 view .LVU555
 2161 048c 1146     		mov	r1, r2
 2162 048e 2144     		add	r1, r1, r4
 243:../../libdaisy/src/dev/oled_ssd130x.h ****             buffer_[x + (y / 8) * width] |= (1 << (y % 8));
 2163              		.loc 5 243 9 view .LVU556
ARM GAS  C:\Users\VINCIU~1\AppData\Local\Temp\ccdS0pnQ.s 			page 60


 2164 0490 0028     		cmp	r0, #0
 2165 0492 00F05D81 		beq	.L86
 244:../../libdaisy/src/dev/oled_ssd130x.h ****         else
 2166              		.loc 5 244 42 view .LVU557
 2167 0496 0A7D     		ldrb	r2, [r1, #20]	@ zero_extendqisi2
 2168 0498 4EEA020E 		orr	lr, lr, r2
 2169 049c 81F814E0 		strb	lr, [r1, #20]
 2170              	.LVL132:
 2171              	.L85:
 244:../../libdaisy/src/dev/oled_ssd130x.h ****         else
 2172              		.loc 5 244 42 view .LVU558
 2173              	.LBE1138:
 2174              	.LBE1137:
 2175              	.LBE1136:
 202:../../libdaisy/src/hid/disp/display.h ****             if(error2 > -deltaY)
 2176              		.loc 6 202 20 view .LVU559
 2177 04a0 4FEA4C02 		lsl	r2, ip, #1
 2178              	.LVL133:
 203:../../libdaisy/src/hid/disp/display.h ****             {
 2179              		.loc 6 203 13 view .LVU560
 2180 04a4 911D     		adds	r1, r2, #6
 2181 04a6 C0F24F81 		blt	.L87
 209:../../libdaisy/src/hid/disp/display.h ****             {
 2182              		.loc 6 209 13 view .LVU561
 2183 04aa 012A     		cmp	r2, #1
 206:../../libdaisy/src/hid/disp/display.h ****             }
 2184              		.loc 6 206 20 view .LVU562
 2185 04ac 07F10107 		add	r7, r7, #1
 2186              	.LVL134:
 205:../../libdaisy/src/hid/disp/display.h ****                 x1 += signX;
 2187              		.loc 6 205 23 view .LVU563
 2188 04b0 ACF1070C 		sub	ip, ip, #7
 2189              	.LVL135:
 209:../../libdaisy/src/hid/disp/display.h ****             {
 2190              		.loc 6 209 13 view .LVU564
 2191 04b4 40F34881 		ble	.L87
 2192              	.L88:
 199:../../libdaisy/src/hid/disp/display.h ****         {
 2193              		.loc 6 199 26 is_stmt 1 view .LVU565
 2194 04b8 4C2F     		cmp	r7, #76
 2195 04ba DAD1     		bne	.L82
 199:../../libdaisy/src/hid/disp/display.h ****         {
 2196              		.loc 6 199 26 is_stmt 0 view .LVU566
 2197 04bc 2C2B     		cmp	r3, #44
 2198 04be D8D1     		bne	.L82
 2199              	.LVL136:
 199:../../libdaisy/src/hid/disp/display.h ****         {
 2200              		.loc 6 199 26 view .LVU567
 2201              	.LBE1149:
 2202              	.LBE1153:
 151:Menus.cpp     ****     screen.DrawLine(screen.Width()/2-10+22,44,screen.Width()/2-10+20,52,!colorTemplate);
 2203              		.loc 2 151 5 is_stmt 1 view .LVU568
 2204              	.LBB1154:
 2205              	.LBI1154:
 181:../../libdaisy/src/hid/disp/display.h ****                   uint_fast8_t y1,
 2206              		.loc 6 181 10 view .LVU569
 2207              	.LBB1155:
ARM GAS  C:\Users\VINCIU~1\AppData\Local\Temp\ccdS0pnQ.s 			page 61


 2208              	.LBB1156:
 2209              	.LBI1156:
  41:../../libdaisy/src/hid/disp/oled_display.h ****     {
 2210              		.loc 1 41 10 view .LVU570
 2211              	.LBB1157:
 2212              	.LBI1157:
 239:../../libdaisy/src/dev/oled_ssd130x.h ****     {
 2213              		.loc 5 239 10 view .LVU571
 2214              	.LBB1158:
 244:../../libdaisy/src/dev/oled_ssd130x.h ****         else
 2215              		.loc 5 244 42 is_stmt 0 view .LVU572
 2216 04c0 94F85E33 		ldrb	r3, [r4, #862]	@ zero_extendqisi2
 243:../../libdaisy/src/dev/oled_ssd130x.h ****             buffer_[x + (y / 8) * width] |= (1 << (y % 8));
 2217              		.loc 5 243 9 view .LVU573
 2218 04c4 0028     		cmp	r0, #0
 2219 04c6 00F09881 		beq	.L89
 244:../../libdaisy/src/dev/oled_ssd130x.h ****         else
 2220              		.loc 5 244 42 view .LVU574
 2221 04ca 43F01003 		orr	r3, r3, #16
 2222              	.L90:
 244:../../libdaisy/src/dev/oled_ssd130x.h ****         else
 2223              		.loc 5 244 42 view .LVU575
 2224              	.LBE1158:
 2225              	.LBE1157:
 2226              	.LBE1156:
 2227              	.LBE1155:
 2228              	.LBE1154:
 2229              	.LBB1180:
 2230              	.LBB706:
 2231              	.LBB696:
 2232              	.LBB686:
 2233              		.loc 6 228 34 view .LVU576
 2234 04ce 6FF0050C 		mvn	ip, #5
 2235 04d2 2C21     		movs	r1, #44
 2236 04d4 4C27     		movs	r7, #76
 2237 04d6 84F85E33 		strb	r3, [r4, #862]
 2238              	.LVL137:
 2239              		.loc 6 228 34 view .LVU577
 2240              	.LBE686:
 2241              	.LBE696:
 2242              	.LBE706:
 2243              	.LBE1180:
 2244              	.LBB1181:
 2245              	.LBB1176:
 199:../../libdaisy/src/hid/disp/display.h ****         {
 2246              		.loc 6 199 26 is_stmt 1 view .LVU578
 2247              	.L91:
 2248              	.LBB1163:
 2249              	.LBI1163:
  41:../../libdaisy/src/hid/disp/oled_display.h ****     {
 2250              		.loc 1 41 10 view .LVU579
 2251              	.LBB1164:
 2252              	.LBI1164:
 239:../../libdaisy/src/dev/oled_ssd130x.h ****     {
 2253              		.loc 5 239 10 view .LVU580
 2254              	.LBB1165:
 241:../../libdaisy/src/dev/oled_ssd130x.h ****             return;
ARM GAS  C:\Users\VINCIU~1\AppData\Local\Temp\ccdS0pnQ.s 			page 62


 2255              		.loc 5 241 9 is_stmt 0 view .LVU581
 2256 04da 7F2F     		cmp	r7, #127
 2257 04dc 14D8     		bhi	.L94
 2258 04de 3F29     		cmp	r1, #63
 2259 04e0 12D8     		bhi	.L94
 2260              	.LVL138:
 2261              	.LBB1166:
 2262              	.LBI1166:
 239:../../libdaisy/src/dev/oled_ssd130x.h ****     {
 2263              		.loc 5 239 10 is_stmt 1 view .LVU582
 2264              	.LBB1167:
 246:../../libdaisy/src/dev/oled_ssd130x.h ****     }
 2265              		.loc 5 246 28 is_stmt 0 view .LVU583
 2266 04e2 CB08     		lsrs	r3, r1, #3
 246:../../libdaisy/src/dev/oled_ssd130x.h ****     }
 2267              		.loc 5 246 55 view .LVU584
 2268 04e4 01F00708 		and	r8, r1, #7
 2269              	.LBE1167:
 2270              	.LBE1166:
 244:../../libdaisy/src/dev/oled_ssd130x.h ****         else
 2271              		.loc 5 244 48 view .LVU585
 2272 04e8 4FF0010E 		mov	lr, #1
 2273              	.LBB1170:
 2274              	.LBB1168:
 246:../../libdaisy/src/dev/oled_ssd130x.h ****     }
 2275              		.loc 5 246 42 view .LVU586
 2276 04ec 07EBC313 		add	r3, r7, r3, lsl #7
 2277              	.LBE1168:
 2278              	.LBE1170:
 244:../../libdaisy/src/dev/oled_ssd130x.h ****         else
 2279              		.loc 5 244 48 view .LVU587
 2280 04f0 0EFA08FE 		lsl	lr, lr, r8
 244:../../libdaisy/src/dev/oled_ssd130x.h ****         else
 2281              		.loc 5 244 42 view .LVU588
 2282 04f4 1A46     		mov	r2, r3
 2283 04f6 2244     		add	r2, r2, r4
 243:../../libdaisy/src/dev/oled_ssd130x.h ****             buffer_[x + (y / 8) * width] |= (1 << (y % 8));
 2284              		.loc 5 243 9 view .LVU589
 2285 04f8 0028     		cmp	r0, #0
 2286 04fa 00F03081 		beq	.L95
 244:../../libdaisy/src/dev/oled_ssd130x.h ****         else
 2287              		.loc 5 244 42 view .LVU590
 2288 04fe 137D     		ldrb	r3, [r2, #20]	@ zero_extendqisi2
 2289 0500 4EEA030E 		orr	lr, lr, r3
 2290 0504 82F814E0 		strb	lr, [r2, #20]
 2291              	.LVL139:
 2292              	.L94:
 244:../../libdaisy/src/dev/oled_ssd130x.h ****         else
 2293              		.loc 5 244 42 view .LVU591
 2294              	.LBE1165:
 2295              	.LBE1164:
 2296              	.LBE1163:
 202:../../libdaisy/src/hid/disp/display.h ****             if(error2 > -deltaY)
 2297              		.loc 6 202 20 view .LVU592
 2298 0508 4FEA4C03 		lsl	r3, ip, #1
 2299              	.LVL140:
 203:../../libdaisy/src/hid/disp/display.h ****             {
ARM GAS  C:\Users\VINCIU~1\AppData\Local\Temp\ccdS0pnQ.s 			page 63


 2300              		.loc 6 203 13 view .LVU593
 2301 050c DA1D     		adds	r2, r3, #7
 2302 050e C0F21781 		blt	.L96
 209:../../libdaisy/src/hid/disp/display.h ****             {
 2303              		.loc 6 209 13 view .LVU594
 2304 0512 012B     		cmp	r3, #1
 206:../../libdaisy/src/hid/disp/display.h ****             }
 2305              		.loc 6 206 20 view .LVU595
 2306 0514 07F1FF37 		add	r7, r7, #-1
 2307              	.LVL141:
 205:../../libdaisy/src/hid/disp/display.h ****                 x1 += signX;
 2308              		.loc 6 205 23 view .LVU596
 2309 0518 ACF1080C 		sub	ip, ip, #8
 2310              	.LVL142:
 209:../../libdaisy/src/hid/disp/display.h ****             {
 2311              		.loc 6 209 13 view .LVU597
 2312 051c 40F31081 		ble	.L96
 2313              	.L97:
 199:../../libdaisy/src/hid/disp/display.h ****         {
 2314              		.loc 6 199 26 is_stmt 1 view .LVU598
 2315 0520 4A2F     		cmp	r7, #74
 2316 0522 DAD1     		bne	.L91
 199:../../libdaisy/src/hid/disp/display.h ****         {
 2317              		.loc 6 199 26 is_stmt 0 view .LVU599
 2318 0524 3429     		cmp	r1, #52
 2319 0526 D8D1     		bne	.L91
 2320              	.LVL143:
 199:../../libdaisy/src/hid/disp/display.h ****         {
 2321              		.loc 6 199 26 view .LVU600
 2322              	.LBE1176:
 2323              	.LBE1181:
 152:Menus.cpp     ****     screen.DrawLine(screen.Width()/2-10+20,52,screen.Width()/2-10+22,52,!colorTemplate);
 2324              		.loc 2 152 5 is_stmt 1 view .LVU601
 2325              	.LBB1182:
 2326              	.LBI1182:
 181:../../libdaisy/src/hid/disp/display.h ****                   uint_fast8_t y1,
 2327              		.loc 6 181 10 view .LVU602
 2328              	.LBB1183:
 2329              	.LBB1184:
 2330              	.LBI1184:
  41:../../libdaisy/src/hid/disp/oled_display.h ****     {
 2331              		.loc 1 41 10 view .LVU603
 2332              	.LBB1185:
 2333              	.LBI1185:
 239:../../libdaisy/src/dev/oled_ssd130x.h ****     {
 2334              		.loc 5 239 10 view .LVU604
 2335              	.LBB1186:
 244:../../libdaisy/src/dev/oled_ssd130x.h ****         else
 2336              		.loc 5 244 42 is_stmt 0 view .LVU605
 2337 0528 94F86033 		ldrb	r3, [r4, #864]	@ zero_extendqisi2
 243:../../libdaisy/src/dev/oled_ssd130x.h ****             buffer_[x + (y / 8) * width] |= (1 << (y % 8));
 2338              		.loc 5 243 9 view .LVU606
 2339 052c 0028     		cmp	r0, #0
 2340 052e 00F01D81 		beq	.L98
 244:../../libdaisy/src/dev/oled_ssd130x.h ****         else
 2341              		.loc 5 244 42 view .LVU607
 2342 0532 43F01003 		orr	r3, r3, #16
ARM GAS  C:\Users\VINCIU~1\AppData\Local\Temp\ccdS0pnQ.s 			page 64


 2343 0536 84F86033 		strb	r3, [r4, #864]
 2344              	.LVL144:
 244:../../libdaisy/src/dev/oled_ssd130x.h ****         else
 2345              		.loc 5 244 42 view .LVU608
 2346              	.LBE1186:
 2347              	.LBE1185:
 2348              	.LBE1184:
 199:../../libdaisy/src/hid/disp/display.h ****         {
 2349              		.loc 6 199 26 is_stmt 1 view .LVU609
 2350              	.LBB1191:
 2351              	.LBI1191:
  41:../../libdaisy/src/hid/disp/oled_display.h ****     {
 2352              		.loc 1 41 10 view .LVU610
 2353              	.LBB1192:
 2354              	.LBI1192:
 239:../../libdaisy/src/dev/oled_ssd130x.h ****     {
 2355              		.loc 5 239 10 view .LVU611
 2356              	.LBB1193:
 244:../../libdaisy/src/dev/oled_ssd130x.h ****         else
 2357              		.loc 5 244 42 is_stmt 0 view .LVU612
 2358 053a 94F85E33 		ldrb	r3, [r4, #862]	@ zero_extendqisi2
 2359 053e 43F01003 		orr	r3, r3, #16
 2360 0542 84F85E33 		strb	r3, [r4, #862]
 2361              	.LVL145:
 244:../../libdaisy/src/dev/oled_ssd130x.h ****         else
 2362              		.loc 5 244 42 view .LVU613
 2363              	.LBE1193:
 2364              	.LBE1192:
 2365              	.LBE1191:
 199:../../libdaisy/src/hid/disp/display.h ****         {
 2366              		.loc 6 199 26 is_stmt 1 view .LVU614
 2367              	.LBB1204:
  41:../../libdaisy/src/hid/disp/oled_display.h ****     {
 2368              		.loc 1 41 10 view .LVU615
 2369              	.LBB1201:
 239:../../libdaisy/src/dev/oled_ssd130x.h ****     {
 2370              		.loc 5 239 10 view .LVU616
 2371              	.LBB1198:
 244:../../libdaisy/src/dev/oled_ssd130x.h ****         else
 2372              		.loc 5 244 42 is_stmt 0 view .LVU617
 2373 0546 94F85F33 		ldrb	r3, [r4, #863]	@ zero_extendqisi2
 2374 054a 43F01003 		orr	r3, r3, #16
 2375 054e 84F85F33 		strb	r3, [r4, #863]
 2376              	.LVL146:
 2377              	.L99:
 244:../../libdaisy/src/dev/oled_ssd130x.h ****         else
 2378              		.loc 5 244 42 view .LVU618
 2379              	.LBE1198:
 2380              	.LBE1201:
 2381              	.LBE1204:
 199:../../libdaisy/src/hid/disp/display.h ****         {
 2382              		.loc 6 199 26 is_stmt 1 view .LVU619
 199:../../libdaisy/src/hid/disp/display.h ****         {
 2383              		.loc 6 199 26 is_stmt 0 view .LVU620
 2384              	.LBE1183:
 2385              	.LBE1182:
 153:Menus.cpp     ****     //Animation Overlay
ARM GAS  C:\Users\VINCIU~1\AppData\Local\Temp\ccdS0pnQ.s 			page 65


 154:Menus.cpp     ****     screen.DrawRect(0,displayAnimationMovY+2,screen.Width(),(screen.Height()/2+displayAnimationMovY
 2386              		.loc 2 154 5 is_stmt 1 view .LVU621
 2387              		.loc 2 154 23 is_stmt 0 view .LVU622
 2388 0552 009B     		ldr	r3, [sp]
 2389              		.loc 2 154 43 view .LVU623
 2390 0554 F0EE006A 		vmov.f32	s13, #2.0e+0
 2391              		.loc 2 154 79 view .LVU624
 2392 0558 DFEDAB7A 		vldr.32	s15, .L166+8
 2393              		.loc 2 154 20 view .LVU625
 2394 055c B246     		mov	r10, r6
 2395              		.loc 2 154 23 view .LVU626
 2396 055e 93ED787A 		vldr.32	s14, [r3, #480]
 2397              	.LBB1209:
 2398              	.LBB1210:
 2399              	.LBB1211:
 226:../../libdaisy/src/hid/disp/display.h ****             {
 2400              		.loc 6 226 30 view .LVU627
 2401 0562 4FF0000E 		mov	lr, #0
 2402              	.LBE1211:
 2403              	.LBE1210:
 2404              	.LBE1209:
 2405              		.loc 2 154 20 view .LVU628
 2406 0566 2E46     		mov	r6, r5
 2407              		.loc 2 154 79 view .LVU629
 2408 0568 77EE277A 		vadd.f32	s15, s14, s15
 2409              		.loc 2 154 43 view .LVU630
 2410 056c 37EE266A 		vadd.f32	s12, s14, s13
 2411              		.loc 2 154 101 view .LVU631
 2412 0570 77EEA67A 		vadd.f32	s15, s15, s13
 2413              		.loc 2 154 20 view .LVU632
 2414 0574 FCEEC66A 		vcvt.u32.f32	s13, s12
 2415 0578 FCEEE77A 		vcvt.u32.f32	s15, s15
 2416 057c 16EE90BA 		vmov	fp, s13	@ int
 2417 0580 17EE909A 		vmov	r9, s15	@ int
 2418              	.LVL147:
 2419              	.LBB1236:
 2420              	.LBI1209:
 217:../../libdaisy/src/hid/disp/display.h ****                   uint_fast8_t y1,
 2421              		.loc 6 217 10 is_stmt 1 view .LVU633
 2422              	.LBB1234:
 2423              	.LBI1210:
 217:../../libdaisy/src/hid/disp/display.h ****                   uint_fast8_t y1,
 2424              		.loc 6 217 10 view .LVU634
 2425              	.LBB1232:
 226:../../libdaisy/src/hid/disp/display.h ****             {
 2426              		.loc 6 226 40 view .LVU635
 2427              	.L102:
 2428              	.LBB1212:
 2429              		.loc 6 228 44 view .LVU636
 2430 0584 CB45     		cmp	fp, r9
 2431 0586 24D8     		bhi	.L105
 2432              	.LBB1213:
 2433              	.LBB1214:
 2434              	.LBB1215:
 241:../../libdaisy/src/dev/oled_ssd130x.h ****             return;
 2435              		.loc 5 241 14 is_stmt 0 view .LVU637
 2436 0588 BEF17F0F 		cmp	lr, #127
ARM GAS  C:\Users\VINCIU~1\AppData\Local\Temp\ccdS0pnQ.s 			page 66


 2437 058c 5B46     		mov	r3, fp
 2438 058e 94BF     		ite	ls
 2439 0590 0025     		movls	r5, #0
 2440 0592 0125     		movhi	r5, #1
 2441 0594 05E0     		b	.L106
 2442              	.LVL148:
 2443              	.L164:
 244:../../libdaisy/src/dev/oled_ssd130x.h ****         else
 2444              		.loc 5 244 42 view .LVU638
 2445 0596 0F7D     		ldrb	r7, [r1, #20]	@ zero_extendqisi2
 2446 0598 3843     		orrs	r0, r0, r7
 2447 059a 0875     		strb	r0, [r1, #20]
 2448              	.LVL149:
 2449              	.L103:
 244:../../libdaisy/src/dev/oled_ssd130x.h ****         else
 2450              		.loc 5 244 42 view .LVU639
 2451              	.LBE1215:
 2452              	.LBE1214:
 2453              	.LBE1213:
 2454              		.loc 6 228 17 is_stmt 1 view .LVU640
 2455 059c 0133     		adds	r3, r3, #1
 2456              	.LVL150:
 2457              		.loc 6 228 44 view .LVU641
 2458 059e 9945     		cmp	r9, r3
 2459 05a0 17D3     		bcc	.L105
 2460              	.L106:
 2461              	.LVL151:
 2462              	.LBB1229:
 2463              	.LBI1213:
  41:../../libdaisy/src/hid/disp/oled_display.h ****     {
 2464              		.loc 1 41 10 view .LVU642
 2465              	.LBB1226:
 2466              	.LBI1214:
 239:../../libdaisy/src/dev/oled_ssd130x.h ****     {
 2467              		.loc 5 239 10 view .LVU643
 2468              	.LBB1223:
 241:../../libdaisy/src/dev/oled_ssd130x.h ****             return;
 2469              		.loc 5 241 9 is_stmt 0 view .LVU644
 2470 05a2 3F2B     		cmp	r3, #63
 2471 05a4 FAD8     		bhi	.L103
 241:../../libdaisy/src/dev/oled_ssd130x.h ****             return;
 2472              		.loc 5 241 9 view .LVU645
 2473 05a6 002D     		cmp	r5, #0
 2474 05a8 F8D1     		bne	.L103
 2475              	.LVL152:
 2476              	.LBB1216:
 2477              	.LBI1216:
 239:../../libdaisy/src/dev/oled_ssd130x.h ****     {
 2478              		.loc 5 239 10 is_stmt 1 view .LVU646
 239:../../libdaisy/src/dev/oled_ssd130x.h ****     {
 2479              		.loc 5 239 10 is_stmt 0 view .LVU647
 2480              	.LBE1216:
 244:../../libdaisy/src/dev/oled_ssd130x.h ****         else
 2481              		.loc 5 244 28 view .LVU648
 2482 05aa D908     		lsrs	r1, r3, #3
 244:../../libdaisy/src/dev/oled_ssd130x.h ****         else
 2483              		.loc 5 244 54 view .LVU649
ARM GAS  C:\Users\VINCIU~1\AppData\Local\Temp\ccdS0pnQ.s 			page 67


 2484 05ac 03F00700 		and	r0, r3, #7
 244:../../libdaisy/src/dev/oled_ssd130x.h ****         else
 2485              		.loc 5 244 48 view .LVU650
 2486 05b0 0127     		movs	r7, #1
 244:../../libdaisy/src/dev/oled_ssd130x.h ****         else
 2487              		.loc 5 244 42 view .LVU651
 2488 05b2 0EEBC111 		add	r1, lr, r1, lsl #7
 244:../../libdaisy/src/dev/oled_ssd130x.h ****         else
 2489              		.loc 5 244 48 view .LVU652
 2490 05b6 07FA00F0 		lsl	r0, r7, r0
 244:../../libdaisy/src/dev/oled_ssd130x.h ****         else
 2491              		.loc 5 244 42 view .LVU653
 2492 05ba 2144     		add	r1, r1, r4
 243:../../libdaisy/src/dev/oled_ssd130x.h ****             buffer_[x + (y / 8) * width] |= (1 << (y % 8));
 2493              		.loc 5 243 9 view .LVU654
 2494 05bc 002E     		cmp	r6, #0
 2495 05be EAD1     		bne	.L164
 2496              	.LBB1220:
 2497              	.LBB1217:
 246:../../libdaisy/src/dev/oled_ssd130x.h ****     }
 2498              		.loc 5 246 42 view .LVU655
 2499 05c0 91F81480 		ldrb	r8, [r1, #20]	@ zero_extendqisi2
 2500              	.LBE1217:
 2501              	.LBE1220:
 2502              	.LBE1223:
 2503              	.LBE1226:
 2504              	.LBE1229:
 2505              		.loc 6 228 17 view .LVU656
 2506 05c4 0133     		adds	r3, r3, #1
 2507              	.LVL153:
 2508              	.LBB1230:
 2509              	.LBB1227:
 2510              	.LBB1224:
 2511              	.LBB1221:
 2512              	.LBB1218:
 246:../../libdaisy/src/dev/oled_ssd130x.h ****     }
 2513              		.loc 5 246 42 view .LVU657
 2514 05c6 28EA000C 		bic	ip, r8, r0
 2515              	.LBE1218:
 2516              	.LBE1221:
 2517              	.LBE1224:
 2518              	.LBE1227:
 2519              	.LBE1230:
 2520              		.loc 6 228 44 view .LVU658
 2521 05ca 9945     		cmp	r9, r3
 2522              	.LBB1231:
 2523              	.LBB1228:
 2524              	.LBB1225:
 2525              	.LBB1222:
 2526              	.LBB1219:
 246:../../libdaisy/src/dev/oled_ssd130x.h ****     }
 2527              		.loc 5 246 42 view .LVU659
 2528 05cc 81F814C0 		strb	ip, [r1, #20]
 2529              	.LVL154:
 246:../../libdaisy/src/dev/oled_ssd130x.h ****     }
 2530              		.loc 5 246 42 view .LVU660
 2531              	.LBE1219:
ARM GAS  C:\Users\VINCIU~1\AppData\Local\Temp\ccdS0pnQ.s 			page 68


 2532              	.LBE1222:
 2533              	.LBE1225:
 2534              	.LBE1228:
 2535              	.LBE1231:
 2536              		.loc 6 228 17 is_stmt 1 view .LVU661
 2537              		.loc 6 228 44 view .LVU662
 2538 05d0 E7D2     		bcs	.L106
 2539              	.LVL155:
 2540              	.L105:
 2541              		.loc 6 228 44 is_stmt 0 view .LVU663
 2542              	.LBE1212:
 226:../../libdaisy/src/hid/disp/display.h ****             {
 2543              		.loc 6 226 13 is_stmt 1 view .LVU664
 2544 05d2 0EF1010E 		add	lr, lr, #1
 2545              	.LVL156:
 226:../../libdaisy/src/hid/disp/display.h ****             {
 2546              		.loc 6 226 40 view .LVU665
 2547 05d6 BEF1810F 		cmp	lr, #129
 2548 05da D3D1     		bne	.L102
 2549              	.LBE1232:
 2550              	.LBE1234:
 2551              	.LBE1236:
 155:Menus.cpp     ****     displayAnimationMovY = displayAnimationMovY - 0.1;
 2552              		.loc 2 155 28 is_stmt 0 view .LVU666
 2553 05dc B7EEC77A 		vcvt.f64.f32	d7, s14
 156:Menus.cpp     ****     screen.DrawRect(0,screen.Height()/2-(displayAnimationMovY+2),screen.Width(),(screen.Height()-di
 2554              		.loc 2 156 97 view .LVU667
 2555 05e0 DFED8A6A 		vldr.32	s13, .L166+12
 2556              		.loc 2 156 62 view .LVU668
 2557 05e4 F0EE005A 		vmov.f32	s11, #2.0e+0
 2558              		.loc 2 156 40 view .LVU669
 2559 05e8 9FED876A 		vldr.32	s12, .L166+8
 155:Menus.cpp     ****     displayAnimationMovY = displayAnimationMovY - 0.1;
 2560              		.loc 2 155 26 view .LVU670
 2561 05ec 009B     		ldr	r3, [sp]
 2562              	.LBB1237:
 2563              	.LBB1235:
 2564              	.LBB1233:
 2565 05ee 3546     		mov	r5, r6
 2566              	.LVL157:
 155:Menus.cpp     ****     displayAnimationMovY = displayAnimationMovY - 0.1;
 2567              		.loc 2 155 26 view .LVU671
 2568              	.LBE1233:
 2569              	.LBE1235:
 2570              	.LBE1237:
 155:Menus.cpp     ****     displayAnimationMovY = displayAnimationMovY - 0.1;
 2571              		.loc 2 155 5 is_stmt 1 view .LVU672
 2572              	.LBB1238:
 2573              	.LBB1239:
 2574              	.LBB1240:
 226:../../libdaisy/src/hid/disp/display.h ****             {
 2575              		.loc 6 226 30 is_stmt 0 view .LVU673
 2576 05f0 4FF0000C 		mov	ip, #0
 2577              	.LBE1240:
 2578              	.LBE1239:
 2579              	.LBE1238:
 155:Menus.cpp     ****     displayAnimationMovY = displayAnimationMovY - 0.1;
ARM GAS  C:\Users\VINCIU~1\AppData\Local\Temp\ccdS0pnQ.s 			page 69


 2580              		.loc 2 155 49 view .LVU674
 2581 05f4 9FED824B 		vldr.64	d4, .L166
 2582 05f8 37EE447B 		vsub.f64	d7, d7, d4
 2583 05fc B7EEC77B 		vcvt.f32.f64	s14, d7
 2584              		.loc 2 156 97 view .LVU675
 2585 0600 76EEC77A 		vsub.f32	s15, s13, s14
 155:Menus.cpp     ****     displayAnimationMovY = displayAnimationMovY - 0.1;
 2586              		.loc 2 155 26 view .LVU676
 2587 0604 83ED787A 		vstr.32	s14, [r3, #480]
 2588              		.loc 2 156 5 is_stmt 1 view .LVU677
 2589              		.loc 2 156 62 is_stmt 0 view .LVU678
 2590 0608 37EE255A 		vadd.f32	s10, s14, s11
 2591              		.loc 2 156 119 view .LVU679
 2592 060c 77EEA57A 		vadd.f32	s15, s15, s11
 2593              		.loc 2 156 40 view .LVU680
 2594 0610 36EE457A 		vsub.f32	s14, s12, s10
 2595              		.loc 2 156 20 view .LVU681
 2596 0614 FCEEE77A 		vcvt.u32.f32	s15, s15
 2597 0618 BCEEC77A 		vcvt.u32.f32	s14, s14
 2598 061c 17EE909A 		vmov	r9, s15	@ int
 2599 0620 17EE10BA 		vmov	fp, s14	@ int
 2600              	.LVL158:
 2601              	.LBB1263:
 2602              	.LBI1238:
 217:../../libdaisy/src/hid/disp/display.h ****                   uint_fast8_t y1,
 2603              		.loc 6 217 10 is_stmt 1 view .LVU682
 2604              	.LBB1262:
 2605              	.LBI1239:
 217:../../libdaisy/src/hid/disp/display.h ****                   uint_fast8_t y1,
 2606              		.loc 6 217 10 view .LVU683
 2607              	.LBB1261:
 226:../../libdaisy/src/hid/disp/display.h ****             {
 2608              		.loc 6 226 40 view .LVU684
 2609              	.L109:
 2610              	.LBB1241:
 2611              		.loc 6 228 44 view .LVU685
 2612 0624 CB45     		cmp	fp, r9
 2613 0626 24D8     		bhi	.L112
 2614              	.LBB1242:
 2615              	.LBB1243:
 2616              	.LBB1244:
 241:../../libdaisy/src/dev/oled_ssd130x.h ****             return;
 2617              		.loc 5 241 14 is_stmt 0 view .LVU686
 2618 0628 BCF17F0F 		cmp	ip, #127
 2619 062c 5B46     		mov	r3, fp
 2620 062e 94BF     		ite	ls
 2621 0630 0025     		movls	r5, #0
 2622 0632 0125     		movhi	r5, #1
 2623 0634 05E0     		b	.L113
 2624              	.LVL159:
 2625              	.L165:
 244:../../libdaisy/src/dev/oled_ssd130x.h ****         else
 2626              		.loc 5 244 42 view .LVU687
 2627 0636 0F7D     		ldrb	r7, [r1, #20]	@ zero_extendqisi2
 2628 0638 3843     		orrs	r0, r0, r7
 2629 063a 0875     		strb	r0, [r1, #20]
 2630              	.LVL160:
ARM GAS  C:\Users\VINCIU~1\AppData\Local\Temp\ccdS0pnQ.s 			page 70


 2631              	.L110:
 244:../../libdaisy/src/dev/oled_ssd130x.h ****         else
 2632              		.loc 5 244 42 view .LVU688
 2633              	.LBE1244:
 2634              	.LBE1243:
 2635              	.LBE1242:
 2636              		.loc 6 228 17 is_stmt 1 view .LVU689
 2637 063c 0133     		adds	r3, r3, #1
 2638              	.LVL161:
 2639              		.loc 6 228 44 view .LVU690
 2640 063e 9945     		cmp	r9, r3
 2641 0640 17D3     		bcc	.L112
 2642              	.L113:
 2643              	.LVL162:
 2644              	.LBB1258:
 2645              	.LBI1242:
  41:../../libdaisy/src/hid/disp/oled_display.h ****     {
 2646              		.loc 1 41 10 view .LVU691
 2647              	.LBB1255:
 2648              	.LBI1243:
 239:../../libdaisy/src/dev/oled_ssd130x.h ****     {
 2649              		.loc 5 239 10 view .LVU692
 2650              	.LBB1252:
 241:../../libdaisy/src/dev/oled_ssd130x.h ****             return;
 2651              		.loc 5 241 9 is_stmt 0 view .LVU693
 2652 0642 3F2B     		cmp	r3, #63
 2653 0644 FAD8     		bhi	.L110
 241:../../libdaisy/src/dev/oled_ssd130x.h ****             return;
 2654              		.loc 5 241 9 view .LVU694
 2655 0646 002D     		cmp	r5, #0
 2656 0648 F8D1     		bne	.L110
 2657              	.LVL163:
 2658              	.LBB1245:
 2659              	.LBI1245:
 239:../../libdaisy/src/dev/oled_ssd130x.h ****     {
 2660              		.loc 5 239 10 is_stmt 1 view .LVU695
 239:../../libdaisy/src/dev/oled_ssd130x.h ****     {
 2661              		.loc 5 239 10 is_stmt 0 view .LVU696
 2662              	.LBE1245:
 244:../../libdaisy/src/dev/oled_ssd130x.h ****         else
 2663              		.loc 5 244 28 view .LVU697
 2664 064a D908     		lsrs	r1, r3, #3
 244:../../libdaisy/src/dev/oled_ssd130x.h ****         else
 2665              		.loc 5 244 54 view .LVU698
 2666 064c 03F00700 		and	r0, r3, #7
 244:../../libdaisy/src/dev/oled_ssd130x.h ****         else
 2667              		.loc 5 244 48 view .LVU699
 2668 0650 0127     		movs	r7, #1
 244:../../libdaisy/src/dev/oled_ssd130x.h ****         else
 2669              		.loc 5 244 42 view .LVU700
 2670 0652 0CEBC111 		add	r1, ip, r1, lsl #7
 244:../../libdaisy/src/dev/oled_ssd130x.h ****         else
 2671              		.loc 5 244 48 view .LVU701
 2672 0656 07FA00F0 		lsl	r0, r7, r0
 244:../../libdaisy/src/dev/oled_ssd130x.h ****         else
 2673              		.loc 5 244 42 view .LVU702
 2674 065a 2144     		add	r1, r1, r4
ARM GAS  C:\Users\VINCIU~1\AppData\Local\Temp\ccdS0pnQ.s 			page 71


 243:../../libdaisy/src/dev/oled_ssd130x.h ****             buffer_[x + (y / 8) * width] |= (1 << (y % 8));
 2675              		.loc 5 243 9 view .LVU703
 2676 065c 002E     		cmp	r6, #0
 2677 065e EAD1     		bne	.L165
 2678              	.LBB1249:
 2679              	.LBB1246:
 246:../../libdaisy/src/dev/oled_ssd130x.h ****     }
 2680              		.loc 5 246 42 view .LVU704
 2681 0660 91F81480 		ldrb	r8, [r1, #20]	@ zero_extendqisi2
 2682              	.LBE1246:
 2683              	.LBE1249:
 2684              	.LBE1252:
 2685              	.LBE1255:
 2686              	.LBE1258:
 2687              		.loc 6 228 17 view .LVU705
 2688 0664 0133     		adds	r3, r3, #1
 2689              	.LVL164:
 2690              	.LBB1259:
 2691              	.LBB1256:
 2692              	.LBB1253:
 2693              	.LBB1250:
 2694              	.LBB1247:
 246:../../libdaisy/src/dev/oled_ssd130x.h ****     }
 2695              		.loc 5 246 42 view .LVU706
 2696 0666 28EA000E 		bic	lr, r8, r0
 2697              	.LBE1247:
 2698              	.LBE1250:
 2699              	.LBE1253:
 2700              	.LBE1256:
 2701              	.LBE1259:
 2702              		.loc 6 228 44 view .LVU707
 2703 066a 9945     		cmp	r9, r3
 2704              	.LBB1260:
 2705              	.LBB1257:
 2706              	.LBB1254:
 2707              	.LBB1251:
 2708              	.LBB1248:
 246:../../libdaisy/src/dev/oled_ssd130x.h ****     }
 2709              		.loc 5 246 42 view .LVU708
 2710 066c 81F814E0 		strb	lr, [r1, #20]
 2711              	.LVL165:
 246:../../libdaisy/src/dev/oled_ssd130x.h ****     }
 2712              		.loc 5 246 42 view .LVU709
 2713              	.LBE1248:
 2714              	.LBE1251:
 2715              	.LBE1254:
 2716              	.LBE1257:
 2717              	.LBE1260:
 2718              		.loc 6 228 17 is_stmt 1 view .LVU710
 2719              		.loc 6 228 44 view .LVU711
 2720 0670 E7D2     		bcs	.L113
 2721              	.LVL166:
 2722              	.L112:
 2723              		.loc 6 228 44 is_stmt 0 view .LVU712
 2724              	.LBE1241:
 226:../../libdaisy/src/hid/disp/display.h ****             {
 2725              		.loc 6 226 13 is_stmt 1 view .LVU713
ARM GAS  C:\Users\VINCIU~1\AppData\Local\Temp\ccdS0pnQ.s 			page 72


 2726 0672 0CF1010C 		add	ip, ip, #1
 2727              	.LVL167:
 226:../../libdaisy/src/hid/disp/display.h ****             {
 2728              		.loc 6 226 40 view .LVU714
 2729 0676 BCF1810F 		cmp	ip, #129
 2730 067a D3D1     		bne	.L109
 2731 067c 5646     		mov	r6, r10
 2732              	.LVL168:
 226:../../libdaisy/src/hid/disp/display.h ****             {
 2733              		.loc 6 226 40 is_stmt 0 view .LVU715
 2734              	.LBE1261:
 2735              	.LBE1262:
 2736              	.LBE1263:
 2737              	.LBB1264:
 2738              	.LBB1265:
 2739              	.LBB1266:
 2740              	.LBB1267:
 2741              	.LBB1268:
 111:../../libdaisy/src/dev/oled_ssd130x.h ****         spi_.BlockingTransmit(&cmd, 1);
 2742              		.loc 5 111 24 view .LVU716
 2743 067e 0AF10805 		add	r5, r10, #8
 2744 0682 DDF80480 		ldr	r8, [sp, #4]
 2745 0686 B024     		movs	r4, #176
 2746              	.LVL169:
 2747              	.L114:
 111:../../libdaisy/src/dev/oled_ssd130x.h ****         spi_.BlockingTransmit(&cmd, 1);
 2748              		.loc 5 111 24 view .LVU717
 2749 0688 0027     		movs	r7, #0
 111:../../libdaisy/src/dev/oled_ssd130x.h ****         spi_.BlockingTransmit(&cmd, 1);
 2750              		.loc 5 111 23 view .LVU718
 2751 068a 2846     		mov	r0, r5
 2752 068c 8DF80F40 		strb	r4, [sp, #15]
 2753              	.LVL170:
 111:../../libdaisy/src/dev/oled_ssd130x.h ****         spi_.BlockingTransmit(&cmd, 1);
 2754              		.loc 5 111 23 view .LVU719
 2755              	.LBE1268:
 2756              	.LBI1267:
 109:../../libdaisy/src/dev/oled_ssd130x.h ****     {
 2757              		.loc 5 109 10 is_stmt 1 view .LVU720
 2758              	.LBB1269:
 111:../../libdaisy/src/dev/oled_ssd130x.h ****         spi_.BlockingTransmit(&cmd, 1);
 2759              		.loc 5 111 9 view .LVU721
 2760              	.LBE1269:
 2761              	.LBE1267:
 254:../../libdaisy/src/dev/oled_ssd130x.h ****         }
 255:../../libdaisy/src/dev/oled_ssd130x.h ****     };
 256:../../libdaisy/src/dev/oled_ssd130x.h **** 
 257:../../libdaisy/src/dev/oled_ssd130x.h ****     /**
 258:../../libdaisy/src/dev/oled_ssd130x.h ****      * Update the display 
 259:../../libdaisy/src/dev/oled_ssd130x.h ****     */
 260:../../libdaisy/src/dev/oled_ssd130x.h ****     void Update()
 261:../../libdaisy/src/dev/oled_ssd130x.h ****     {
 262:../../libdaisy/src/dev/oled_ssd130x.h ****         uint8_t i;
 263:../../libdaisy/src/dev/oled_ssd130x.h ****         uint8_t high_column_addr;
 264:../../libdaisy/src/dev/oled_ssd130x.h ****         switch(height)
 265:../../libdaisy/src/dev/oled_ssd130x.h ****         {
 266:../../libdaisy/src/dev/oled_ssd130x.h ****             case 32: high_column_addr = 0x12; break;
ARM GAS  C:\Users\VINCIU~1\AppData\Local\Temp\ccdS0pnQ.s 			page 73


 267:../../libdaisy/src/dev/oled_ssd130x.h **** 
 268:../../libdaisy/src/dev/oled_ssd130x.h ****             default: high_column_addr = 0x10; break;
 269:../../libdaisy/src/dev/oled_ssd130x.h ****         }
 270:../../libdaisy/src/dev/oled_ssd130x.h ****         for(i = 0; i < (height / 8); i++)
 2762              		.loc 5 270 22 is_stmt 0 view .LVU722
 2763 0690 0134     		adds	r4, r4, #1
 2764              	.LVL171:
 2765              	.LBB1272:
 2766              	.LBB1270:
 111:../../libdaisy/src/dev/oled_ssd130x.h ****         spi_.BlockingTransmit(&cmd, 1);
 2767              		.loc 5 111 23 view .LVU723
 2768 0692 3946     		mov	r1, r7
 2769 0694 FFF7FEFF 		bl	dsy_gpio_write
 2770              	.LVL172:
 112:../../libdaisy/src/dev/oled_ssd130x.h ****     };
 2771              		.loc 5 112 9 is_stmt 1 view .LVU724
 112:../../libdaisy/src/dev/oled_ssd130x.h ****     };
 2772              		.loc 5 112 30 is_stmt 0 view .LVU725
 2773 0698 6423     		movs	r3, #100
 2774 069a 0122     		movs	r2, #1
 2775 069c 0DF10F01 		add	r1, sp, #15
 2776 06a0 3046     		mov	r0, r6
 2777              	.LBE1270:
 2778              	.LBE1272:
 2779              		.loc 5 270 22 view .LVU726
 2780 06a2 E4B2     		uxtb	r4, r4
 2781              	.LBB1273:
 2782              	.LBB1271:
 112:../../libdaisy/src/dev/oled_ssd130x.h ****     };
 2783              		.loc 5 112 30 view .LVU727
 2784 06a4 FFF7FEFF 		bl	_ZN5daisy9SpiHandle16BlockingTransmitEPhjm
 2785              	.LVL173:
 112:../../libdaisy/src/dev/oled_ssd130x.h ****     };
 2786              		.loc 5 112 30 view .LVU728
 2787              	.LBE1271:
 2788              	.LBE1273:
 2789              	.LBB1274:
 2790              	.LBB1275:
 111:../../libdaisy/src/dev/oled_ssd130x.h ****         spi_.BlockingTransmit(&cmd, 1);
 2791              		.loc 5 111 23 view .LVU729
 2792 06a8 3946     		mov	r1, r7
 2793 06aa 2846     		mov	r0, r5
 2794 06ac 8DF80F70 		strb	r7, [sp, #15]
 2795              	.LVL174:
 111:../../libdaisy/src/dev/oled_ssd130x.h ****         spi_.BlockingTransmit(&cmd, 1);
 2796              		.loc 5 111 23 view .LVU730
 2797              	.LBE1275:
 2798              	.LBI1274:
 109:../../libdaisy/src/dev/oled_ssd130x.h ****     {
 2799              		.loc 5 109 10 is_stmt 1 view .LVU731
 2800              	.LBB1276:
 111:../../libdaisy/src/dev/oled_ssd130x.h ****         spi_.BlockingTransmit(&cmd, 1);
 2801              		.loc 5 111 9 view .LVU732
 111:../../libdaisy/src/dev/oled_ssd130x.h ****         spi_.BlockingTransmit(&cmd, 1);
 2802              		.loc 5 111 23 is_stmt 0 view .LVU733
 2803 06b0 FFF7FEFF 		bl	dsy_gpio_write
 2804              	.LVL175:
ARM GAS  C:\Users\VINCIU~1\AppData\Local\Temp\ccdS0pnQ.s 			page 74


 112:../../libdaisy/src/dev/oled_ssd130x.h ****     };
 2805              		.loc 5 112 9 is_stmt 1 view .LVU734
 112:../../libdaisy/src/dev/oled_ssd130x.h ****     };
 2806              		.loc 5 112 30 is_stmt 0 view .LVU735
 2807 06b4 0122     		movs	r2, #1
 2808 06b6 6423     		movs	r3, #100
 2809 06b8 0DF10F01 		add	r1, sp, #15
 2810 06bc 3046     		mov	r0, r6
 2811 06be FFF7FEFF 		bl	_ZN5daisy9SpiHandle16BlockingTransmitEPhjm
 2812              	.LVL176:
 112:../../libdaisy/src/dev/oled_ssd130x.h ****     };
 2813              		.loc 5 112 30 view .LVU736
 2814 06c2 1023     		movs	r3, #16
 2815              	.LBE1276:
 2816              	.LBE1274:
 2817              	.LBB1277:
 2818              	.LBB1278:
 111:../../libdaisy/src/dev/oled_ssd130x.h ****         spi_.BlockingTransmit(&cmd, 1);
 2819              		.loc 5 111 23 view .LVU737
 2820 06c4 3946     		mov	r1, r7
 2821 06c6 2846     		mov	r0, r5
 2822 06c8 8DF80F30 		strb	r3, [sp, #15]
 2823              	.LVL177:
 111:../../libdaisy/src/dev/oled_ssd130x.h ****         spi_.BlockingTransmit(&cmd, 1);
 2824              		.loc 5 111 23 view .LVU738
 2825              	.LBE1278:
 2826              	.LBI1277:
 109:../../libdaisy/src/dev/oled_ssd130x.h ****     {
 2827              		.loc 5 109 10 is_stmt 1 view .LVU739
 2828              	.LBB1279:
 111:../../libdaisy/src/dev/oled_ssd130x.h ****         spi_.BlockingTransmit(&cmd, 1);
 2829              		.loc 5 111 9 view .LVU740
 111:../../libdaisy/src/dev/oled_ssd130x.h ****         spi_.BlockingTransmit(&cmd, 1);
 2830              		.loc 5 111 23 is_stmt 0 view .LVU741
 2831 06cc FFF7FEFF 		bl	dsy_gpio_write
 2832              	.LVL178:
 112:../../libdaisy/src/dev/oled_ssd130x.h ****     };
 2833              		.loc 5 112 9 is_stmt 1 view .LVU742
 112:../../libdaisy/src/dev/oled_ssd130x.h ****     };
 2834              		.loc 5 112 30 is_stmt 0 view .LVU743
 2835 06d0 6423     		movs	r3, #100
 2836 06d2 0122     		movs	r2, #1
 2837 06d4 0DF10F01 		add	r1, sp, #15
 2838 06d8 3046     		mov	r0, r6
 2839 06da FFF7FEFF 		bl	_ZN5daisy9SpiHandle16BlockingTransmitEPhjm
 2840              	.LVL179:
 112:../../libdaisy/src/dev/oled_ssd130x.h ****     };
 2841              		.loc 5 112 30 view .LVU744
 2842              	.LBE1279:
 2843              	.LBE1277:
 2844              	.LBB1280:
 2845              	.LBI1280:
 115:../../libdaisy/src/dev/oled_ssd130x.h ****     {
 2846              		.loc 5 115 10 is_stmt 1 view .LVU745
 2847              	.LBB1281:
 117:../../libdaisy/src/dev/oled_ssd130x.h ****         spi_.BlockingTransmit(buff, size);
 2848              		.loc 5 117 9 view .LVU746
ARM GAS  C:\Users\VINCIU~1\AppData\Local\Temp\ccdS0pnQ.s 			page 75


 117:../../libdaisy/src/dev/oled_ssd130x.h ****         spi_.BlockingTransmit(buff, size);
 2849              		.loc 5 117 23 is_stmt 0 view .LVU747
 2850 06de 0121     		movs	r1, #1
 2851 06e0 2846     		mov	r0, r5
 2852 06e2 FFF7FEFF 		bl	dsy_gpio_write
 2853              	.LVL180:
 118:../../libdaisy/src/dev/oled_ssd130x.h ****     };
 2854              		.loc 5 118 9 is_stmt 1 view .LVU748
 118:../../libdaisy/src/dev/oled_ssd130x.h ****     };
 2855              		.loc 5 118 30 is_stmt 0 view .LVU749
 2856 06e6 8022     		movs	r2, #128
 2857 06e8 4146     		mov	r1, r8
 2858 06ea 6423     		movs	r3, #100
 2859 06ec 3046     		mov	r0, r6
 2860              	.LBE1281:
 2861              	.LBE1280:
 2862              		.loc 5 270 22 view .LVU750
 2863 06ee 9044     		add	r8, r8, r2
 2864              	.LVL181:
 2865              	.LBB1283:
 2866              	.LBB1282:
 118:../../libdaisy/src/dev/oled_ssd130x.h ****     };
 2867              		.loc 5 118 30 view .LVU751
 2868 06f0 FFF7FEFF 		bl	_ZN5daisy9SpiHandle16BlockingTransmitEPhjm
 2869              	.LVL182:
 118:../../libdaisy/src/dev/oled_ssd130x.h ****     };
 2870              		.loc 5 118 30 view .LVU752
 2871              	.LBE1282:
 2872              	.LBE1283:
 2873              		.loc 5 270 9 is_stmt 1 view .LVU753
 2874              		.loc 5 270 22 view .LVU754
 2875 06f4 B82C     		cmp	r4, #184
 2876 06f6 C7D1     		bne	.L114
 2877              	.LBE1266:
 2878              	.LBE1265:
 2879              	.LBE1264:
 157:Menus.cpp     **** 
 158:Menus.cpp     ****  
 159:Menus.cpp     ****  
 160:Menus.cpp     ****     
 161:Menus.cpp     ****     screen.Update();
 162:Menus.cpp     **** }
 2880              		.loc 2 162 1 is_stmt 0 view .LVU755
 2881 06f8 05B0     		add	sp, sp, #20
 2882              		.cfi_remember_state
 2883              		.cfi_def_cfa_offset 36
 2884              		@ sp needed
 2885 06fa BDE8F08F 		pop	{r4, r5, r6, r7, r8, r9, r10, fp, pc}
 2886              	.LVL183:
 2887              	.L34:
 2888              		.cfi_restore_state
 2889              	.LBB1284:
 2890              	.LBB800:
 211:../../libdaisy/src/hid/disp/display.h ****                 y1 += signY;
 2891              		.loc 6 211 23 view .LVU756
 2892 06fe 0CF1030C 		add	ip, ip, #3
 2893              	.LVL184:
ARM GAS  C:\Users\VINCIU~1\AppData\Local\Temp\ccdS0pnQ.s 			page 76


 212:../../libdaisy/src/hid/disp/display.h ****             }
 2894              		.loc 6 212 20 view .LVU757
 2895 0702 013B     		subs	r3, r3, #1
 2896              	.LVL185:
 212:../../libdaisy/src/hid/disp/display.h ****             }
 2897              		.loc 6 212 20 view .LVU758
 2898 0704 45E5     		b	.L35
 2899              	.LVL186:
 2900              	.L25:
 212:../../libdaisy/src/hid/disp/display.h ****             }
 2901              		.loc 6 212 20 view .LVU759
 2902              	.LBE800:
 2903              	.LBE1284:
 2904              	.LBB1285:
 2905              	.LBB773:
 211:../../libdaisy/src/hid/disp/display.h ****                 y1 += signY;
 2906              		.loc 6 211 23 view .LVU760
 2907 0706 0EF1030E 		add	lr, lr, #3
 2908              	.LVL187:
 212:../../libdaisy/src/hid/disp/display.h ****             }
 2909              		.loc 6 212 20 view .LVU761
 2910 070a 0137     		adds	r7, r7, #1
 2911              	.LVL188:
 212:../../libdaisy/src/hid/disp/display.h ****             }
 2912              		.loc 6 212 20 view .LVU762
 2913 070c 0CE5     		b	.L26
 2914              	.LVL189:
 2915              	.L24:
 2916              	.LBB770:
 2917              	.LBB769:
 2918              	.LBB768:
 2919              	.LBB767:
 2920              	.LBB765:
 246:../../libdaisy/src/dev/oled_ssd130x.h ****     }
 2921              		.loc 5 246 42 view .LVU763
 2922 070e 91F814B0 		ldrb	fp, [r1, #20]	@ zero_extendqisi2
 2923 0712 2BEA0908 		bic	r8, fp, r9
 2924 0716 81F81480 		strb	r8, [r1, #20]
 2925 071a F8E4     		b	.L23
 2926              	.LVL190:
 2927              	.L33:
 246:../../libdaisy/src/dev/oled_ssd130x.h ****     }
 2928              		.loc 5 246 42 view .LVU764
 2929              	.LBE765:
 2930              	.LBE767:
 2931              	.LBE768:
 2932              	.LBE769:
 2933              	.LBE770:
 2934              	.LBE773:
 2935              	.LBE1285:
 2936              	.LBB1286:
 2937              	.LBB801:
 2938              	.LBB797:
 2939              	.LBB796:
 2940              	.LBB795:
 2941              	.LBB794:
 2942              	.LBB792:
ARM GAS  C:\Users\VINCIU~1\AppData\Local\Temp\ccdS0pnQ.s 			page 77


 2943 071c 91F814A0 		ldrb	r10, [r1, #20]	@ zero_extendqisi2
 2944 0720 2AEA0E08 		bic	r8, r10, lr
 2945 0724 81F81480 		strb	r8, [r1, #20]
 2946 0728 26E5     		b	.L32
 2947              	.LVL191:
 2948              	.L68:
 246:../../libdaisy/src/dev/oled_ssd130x.h ****     }
 2949              		.loc 5 246 42 view .LVU765
 2950              	.LBE792:
 2951              	.LBE794:
 2952              	.LBE795:
 2953              	.LBE796:
 2954              	.LBE797:
 2955              	.LBE801:
 2956              	.LBE1286:
 2957              	.LBB1287:
 2958              	.LBB1017:
 211:../../libdaisy/src/hid/disp/display.h ****                 y1 += signY;
 2959              		.loc 6 211 23 view .LVU766
 2960 072a 0EF1030E 		add	lr, lr, #3
 2961              	.LVL192:
 212:../../libdaisy/src/hid/disp/display.h ****             }
 2962              		.loc 6 212 20 view .LVU767
 2963 072e 0132     		adds	r2, r2, #1
 2964              	.LVL193:
 212:../../libdaisy/src/hid/disp/display.h ****             }
 2965              		.loc 6 212 20 view .LVU768
 2966 0730 2AE6     		b	.L69
 2967              	.LVL194:
 2968              	.L67:
 2969              	.LBB1014:
 2970              	.LBB1013:
 2971              	.LBB1012:
 2972              	.LBB1011:
 2973              	.LBB1009:
 246:../../libdaisy/src/dev/oled_ssd130x.h ****     }
 2974              		.loc 5 246 42 view .LVU769
 2975 0732 97F814B0 		ldrb	fp, [r7, #20]	@ zero_extendqisi2
 2976 0736 2BEA0908 		bic	r8, fp, r9
 2977 073a 87F81480 		strb	r8, [r7, #20]
 2978 073e 16E6     		b	.L66
 2979              	.LVL195:
 2980              	.L96:
 246:../../libdaisy/src/dev/oled_ssd130x.h ****     }
 2981              		.loc 5 246 42 view .LVU770
 2982              	.LBE1009:
 2983              	.LBE1011:
 2984              	.LBE1012:
 2985              	.LBE1013:
 2986              	.LBE1014:
 2987              	.LBE1017:
 2988              	.LBE1287:
 2989              	.LBB1288:
 2990              	.LBB1177:
 211:../../libdaisy/src/hid/disp/display.h ****                 y1 += signY;
 2991              		.loc 6 211 23 view .LVU771
 2992 0740 0CF1020C 		add	ip, ip, #2
ARM GAS  C:\Users\VINCIU~1\AppData\Local\Temp\ccdS0pnQ.s 			page 78


 2993              	.LVL196:
 212:../../libdaisy/src/hid/disp/display.h ****             }
 2994              		.loc 6 212 20 view .LVU772
 2995 0744 0131     		adds	r1, r1, #1
 2996              	.LVL197:
 212:../../libdaisy/src/hid/disp/display.h ****             }
 2997              		.loc 6 212 20 view .LVU773
 2998 0746 EBE6     		b	.L97
 2999              	.LVL198:
 3000              	.L87:
 212:../../libdaisy/src/hid/disp/display.h ****             }
 3001              		.loc 6 212 20 view .LVU774
 3002              	.LBE1177:
 3003              	.LBE1288:
 3004              	.LBB1289:
 3005              	.LBB1150:
 211:../../libdaisy/src/hid/disp/display.h ****                 y1 += signY;
 3006              		.loc 6 211 23 view .LVU775
 3007 0748 0CF1020C 		add	ip, ip, #2
 3008              	.LVL199:
 212:../../libdaisy/src/hid/disp/display.h ****             }
 3009              		.loc 6 212 20 view .LVU776
 3010 074c 0133     		adds	r3, r3, #1
 3011              	.LVL200:
 212:../../libdaisy/src/hid/disp/display.h ****             }
 3012              		.loc 6 212 20 view .LVU777
 3013 074e B3E6     		b	.L88
 3014              	.LVL201:
 3015              	.L86:
 3016              	.LBB1147:
 3017              	.LBB1146:
 3018              	.LBB1145:
 3019              	.LBB1144:
 3020              	.LBB1142:
 246:../../libdaisy/src/dev/oled_ssd130x.h ****     }
 3021              		.loc 5 246 42 view .LVU778
 3022 0750 91F814A0 		ldrb	r10, [r1, #20]	@ zero_extendqisi2
 3023 0754 2AEA0E08 		bic	r8, r10, lr
 3024 0758 81F81480 		strb	r8, [r1, #20]
 3025 075c A0E6     		b	.L85
 3026              	.LVL202:
 3027              	.L95:
 246:../../libdaisy/src/dev/oled_ssd130x.h ****     }
 3028              		.loc 5 246 42 view .LVU779
 3029              	.LBE1142:
 3030              	.LBE1144:
 3031              	.LBE1145:
 3032              	.LBE1146:
 3033              	.LBE1147:
 3034              	.LBE1150:
 3035              	.LBE1289:
 3036              	.LBB1290:
 3037              	.LBB1178:
 3038              	.LBB1174:
 3039              	.LBB1173:
 3040              	.LBB1172:
 3041              	.LBB1171:
ARM GAS  C:\Users\VINCIU~1\AppData\Local\Temp\ccdS0pnQ.s 			page 79


 3042              	.LBB1169:
 3043 075e 92F814A0 		ldrb	r10, [r2, #20]	@ zero_extendqisi2
 3044 0762 2AEA0E08 		bic	r8, r10, lr
 3045 0766 82F81480 		strb	r8, [r2, #20]
 3046 076a CDE6     		b	.L94
 3047              	.LVL203:
 3048              	.L98:
 246:../../libdaisy/src/dev/oled_ssd130x.h ****     }
 3049              		.loc 5 246 42 view .LVU780
 3050              	.LBE1169:
 3051              	.LBE1171:
 3052              	.LBE1172:
 3053              	.LBE1173:
 3054              	.LBE1174:
 3055              	.LBE1178:
 3056              	.LBE1290:
 3057              	.LBB1291:
 3058              	.LBB1208:
 3059              	.LBB1205:
 3060              	.LBB1190:
 3061              	.LBB1189:
 3062              	.LBB1187:
 3063              	.LBI1187:
 239:../../libdaisy/src/dev/oled_ssd130x.h ****     {
 3064              		.loc 5 239 10 is_stmt 1 view .LVU781
 3065              	.LBB1188:
 246:../../libdaisy/src/dev/oled_ssd130x.h ****     }
 3066              		.loc 5 246 42 is_stmt 0 view .LVU782
 3067 076c 23F01003 		bic	r3, r3, #16
 3068 0770 84F86033 		strb	r3, [r4, #864]
 3069              	.LVL204:
 246:../../libdaisy/src/dev/oled_ssd130x.h ****     }
 3070              		.loc 5 246 42 view .LVU783
 3071              	.LBE1188:
 3072              	.LBE1187:
 3073              	.LBE1189:
 3074              	.LBE1190:
 3075              	.LBE1205:
 199:../../libdaisy/src/hid/disp/display.h ****         {
 3076              		.loc 6 199 26 is_stmt 1 view .LVU784
 3077              	.LBB1206:
  41:../../libdaisy/src/hid/disp/oled_display.h ****     {
 3078              		.loc 1 41 10 view .LVU785
 3079              	.LBB1202:
 239:../../libdaisy/src/dev/oled_ssd130x.h ****     {
 3080              		.loc 5 239 10 view .LVU786
 3081              	.LBB1199:
 3082              	.LBB1194:
 3083              	.LBI1194:
 239:../../libdaisy/src/dev/oled_ssd130x.h ****     {
 3084              		.loc 5 239 10 view .LVU787
 3085              	.LBB1195:
 246:../../libdaisy/src/dev/oled_ssd130x.h ****     }
 3086              		.loc 5 246 42 is_stmt 0 view .LVU788
 3087 0774 94F85E33 		ldrb	r3, [r4, #862]	@ zero_extendqisi2
 3088 0778 23F01003 		bic	r3, r3, #16
 3089 077c 84F85E33 		strb	r3, [r4, #862]
ARM GAS  C:\Users\VINCIU~1\AppData\Local\Temp\ccdS0pnQ.s 			page 80


 3090              	.LVL205:
 246:../../libdaisy/src/dev/oled_ssd130x.h ****     }
 3091              		.loc 5 246 42 view .LVU789
 3092              	.LBE1195:
 3093              	.LBE1194:
 3094              	.LBE1199:
 3095              	.LBE1202:
 3096              	.LBE1206:
 199:../../libdaisy/src/hid/disp/display.h ****         {
 3097              		.loc 6 199 26 is_stmt 1 view .LVU790
 3098              	.LBB1207:
  41:../../libdaisy/src/hid/disp/oled_display.h ****     {
 3099              		.loc 1 41 10 view .LVU791
 3100              	.LBB1203:
 239:../../libdaisy/src/dev/oled_ssd130x.h ****     {
 3101              		.loc 5 239 10 view .LVU792
 3102              	.LBB1200:
 3103              	.LBB1197:
 239:../../libdaisy/src/dev/oled_ssd130x.h ****     {
 3104              		.loc 5 239 10 view .LVU793
 3105              	.LBB1196:
 246:../../libdaisy/src/dev/oled_ssd130x.h ****     }
 3106              		.loc 5 246 42 is_stmt 0 view .LVU794
 3107 0780 94F85F33 		ldrb	r3, [r4, #863]	@ zero_extendqisi2
 3108 0784 23F01003 		bic	r3, r3, #16
 3109 0788 84F85F33 		strb	r3, [r4, #863]
 3110 078c E1E6     		b	.L99
 3111              	.LVL206:
 3112              	.L13:
 246:../../libdaisy/src/dev/oled_ssd130x.h ****     }
 3113              		.loc 5 246 42 view .LVU795
 3114              	.LBE1196:
 3115              	.LBE1197:
 3116              	.LBE1200:
 3117              	.LBE1203:
 3118              	.LBE1207:
 3119              	.LBE1208:
 3120              	.LBE1291:
 3121              	.LBB1292:
 3122              	.LBB747:
 3123              	.LBB745:
 3124              	.LBB717:
 3125              	.LBB716:
 3126              	.LBB715:
 3127              	.LBB713:
 3128              	.LBI713:
 239:../../libdaisy/src/dev/oled_ssd130x.h ****     {
 3129              		.loc 5 239 10 is_stmt 1 view .LVU796
 3130              	.LBB714:
 246:../../libdaisy/src/dev/oled_ssd130x.h ****     }
 3131              		.loc 5 246 42 is_stmt 0 view .LVU797
 3132 078e 07F0EF03 		and	r3, r7, #239
 3133 0792 74E4     		b	.L14
 3134              	.LVL207:
 3135              	.L18:
 246:../../libdaisy/src/dev/oled_ssd130x.h ****     }
 3136              		.loc 5 246 42 view .LVU798
ARM GAS  C:\Users\VINCIU~1\AppData\Local\Temp\ccdS0pnQ.s 			page 81


 3137              	.LBE714:
 3138              	.LBE713:
 3139              	.LBE715:
 3140              	.LBE716:
 3141              	.LBE717:
 3142              	.LBE745:
 3143              	.LBE747:
 3144              	.LBE1292:
 3145              	.LBB1293:
 3146              	.LBB774:
 3147              	.LBB771:
 3148              	.LBB758:
 3149              	.LBB757:
 3150              	.LBB755:
 3151              	.LBI755:
 239:../../libdaisy/src/dev/oled_ssd130x.h ****     {
 3152              		.loc 5 239 10 is_stmt 1 view .LVU799
 3153              	.LBB756:
 246:../../libdaisy/src/dev/oled_ssd130x.h ****     }
 3154              		.loc 5 246 42 is_stmt 0 view .LVU800
 3155 0794 07F0EF07 		and	r7, r7, #239
 3156 0798 99E4     		b	.L19
 3157              	.LVL208:
 3158              	.L36:
 246:../../libdaisy/src/dev/oled_ssd130x.h ****     }
 3159              		.loc 5 246 42 view .LVU801
 3160              	.LBE756:
 3161              	.LBE755:
 3162              	.LBE757:
 3163              	.LBE758:
 3164              	.LBE771:
 3165              	.LBE774:
 3166              	.LBE1293:
 3167              	.LBB1294:
 3168              	.LBB843:
 3169              	.LBB841:
 3170              	.LBB813:
 3171              	.LBB812:
 3172              	.LBB810:
 3173              	.LBI810:
 239:../../libdaisy/src/dev/oled_ssd130x.h ****     {
 3174              		.loc 5 239 10 is_stmt 1 view .LVU802
 3175              	.LBB811:
 246:../../libdaisy/src/dev/oled_ssd130x.h ****     }
 3176              		.loc 5 246 42 is_stmt 0 view .LVU803
 3177 079a 03F0EF03 		and	r3, r3, #239
 3178 079e 03E5     		b	.L37
 3179              	.LVL209:
 3180              	.L27:
 246:../../libdaisy/src/dev/oled_ssd130x.h ****     }
 3181              		.loc 5 246 42 view .LVU804
 3182              	.LBE811:
 3183              	.LBE810:
 3184              	.LBE812:
 3185              	.LBE813:
 3186              	.LBE841:
 3187              	.LBE843:
ARM GAS  C:\Users\VINCIU~1\AppData\Local\Temp\ccdS0pnQ.s 			page 82


 3188              	.LBE1294:
 3189              	.LBB1295:
 3190              	.LBB802:
 3191              	.LBB798:
 3192              	.LBB785:
 3193              	.LBB784:
 3194              	.LBB782:
 3195              	.LBI782:
 239:../../libdaisy/src/dev/oled_ssd130x.h ****     {
 3196              		.loc 5 239 10 is_stmt 1 view .LVU805
 3197              	.LBB783:
 246:../../libdaisy/src/dev/oled_ssd130x.h ****     }
 3198              		.loc 5 246 42 is_stmt 0 view .LVU806
 3199 07a0 02F0DF02 		and	r2, r2, #223
 3200 07a4 CCE4     		b	.L28
 3201              	.LVL210:
 3202              	.L41:
 246:../../libdaisy/src/dev/oled_ssd130x.h ****     }
 3203              		.loc 5 246 42 view .LVU807
 3204              	.LBE783:
 3205              	.LBE782:
 3206              	.LBE784:
 3207              	.LBE785:
 3208              	.LBE798:
 3209              	.LBE802:
 3210              	.LBE1295:
 3211              	.LBB1296:
 3212              	.LBB884:
 3213              	.LBB882:
 3214              	.LBB854:
 3215              	.LBB853:
 3216              	.LBB851:
 3217              	.LBI851:
 239:../../libdaisy/src/dev/oled_ssd130x.h ****     {
 3218              		.loc 5 239 10 is_stmt 1 view .LVU808
 3219              	.LBB852:
 246:../../libdaisy/src/dev/oled_ssd130x.h ****     }
 3220              		.loc 5 246 42 is_stmt 0 view .LVU809
 3221 07a6 03F0DF03 		and	r3, r3, #223
 3222 07aa 26E5     		b	.L42
 3223              	.LVL211:
 3224              	.L46:
 246:../../libdaisy/src/dev/oled_ssd130x.h ****     }
 3225              		.loc 5 246 42 view .LVU810
 3226              	.LBE852:
 3227              	.LBE851:
 3228              	.LBE853:
 3229              	.LBE854:
 3230              	.LBE882:
 3231              	.LBE884:
 3232              	.LBE1296:
 3233              	.LBB1297:
 3234              	.LBB914:
 3235              	.LBB913:
 3236              	.LBB895:
 3237              	.LBB894:
 3238              	.LBB892:
ARM GAS  C:\Users\VINCIU~1\AppData\Local\Temp\ccdS0pnQ.s 			page 83


 3239              	.LBI892:
 239:../../libdaisy/src/dev/oled_ssd130x.h ****     {
 3240              		.loc 5 239 10 is_stmt 1 view .LVU811
 3241              	.LBB893:
 246:../../libdaisy/src/dev/oled_ssd130x.h ****     }
 3242              		.loc 5 246 42 is_stmt 0 view .LVU812
 3243 07ac 03F0DF03 		and	r3, r3, #223
 3244 07b0 4DE5     		b	.L47
 3245              	.LVL212:
 3246              	.L51:
 246:../../libdaisy/src/dev/oled_ssd130x.h ****     }
 3247              		.loc 5 246 42 view .LVU813
 3248              	.LBE893:
 3249              	.LBE892:
 3250              	.LBE894:
 3251              	.LBE895:
 3252              	.LBE913:
 3253              	.LBE914:
 3254              	.LBE1297:
 3255              	.LBB1298:
 3256              	.LBB952:
 3257              	.LBB951:
 3258              	.LBB923:
 3259              	.LBB922:
 3260              	.LBB920:
 3261              	.LBI920:
 239:../../libdaisy/src/dev/oled_ssd130x.h ****     {
 3262              		.loc 5 239 10 is_stmt 1 view .LVU814
 3263              	.LBB921:
 246:../../libdaisy/src/dev/oled_ssd130x.h ****     }
 3264              		.loc 5 246 42 is_stmt 0 view .LVU815
 3265 07b2 03F0DF03 		and	r3, r3, #223
 3266 07b6 69E5     		b	.L52
 3267              	.LVL213:
 3268              	.L56:
 246:../../libdaisy/src/dev/oled_ssd130x.h ****     }
 3269              		.loc 5 246 42 view .LVU816
 3270              	.LBE921:
 3271              	.LBE920:
 3272              	.LBE922:
 3273              	.LBE923:
 3274              	.LBE951:
 3275              	.LBE952:
 3276              	.LBE1298:
 3277              	.LBB1299:
 3278              	.LBB991:
 3279              	.LBB989:
 3280              	.LBB961:
 3281              	.LBB960:
 3282              	.LBB958:
 3283              	.LBI958:
 239:../../libdaisy/src/dev/oled_ssd130x.h ****     {
 3284              		.loc 5 239 10 is_stmt 1 view .LVU817
 3285              	.LBB959:
 246:../../libdaisy/src/dev/oled_ssd130x.h ****     }
 3286              		.loc 5 246 42 is_stmt 0 view .LVU818
 3287 07b8 03F0EF03 		and	r3, r3, #239
ARM GAS  C:\Users\VINCIU~1\AppData\Local\Temp\ccdS0pnQ.s 			page 84


 3288 07bc 8EE5     		b	.L57
 3289              	.LVL214:
 3290              	.L70:
 246:../../libdaisy/src/dev/oled_ssd130x.h ****     }
 3291              		.loc 5 246 42 view .LVU819
 3292              	.LBE959:
 3293              	.LBE958:
 3294              	.LBE960:
 3295              	.LBE961:
 3296              	.LBE989:
 3297              	.LBE991:
 3298              	.LBE1299:
 3299              	.LBB1300:
 3300              	.LBB1059:
 3301              	.LBB1057:
 3302              	.LBB1029:
 3303              	.LBB1028:
 3304              	.LBB1026:
 3305              	.LBI1026:
 239:../../libdaisy/src/dev/oled_ssd130x.h ****     {
 3306              		.loc 5 239 10 is_stmt 1 view .LVU820
 3307              	.LBB1027:
 246:../../libdaisy/src/dev/oled_ssd130x.h ****     }
 3308              		.loc 5 246 42 is_stmt 0 view .LVU821
 3309 07be 02F0DF02 		and	r2, r2, #223
 3310 07c2 EDE5     		b	.L71
 3311              	.LVL215:
 3312              	.L61:
 246:../../libdaisy/src/dev/oled_ssd130x.h ****     }
 3313              		.loc 5 246 42 view .LVU822
 3314              	.LBE1027:
 3315              	.LBE1026:
 3316              	.LBE1028:
 3317              	.LBE1029:
 3318              	.LBE1057:
 3319              	.LBE1059:
 3320              	.LBE1300:
 3321              	.LBB1301:
 3322              	.LBB1018:
 3323              	.LBB1015:
 3324              	.LBB1002:
 3325              	.LBB1001:
 3326              	.LBB999:
 3327              	.LBI999:
 239:../../libdaisy/src/dev/oled_ssd130x.h ****     {
 3328              		.loc 5 239 10 is_stmt 1 view .LVU823
 3329              	.LBB1000:
 246:../../libdaisy/src/dev/oled_ssd130x.h ****     }
 3330              		.loc 5 246 42 is_stmt 0 view .LVU824
 3331 07c4 01F0EF01 		and	r1, r1, #239
 3332 07c8 B2E5     		b	.L62
 3333              	.LVL216:
 3334              	.L75:
 246:../../libdaisy/src/dev/oled_ssd130x.h ****     }
 3335              		.loc 5 246 42 view .LVU825
 3336              	.LBE1000:
 3337              	.LBE999:
ARM GAS  C:\Users\VINCIU~1\AppData\Local\Temp\ccdS0pnQ.s 			page 85


 3338              	.LBE1001:
 3339              	.LBE1002:
 3340              	.LBE1015:
 3341              	.LBE1018:
 3342              	.LBE1301:
 3343              	.LBB1302:
 3344              	.LBB1099:
 3345              	.LBB1098:
 3346              	.LBB1070:
 3347              	.LBB1069:
 3348              	.LBB1067:
 3349              	.LBI1067:
 239:../../libdaisy/src/dev/oled_ssd130x.h ****     {
 3350              		.loc 5 239 10 is_stmt 1 view .LVU826
 3351              	.LBB1068:
 246:../../libdaisy/src/dev/oled_ssd130x.h ****     }
 3352              		.loc 5 246 42 is_stmt 0 view .LVU827
 3353 07ca 02F0DF02 		and	r2, r2, #223
 3354 07ce 11E6     		b	.L76
 3355              	.LVL217:
 3356              	.L80:
 246:../../libdaisy/src/dev/oled_ssd130x.h ****     }
 3357              		.loc 5 246 42 view .LVU828
 3358              	.LBE1068:
 3359              	.LBE1067:
 3360              	.LBE1069:
 3361              	.LBE1070:
 3362              	.LBE1098:
 3363              	.LBE1099:
 3364              	.LBE1302:
 3365              	.LBB1303:
 3366              	.LBB1126:
 3367              	.LBB1123:
 3368              	.LBB1108:
 3369              	.LBB1107:
 3370              	.LBB1105:
 3371              	.LBI1105:
 239:../../libdaisy/src/dev/oled_ssd130x.h ****     {
 3372              		.loc 5 239 10 is_stmt 1 view .LVU829
 3373              	.LBB1106:
 246:../../libdaisy/src/dev/oled_ssd130x.h ****     }
 3374              		.loc 5 246 42 is_stmt 0 view .LVU830
 3375 07d0 22F02002 		bic	r2, r2, #32
 3376 07d4 84F86022 		strb	r2, [r4, #608]
 3377              	.LVL218:
 246:../../libdaisy/src/dev/oled_ssd130x.h ****     }
 3378              		.loc 5 246 42 view .LVU831
 3379              	.LBE1106:
 3380              	.LBE1105:
 3381              	.LBE1107:
 3382              	.LBE1108:
 3383              	.LBE1123:
 199:../../libdaisy/src/hid/disp/display.h ****         {
 3384              		.loc 6 199 26 is_stmt 1 view .LVU832
 3385              	.LBB1124:
  41:../../libdaisy/src/hid/disp/oled_display.h ****     {
 3386              		.loc 1 41 10 view .LVU833
ARM GAS  C:\Users\VINCIU~1\AppData\Local\Temp\ccdS0pnQ.s 			page 86


 3387              	.LBB1120:
 239:../../libdaisy/src/dev/oled_ssd130x.h ****     {
 3388              		.loc 5 239 10 view .LVU834
 3389              	.LBB1117:
 3390              	.LBB1112:
 3391              	.LBI1112:
 239:../../libdaisy/src/dev/oled_ssd130x.h ****     {
 3392              		.loc 5 239 10 view .LVU835
 3393              	.LBB1113:
 246:../../libdaisy/src/dev/oled_ssd130x.h ****     }
 3394              		.loc 5 246 42 is_stmt 0 view .LVU836
 3395 07d8 94F85E22 		ldrb	r2, [r4, #606]	@ zero_extendqisi2
 3396 07dc 22F02002 		bic	r2, r2, #32
 3397 07e0 84F85E22 		strb	r2, [r4, #606]
 3398              	.LVL219:
 246:../../libdaisy/src/dev/oled_ssd130x.h ****     }
 3399              		.loc 5 246 42 view .LVU837
 3400              	.LBE1113:
 3401              	.LBE1112:
 3402              	.LBE1117:
 3403              	.LBE1120:
 3404              	.LBE1124:
 199:../../libdaisy/src/hid/disp/display.h ****         {
 3405              		.loc 6 199 26 is_stmt 1 view .LVU838
 3406              	.LBB1125:
  41:../../libdaisy/src/hid/disp/oled_display.h ****     {
 3407              		.loc 1 41 10 view .LVU839
 3408              	.LBB1121:
 239:../../libdaisy/src/dev/oled_ssd130x.h ****     {
 3409              		.loc 5 239 10 view .LVU840
 3410              	.LBB1118:
 3411              	.LBB1115:
 239:../../libdaisy/src/dev/oled_ssd130x.h ****     {
 3412              		.loc 5 239 10 view .LVU841
 3413              	.LBB1114:
 246:../../libdaisy/src/dev/oled_ssd130x.h ****     }
 3414              		.loc 5 246 42 is_stmt 0 view .LVU842
 3415 07e4 94F85F22 		ldrb	r2, [r4, #607]	@ zero_extendqisi2
 3416 07e8 22F02002 		bic	r2, r2, #32
 3417 07ec 84F85F22 		strb	r2, [r4, #607]
 3418              	.LVL220:
 246:../../libdaisy/src/dev/oled_ssd130x.h ****     }
 3419              		.loc 5 246 42 view .LVU843
 3420              	.LBE1114:
 3421              	.LBE1115:
 3422              	.LBE1118:
 3423              	.LBE1121:
 3424              	.LBE1125:
 199:../../libdaisy/src/hid/disp/display.h ****         {
 3425              		.loc 6 199 26 is_stmt 1 view .LVU844
 199:../../libdaisy/src/hid/disp/display.h ****         {
 3426              		.loc 6 199 26 is_stmt 0 view .LVU845
 3427              	.LBE1126:
 3428              	.LBE1303:
 150:Menus.cpp     ****     screen.DrawLine(screen.Width()/2-10+22,44,screen.Width()/2-10+20,52,!colorTemplate);
 3429              		.loc 2 150 5 is_stmt 1 view .LVU846
 3430              	.LBB1304:
ARM GAS  C:\Users\VINCIU~1\AppData\Local\Temp\ccdS0pnQ.s 			page 87


 181:../../libdaisy/src/hid/disp/display.h ****                   uint_fast8_t y1,
 3431              		.loc 6 181 10 view .LVU847
 3432              	.LBB1151:
 3433              	.LBB1148:
  41:../../libdaisy/src/hid/disp/oled_display.h ****     {
 3434              		.loc 1 41 10 view .LVU848
 3435              	.LBB1135:
 239:../../libdaisy/src/dev/oled_ssd130x.h ****     {
 3436              		.loc 5 239 10 view .LVU849
 3437              	.LBB1134:
 3438              	.LBB1132:
 3439              	.LBI1132:
 239:../../libdaisy/src/dev/oled_ssd130x.h ****     {
 3440              		.loc 5 239 10 view .LVU850
 3441              	.LBB1133:
 246:../../libdaisy/src/dev/oled_ssd130x.h ****     }
 3442              		.loc 5 246 42 is_stmt 0 view .LVU851
 3443 07f0 94F8E022 		ldrb	r2, [r4, #736]	@ zero_extendqisi2
 3444 07f4 02F0EF02 		and	r2, r2, #239
 3445 07f8 36E6     		b	.L81
 3446              	.LVL221:
 3447              	.L89:
 246:../../libdaisy/src/dev/oled_ssd130x.h ****     }
 3448              		.loc 5 246 42 view .LVU852
 3449              	.LBE1133:
 3450              	.LBE1132:
 3451              	.LBE1134:
 3452              	.LBE1135:
 3453              	.LBE1148:
 3454              	.LBE1151:
 3455              	.LBE1304:
 3456              	.LBB1305:
 3457              	.LBB1179:
 3458              	.LBB1175:
 3459              	.LBB1162:
 3460              	.LBB1161:
 3461              	.LBB1159:
 3462              	.LBI1159:
 239:../../libdaisy/src/dev/oled_ssd130x.h ****     {
 3463              		.loc 5 239 10 is_stmt 1 view .LVU853
 3464              	.LBB1160:
 246:../../libdaisy/src/dev/oled_ssd130x.h ****     }
 3465              		.loc 5 246 42 is_stmt 0 view .LVU854
 3466 07fa 03F0EF03 		and	r3, r3, #239
 3467 07fe 66E6     		b	.L90
 3468              	.L167:
 3469              		.align	3
 3470              	.L166:
 3471 0800 9A999999 		.word	-1717986918
 3472 0804 9999B93F 		.word	1069128089
 3473 0808 00000042 		.word	1107296256
 3474 080c 00008042 		.word	1115684864
 3475              	.LBE1160:
 3476              	.LBE1159:
 3477              	.LBE1161:
 3478              	.LBE1162:
 3479              	.LBE1175:
ARM GAS  C:\Users\VINCIU~1\AppData\Local\Temp\ccdS0pnQ.s 			page 88


 3480              	.LBE1179:
 3481              	.LBE1305:
 3482              		.cfi_endproc
 3483              	.LFE4037:
 3485              		.section	.text._ZN5Menus10WaveSelectEf,"ax",%progbits
 3486              		.align	1
 3487              		.p2align 2,,3
 3488              		.global	_ZN5Menus10WaveSelectEf
 3489              		.syntax unified
 3490              		.thumb
 3491              		.thumb_func
 3492              		.fpu fpv5-d16
 3494              	_ZN5Menus10WaveSelectEf:
 3495              	.LVL222:
 3496              	.LFB4038:
 163:Menus.cpp     **** 
 164:Menus.cpp     **** 
 165:Menus.cpp     **** int Menus::WaveSelect(float select)
 166:Menus.cpp     **** {
 3497              		.loc 2 166 1 is_stmt 1 view -0
 3498              		.cfi_startproc
 3499              		@ args = 0, pretend = 0, frame = 0
 3500              		@ frame_needed = 0, uses_anonymous_args = 0
 3501              		@ link register save eliminated.
 167:Menus.cpp     ****     this->stateWave += this->encoderRight.Increment();
 3502              		.loc 2 167 5 view .LVU856
 3503              		.loc 2 167 21 is_stmt 0 view .LVU857
 3504 0000 D0F88431 		ldr	r3, [r0, #388]
 166:Menus.cpp     ****     this->stateWave += this->encoderRight.Increment();
 3505              		.loc 2 166 1 view .LVU858
 3506 0004 0246     		mov	r2, r0
 3507              	.LVL223:
 3508              	.LBB1306:
 3509              	.LBI1306:
  21:../../libdaisy/src/hid/encoder.h ****     ~Encoder() {}
  22:../../libdaisy/src/hid/encoder.h **** 
  23:../../libdaisy/src/hid/encoder.h ****     /** Initializes the encoder with the specified hardware pins.
  24:../../libdaisy/src/hid/encoder.h **** */
  25:../../libdaisy/src/hid/encoder.h ****     //
  26:../../libdaisy/src/hid/encoder.h ****     /** Update rate should be the rate at which Debounce() gets called
  27:../../libdaisy/src/hid/encoder.h **** in Hertz.
  28:../../libdaisy/src/hid/encoder.h **** */
  29:../../libdaisy/src/hid/encoder.h ****     //
  30:../../libdaisy/src/hid/encoder.h ****     void
  31:../../libdaisy/src/hid/encoder.h ****     Init(dsy_gpio_pin a, dsy_gpio_pin b, dsy_gpio_pin click, float update_rate);
  32:../../libdaisy/src/hid/encoder.h ****     /** Called at update_rate to debounce and handle timing for the switch.
  33:../../libdaisy/src/hid/encoder.h **** */
  34:../../libdaisy/src/hid/encoder.h ****     //
  35:../../libdaisy/src/hid/encoder.h ****     /** In order for events not to be missed, its important that the Edge/Pressed checks
  36:../../libdaisy/src/hid/encoder.h **** be made at the same rate as the debounce function is being called.
  37:../../libdaisy/src/hid/encoder.h **** */
  38:../../libdaisy/src/hid/encoder.h ****     void Debounce();
  39:../../libdaisy/src/hid/encoder.h ****     /** Returns +1 if the encoder was turned clockwise, -1 if it was turned counter-clockwise, or 0
  40:../../libdaisy/src/hid/encoder.h **** */
  41:../../libdaisy/src/hid/encoder.h ****     inline int32_t Increment() const { return inc_; }
 3510              		.loc 3 41 20 is_stmt 1 view .LVU859
 3511              	.LBB1307:
ARM GAS  C:\Users\VINCIU~1\AppData\Local\Temp\ccdS0pnQ.s 			page 89


 3512              		.loc 3 41 40 view .LVU860
 3513              		.loc 3 41 40 is_stmt 0 view .LVU861
 3514              	.LBE1307:
 3515              	.LBE1306:
 3516              		.loc 2 167 21 view .LVU862
 3517 0006 806C     		ldr	r0, [r0, #72]
 3518              	.LVL224:
 3519              		.loc 2 167 21 view .LVU863
 3520 0008 1844     		add	r0, r0, r3
 168:Menus.cpp     ****     int state;
 3521              		.loc 2 168 5 is_stmt 1 view .LVU864
 169:Menus.cpp     ****     if(this->stateWave > 3)
 3522              		.loc 2 169 5 view .LVU865
 3523 000a 0328     		cmp	r0, #3
 3524 000c 04DD     		ble	.L169
 170:Menus.cpp     ****     {
 171:Menus.cpp     ****         this->stateWave = 3;
 3525              		.loc 2 171 9 view .LVU866
 3526              		.loc 2 171 25 is_stmt 0 view .LVU867
 3527 000e 0323     		movs	r3, #3
 172:Menus.cpp     ****     }
 173:Menus.cpp     ****     if(this->stateWave < 0)
 174:Menus.cpp     ****     {
 175:Menus.cpp     ****         this->stateWave = 0;
 176:Menus.cpp     ****     }
 177:Menus.cpp     **** 
 178:Menus.cpp     ****     if(this->stateWave == 0)
 179:Menus.cpp     ****     {
 180:Menus.cpp     ****         state = 0;
 181:Menus.cpp     ****         return state;
 182:Menus.cpp     ****     }
 183:Menus.cpp     ****     else if(this->stateWave == 1)
 184:Menus.cpp     ****     {
 185:Menus.cpp     ****         state = 1;
 186:Menus.cpp     ****         return state;
 187:Menus.cpp     ****     }
 188:Menus.cpp     ****     else if(this->stateWave == 2)
 189:Menus.cpp     ****     {
 190:Menus.cpp     ****         state = 2;
 191:Menus.cpp     ****         return state;
 192:Menus.cpp     ****     }
 193:Menus.cpp     ****     else if(this->stateWave == 3)
 194:Menus.cpp     ****     {
 195:Menus.cpp     ****         state = 3;
 196:Menus.cpp     ****         return state;
 3528              		.loc 2 196 16 view .LVU868
 3529 0010 1846     		mov	r0, r3
 171:Menus.cpp     ****     }
 3530              		.loc 2 171 25 view .LVU869
 3531 0012 C2F88431 		str	r3, [r2, #388]
 173:Menus.cpp     ****     {
 3532              		.loc 2 173 5 is_stmt 1 view .LVU870
 178:Menus.cpp     ****     {
 3533              		.loc 2 178 5 view .LVU871
 183:Menus.cpp     ****     {
 3534              		.loc 2 183 10 view .LVU872
 3535 0016 7047     		bx	lr
ARM GAS  C:\Users\VINCIU~1\AppData\Local\Temp\ccdS0pnQ.s 			page 90


 3536              	.L169:
 173:Menus.cpp     ****     {
 3537              		.loc 2 173 5 view .LVU873
 3538 0018 0028     		cmp	r0, #0
 3539 001a 04DA     		bge	.L171
 175:Menus.cpp     ****     }
 3540              		.loc 2 175 9 view .LVU874
 175:Menus.cpp     ****     }
 3541              		.loc 2 175 25 is_stmt 0 view .LVU875
 3542 001c 0023     		movs	r3, #0
 181:Menus.cpp     ****     }
 3543              		.loc 2 181 16 view .LVU876
 3544 001e 1846     		mov	r0, r3
 175:Menus.cpp     ****     }
 3545              		.loc 2 175 25 view .LVU877
 3546 0020 C2F88431 		str	r3, [r2, #388]
 178:Menus.cpp     ****     {
 3547              		.loc 2 178 5 is_stmt 1 view .LVU878
 3548 0024 7047     		bx	lr
 3549              	.L171:
 167:Menus.cpp     ****     int state;
 3550              		.loc 2 167 21 is_stmt 0 view .LVU879
 3551 0026 C2F88401 		str	r0, [r2, #388]
 178:Menus.cpp     ****     {
 3552              		.loc 2 178 5 is_stmt 1 view .LVU880
 3553 002a 04D0     		beq	.L168
 183:Menus.cpp     ****     {
 3554              		.loc 2 183 10 view .LVU881
 3555 002c 0128     		cmp	r0, #1
 3556 002e 02D0     		beq	.L168
 188:Menus.cpp     ****     {
 3557              		.loc 2 188 10 view .LVU882
 3558              		.loc 2 196 16 is_stmt 0 view .LVU883
 3559 0030 0228     		cmp	r0, #2
 3560 0032 18BF     		it	ne
 3561 0034 0320     		movne	r0, #3
 3562              	.L168:
 197:Menus.cpp     ****     }
 198:Menus.cpp     **** }
 3563              		.loc 2 198 1 view .LVU884
 3564 0036 7047     		bx	lr
 3565              		.cfi_endproc
 3566              	.LFE4038:
 3568              		.section	.text._ZN5Menus9OscSelectEf,"ax",%progbits
 3569              		.align	1
 3570              		.p2align 2,,3
 3571              		.global	_ZN5Menus9OscSelectEf
 3572              		.syntax unified
 3573              		.thumb
 3574              		.thumb_func
 3575              		.fpu fpv5-d16
 3577              	_ZN5Menus9OscSelectEf:
 3578              	.LVL225:
 3579              	.LFB4039:
 199:Menus.cpp     **** 
 200:Menus.cpp     **** bool Menus::OscSelect(float select)
 201:Menus.cpp     **** {
ARM GAS  C:\Users\VINCIU~1\AppData\Local\Temp\ccdS0pnQ.s 			page 91


 3580              		.loc 2 201 1 is_stmt 1 view -0
 3581              		.cfi_startproc
 3582              		@ args = 0, pretend = 0, frame = 0
 3583              		@ frame_needed = 0, uses_anonymous_args = 0
 3584              		@ link register save eliminated.
 202:Menus.cpp     ****     this->state += this->encoderRight.Increment();
 3585              		.loc 2 202 5 view .LVU886
 3586              		.loc 2 202 17 is_stmt 0 view .LVU887
 3587 0000 D0F88021 		ldr	r2, [r0, #384]
 201:Menus.cpp     ****     this->state += this->encoderRight.Increment();
 3588              		.loc 2 201 1 view .LVU888
 3589 0004 0346     		mov	r3, r0
 3590              	.LVL226:
 3591              	.LBB1308:
 3592              	.LBI1308:
 3593              		.loc 3 41 20 is_stmt 1 view .LVU889
 3594              	.LBB1309:
 3595              		.loc 3 41 40 view .LVU890
 3596              		.loc 3 41 40 is_stmt 0 view .LVU891
 3597              	.LBE1309:
 3598              	.LBE1308:
 3599              		.loc 2 202 17 view .LVU892
 3600 0006 816C     		ldr	r1, [r0, #72]
 3601 0008 0A44     		add	r2, r2, r1
 203:Menus.cpp     ****     if(this->state > 1)
 3602              		.loc 2 203 5 is_stmt 1 view .LVU893
 3603 000a 012A     		cmp	r2, #1
 3604 000c 04DD     		ble	.L181
 3605              	.L177:
 204:Menus.cpp     ****     {
 205:Menus.cpp     ****         this->state = 1;
 206:Menus.cpp     ****     }
 207:Menus.cpp     ****     if(this->state < 0)
 208:Menus.cpp     ****     {
 209:Menus.cpp     ****         this->state = 0;
 210:Menus.cpp     ****     }
 211:Menus.cpp     **** 
 212:Menus.cpp     **** 
 213:Menus.cpp     ****     if(this->state == 1)
 214:Menus.cpp     ****     {
 215:Menus.cpp     ****         state = true;
 3606              		.loc 2 215 15 is_stmt 0 view .LVU894
 3607 000e 0122     		movs	r2, #1
 216:Menus.cpp     ****         return state;
 3608              		.loc 2 216 16 view .LVU895
 3609 0010 1046     		mov	r0, r2
 3610              	.LVL227:
 3611              		.loc 2 216 16 view .LVU896
 3612 0012 C3F88021 		str	r2, [r3, #384]
 217:Menus.cpp     ****     }
 218:Menus.cpp     ****     else
 219:Menus.cpp     ****     {
 220:Menus.cpp     ****         state = false;
 221:Menus.cpp     ****         return state;
 222:Menus.cpp     ****     }
 223:Menus.cpp     **** }
 3613              		.loc 2 223 1 view .LVU897
ARM GAS  C:\Users\VINCIU~1\AppData\Local\Temp\ccdS0pnQ.s 			page 92


 3614 0016 7047     		bx	lr
 3615              	.LVL228:
 3616              	.L181:
 207:Menus.cpp     ****     {
 3617              		.loc 2 207 5 is_stmt 1 view .LVU898
 3618 0018 002A     		cmp	r2, #0
 3619 001a 04DA     		bge	.L182
 3620              	.L180:
 220:Menus.cpp     ****         return state;
 3621              		.loc 2 220 15 is_stmt 0 view .LVU899
 3622 001c 0022     		movs	r2, #0
 221:Menus.cpp     ****     }
 3623              		.loc 2 221 16 view .LVU900
 3624 001e 1046     		mov	r0, r2
 3625              	.LVL229:
 221:Menus.cpp     ****     }
 3626              		.loc 2 221 16 view .LVU901
 3627 0020 C3F88021 		str	r2, [r3, #384]
 3628              		.loc 2 223 1 view .LVU902
 3629 0024 7047     		bx	lr
 3630              	.LVL230:
 3631              	.L182:
 213:Menus.cpp     ****     {
 3632              		.loc 2 213 5 view .LVU903
 3633 0026 012A     		cmp	r2, #1
 202:Menus.cpp     ****     if(this->state > 1)
 3634              		.loc 2 202 17 view .LVU904
 3635 0028 C0F88021 		str	r2, [r0, #384]
 213:Menus.cpp     ****     {
 3636              		.loc 2 213 5 is_stmt 1 view .LVU905
 3637 002c EFD0     		beq	.L177
 3638 002e F5E7     		b	.L180
 3639              		.cfi_endproc
 3640              	.LFE4039:
 3642              		.section	.text._ZN5Menus5Menu4E23OledDisplayExtravaganzaNS_8oscVoiceERN7daisysp4AdsrE,"ax",%progbi
 3643              		.align	1
 3644              		.p2align 2,,3
 3645              		.global	_ZN5Menus5Menu4E23OledDisplayExtravaganzaNS_8oscVoiceERN7daisysp4AdsrE
 3646              		.syntax unified
 3647              		.thumb
 3648              		.thumb_func
 3649              		.fpu fpv5-d16
 3651              	_ZN5Menus5Menu4E23OledDisplayExtravaganzaNS_8oscVoiceERN7daisysp4AdsrE:
 3652              	.LVL231:
 3653              	.LFB4043:
 224:Menus.cpp     **** 
 225:Menus.cpp     **** void Menus::Menu1(OledDisplayExtravaganza screen, oscVoice& osc)
 226:Menus.cpp     **** 
 227:Menus.cpp     **** {
 228:Menus.cpp     ****     screen.Fill(!on);
 229:Menus.cpp     ****     if(this->buttonLeft.RisingEdge())
 230:Menus.cpp     **** 
 231:Menus.cpp     ****     {
 232:Menus.cpp     ****         menuState = menuState - 1;
 233:Menus.cpp     ****         if(menuState < 0)
 234:Menus.cpp     ****         {
 235:Menus.cpp     ****             menuState = 3;
ARM GAS  C:\Users\VINCIU~1\AppData\Local\Temp\ccdS0pnQ.s 			page 93


 236:Menus.cpp     ****         }
 237:Menus.cpp     ****     }
 238:Menus.cpp     ****     if(this->buttonRight.RisingEdge())
 239:Menus.cpp     **** 
 240:Menus.cpp     ****     {
 241:Menus.cpp     ****         menuState = menuState + 1;
 242:Menus.cpp     ****         if(menuState > 3)
 243:Menus.cpp     ****         {
 244:Menus.cpp     ****             menuState = 0;
 245:Menus.cpp     ****         }
 246:Menus.cpp     ****     }
 247:Menus.cpp     **** 
 248:Menus.cpp     ****     screen.drawHorizontalToggle(46, 13, 8, on, this->OscSelector, "");
 249:Menus.cpp     **** 
 250:Menus.cpp     ****     if(this->OscSelector == true)
 251:Menus.cpp     ****     {
 252:Menus.cpp     ****         screen.drawSlider(70, 7, 50, 3, on, ((this->drawSliderSemi)) / 40);
 253:Menus.cpp     ****         screen.drawSlider(70, 40, 50, 3, on, drawSliderFine);
 254:Menus.cpp     ****         screen.drawVerticalToggle(13, 51, 8, on, this->toggleOsc, "");
 255:Menus.cpp     ****         screen.WaveIcons(35, 42, 55, this->selectedWave, on);
 256:Menus.cpp     ****         screen.SetCursor(70, 17);
 257:Menus.cpp     ****         screen.WriteString(this->buff, Font_6x8, true);
 258:Menus.cpp     ****         screen.SetCursor(70, 50);
 259:Menus.cpp     ****         screen.WriteString(this->buffFine, Font_6x8, true);
 260:Menus.cpp     ****     }
 261:Menus.cpp     ****     else
 262:Menus.cpp     ****     {
 263:Menus.cpp     ****         screen.drawSlider(70, 7, 50, 3, false, (this->drawSliderSemi2) / 40);
 264:Menus.cpp     ****         screen.drawSlider(70, 40, 50, 3, false, drawSliderFine2);
 265:Menus.cpp     ****         screen.drawVerticalToggle(13, 51, 8, false, this->toggleOsc2, "");
 266:Menus.cpp     ****         screen.WaveIcons(35, 42, 55, this->selectedWave2, false);
 267:Menus.cpp     ****         screen.SetCursor(70, 17);
 268:Menus.cpp     ****         screen.WriteString(this->buff2, Font_6x8, false);
 269:Menus.cpp     ****         screen.SetCursor(70, 50);
 270:Menus.cpp     ****         screen.WriteString(this->buffFine2, Font_6x8, false);
 271:Menus.cpp     ****     }
 272:Menus.cpp     **** 
 273:Menus.cpp     **** 
 274:Menus.cpp     ****     screen.SetCursor(4, 8);
 275:Menus.cpp     ****     screen.WriteString("Osc", Font_7x10, on);
 276:Menus.cpp     **** 
 277:Menus.cpp     **** 
 278:Menus.cpp     ****     for(int i = 0; i < screen.Width(); i++)
 279:Menus.cpp     ****     {
 280:Menus.cpp     ****         screen.DrawPixel(i * 3, (screen.Height() / 2) - 3, on);
 281:Menus.cpp     ****     }
 282:Menus.cpp     ****     for(int i = 0; i < screen.Height(); i++)
 283:Menus.cpp     ****     {
 284:Menus.cpp     ****         screen.DrawPixel(60, i * 2, on);
 285:Menus.cpp     ****     }
 286:Menus.cpp     ****     for(int i = screen.Height() / 4 - 1; i < screen.Height(); i++)
 287:Menus.cpp     ****     {
 288:Menus.cpp     ****         screen.DrawPixel(29, i * 2, on);
 289:Menus.cpp     ****     }
 290:Menus.cpp     **** 
 291:Menus.cpp     ****     if(encoderLeft.RisingEdge())
 292:Menus.cpp     ****     {
ARM GAS  C:\Users\VINCIU~1\AppData\Local\Temp\ccdS0pnQ.s 			page 94


 293:Menus.cpp     ****         this->OscSelector = !this->OscSelector;
 294:Menus.cpp     ****         on                = this->OscSelector;
 295:Menus.cpp     ****     }
 296:Menus.cpp     ****     else if(menuState == 0)
 297:Menus.cpp     ****     {
 298:Menus.cpp     ****         if(this->OscSelector == true)
 299:Menus.cpp     ****         {
 300:Menus.cpp     ****             if(this->noteSemiAdd > 32)
 301:Menus.cpp     ****             {
 302:Menus.cpp     ****                 this->noteSemiAdd = 32;
 303:Menus.cpp     ****             }
 304:Menus.cpp     ****             if(this->noteSemiAdd < 0)
 305:Menus.cpp     ****             {
 306:Menus.cpp     ****                 this->noteSemiAdd = 0;
 307:Menus.cpp     ****             }
 308:Menus.cpp     ****             if(this->drawSliderSemi >= 40)
 309:Menus.cpp     ****             {
 310:Menus.cpp     ****                 this->drawSliderSemi = 40;
 311:Menus.cpp     ****             }
 312:Menus.cpp     ****             if(this->drawSliderSemi < 0)
 313:Menus.cpp     ****             {
 314:Menus.cpp     ****                 this->drawSliderSemi = 0;
 315:Menus.cpp     ****             }
 316:Menus.cpp     ****             this->noteSemiAdd += this->encoderRight.Increment();
 317:Menus.cpp     ****             this->drawSliderSemi
 318:Menus.cpp     ****                 += (((float)this->encoderRight.Increment()) / 32) * 40;
 319:Menus.cpp     ****             sprintf(this->buff, "Semi_%dst", this->noteSemiAdd);
 320:Menus.cpp     ****         }
 321:Menus.cpp     ****         else
 322:Menus.cpp     ****         {
 323:Menus.cpp     ****             if(this->noteSemiAdd2 > 32)
 324:Menus.cpp     ****             {
 325:Menus.cpp     ****                 this->noteSemiAdd2 = 32;
 326:Menus.cpp     ****             }
 327:Menus.cpp     ****             if(this->noteSemiAdd2 < 0)
 328:Menus.cpp     ****             {
 329:Menus.cpp     ****                 this->noteSemiAdd2 = 0;
 330:Menus.cpp     ****             }
 331:Menus.cpp     ****             if(this->drawSliderSemi2 >= 40)
 332:Menus.cpp     ****             {
 333:Menus.cpp     ****                 this->drawSliderSemi2 = 40;
 334:Menus.cpp     ****             }
 335:Menus.cpp     ****             if(this->drawSliderSemi2 < 0)
 336:Menus.cpp     ****             {
 337:Menus.cpp     ****                 this->drawSliderSemi2 = 0;
 338:Menus.cpp     ****             }
 339:Menus.cpp     ****             this->noteSemiAdd2 += (float)this->encoderRight.Increment();
 340:Menus.cpp     ****             this->drawSliderSemi2
 341:Menus.cpp     ****                 += (((float)this->encoderRight.Increment()) / 32) * 40;
 342:Menus.cpp     ****             sprintf(this->buff2, "Semi_%dst", this->noteSemiAdd2);
 343:Menus.cpp     ****         }
 344:Menus.cpp     **** 
 345:Menus.cpp     **** 
 346:Menus.cpp     ****         screen.DrawRect(
 347:Menus.cpp     ****             60, 0, screen.Width() - 1, screen.Height() / 2 - 3, on, false);
 348:Menus.cpp     ****     }
 349:Menus.cpp     ****     else if(menuState == 1)
ARM GAS  C:\Users\VINCIU~1\AppData\Local\Temp\ccdS0pnQ.s 			page 95


 350:Menus.cpp     ****     {
 351:Menus.cpp     ****         if(this->OscSelector == true)
 352:Menus.cpp     **** 
 353:Menus.cpp     ****         {
 354:Menus.cpp     ****             if(this->encoderRight.Increment() == 1)
 355:Menus.cpp     ****             {
 356:Menus.cpp     ****                 synthOn         = 1;
 357:Menus.cpp     ****                 this->toggleOsc = false;
 358:Menus.cpp     ****             }
 359:Menus.cpp     ****             if(this->encoderRight.Increment() == -1)
 360:Menus.cpp     ****             {
 361:Menus.cpp     ****                 synthOn         = 0;
 362:Menus.cpp     ****                 this->toggleOsc = true;
 363:Menus.cpp     ****             }
 364:Menus.cpp     ****         }
 365:Menus.cpp     ****         else
 366:Menus.cpp     ****         {
 367:Menus.cpp     ****             if(this->encoderRight.Increment() == 1)
 368:Menus.cpp     ****             {
 369:Menus.cpp     ****                 synthOn2         = 1;
 370:Menus.cpp     ****                 this->toggleOsc2 = false;
 371:Menus.cpp     ****             }
 372:Menus.cpp     ****             if(this->encoderRight.Increment() == -1)
 373:Menus.cpp     ****             {
 374:Menus.cpp     ****                 synthOn2         = 0;
 375:Menus.cpp     ****                 this->toggleOsc2 = true;
 376:Menus.cpp     ****             }
 377:Menus.cpp     ****         }
 378:Menus.cpp     **** 
 379:Menus.cpp     ****         screen.DrawRect(
 380:Menus.cpp     ****             0, screen.Height() / 2 - 3, 29, screen.Height() - 1, on, false);
 381:Menus.cpp     ****     }
 382:Menus.cpp     ****     else if(menuState == 2)
 383:Menus.cpp     ****     {
 384:Menus.cpp     ****         if(this->OscSelector == true)
 385:Menus.cpp     ****         {
 386:Menus.cpp     ****             this->setWave += this->encoderRight.Increment();
 387:Menus.cpp     ****             if(setWave > 3)
 388:Menus.cpp     ****             {
 389:Menus.cpp     ****                 this->setWave = 3;
 390:Menus.cpp     ****             }
 391:Menus.cpp     ****             if(this->setWave < 0)
 392:Menus.cpp     ****             {
 393:Menus.cpp     ****                 this->setWave = 0;
 394:Menus.cpp     ****             }
 395:Menus.cpp     ****             if(this->setWave == 0)
 396:Menus.cpp     ****             {
 397:Menus.cpp     ****                 for(int i = 0; i < 2; i++)
 398:Menus.cpp     ****                 {
 399:Menus.cpp     ****                     selectedWave = setWave;
 400:Menus.cpp     ****                     osc.osc1.SetWaveform(osc.osc1.WAVE_SIN);
 401:Menus.cpp     ****                 }
 402:Menus.cpp     ****             }
 403:Menus.cpp     ****             else if(setWave == 1)
 404:Menus.cpp     ****             {
 405:Menus.cpp     ****                 for(int i = 0; i < 2; i++)
 406:Menus.cpp     ****                 {
ARM GAS  C:\Users\VINCIU~1\AppData\Local\Temp\ccdS0pnQ.s 			page 96


 407:Menus.cpp     ****                     selectedWave = setWave;
 408:Menus.cpp     ****                     osc.osc1.SetWaveform(osc.osc1.WAVE_TRI);
 409:Menus.cpp     ****                 }
 410:Menus.cpp     ****             }
 411:Menus.cpp     ****             else if(setWave == 2)
 412:Menus.cpp     ****             {
 413:Menus.cpp     ****                 for(int i = 0; i < 2; i++)
 414:Menus.cpp     ****                 {
 415:Menus.cpp     ****                     selectedWave = setWave;
 416:Menus.cpp     ****                     osc.osc1.SetWaveform(osc.osc1.WAVE_SQUARE);
 417:Menus.cpp     ****                 }
 418:Menus.cpp     ****             }
 419:Menus.cpp     ****             else if(setWave == 3)
 420:Menus.cpp     ****             {
 421:Menus.cpp     ****                 for(int i = 0; i < 2; i++)
 422:Menus.cpp     ****                 {
 423:Menus.cpp     ****                     selectedWave = setWave;
 424:Menus.cpp     ****                     osc.osc1.SetWaveform(osc.osc1.WAVE_SAW);
 425:Menus.cpp     ****                 }
 426:Menus.cpp     ****             }
 427:Menus.cpp     ****         }
 428:Menus.cpp     ****         {
 429:Menus.cpp     ****             if(this->OscSelector == false)
 430:Menus.cpp     ****             {
 431:Menus.cpp     ****                 if(setWave2 > 3)
 432:Menus.cpp     ****                 {
 433:Menus.cpp     ****                     this->setWave2 = 3;
 434:Menus.cpp     ****                 }
 435:Menus.cpp     ****                 if(this->setWave2 < 0)
 436:Menus.cpp     ****                 {
 437:Menus.cpp     ****                     this->setWave2 = 0;
 438:Menus.cpp     ****                 }
 439:Menus.cpp     ****                 this->setWave2 += this->encoderRight.Increment();
 440:Menus.cpp     ****                 if(setWave2 > 3)
 441:Menus.cpp     ****                 {
 442:Menus.cpp     ****                     this->setWave2 = 3;
 443:Menus.cpp     ****                 }
 444:Menus.cpp     ****                 if(this->setWave2 < 0)
 445:Menus.cpp     ****                 {
 446:Menus.cpp     ****                     this->setWave2 = 0;
 447:Menus.cpp     ****                 }
 448:Menus.cpp     ****                 if(this->setWave2 == 0)
 449:Menus.cpp     ****                 {
 450:Menus.cpp     ****                     for(int i = 0; i < 2; i++)
 451:Menus.cpp     ****                     {
 452:Menus.cpp     ****                         selectedWave2 = setWave2;
 453:Menus.cpp     ****                         osc.osc2.SetWaveform(osc.osc2.WAVE_SIN);
 454:Menus.cpp     ****                     }
 455:Menus.cpp     ****                 }
 456:Menus.cpp     ****                 else if(setWave2 == 1)
 457:Menus.cpp     ****                 {
 458:Menus.cpp     ****                     for(int i = 0; i < 2; i++)
 459:Menus.cpp     ****                     {
 460:Menus.cpp     ****                         selectedWave2 = setWave2;
 461:Menus.cpp     ****                         osc.osc2.SetWaveform(osc.osc2.WAVE_TRI);
 462:Menus.cpp     ****                     }
 463:Menus.cpp     ****                 }
ARM GAS  C:\Users\VINCIU~1\AppData\Local\Temp\ccdS0pnQ.s 			page 97


 464:Menus.cpp     ****                 else if(setWave2 == 2)
 465:Menus.cpp     ****                 {
 466:Menus.cpp     ****                     for(int i = 0; i < 2; i++)
 467:Menus.cpp     ****                     {
 468:Menus.cpp     ****                         selectedWave2 = setWave2;
 469:Menus.cpp     ****                         osc.osc2.SetWaveform(osc.osc2.WAVE_SQUARE);
 470:Menus.cpp     ****                     }
 471:Menus.cpp     ****                 }
 472:Menus.cpp     ****                 else if(setWave2 == 3)
 473:Menus.cpp     ****                 {
 474:Menus.cpp     ****                     for(int i = 0; i < 2; i++)
 475:Menus.cpp     ****                     {
 476:Menus.cpp     ****                         selectedWave2 = setWave2;
 477:Menus.cpp     ****                         osc.osc2.SetWaveform(osc.osc2.WAVE_SAW);
 478:Menus.cpp     ****                     }
 479:Menus.cpp     ****                 }
 480:Menus.cpp     ****             }
 481:Menus.cpp     **** 
 482:Menus.cpp     **** 
 483:Menus.cpp     ****             screen.DrawRect(29,
 484:Menus.cpp     ****                             screen.Height() / 2 - 3,
 485:Menus.cpp     ****                             60,
 486:Menus.cpp     ****                             screen.Height() - 1,
 487:Menus.cpp     ****                             on,
 488:Menus.cpp     ****                             false);
 489:Menus.cpp     ****         }
 490:Menus.cpp     ****     }
 491:Menus.cpp     ****     else if(menuState == 3)
 492:Menus.cpp     ****     {
 493:Menus.cpp     ****         /*  this->noteSemiAdd
 494:Menus.cpp     ****                 += (((float)this->encoderRight.Increment()) / 32) * 40;
 495:Menus.cpp     ****             this->drawSliderSemi
 496:Menus.cpp     ****                 += ((float)this->encoderRight.Increment()) / 32; */
 497:Menus.cpp     **** 
 498:Menus.cpp     **** 
 499:Menus.cpp     ****         if(this->OscSelector == true)
 500:Menus.cpp     ****         {
 501:Menus.cpp     ****             if(this->freqFine >= 1)
 502:Menus.cpp     ****             {
 503:Menus.cpp     ****                 this->freqFine = 1;
 504:Menus.cpp     ****             }
 505:Menus.cpp     ****             if(this->freqFine < 0)
 506:Menus.cpp     ****             {
 507:Menus.cpp     ****                 this->freqFine = 0;
 508:Menus.cpp     ****             }
 509:Menus.cpp     ****             if(this->drawSliderFine >= 1)
 510:Menus.cpp     ****             {
 511:Menus.cpp     ****                 this->drawSliderFine = 1;
 512:Menus.cpp     ****             }
 513:Menus.cpp     ****             if(this->drawSliderFine < 0)
 514:Menus.cpp     ****             {
 515:Menus.cpp     ****                 this->drawSliderFine = 0;
 516:Menus.cpp     ****             }
 517:Menus.cpp     **** 
 518:Menus.cpp     ****             this->freqFine += (((float)this->encoderRight.Increment()) / 32);
 519:Menus.cpp     ****             this->drawSliderFine
 520:Menus.cpp     ****                 += (((float)this->encoderRight.Increment()) / 32);
ARM GAS  C:\Users\VINCIU~1\AppData\Local\Temp\ccdS0pnQ.s 			page 98


 521:Menus.cpp     ****             sprintf(this->buffFine, "Fine_%d%%", (int)(freqFine * 100));
 522:Menus.cpp     ****         }
 523:Menus.cpp     ****         else
 524:Menus.cpp     ****         {
 525:Menus.cpp     ****             if(this->freqFine2 > 1)
 526:Menus.cpp     ****             {
 527:Menus.cpp     ****                 this->freqFine2 = 1;
 528:Menus.cpp     ****             }
 529:Menus.cpp     ****             if(this->freqFine2 < 0)
 530:Menus.cpp     ****             {
 531:Menus.cpp     ****                 this->freqFine2 = 0;
 532:Menus.cpp     ****             }
 533:Menus.cpp     ****             if(this->drawSliderFine2 >= 1)
 534:Menus.cpp     ****             {
 535:Menus.cpp     ****                 this->drawSliderFine2 = 1;
 536:Menus.cpp     ****             }
 537:Menus.cpp     ****             if(this->drawSliderFine2 < 0)
 538:Menus.cpp     ****             {
 539:Menus.cpp     ****                 this->drawSliderFine2 = 0;
 540:Menus.cpp     ****             }
 541:Menus.cpp     **** 
 542:Menus.cpp     ****             this->freqFine2 += (((float)this->encoderRight.Increment()) / 32);
 543:Menus.cpp     ****             this->drawSliderFine2
 544:Menus.cpp     ****                 += (((float)this->encoderRight.Increment()) / 32);
 545:Menus.cpp     ****             sprintf(this->buffFine2, "Fine_%d%%", (int)(freqFine2 * 100));
 546:Menus.cpp     ****         }
 547:Menus.cpp     **** 
 548:Menus.cpp     ****         screen.DrawRect(60,
 549:Menus.cpp     ****                         screen.Height() / 2 - 3,
 550:Menus.cpp     ****                         screen.Width() - 1,
 551:Menus.cpp     ****                         screen.Height() - 1,
 552:Menus.cpp     ****                         on,
 553:Menus.cpp     ****                         false);
 554:Menus.cpp     ****     }
 555:Menus.cpp     ****     //noteCross            = noteCross + (this->drawSliderSemi * 100);
 556:Menus.cpp     ****     screen.Update();
 557:Menus.cpp     **** }
 558:Menus.cpp     **** 
 559:Menus.cpp     **** void Menus::Menu2(OledDisplayExtravaganza screen, oscVoice osc)
 560:Menus.cpp     **** {
 561:Menus.cpp     ****     screen.Fill(false);
 562:Menus.cpp     ****     float margin = 10;
 563:Menus.cpp     ****     float glideInit;
 564:Menus.cpp     ****     float offset = (screen.Height() / 4);
 565:Menus.cpp     ****     glideInit    = (offset + (this->analogRead * screen.Height() * 0.625));
 566:Menus.cpp     ****     for(int i = 0; i < screen.Width(); i++)
 567:Menus.cpp     ****     {
 568:Menus.cpp     ****         screen.DrawPixel(i * 3, (screen.Height() / 2), true);
 569:Menus.cpp     ****     }
 570:Menus.cpp     ****     if(this->buttonLeft.RisingEdge())
 571:Menus.cpp     **** 
 572:Menus.cpp     ****     {
 573:Menus.cpp     ****         this->menuStateGlide = this->menuStateGlide - 1;
 574:Menus.cpp     ****         if(this->menuStateGlide < 0)
 575:Menus.cpp     ****         {
 576:Menus.cpp     ****             this->menuStateGlide = 1;
 577:Menus.cpp     ****         }
ARM GAS  C:\Users\VINCIU~1\AppData\Local\Temp\ccdS0pnQ.s 			page 99


 578:Menus.cpp     ****     }
 579:Menus.cpp     ****     if(this->buttonRight.RisingEdge())
 580:Menus.cpp     **** 
 581:Menus.cpp     ****     {
 582:Menus.cpp     ****         this->menuStateGlide = this->menuStateGlide + 1;
 583:Menus.cpp     ****         if(this->menuStateGlide > 1)
 584:Menus.cpp     ****         {
 585:Menus.cpp     ****             this->menuStateGlide = 0;
 586:Menus.cpp     ****         }
 587:Menus.cpp     ****     }
 588:Menus.cpp     ****     if(this->menuStateGlide == 0)
 589:Menus.cpp     ****     {
 590:Menus.cpp     ****         if(this->glideInit > 100)
 591:Menus.cpp     ****         {
 592:Menus.cpp     ****             this->glideInit = 100;
 593:Menus.cpp     ****         }
 594:Menus.cpp     ****         if(this->glideInit < -100)
 595:Menus.cpp     ****         {
 596:Menus.cpp     ****             this->glideInit = -100;
 597:Menus.cpp     ****         }
 598:Menus.cpp     **** 
 599:Menus.cpp     ****         int glideScale;
 600:Menus.cpp     ****         glideScale = screen.Height() - ((this->glideInit + 212) * 0.15);
 601:Menus.cpp     ****         this->glideInit += this->encoderRight.Increment();
 602:Menus.cpp     ****         circleGlidePosition = glideScale;
 603:Menus.cpp     **** 
 604:Menus.cpp     ****         sprintf(this->buffPitchGlide, "Init_%d%%", this->glideInit);
 605:Menus.cpp     **** 
 606:Menus.cpp     **** 
 607:Menus.cpp     ****         //(this->analogRead * 24) - 12;
 608:Menus.cpp     **** 
 609:Menus.cpp     ****         screen.DrawRect(0, 0, 66, 13, true, false);
 610:Menus.cpp     ****     }
 611:Menus.cpp     ****     else if(this->menuStateGlide == 1)
 612:Menus.cpp     ****     {
 613:Menus.cpp     ****         if(this->glideTime >= 100)
 614:Menus.cpp     ****         {
 615:Menus.cpp     ****             this->glideTime = 100;
 616:Menus.cpp     ****         }
 617:Menus.cpp     ****         if(this->glideTime <= 0)
 618:Menus.cpp     ****         {
 619:Menus.cpp     ****             this->glideTime = 0;
 620:Menus.cpp     ****         }
 621:Menus.cpp     ****         if(circleGlidePosition >= 100)
 622:Menus.cpp     ****         {
 623:Menus.cpp     ****             circleGlidePosition = 100;
 624:Menus.cpp     ****         }
 625:Menus.cpp     ****         if(circleGlidePosition <= 0)
 626:Menus.cpp     ****         {
 627:Menus.cpp     ****             circleGlidePosition = 0;
 628:Menus.cpp     ****         }
 629:Menus.cpp     ****         if(circleGlideTimePosition >= 100)
 630:Menus.cpp     ****         {
 631:Menus.cpp     ****             circleGlideTimePosition = 100;
 632:Menus.cpp     ****         }
 633:Menus.cpp     ****         if(circleGlideTimePosition <= 10)
 634:Menus.cpp     ****         {
ARM GAS  C:\Users\VINCIU~1\AppData\Local\Temp\ccdS0pnQ.s 			page 100


 635:Menus.cpp     ****             circleGlideTimePosition = 10;
 636:Menus.cpp     ****         }
 637:Menus.cpp     ****         circleGlideTimePosition += this->encoderRight.Increment();
 638:Menus.cpp     ****         ;
 639:Menus.cpp     ****         this->glideTime += this->encoderRight.Increment();
 640:Menus.cpp     ****         sprintf(this->buffPitchTime, "Time_%d%%", (int)this->glideTime);
 641:Menus.cpp     ****         screen.DrawRect(67, 0, screen.Width() - 2, 13, true, false);
 642:Menus.cpp     ****     }
 643:Menus.cpp     **** 
 644:Menus.cpp     ****     screen.SetCursor(6, 4);
 645:Menus.cpp     ****     screen.WriteString(buffPitchGlide, Font_6x8, true);
 646:Menus.cpp     ****     screen.SetCursor(73, 4);
 647:Menus.cpp     ****     screen.WriteString(buffPitchTime, Font_6x8, true);
 648:Menus.cpp     ****     screen.DrawLine(margin,
 649:Menus.cpp     ****                     circleGlidePosition,
 650:Menus.cpp     ****                     circleGlideTimePosition,
 651:Menus.cpp     ****                     screen.Height() / 2,
 652:Menus.cpp     ****                     true);
 653:Menus.cpp     ****     screen.DrawCircle(margin, circleGlidePosition, 3, true);
 654:Menus.cpp     ****     screen.DrawCircle(circleGlideTimePosition, screen.Height() / 2, 3, true);
 655:Menus.cpp     **** 
 656:Menus.cpp     **** 
 657:Menus.cpp     ****     screen.Update();
 658:Menus.cpp     **** }
 659:Menus.cpp     **** 
 660:Menus.cpp     **** 
 661:Menus.cpp     **** void Menus::Menu3(OledDisplayExtravaganza screen,
 662:Menus.cpp     ****                   oscVoice osc,
 663:Menus.cpp     ****                   daisysp::Adsr&          env)
 664:Menus.cpp     **** {
 665:Menus.cpp     ****     screen.Fill(false);
 666:Menus.cpp     ****     if(this->buttonLeft.RisingEdge())
 667:Menus.cpp     **** 
 668:Menus.cpp     ****     {
 669:Menus.cpp     ****         this->menuStateEnv = this->menuStateEnv - 1;
 670:Menus.cpp     ****         if(this->menuStateEnv < 0)
 671:Menus.cpp     ****         {
 672:Menus.cpp     ****             this->menuStateEnv = 3;
 673:Menus.cpp     ****         }
 674:Menus.cpp     ****     }
 675:Menus.cpp     ****     if(this->buttonRight.RisingEdge())
 676:Menus.cpp     **** 
 677:Menus.cpp     ****     {
 678:Menus.cpp     ****         this->menuStateEnv = this->menuStateEnv + 1;
 679:Menus.cpp     ****         if(this->menuStateEnv > 3)
 680:Menus.cpp     ****         {
 681:Menus.cpp     ****             this->menuStateEnv = 0;
 682:Menus.cpp     ****         }
 683:Menus.cpp     ****     }
 684:Menus.cpp     ****     if(menuStateEnv == 0)
 685:Menus.cpp     ****     {
 686:Menus.cpp     ****         this->attackTime += this->encoderRight.Increment() * 3.3;
 687:Menus.cpp     ****         env.SetTime(daisysp::ADSR_SEG_ATTACK, this->attackTime / 100);
 688:Menus.cpp     ****         this->attackTimeScaleDraw += this->encoderRight.Increment();
 689:Menus.cpp     ****         if(attackTimeScaleDraw >= screen.Width() / 4)
 690:Menus.cpp     ****         {
 691:Menus.cpp     ****             attackTimeScaleDraw = screen.Width() / 4;
ARM GAS  C:\Users\VINCIU~1\AppData\Local\Temp\ccdS0pnQ.s 			page 101


 692:Menus.cpp     ****         }
 693:Menus.cpp     ****         if(attackTimeScaleDraw <= 0)
 694:Menus.cpp     ****         {
 695:Menus.cpp     ****             attackTimeScaleDraw = 0;
 696:Menus.cpp     ****         }
 697:Menus.cpp     ****         if(attackTime >= 100)
 698:Menus.cpp     ****         {
 699:Menus.cpp     ****             attackTime = 100;
 700:Menus.cpp     ****         }
 701:Menus.cpp     ****         if(attackTime <= 0)
 702:Menus.cpp     ****         {
 703:Menus.cpp     ****             attackTime = 0;
 704:Menus.cpp     ****         }
 705:Menus.cpp     ****         screen.DrawRect(28, 0, 40, 13, true, false);
 706:Menus.cpp     ****     }
 707:Menus.cpp     ****     if(menuStateEnv == 1)
 708:Menus.cpp     ****     {
 709:Menus.cpp     ****         this->decayTime += this->encoderRight.Increment() * 3.3;
 710:Menus.cpp     ****         env.SetTime(daisysp::ADSR_SEG_DECAY, this->decayTime / 100);
 711:Menus.cpp     ****         this->decayTimeScaleDraw += this->encoderRight.Increment();
 712:Menus.cpp     ****         if(decayTimeScaleDraw >= screen.Width() / 4)
 713:Menus.cpp     ****         {
 714:Menus.cpp     ****             decayTimeScaleDraw = screen.Width() / 4;
 715:Menus.cpp     ****         }
 716:Menus.cpp     ****         if(decayTimeScaleDraw <= 0)
 717:Menus.cpp     ****         {
 718:Menus.cpp     ****             decayTimeScaleDraw = 0;
 719:Menus.cpp     ****         }
 720:Menus.cpp     ****         if(decayTime >= 100)
 721:Menus.cpp     ****         {
 722:Menus.cpp     ****             decayTime = 100;
 723:Menus.cpp     ****         }
 724:Menus.cpp     ****         if(decayTime <= 0)
 725:Menus.cpp     ****         {
 726:Menus.cpp     ****             decayTime = 0;
 727:Menus.cpp     ****         }
 728:Menus.cpp     ****         screen.DrawRect(44, 0, 56, 13, true, false);
 729:Menus.cpp     ****     }
 730:Menus.cpp     ****     if(menuStateEnv == 2)
 731:Menus.cpp     ****     {
 732:Menus.cpp     ****         this->sustatinLevel += this->encoderRight.Increment() * 3.3;
 733:Menus.cpp     ****         env.SetSustainLevel(this->sustatinLevel / 100);
 734:Menus.cpp     ****         this->sustatinLevelScaleDraw += this->encoderRight.Increment();
 735:Menus.cpp     ****         if(this->sustatinLevelScaleDraw >= screen.Width() / 4)
 736:Menus.cpp     ****         {
 737:Menus.cpp     ****             this->sustatinLevelScaleDraw = screen.Width() / 4;
 738:Menus.cpp     ****         }
 739:Menus.cpp     ****         if(this->sustatinLevelScaleDraw <= 0)
 740:Menus.cpp     ****         {
 741:Menus.cpp     ****             this->sustatinLevelScaleDraw = 0;
 742:Menus.cpp     ****         }
 743:Menus.cpp     ****         if(this->sustatinLevel >= 100)
 744:Menus.cpp     ****         {
 745:Menus.cpp     ****             this->sustatinLevel = 100;
 746:Menus.cpp     ****         }
 747:Menus.cpp     ****         if(this->sustatinLevel <= 0)
 748:Menus.cpp     ****         {
ARM GAS  C:\Users\VINCIU~1\AppData\Local\Temp\ccdS0pnQ.s 			page 102


 749:Menus.cpp     ****             this->sustatinLevel = 0;
 750:Menus.cpp     ****         }
 751:Menus.cpp     ****         screen.DrawRect(60, 0, 72, 13, true, false);
 752:Menus.cpp     ****     }
 753:Menus.cpp     ****     if(menuStateEnv == 3)
 754:Menus.cpp     ****     {
 755:Menus.cpp     ****         this->releaseTime += this->encoderRight.Increment() * 3.3;
 756:Menus.cpp     ****         env.SetTime(daisysp::ADSR_SEG_RELEASE, this->releaseTime / 100);
 757:Menus.cpp     ****         this->releaseTimeScaleDraw += this->encoderRight.Increment();
 758:Menus.cpp     ****         if(this->releaseTimeScaleDraw >= screen.Width() / 4)
 759:Menus.cpp     ****         {
 760:Menus.cpp     ****             this->releaseTimeScaleDraw = screen.Width() / 4;
 761:Menus.cpp     ****         }
 762:Menus.cpp     ****         if(this->releaseTimeScaleDraw <= 0)
 763:Menus.cpp     ****         {
 764:Menus.cpp     ****             this->releaseTimeScaleDraw = 0;
 765:Menus.cpp     ****         }
 766:Menus.cpp     ****         if(this->releaseTime >= 100)
 767:Menus.cpp     ****         {
 768:Menus.cpp     ****             this->releaseTime = 100;
 769:Menus.cpp     ****         }
 770:Menus.cpp     ****         if(this->releaseTime <= 0)
 771:Menus.cpp     ****         {
 772:Menus.cpp     ****             this->releaseTime = 0;
 773:Menus.cpp     ****         }
 774:Menus.cpp     ****         screen.DrawRect(76, 0, 88, 13, true, false);
 775:Menus.cpp     ****     }
 776:Menus.cpp     **** 
 777:Menus.cpp     ****     screen.SetCursor(32, 4);
 778:Menus.cpp     ****     screen.WriteString("A", Font_6x8, true);
 779:Menus.cpp     ****     screen.SetCursor(48, 4);
 780:Menus.cpp     ****     screen.WriteString("D", Font_6x8, true);
 781:Menus.cpp     ****     screen.SetCursor(64, 4);
 782:Menus.cpp     ****     screen.WriteString("S", Font_6x8, true);
 783:Menus.cpp     ****     screen.SetCursor(80, 4);
 784:Menus.cpp     ****     screen.WriteString("R", Font_6x8, true);
 785:Menus.cpp     ****     screen.DrawLine(0, screen.Height() - 5, attackTimeScaleDraw, 25, true);
 786:Menus.cpp     ****     screen.DrawLine(attackTimeScaleDraw,
 787:Menus.cpp     ****                     25,
 788:Menus.cpp     ****                     attackTimeScaleDraw + decayTimeScaleDraw,
 789:Menus.cpp     ****                     (screen.Height() - 5) - sustatinLevelScaleDraw,
 790:Menus.cpp     ****                     true);
 791:Menus.cpp     **** 
 792:Menus.cpp     ****     screen.DrawLine(attackTimeScaleDraw + decayTimeScaleDraw,
 793:Menus.cpp     ****                     (screen.Height() - 5) - sustatinLevelScaleDraw,
 794:Menus.cpp     ****                     attackTimeScaleDraw + decayTimeScaleDraw
 795:Menus.cpp     ****                         + screen.Width() / 4,
 796:Menus.cpp     ****                     (screen.Height() - 5) - sustatinLevelScaleDraw,
 797:Menus.cpp     ****                     true);
 798:Menus.cpp     ****     screen.DrawLine(attackTimeScaleDraw + decayTimeScaleDraw
 799:Menus.cpp     ****                         + screen.Width() / 4,
 800:Menus.cpp     ****                     (screen.Height() - 5) - sustatinLevelScaleDraw,
 801:Menus.cpp     ****                     attackTimeScaleDraw + decayTimeScaleDraw
 802:Menus.cpp     ****                         + screen.Width() / 4 + releaseTimeScaleDraw,
 803:Menus.cpp     ****                     screen.Height() - 5,
 804:Menus.cpp     ****                     true);
 805:Menus.cpp     **** 
ARM GAS  C:\Users\VINCIU~1\AppData\Local\Temp\ccdS0pnQ.s 			page 103


 806:Menus.cpp     **** 
 807:Menus.cpp     ****     screen.Update();
 808:Menus.cpp     **** }
 809:Menus.cpp     **** 
 810:Menus.cpp     **** void Menus::Menu4(OledDisplayExtravaganza screen,
 811:Menus.cpp     ****                   oscVoice osc,
 812:Menus.cpp     ****                   daisysp::Adsr&          env)
 813:Menus.cpp     **** {
 3654              		.loc 2 813 1 view -0
 3655              		.cfi_startproc
 3656              		@ args = 0, pretend = 0, frame = 8
 3657              		@ frame_needed = 0, uses_anonymous_args = 0
 814:Menus.cpp     ****     screen.Fill(true);
 3658              		.loc 2 814 5 view .LVU907
 3659              	.LBB1325:
 3660              	.LBI1325:
  33:../../libdaisy/src/hid/disp/oled_display.h **** 
 3661              		.loc 1 33 10 view .LVU908
 3662              	.LBB1326:
 3663              	.LBI1326:
 249:../../libdaisy/src/dev/oled_ssd130x.h ****     {
 3664              		.loc 5 249 10 view .LVU909
 3665              	.LBB1327:
 251:../../libdaisy/src/dev/oled_ssd130x.h ****         {
 3666              		.loc 5 251 29 view .LVU910
 3667              	.LBE1327:
 3668              	.LBE1326:
 3669              	.LBE1325:
 813:Menus.cpp     ****     screen.Fill(true);
 3670              		.loc 2 813 1 is_stmt 0 view .LVU911
 3671 0000 2DE9F041 		push	{r4, r5, r6, r7, r8, lr}
 3672              		.cfi_def_cfa_offset 24
 3673              		.cfi_offset 4, -24
 3674              		.cfi_offset 5, -20
 3675              		.cfi_offset 6, -16
 3676              		.cfi_offset 7, -12
 3677              		.cfi_offset 8, -8
 3678              		.cfi_offset 14, -4
 3679 0004 0D46     		mov	r5, r1
 3680 0006 82B0     		sub	sp, sp, #8
 3681              		.cfi_def_cfa_offset 32
 3682              	.LBB1332:
 3683              	.LBB1330:
 3684              	.LBB1328:
 253:../../libdaisy/src/dev/oled_ssd130x.h ****         }
 3685              		.loc 5 253 24 view .LVU912
 3686 0008 4FF48062 		mov	r2, #1024
 3687              	.LVL232:
 253:../../libdaisy/src/dev/oled_ssd130x.h ****         }
 3688              		.loc 5 253 24 view .LVU913
 3689 000c FF21     		movs	r1, #255
 3690              	.LVL233:
 253:../../libdaisy/src/dev/oled_ssd130x.h ****         }
 3691              		.loc 5 253 24 view .LVU914
 3692 000e 05F11400 		add	r0, r5, #20
 3693              	.LVL234:
 253:../../libdaisy/src/dev/oled_ssd130x.h ****         }
ARM GAS  C:\Users\VINCIU~1\AppData\Local\Temp\ccdS0pnQ.s 			page 104


 3694              		.loc 5 253 24 view .LVU915
 3695              	.LBE1328:
 3696              	.LBE1330:
 3697              	.LBE1332:
 3698              	.LBB1333:
 3699              	.LBB1334:
 3700              	.LBB1335:
 3701              	.LBB1336:
 3702              	.LBB1337:
 111:../../libdaisy/src/dev/oled_ssd130x.h ****         spi_.BlockingTransmit(&cmd, 1);
 3703              		.loc 5 111 24 view .LVU916
 3704 0012 05F10806 		add	r6, r5, #8
 112:../../libdaisy/src/dev/oled_ssd130x.h ****     };
 3705              		.loc 5 112 30 view .LVU917
 3706 0016 B024     		movs	r4, #176
 111:../../libdaisy/src/dev/oled_ssd130x.h ****         spi_.BlockingTransmit(&cmd, 1);
 3707              		.loc 5 111 24 view .LVU918
 3708 0018 1035     		adds	r5, r5, #16
 3709              	.LVL235:
 111:../../libdaisy/src/dev/oled_ssd130x.h ****         spi_.BlockingTransmit(&cmd, 1);
 3710              		.loc 5 111 24 view .LVU919
 3711 001a 8046     		mov	r8, r0
 3712              	.LBE1337:
 3713              	.LBE1336:
 3714              	.LBE1335:
 3715              	.LBE1334:
 3716              	.LBE1333:
 3717              	.LBB1357:
 3718              	.LBB1331:
 3719              	.LBB1329:
 253:../../libdaisy/src/dev/oled_ssd130x.h ****         }
 3720              		.loc 5 253 24 view .LVU920
 3721 001c FFF7FEFF 		bl	memset
 3722              	.LVL236:
 3723              	.L184:
 253:../../libdaisy/src/dev/oled_ssd130x.h ****         }
 3724              		.loc 5 253 24 view .LVU921
 3725 0020 0027     		movs	r7, #0
 3726              	.LBE1329:
 3727              	.LBE1331:
 3728              	.LBE1357:
 3729              	.LBB1358:
 3730              	.LBB1356:
 3731              	.LBB1355:
 3732              	.LBB1342:
 3733              	.LBB1338:
 111:../../libdaisy/src/dev/oled_ssd130x.h ****         spi_.BlockingTransmit(&cmd, 1);
 3734              		.loc 5 111 23 view .LVU922
 3735 0022 2846     		mov	r0, r5
 3736 0024 8DF80740 		strb	r4, [sp, #7]
 3737              	.LVL237:
 111:../../libdaisy/src/dev/oled_ssd130x.h ****         spi_.BlockingTransmit(&cmd, 1);
 3738              		.loc 5 111 23 view .LVU923
 3739              	.LBE1338:
 3740              	.LBI1336:
 109:../../libdaisy/src/dev/oled_ssd130x.h ****     {
 3741              		.loc 5 109 10 is_stmt 1 view .LVU924
ARM GAS  C:\Users\VINCIU~1\AppData\Local\Temp\ccdS0pnQ.s 			page 105


 3742              	.LBB1339:
 111:../../libdaisy/src/dev/oled_ssd130x.h ****         spi_.BlockingTransmit(&cmd, 1);
 3743              		.loc 5 111 9 view .LVU925
 3744              	.LBE1339:
 3745              	.LBE1342:
 3746              		.loc 5 270 22 is_stmt 0 view .LVU926
 3747 0028 0134     		adds	r4, r4, #1
 3748              	.LVL238:
 3749              	.LBB1343:
 3750              	.LBB1340:
 111:../../libdaisy/src/dev/oled_ssd130x.h ****         spi_.BlockingTransmit(&cmd, 1);
 3751              		.loc 5 111 23 view .LVU927
 3752 002a 3946     		mov	r1, r7
 3753 002c FFF7FEFF 		bl	dsy_gpio_write
 3754              	.LVL239:
 112:../../libdaisy/src/dev/oled_ssd130x.h ****     };
 3755              		.loc 5 112 9 is_stmt 1 view .LVU928
 112:../../libdaisy/src/dev/oled_ssd130x.h ****     };
 3756              		.loc 5 112 30 is_stmt 0 view .LVU929
 3757 0030 6423     		movs	r3, #100
 3758 0032 0122     		movs	r2, #1
 3759 0034 0DF10701 		add	r1, sp, #7
 3760 0038 3046     		mov	r0, r6
 3761              	.LBE1340:
 3762              	.LBE1343:
 3763              		.loc 5 270 22 view .LVU930
 3764 003a E4B2     		uxtb	r4, r4
 3765              	.LBB1344:
 3766              	.LBB1341:
 112:../../libdaisy/src/dev/oled_ssd130x.h ****     };
 3767              		.loc 5 112 30 view .LVU931
 3768 003c FFF7FEFF 		bl	_ZN5daisy9SpiHandle16BlockingTransmitEPhjm
 3769              	.LVL240:
 112:../../libdaisy/src/dev/oled_ssd130x.h ****     };
 3770              		.loc 5 112 30 view .LVU932
 3771              	.LBE1341:
 3772              	.LBE1344:
 3773              	.LBB1345:
 3774              	.LBB1346:
 111:../../libdaisy/src/dev/oled_ssd130x.h ****         spi_.BlockingTransmit(&cmd, 1);
 3775              		.loc 5 111 23 view .LVU933
 3776 0040 3946     		mov	r1, r7
 3777 0042 2846     		mov	r0, r5
 3778 0044 8DF80770 		strb	r7, [sp, #7]
 3779              	.LVL241:
 111:../../libdaisy/src/dev/oled_ssd130x.h ****         spi_.BlockingTransmit(&cmd, 1);
 3780              		.loc 5 111 23 view .LVU934
 3781              	.LBE1346:
 3782              	.LBI1345:
 109:../../libdaisy/src/dev/oled_ssd130x.h ****     {
 3783              		.loc 5 109 10 is_stmt 1 view .LVU935
 3784              	.LBB1347:
 111:../../libdaisy/src/dev/oled_ssd130x.h ****         spi_.BlockingTransmit(&cmd, 1);
 3785              		.loc 5 111 9 view .LVU936
 111:../../libdaisy/src/dev/oled_ssd130x.h ****         spi_.BlockingTransmit(&cmd, 1);
 3786              		.loc 5 111 23 is_stmt 0 view .LVU937
 3787 0048 FFF7FEFF 		bl	dsy_gpio_write
ARM GAS  C:\Users\VINCIU~1\AppData\Local\Temp\ccdS0pnQ.s 			page 106


 3788              	.LVL242:
 112:../../libdaisy/src/dev/oled_ssd130x.h ****     };
 3789              		.loc 5 112 9 is_stmt 1 view .LVU938
 112:../../libdaisy/src/dev/oled_ssd130x.h ****     };
 3790              		.loc 5 112 30 is_stmt 0 view .LVU939
 3791 004c 0122     		movs	r2, #1
 3792 004e 6423     		movs	r3, #100
 3793 0050 0DF10701 		add	r1, sp, #7
 3794 0054 3046     		mov	r0, r6
 3795 0056 FFF7FEFF 		bl	_ZN5daisy9SpiHandle16BlockingTransmitEPhjm
 3796              	.LVL243:
 112:../../libdaisy/src/dev/oled_ssd130x.h ****     };
 3797              		.loc 5 112 30 view .LVU940
 3798 005a 1023     		movs	r3, #16
 3799              	.LBE1347:
 3800              	.LBE1345:
 3801              	.LBB1348:
 3802              	.LBB1349:
 111:../../libdaisy/src/dev/oled_ssd130x.h ****         spi_.BlockingTransmit(&cmd, 1);
 3803              		.loc 5 111 23 view .LVU941
 3804 005c 3946     		mov	r1, r7
 3805 005e 2846     		mov	r0, r5
 3806 0060 8DF80730 		strb	r3, [sp, #7]
 3807              	.LVL244:
 111:../../libdaisy/src/dev/oled_ssd130x.h ****         spi_.BlockingTransmit(&cmd, 1);
 3808              		.loc 5 111 23 view .LVU942
 3809              	.LBE1349:
 3810              	.LBI1348:
 109:../../libdaisy/src/dev/oled_ssd130x.h ****     {
 3811              		.loc 5 109 10 is_stmt 1 view .LVU943
 3812              	.LBB1350:
 111:../../libdaisy/src/dev/oled_ssd130x.h ****         spi_.BlockingTransmit(&cmd, 1);
 3813              		.loc 5 111 9 view .LVU944
 111:../../libdaisy/src/dev/oled_ssd130x.h ****         spi_.BlockingTransmit(&cmd, 1);
 3814              		.loc 5 111 23 is_stmt 0 view .LVU945
 3815 0064 FFF7FEFF 		bl	dsy_gpio_write
 3816              	.LVL245:
 112:../../libdaisy/src/dev/oled_ssd130x.h ****     };
 3817              		.loc 5 112 9 is_stmt 1 view .LVU946
 112:../../libdaisy/src/dev/oled_ssd130x.h ****     };
 3818              		.loc 5 112 30 is_stmt 0 view .LVU947
 3819 0068 6423     		movs	r3, #100
 3820 006a 0122     		movs	r2, #1
 3821 006c 0DF10701 		add	r1, sp, #7
 3822 0070 3046     		mov	r0, r6
 3823 0072 FFF7FEFF 		bl	_ZN5daisy9SpiHandle16BlockingTransmitEPhjm
 3824              	.LVL246:
 112:../../libdaisy/src/dev/oled_ssd130x.h ****     };
 3825              		.loc 5 112 30 view .LVU948
 3826              	.LBE1350:
 3827              	.LBE1348:
 3828              	.LBB1351:
 3829              	.LBI1351:
 115:../../libdaisy/src/dev/oled_ssd130x.h ****     {
 3830              		.loc 5 115 10 is_stmt 1 view .LVU949
 3831              	.LBB1352:
 117:../../libdaisy/src/dev/oled_ssd130x.h ****         spi_.BlockingTransmit(buff, size);
ARM GAS  C:\Users\VINCIU~1\AppData\Local\Temp\ccdS0pnQ.s 			page 107


 3832              		.loc 5 117 9 view .LVU950
 117:../../libdaisy/src/dev/oled_ssd130x.h ****         spi_.BlockingTransmit(buff, size);
 3833              		.loc 5 117 23 is_stmt 0 view .LVU951
 3834 0076 0121     		movs	r1, #1
 3835 0078 2846     		mov	r0, r5
 3836 007a FFF7FEFF 		bl	dsy_gpio_write
 3837              	.LVL247:
 118:../../libdaisy/src/dev/oled_ssd130x.h ****     };
 3838              		.loc 5 118 9 is_stmt 1 view .LVU952
 118:../../libdaisy/src/dev/oled_ssd130x.h ****     };
 3839              		.loc 5 118 30 is_stmt 0 view .LVU953
 3840 007e 8022     		movs	r2, #128
 3841 0080 4146     		mov	r1, r8
 3842 0082 6423     		movs	r3, #100
 3843 0084 3046     		mov	r0, r6
 3844              	.LBE1352:
 3845              	.LBE1351:
 3846              		.loc 5 270 22 view .LVU954
 3847 0086 9044     		add	r8, r8, r2
 3848              	.LVL248:
 3849              	.LBB1354:
 3850              	.LBB1353:
 118:../../libdaisy/src/dev/oled_ssd130x.h ****     };
 3851              		.loc 5 118 30 view .LVU955
 3852 0088 FFF7FEFF 		bl	_ZN5daisy9SpiHandle16BlockingTransmitEPhjm
 3853              	.LVL249:
 118:../../libdaisy/src/dev/oled_ssd130x.h ****     };
 3854              		.loc 5 118 30 view .LVU956
 3855              	.LBE1353:
 3856              	.LBE1354:
 3857              		.loc 5 270 9 is_stmt 1 view .LVU957
 3858              		.loc 5 270 22 view .LVU958
 3859 008c B82C     		cmp	r4, #184
 3860 008e C7D1     		bne	.L184
 3861              	.LBE1355:
 3862              	.LBE1356:
 3863              	.LBE1358:
 815:Menus.cpp     ****     // MENIS & CREDITS & MAP CV PORT
 816:Menus.cpp     ****     screen.Update();
 817:Menus.cpp     **** }...
 3864              		.loc 2 817 1 is_stmt 0 view .LVU959
 3865 0090 02B0     		add	sp, sp, #8
 3866              		.cfi_def_cfa_offset 24
 3867              		@ sp needed
 3868 0092 BDE8F081 		pop	{r4, r5, r6, r7, r8, pc}
 3869              		.loc 2 817 1 view .LVU960
 3870              		.cfi_endproc
 3871              	.LFE4043:
 3873 0096 00BF     		.section	.text._ZN5daisy25OneBitGraphicsDisplayImplINS_11OledDisplayINS_13SSD130xDriverILj128ELj64
 3874              		.align	1
 3875              		.p2align 2,,3
 3876              		.weak	_ZN5daisy25OneBitGraphicsDisplayImplINS_11OledDisplayINS_13SSD130xDriverILj128ELj64ENS_24SSD
 3877              		.syntax unified
 3878              		.thumb
 3879              		.thumb_func
 3880              		.fpu fpv5-d16
 3882              	_ZN5daisy25OneBitGraphicsDisplayImplINS_11OledDisplayINS_13SSD130xDriverILj128ELj64ENS_24SSD130x4Wi
ARM GAS  C:\Users\VINCIU~1\AppData\Local\Temp\ccdS0pnQ.s 			page 108


 3883              	.LVL250:
 3884              	.LFB4340:
 217:../../libdaisy/src/hid/disp/display.h ****                   uint_fast8_t y1,
 3885              		.loc 6 217 10 is_stmt 1 view -0
 3886              		.cfi_startproc
 3887              		@ args = 12, pretend = 0, frame = 24
 3888              		@ frame_needed = 0, uses_anonymous_args = 0
 217:../../libdaisy/src/hid/disp/display.h ****                   uint_fast8_t y1,
 3889              		.loc 6 217 10 is_stmt 0 view .LVU962
 3890 0000 2DE9F04F 		push	{r4, r5, r6, r7, r8, r9, r10, fp, lr}
 3891              		.cfi_def_cfa_offset 36
 3892              		.cfi_offset 4, -36
 3893              		.cfi_offset 5, -32
 3894              		.cfi_offset 6, -28
 3895              		.cfi_offset 7, -24
 3896              		.cfi_offset 8, -20
 3897              		.cfi_offset 9, -16
 3898              		.cfi_offset 10, -12
 3899              		.cfi_offset 11, -8
 3900              		.cfi_offset 14, -4
 3901 0004 87B0     		sub	sp, sp, #28
 3902              		.cfi_def_cfa_offset 64
 217:../../libdaisy/src/hid/disp/display.h ****                   uint_fast8_t y1,
 3903              		.loc 6 217 10 view .LVU963
 3904 0006 9DF84850 		ldrb	r5, [sp, #72]	@ zero_extendqisi2
 3905 000a 109C     		ldr	r4, [sp, #64]
 3906 000c 2E46     		mov	r6, r5
 3907 000e 0195     		str	r5, [sp, #4]
 3908 0010 9DF84450 		ldrb	r5, [sp, #68]	@ zero_extendqisi2
 3909              	.LBB1430:
 224:../../libdaisy/src/hid/disp/display.h ****         {
 3910              		.loc 6 224 9 view .LVU964
 3911 0014 9EB3     		cbz	r6, .L188
 3912              	.LVL251:
 224:../../libdaisy/src/hid/disp/display.h ****         {
 3913              		.loc 6 224 9 view .LVU965
 3914              	.LBE1430:
 3915              	.LBB1552:
 3916              	.LBB1553:
 226:../../libdaisy/src/hid/disp/display.h ****             {
 3917              		.loc 6 226 40 is_stmt 1 view .LVU966
 3918 0016 9942     		cmp	r1, r3
 3919 0018 2ED8     		bhi	.L187
 3920 001a 9946     		mov	r9, r3
 3921              	.LVL252:
 3922              	.L191:
 3923              	.LBB1554:
 3924              		.loc 6 228 44 view .LVU967
 3925 001c A242     		cmp	r2, r4
 3926 001e 28D8     		bhi	.L194
 3927              	.LBB1555:
 3928              	.LBB1556:
 3929              	.LBB1557:
 241:../../libdaisy/src/dev/oled_ssd130x.h ****             return;
 3930              		.loc 5 241 14 is_stmt 0 view .LVU968
 3931 0020 7F29     		cmp	r1, #127
 3932 0022 1646     		mov	r6, r2
ARM GAS  C:\Users\VINCIU~1\AppData\Local\Temp\ccdS0pnQ.s 			page 109


 3933 0024 94BF     		ite	ls
 3934 0026 0023     		movls	r3, #0
 3935 0028 0123     		movhi	r3, #1
 3936 002a 08E0     		b	.L195
 3937              	.LVL253:
 3938              	.L278:
 244:../../libdaisy/src/dev/oled_ssd130x.h ****         else
 3939              		.loc 5 244 42 view .LVU969
 3940 002c 9CF81480 		ldrb	r8, [ip, #20]	@ zero_extendqisi2
 3941 0030 4EEA080E 		orr	lr, lr, r8
 3942 0034 8CF814E0 		strb	lr, [ip, #20]
 3943              	.LVL254:
 3944              	.L192:
 244:../../libdaisy/src/dev/oled_ssd130x.h ****         else
 3945              		.loc 5 244 42 view .LVU970
 3946              	.LBE1557:
 3947              	.LBE1556:
 3948              	.LBE1555:
 3949              		.loc 6 228 17 is_stmt 1 view .LVU971
 3950 0038 0136     		adds	r6, r6, #1
 3951              	.LVL255:
 3952              		.loc 6 228 44 view .LVU972
 3953 003a B442     		cmp	r4, r6
 3954 003c 19D3     		bcc	.L194
 3955              	.L195:
 3956              	.LVL256:
 3957              	.LBB1571:
 3958              	.LBI1555:
  41:../../libdaisy/src/hid/disp/oled_display.h ****     {
 3959              		.loc 1 41 10 view .LVU973
 3960              	.LBB1568:
 3961              	.LBI1556:
 239:../../libdaisy/src/dev/oled_ssd130x.h ****     {
 3962              		.loc 5 239 10 view .LVU974
 3963              	.LBB1565:
 241:../../libdaisy/src/dev/oled_ssd130x.h ****             return;
 3964              		.loc 5 241 9 is_stmt 0 view .LVU975
 3965 003e 3F2E     		cmp	r6, #63
 3966 0040 FAD8     		bhi	.L192
 241:../../libdaisy/src/dev/oled_ssd130x.h ****             return;
 3967              		.loc 5 241 9 view .LVU976
 3968 0042 002B     		cmp	r3, #0
 3969 0044 F8D1     		bne	.L192
 3970              	.LVL257:
 3971              	.LBB1558:
 3972              	.LBI1558:
 239:../../libdaisy/src/dev/oled_ssd130x.h ****     {
 3973              		.loc 5 239 10 is_stmt 1 view .LVU977
 239:../../libdaisy/src/dev/oled_ssd130x.h ****     {
 3974              		.loc 5 239 10 is_stmt 0 view .LVU978
 3975              	.LBE1558:
 244:../../libdaisy/src/dev/oled_ssd130x.h ****         else
 3976              		.loc 5 244 28 view .LVU979
 3977 0046 4FEAD60C 		lsr	ip, r6, #3
 244:../../libdaisy/src/dev/oled_ssd130x.h ****         else
 3978              		.loc 5 244 54 view .LVU980
 3979 004a 06F0070E 		and	lr, r6, #7
ARM GAS  C:\Users\VINCIU~1\AppData\Local\Temp\ccdS0pnQ.s 			page 110


 244:../../libdaisy/src/dev/oled_ssd130x.h ****         else
 3980              		.loc 5 244 48 view .LVU981
 3981 004e 4FF00108 		mov	r8, #1
 244:../../libdaisy/src/dev/oled_ssd130x.h ****         else
 3982              		.loc 5 244 42 view .LVU982
 3983 0052 01EBCC1C 		add	ip, r1, ip, lsl #7
 244:../../libdaisy/src/dev/oled_ssd130x.h ****         else
 3984              		.loc 5 244 48 view .LVU983
 3985 0056 08FA0EFE 		lsl	lr, r8, lr
 244:../../libdaisy/src/dev/oled_ssd130x.h ****         else
 3986              		.loc 5 244 42 view .LVU984
 3987 005a 8444     		add	ip, ip, r0
 243:../../libdaisy/src/dev/oled_ssd130x.h ****             buffer_[x + (y / 8) * width] |= (1 << (y % 8));
 3988              		.loc 5 243 9 view .LVU985
 3989 005c 002D     		cmp	r5, #0
 3990 005e E5D1     		bne	.L278
 3991              	.LBB1562:
 3992              	.LBB1559:
 246:../../libdaisy/src/dev/oled_ssd130x.h ****     }
 3993              		.loc 5 246 42 view .LVU986
 3994 0060 9CF814B0 		ldrb	fp, [ip, #20]	@ zero_extendqisi2
 3995              	.LBE1559:
 3996              	.LBE1562:
 3997              	.LBE1565:
 3998              	.LBE1568:
 3999              	.LBE1571:
 4000              		.loc 6 228 17 view .LVU987
 4001 0064 0136     		adds	r6, r6, #1
 4002              	.LVL258:
 4003              	.LBB1572:
 4004              	.LBB1569:
 4005              	.LBB1566:
 4006              	.LBB1563:
 4007              	.LBB1560:
 246:../../libdaisy/src/dev/oled_ssd130x.h ****     }
 4008              		.loc 5 246 42 view .LVU988
 4009 0066 2BEA0E0A 		bic	r10, fp, lr
 4010              	.LBE1560:
 4011              	.LBE1563:
 4012              	.LBE1566:
 4013              	.LBE1569:
 4014              	.LBE1572:
 4015              		.loc 6 228 44 view .LVU989
 4016 006a B442     		cmp	r4, r6
 4017              	.LBB1573:
 4018              	.LBB1570:
 4019              	.LBB1567:
 4020              	.LBB1564:
 4021              	.LBB1561:
 246:../../libdaisy/src/dev/oled_ssd130x.h ****     }
 4022              		.loc 5 246 42 view .LVU990
 4023 006c 8CF814A0 		strb	r10, [ip, #20]
 4024              	.LVL259:
 246:../../libdaisy/src/dev/oled_ssd130x.h ****     }
 4025              		.loc 5 246 42 view .LVU991
 4026              	.LBE1561:
 4027              	.LBE1564:
ARM GAS  C:\Users\VINCIU~1\AppData\Local\Temp\ccdS0pnQ.s 			page 111


 4028              	.LBE1567:
 4029              	.LBE1570:
 4030              	.LBE1573:
 4031              		.loc 6 228 17 is_stmt 1 view .LVU992
 4032              		.loc 6 228 44 view .LVU993
 4033 0070 E5D2     		bcs	.L195
 4034              	.LVL260:
 4035              	.L194:
 4036              		.loc 6 228 44 is_stmt 0 view .LVU994
 4037              	.LBE1554:
 226:../../libdaisy/src/hid/disp/display.h ****             {
 4038              		.loc 6 226 13 is_stmt 1 view .LVU995
 4039 0072 0131     		adds	r1, r1, #1
 4040              	.LVL261:
 226:../../libdaisy/src/hid/disp/display.h ****             {
 4041              		.loc 6 226 40 view .LVU996
 4042 0074 8945     		cmp	r9, r1
 4043 0076 D1D2     		bcs	.L191
 4044              	.LVL262:
 4045              	.L187:
 226:../../libdaisy/src/hid/disp/display.h ****             {
 4046              		.loc 6 226 40 is_stmt 0 view .LVU997
 4047              	.LBE1553:
 4048              	.LBE1552:
 229:../../libdaisy/src/hid/disp/display.h ****                 {
 230:../../libdaisy/src/hid/disp/display.h ****                     ((ChildType*)(this))->ChildType::DrawPixel(x, y, on);
 231:../../libdaisy/src/hid/disp/display.h ****                 }
 232:../../libdaisy/src/hid/disp/display.h ****             }
 233:../../libdaisy/src/hid/disp/display.h ****         }
 234:../../libdaisy/src/hid/disp/display.h ****         else
 235:../../libdaisy/src/hid/disp/display.h ****         {
 236:../../libdaisy/src/hid/disp/display.h ****             ((ChildType*)(this))->ChildType::DrawLine(x1, y1, x2, y1, on);
 237:../../libdaisy/src/hid/disp/display.h ****             ((ChildType*)(this))->ChildType::DrawLine(x2, y1, x2, y2, on);
 238:../../libdaisy/src/hid/disp/display.h ****             ((ChildType*)(this))->ChildType::DrawLine(x2, y2, x1, y2, on);
 239:../../libdaisy/src/hid/disp/display.h ****             ((ChildType*)(this))->ChildType::DrawLine(x1, y2, x1, y1, on);
 240:../../libdaisy/src/hid/disp/display.h ****         }
 241:../../libdaisy/src/hid/disp/display.h ****     }
 4049              		.loc 6 241 5 view .LVU998
 4050 0078 07B0     		add	sp, sp, #28
 4051              		.cfi_remember_state
 4052              		.cfi_def_cfa_offset 36
 4053              		@ sp needed
 4054 007a BDE8F08F 		pop	{r4, r5, r6, r7, r8, r9, r10, fp, pc}
 4055              	.LVL263:
 4056              	.L188:
 4057              		.cfi_restore_state
 4058              	.LBB1574:
 4059              	.LBB1431:
 4060              	.LBI1431:
 181:../../libdaisy/src/hid/disp/display.h ****                   uint_fast8_t y1,
 4061              		.loc 6 181 10 is_stmt 1 view .LVU999
 4062              	.LBB1432:
 187:../../libdaisy/src/hid/disp/display.h ****         int_fast16_t deltaY = abs((int_fast16_t)y2 - (int_fast16_t)y1);
 4063              		.loc 6 187 52 is_stmt 0 view .LVU1000
 4064 007e A3EB0108 		sub	r8, r3, r1
 187:../../libdaisy/src/hid/disp/display.h ****         int_fast16_t deltaY = abs((int_fast16_t)y2 - (int_fast16_t)y1);
 4065              		.loc 6 187 22 view .LVU1001
ARM GAS  C:\Users\VINCIU~1\AppData\Local\Temp\ccdS0pnQ.s 			page 112


 4066 0082 B8F1000F 		cmp	r8, #0
 4067 0086 B8BF     		it	lt
 4068 0088 C8F10008 		rsblt	r8, r8, #0
 4069              	.LVL264:
 189:../../libdaisy/src/hid/disp/display.h ****         int_fast16_t signY  = ((y1 < y2) ? 1 : -1);
 4070              		.loc 6 189 42 view .LVU1002
 4071 008c 9942     		cmp	r1, r3
 4072 008e C0F04E81 		bcc	.L196
 4073              	.LVL265:
 4074              	.LBB1433:
 4075              	.LBI1433:
  41:../../libdaisy/src/hid/disp/oled_display.h ****     {
 4076              		.loc 1 41 10 is_stmt 1 view .LVU1003
 4077              	.LBB1434:
 4078              	.LBI1434:
 239:../../libdaisy/src/dev/oled_ssd130x.h ****     {
 4079              		.loc 5 239 10 view .LVU1004
 4080              	.LBB1435:
 241:../../libdaisy/src/dev/oled_ssd130x.h ****             return;
 4081              		.loc 5 241 14 is_stmt 0 view .LVU1005
 4082 0092 7F2B     		cmp	r3, #127
 4083              	.LBE1435:
 4084              	.LBE1434:
 4085              	.LBE1433:
 189:../../libdaisy/src/hid/disp/display.h ****         int_fast16_t signY  = ((y1 < y2) ? 1 : -1);
 4086              		.loc 6 189 42 view .LVU1006
 4087 0094 4FF0FF3A 		mov	r10, #-1
 4088              	.LBB1446:
 4089              	.LBB1442:
 4090              	.LBB1438:
 241:../../libdaisy/src/dev/oled_ssd130x.h ****             return;
 4091              		.loc 5 241 14 view .LVU1007
 4092 0098 94BF     		ite	ls
 4093 009a 0026     		movls	r6, #0
 4094 009c 0126     		movhi	r6, #1
 241:../../libdaisy/src/dev/oled_ssd130x.h ****             return;
 4095              		.loc 5 241 28 view .LVU1008
 4096 009e 3F2A     		cmp	r2, #63
 241:../../libdaisy/src/dev/oled_ssd130x.h ****             return;
 4097              		.loc 5 241 14 view .LVU1009
 4098 00a0 0096     		str	r6, [sp]
 241:../../libdaisy/src/dev/oled_ssd130x.h ****             return;
 4099              		.loc 5 241 28 view .LVU1010
 4100 00a2 94BF     		ite	ls
 4101 00a4 0027     		movls	r7, #0
 4102 00a6 0127     		movhi	r7, #1
 4103 00a8 0297     		str	r7, [sp, #8]
 241:../../libdaisy/src/dev/oled_ssd130x.h ****             return;
 4104              		.loc 5 241 9 view .LVU1011
 4105 00aa A6B9     		cbnz	r6, .L197
 4106 00ac 9FB9     		cbnz	r7, .L197
 4107              	.LVL266:
 4108              	.L238:
 244:../../libdaisy/src/dev/oled_ssd130x.h ****         else
 4109              		.loc 5 244 28 view .LVU1012
 4110 00ae D608     		lsrs	r6, r2, #3
 244:../../libdaisy/src/dev/oled_ssd130x.h ****         else
ARM GAS  C:\Users\VINCIU~1\AppData\Local\Temp\ccdS0pnQ.s 			page 113


 4111              		.loc 5 244 54 view .LVU1013
 4112 00b0 02F0070C 		and	ip, r2, #7
 244:../../libdaisy/src/dev/oled_ssd130x.h ****         else
 4113              		.loc 5 244 48 view .LVU1014
 4114 00b4 0127     		movs	r7, #1
 244:../../libdaisy/src/dev/oled_ssd130x.h ****         else
 4115              		.loc 5 244 42 view .LVU1015
 4116 00b6 03EBC616 		add	r6, r3, r6, lsl #7
 4117 00ba 0644     		add	r6, r6, r0
 243:../../libdaisy/src/dev/oled_ssd130x.h ****             buffer_[x + (y / 8) * width] |= (1 << (y % 8));
 4118              		.loc 5 243 9 view .LVU1016
 4119 00bc 002D     		cmp	r5, #0
 4120 00be 00F09481 		beq	.L198
 244:../../libdaisy/src/dev/oled_ssd130x.h ****         else
 4121              		.loc 5 244 48 view .LVU1017
 4122 00c2 07FA0CF7 		lsl	r7, r7, ip
 244:../../libdaisy/src/dev/oled_ssd130x.h ****         else
 4123              		.loc 5 244 42 view .LVU1018
 4124 00c6 96F814C0 		ldrb	ip, [r6, #20]	@ zero_extendqisi2
 4125 00ca 47EA0C07 		orr	r7, r7, ip
 4126 00ce 3775     		strb	r7, [r6, #20]
 4127 00d0 0026     		movs	r6, #0
 4128 00d2 0296     		str	r6, [sp, #8]
 4129 00d4 0096     		str	r6, [sp]
 4130              	.L197:
 4131              	.LVL267:
 244:../../libdaisy/src/dev/oled_ssd130x.h ****         else
 4132              		.loc 5 244 42 view .LVU1019
 4133              	.LBE1438:
 4134              	.LBE1442:
 4135              	.LBE1446:
 199:../../libdaisy/src/hid/disp/display.h ****         {
 4136              		.loc 6 199 26 is_stmt 1 view .LVU1020
 4137 00d6 9942     		cmp	r1, r3
 4138 00d8 00F09781 		beq	.L279
 4139              	.L200:
 4140              	.LVL268:
 187:../../libdaisy/src/hid/disp/display.h ****         int_fast16_t deltaY = abs((int_fast16_t)y2 - (int_fast16_t)y1);
 4141              		.loc 6 187 22 is_stmt 0 view .LVU1021
 4142 00dc 4646     		mov	r6, r8
 4143 00de 9446     		mov	ip, r2
 4144 00e0 8E46     		mov	lr, r1
 4145              	.LVL269:
 4146              	.L202:
 4147              	.LBB1447:
 4148              	.LBI1447:
  41:../../libdaisy/src/hid/disp/oled_display.h ****     {
 4149              		.loc 1 41 10 is_stmt 1 view .LVU1022
 4150              	.LBB1448:
 4151              	.LBI1448:
 239:../../libdaisy/src/dev/oled_ssd130x.h ****     {
 4152              		.loc 5 239 10 view .LVU1023
 4153              	.LBB1449:
 241:../../libdaisy/src/dev/oled_ssd130x.h ****             return;
 4154              		.loc 5 241 9 is_stmt 0 view .LVU1024
 4155 00e2 BEF17F0F 		cmp	lr, #127
 4156 00e6 16D8     		bhi	.L203
ARM GAS  C:\Users\VINCIU~1\AppData\Local\Temp\ccdS0pnQ.s 			page 114


 4157 00e8 BCF13F0F 		cmp	ip, #63
 4158 00ec 13D8     		bhi	.L203
 244:../../libdaisy/src/dev/oled_ssd130x.h ****         else
 4159              		.loc 5 244 28 view .LVU1025
 4160 00ee 4FEADC07 		lsr	r7, ip, #3
 244:../../libdaisy/src/dev/oled_ssd130x.h ****         else
 4161              		.loc 5 244 54 view .LVU1026
 4162 00f2 0CF0070B 		and	fp, ip, #7
 244:../../libdaisy/src/dev/oled_ssd130x.h ****         else
 4163              		.loc 5 244 48 view .LVU1027
 4164 00f6 4FF00109 		mov	r9, #1
 244:../../libdaisy/src/dev/oled_ssd130x.h ****         else
 4165              		.loc 5 244 42 view .LVU1028
 4166 00fa 0EEBC717 		add	r7, lr, r7, lsl #7
 4167 00fe 0744     		add	r7, r7, r0
 243:../../libdaisy/src/dev/oled_ssd130x.h ****             buffer_[x + (y / 8) * width] |= (1 << (y % 8));
 4168              		.loc 5 243 9 view .LVU1029
 4169 0100 002D     		cmp	r5, #0
 4170 0102 00F03981 		beq	.L204
 244:../../libdaisy/src/dev/oled_ssd130x.h ****         else
 4171              		.loc 5 244 48 view .LVU1030
 4172 0106 09FA0BF9 		lsl	r9, r9, fp
 244:../../libdaisy/src/dev/oled_ssd130x.h ****         else
 4173              		.loc 5 244 42 view .LVU1031
 4174 010a 97F814B0 		ldrb	fp, [r7, #20]	@ zero_extendqisi2
 4175 010e 49EA0B09 		orr	r9, r9, fp
 4176 0112 87F81490 		strb	r9, [r7, #20]
 4177              	.L203:
 4178              	.LVL270:
 244:../../libdaisy/src/dev/oled_ssd130x.h ****         else
 4179              		.loc 5 244 42 view .LVU1032
 4180              	.LBE1449:
 4181              	.LBE1448:
 4182              	.LBE1447:
 203:../../libdaisy/src/hid/disp/display.h ****             {
 4183              		.loc 6 203 13 view .LVU1033
 4184 0116 7700     		lsls	r7, r6, #1
 4185              	.LVL271:
 206:../../libdaisy/src/hid/disp/display.h ****             }
 4186              		.loc 6 206 20 view .LVU1034
 4187 0118 18BF     		it	ne
 4188 011a D644     		addne	lr, lr, r10
 4189              	.LVL272:
 209:../../libdaisy/src/hid/disp/display.h ****             {
 4190              		.loc 6 209 13 view .LVU1035
 4191 011c B845     		cmp	r8, r7
 4192 011e 02DD     		ble	.L206
 211:../../libdaisy/src/hid/disp/display.h ****                 y1 += signY;
 4193              		.loc 6 211 23 view .LVU1036
 4194 0120 4644     		add	r6, r6, r8
 4195              	.LVL273:
 212:../../libdaisy/src/hid/disp/display.h ****             }
 4196              		.loc 6 212 20 view .LVU1037
 4197 0122 0CF1FF3C 		add	ip, ip, #-1
 4198              	.LVL274:
 4199              	.L206:
 199:../../libdaisy/src/hid/disp/display.h ****         {
ARM GAS  C:\Users\VINCIU~1\AppData\Local\Temp\ccdS0pnQ.s 			page 115


 4200              		.loc 6 199 26 is_stmt 1 view .LVU1038
 4201 0126 7345     		cmp	r3, lr
 4202 0128 DBD1     		bne	.L202
 199:../../libdaisy/src/hid/disp/display.h ****         {
 4203              		.loc 6 199 26 is_stmt 0 view .LVU1039
 4204 012a 6245     		cmp	r2, ip
 4205 012c D9D1     		bne	.L202
 4206 012e 0026     		movs	r6, #0
 4207              	.LVL275:
 199:../../libdaisy/src/hid/disp/display.h ****         {
 4208              		.loc 6 199 26 view .LVU1040
 4209 0130 0496     		str	r6, [sp, #16]
 4210              	.LVL276:
 4211              	.L199:
 199:../../libdaisy/src/hid/disp/display.h ****         {
 4212              		.loc 6 199 26 view .LVU1041
 4213              	.LBE1432:
 4214              	.LBE1431:
 4215              	.LBB1462:
 4216              	.LBI1462:
 181:../../libdaisy/src/hid/disp/display.h ****                   uint_fast8_t y1,
 4217              		.loc 6 181 10 is_stmt 1 view .LVU1042
 4218              	.LBB1463:
 188:../../libdaisy/src/hid/disp/display.h ****         int_fast16_t signX  = ((x1 < x2) ? 1 : -1);
 4219              		.loc 6 188 52 is_stmt 0 view .LVU1043
 4220 0132 A4EB0209 		sub	r9, r4, r2
 4221              	.LBB1464:
 4222              	.LBB1465:
 4223              	.LBB1466:
 241:../../libdaisy/src/dev/oled_ssd130x.h ****             return;
 4224              		.loc 5 241 9 view .LVU1044
 4225 0136 009F     		ldr	r7, [sp]
 4226              	.LBE1466:
 4227              	.LBE1465:
 4228              	.LBE1464:
 188:../../libdaisy/src/hid/disp/display.h ****         int_fast16_t signX  = ((x1 < x2) ? 1 : -1);
 4229              		.loc 6 188 22 view .LVU1045
 4230 0138 B9F1000F 		cmp	r9, #0
 4231 013c B8BF     		it	lt
 4232 013e C9F10009 		rsblt	r9, r9, #0
 4233              	.LVL277:
 4234              	.LBB1481:
 4235              	.LBB1475:
 4236              	.LBB1469:
 241:../../libdaisy/src/dev/oled_ssd130x.h ****             return;
 4237              		.loc 5 241 28 view .LVU1046
 4238 0142 3F2C     		cmp	r4, #63
 4239 0144 94BF     		ite	ls
 4240 0146 0026     		movls	r6, #0
 4241 0148 0126     		movhi	r6, #1
 4242              	.LBE1469:
 4243              	.LBE1475:
 4244              	.LBE1481:
 190:../../libdaisy/src/hid/disp/display.h ****         int_fast16_t error  = deltaX - deltaY;
 4245              		.loc 6 190 42 view .LVU1047
 4246 014a A242     		cmp	r2, r4
 191:../../libdaisy/src/hid/disp/display.h ****         int_fast16_t error2;
ARM GAS  C:\Users\VINCIU~1\AppData\Local\Temp\ccdS0pnQ.s 			page 116


 4247              		.loc 6 191 22 view .LVU1048
 4248 014c C9F10008 		rsb	r8, r9, #0
 4249              	.LVL278:
 4250              	.LBB1482:
 4251              	.LBI1464:
  41:../../libdaisy/src/hid/disp/oled_display.h ****     {
 4252              		.loc 1 41 10 is_stmt 1 view .LVU1049
 4253              	.LBB1476:
 4254              	.LBI1465:
 239:../../libdaisy/src/dev/oled_ssd130x.h ****     {
 4255              		.loc 5 239 10 view .LVU1050
 4256              	.LBB1470:
 241:../../libdaisy/src/dev/oled_ssd130x.h ****             return;
 4257              		.loc 5 241 28 is_stmt 0 view .LVU1051
 4258 0150 0396     		str	r6, [sp, #12]
 4259              	.LBE1470:
 4260              	.LBE1476:
 4261              	.LBE1482:
 190:../../libdaisy/src/hid/disp/display.h ****         int_fast16_t error  = deltaX - deltaY;
 4262              		.loc 6 190 42 view .LVU1052
 4263 0152 C0F02381 		bcc	.L207
 4264              	.LVL279:
 4265              	.LBB1483:
 4266              	.LBB1477:
 4267              	.LBB1471:
 241:../../libdaisy/src/dev/oled_ssd130x.h ****             return;
 4268              		.loc 5 241 9 view .LVU1053
 4269 0156 002F     		cmp	r7, #0
 4270 0158 40F05081 		bne	.L242
 4271 015c 002E     		cmp	r6, #0
 4272 015e 40F04D81 		bne	.L242
 4273              	.LBE1471:
 4274              	.LBE1477:
 4275              	.LBE1483:
 190:../../libdaisy/src/hid/disp/display.h ****         int_fast16_t error  = deltaX - deltaY;
 4276              		.loc 6 190 42 view .LVU1054
 4277 0162 4FF0FF36 		mov	r6, #-1
 4278 0166 0096     		str	r6, [sp]
 4279              	.LBB1484:
 4280              	.LBB1478:
 4281              	.LBB1472:
 244:../../libdaisy/src/dev/oled_ssd130x.h ****         else
 4282              		.loc 5 244 28 view .LVU1055
 4283 0168 E608     		lsrs	r6, r4, #3
 244:../../libdaisy/src/dev/oled_ssd130x.h ****         else
 4284              		.loc 5 244 42 view .LVU1056
 4285 016a 03EBC616 		add	r6, r3, r6, lsl #7
 4286 016e 0644     		add	r6, r6, r0
 243:../../libdaisy/src/dev/oled_ssd130x.h ****             buffer_[x + (y / 8) * width] |= (1 << (y % 8));
 4287              		.loc 5 243 9 view .LVU1057
 4288 0170 002D     		cmp	r5, #0
 4289 0172 00F01E81 		beq	.L209
 4290              	.LVL280:
 4291              	.L281:
 244:../../libdaisy/src/dev/oled_ssd130x.h ****         else
 4292              		.loc 5 244 48 view .LVU1058
 4293 0176 4FF0010C 		mov	ip, #1
ARM GAS  C:\Users\VINCIU~1\AppData\Local\Temp\ccdS0pnQ.s 			page 117


 244:../../libdaisy/src/dev/oled_ssd130x.h ****         else
 4294              		.loc 5 244 54 view .LVU1059
 4295 017a 04F00707 		and	r7, r4, #7
 244:../../libdaisy/src/dev/oled_ssd130x.h ****         else
 4296              		.loc 5 244 48 view .LVU1060
 4297 017e 0CFA07F7 		lsl	r7, ip, r7
 244:../../libdaisy/src/dev/oled_ssd130x.h ****         else
 4298              		.loc 5 244 42 view .LVU1061
 4299 0182 96F814C0 		ldrb	ip, [r6, #20]	@ zero_extendqisi2
 4300 0186 47EA0C07 		orr	r7, r7, ip
 4301 018a 3775     		strb	r7, [r6, #20]
 4302 018c 0026     		movs	r6, #0
 4303 018e 0396     		str	r6, [sp, #12]
 4304              	.L208:
 4305              	.LVL281:
 244:../../libdaisy/src/dev/oled_ssd130x.h ****         else
 4306              		.loc 5 244 42 view .LVU1062
 4307              	.LBE1472:
 4308              	.LBE1478:
 4309              	.LBE1484:
 199:../../libdaisy/src/hid/disp/display.h ****         {
 4310              		.loc 6 199 26 is_stmt 1 view .LVU1063
 4311 0190 A242     		cmp	r2, r4
 4312 0192 00F03D81 		beq	.L280
 4313              	.L211:
 4314              	.LVL282:
 190:../../libdaisy/src/hid/disp/display.h ****         int_fast16_t error  = deltaX - deltaY;
 4315              		.loc 6 190 42 is_stmt 0 view .LVU1064
 4316 0196 C446     		mov	ip, r8
 4317 0198 1646     		mov	r6, r2
 4318 019a 1F46     		mov	r7, r3
 4319 019c 0592     		str	r2, [sp, #20]
 4320              	.LVL283:
 4321              	.L213:
 4322              	.LBB1485:
 4323              	.LBI1485:
  41:../../libdaisy/src/hid/disp/oled_display.h ****     {
 4324              		.loc 1 41 10 is_stmt 1 view .LVU1065
 4325              	.LBB1486:
 4326              	.LBI1486:
 239:../../libdaisy/src/dev/oled_ssd130x.h ****     {
 4327              		.loc 5 239 10 view .LVU1066
 4328              	.LBB1487:
 241:../../libdaisy/src/dev/oled_ssd130x.h ****             return;
 4329              		.loc 5 241 9 is_stmt 0 view .LVU1067
 4330 019e 7F2F     		cmp	r7, #127
 4331 01a0 15D8     		bhi	.L214
 4332 01a2 3F2E     		cmp	r6, #63
 4333 01a4 13D8     		bhi	.L214
 244:../../libdaisy/src/dev/oled_ssd130x.h ****         else
 4334              		.loc 5 244 28 view .LVU1068
 4335 01a6 4FEAD60E 		lsr	lr, r6, #3
 244:../../libdaisy/src/dev/oled_ssd130x.h ****         else
 4336              		.loc 5 244 54 view .LVU1069
 4337 01aa 06F0070B 		and	fp, r6, #7
 244:../../libdaisy/src/dev/oled_ssd130x.h ****         else
 4338              		.loc 5 244 48 view .LVU1070
ARM GAS  C:\Users\VINCIU~1\AppData\Local\Temp\ccdS0pnQ.s 			page 118


 4339 01ae 4FF0010A 		mov	r10, #1
 244:../../libdaisy/src/dev/oled_ssd130x.h ****         else
 4340              		.loc 5 244 42 view .LVU1071
 4341 01b2 07EBCE1E 		add	lr, r7, lr, lsl #7
 4342 01b6 8644     		add	lr, lr, r0
 243:../../libdaisy/src/dev/oled_ssd130x.h ****             buffer_[x + (y / 8) * width] |= (1 << (y % 8));
 4343              		.loc 5 243 9 view .LVU1072
 4344 01b8 002D     		cmp	r5, #0
 4345 01ba 00F0E680 		beq	.L215
 244:../../libdaisy/src/dev/oled_ssd130x.h ****         else
 4346              		.loc 5 244 48 view .LVU1073
 4347 01be 0AFA0BFA 		lsl	r10, r10, fp
 244:../../libdaisy/src/dev/oled_ssd130x.h ****         else
 4348              		.loc 5 244 42 view .LVU1074
 4349 01c2 9EF814B0 		ldrb	fp, [lr, #20]	@ zero_extendqisi2
 4350 01c6 4AEA0B0A 		orr	r10, r10, fp
 4351 01ca 8EF814A0 		strb	r10, [lr, #20]
 4352              	.L214:
 4353              	.LVL284:
 244:../../libdaisy/src/dev/oled_ssd130x.h ****         else
 4354              		.loc 5 244 42 view .LVU1075
 4355              	.LBE1487:
 4356              	.LBE1486:
 4357              	.LBE1485:
 203:../../libdaisy/src/hid/disp/display.h ****             {
 4358              		.loc 6 203 13 view .LVU1076
 4359 01ce B8EB4C0F 		cmp	r8, ip, lsl #1
 202:../../libdaisy/src/hid/disp/display.h ****             if(error2 > -deltaY)
 4360              		.loc 6 202 20 view .LVU1077
 4361 01d2 4FEA4C0E 		lsl	lr, ip, #1
 4362              	.LVL285:
 203:../../libdaisy/src/hid/disp/display.h ****             {
 4363              		.loc 6 203 13 view .LVU1078
 4364 01d6 02DA     		bge	.L216
 205:../../libdaisy/src/hid/disp/display.h ****                 x1 += signX;
 4365              		.loc 6 205 23 view .LVU1079
 4366 01d8 ACEB090C 		sub	ip, ip, r9
 4367              	.LVL286:
 206:../../libdaisy/src/hid/disp/display.h ****             }
 4368              		.loc 6 206 20 view .LVU1080
 4369 01dc 013F     		subs	r7, r7, #1
 4370              	.LVL287:
 4371              	.L216:
 209:../../libdaisy/src/hid/disp/display.h ****             {
 4372              		.loc 6 209 13 view .LVU1081
 4373 01de BEF1000F 		cmp	lr, #0
 4374 01e2 01D0     		beq	.L217
 212:../../libdaisy/src/hid/disp/display.h ****             }
 4375              		.loc 6 212 20 view .LVU1082
 4376 01e4 009A     		ldr	r2, [sp]
 4377 01e6 1644     		add	r6, r6, r2
 4378              	.LVL288:
 4379              	.L217:
 199:../../libdaisy/src/hid/disp/display.h ****         {
 4380              		.loc 6 199 26 is_stmt 1 view .LVU1083
 4381 01e8 BB42     		cmp	r3, r7
 4382 01ea D8D1     		bne	.L213
ARM GAS  C:\Users\VINCIU~1\AppData\Local\Temp\ccdS0pnQ.s 			page 119


 199:../../libdaisy/src/hid/disp/display.h ****         {
 4383              		.loc 6 199 26 is_stmt 0 view .LVU1084
 4384 01ec B442     		cmp	r4, r6
 4385 01ee D6D1     		bne	.L213
 4386 01f0 059A     		ldr	r2, [sp, #20]
 4387              	.LVL289:
 4388              	.L210:
 199:../../libdaisy/src/hid/disp/display.h ****         {
 4389              		.loc 6 199 26 view .LVU1085
 4390              	.LBE1463:
 4391              	.LBE1462:
 4392              	.LBB1498:
 4393              	.LBI1498:
 181:../../libdaisy/src/hid/disp/display.h ****                   uint_fast8_t y1,
 4394              		.loc 6 181 10 is_stmt 1 view .LVU1086
 4395              	.LBB1499:
 187:../../libdaisy/src/hid/disp/display.h ****         int_fast16_t deltaY = abs((int_fast16_t)y2 - (int_fast16_t)y1);
 4396              		.loc 6 187 52 is_stmt 0 view .LVU1087
 4397 01f2 A1EB030E 		sub	lr, r1, r3
 187:../../libdaisy/src/hid/disp/display.h ****         int_fast16_t deltaY = abs((int_fast16_t)y2 - (int_fast16_t)y1);
 4398              		.loc 6 187 22 view .LVU1088
 4399 01f6 BEF1000F 		cmp	lr, #0
 4400 01fa B8BF     		it	lt
 4401 01fc CEF1000E 		rsblt	lr, lr, #0
 4402              	.LVL290:
 4403              	.LBB1500:
 4404              	.LBB1501:
 4405              	.LBB1502:
 241:../../libdaisy/src/dev/oled_ssd130x.h ****             return;
 4406              		.loc 5 241 14 view .LVU1089
 4407 0200 7F29     		cmp	r1, #127
 4408 0202 94BF     		ite	ls
 4409 0204 4FF0000A 		movls	r10, #0
 4410 0208 4FF0010A 		movhi	r10, #1
 4411              	.LBE1502:
 4412              	.LBE1501:
 4413              	.LBE1500:
 189:../../libdaisy/src/hid/disp/display.h ****         int_fast16_t signY  = ((y1 < y2) ? 1 : -1);
 4414              		.loc 6 189 42 view .LVU1090
 4415 020c 9942     		cmp	r1, r3
 4416 020e 8CBF     		ite	hi
 4417 0210 4FF00109 		movhi	r9, #1
 4418 0214 4FF0FF39 		movls	r9, #-1
 4419              	.LVL291:
 4420              	.LBB1509:
 4421              	.LBI1500:
  41:../../libdaisy/src/hid/disp/oled_display.h ****     {
 4422              		.loc 1 41 10 is_stmt 1 view .LVU1091
 4423              	.LBB1507:
 4424              	.LBI1501:
 239:../../libdaisy/src/dev/oled_ssd130x.h ****     {
 4425              		.loc 5 239 10 view .LVU1092
 4426              	.LBB1505:
 241:../../libdaisy/src/dev/oled_ssd130x.h ****             return;
 4427              		.loc 5 241 9 is_stmt 0 view .LVU1093
 4428 0218 BAF1000F 		cmp	r10, #0
 4429 021c 13D1     		bne	.L219
ARM GAS  C:\Users\VINCIU~1\AppData\Local\Temp\ccdS0pnQ.s 			page 120


 4430 021e 039E     		ldr	r6, [sp, #12]
 4431 0220 8EB9     		cbnz	r6, .L219
 244:../../libdaisy/src/dev/oled_ssd130x.h ****         else
 4432              		.loc 5 244 28 view .LVU1094
 4433 0222 E608     		lsrs	r6, r4, #3
 244:../../libdaisy/src/dev/oled_ssd130x.h ****         else
 4434              		.loc 5 244 42 view .LVU1095
 4435 0224 01EBC616 		add	r6, r1, r6, lsl #7
 4436 0228 0644     		add	r6, r6, r0
 243:../../libdaisy/src/dev/oled_ssd130x.h ****             buffer_[x + (y / 8) * width] |= (1 << (y % 8));
 4437              		.loc 5 243 9 view .LVU1096
 4438 022a 002D     		cmp	r5, #0
 4439 022c 00F0D380 		beq	.L220
 244:../../libdaisy/src/dev/oled_ssd130x.h ****         else
 4440              		.loc 5 244 48 view .LVU1097
 4441 0230 4FF0010C 		mov	ip, #1
 244:../../libdaisy/src/dev/oled_ssd130x.h ****         else
 4442              		.loc 5 244 54 view .LVU1098
 4443 0234 04F00707 		and	r7, r4, #7
 244:../../libdaisy/src/dev/oled_ssd130x.h ****         else
 4444              		.loc 5 244 48 view .LVU1099
 4445 0238 0CFA07F7 		lsl	r7, ip, r7
 244:../../libdaisy/src/dev/oled_ssd130x.h ****         else
 4446              		.loc 5 244 42 view .LVU1100
 4447 023c 96F814C0 		ldrb	ip, [r6, #20]	@ zero_extendqisi2
 4448 0240 47EA0C07 		orr	r7, r7, ip
 4449 0244 3775     		strb	r7, [r6, #20]
 4450              	.L219:
 4451              	.LVL292:
 244:../../libdaisy/src/dev/oled_ssd130x.h ****         else
 4452              		.loc 5 244 42 view .LVU1101
 4453              	.LBE1505:
 4454              	.LBE1507:
 4455              	.LBE1509:
 199:../../libdaisy/src/hid/disp/display.h ****         {
 4456              		.loc 6 199 26 is_stmt 1 view .LVU1102
 4457 0246 049E     		ldr	r6, [sp, #16]
 4458 0248 26BB     		cbnz	r6, .L221
 187:../../libdaisy/src/hid/disp/display.h ****         int_fast16_t deltaY = abs((int_fast16_t)y2 - (int_fast16_t)y1);
 4459              		.loc 6 187 22 is_stmt 0 view .LVU1103
 4460 024a 7746     		mov	r7, lr
 199:../../libdaisy/src/hid/disp/display.h ****         {
 4461              		.loc 6 199 26 view .LVU1104
 4462 024c 2646     		mov	r6, r4
 4463              	.LVL293:
 4464              	.L222:
 4465              	.LBB1510:
 4466              	.LBI1510:
  41:../../libdaisy/src/hid/disp/oled_display.h ****     {
 4467              		.loc 1 41 10 is_stmt 1 view .LVU1105
 4468              	.LBB1511:
 4469              	.LBI1511:
 239:../../libdaisy/src/dev/oled_ssd130x.h ****     {
 4470              		.loc 5 239 10 view .LVU1106
 4471              	.LBB1512:
 241:../../libdaisy/src/dev/oled_ssd130x.h ****             return;
 4472              		.loc 5 241 9 is_stmt 0 view .LVU1107
ARM GAS  C:\Users\VINCIU~1\AppData\Local\Temp\ccdS0pnQ.s 			page 121


 4473 024e 7F2B     		cmp	r3, #127
 4474 0250 14D8     		bhi	.L224
 241:../../libdaisy/src/dev/oled_ssd130x.h ****             return;
 4475              		.loc 5 241 9 view .LVU1108
 4476 0252 3F2E     		cmp	r6, #63
 4477 0254 12D8     		bhi	.L224
 244:../../libdaisy/src/dev/oled_ssd130x.h ****         else
 4478              		.loc 5 244 28 view .LVU1109
 4479 0256 4FEAD60C 		lsr	ip, r6, #3
 244:../../libdaisy/src/dev/oled_ssd130x.h ****         else
 4480              		.loc 5 244 54 view .LVU1110
 4481 025a 06F0070B 		and	fp, r6, #7
 244:../../libdaisy/src/dev/oled_ssd130x.h ****         else
 4482              		.loc 5 244 48 view .LVU1111
 4483 025e 4FF00108 		mov	r8, #1
 244:../../libdaisy/src/dev/oled_ssd130x.h ****         else
 4484              		.loc 5 244 42 view .LVU1112
 4485 0262 03EBCC1C 		add	ip, r3, ip, lsl #7
 4486 0266 8444     		add	ip, ip, r0
 243:../../libdaisy/src/dev/oled_ssd130x.h ****             buffer_[x + (y / 8) * width] |= (1 << (y % 8));
 4487              		.loc 5 243 9 view .LVU1113
 4488 0268 002D     		cmp	r5, #0
 4489 026a 73D0     		beq	.L225
 244:../../libdaisy/src/dev/oled_ssd130x.h ****         else
 4490              		.loc 5 244 48 view .LVU1114
 4491 026c 08FA0BF8 		lsl	r8, r8, fp
 244:../../libdaisy/src/dev/oled_ssd130x.h ****         else
 4492              		.loc 5 244 42 view .LVU1115
 4493 0270 9CF814B0 		ldrb	fp, [ip, #20]	@ zero_extendqisi2
 4494 0274 48EA0B08 		orr	r8, r8, fp
 4495 0278 8CF81480 		strb	r8, [ip, #20]
 4496              	.L224:
 4497              	.LVL294:
 244:../../libdaisy/src/dev/oled_ssd130x.h ****         else
 4498              		.loc 5 244 42 view .LVU1116
 4499              	.LBE1512:
 4500              	.LBE1511:
 4501              	.LBE1510:
 203:../../libdaisy/src/hid/disp/display.h ****             {
 4502              		.loc 6 203 13 view .LVU1117
 4503 027c 5FEA470C 		lsls	ip, r7, #1
 4504              	.LVL295:
 206:../../libdaisy/src/hid/disp/display.h ****             }
 4505              		.loc 6 206 20 view .LVU1118
 4506 0280 18BF     		it	ne
 4507 0282 4B44     		addne	r3, r3, r9
 4508              	.LVL296:
 209:../../libdaisy/src/hid/disp/display.h ****             {
 4509              		.loc 6 209 13 view .LVU1119
 4510 0284 E645     		cmp	lr, ip
 4511 0286 01DD     		ble	.L227
 211:../../libdaisy/src/hid/disp/display.h ****                 y1 += signY;
 4512              		.loc 6 211 23 view .LVU1120
 4513 0288 7744     		add	r7, r7, lr
 4514              	.LVL297:
 212:../../libdaisy/src/hid/disp/display.h ****             }
 4515              		.loc 6 212 20 view .LVU1121
ARM GAS  C:\Users\VINCIU~1\AppData\Local\Temp\ccdS0pnQ.s 			page 122


 4516 028a 013E     		subs	r6, r6, #1
 4517              	.LVL298:
 4518              	.L227:
 199:../../libdaisy/src/hid/disp/display.h ****         {
 4519              		.loc 6 199 26 is_stmt 1 view .LVU1122
 4520 028c 9942     		cmp	r1, r3
 4521 028e DED1     		bne	.L222
 199:../../libdaisy/src/hid/disp/display.h ****         {
 4522              		.loc 6 199 26 is_stmt 0 view .LVU1123
 4523 0290 B442     		cmp	r4, r6
 4524 0292 DCD1     		bne	.L222
 4525              	.LVL299:
 4526              	.L221:
 199:../../libdaisy/src/hid/disp/display.h ****         {
 4527              		.loc 6 199 26 view .LVU1124
 4528              	.LBE1499:
 4529              	.LBE1498:
 4530              	.LBB1521:
 4531              	.LBI1521:
 181:../../libdaisy/src/hid/disp/display.h ****                   uint_fast8_t y1,
 4532              		.loc 6 181 10 is_stmt 1 view .LVU1125
 4533              	.LBB1522:
 188:../../libdaisy/src/hid/disp/display.h ****         int_fast16_t signX  = ((x1 < x2) ? 1 : -1);
 4534              		.loc 6 188 52 is_stmt 0 view .LVU1126
 4535 0294 A2EB040E 		sub	lr, r2, r4
 188:../../libdaisy/src/hid/disp/display.h ****         int_fast16_t signX  = ((x1 < x2) ? 1 : -1);
 4536              		.loc 6 188 22 view .LVU1127
 4537 0298 BEF1000F 		cmp	lr, #0
 4538 029c B8BF     		it	lt
 4539 029e CEF1000E 		rsblt	lr, lr, #0
 4540              	.LVL300:
 190:../../libdaisy/src/hid/disp/display.h ****         int_fast16_t error  = deltaX - deltaY;
 4541              		.loc 6 190 42 view .LVU1128
 4542 02a2 A242     		cmp	r2, r4
 4543 02a4 8CBF     		ite	hi
 4544 02a6 4FF00108 		movhi	r8, #1
 4545 02aa 4FF0FF38 		movls	r8, #-1
 4546              	.LVL301:
 191:../../libdaisy/src/hid/disp/display.h ****         int_fast16_t error2;
 4547              		.loc 6 191 22 view .LVU1129
 4548 02ae CEF1000C 		rsb	ip, lr, #0
 4549              	.LVL302:
 4550              	.LBB1523:
 4551              	.LBI1523:
  41:../../libdaisy/src/hid/disp/oled_display.h ****     {
 4552              		.loc 1 41 10 is_stmt 1 view .LVU1130
 4553              	.LBB1524:
 4554              	.LBI1524:
 239:../../libdaisy/src/dev/oled_ssd130x.h ****     {
 4555              		.loc 5 239 10 view .LVU1131
 4556              	.LBB1525:
 241:../../libdaisy/src/dev/oled_ssd130x.h ****             return;
 4557              		.loc 5 241 9 is_stmt 0 view .LVU1132
 4558 02b2 BAF1000F 		cmp	r10, #0
 4559 02b6 0ED1     		bne	.L229
 4560 02b8 029B     		ldr	r3, [sp, #8]
 4561 02ba 63B9     		cbnz	r3, .L229
ARM GAS  C:\Users\VINCIU~1\AppData\Local\Temp\ccdS0pnQ.s 			page 123


 244:../../libdaisy/src/dev/oled_ssd130x.h ****         else
 4562              		.loc 5 244 28 view .LVU1133
 4563 02bc D308     		lsrs	r3, r2, #3
 244:../../libdaisy/src/dev/oled_ssd130x.h ****         else
 4564              		.loc 5 244 54 view .LVU1134
 4565 02be 02F00707 		and	r7, r2, #7
 244:../../libdaisy/src/dev/oled_ssd130x.h ****         else
 4566              		.loc 5 244 48 view .LVU1135
 4567 02c2 0126     		movs	r6, #1
 244:../../libdaisy/src/dev/oled_ssd130x.h ****         else
 4568              		.loc 5 244 42 view .LVU1136
 4569 02c4 01EBC313 		add	r3, r1, r3, lsl #7
 4570 02c8 0344     		add	r3, r3, r0
 243:../../libdaisy/src/dev/oled_ssd130x.h ****             buffer_[x + (y / 8) * width] |= (1 << (y % 8));
 4571              		.loc 5 243 9 view .LVU1137
 4572 02ca 002D     		cmp	r5, #0
 4573 02cc 7CD0     		beq	.L230
 244:../../libdaisy/src/dev/oled_ssd130x.h ****         else
 4574              		.loc 5 244 48 view .LVU1138
 4575 02ce BE40     		lsls	r6, r6, r7
 244:../../libdaisy/src/dev/oled_ssd130x.h ****         else
 4576              		.loc 5 244 42 view .LVU1139
 4577 02d0 1F7D     		ldrb	r7, [r3, #20]	@ zero_extendqisi2
 4578 02d2 3E43     		orrs	r6, r6, r7
 4579 02d4 1E75     		strb	r6, [r3, #20]
 4580              	.L229:
 4581              	.LVL303:
 244:../../libdaisy/src/dev/oled_ssd130x.h ****         else
 4582              		.loc 5 244 42 view .LVU1140
 4583              	.LBE1525:
 4584              	.LBE1524:
 4585              	.LBE1523:
 199:../../libdaisy/src/hid/disp/display.h ****         {
 4586              		.loc 6 199 26 is_stmt 1 view .LVU1141
 4587 02d6 019B     		ldr	r3, [sp, #4]
 4588 02d8 002B     		cmp	r3, #0
 4589 02da 7FF4CDAE 		bne	.L187
 4590 02de 6646     		mov	r6, ip
 4591 02e0 0B46     		mov	r3, r1
 4592              	.LVL304:
 4593              	.L231:
 4594              	.LBB1530:
 4595              	.LBI1530:
  41:../../libdaisy/src/hid/disp/oled_display.h ****     {
 4596              		.loc 1 41 10 view .LVU1142
 4597              	.LBB1531:
 4598              	.LBI1531:
 239:../../libdaisy/src/dev/oled_ssd130x.h ****     {
 4599              		.loc 5 239 10 view .LVU1143
 4600              	.LBB1532:
 241:../../libdaisy/src/dev/oled_ssd130x.h ****             return;
 4601              		.loc 5 241 9 is_stmt 0 view .LVU1144
 4602 02e2 7F2B     		cmp	r3, #127
 4603 02e4 12D8     		bhi	.L233
 241:../../libdaisy/src/dev/oled_ssd130x.h ****             return;
 4604              		.loc 5 241 9 view .LVU1145
 4605 02e6 3F2C     		cmp	r4, #63
ARM GAS  C:\Users\VINCIU~1\AppData\Local\Temp\ccdS0pnQ.s 			page 124


 4606 02e8 10D8     		bhi	.L233
 244:../../libdaisy/src/dev/oled_ssd130x.h ****         else
 4607              		.loc 5 244 28 view .LVU1146
 4608 02ea E708     		lsrs	r7, r4, #3
 244:../../libdaisy/src/dev/oled_ssd130x.h ****         else
 4609              		.loc 5 244 54 view .LVU1147
 4610 02ec 04F0070A 		and	r10, r4, #7
 244:../../libdaisy/src/dev/oled_ssd130x.h ****         else
 4611              		.loc 5 244 48 view .LVU1148
 4612 02f0 4FF00109 		mov	r9, #1
 244:../../libdaisy/src/dev/oled_ssd130x.h ****         else
 4613              		.loc 5 244 42 view .LVU1149
 4614 02f4 03EBC717 		add	r7, r3, r7, lsl #7
 4615 02f8 0744     		add	r7, r7, r0
 243:../../libdaisy/src/dev/oled_ssd130x.h ****             buffer_[x + (y / 8) * width] |= (1 << (y % 8));
 4616              		.loc 5 243 9 view .LVU1150
 4617 02fa A5B3     		cbz	r5, .L234
 244:../../libdaisy/src/dev/oled_ssd130x.h ****         else
 4618              		.loc 5 244 48 view .LVU1151
 4619 02fc 09FA0AF9 		lsl	r9, r9, r10
 244:../../libdaisy/src/dev/oled_ssd130x.h ****         else
 4620              		.loc 5 244 42 view .LVU1152
 4621 0300 97F814A0 		ldrb	r10, [r7, #20]	@ zero_extendqisi2
 4622 0304 49EA0A09 		orr	r9, r9, r10
 4623 0308 87F81490 		strb	r9, [r7, #20]
 4624              	.L233:
 4625              	.LVL305:
 244:../../libdaisy/src/dev/oled_ssd130x.h ****         else
 4626              		.loc 5 244 42 view .LVU1153
 4627              	.LBE1532:
 4628              	.LBE1531:
 4629              	.LBE1530:
 203:../../libdaisy/src/hid/disp/display.h ****             {
 4630              		.loc 6 203 13 view .LVU1154
 4631 030c BCEB460F 		cmp	ip, r6, lsl #1
 202:../../libdaisy/src/hid/disp/display.h ****             if(error2 > -deltaY)
 4632              		.loc 6 202 20 view .LVU1155
 4633 0310 4FEA4607 		lsl	r7, r6, #1
 4634              	.LVL306:
 203:../../libdaisy/src/hid/disp/display.h ****             {
 4635              		.loc 6 203 13 view .LVU1156
 4636 0314 02DA     		bge	.L235
 205:../../libdaisy/src/hid/disp/display.h ****                 x1 += signX;
 4637              		.loc 6 205 23 view .LVU1157
 4638 0316 A6EB0E06 		sub	r6, r6, lr
 4639              	.LVL307:
 206:../../libdaisy/src/hid/disp/display.h ****             }
 4640              		.loc 6 206 20 view .LVU1158
 4641 031a 013B     		subs	r3, r3, #1
 4642              	.LVL308:
 4643              	.L235:
 209:../../libdaisy/src/hid/disp/display.h ****             {
 4644              		.loc 6 209 13 view .LVU1159
 4645 031c 07B1     		cbz	r7, .L236
 212:../../libdaisy/src/hid/disp/display.h ****             }
 4646              		.loc 6 212 20 view .LVU1160
 4647 031e 4444     		add	r4, r4, r8
ARM GAS  C:\Users\VINCIU~1\AppData\Local\Temp\ccdS0pnQ.s 			page 125


 4648              	.LVL309:
 4649              	.L236:
 199:../../libdaisy/src/hid/disp/display.h ****         {
 4650              		.loc 6 199 26 is_stmt 1 view .LVU1161
 4651 0320 9942     		cmp	r1, r3
 4652 0322 DED1     		bne	.L231
 199:../../libdaisy/src/hid/disp/display.h ****         {
 4653              		.loc 6 199 26 is_stmt 0 view .LVU1162
 4654 0324 A242     		cmp	r2, r4
 4655 0326 DCD1     		bne	.L231
 4656              	.LBE1522:
 4657              	.LBE1521:
 4658              	.LBE1574:
 4659              		.loc 6 241 5 view .LVU1163
 4660 0328 07B0     		add	sp, sp, #28
 4661              		.cfi_remember_state
 4662              		.cfi_def_cfa_offset 36
 4663              		@ sp needed
 4664 032a BDE8F08F 		pop	{r4, r5, r6, r7, r8, r9, r10, fp, pc}
 4665              	.LVL310:
 4666              	.L196:
 4667              		.cfi_restore_state
 4668              	.LBB1575:
 4669              	.LBB1541:
 4670              	.LBB1458:
 4671              	.LBB1454:
  41:../../libdaisy/src/hid/disp/oled_display.h ****     {
 4672              		.loc 1 41 10 is_stmt 1 view .LVU1164
 4673              	.LBB1443:
 239:../../libdaisy/src/dev/oled_ssd130x.h ****     {
 4674              		.loc 5 239 10 view .LVU1165
 4675              	.LBB1439:
 241:../../libdaisy/src/dev/oled_ssd130x.h ****             return;
 4676              		.loc 5 241 28 is_stmt 0 view .LVU1166
 4677 032e 3F2A     		cmp	r2, #63
 4678              	.LBE1439:
 4679              	.LBE1443:
 4680              	.LBE1454:
 189:../../libdaisy/src/hid/disp/display.h ****         int_fast16_t signY  = ((y1 < y2) ? 1 : -1);
 4681              		.loc 6 189 42 view .LVU1167
 4682 0330 4FF0010A 		mov	r10, #1
 4683              	.LBB1455:
 4684              	.LBB1444:
 4685              	.LBB1440:
 241:../../libdaisy/src/dev/oled_ssd130x.h ****             return;
 4686              		.loc 5 241 28 view .LVU1168
 4687 0334 94BF     		ite	ls
 4688 0336 0026     		movls	r6, #0
 4689 0338 0126     		movhi	r6, #1
 241:../../libdaisy/src/dev/oled_ssd130x.h ****             return;
 4690              		.loc 5 241 14 view .LVU1169
 4691 033a 7F2B     		cmp	r3, #127
 241:../../libdaisy/src/dev/oled_ssd130x.h ****             return;
 4692              		.loc 5 241 28 view .LVU1170
 4693 033c 0296     		str	r6, [sp, #8]
 241:../../libdaisy/src/dev/oled_ssd130x.h ****             return;
 4694              		.loc 5 241 14 view .LVU1171
ARM GAS  C:\Users\VINCIU~1\AppData\Local\Temp\ccdS0pnQ.s 			page 126


 4695 033e 94BF     		ite	ls
 4696 0340 0027     		movls	r7, #0
 4697 0342 0127     		movhi	r7, #1
 4698 0344 0097     		str	r7, [sp]
 241:../../libdaisy/src/dev/oled_ssd130x.h ****             return;
 4699              		.loc 5 241 9 view .LVU1172
 4700 0346 002E     		cmp	r6, #0
 4701 0348 7FF4C8AE 		bne	.L200
 4702 034c 002F     		cmp	r7, #0
 4703 034e 3FF4AEAE 		beq	.L238
 4704 0352 C3E6     		b	.L200
 4705              	.LVL311:
 4706              	.L225:
 241:../../libdaisy/src/dev/oled_ssd130x.h ****             return;
 4707              		.loc 5 241 9 view .LVU1173
 4708              	.LBE1440:
 4709              	.LBE1444:
 4710              	.LBE1455:
 4711              	.LBE1458:
 4712              	.LBE1541:
 4713              	.LBB1542:
 4714              	.LBB1519:
 4715              	.LBB1517:
 4716              	.LBB1516:
 4717              	.LBB1515:
 4718              	.LBB1513:
 4719              	.LBI1513:
 239:../../libdaisy/src/dev/oled_ssd130x.h ****     {
 4720              		.loc 5 239 10 is_stmt 1 view .LVU1174
 4721              	.LBB1514:
 246:../../libdaisy/src/dev/oled_ssd130x.h ****     }
 4722              		.loc 5 246 49 is_stmt 0 view .LVU1175
 4723 0354 08FA0BFB 		lsl	fp, r8, fp
 246:../../libdaisy/src/dev/oled_ssd130x.h ****     }
 4724              		.loc 5 246 42 view .LVU1176
 4725 0358 9CF81480 		ldrb	r8, [ip, #20]	@ zero_extendqisi2
 4726 035c 28EA0B08 		bic	r8, r8, fp
 4727 0360 8CF81480 		strb	r8, [ip, #20]
 4728 0364 8AE7     		b	.L224
 4729              	.LVL312:
 4730              	.L234:
 246:../../libdaisy/src/dev/oled_ssd130x.h ****     }
 4731              		.loc 5 246 42 view .LVU1177
 4732              	.LBE1514:
 4733              	.LBE1513:
 4734              	.LBE1515:
 4735              	.LBE1516:
 4736              	.LBE1517:
 4737              	.LBE1519:
 4738              	.LBE1542:
 4739              	.LBB1543:
 4740              	.LBB1539:
 4741              	.LBB1537:
 4742              	.LBB1536:
 4743              	.LBB1535:
 4744              	.LBB1533:
 4745              	.LBI1533:
ARM GAS  C:\Users\VINCIU~1\AppData\Local\Temp\ccdS0pnQ.s 			page 127


 239:../../libdaisy/src/dev/oled_ssd130x.h ****     {
 4746              		.loc 5 239 10 is_stmt 1 view .LVU1178
 4747              	.LBB1534:
 246:../../libdaisy/src/dev/oled_ssd130x.h ****     }
 4748              		.loc 5 246 49 is_stmt 0 view .LVU1179
 4749 0366 09FA0AFA 		lsl	r10, r9, r10
 246:../../libdaisy/src/dev/oled_ssd130x.h ****     }
 4750              		.loc 5 246 42 view .LVU1180
 4751 036a 97F81490 		ldrb	r9, [r7, #20]	@ zero_extendqisi2
 4752 036e 29EA0A09 		bic	r9, r9, r10
 4753 0372 87F81490 		strb	r9, [r7, #20]
 4754 0376 C9E7     		b	.L233
 4755              	.LVL313:
 4756              	.L204:
 246:../../libdaisy/src/dev/oled_ssd130x.h ****     }
 4757              		.loc 5 246 42 view .LVU1181
 4758              	.LBE1534:
 4759              	.LBE1533:
 4760              	.LBE1535:
 4761              	.LBE1536:
 4762              	.LBE1537:
 4763              	.LBE1539:
 4764              	.LBE1543:
 4765              	.LBB1544:
 4766              	.LBB1459:
 4767              	.LBB1456:
 4768              	.LBB1453:
 4769              	.LBB1452:
 4770              	.LBB1450:
 4771              	.LBI1450:
 239:../../libdaisy/src/dev/oled_ssd130x.h ****     {
 4772              		.loc 5 239 10 is_stmt 1 view .LVU1182
 4773              	.LBB1451:
 246:../../libdaisy/src/dev/oled_ssd130x.h ****     }
 4774              		.loc 5 246 49 is_stmt 0 view .LVU1183
 4775 0378 09FA0BFB 		lsl	fp, r9, fp
 246:../../libdaisy/src/dev/oled_ssd130x.h ****     }
 4776              		.loc 5 246 42 view .LVU1184
 4777 037c 97F81490 		ldrb	r9, [r7, #20]	@ zero_extendqisi2
 4778 0380 29EA0B09 		bic	r9, r9, fp
 4779 0384 87F81490 		strb	r9, [r7, #20]
 4780 0388 C5E6     		b	.L203
 4781              	.LVL314:
 4782              	.L215:
 246:../../libdaisy/src/dev/oled_ssd130x.h ****     }
 4783              		.loc 5 246 42 view .LVU1185
 4784              	.LBE1451:
 4785              	.LBE1450:
 4786              	.LBE1452:
 4787              	.LBE1453:
 4788              	.LBE1456:
 4789              	.LBE1459:
 4790              	.LBE1544:
 4791              	.LBB1545:
 4792              	.LBB1495:
 4793              	.LBB1492:
 4794              	.LBB1491:
ARM GAS  C:\Users\VINCIU~1\AppData\Local\Temp\ccdS0pnQ.s 			page 128


 4795              	.LBB1490:
 4796              	.LBB1488:
 4797              	.LBI1488:
 239:../../libdaisy/src/dev/oled_ssd130x.h ****     {
 4798              		.loc 5 239 10 is_stmt 1 view .LVU1186
 4799              	.LBB1489:
 246:../../libdaisy/src/dev/oled_ssd130x.h ****     }
 4800              		.loc 5 246 49 is_stmt 0 view .LVU1187
 4801 038a 0AFA0BFB 		lsl	fp, r10, fp
 246:../../libdaisy/src/dev/oled_ssd130x.h ****     }
 4802              		.loc 5 246 42 view .LVU1188
 4803 038e 9EF814A0 		ldrb	r10, [lr, #20]	@ zero_extendqisi2
 4804 0392 2AEA0B0A 		bic	r10, r10, fp
 4805 0396 8EF814A0 		strb	r10, [lr, #20]
 4806 039a 18E7     		b	.L214
 4807              	.LVL315:
 4808              	.L207:
 246:../../libdaisy/src/dev/oled_ssd130x.h ****     }
 4809              		.loc 5 246 42 view .LVU1189
 4810              	.LBE1489:
 4811              	.LBE1488:
 4812              	.LBE1490:
 4813              	.LBE1491:
 4814              	.LBE1492:
 4815              	.LBB1493:
 4816              	.LBB1479:
 4817              	.LBB1473:
 241:../../libdaisy/src/dev/oled_ssd130x.h ****             return;
 4818              		.loc 5 241 9 view .LVU1190
 4819 039c 97BB     		cbnz	r7, .L246
 4820 039e 8EBB     		cbnz	r6, .L246
 4821              	.LBE1473:
 4822              	.LBE1479:
 4823              	.LBE1493:
 190:../../libdaisy/src/hid/disp/display.h ****         int_fast16_t error  = deltaX - deltaY;
 4824              		.loc 6 190 42 view .LVU1191
 4825 03a0 0126     		movs	r6, #1
 4826 03a2 0096     		str	r6, [sp]
 4827              	.LBB1494:
 4828              	.LBB1480:
 4829              	.LBB1474:
 244:../../libdaisy/src/dev/oled_ssd130x.h ****         else
 4830              		.loc 5 244 28 view .LVU1192
 4831 03a4 E608     		lsrs	r6, r4, #3
 244:../../libdaisy/src/dev/oled_ssd130x.h ****         else
 4832              		.loc 5 244 42 view .LVU1193
 4833 03a6 03EBC616 		add	r6, r3, r6, lsl #7
 4834 03aa 0644     		add	r6, r6, r0
 243:../../libdaisy/src/dev/oled_ssd130x.h ****             buffer_[x + (y / 8) * width] |= (1 << (y % 8));
 4835              		.loc 5 243 9 view .LVU1194
 4836 03ac 002D     		cmp	r5, #0
 4837 03ae 7FF4E2AE 		bne	.L281
 4838              	.LVL316:
 4839              	.L209:
 4840              	.LBB1467:
 4841              	.LBI1467:
 239:../../libdaisy/src/dev/oled_ssd130x.h ****     {
ARM GAS  C:\Users\VINCIU~1\AppData\Local\Temp\ccdS0pnQ.s 			page 129


 4842              		.loc 5 239 10 is_stmt 1 view .LVU1195
 4843              	.LBB1468:
 246:../../libdaisy/src/dev/oled_ssd130x.h ****     }
 4844              		.loc 5 246 49 is_stmt 0 view .LVU1196
 4845 03b2 0127     		movs	r7, #1
 246:../../libdaisy/src/dev/oled_ssd130x.h ****     }
 4846              		.loc 5 246 55 view .LVU1197
 4847 03b4 04F0070C 		and	ip, r4, #7
 246:../../libdaisy/src/dev/oled_ssd130x.h ****     }
 4848              		.loc 5 246 42 view .LVU1198
 4849 03b8 0395     		str	r5, [sp, #12]
 246:../../libdaisy/src/dev/oled_ssd130x.h ****     }
 4850              		.loc 5 246 49 view .LVU1199
 4851 03ba 07FA0CFC 		lsl	ip, r7, ip
 246:../../libdaisy/src/dev/oled_ssd130x.h ****     }
 4852              		.loc 5 246 42 view .LVU1200
 4853 03be 377D     		ldrb	r7, [r6, #20]	@ zero_extendqisi2
 4854 03c0 27EA0C07 		bic	r7, r7, ip
 4855 03c4 3775     		strb	r7, [r6, #20]
 4856 03c6 E3E6     		b	.L208
 4857              	.LVL317:
 4858              	.L230:
 246:../../libdaisy/src/dev/oled_ssd130x.h ****     }
 4859              		.loc 5 246 42 view .LVU1201
 4860              	.LBE1468:
 4861              	.LBE1467:
 4862              	.LBE1474:
 4863              	.LBE1480:
 4864              	.LBE1494:
 4865              	.LBE1495:
 4866              	.LBE1545:
 4867              	.LBB1546:
 4868              	.LBB1540:
 4869              	.LBB1538:
 4870              	.LBB1529:
 4871              	.LBB1528:
 4872              	.LBB1526:
 4873              	.LBI1526:
 239:../../libdaisy/src/dev/oled_ssd130x.h ****     {
 4874              		.loc 5 239 10 is_stmt 1 view .LVU1202
 4875              	.LBB1527:
 246:../../libdaisy/src/dev/oled_ssd130x.h ****     }
 4876              		.loc 5 246 49 is_stmt 0 view .LVU1203
 4877 03c8 06FA07F7 		lsl	r7, r6, r7
 246:../../libdaisy/src/dev/oled_ssd130x.h ****     }
 4878              		.loc 5 246 42 view .LVU1204
 4879 03cc 1E7D     		ldrb	r6, [r3, #20]	@ zero_extendqisi2
 4880 03ce 26EA0706 		bic	r6, r6, r7
 4881 03d2 1E75     		strb	r6, [r3, #20]
 4882 03d4 7FE7     		b	.L229
 4883              	.LVL318:
 4884              	.L220:
 246:../../libdaisy/src/dev/oled_ssd130x.h ****     }
 4885              		.loc 5 246 42 view .LVU1205
 4886              	.LBE1527:
 4887              	.LBE1526:
 4888              	.LBE1528:
ARM GAS  C:\Users\VINCIU~1\AppData\Local\Temp\ccdS0pnQ.s 			page 130


 4889              	.LBE1529:
 4890              	.LBE1538:
 4891              	.LBE1540:
 4892              	.LBE1546:
 4893              	.LBB1547:
 4894              	.LBB1520:
 4895              	.LBB1518:
 4896              	.LBB1508:
 4897              	.LBB1506:
 4898              	.LBB1503:
 4899              	.LBI1503:
 239:../../libdaisy/src/dev/oled_ssd130x.h ****     {
 4900              		.loc 5 239 10 is_stmt 1 view .LVU1206
 4901              	.LBB1504:
 246:../../libdaisy/src/dev/oled_ssd130x.h ****     }
 4902              		.loc 5 246 49 is_stmt 0 view .LVU1207
 4903 03d6 0127     		movs	r7, #1
 246:../../libdaisy/src/dev/oled_ssd130x.h ****     }
 4904              		.loc 5 246 55 view .LVU1208
 4905 03d8 04F0070C 		and	ip, r4, #7
 246:../../libdaisy/src/dev/oled_ssd130x.h ****     }
 4906              		.loc 5 246 49 view .LVU1209
 4907 03dc 07FA0CFC 		lsl	ip, r7, ip
 246:../../libdaisy/src/dev/oled_ssd130x.h ****     }
 4908              		.loc 5 246 42 view .LVU1210
 4909 03e0 377D     		ldrb	r7, [r6, #20]	@ zero_extendqisi2
 4910 03e2 27EA0C07 		bic	r7, r7, ip
 4911 03e6 3775     		strb	r7, [r6, #20]
 4912 03e8 2DE7     		b	.L219
 4913              	.LVL319:
 4914              	.L198:
 246:../../libdaisy/src/dev/oled_ssd130x.h ****     }
 4915              		.loc 5 246 42 view .LVU1211
 4916              	.LBE1504:
 4917              	.LBE1503:
 4918              	.LBE1506:
 4919              	.LBE1508:
 4920              	.LBE1518:
 4921              	.LBE1520:
 4922              	.LBE1547:
 4923              	.LBB1548:
 4924              	.LBB1460:
 4925              	.LBB1457:
 4926              	.LBB1445:
 4927              	.LBB1441:
 4928              	.LBB1436:
 4929              	.LBI1436:
 239:../../libdaisy/src/dev/oled_ssd130x.h ****     {
 4930              		.loc 5 239 10 is_stmt 1 view .LVU1212
 4931              	.LBB1437:
 246:../../libdaisy/src/dev/oled_ssd130x.h ****     }
 4932              		.loc 5 246 49 is_stmt 0 view .LVU1213
 4933 03ea 07FA0CFC 		lsl	ip, r7, ip
 246:../../libdaisy/src/dev/oled_ssd130x.h ****     }
 4934              		.loc 5 246 42 view .LVU1214
 4935 03ee 377D     		ldrb	r7, [r6, #20]	@ zero_extendqisi2
 4936 03f0 0295     		str	r5, [sp, #8]
ARM GAS  C:\Users\VINCIU~1\AppData\Local\Temp\ccdS0pnQ.s 			page 131


 4937 03f2 27EA0C07 		bic	r7, r7, ip
 4938 03f6 0095     		str	r5, [sp]
 4939 03f8 3775     		strb	r7, [r6, #20]
 4940 03fa 6CE6     		b	.L197
 4941              	.LVL320:
 4942              	.L242:
 246:../../libdaisy/src/dev/oled_ssd130x.h ****     }
 4943              		.loc 5 246 42 view .LVU1215
 4944              	.LBE1437:
 4945              	.LBE1436:
 4946              	.LBE1441:
 4947              	.LBE1445:
 4948              	.LBE1457:
 4949              	.LBE1460:
 4950              	.LBE1548:
 4951              	.LBB1549:
 4952              	.LBB1496:
 190:../../libdaisy/src/hid/disp/display.h ****         int_fast16_t error  = deltaX - deltaY;
 4953              		.loc 6 190 42 view .LVU1216
 4954 03fc 4FF0FF36 		mov	r6, #-1
 4955 0400 0096     		str	r6, [sp]
 4956 0402 C5E6     		b	.L208
 4957              	.LVL321:
 4958              	.L246:
 190:../../libdaisy/src/hid/disp/display.h ****         int_fast16_t error  = deltaX - deltaY;
 4959              		.loc 6 190 42 view .LVU1217
 4960 0404 0126     		movs	r6, #1
 4961 0406 0096     		str	r6, [sp]
 4962 0408 C5E6     		b	.L211
 4963              	.LVL322:
 4964              	.L279:
 190:../../libdaisy/src/hid/disp/display.h ****         int_fast16_t error  = deltaX - deltaY;
 4965              		.loc 6 190 42 view .LVU1218
 4966              	.LBE1496:
 4967              	.LBE1549:
 4968              	.LBB1550:
 4969              	.LBB1461:
 199:../../libdaisy/src/hid/disp/display.h ****         {
 4970              		.loc 6 199 19 view .LVU1219
 4971 040a 0126     		movs	r6, #1
 4972 040c 0496     		str	r6, [sp, #16]
 4973 040e 90E6     		b	.L199
 4974              	.LVL323:
 4975              	.L280:
 199:../../libdaisy/src/hid/disp/display.h ****         {
 4976              		.loc 6 199 19 view .LVU1220
 4977              	.LBE1461:
 4978              	.LBE1550:
 4979              	.LBB1551:
 4980              	.LBB1497:
 199:../../libdaisy/src/hid/disp/display.h ****         {
 4981              		.loc 6 199 33 view .LVU1221
 4982 0410 0126     		movs	r6, #1
 4983 0412 0196     		str	r6, [sp, #4]
 4984 0414 EDE6     		b	.L210
 4985              	.LBE1497:
 4986              	.LBE1551:
ARM GAS  C:\Users\VINCIU~1\AppData\Local\Temp\ccdS0pnQ.s 			page 132


 4987              	.LBE1575:
 4988              		.cfi_endproc
 4989              	.LFE4340:
 4991 0416 00BF     		.section	.text._ZN5daisy25OneBitGraphicsDisplayImplINS_11OledDisplayINS_13SSD130xDriverILj128ELj64
 4992              		.align	1
 4993              		.p2align 2,,3
 4994              		.weak	_ZN5daisy25OneBitGraphicsDisplayImplINS_11OledDisplayINS_13SSD130xDriverILj128ELj64ENS_24SSD
 4995              		.syntax unified
 4996              		.thumb
 4997              		.thumb_func
 4998              		.fpu fpv5-d16
 5000              	_ZN5daisy25OneBitGraphicsDisplayImplINS_11OledDisplayINS_13SSD130xDriverILj128ELj64ENS_24SSD130x4Wi
 5001              	.LVL324:
 5002              	.LFB4344:
 242:../../libdaisy/src/hid/disp/display.h **** 
 243:../../libdaisy/src/hid/disp/display.h ****     void DrawArc(uint_fast8_t x,
 244:../../libdaisy/src/hid/disp/display.h ****                  uint_fast8_t y,
 245:../../libdaisy/src/hid/disp/display.h ****                  uint_fast8_t radius,
 246:../../libdaisy/src/hid/disp/display.h ****                  int_fast16_t start_angle,
 247:../../libdaisy/src/hid/disp/display.h ****                  int_fast16_t sweep,
 248:../../libdaisy/src/hid/disp/display.h ****                  bool         on) override
 249:../../libdaisy/src/hid/disp/display.h ****     {
 250:../../libdaisy/src/hid/disp/display.h ****         // Values to calculate the circle
 251:../../libdaisy/src/hid/disp/display.h ****         int_fast16_t t_x, t_y, err, e2;
 252:../../libdaisy/src/hid/disp/display.h **** 
 253:../../libdaisy/src/hid/disp/display.h ****         // Temporary values to speed up comparisons
 254:../../libdaisy/src/hid/disp/display.h ****         float t_sxy, t_syx, t_sxny, t_synx;
 255:../../libdaisy/src/hid/disp/display.h ****         float t_exy, t_eyx, t_exny, t_eynx;
 256:../../libdaisy/src/hid/disp/display.h **** 
 257:../../libdaisy/src/hid/disp/display.h ****         float start_angle_rad, end_angle_rad;
 258:../../libdaisy/src/hid/disp/display.h ****         float start_x, start_y, end_x, end_y;
 259:../../libdaisy/src/hid/disp/display.h **** 
 260:../../libdaisy/src/hid/disp/display.h ****         bool d1, d2, d3, d4;
 261:../../libdaisy/src/hid/disp/display.h **** 
 262:../../libdaisy/src/hid/disp/display.h ****         d1 = d2 = d3 = d4 = true;
 263:../../libdaisy/src/hid/disp/display.h **** 
 264:../../libdaisy/src/hid/disp/display.h ****         bool circle = false;
 265:../../libdaisy/src/hid/disp/display.h **** 
 266:../../libdaisy/src/hid/disp/display.h ****         if(sweep < 0)
 267:../../libdaisy/src/hid/disp/display.h ****         {
 268:../../libdaisy/src/hid/disp/display.h ****             start_angle += sweep;
 269:../../libdaisy/src/hid/disp/display.h ****             sweep = -sweep;
 270:../../libdaisy/src/hid/disp/display.h ****         }
 271:../../libdaisy/src/hid/disp/display.h **** 
 272:../../libdaisy/src/hid/disp/display.h ****         start_angle_rad = deg2rad(start_angle);
 273:../../libdaisy/src/hid/disp/display.h ****         end_angle_rad   = deg2rad(start_angle + sweep);
 274:../../libdaisy/src/hid/disp/display.h **** 
 275:../../libdaisy/src/hid/disp/display.h ****         start_x = cos(start_angle_rad) * radius;
 276:../../libdaisy/src/hid/disp/display.h ****         start_y = -sin(start_angle_rad) * radius;
 277:../../libdaisy/src/hid/disp/display.h ****         end_x   = cos(end_angle_rad) * radius;
 278:../../libdaisy/src/hid/disp/display.h ****         end_y   = -sin(end_angle_rad) * radius;
 279:../../libdaisy/src/hid/disp/display.h **** 
 280:../../libdaisy/src/hid/disp/display.h ****         // Check if start and endpoint are very near
 281:../../libdaisy/src/hid/disp/display.h ****         if((end_x - start_x) * (end_x - start_x)
 282:../../libdaisy/src/hid/disp/display.h ****                + (end_y - start_y) * (end_y - start_y)
 283:../../libdaisy/src/hid/disp/display.h ****            < 2.0f)
 284:../../libdaisy/src/hid/disp/display.h ****         {
ARM GAS  C:\Users\VINCIU~1\AppData\Local\Temp\ccdS0pnQ.s 			page 133


 285:../../libdaisy/src/hid/disp/display.h ****             if(sweep > 180)
 286:../../libdaisy/src/hid/disp/display.h ****                 circle = true;
 287:../../libdaisy/src/hid/disp/display.h ****             else
 288:../../libdaisy/src/hid/disp/display.h ****                 // Nothing to draw
 289:../../libdaisy/src/hid/disp/display.h ****                 return;
 290:../../libdaisy/src/hid/disp/display.h ****         }
 291:../../libdaisy/src/hid/disp/display.h **** 
 292:../../libdaisy/src/hid/disp/display.h ****         t_x = -radius;
 293:../../libdaisy/src/hid/disp/display.h ****         t_y = 0;
 294:../../libdaisy/src/hid/disp/display.h ****         err = 2 - 2 * radius;
 295:../../libdaisy/src/hid/disp/display.h **** 
 296:../../libdaisy/src/hid/disp/display.h ****         do
 297:../../libdaisy/src/hid/disp/display.h ****         {
 298:../../libdaisy/src/hid/disp/display.h ****             if(!circle)
 299:../../libdaisy/src/hid/disp/display.h ****             {
 300:../../libdaisy/src/hid/disp/display.h ****                 t_sxy  = start_x * t_y;
 301:../../libdaisy/src/hid/disp/display.h ****                 t_syx  = start_y * t_x;
 302:../../libdaisy/src/hid/disp/display.h ****                 t_sxny = start_x * -t_y;
 303:../../libdaisy/src/hid/disp/display.h ****                 t_synx = start_y * -t_x;
 304:../../libdaisy/src/hid/disp/display.h ****                 t_exy  = end_x * t_y;
 305:../../libdaisy/src/hid/disp/display.h ****                 t_eyx  = end_y * t_x;
 306:../../libdaisy/src/hid/disp/display.h ****                 t_exny = end_x * -t_y;
 307:../../libdaisy/src/hid/disp/display.h ****                 t_eynx = end_y * -t_x;
 308:../../libdaisy/src/hid/disp/display.h **** 
 309:../../libdaisy/src/hid/disp/display.h ****                 if(sweep > 180)
 310:../../libdaisy/src/hid/disp/display.h ****                 {
 311:../../libdaisy/src/hid/disp/display.h ****                     d1 = (t_sxy - t_synx < 0 || t_exy - t_eynx > 0);
 312:../../libdaisy/src/hid/disp/display.h ****                     d2 = (t_sxy - t_syx < 0 || t_exy - t_eyx > 0);
 313:../../libdaisy/src/hid/disp/display.h ****                     d3 = (t_sxny - t_syx < 0 || t_exny - t_eyx > 0);
 314:../../libdaisy/src/hid/disp/display.h ****                     d4 = (t_sxny - t_synx < 0 || t_exny - t_eynx > 0);
 315:../../libdaisy/src/hid/disp/display.h ****                 }
 316:../../libdaisy/src/hid/disp/display.h ****                 else
 317:../../libdaisy/src/hid/disp/display.h ****                 {
 318:../../libdaisy/src/hid/disp/display.h ****                     d1 = (t_sxy - t_synx < 0 && t_exy - t_eynx > 0);
 319:../../libdaisy/src/hid/disp/display.h ****                     d2 = (t_sxy - t_syx < 0 && t_exy - t_eyx > 0);
 320:../../libdaisy/src/hid/disp/display.h ****                     d3 = (t_sxny - t_syx < 0 && t_exny - t_eyx > 0);
 321:../../libdaisy/src/hid/disp/display.h ****                     d4 = (t_sxny - t_synx < 0 && t_exny - t_eynx > 0);
 322:../../libdaisy/src/hid/disp/display.h ****                 }
 323:../../libdaisy/src/hid/disp/display.h ****             }
 324:../../libdaisy/src/hid/disp/display.h **** 
 325:../../libdaisy/src/hid/disp/display.h ****             if(d1)
 326:../../libdaisy/src/hid/disp/display.h ****                 ((ChildType*)(this))
 327:../../libdaisy/src/hid/disp/display.h ****                     ->ChildType::DrawPixel(x - t_x, y + t_y, on);
 328:../../libdaisy/src/hid/disp/display.h ****             if(d2)
 329:../../libdaisy/src/hid/disp/display.h ****                 ((ChildType*)(this))
 330:../../libdaisy/src/hid/disp/display.h ****                     ->ChildType::DrawPixel(x + t_x, y + t_y, on);
 331:../../libdaisy/src/hid/disp/display.h ****             if(d3)
 332:../../libdaisy/src/hid/disp/display.h ****                 ((ChildType*)(this))
 333:../../libdaisy/src/hid/disp/display.h ****                     ->ChildType::DrawPixel(x + t_x, y - t_y, on);
 334:../../libdaisy/src/hid/disp/display.h ****             if(d4)
 335:../../libdaisy/src/hid/disp/display.h ****                 ((ChildType*)(this))
 336:../../libdaisy/src/hid/disp/display.h ****                     ->ChildType::DrawPixel(x - t_x, y - t_y, on);
 337:../../libdaisy/src/hid/disp/display.h **** 
 338:../../libdaisy/src/hid/disp/display.h ****             e2 = err;
 339:../../libdaisy/src/hid/disp/display.h ****             if(e2 <= t_y)
 340:../../libdaisy/src/hid/disp/display.h ****             {
 341:../../libdaisy/src/hid/disp/display.h ****                 t_y++;
ARM GAS  C:\Users\VINCIU~1\AppData\Local\Temp\ccdS0pnQ.s 			page 134


 342:../../libdaisy/src/hid/disp/display.h ****                 err = err + (t_y * 2 + 1);
 343:../../libdaisy/src/hid/disp/display.h ****                 if(-t_x == t_y && e2 <= t_x)
 344:../../libdaisy/src/hid/disp/display.h ****                 {
 345:../../libdaisy/src/hid/disp/display.h ****                     e2 = 0;
 346:../../libdaisy/src/hid/disp/display.h ****                 }
 347:../../libdaisy/src/hid/disp/display.h ****             }
 348:../../libdaisy/src/hid/disp/display.h ****             if(e2 > t_x)
 349:../../libdaisy/src/hid/disp/display.h ****             {
 350:../../libdaisy/src/hid/disp/display.h ****                 t_x++;
 351:../../libdaisy/src/hid/disp/display.h ****                 err = err + (t_x * 2 + 1);
 352:../../libdaisy/src/hid/disp/display.h ****             }
 353:../../libdaisy/src/hid/disp/display.h ****         } while(t_x <= 0);
 354:../../libdaisy/src/hid/disp/display.h ****     }
 355:../../libdaisy/src/hid/disp/display.h **** 
 356:../../libdaisy/src/hid/disp/display.h ****     char WriteChar(char ch, FontDef font, bool on) override
 357:../../libdaisy/src/hid/disp/display.h ****     {
 358:../../libdaisy/src/hid/disp/display.h ****         uint32_t i, b, j;
 359:../../libdaisy/src/hid/disp/display.h **** 
 360:../../libdaisy/src/hid/disp/display.h ****         // Check if character is valid
 361:../../libdaisy/src/hid/disp/display.h ****         if(ch < 32 || ch > 126)
 362:../../libdaisy/src/hid/disp/display.h ****             return 0;
 363:../../libdaisy/src/hid/disp/display.h **** 
 364:../../libdaisy/src/hid/disp/display.h ****         // Check remaining space on current line
 365:../../libdaisy/src/hid/disp/display.h ****         if(Width() < (currentX_ + font.FontWidth)
 366:../../libdaisy/src/hid/disp/display.h ****            || Height() < (currentY_ + font.FontHeight))
 367:../../libdaisy/src/hid/disp/display.h ****         {
 368:../../libdaisy/src/hid/disp/display.h ****             // Not enough space on current line
 369:../../libdaisy/src/hid/disp/display.h ****             return 0;
 370:../../libdaisy/src/hid/disp/display.h ****         }
 371:../../libdaisy/src/hid/disp/display.h **** 
 372:../../libdaisy/src/hid/disp/display.h ****         // Use the font to write
 373:../../libdaisy/src/hid/disp/display.h ****         for(i = 0; i < font.FontHeight; i++)
 374:../../libdaisy/src/hid/disp/display.h ****         {
 375:../../libdaisy/src/hid/disp/display.h ****             b = font.data[(ch - 32) * font.FontHeight + i];
 376:../../libdaisy/src/hid/disp/display.h ****             for(j = 0; j < font.FontWidth; j++)
 377:../../libdaisy/src/hid/disp/display.h ****             {
 378:../../libdaisy/src/hid/disp/display.h ****                 if((b << j) & 0x8000)
 379:../../libdaisy/src/hid/disp/display.h ****                 {
 380:../../libdaisy/src/hid/disp/display.h ****                     ((ChildType*)(this))
 381:../../libdaisy/src/hid/disp/display.h ****                         ->ChildType::DrawPixel(
 382:../../libdaisy/src/hid/disp/display.h ****                             currentX_ + j, (currentY_ + i), on);
 383:../../libdaisy/src/hid/disp/display.h ****                 }
 384:../../libdaisy/src/hid/disp/display.h ****                 else
 385:../../libdaisy/src/hid/disp/display.h ****                 {
 386:../../libdaisy/src/hid/disp/display.h ****                     ((ChildType*)(this))
 387:../../libdaisy/src/hid/disp/display.h ****                         ->ChildType::DrawPixel(
 388:../../libdaisy/src/hid/disp/display.h ****                             currentX_ + j, (currentY_ + i), !on);
 389:../../libdaisy/src/hid/disp/display.h ****                 }
 390:../../libdaisy/src/hid/disp/display.h ****             }
 391:../../libdaisy/src/hid/disp/display.h ****         }
 392:../../libdaisy/src/hid/disp/display.h **** 
 393:../../libdaisy/src/hid/disp/display.h ****         // The current space is now taken
 394:../../libdaisy/src/hid/disp/display.h ****         SetCursor(currentX_ + font.FontWidth, currentY_);
 395:../../libdaisy/src/hid/disp/display.h **** 
 396:../../libdaisy/src/hid/disp/display.h ****         // Return written char for validation
 397:../../libdaisy/src/hid/disp/display.h ****         return ch;
 398:../../libdaisy/src/hid/disp/display.h ****     }
ARM GAS  C:\Users\VINCIU~1\AppData\Local\Temp\ccdS0pnQ.s 			page 135


 399:../../libdaisy/src/hid/disp/display.h **** 
 400:../../libdaisy/src/hid/disp/display.h ****     char WriteString(const char* str, FontDef font, bool on) override
 5003              		.loc 6 400 10 is_stmt 1 view -0
 5004              		.cfi_startproc
 5005              		@ args = 4, pretend = 0, frame = 32
 5006              		@ frame_needed = 0, uses_anonymous_args = 0
 5007              		.loc 6 400 10 is_stmt 0 view .LVU1223
 5008 0000 2DE9F04F 		push	{r4, r5, r6, r7, r8, r9, r10, fp, lr}
 5009              		.cfi_def_cfa_offset 36
 5010              		.cfi_offset 4, -36
 5011              		.cfi_offset 5, -32
 5012              		.cfi_offset 6, -28
 5013              		.cfi_offset 7, -24
 5014              		.cfi_offset 8, -20
 5015              		.cfi_offset 9, -16
 5016              		.cfi_offset 10, -12
 5017              		.cfi_offset 11, -8
 5018              		.cfi_offset 14, -4
 5019 0004 89B0     		sub	sp, sp, #36
 5020              		.cfi_def_cfa_offset 72
 5021              		.loc 6 400 10 view .LVU1224
 5022 0006 08AC     		add	r4, sp, #32
 5023 0008 9DF84870 		ldrb	r7, [sp, #72]	@ zero_extendqisi2
 5024 000c 0191     		str	r1, [sp, #4]
 5025 000e 04E90C00 		stmdb	r4, {r2, r3}
 401:../../libdaisy/src/hid/disp/display.h ****     {
 402:../../libdaisy/src/hid/disp/display.h ****         // Write until null-byte
 403:../../libdaisy/src/hid/disp/display.h ****         while(*str)
 5026              		.loc 6 403 9 is_stmt 1 view .LVU1225
 5027 0012 0B78     		ldrb	r3, [r1]	@ zero_extendqisi2
 5028 0014 002B     		cmp	r3, #0
 5029 0016 00F0AB80 		beq	.L306
 5030 001a 1A46     		mov	r2, r3
 5031 001c 9DF81880 		ldrb	r8, [sp, #24]	@ zero_extendqisi2
 5032 0020 9DF81930 		ldrb	r3, [sp, #25]	@ zero_extendqisi2
 5033 0024 0646     		mov	r6, r0
 5034 0026 4546     		mov	r5, r8
 5035 0028 9046     		mov	r8, r2
 5036 002a 0393     		str	r3, [sp, #12]
 5037 002c 079B     		ldr	r3, [sp, #28]
 5038 002e 0593     		str	r3, [sp, #20]
 5039              	.LVL325:
 5040              	.L307:
 5041              	.LBB1604:
 5042              	.LBI1604:
 356:../../libdaisy/src/hid/disp/display.h ****     {
 5043              		.loc 6 356 10 view .LVU1226
 5044              	.LBB1605:
 361:../../libdaisy/src/hid/disp/display.h ****             return 0;
 5045              		.loc 6 361 20 is_stmt 0 view .LVU1227
 5046 0030 A8F12004 		sub	r4, r8, #32
 361:../../libdaisy/src/hid/disp/display.h ****             return 0;
 5047              		.loc 6 361 9 view .LVU1228
 5048 0034 E3B2     		uxtb	r3, r4
 5049 0036 5E2B     		cmp	r3, #94
 5050 0038 00F29E80 		bhi	.L288
 365:../../libdaisy/src/hid/disp/display.h ****            || Height() < (currentY_ + font.FontHeight))
ARM GAS  C:\Users\VINCIU~1\AppData\Local\Temp\ccdS0pnQ.s 			page 136


 5051              		.loc 6 365 17 view .LVU1229
 5052 003c 3368     		ldr	r3, [r6]
 5053 003e 5E4A     		ldr	r2, .L328
 5054 0040 DB68     		ldr	r3, [r3, #12]
 5055 0042 9342     		cmp	r3, r2
 5056 0044 40F09B80 		bne	.L321
 5057 0048 8020     		movs	r0, #128
 5058              	.L287:
 365:../../libdaisy/src/hid/disp/display.h ****            || Height() < (currentY_ + font.FontHeight))
 5059              		.loc 6 365 23 view .LVU1230
 5060 004a B388     		ldrh	r3, [r6, #4]
 365:../../libdaisy/src/hid/disp/display.h ****            || Height() < (currentY_ + font.FontHeight))
 5061              		.loc 6 365 33 view .LVU1231
 5062 004c 2B44     		add	r3, r3, r5
 366:../../libdaisy/src/hid/disp/display.h ****         {
 5063              		.loc 6 366 12 view .LVU1232
 5064 004e 8342     		cmp	r3, r0
 5065 0050 00F39280 		bgt	.L288
 366:../../libdaisy/src/hid/disp/display.h ****         {
 5066              		.loc 6 366 21 view .LVU1233
 5067 0054 3368     		ldr	r3, [r6]
 5068 0056 594A     		ldr	r2, .L328+4
 5069 0058 9B68     		ldr	r3, [r3, #8]
 5070 005a 9342     		cmp	r3, r2
 5071 005c 40F09280 		bne	.L322
 5072 0060 4020     		movs	r0, #64
 5073              	.L289:
 366:../../libdaisy/src/hid/disp/display.h ****         {
 5074              		.loc 6 366 27 view .LVU1234
 5075 0062 F188     		ldrh	r1, [r6, #6]
 366:../../libdaisy/src/hid/disp/display.h ****         {
 5076              		.loc 6 366 37 view .LVU1235
 5077 0064 039A     		ldr	r2, [sp, #12]
 366:../../libdaisy/src/hid/disp/display.h ****         {
 5078              		.loc 6 366 27 view .LVU1236
 5079 0066 0291     		str	r1, [sp, #8]
 366:../../libdaisy/src/hid/disp/display.h ****         {
 5080              		.loc 6 366 37 view .LVU1237
 5081 0068 8B18     		adds	r3, r1, r2
 366:../../libdaisy/src/hid/disp/display.h ****         {
 5082              		.loc 6 366 12 view .LVU1238
 5083 006a 8342     		cmp	r3, r0
 5084 006c 00F38480 		bgt	.L288
 5085              	.LVL326:
 373:../../libdaisy/src/hid/disp/display.h ****         {
 5086              		.loc 6 373 22 is_stmt 1 view .LVU1239
 5087 0070 002A     		cmp	r2, #0
 5088 0072 00F09180 		beq	.L290
 375:../../libdaisy/src/hid/disp/display.h ****             for(j = 0; j < font.FontWidth; j++)
 5089              		.loc 6 375 37 is_stmt 0 view .LVU1240
 5090 0076 02FB04F4 		mul	r4, r2, r4
 5091 007a 6FF00049 		mvn	r9, #-2147483648
 5092 007e 059B     		ldr	r3, [sp, #20]
 5093 0080 A144     		add	r9, r9, r4
 5094 0082 1444     		add	r4, r4, r2
 394:../../libdaisy/src/hid/disp/display.h **** 
 5095              		.loc 6 394 19 view .LVU1241
ARM GAS  C:\Users\VINCIU~1\AppData\Local\Temp\ccdS0pnQ.s 			page 137


 5096 0084 B6F804B0 		ldrh	fp, [r6, #4]
 5097 0088 03EB4909 		add	r9, r3, r9, lsl #1
 5098 008c 023B     		subs	r3, r3, #2
 5099 008e CDF81080 		str	r8, [sp, #16]
 5100 0092 03EB4403 		add	r3, r3, r4, lsl #1
 5101 0096 0C46     		mov	r4, r1
 5102 0098 9A46     		mov	r10, r3
 5103              	.LVL327:
 5104              	.L293:
 375:../../libdaisy/src/hid/disp/display.h ****             for(j = 0; j < font.FontWidth; j++)
 5105              		.loc 6 375 15 view .LVU1242
 5106 009a 39F802CF 		ldrh	ip, [r9, #2]!
 5107              	.LVL328:
 376:../../libdaisy/src/hid/disp/display.h ****             {
 5108              		.loc 6 376 26 is_stmt 1 view .LVU1243
 5109 009e A5B3     		cbz	r5, .L298
 5110              	.LBB1606:
 5111              	.LBB1607:
 5112              	.LBB1608:
 5113              	.LBB1609:
 5114              	.LBB1610:
 246:../../libdaisy/src/dev/oled_ssd130x.h ****     }
 5115              		.loc 5 246 55 is_stmt 0 view .LVU1244
 5116 00a0 04F00703 		and	r3, r4, #7
 246:../../libdaisy/src/dev/oled_ssd130x.h ****     }
 5117              		.loc 5 246 49 view .LVU1245
 5118 00a4 4FF0010E 		mov	lr, #1
 246:../../libdaisy/src/dev/oled_ssd130x.h ****     }
 5119              		.loc 5 246 28 view .LVU1246
 5120 00a8 E208     		lsrs	r2, r4, #3
 5121 00aa 5946     		mov	r1, fp
 246:../../libdaisy/src/dev/oled_ssd130x.h ****     }
 5122              		.loc 5 246 49 view .LVU1247
 5123 00ac 0EFA03FE 		lsl	lr, lr, r3
 5124 00b0 0BF11403 		add	r3, fp, #20
 246:../../libdaisy/src/dev/oled_ssd130x.h ****     }
 5125              		.loc 5 246 42 view .LVU1248
 5126 00b4 4FFA8EFE 		sxtb	lr, lr
 5127 00b8 03EBC212 		add	r2, r3, r2, lsl #7
 5128              	.LBE1610:
 5129              	.LBE1609:
 5130              	.LBE1608:
 5131              	.LBE1607:
 5132              	.LBE1606:
 376:../../libdaisy/src/hid/disp/display.h ****             {
 5133              		.loc 6 376 19 view .LVU1249
 5134 00bc 0023     		movs	r3, #0
 5135              	.LBB1628:
 5136              	.LBB1623:
 5137              	.LBB1618:
 5138              	.LBB1614:
 5139              	.LBB1611:
 246:../../libdaisy/src/dev/oled_ssd130x.h ****     }
 5140              		.loc 5 246 42 view .LVU1250
 5141 00be 6FEA0E08 		mvn	r8, lr
 5142 00c2 3244     		add	r2, r2, r6
 5143 00c4 0DE0     		b	.L299
ARM GAS  C:\Users\VINCIU~1\AppData\Local\Temp\ccdS0pnQ.s 			page 138


 5144              	.LVL329:
 5145              	.L323:
 246:../../libdaisy/src/dev/oled_ssd130x.h ****     }
 5146              		.loc 5 246 42 view .LVU1251
 5147              	.LBE1611:
 5148              	.LBE1614:
 5149              	.LBE1618:
 5150              	.LBE1623:
 5151              	.LBE1628:
 5152              	.LBB1629:
 5153              	.LBI1629:
  41:../../libdaisy/src/hid/disp/oled_display.h ****     {
 5154              		.loc 1 41 10 is_stmt 1 view .LVU1252
 5155              	.LBB1630:
 5156              	.LBI1630:
 239:../../libdaisy/src/dev/oled_ssd130x.h ****     {
 5157              		.loc 5 239 10 view .LVU1253
 5158              	.LBB1631:
 241:../../libdaisy/src/dev/oled_ssd130x.h ****             return;
 5159              		.loc 5 241 9 is_stmt 0 view .LVU1254
 5160 00c6 7F29     		cmp	r1, #127
 5161 00c8 06D8     		bhi	.L295
 5162 00ca 3F2C     		cmp	r4, #63
 5163 00cc 04D8     		bhi	.L295
 244:../../libdaisy/src/dev/oled_ssd130x.h ****         else
 5164              		.loc 5 244 42 view .LVU1255
 5165 00ce 1078     		ldrb	r0, [r2]	@ zero_extendqisi2
 243:../../libdaisy/src/dev/oled_ssd130x.h ****             buffer_[x + (y / 8) * width] |= (1 << (y % 8));
 5166              		.loc 5 243 9 view .LVU1256
 5167 00d0 97B1     		cbz	r7, .L297
 5168              	.L320:
 243:../../libdaisy/src/dev/oled_ssd130x.h ****             buffer_[x + (y / 8) * width] |= (1 << (y % 8));
 5169              		.loc 5 243 9 view .LVU1257
 5170              	.LBE1631:
 5171              	.LBE1630:
 5172              	.LBE1629:
 5173              	.LBB1632:
 5174              	.LBB1624:
 5175              	.LBB1619:
 244:../../libdaisy/src/dev/oled_ssd130x.h ****         else
 5176              		.loc 5 244 42 view .LVU1258
 5177 00d2 4EEA0000 		orr	r0, lr, r0
 5178 00d6 1070     		strb	r0, [r2]
 5179              	.L295:
 5180              	.LBE1619:
 5181              	.LBE1624:
 5182              	.LBE1632:
 376:../../libdaisy/src/hid/disp/display.h ****             {
 5183              		.loc 6 376 13 is_stmt 1 view .LVU1259
 5184 00d8 0133     		adds	r3, r3, #1
 5185              	.LVL330:
 376:../../libdaisy/src/hid/disp/display.h ****             {
 5186              		.loc 6 376 26 view .LVU1260
 5187 00da 0132     		adds	r2, r2, #1
 5188 00dc 0131     		adds	r1, r1, #1
 5189 00de AB42     		cmp	r3, r5
 5190 00e0 13D0     		beq	.L298
ARM GAS  C:\Users\VINCIU~1\AppData\Local\Temp\ccdS0pnQ.s 			page 139


 5191              	.LVL331:
 5192              	.L299:
 378:../../libdaisy/src/hid/disp/display.h ****                 {
 5193              		.loc 6 378 23 is_stmt 0 view .LVU1261
 5194 00e2 0CFA03F0 		lsl	r0, ip, r3
 378:../../libdaisy/src/hid/disp/display.h ****                 {
 5195              		.loc 6 378 17 view .LVU1262
 5196 00e6 0004     		lsls	r0, r0, #16
 5197 00e8 EDD4     		bmi	.L323
 5198              	.LVL332:
 5199              	.LBB1633:
 5200              	.LBI1606:
  41:../../libdaisy/src/hid/disp/oled_display.h ****     {
 5201              		.loc 1 41 10 is_stmt 1 view .LVU1263
 5202              	.LBB1625:
 5203              	.LBI1607:
 239:../../libdaisy/src/dev/oled_ssd130x.h ****     {
 5204              		.loc 5 239 10 view .LVU1264
 5205              	.LBB1620:
 241:../../libdaisy/src/dev/oled_ssd130x.h ****             return;
 5206              		.loc 5 241 9 is_stmt 0 view .LVU1265
 5207 00ea 7F29     		cmp	r1, #127
 5208 00ec F4D8     		bhi	.L295
 5209 00ee 3F2C     		cmp	r4, #63
 5210 00f0 F2D8     		bhi	.L295
 244:../../libdaisy/src/dev/oled_ssd130x.h ****         else
 5211              		.loc 5 244 42 view .LVU1266
 5212 00f2 1078     		ldrb	r0, [r2]	@ zero_extendqisi2
 243:../../libdaisy/src/dev/oled_ssd130x.h ****             buffer_[x + (y / 8) * width] |= (1 << (y % 8));
 5213              		.loc 5 243 9 view .LVU1267
 5214 00f4 002F     		cmp	r7, #0
 5215 00f6 ECD0     		beq	.L320
 5216              	.L297:
 5217              	.LVL333:
 5218              	.LBB1615:
 5219              	.LBI1609:
 239:../../libdaisy/src/dev/oled_ssd130x.h ****     {
 5220              		.loc 5 239 10 is_stmt 1 view .LVU1268
 239:../../libdaisy/src/dev/oled_ssd130x.h ****     {
 5221              		.loc 5 239 10 is_stmt 0 view .LVU1269
 5222              	.LBE1615:
 5223              	.LBE1620:
 5224              	.LBE1625:
 5225              	.LBE1633:
 376:../../libdaisy/src/hid/disp/display.h ****             {
 5226              		.loc 6 376 13 view .LVU1270
 5227 00f8 0133     		adds	r3, r3, #1
 5228              	.LVL334:
 5229              	.LBB1634:
 5230              	.LBB1626:
 5231              	.LBB1621:
 5232              	.LBB1616:
 5233              	.LBB1612:
 246:../../libdaisy/src/dev/oled_ssd130x.h ****     }
 5234              		.loc 5 246 42 view .LVU1271
 5235 00fa 08EA0000 		and	r0, r8, r0
 5236              	.LBE1612:
ARM GAS  C:\Users\VINCIU~1\AppData\Local\Temp\ccdS0pnQ.s 			page 140


 5237              	.LBE1616:
 5238              	.LBE1621:
 5239              	.LBE1626:
 5240              	.LBE1634:
 376:../../libdaisy/src/hid/disp/display.h ****             {
 5241              		.loc 6 376 26 view .LVU1272
 5242 00fe 0132     		adds	r2, r2, #1
 5243 0100 0131     		adds	r1, r1, #1
 5244 0102 AB42     		cmp	r3, r5
 5245              	.LBB1635:
 5246              	.LBB1627:
 5247              	.LBB1622:
 5248              	.LBB1617:
 5249              	.LBB1613:
 246:../../libdaisy/src/dev/oled_ssd130x.h ****     }
 5250              		.loc 5 246 42 view .LVU1273
 5251 0104 02F8010C 		strb	r0, [r2, #-1]
 246:../../libdaisy/src/dev/oled_ssd130x.h ****     }
 5252              		.loc 5 246 42 view .LVU1274
 5253              	.LBE1613:
 5254              	.LBE1617:
 5255              	.LBE1622:
 5256              	.LBE1627:
 5257              	.LBE1635:
 376:../../libdaisy/src/hid/disp/display.h ****             {
 5258              		.loc 6 376 13 is_stmt 1 view .LVU1275
 5259              	.LVL335:
 376:../../libdaisy/src/hid/disp/display.h ****             {
 5260              		.loc 6 376 26 view .LVU1276
 5261 0108 EBD1     		bne	.L299
 5262              	.LVL336:
 5263              	.L298:
 373:../../libdaisy/src/hid/disp/display.h ****         {
 5264              		.loc 6 373 9 view .LVU1277
 373:../../libdaisy/src/hid/disp/display.h ****         {
 5265              		.loc 6 373 22 view .LVU1278
 5266 010a D145     		cmp	r9, r10
 5267 010c 04F10104 		add	r4, r4, #1
 5268 0110 C3D1     		bne	.L293
 5269 0112 DDF81080 		ldr	r8, [sp, #16]
 5270              	.LVL337:
 5271              	.L292:
 5272              	.LBB1636:
 5273              	.LBB1637:
 133:../../libdaisy/src/hid/disp/display.h ****         currentY_ = (y >= Height()) ? Height() - 1 : y;
 5274              		.loc 6 133 33 is_stmt 0 view .LVU1279
 5275 0116 3268     		ldr	r2, [r6]
 5276              	.LBE1637:
 5277              	.LBE1636:
 394:../../libdaisy/src/hid/disp/display.h **** 
 5278              		.loc 6 394 18 view .LVU1280
 5279 0118 0BEB0504 		add	r4, fp, r5
 5280 011c 2649     		ldr	r1, .L328
 5281              	.LBB1642:
 5282              	.LBB1638:
 133:../../libdaisy/src/hid/disp/display.h ****         currentY_ = (y >= Height()) ? Height() - 1 : y;
 5283              		.loc 6 133 33 view .LVU1281
ARM GAS  C:\Users\VINCIU~1\AppData\Local\Temp\ccdS0pnQ.s 			page 141


 5284 011e D368     		ldr	r3, [r2, #12]
 5285              	.LBE1638:
 5286              	.LBE1642:
 394:../../libdaisy/src/hid/disp/display.h **** 
 5287              		.loc 6 394 18 view .LVU1282
 5288 0120 A4B2     		uxth	r4, r4
 5289              	.LVL338:
 5290              	.LBB1643:
 5291              	.LBI1636:
 131:../../libdaisy/src/hid/disp/display.h ****     {
 5292              		.loc 6 131 10 is_stmt 1 view .LVU1283
 5293              	.LBB1639:
 133:../../libdaisy/src/hid/disp/display.h ****         currentY_ = (y >= Height()) ? Height() - 1 : y;
 5294              		.loc 6 133 9 view .LVU1284
 5295 0122 8B42     		cmp	r3, r1
 5296 0124 34D1     		bne	.L324
 133:../../libdaisy/src/hid/disp/display.h ****         currentY_ = (y >= Height()) ? Height() - 1 : y;
 5297              		.loc 6 133 33 is_stmt 0 view .LVU1285
 5298 0126 8020     		movs	r0, #128
 5299              	.L300:
 133:../../libdaisy/src/hid/disp/display.h ****         currentY_ = (y >= Height()) ? Height() - 1 : y;
 5300              		.loc 6 133 19 view .LVU1286
 5301 0128 8442     		cmp	r4, r0
 5302 012a 04D3     		bcc	.L301
 133:../../libdaisy/src/hid/disp/display.h ****         currentY_ = (y >= Height()) ? Height() - 1 : y;
 5303              		.loc 6 133 44 view .LVU1287
 5304 012c D368     		ldr	r3, [r2, #12]
 5305 012e 2249     		ldr	r1, .L328
 5306 0130 8B42     		cmp	r3, r1
 5307 0132 3AD1     		bne	.L325
 5308 0134 7F24     		movs	r4, #127
 5309              	.LVL339:
 5310              	.L301:
 134:../../libdaisy/src/hid/disp/display.h ****     }
 5311              		.loc 6 134 34 view .LVU1288
 5312 0136 9368     		ldr	r3, [r2, #8]
 5313 0138 204A     		ldr	r2, .L328+4
 133:../../libdaisy/src/hid/disp/display.h ****         currentY_ = (y >= Height()) ? Height() - 1 : y;
 5314              		.loc 6 133 19 view .LVU1289
 5315 013a B480     		strh	r4, [r6, #4]	@ movhi
 134:../../libdaisy/src/hid/disp/display.h ****     }
 5316              		.loc 6 134 9 is_stmt 1 view .LVU1290
 5317 013c 9342     		cmp	r3, r2
 5318 013e 24D1     		bne	.L326
 134:../../libdaisy/src/hid/disp/display.h ****     }
 5319              		.loc 6 134 34 is_stmt 0 view .LVU1291
 5320 0140 4020     		movs	r0, #64
 5321              	.L303:
 134:../../libdaisy/src/hid/disp/display.h ****     }
 5322              		.loc 6 134 19 view .LVU1292
 5323 0142 029B     		ldr	r3, [sp, #8]
 5324 0144 8342     		cmp	r3, r0
 5325 0146 06D3     		bcc	.L304
 134:../../libdaisy/src/hid/disp/display.h ****     }
 5326              		.loc 6 134 46 view .LVU1293
 5327 0148 3368     		ldr	r3, [r6]
 5328 014a 1C4A     		ldr	r2, .L328+4
ARM GAS  C:\Users\VINCIU~1\AppData\Local\Temp\ccdS0pnQ.s 			page 142


 5329 014c 9B68     		ldr	r3, [r3, #8]
 5330 014e 9342     		cmp	r3, r2
 5331 0150 25D1     		bne	.L327
 5332 0152 3F23     		movs	r3, #63
 5333 0154 0293     		str	r3, [sp, #8]
 5334              	.LVL340:
 5335              	.L304:
 134:../../libdaisy/src/hid/disp/display.h ****     }
 5336              		.loc 6 134 19 view .LVU1294
 5337 0156 029B     		ldr	r3, [sp, #8]
 5338 0158 F380     		strh	r3, [r6, #6]	@ movhi
 5339              	.LVL341:
 5340              	.L286:
 134:../../libdaisy/src/hid/disp/display.h ****     }
 5341              		.loc 6 134 19 view .LVU1295
 5342              	.LBE1639:
 5343              	.LBE1643:
 5344              	.LBE1605:
 5345              	.LBE1604:
 404:../../libdaisy/src/hid/disp/display.h ****         {
 405:../../libdaisy/src/hid/disp/display.h ****             if(((ChildType*)(this))->ChildType::WriteChar(*str, font, on)
 406:../../libdaisy/src/hid/disp/display.h ****                != *str)
 5346              		.loc 6 406 16 view .LVU1296
 5347 015a 019B     		ldr	r3, [sp, #4]
 5348 015c 1878     		ldrb	r0, [r3]	@ zero_extendqisi2
 405:../../libdaisy/src/hid/disp/display.h ****                != *str)
 5349              		.loc 6 405 13 view .LVU1297
 5350 015e 4045     		cmp	r0, r8
 5351 0160 07D1     		bne	.L284
 5352              	.LVL342:
 403:../../libdaisy/src/hid/disp/display.h ****         {
 5353              		.loc 6 403 9 is_stmt 1 view .LVU1298
 5354 0162 13F8018F 		ldrb	r8, [r3, #1]!	@ zero_extendqisi2
 5355              	.LVL343:
 403:../../libdaisy/src/hid/disp/display.h ****         {
 5356              		.loc 6 403 9 is_stmt 0 view .LVU1299
 5357 0166 0193     		str	r3, [sp, #4]
 5358 0168 B8F1000F 		cmp	r8, #0
 5359 016c 7FF460AF 		bne	.L307
 5360              	.LVL344:
 5361              	.L306:
 5362              	.LBB1648:
 5363              	.LBB1646:
 362:../../libdaisy/src/hid/disp/display.h **** 
 5364              		.loc 6 362 20 view .LVU1300
 5365 0170 0020     		movs	r0, #0
 5366              	.L284:
 5367              	.LBE1646:
 5368              	.LBE1648:
 407:../../libdaisy/src/hid/disp/display.h ****             {
 408:../../libdaisy/src/hid/disp/display.h ****                 // Char could not be written
 409:../../libdaisy/src/hid/disp/display.h ****                 return *str;
 410:../../libdaisy/src/hid/disp/display.h ****             }
 411:../../libdaisy/src/hid/disp/display.h **** 
 412:../../libdaisy/src/hid/disp/display.h ****             // Next char
 413:../../libdaisy/src/hid/disp/display.h ****             str++;
 414:../../libdaisy/src/hid/disp/display.h ****         }
ARM GAS  C:\Users\VINCIU~1\AppData\Local\Temp\ccdS0pnQ.s 			page 143


 415:../../libdaisy/src/hid/disp/display.h **** 
 416:../../libdaisy/src/hid/disp/display.h ****         // Everything ok
 417:../../libdaisy/src/hid/disp/display.h ****         return *str;
 418:../../libdaisy/src/hid/disp/display.h ****     }
 5369              		.loc 6 418 5 view .LVU1301
 5370 0172 09B0     		add	sp, sp, #36
 5371              		.cfi_remember_state
 5372              		.cfi_def_cfa_offset 36
 5373              		@ sp needed
 5374 0174 BDE8F08F 		pop	{r4, r5, r6, r7, r8, r9, r10, fp, pc}
 5375              	.LVL345:
 5376              	.L288:
 5377              		.cfi_restore_state
 5378              	.LBB1649:
 5379              	.LBB1647:
 362:../../libdaisy/src/hid/disp/display.h **** 
 5380              		.loc 6 362 20 view .LVU1302
 5381 0178 4FF00008 		mov	r8, #0
 5382              	.LVL346:
 362:../../libdaisy/src/hid/disp/display.h **** 
 5383              		.loc 6 362 20 view .LVU1303
 5384 017c EDE7     		b	.L286
 5385              	.LVL347:
 5386              	.L321:
 365:../../libdaisy/src/hid/disp/display.h ****            || Height() < (currentY_ + font.FontHeight))
 5387              		.loc 6 365 17 view .LVU1304
 5388 017e 3046     		mov	r0, r6
 5389 0180 9847     		blx	r3
 5390              	.LVL348:
 5391 0182 62E7     		b	.L287
 5392              	.L322:
 366:../../libdaisy/src/hid/disp/display.h ****         {
 5393              		.loc 6 366 21 view .LVU1305
 5394 0184 3046     		mov	r0, r6
 5395 0186 9847     		blx	r3
 5396              	.LVL349:
 5397 0188 6BE7     		b	.L289
 5398              	.LVL350:
 5399              	.L326:
 5400              	.LBB1644:
 5401              	.LBB1640:
 134:../../libdaisy/src/hid/disp/display.h ****     }
 5402              		.loc 6 134 33 view .LVU1306
 5403 018a 3046     		mov	r0, r6
 5404 018c 9847     		blx	r3
 5405              	.LVL351:
 5406 018e D8E7     		b	.L303
 5407              	.LVL352:
 5408              	.L324:
 133:../../libdaisy/src/hid/disp/display.h ****         currentY_ = (y >= Height()) ? Height() - 1 : y;
 5409              		.loc 6 133 32 view .LVU1307
 5410 0190 3046     		mov	r0, r6
 5411 0192 9847     		blx	r3
 5412              	.LVL353:
 133:../../libdaisy/src/hid/disp/display.h ****         currentY_ = (y >= Height()) ? Height() - 1 : y;
 5413              		.loc 6 133 44 view .LVU1308
 5414 0194 3268     		ldr	r2, [r6]
ARM GAS  C:\Users\VINCIU~1\AppData\Local\Temp\ccdS0pnQ.s 			page 144


 5415 0196 C7E7     		b	.L300
 5416              	.LVL354:
 5417              	.L290:
 133:../../libdaisy/src/hid/disp/display.h ****         currentY_ = (y >= Height()) ? Height() - 1 : y;
 5418              		.loc 6 133 44 view .LVU1309
 5419              	.LBE1640:
 5420              	.LBE1644:
 394:../../libdaisy/src/hid/disp/display.h **** 
 5421              		.loc 6 394 19 view .LVU1310
 5422 0198 B6F804B0 		ldrh	fp, [r6, #4]
 5423 019c BBE7     		b	.L292
 5424              	.LVL355:
 5425              	.L327:
 5426              	.LBB1645:
 5427              	.LBB1641:
 134:../../libdaisy/src/hid/disp/display.h ****     }
 5428              		.loc 6 134 45 view .LVU1311
 5429 019e 3046     		mov	r0, r6
 5430 01a0 9847     		blx	r3
 5431              	.LVL356:
 134:../../libdaisy/src/hid/disp/display.h ****     }
 5432              		.loc 6 134 19 view .LVU1312
 5433 01a2 0138     		subs	r0, r0, #1
 5434 01a4 83B2     		uxth	r3, r0
 5435 01a6 0293     		str	r3, [sp, #8]
 5436              	.LVL357:
 134:../../libdaisy/src/hid/disp/display.h ****     }
 5437              		.loc 6 134 19 view .LVU1313
 5438 01a8 D5E7     		b	.L304
 5439              	.LVL358:
 5440              	.L325:
 133:../../libdaisy/src/hid/disp/display.h ****         currentY_ = (y >= Height()) ? Height() - 1 : y;
 5441              		.loc 6 133 43 view .LVU1314
 5442 01aa 3046     		mov	r0, r6
 5443 01ac 9847     		blx	r3
 5444              	.LVL359:
 133:../../libdaisy/src/hid/disp/display.h ****         currentY_ = (y >= Height()) ? Height() - 1 : y;
 5445              		.loc 6 133 19 view .LVU1315
 5446 01ae 0138     		subs	r0, r0, #1
 134:../../libdaisy/src/hid/disp/display.h ****     }
 5447              		.loc 6 134 34 view .LVU1316
 5448 01b0 3268     		ldr	r2, [r6]
 133:../../libdaisy/src/hid/disp/display.h ****         currentY_ = (y >= Height()) ? Height() - 1 : y;
 5449              		.loc 6 133 19 view .LVU1317
 5450 01b2 84B2     		uxth	r4, r0
 5451              	.LVL360:
 133:../../libdaisy/src/hid/disp/display.h ****         currentY_ = (y >= Height()) ? Height() - 1 : y;
 5452              		.loc 6 133 19 view .LVU1318
 5453 01b4 BFE7     		b	.L301
 5454              	.L329:
 5455 01b6 00BF     		.align	2
 5456              	.L328:
 5457 01b8 00000000 		.word	_ZNK5daisy11OledDisplayINS_13SSD130xDriverILj128ELj64ENS_24SSD130x4WireSpiTransportEEEE5Widt
 5458 01bc 00000000 		.word	_ZNK5daisy11OledDisplayINS_13SSD130xDriverILj128ELj64ENS_24SSD130x4WireSpiTransportEEEE6Heig
 5459              	.LBE1641:
 5460              	.LBE1645:
 5461              	.LBE1647:
ARM GAS  C:\Users\VINCIU~1\AppData\Local\Temp\ccdS0pnQ.s 			page 145


 5462              	.LBE1649:
 5463              		.cfi_endproc
 5464              	.LFE4344:
 5466              		.section	.rodata._ZN5Menus5Menu3E23OledDisplayExtravaganzaNS_8oscVoiceERN7daisysp4AdsrE.str1.4,"aM
 5467              		.align	2
 5468              	.LC1:
 5469 0000 4100     		.ascii	"A\000"
 5470 0002 0000     		.align	2
 5471              	.LC2:
 5472 0004 4400     		.ascii	"D\000"
 5473 0006 0000     		.align	2
 5474              	.LC3:
 5475 0008 5300     		.ascii	"S\000"
 5476 000a 0000     		.align	2
 5477              	.LC4:
 5478 000c 5200     		.ascii	"R\000"
 5479              		.section	.text._ZN5Menus5Menu3E23OledDisplayExtravaganzaNS_8oscVoiceERN7daisysp4AdsrE,"ax",%progbi
 5480              		.align	1
 5481              		.p2align 2,,3
 5482              		.global	_ZN5Menus5Menu3E23OledDisplayExtravaganzaNS_8oscVoiceERN7daisysp4AdsrE
 5483              		.syntax unified
 5484              		.thumb
 5485              		.thumb_func
 5486              		.fpu fpv5-d16
 5488              	_ZN5Menus5Menu3E23OledDisplayExtravaganzaNS_8oscVoiceERN7daisysp4AdsrE:
 5489              	.LVL361:
 5490              	.LFB4042:
 664:Menus.cpp     **** {
 5491              		.loc 2 664 1 is_stmt 1 view -0
 5492              		.cfi_startproc
 5493              		@ args = 0, pretend = 0, frame = 24
 5494              		@ frame_needed = 0, uses_anonymous_args = 0
 664:Menus.cpp     **** {
 5495              		.loc 2 664 1 is_stmt 0 view .LVU1320
 5496 0000 2DE9F04F 		push	{r4, r5, r6, r7, r8, r9, r10, fp, lr}
 5497              		.cfi_def_cfa_offset 36
 5498              		.cfi_offset 4, -36
 5499              		.cfi_offset 5, -32
 5500              		.cfi_offset 6, -28
 5501              		.cfi_offset 7, -24
 5502              		.cfi_offset 8, -20
 5503              		.cfi_offset 9, -16
 5504              		.cfi_offset 10, -12
 5505              		.cfi_offset 11, -8
 5506              		.cfi_offset 14, -4
 5507 0004 0C46     		mov	r4, r1
 5508 0006 0746     		mov	r7, r0
 665:Menus.cpp     ****     screen.Fill(false);
 5509              		.loc 2 665 5 is_stmt 1 view .LVU1321
 5510              	.LVL362:
 5511              	.LBB2065:
 5512              	.LBI2065:
  33:../../libdaisy/src/hid/disp/oled_display.h **** 
 5513              		.loc 1 33 10 view .LVU1322
 5514              	.LBB2066:
 5515              	.LBI2066:
 249:../../libdaisy/src/dev/oled_ssd130x.h ****     {
ARM GAS  C:\Users\VINCIU~1\AppData\Local\Temp\ccdS0pnQ.s 			page 146


 5516              		.loc 5 249 10 view .LVU1323
 5517              	.LBB2067:
 251:../../libdaisy/src/dev/oled_ssd130x.h ****         {
 5518              		.loc 5 251 29 view .LVU1324
 5519              	.LBE2067:
 5520              	.LBE2066:
 5521              	.LBE2065:
 664:Menus.cpp     **** {
 5522              		.loc 2 664 1 is_stmt 0 view .LVU1325
 5523 0008 89B0     		sub	sp, sp, #36
 5524              		.cfi_def_cfa_offset 72
 5525              	.LBB2072:
 5526              	.LBB2070:
 5527              	.LBB2068:
 253:../../libdaisy/src/dev/oled_ssd130x.h ****         }
 5528              		.loc 5 253 24 view .LVU1326
 5529 000a 4FF48062 		mov	r2, #1024
 5530              	.LVL363:
 253:../../libdaisy/src/dev/oled_ssd130x.h ****         }
 5531              		.loc 5 253 24 view .LVU1327
 5532 000e 0021     		movs	r1, #0
 5533              	.LVL364:
 253:../../libdaisy/src/dev/oled_ssd130x.h ****         }
 5534              		.loc 5 253 24 view .LVU1328
 5535 0010 04F11400 		add	r0, r4, #20
 5536              	.LVL365:
 253:../../libdaisy/src/dev/oled_ssd130x.h ****         }
 5537              		.loc 5 253 24 view .LVU1329
 5538              	.LBE2068:
 5539              	.LBE2070:
 5540              	.LBE2072:
 664:Menus.cpp     **** {
 5541              		.loc 2 664 1 view .LVU1330
 5542 0014 1D46     		mov	r5, r3
 5543              	.LBB2073:
 5544              	.LBB2071:
 5545              	.LBB2069:
 253:../../libdaisy/src/dev/oled_ssd130x.h ****         }
 5546              		.loc 5 253 24 view .LVU1331
 5547 0016 FFF7FEFF 		bl	memset
 5548              	.LVL366:
 253:../../libdaisy/src/dev/oled_ssd130x.h ****         }
 5549              		.loc 5 253 24 view .LVU1332
 5550              	.LBE2069:
 5551              	.LBE2071:
 5552              	.LBE2073:
 666:Menus.cpp     ****     if(this->buttonLeft.RisingEdge())
 5553              		.loc 2 666 5 is_stmt 1 view .LVU1333
 5554              	.LBB2074:
 5555              	.LBI2074:
  41:../../libdaisy/src/hid/switch.h ****     ~Switch() {}
  42:../../libdaisy/src/hid/switch.h **** 
  43:../../libdaisy/src/hid/switch.h ****     /** 
  44:../../libdaisy/src/hid/switch.h ****     Initializes the switch object with a given port/pin combo.
  45:../../libdaisy/src/hid/switch.h ****     \param pin port/pin object to tell the switch which hardware pin to use.
  46:../../libdaisy/src/hid/switch.h ****     \param update_rate the rate at which the Debounce() function will be called. (used for timing).
  47:../../libdaisy/src/hid/switch.h ****     \param t switch type -- Default: TYPE_MOMENTARY
ARM GAS  C:\Users\VINCIU~1\AppData\Local\Temp\ccdS0pnQ.s 			page 147


  48:../../libdaisy/src/hid/switch.h ****     \param pol switch polarity -- Default: POLARITY_INVERTED
  49:../../libdaisy/src/hid/switch.h ****     \param pu switch pull up/down -- Default: PULL_UP
  50:../../libdaisy/src/hid/switch.h ****     */
  51:../../libdaisy/src/hid/switch.h ****     void
  52:../../libdaisy/src/hid/switch.h ****     Init(dsy_gpio_pin pin, float update_rate, Type t, Polarity pol, Pull pu);
  53:../../libdaisy/src/hid/switch.h **** 
  54:../../libdaisy/src/hid/switch.h ****     /**
  55:../../libdaisy/src/hid/switch.h ****        Simplified Init.
  56:../../libdaisy/src/hid/switch.h ****        \param pin port/pin object to tell the switch which hardware pin to use.
  57:../../libdaisy/src/hid/switch.h ****        \param update_rate the rate at which the Debounce() function will be called. (used for timin
  58:../../libdaisy/src/hid/switch.h ****     */
  59:../../libdaisy/src/hid/switch.h ****     void Init(dsy_gpio_pin pin, float update_rate);
  60:../../libdaisy/src/hid/switch.h **** 
  61:../../libdaisy/src/hid/switch.h ****     /** 
  62:../../libdaisy/src/hid/switch.h ****     Called at update_rate to debounce and handle timing for the switch.
  63:../../libdaisy/src/hid/switch.h ****     In order for events not to be missed, its important that the Edge/Pressed checks
  64:../../libdaisy/src/hid/switch.h ****     be made at the same rate as the debounce function is being called.
  65:../../libdaisy/src/hid/switch.h ****     */
  66:../../libdaisy/src/hid/switch.h ****     void Debounce();
  67:../../libdaisy/src/hid/switch.h **** 
  68:../../libdaisy/src/hid/switch.h ****     /** \return true if a button was just pressed. */
  69:../../libdaisy/src/hid/switch.h ****     inline bool RisingEdge() const { return state_ == 0x7f; }
 5556              		.loc 4 69 17 view .LVU1334
 5557              	.LBB2075:
 5558              		.loc 4 69 38 view .LVU1335
 5559              		.loc 4 69 38 is_stmt 0 view .LVU1336
 5560              	.LBE2075:
 5561              	.LBE2074:
 666:Menus.cpp     ****     if(this->buttonLeft.RisingEdge())
 5562              		.loc 2 666 5 view .LVU1337
 5563 001a 97F85130 		ldrb	r3, [r7, #81]	@ zero_extendqisi2
 5564 001e 7F2B     		cmp	r3, #127
 669:Menus.cpp     ****         this->menuStateEnv = this->menuStateEnv - 1;
 5565              		.loc 2 669 49 view .LVU1338
 5566 0020 D7F8AC31 		ldr	r3, [r7, #428]
 666:Menus.cpp     ****     if(this->buttonLeft.RisingEdge())
 5567              		.loc 2 666 5 view .LVU1339
 5568 0024 00F07A84 		beq	.L511
 5569              	.L333:
 675:Menus.cpp     ****     if(this->buttonRight.RisingEdge())
 5570              		.loc 2 675 5 is_stmt 1 view .LVU1340
 5571              	.LVL367:
 5572              	.LBB2076:
 5573              	.LBI2076:
 5574              		.loc 4 69 17 view .LVU1341
 5575              	.LBB2077:
 5576              		.loc 4 69 38 view .LVU1342
 5577              		.loc 4 69 38 is_stmt 0 view .LVU1343
 5578              	.LBE2077:
 5579              	.LBE2076:
 675:Menus.cpp     ****     if(this->buttonRight.RisingEdge())
 5580              		.loc 2 675 5 view .LVU1344
 5581 0028 97F86120 		ldrb	r2, [r7, #97]	@ zero_extendqisi2
 5582 002c 7F2A     		cmp	r2, #127
 5583 002e 00F01182 		beq	.L512
 5584              	.L336:
 684:Menus.cpp     ****     if(menuStateEnv == 0)
ARM GAS  C:\Users\VINCIU~1\AppData\Local\Temp\ccdS0pnQ.s 			page 148


 5585              		.loc 2 684 5 is_stmt 1 view .LVU1345
 5586 0032 002B     		cmp	r3, #0
 5587 0034 00F01782 		beq	.L335
 707:Menus.cpp     ****     if(menuStateEnv == 1)
 5588              		.loc 2 707 5 view .LVU1346
 5589 0038 012B     		cmp	r3, #1
 5590 003a 00F0A682 		beq	.L513
 5591              	.L351:
 730:Menus.cpp     ****     if(menuStateEnv == 2)
 5592              		.loc 2 730 5 view .LVU1347
 5593 003e 022B     		cmp	r3, #2
 5594 0040 00F03583 		beq	.L514
 5595              	.L364:
 753:Menus.cpp     ****     if(menuStateEnv == 3)
 5596              		.loc 2 753 5 view .LVU1348
 5597 0044 032B     		cmp	r3, #3
 5598 0046 00F0DB83 		beq	.L334
 5599              	.L380:
 777:Menus.cpp     ****     screen.SetCursor(32, 4);
 5600              		.loc 2 777 5 view .LVU1349
 5601              	.LVL368:
 5602              	.LBB2079:
 5603              	.LBI2079:
 131:../../libdaisy/src/hid/disp/display.h ****     {
 5604              		.loc 6 131 10 view .LVU1350
 5605              	.LBB2080:
 133:../../libdaisy/src/hid/disp/display.h ****         currentY_ = (y >= Height()) ? Height() - 1 : y;
 5606              		.loc 6 133 9 view .LVU1351
 134:../../libdaisy/src/hid/disp/display.h ****     }
 5607              		.loc 6 134 9 view .LVU1352
 5608              	.LBE2080:
 5609              	.LBE2079:
 778:Menus.cpp     ****     screen.WriteString("A", Font_6x8, true);
 5610              		.loc 2 778 23 is_stmt 0 view .LVU1353
 5611 004a BB4D     		ldr	r5, .L521
 5612              	.LVL369:
 778:Menus.cpp     ****     screen.WriteString("A", Font_6x8, true);
 5613              		.loc 2 778 23 view .LVU1354
 5614 004c 0126     		movs	r6, #1
 5615              	.LBB2083:
 5616              	.LBB2081:
 133:../../libdaisy/src/hid/disp/display.h ****         currentY_ = (y >= Height()) ? Height() - 1 : y;
 5617              		.loc 6 133 19 view .LVU1355
 5618 004e BB4B     		ldr	r3, .L521+4
 5619              	.LBE2081:
 5620              	.LBE2083:
 778:Menus.cpp     ****     screen.WriteString("A", Font_6x8, true);
 5621              		.loc 2 778 23 view .LVU1356
 5622 0050 2046     		mov	r0, r4
 5623 0052 0096     		str	r6, [sp]
 5624 0054 BA49     		ldr	r1, .L521+8
 5625              	.LBB2084:
 5626              	.LBB2082:
 133:../../libdaisy/src/hid/disp/display.h ****         currentY_ = (y >= Height()) ? Height() - 1 : y;
 5627              		.loc 6 133 19 view .LVU1357
 5628 0056 6360     		str	r3, [r4, #4]
 5629              	.LVL370:
ARM GAS  C:\Users\VINCIU~1\AppData\Local\Temp\ccdS0pnQ.s 			page 149


 133:../../libdaisy/src/hid/disp/display.h ****         currentY_ = (y >= Height()) ? Height() - 1 : y;
 5630              		.loc 6 133 19 view .LVU1358
 5631              	.LBE2082:
 5632              	.LBE2084:
 778:Menus.cpp     ****     screen.WriteString("A", Font_6x8, true);
 5633              		.loc 2 778 5 is_stmt 1 view .LVU1359
 778:Menus.cpp     ****     screen.WriteString("A", Font_6x8, true);
 5634              		.loc 2 778 23 is_stmt 0 view .LVU1360
 5635 0058 95E80C00 		ldm	r5, {r2, r3}
 5636 005c FFF7FEFF 		bl	_ZN5daisy25OneBitGraphicsDisplayImplINS_11OledDisplayINS_13SSD130xDriverILj128ELj64ENS_24SSD130
 5637              	.LVL371:
 779:Menus.cpp     ****     screen.SetCursor(48, 4);
 5638              		.loc 2 779 5 is_stmt 1 view .LVU1361
 5639              	.LBB2085:
 5640              	.LBI2085:
 131:../../libdaisy/src/hid/disp/display.h ****     {
 5641              		.loc 6 131 10 view .LVU1362
 5642              	.LBB2086:
 133:../../libdaisy/src/hid/disp/display.h ****         currentY_ = (y >= Height()) ? Height() - 1 : y;
 5643              		.loc 6 133 9 view .LVU1363
 134:../../libdaisy/src/hid/disp/display.h ****     }
 5644              		.loc 6 134 9 view .LVU1364
 133:../../libdaisy/src/hid/disp/display.h ****         currentY_ = (y >= Height()) ? Height() - 1 : y;
 5645              		.loc 6 133 19 is_stmt 0 view .LVU1365
 5646 0060 B84B     		ldr	r3, .L521+12
 5647              	.LBE2086:
 5648              	.LBE2085:
 780:Menus.cpp     ****     screen.WriteString("D", Font_6x8, true);
 5649              		.loc 2 780 23 view .LVU1366
 5650 0062 0096     		str	r6, [sp]
 5651 0064 2046     		mov	r0, r4
 5652 0066 B849     		ldr	r1, .L521+16
 5653              	.LBB2088:
 5654              	.LBB2087:
 133:../../libdaisy/src/hid/disp/display.h ****         currentY_ = (y >= Height()) ? Height() - 1 : y;
 5655              		.loc 6 133 19 view .LVU1367
 5656 0068 6360     		str	r3, [r4, #4]
 5657              	.LVL372:
 133:../../libdaisy/src/hid/disp/display.h ****         currentY_ = (y >= Height()) ? Height() - 1 : y;
 5658              		.loc 6 133 19 view .LVU1368
 5659              	.LBE2087:
 5660              	.LBE2088:
 780:Menus.cpp     ****     screen.WriteString("D", Font_6x8, true);
 5661              		.loc 2 780 5 is_stmt 1 view .LVU1369
 780:Menus.cpp     ****     screen.WriteString("D", Font_6x8, true);
 5662              		.loc 2 780 23 is_stmt 0 view .LVU1370
 5663 006a 95E80C00 		ldm	r5, {r2, r3}
 5664 006e FFF7FEFF 		bl	_ZN5daisy25OneBitGraphicsDisplayImplINS_11OledDisplayINS_13SSD130xDriverILj128ELj64ENS_24SSD130
 5665              	.LVL373:
 781:Menus.cpp     ****     screen.SetCursor(64, 4);
 5666              		.loc 2 781 5 is_stmt 1 view .LVU1371
 5667              	.LBB2089:
 5668              	.LBI2089:
 131:../../libdaisy/src/hid/disp/display.h ****     {
 5669              		.loc 6 131 10 view .LVU1372
 5670              	.LBB2090:
 133:../../libdaisy/src/hid/disp/display.h ****         currentY_ = (y >= Height()) ? Height() - 1 : y;
ARM GAS  C:\Users\VINCIU~1\AppData\Local\Temp\ccdS0pnQ.s 			page 150


 5671              		.loc 6 133 9 view .LVU1373
 134:../../libdaisy/src/hid/disp/display.h ****     }
 5672              		.loc 6 134 9 view .LVU1374
 133:../../libdaisy/src/hid/disp/display.h ****         currentY_ = (y >= Height()) ? Height() - 1 : y;
 5673              		.loc 6 133 19 is_stmt 0 view .LVU1375
 5674 0072 B64B     		ldr	r3, .L521+20
 5675              	.LBE2090:
 5676              	.LBE2089:
 782:Menus.cpp     ****     screen.WriteString("S", Font_6x8, true);
 5677              		.loc 2 782 23 view .LVU1376
 5678 0074 0096     		str	r6, [sp]
 5679 0076 2046     		mov	r0, r4
 5680 0078 B549     		ldr	r1, .L521+24
 5681              	.LBB2092:
 5682              	.LBB2091:
 133:../../libdaisy/src/hid/disp/display.h ****         currentY_ = (y >= Height()) ? Height() - 1 : y;
 5683              		.loc 6 133 19 view .LVU1377
 5684 007a 6360     		str	r3, [r4, #4]
 5685              	.LVL374:
 133:../../libdaisy/src/hid/disp/display.h ****         currentY_ = (y >= Height()) ? Height() - 1 : y;
 5686              		.loc 6 133 19 view .LVU1378
 5687              	.LBE2091:
 5688              	.LBE2092:
 782:Menus.cpp     ****     screen.WriteString("S", Font_6x8, true);
 5689              		.loc 2 782 5 is_stmt 1 view .LVU1379
 782:Menus.cpp     ****     screen.WriteString("S", Font_6x8, true);
 5690              		.loc 2 782 23 is_stmt 0 view .LVU1380
 5691 007c 95E80C00 		ldm	r5, {r2, r3}
 5692 0080 FFF7FEFF 		bl	_ZN5daisy25OneBitGraphicsDisplayImplINS_11OledDisplayINS_13SSD130xDriverILj128ELj64ENS_24SSD130
 5693              	.LVL375:
 783:Menus.cpp     ****     screen.SetCursor(80, 4);
 5694              		.loc 2 783 5 is_stmt 1 view .LVU1381
 5695              	.LBB2093:
 5696              	.LBI2093:
 131:../../libdaisy/src/hid/disp/display.h ****     {
 5697              		.loc 6 131 10 view .LVU1382
 5698              	.LBB2094:
 133:../../libdaisy/src/hid/disp/display.h ****         currentY_ = (y >= Height()) ? Height() - 1 : y;
 5699              		.loc 6 133 9 view .LVU1383
 134:../../libdaisy/src/hid/disp/display.h ****     }
 5700              		.loc 6 134 9 view .LVU1384
 133:../../libdaisy/src/hid/disp/display.h ****         currentY_ = (y >= Height()) ? Height() - 1 : y;
 5701              		.loc 6 133 19 is_stmt 0 view .LVU1385
 5702 0084 B34B     		ldr	r3, .L521+28
 5703              	.LBE2094:
 5704              	.LBE2093:
 784:Menus.cpp     ****     screen.WriteString("R", Font_6x8, true);
 5705              		.loc 2 784 23 view .LVU1386
 5706 0086 0096     		str	r6, [sp]
 5707 0088 2046     		mov	r0, r4
 5708 008a B349     		ldr	r1, .L521+32
 5709              	.LBB2096:
 5710              	.LBB2095:
 133:../../libdaisy/src/hid/disp/display.h ****         currentY_ = (y >= Height()) ? Height() - 1 : y;
 5711              		.loc 6 133 19 view .LVU1387
 5712 008c 6360     		str	r3, [r4, #4]
 5713              	.LVL376:
ARM GAS  C:\Users\VINCIU~1\AppData\Local\Temp\ccdS0pnQ.s 			page 151


 133:../../libdaisy/src/hid/disp/display.h ****         currentY_ = (y >= Height()) ? Height() - 1 : y;
 5714              		.loc 6 133 19 view .LVU1388
 5715              	.LBE2095:
 5716              	.LBE2096:
 784:Menus.cpp     ****     screen.WriteString("R", Font_6x8, true);
 5717              		.loc 2 784 5 is_stmt 1 view .LVU1389
 784:Menus.cpp     ****     screen.WriteString("R", Font_6x8, true);
 5718              		.loc 2 784 23 is_stmt 0 view .LVU1390
 5719 008e 95E80C00 		ldm	r5, {r2, r3}
 5720 0092 FFF7FEFF 		bl	_ZN5daisy25OneBitGraphicsDisplayImplINS_11OledDisplayINS_13SSD130xDriverILj128ELj64ENS_24SSD130
 5721              	.LVL377:
 785:Menus.cpp     ****     screen.DrawLine(0, screen.Height() - 5, attackTimeScaleDraw, 25, true);
 5722              		.loc 2 785 5 is_stmt 1 view .LVU1391
 785:Menus.cpp     ****     screen.DrawLine(0, screen.Height() - 5, attackTimeScaleDraw, 25, true);
 5723              		.loc 2 785 45 is_stmt 0 view .LVU1392
 5724 0096 D7ED697A 		vldr.32	s15, [r7, #420]
 785:Menus.cpp     ****     screen.DrawLine(0, screen.Height() - 5, attackTimeScaleDraw, 25, true);
 5725              		.loc 2 785 20 view .LVU1393
 5726 009a BCEEE77A 		vcvt.u32.f32	s14, s15
 5727 009e 17EE101A 		vmov	r1, s14	@ int
 5728              	.LVL378:
 5729              	.LBB2097:
 5730              	.LBI2097:
 181:../../libdaisy/src/hid/disp/display.h ****                   uint_fast8_t y1,
 5731              		.loc 6 181 10 is_stmt 1 view .LVU1394
 5732              	.LBB2098:
 187:../../libdaisy/src/hid/disp/display.h ****         int_fast16_t deltaY = abs((int_fast16_t)y2 - (int_fast16_t)y1);
 5733              		.loc 6 187 22 is_stmt 0 view .LVU1395
 5734 00a2 81EAE179 		eor	r9, r1, r1, asr #31
 5735 00a6 A9EBE179 		sub	r9, r9, r1, asr #31
 5736              	.LVL379:
 189:../../libdaisy/src/hid/disp/display.h ****         int_fast16_t signY  = ((y1 < y2) ? 1 : -1);
 5737              		.loc 6 189 42 view .LVU1396
 5738 00aa 0029     		cmp	r1, #0
 5739 00ac 00F09F81 		beq	.L515
 5740              	.LVL380:
 5741              	.LBB2099:
 5742              	.LBB2100:
 5743              	.LBB2101:
 5744              	.LBB2102:
 241:../../libdaisy/src/dev/oled_ssd130x.h ****             return;
 5745              		.loc 5 241 9 view .LVU1397
 5746 00b0 7F29     		cmp	r1, #127
 5747              	.LBE2102:
 5748              	.LBE2101:
 5749              	.LBE2100:
 5750              	.LBE2099:
 191:../../libdaisy/src/hid/disp/display.h ****         int_fast16_t error2;
 5751              		.loc 6 191 22 view .LVU1398
 5752 00b2 A9F1220C 		sub	ip, r9, #34
 5753              	.LVL381:
 5754              	.LBB2113:
 5755              	.LBI2099:
  41:../../libdaisy/src/hid/disp/oled_display.h ****     {
 5756              		.loc 1 41 10 is_stmt 1 view .LVU1399
 5757              	.LBB2109:
 5758              		.loc 1 43 26 is_stmt 0 view .LVU1400
ARM GAS  C:\Users\VINCIU~1\AppData\Local\Temp\ccdS0pnQ.s 			page 152


 5759 00b6 04F10805 		add	r5, r4, #8
 5760              	.LVL382:
 5761              	.LBB2105:
 5762              	.LBI2101:
 239:../../libdaisy/src/dev/oled_ssd130x.h ****     {
 5763              		.loc 5 239 10 is_stmt 1 view .LVU1401
 5764              	.LBE2105:
 5765              	.LBE2109:
 5766              	.LBE2113:
 189:../../libdaisy/src/hid/disp/display.h ****         int_fast16_t signY  = ((y1 < y2) ? 1 : -1);
 5767              		.loc 6 189 42 is_stmt 0 view .LVU1402
 5768 00ba B046     		mov	r8, r6
 5769              	.LBB2114:
 5770              	.LBB2110:
 5771              	.LBB2106:
 5772              	.LBB2103:
 241:../../libdaisy/src/dev/oled_ssd130x.h ****             return;
 5773              		.loc 5 241 9 view .LVU1403
 5774 00bc 40F29D81 		bls	.L431
 5775              	.LVL383:
 5776              	.L393:
 241:../../libdaisy/src/dev/oled_ssd130x.h ****             return;
 5777              		.loc 5 241 9 view .LVU1404
 5778              	.LBE2103:
 5779              	.LBE2106:
 5780              	.LBE2110:
 5781              	.LBE2114:
 199:../../libdaisy/src/hid/disp/display.h ****         {
 5782              		.loc 6 199 26 is_stmt 1 view .LVU1405
 189:../../libdaisy/src/hid/disp/display.h ****         int_fast16_t signY  = ((y1 < y2) ? 1 : -1);
 5783              		.loc 6 189 42 is_stmt 0 view .LVU1406
 5784 00c0 3B20     		movs	r0, #59
 5785 00c2 0026     		movs	r6, #0
 5786              	.LVL384:
 5787              	.L394:
 5788              	.LBB2115:
 5789              	.LBI2115:
  41:../../libdaisy/src/hid/disp/oled_display.h ****     {
 5790              		.loc 1 41 10 is_stmt 1 view .LVU1407
 5791              	.LBB2116:
 5792              	.LBI2116:
 239:../../libdaisy/src/dev/oled_ssd130x.h ****     {
 5793              		.loc 5 239 10 view .LVU1408
 5794              	.LBB2117:
 244:../../libdaisy/src/dev/oled_ssd130x.h ****         else
 5795              		.loc 5 244 28 is_stmt 0 view .LVU1409
 5796 00c4 C308     		lsrs	r3, r0, #3
 244:../../libdaisy/src/dev/oled_ssd130x.h ****         else
 5797              		.loc 5 244 48 view .LVU1410
 5798 00c6 0122     		movs	r2, #1
 244:../../libdaisy/src/dev/oled_ssd130x.h ****         else
 5799              		.loc 5 244 54 view .LVU1411
 5800 00c8 00F0070A 		and	r10, r0, #7
 241:../../libdaisy/src/dev/oled_ssd130x.h ****             return;
 5801              		.loc 5 241 9 view .LVU1412
 5802 00cc 7F2E     		cmp	r6, #127
 244:../../libdaisy/src/dev/oled_ssd130x.h ****         else
ARM GAS  C:\Users\VINCIU~1\AppData\Local\Temp\ccdS0pnQ.s 			page 153


 5803              		.loc 5 244 42 view .LVU1413
 5804 00ce 06EBC313 		add	r3, r6, r3, lsl #7
 5805              	.LBE2117:
 5806              	.LBE2116:
 5807              	.LBE2115:
 202:../../libdaisy/src/hid/disp/display.h ****             if(error2 > -deltaY)
 5808              		.loc 6 202 20 view .LVU1414
 5809 00d2 0CFA02FE 		lsl	lr, ip, r2
 5810              	.LVL385:
 5811              	.LBB2120:
 5812              	.LBB2119:
 5813              	.LBB2118:
 244:../../libdaisy/src/dev/oled_ssd130x.h ****         else
 5814              		.loc 5 244 48 view .LVU1415
 5815 00d6 02FA0AF2 		lsl	r2, r2, r10
 244:../../libdaisy/src/dev/oled_ssd130x.h ****         else
 5816              		.loc 5 244 42 view .LVU1416
 5817 00da 2344     		add	r3, r3, r4
 241:../../libdaisy/src/dev/oled_ssd130x.h ****             return;
 5818              		.loc 5 241 9 view .LVU1417
 5819 00dc 06D8     		bhi	.L397
 241:../../libdaisy/src/dev/oled_ssd130x.h ****             return;
 5820              		.loc 5 241 9 view .LVU1418
 5821 00de 3F28     		cmp	r0, #63
 5822 00e0 04D8     		bhi	.L397
 244:../../libdaisy/src/dev/oled_ssd130x.h ****         else
 5823              		.loc 5 244 42 view .LVU1419
 5824 00e2 93F814A0 		ldrb	r10, [r3, #20]	@ zero_extendqisi2
 5825 00e6 42EA0A02 		orr	r2, r2, r10
 5826 00ea 1A75     		strb	r2, [r3, #20]
 5827              	.L397:
 5828              	.LBE2118:
 5829              	.LBE2119:
 5830              	.LBE2120:
 203:../../libdaisy/src/hid/disp/display.h ****             {
 5831              		.loc 6 203 13 view .LVU1420
 5832 00ec 1EF1210F 		cmn	lr, #33
 5833 00f0 C0F28B81 		blt	.L398
 209:../../libdaisy/src/hid/disp/display.h ****             {
 5834              		.loc 6 209 13 view .LVU1421
 5835 00f4 F145     		cmp	r9, lr
 206:../../libdaisy/src/hid/disp/display.h ****             }
 5836              		.loc 6 206 20 view .LVU1422
 5837 00f6 4644     		add	r6, r6, r8
 5838              	.LVL386:
 205:../../libdaisy/src/hid/disp/display.h ****                 x1 += signX;
 5839              		.loc 6 205 23 view .LVU1423
 5840 00f8 ACF1220C 		sub	ip, ip, #34
 5841              	.LVL387:
 209:../../libdaisy/src/hid/disp/display.h ****             {
 5842              		.loc 6 209 13 view .LVU1424
 5843 00fc 00F38581 		bgt	.L398
 5844              	.L399:
 199:../../libdaisy/src/hid/disp/display.h ****         {
 5845              		.loc 6 199 26 is_stmt 1 view .LVU1425
 5846 0100 B142     		cmp	r1, r6
 5847 0102 DFD1     		bne	.L394
ARM GAS  C:\Users\VINCIU~1\AppData\Local\Temp\ccdS0pnQ.s 			page 154


 199:../../libdaisy/src/hid/disp/display.h ****         {
 5848              		.loc 6 199 26 is_stmt 0 view .LVU1426
 5849 0104 1928     		cmp	r0, #25
 5850 0106 DDD1     		bne	.L394
 5851              	.LVL388:
 199:../../libdaisy/src/hid/disp/display.h ****         {
 5852              		.loc 6 199 26 view .LVU1427
 5853              	.LBE2098:
 5854              	.LBE2097:
 786:Menus.cpp     ****     screen.DrawLine(attackTimeScaleDraw,
 5855              		.loc 2 786 5 is_stmt 1 view .LVU1428
 789:Menus.cpp     ****                     (screen.Height() - 5) - sustatinLevelScaleDraw,
 5856              		.loc 2 789 43 is_stmt 0 view .LVU1429
 5857 0108 D7ED726A 		vldr.32	s13, [r7, #456]
 5858 010c 9FED937A 		vldr.32	s14, .L521+36
 788:Menus.cpp     ****                     attackTimeScaleDraw + decayTimeScaleDraw,
 5859              		.loc 2 788 41 view .LVU1430
 5860 0110 97ED6E6A 		vldr.32	s12, [r7, #440]
 789:Menus.cpp     ****                     (screen.Height() - 5) - sustatinLevelScaleDraw,
 5861              		.loc 2 789 43 view .LVU1431
 5862 0114 37EE667A 		vsub.f32	s14, s14, s13
 788:Menus.cpp     ****                     attackTimeScaleDraw + decayTimeScaleDraw,
 5863              		.loc 2 788 41 view .LVU1432
 5864 0118 77EE867A 		vadd.f32	s15, s15, s12
 786:Menus.cpp     ****     screen.DrawLine(attackTimeScaleDraw,
 5865              		.loc 2 786 20 view .LVU1433
 5866 011c BCEEC77A 		vcvt.u32.f32	s14, s14
 5867 0120 FCEEE76A 		vcvt.u32.f32	s13, s15
 5868 0124 17EE102A 		vmov	r2, s14	@ int
 5869 0128 16EE906A 		vmov	r6, s13	@ int
 5870              	.LVL389:
 5871              	.LBB2124:
 5872              	.LBI2124:
 181:../../libdaisy/src/hid/disp/display.h ****                   uint_fast8_t y1,
 5873              		.loc 6 181 10 is_stmt 1 view .LVU1434
 5874              	.LBB2125:
 188:../../libdaisy/src/hid/disp/display.h ****         int_fast16_t signX  = ((x1 < x2) ? 1 : -1);
 5875              		.loc 6 188 52 is_stmt 0 view .LVU1435
 5876 012c A2F11903 		sub	r3, r2, #25
 187:../../libdaisy/src/hid/disp/display.h ****         int_fast16_t deltaY = abs((int_fast16_t)y2 - (int_fast16_t)y1);
 5877              		.loc 6 187 52 view .LVU1436
 5878 0130 A6EB010E 		sub	lr, r6, r1
 188:../../libdaisy/src/hid/disp/display.h ****         int_fast16_t signX  = ((x1 < x2) ? 1 : -1);
 5879              		.loc 6 188 22 view .LVU1437
 5880 0134 83EAE370 		eor	r0, r3, r3, asr #31
 187:../../libdaisy/src/hid/disp/display.h ****         int_fast16_t deltaY = abs((int_fast16_t)y2 - (int_fast16_t)y1);
 5881              		.loc 6 187 22 view .LVU1438
 5882 0138 BEF1000F 		cmp	lr, #0
 188:../../libdaisy/src/hid/disp/display.h ****         int_fast16_t signX  = ((x1 < x2) ? 1 : -1);
 5883              		.loc 6 188 22 view .LVU1439
 5884 013c A0EBE370 		sub	r0, r0, r3, asr #31
 187:../../libdaisy/src/hid/disp/display.h ****         int_fast16_t deltaY = abs((int_fast16_t)y2 - (int_fast16_t)y1);
 5885              		.loc 6 187 22 view .LVU1440
 5886 0140 B8BF     		it	lt
 5887 0142 CEF1000E 		rsblt	lr, lr, #0
 5888              	.LVL390:
 188:../../libdaisy/src/hid/disp/display.h ****         int_fast16_t signX  = ((x1 < x2) ? 1 : -1);
ARM GAS  C:\Users\VINCIU~1\AppData\Local\Temp\ccdS0pnQ.s 			page 155


 5889              		.loc 6 188 22 view .LVU1441
 5890 0146 0346     		mov	r3, r0
 5891 0148 0290     		str	r0, [sp, #8]
 5892              	.LVL391:
 189:../../libdaisy/src/hid/disp/display.h ****         int_fast16_t signY  = ((y1 < y2) ? 1 : -1);
 5893              		.loc 6 189 42 view .LVU1442
 5894 014a B142     		cmp	r1, r6
 5895 014c 34BF     		ite	cc
 5896 014e 0120     		movcc	r0, #1
 5897 0150 4FF0FF30 		movcs	r0, #-1
 5898              	.LVL392:
 190:../../libdaisy/src/hid/disp/display.h ****         int_fast16_t error  = deltaX - deltaY;
 5899              		.loc 6 190 42 view .LVU1443
 5900 0154 192A     		cmp	r2, #25
 189:../../libdaisy/src/hid/disp/display.h ****         int_fast16_t signY  = ((y1 < y2) ? 1 : -1);
 5901              		.loc 6 189 42 view .LVU1444
 5902 0156 0390     		str	r0, [sp, #12]
 5903              	.LVL393:
 190:../../libdaisy/src/hid/disp/display.h ****         int_fast16_t error  = deltaX - deltaY;
 5904              		.loc 6 190 42 view .LVU1445
 5905 0158 00F26181 		bhi	.L401
 5906              	.LVL394:
 191:../../libdaisy/src/hid/disp/display.h ****         int_fast16_t error2;
 5907              		.loc 6 191 22 view .LVU1446
 5908 015c AEEB030C 		sub	ip, lr, r3
 5909              	.LVL395:
 5910              	.LBB2126:
 5911              	.LBI2126:
  41:../../libdaisy/src/hid/disp/oled_display.h ****     {
 5912              		.loc 1 41 10 is_stmt 1 view .LVU1447
 5913              	.LBB2127:
 5914              	.LBI2127:
 239:../../libdaisy/src/dev/oled_ssd130x.h ****     {
 5915              		.loc 5 239 10 view .LVU1448
 5916              	.LBB2128:
 241:../../libdaisy/src/dev/oled_ssd130x.h ****             return;
 5917              		.loc 5 241 9 is_stmt 0 view .LVU1449
 5918 0160 7F2E     		cmp	r6, #127
 5919              	.LBE2128:
 5920              	.LBE2127:
 5921              	.LBE2126:
 190:../../libdaisy/src/hid/disp/display.h ****         int_fast16_t error  = deltaX - deltaY;
 5922              		.loc 6 190 42 view .LVU1450
 5923 0162 4FF0FF33 		mov	r3, #-1
 5924              	.LVL396:
 190:../../libdaisy/src/hid/disp/display.h ****         int_fast16_t error  = deltaX - deltaY;
 5925              		.loc 6 190 42 view .LVU1451
 5926 0166 0493     		str	r3, [sp, #16]
 5927              	.LBB2135:
 5928              	.LBB2132:
 5929              	.LBB2129:
 241:../../libdaisy/src/dev/oled_ssd130x.h ****             return;
 5930              		.loc 5 241 9 view .LVU1452
 5931 0168 0DD8     		bhi	.L402
 5932              	.LVL397:
 5933              	.L434:
 244:../../libdaisy/src/dev/oled_ssd130x.h ****         else
ARM GAS  C:\Users\VINCIU~1\AppData\Local\Temp\ccdS0pnQ.s 			page 156


 5934              		.loc 5 244 28 view .LVU1453
 5935 016a D308     		lsrs	r3, r2, #3
 244:../../libdaisy/src/dev/oled_ssd130x.h ****         else
 5936              		.loc 5 244 54 view .LVU1454
 5937 016c 02F00708 		and	r8, r2, #7
 244:../../libdaisy/src/dev/oled_ssd130x.h ****         else
 5938              		.loc 5 244 48 view .LVU1455
 5939 0170 0120     		movs	r0, #1
 5940              	.LVL398:
 244:../../libdaisy/src/dev/oled_ssd130x.h ****         else
 5941              		.loc 5 244 42 view .LVU1456
 5942 0172 06EBC313 		add	r3, r6, r3, lsl #7
 244:../../libdaisy/src/dev/oled_ssd130x.h ****         else
 5943              		.loc 5 244 48 view .LVU1457
 5944 0176 00FA08F0 		lsl	r0, r0, r8
 244:../../libdaisy/src/dev/oled_ssd130x.h ****         else
 5945              		.loc 5 244 42 view .LVU1458
 5946 017a 2344     		add	r3, r3, r4
 5947 017c 93F81480 		ldrb	r8, [r3, #20]	@ zero_extendqisi2
 5948 0180 40EA0800 		orr	r0, r0, r8
 5949 0184 1875     		strb	r0, [r3, #20]
 5950              	.L402:
 5951              	.LVL399:
 244:../../libdaisy/src/dev/oled_ssd130x.h ****         else
 5952              		.loc 5 244 42 view .LVU1459
 5953              	.LBE2129:
 5954              	.LBE2132:
 5955              	.LBE2135:
 199:../../libdaisy/src/hid/disp/display.h ****         {
 5956              		.loc 6 199 26 is_stmt 1 view .LVU1460
 5957 0186 B142     		cmp	r1, r6
 5958 0188 08BF     		it	eq
 5959 018a 192A     		cmpeq	r2, #25
 5960 018c 0CBF     		ite	eq
 5961 018e 0123     		moveq	r3, #1
 5962 0190 0023     		movne	r3, #0
 5963 0192 0593     		str	r3, [sp, #20]
 5964 0194 00F0ED83 		beq	.L516
 5965              	.L404:
 5966              	.LVL400:
 203:../../libdaisy/src/hid/disp/display.h ****             {
 5967              		.loc 6 203 23 is_stmt 0 view .LVU1461
 5968 0198 029B     		ldr	r3, [sp, #8]
 5969 019a 1920     		movs	r0, #25
 5970 019c C3F1000A 		rsb	r10, r3, #0
 5971              	.L406:
 5972              	.LVL401:
 5973              	.LBB2136:
 5974              	.LBI2136:
  41:../../libdaisy/src/hid/disp/oled_display.h ****     {
 5975              		.loc 1 41 10 is_stmt 1 view .LVU1462
 5976              	.LBB2137:
 5977              	.LBI2137:
 239:../../libdaisy/src/dev/oled_ssd130x.h ****     {
 5978              		.loc 5 239 10 view .LVU1463
 5979              	.LBB2138:
 244:../../libdaisy/src/dev/oled_ssd130x.h ****         else
ARM GAS  C:\Users\VINCIU~1\AppData\Local\Temp\ccdS0pnQ.s 			page 157


 5980              		.loc 5 244 48 is_stmt 0 view .LVU1464
 5981 01a0 4FF0010B 		mov	fp, #1
 244:../../libdaisy/src/dev/oled_ssd130x.h ****         else
 5982              		.loc 5 244 28 view .LVU1465
 5983 01a4 C308     		lsrs	r3, r0, #3
 244:../../libdaisy/src/dev/oled_ssd130x.h ****         else
 5984              		.loc 5 244 54 view .LVU1466
 5985 01a6 00F00708 		and	r8, r0, #7
 241:../../libdaisy/src/dev/oled_ssd130x.h ****             return;
 5986              		.loc 5 241 9 view .LVU1467
 5987 01aa 7F29     		cmp	r1, #127
 244:../../libdaisy/src/dev/oled_ssd130x.h ****         else
 5988              		.loc 5 244 42 view .LVU1468
 5989 01ac 01EBC313 		add	r3, r1, r3, lsl #7
 5990              	.LBE2138:
 5991              	.LBE2137:
 5992              	.LBE2136:
 202:../../libdaisy/src/hid/disp/display.h ****             if(error2 > -deltaY)
 5993              		.loc 6 202 20 view .LVU1469
 5994 01b0 0CFA0BF9 		lsl	r9, ip, fp
 5995              	.LVL402:
 5996              	.LBB2141:
 5997              	.LBB2140:
 5998              	.LBB2139:
 244:../../libdaisy/src/dev/oled_ssd130x.h ****         else
 5999              		.loc 5 244 48 view .LVU1470
 6000 01b4 0BFA08F8 		lsl	r8, fp, r8
 241:../../libdaisy/src/dev/oled_ssd130x.h ****             return;
 6001              		.loc 5 241 9 view .LVU1471
 6002 01b8 08D8     		bhi	.L407
 6003 01ba 3F28     		cmp	r0, #63
 244:../../libdaisy/src/dev/oled_ssd130x.h ****         else
 6004              		.loc 5 244 42 view .LVU1472
 6005 01bc 2344     		add	r3, r3, r4
 241:../../libdaisy/src/dev/oled_ssd130x.h ****             return;
 6006              		.loc 5 241 9 view .LVU1473
 6007 01be 05D8     		bhi	.L407
 244:../../libdaisy/src/dev/oled_ssd130x.h ****         else
 6008              		.loc 5 244 42 view .LVU1474
 6009 01c0 93F814B0 		ldrb	fp, [r3, #20]	@ zero_extendqisi2
 6010 01c4 48EA0B08 		orr	r8, r8, fp
 6011 01c8 83F81480 		strb	r8, [r3, #20]
 6012              	.L407:
 244:../../libdaisy/src/dev/oled_ssd130x.h ****         else
 6013              		.loc 5 244 42 view .LVU1475
 6014              	.LBE2139:
 6015              	.LBE2140:
 6016              	.LBE2141:
 203:../../libdaisy/src/hid/disp/display.h ****             {
 6017              		.loc 6 203 13 view .LVU1476
 6018 01cc BAEB4C0F 		cmp	r10, ip, lsl #1
 6019 01d0 04DA     		bge	.L408
 205:../../libdaisy/src/hid/disp/display.h ****                 x1 += signX;
 6020              		.loc 6 205 23 view .LVU1477
 6021 01d2 029B     		ldr	r3, [sp, #8]
 6022 01d4 ACEB030C 		sub	ip, ip, r3
 6023              	.LVL403:
ARM GAS  C:\Users\VINCIU~1\AppData\Local\Temp\ccdS0pnQ.s 			page 158


 206:../../libdaisy/src/hid/disp/display.h ****             }
 6024              		.loc 6 206 20 view .LVU1478
 6025 01d8 039B     		ldr	r3, [sp, #12]
 6026 01da 1944     		add	r1, r1, r3
 6027              	.LVL404:
 6028              	.L408:
 209:../../libdaisy/src/hid/disp/display.h ****             {
 6029              		.loc 6 209 13 view .LVU1479
 6030 01dc CE45     		cmp	lr, r9
 6031 01de 02DD     		ble	.L409
 212:../../libdaisy/src/hid/disp/display.h ****             }
 6032              		.loc 6 212 20 view .LVU1480
 6033 01e0 049B     		ldr	r3, [sp, #16]
 211:../../libdaisy/src/hid/disp/display.h ****                 y1 += signY;
 6034              		.loc 6 211 23 view .LVU1481
 6035 01e2 F444     		add	ip, ip, lr
 6036              	.LVL405:
 212:../../libdaisy/src/hid/disp/display.h ****             }
 6037              		.loc 6 212 20 view .LVU1482
 6038 01e4 1844     		add	r0, r0, r3
 6039              	.LVL406:
 6040              	.L409:
 199:../../libdaisy/src/hid/disp/display.h ****         {
 6041              		.loc 6 199 26 is_stmt 1 view .LVU1483
 6042 01e6 8E42     		cmp	r6, r1
 6043 01e8 DAD1     		bne	.L406
 199:../../libdaisy/src/hid/disp/display.h ****         {
 6044              		.loc 6 199 26 is_stmt 0 view .LVU1484
 6045 01ea 8242     		cmp	r2, r0
 6046 01ec D8D1     		bne	.L406
 6047              	.LVL407:
 6048              	.L403:
 199:../../libdaisy/src/hid/disp/display.h ****         {
 6049              		.loc 6 199 26 view .LVU1485
 6050              	.LBE2125:
 6051              	.LBE2124:
 792:Menus.cpp     ****     screen.DrawLine(attackTimeScaleDraw + decayTimeScaleDraw,
 6052              		.loc 2 792 5 is_stmt 1 view .LVU1486
 795:Menus.cpp     ****                         + screen.Width() / 4,
 6053              		.loc 2 795 25 is_stmt 0 view .LVU1487
 6054 01ee 9FED5C7A 		vldr.32	s14, .L521+40
 6055 01f2 77EE877A 		vadd.f32	s15, s15, s14
 792:Menus.cpp     ****     screen.DrawLine(attackTimeScaleDraw + decayTimeScaleDraw,
 6056              		.loc 2 792 20 view .LVU1488
 6057 01f6 BCEEE77A 		vcvt.u32.f32	s14, s15
 6058 01fa 17EE101A 		vmov	r1, s14	@ int
 6059              	.LVL408:
 6060              	.LBB2147:
 6061              	.LBI2147:
 181:../../libdaisy/src/hid/disp/display.h ****                   uint_fast8_t y1,
 6062              		.loc 6 181 10 is_stmt 1 view .LVU1489
 6063              	.LBB2148:
 187:../../libdaisy/src/hid/disp/display.h ****         int_fast16_t deltaY = abs((int_fast16_t)y2 - (int_fast16_t)y1);
 6064              		.loc 6 187 52 is_stmt 0 view .LVU1490
 6065 01fe A1EB0608 		sub	r8, r1, r6
 187:../../libdaisy/src/hid/disp/display.h ****         int_fast16_t deltaY = abs((int_fast16_t)y2 - (int_fast16_t)y1);
 6066              		.loc 6 187 22 view .LVU1491
ARM GAS  C:\Users\VINCIU~1\AppData\Local\Temp\ccdS0pnQ.s 			page 159


 6067 0202 B8F1000F 		cmp	r8, #0
 6068 0206 B8BF     		it	lt
 6069 0208 C8F10008 		rsblt	r8, r8, #0
 6070              	.LVL409:
 189:../../libdaisy/src/hid/disp/display.h ****         int_fast16_t signY  = ((y1 < y2) ? 1 : -1);
 6071              		.loc 6 189 42 view .LVU1492
 6072 020c 8E42     		cmp	r6, r1
 6073 020e C0F01781 		bcc	.L410
 6074              	.LVL410:
 6075              	.LBB2149:
 6076              	.LBI2149:
  41:../../libdaisy/src/hid/disp/oled_display.h ****     {
 6077              		.loc 1 41 10 is_stmt 1 view .LVU1493
 6078              	.LBB2150:
 6079              	.LBI2150:
 239:../../libdaisy/src/dev/oled_ssd130x.h ****     {
 6080              		.loc 5 239 10 view .LVU1494
 6081              	.LBB2151:
 241:../../libdaisy/src/dev/oled_ssd130x.h ****             return;
 6082              		.loc 5 241 9 is_stmt 0 view .LVU1495
 6083 0212 7F29     		cmp	r1, #127
 6084              	.LBE2151:
 6085              	.LBE2150:
 6086              	.LBE2149:
 189:../../libdaisy/src/hid/disp/display.h ****         int_fast16_t signY  = ((y1 < y2) ? 1 : -1);
 6087              		.loc 6 189 42 view .LVU1496
 6088 0214 4FF0FF39 		mov	r9, #-1
 6089              	.LBB2158:
 6090              	.LBB2155:
 6091              	.LBB2152:
 241:../../libdaisy/src/dev/oled_ssd130x.h ****             return;
 6092              		.loc 5 241 9 view .LVU1497
 6093 0218 0FD8     		bhi	.L411
 241:../../libdaisy/src/dev/oled_ssd130x.h ****             return;
 6094              		.loc 5 241 9 view .LVU1498
 6095 021a 059B     		ldr	r3, [sp, #20]
 6096 021c 6BB9     		cbnz	r3, .L411
 6097              	.LVL411:
 6098              	.L433:
 244:../../libdaisy/src/dev/oled_ssd130x.h ****         else
 6099              		.loc 5 244 28 view .LVU1499
 6100 021e D308     		lsrs	r3, r2, #3
 244:../../libdaisy/src/dev/oled_ssd130x.h ****         else
 6101              		.loc 5 244 54 view .LVU1500
 6102 0220 02F0070C 		and	ip, r2, #7
 244:../../libdaisy/src/dev/oled_ssd130x.h ****         else
 6103              		.loc 5 244 48 view .LVU1501
 6104 0224 0120     		movs	r0, #1
 244:../../libdaisy/src/dev/oled_ssd130x.h ****         else
 6105              		.loc 5 244 42 view .LVU1502
 6106 0226 01EBC313 		add	r3, r1, r3, lsl #7
 244:../../libdaisy/src/dev/oled_ssd130x.h ****         else
 6107              		.loc 5 244 48 view .LVU1503
 6108 022a 00FA0CF0 		lsl	r0, r0, ip
 244:../../libdaisy/src/dev/oled_ssd130x.h ****         else
 6109              		.loc 5 244 42 view .LVU1504
 6110 022e 2344     		add	r3, r3, r4
ARM GAS  C:\Users\VINCIU~1\AppData\Local\Temp\ccdS0pnQ.s 			page 160


 6111 0230 93F814C0 		ldrb	ip, [r3, #20]	@ zero_extendqisi2
 6112 0234 40EA0C00 		orr	r0, r0, ip
 6113 0238 1875     		strb	r0, [r3, #20]
 6114              	.L411:
 6115              	.LVL412:
 244:../../libdaisy/src/dev/oled_ssd130x.h ****         else
 6116              		.loc 5 244 42 view .LVU1505
 6117              	.LBE2152:
 6118              	.LBE2155:
 6119              	.LBE2158:
 199:../../libdaisy/src/hid/disp/display.h ****         {
 6120              		.loc 6 199 26 is_stmt 1 view .LVU1506
 6121 023a 8E42     		cmp	r6, r1
 6122 023c 22D0     		beq	.L412
 6123              	.L413:
 6124              	.LVL413:
 187:../../libdaisy/src/hid/disp/display.h ****         int_fast16_t deltaY = abs((int_fast16_t)y2 - (int_fast16_t)y1);
 6125              		.loc 6 187 22 is_stmt 0 view .LVU1507
 6126 023e C646     		mov	lr, r8
 6127              	.LBE2148:
 6128              	.LBE2147:
 786:Menus.cpp     ****     screen.DrawLine(attackTimeScaleDraw,
 6129              		.loc 2 786 20 view .LVU1508
 6130 0240 9446     		mov	ip, r2
 6131              	.L415:
 6132              	.LVL414:
 6133              	.LBB2166:
 6134              	.LBB2164:
 6135              	.LBB2159:
 6136              	.LBI2159:
  41:../../libdaisy/src/hid/disp/oled_display.h ****     {
 6137              		.loc 1 41 10 is_stmt 1 view .LVU1509
 6138              	.LBB2160:
 6139              	.LBI2160:
 239:../../libdaisy/src/dev/oled_ssd130x.h ****     {
 6140              		.loc 5 239 10 view .LVU1510
 6141              	.LBB2161:
 244:../../libdaisy/src/dev/oled_ssd130x.h ****         else
 6142              		.loc 5 244 28 is_stmt 0 view .LVU1511
 6143 0242 4FEADC03 		lsr	r3, ip, #3
 244:../../libdaisy/src/dev/oled_ssd130x.h ****         else
 6144              		.loc 5 244 54 view .LVU1512
 6145 0246 0CF0070A 		and	r10, ip, #7
 244:../../libdaisy/src/dev/oled_ssd130x.h ****         else
 6146              		.loc 5 244 48 view .LVU1513
 6147 024a 0120     		movs	r0, #1
 241:../../libdaisy/src/dev/oled_ssd130x.h ****             return;
 6148              		.loc 5 241 9 view .LVU1514
 6149 024c 7F2E     		cmp	r6, #127
 244:../../libdaisy/src/dev/oled_ssd130x.h ****         else
 6150              		.loc 5 244 42 view .LVU1515
 6151 024e 06EBC313 		add	r3, r6, r3, lsl #7
 244:../../libdaisy/src/dev/oled_ssd130x.h ****         else
 6152              		.loc 5 244 48 view .LVU1516
 6153 0252 00FA0AF0 		lsl	r0, r0, r10
 241:../../libdaisy/src/dev/oled_ssd130x.h ****             return;
 6154              		.loc 5 241 9 view .LVU1517
ARM GAS  C:\Users\VINCIU~1\AppData\Local\Temp\ccdS0pnQ.s 			page 161


 6155 0256 08D8     		bhi	.L416
 6156 0258 BCF13F0F 		cmp	ip, #63
 244:../../libdaisy/src/dev/oled_ssd130x.h ****         else
 6157              		.loc 5 244 42 view .LVU1518
 6158 025c 2344     		add	r3, r3, r4
 241:../../libdaisy/src/dev/oled_ssd130x.h ****             return;
 6159              		.loc 5 241 9 view .LVU1519
 6160 025e 04D8     		bhi	.L416
 244:../../libdaisy/src/dev/oled_ssd130x.h ****         else
 6161              		.loc 5 244 42 view .LVU1520
 6162 0260 93F814A0 		ldrb	r10, [r3, #20]	@ zero_extendqisi2
 6163 0264 40EA0A00 		orr	r0, r0, r10
 6164 0268 1875     		strb	r0, [r3, #20]
 6165              	.L416:
 244:../../libdaisy/src/dev/oled_ssd130x.h ****         else
 6166              		.loc 5 244 42 view .LVU1521
 6167              	.LBE2161:
 6168              	.LBE2160:
 6169              	.LBE2159:
 203:../../libdaisy/src/hid/disp/display.h ****             {
 6170              		.loc 6 203 13 view .LVU1522
 6171 026a 5FEA4E03 		lsls	r3, lr, #1
 206:../../libdaisy/src/hid/disp/display.h ****             }
 6172              		.loc 6 206 20 view .LVU1523
 6173 026e 18BF     		it	ne
 6174 0270 4E44     		addne	r6, r6, r9
 6175              	.LVL415:
 209:../../libdaisy/src/hid/disp/display.h ****             {
 6176              		.loc 6 209 13 view .LVU1524
 6177 0272 9845     		cmp	r8, r3
 6178 0274 02DD     		ble	.L418
 211:../../libdaisy/src/hid/disp/display.h ****                 y1 += signY;
 6179              		.loc 6 211 23 view .LVU1525
 6180 0276 C644     		add	lr, lr, r8
 6181              	.LVL416:
 212:../../libdaisy/src/hid/disp/display.h ****             }
 6182              		.loc 6 212 20 view .LVU1526
 6183 0278 0CF1FF3C 		add	ip, ip, #-1
 6184              	.LVL417:
 6185              	.L418:
 199:../../libdaisy/src/hid/disp/display.h ****         {
 6186              		.loc 6 199 26 is_stmt 1 view .LVU1527
 6187 027c B142     		cmp	r1, r6
 6188 027e E0D1     		bne	.L415
 199:../../libdaisy/src/hid/disp/display.h ****         {
 6189              		.loc 6 199 26 is_stmt 0 view .LVU1528
 6190 0280 6245     		cmp	r2, ip
 6191 0282 DED1     		bne	.L415
 6192              	.LVL418:
 6193              	.L412:
 199:../../libdaisy/src/hid/disp/display.h ****         {
 6194              		.loc 6 199 26 view .LVU1529
 6195              	.LBE2164:
 6196              	.LBE2166:
 798:Menus.cpp     ****     screen.DrawLine(attackTimeScaleDraw + decayTimeScaleDraw
 6197              		.loc 2 798 5 is_stmt 1 view .LVU1530
 802:Menus.cpp     ****                         + screen.Width() / 4 + releaseTimeScaleDraw,
ARM GAS  C:\Users\VINCIU~1\AppData\Local\Temp\ccdS0pnQ.s 			page 162


 6198              		.loc 2 802 46 is_stmt 0 view .LVU1531
 6199 0284 97ED767A 		vldr.32	s14, [r7, #472]
 6200              	.LBB2167:
 6201              	.LBB2168:
 188:../../libdaisy/src/hid/disp/display.h ****         int_fast16_t signX  = ((x1 < x2) ? 1 : -1);
 6202              		.loc 6 188 52 view .LVU1532
 6203 0288 C2F13B08 		rsb	r8, r2, #59
 6204              	.LBE2168:
 6205              	.LBE2167:
 802:Menus.cpp     ****                         + screen.Width() / 4 + releaseTimeScaleDraw,
 6206              		.loc 2 802 46 view .LVU1533
 6207 028c 77EE877A 		vadd.f32	s15, s15, s14
 6208              	.LBB2194:
 6209              	.LBB2191:
 188:../../libdaisy/src/hid/disp/display.h ****         int_fast16_t signX  = ((x1 < x2) ? 1 : -1);
 6210              		.loc 6 188 22 view .LVU1534
 6211 0290 B8F1000F 		cmp	r8, #0
 6212 0294 B8BF     		it	lt
 6213 0296 C8F10008 		rsblt	r8, r8, #0
 6214              	.LBE2191:
 6215              	.LBE2194:
 798:Menus.cpp     ****     screen.DrawLine(attackTimeScaleDraw + decayTimeScaleDraw
 6216              		.loc 2 798 20 view .LVU1535
 6217 029a FCEEE77A 		vcvt.u32.f32	s15, s15
 6218 029e 17EE90CA 		vmov	ip, s15	@ int
 6219              	.LVL419:
 6220              	.LBB2195:
 6221              	.LBI2167:
 181:../../libdaisy/src/hid/disp/display.h ****                   uint_fast8_t y1,
 6222              		.loc 6 181 10 is_stmt 1 view .LVU1536
 6223              	.LBB2192:
 187:../../libdaisy/src/hid/disp/display.h ****         int_fast16_t deltaY = abs((int_fast16_t)y2 - (int_fast16_t)y1);
 6224              		.loc 6 187 52 is_stmt 0 view .LVU1537
 6225 02a2 ACEB010E 		sub	lr, ip, r1
 187:../../libdaisy/src/hid/disp/display.h ****         int_fast16_t deltaY = abs((int_fast16_t)y2 - (int_fast16_t)y1);
 6226              		.loc 6 187 22 view .LVU1538
 6227 02a6 BEF1000F 		cmp	lr, #0
 6228 02aa B8BF     		it	lt
 6229 02ac CEF1000E 		rsblt	lr, lr, #0
 6230              	.LVL420:
 189:../../libdaisy/src/hid/disp/display.h ****         int_fast16_t signY  = ((y1 < y2) ? 1 : -1);
 6231              		.loc 6 189 42 view .LVU1539
 6232 02b0 6145     		cmp	r1, ip
 6233 02b2 34BF     		ite	cc
 6234 02b4 4FF0010A 		movcc	r10, #1
 6235 02b8 4FF0FF3A 		movcs	r10, #-1
 6236              	.LVL421:
 190:../../libdaisy/src/hid/disp/display.h ****         int_fast16_t error  = deltaX - deltaY;
 6237              		.loc 6 190 42 view .LVU1540
 6238 02bc 3A2A     		cmp	r2, #58
 191:../../libdaisy/src/hid/disp/display.h ****         int_fast16_t error2;
 6239              		.loc 6 191 22 view .LVU1541
 6240 02be AEEB0800 		sub	r0, lr, r8
 190:../../libdaisy/src/hid/disp/display.h ****         int_fast16_t error  = deltaX - deltaY;
 6241              		.loc 6 190 42 view .LVU1542
 6242 02c2 40F2A580 		bls	.L420
 6243              	.LVL422:
ARM GAS  C:\Users\VINCIU~1\AppData\Local\Temp\ccdS0pnQ.s 			page 163


 6244              	.LBB2169:
 6245              	.LBI2169:
  41:../../libdaisy/src/hid/disp/oled_display.h ****     {
 6246              		.loc 1 41 10 is_stmt 1 view .LVU1543
 6247              	.LBB2170:
 6248              	.LBI2170:
 239:../../libdaisy/src/dev/oled_ssd130x.h ****     {
 6249              		.loc 5 239 10 view .LVU1544
 6250              	.LBE2170:
 6251              	.LBE2169:
 190:../../libdaisy/src/hid/disp/display.h ****         int_fast16_t error  = deltaX - deltaY;
 6252              		.loc 6 190 42 is_stmt 0 view .LVU1545
 6253 02c6 4FF0FF33 		mov	r3, #-1
 6254              	.LBB2180:
 6255              	.LBB2175:
 6256              	.LBB2171:
 241:../../libdaisy/src/dev/oled_ssd130x.h ****             return;
 6257              		.loc 5 241 9 view .LVU1546
 6258 02ca BCF17F0F 		cmp	ip, #127
 6259              	.LBE2171:
 6260              	.LBE2175:
 6261              	.LBE2180:
 190:../../libdaisy/src/hid/disp/display.h ****         int_fast16_t error  = deltaX - deltaY;
 6262              		.loc 6 190 42 view .LVU1547
 6263 02ce 0293     		str	r3, [sp, #8]
 6264              	.LBB2181:
 6265              	.LBB2176:
 6266              	.LBB2172:
 241:../../libdaisy/src/dev/oled_ssd130x.h ****             return;
 6267              		.loc 5 241 9 view .LVU1548
 6268 02d0 06D8     		bhi	.L421
 6269              	.LVL423:
 6270              	.L432:
 244:../../libdaisy/src/dev/oled_ssd130x.h ****         else
 6271              		.loc 5 244 42 view .LVU1549
 6272 02d2 0CF56073 		add	r3, ip, #896
 6273 02d6 2344     		add	r3, r3, r4
 6274 02d8 1E7D     		ldrb	r6, [r3, #20]	@ zero_extendqisi2
 6275 02da 46F00806 		orr	r6, r6, #8
 6276 02de 1E75     		strb	r6, [r3, #20]
 6277              	.L421:
 6278              	.LVL424:
 244:../../libdaisy/src/dev/oled_ssd130x.h ****         else
 6279              		.loc 5 244 42 view .LVU1550
 6280              	.LBE2172:
 6281              	.LBE2176:
 6282              	.LBE2181:
 199:../../libdaisy/src/hid/disp/display.h ****         {
 6283              		.loc 6 199 26 is_stmt 1 view .LVU1551
 6284 02e0 6145     		cmp	r1, ip
 6285 02e2 01D1     		bne	.L424
 6286 02e4 3B2A     		cmp	r2, #59
 6287 02e6 3FD0     		beq	.L422
 6288              	.L424:
 6289              	.LVL425:
 203:../../libdaisy/src/hid/disp/display.h ****             {
 6290              		.loc 6 203 23 is_stmt 0 view .LVU1552
ARM GAS  C:\Users\VINCIU~1\AppData\Local\Temp\ccdS0pnQ.s 			page 164


 6291 02e8 C8F10009 		rsb	r9, r8, #0
 6292              	.LVL426:
 6293              	.L426:
 6294              	.LBB2182:
 6295              	.LBI2182:
  41:../../libdaisy/src/hid/disp/oled_display.h ****     {
 6296              		.loc 1 41 10 is_stmt 1 view .LVU1553
 6297              	.LBB2183:
 6298              	.LBI2183:
 239:../../libdaisy/src/dev/oled_ssd130x.h ****     {
 6299              		.loc 5 239 10 view .LVU1554
 6300              	.LBB2184:
 244:../../libdaisy/src/dev/oled_ssd130x.h ****         else
 6301              		.loc 5 244 48 is_stmt 0 view .LVU1555
 6302 02ec 4FF0010B 		mov	fp, #1
 244:../../libdaisy/src/dev/oled_ssd130x.h ****         else
 6303              		.loc 5 244 28 view .LVU1556
 6304 02f0 D308     		lsrs	r3, r2, #3
 244:../../libdaisy/src/dev/oled_ssd130x.h ****         else
 6305              		.loc 5 244 54 view .LVU1557
 6306 02f2 02F00706 		and	r6, r2, #7
 241:../../libdaisy/src/dev/oled_ssd130x.h ****             return;
 6307              		.loc 5 241 9 view .LVU1558
 6308 02f6 7F29     		cmp	r1, #127
 244:../../libdaisy/src/dev/oled_ssd130x.h ****         else
 6309              		.loc 5 244 42 view .LVU1559
 6310 02f8 01EBC313 		add	r3, r1, r3, lsl #7
 6311              	.LBE2184:
 6312              	.LBE2183:
 6313              	.LBE2182:
 202:../../libdaisy/src/hid/disp/display.h ****             if(error2 > -deltaY)
 6314              		.loc 6 202 20 view .LVU1560
 6315 02fc 00FA0BF7 		lsl	r7, r0, fp
 6316              	.LVL427:
 6317              	.LBB2187:
 6318              	.LBB2186:
 6319              	.LBB2185:
 244:../../libdaisy/src/dev/oled_ssd130x.h ****         else
 6320              		.loc 5 244 48 view .LVU1561
 6321 0300 0BFA06F6 		lsl	r6, fp, r6
 241:../../libdaisy/src/dev/oled_ssd130x.h ****             return;
 6322              		.loc 5 241 9 view .LVU1562
 6323 0304 07D8     		bhi	.L427
 6324 0306 3F2A     		cmp	r2, #63
 244:../../libdaisy/src/dev/oled_ssd130x.h ****         else
 6325              		.loc 5 244 42 view .LVU1563
 6326 0308 2344     		add	r3, r3, r4
 241:../../libdaisy/src/dev/oled_ssd130x.h ****             return;
 6327              		.loc 5 241 9 view .LVU1564
 6328 030a 04D8     		bhi	.L427
 244:../../libdaisy/src/dev/oled_ssd130x.h ****         else
 6329              		.loc 5 244 42 view .LVU1565
 6330 030c 93F814B0 		ldrb	fp, [r3, #20]	@ zero_extendqisi2
 6331 0310 46EA0B06 		orr	r6, r6, fp
 6332 0314 1E75     		strb	r6, [r3, #20]
 6333              	.L427:
 244:../../libdaisy/src/dev/oled_ssd130x.h ****         else
ARM GAS  C:\Users\VINCIU~1\AppData\Local\Temp\ccdS0pnQ.s 			page 165


 6334              		.loc 5 244 42 view .LVU1566
 6335              	.LBE2185:
 6336              	.LBE2186:
 6337              	.LBE2187:
 203:../../libdaisy/src/hid/disp/display.h ****             {
 6338              		.loc 6 203 13 view .LVU1567
 6339 0316 B9EB400F 		cmp	r9, r0, lsl #1
 6340 031a 02DA     		bge	.L428
 205:../../libdaisy/src/hid/disp/display.h ****                 x1 += signX;
 6341              		.loc 6 205 23 view .LVU1568
 6342 031c A0EB0800 		sub	r0, r0, r8
 6343              	.LVL428:
 206:../../libdaisy/src/hid/disp/display.h ****             }
 6344              		.loc 6 206 20 view .LVU1569
 6345 0320 5144     		add	r1, r1, r10
 6346              	.LVL429:
 6347              	.L428:
 209:../../libdaisy/src/hid/disp/display.h ****             {
 6348              		.loc 6 209 13 view .LVU1570
 6349 0322 BE45     		cmp	lr, r7
 6350 0324 02DD     		ble	.L429
 212:../../libdaisy/src/hid/disp/display.h ****             }
 6351              		.loc 6 212 20 view .LVU1571
 6352 0326 029B     		ldr	r3, [sp, #8]
 211:../../libdaisy/src/hid/disp/display.h ****                 y1 += signY;
 6353              		.loc 6 211 23 view .LVU1572
 6354 0328 7044     		add	r0, r0, lr
 6355              	.LVL430:
 212:../../libdaisy/src/hid/disp/display.h ****             }
 6356              		.loc 6 212 20 view .LVU1573
 6357 032a 1A44     		add	r2, r2, r3
 6358              	.LVL431:
 6359              	.L429:
 199:../../libdaisy/src/hid/disp/display.h ****         {
 6360              		.loc 6 199 26 is_stmt 1 view .LVU1574
 6361 032c 8C45     		cmp	ip, r1
 6362 032e DDD1     		bne	.L426
 199:../../libdaisy/src/hid/disp/display.h ****         {
 6363              		.loc 6 199 26 is_stmt 0 view .LVU1575
 6364 0330 3B2A     		cmp	r2, #59
 6365 0332 DBD1     		bne	.L426
 6366 0334 18E0     		b	.L522
 6367              	.L523:
 6368 0336 00BF     		.align	2
 6369              	.L521:
 6370 0338 00000000 		.word	Font_6x8
 6371 033c 20000400 		.word	262176
 6372 0340 00000000 		.word	.LC1
 6373 0344 30000400 		.word	262192
 6374 0348 04000000 		.word	.LC2
 6375 034c 40000400 		.word	262208
 6376 0350 08000000 		.word	.LC3
 6377 0354 50000400 		.word	262224
 6378 0358 0C000000 		.word	.LC4
 6379 035c 00006C42 		.word	1114374144
 6380 0360 00000042 		.word	1107296256
 6381 0364 0000C842 		.word	1120403456
ARM GAS  C:\Users\VINCIU~1\AppData\Local\Temp\ccdS0pnQ.s 			page 166


 6382              	.L522:
 6383              	.LVL432:
 6384              	.L422:
 199:../../libdaisy/src/hid/disp/display.h ****         {
 6385              		.loc 6 199 26 view .LVU1576
 6386              	.LBE2192:
 6387              	.LBE2195:
 6388              	.LBB2196:
 6389              	.LBB2197:
 6390              	.LBB2198:
 6391              	.LBB2199:
 6392              	.LBB2200:
 111:../../libdaisy/src/dev/oled_ssd130x.h ****         spi_.BlockingTransmit(&cmd, 1);
 6393              		.loc 5 111 24 view .LVU1577
 6394 0368 05F10807 		add	r7, r5, #8
 6395 036c 05F10C06 		add	r6, r5, #12
 6396 0370 05F20C49 		addw	r9, r5, #1036
 6397 0374 B024     		movs	r4, #176
 6398              	.LVL433:
 6399              	.L430:
 111:../../libdaisy/src/dev/oled_ssd130x.h ****         spi_.BlockingTransmit(&cmd, 1);
 6400              		.loc 5 111 24 view .LVU1578
 6401 0376 4FF00008 		mov	r8, #0
 111:../../libdaisy/src/dev/oled_ssd130x.h ****         spi_.BlockingTransmit(&cmd, 1);
 6402              		.loc 5 111 23 view .LVU1579
 6403 037a 3846     		mov	r0, r7
 6404 037c 8DF81F40 		strb	r4, [sp, #31]
 6405              	.LVL434:
 111:../../libdaisy/src/dev/oled_ssd130x.h ****         spi_.BlockingTransmit(&cmd, 1);
 6406              		.loc 5 111 23 view .LVU1580
 6407              	.LBE2200:
 6408              	.LBI2199:
 109:../../libdaisy/src/dev/oled_ssd130x.h ****     {
 6409              		.loc 5 109 10 is_stmt 1 view .LVU1581
 6410              	.LBB2201:
 111:../../libdaisy/src/dev/oled_ssd130x.h ****         spi_.BlockingTransmit(&cmd, 1);
 6411              		.loc 5 111 9 view .LVU1582
 6412              	.LBE2201:
 6413              	.LBE2199:
 6414              		.loc 5 270 22 is_stmt 0 view .LVU1583
 6415 0380 0134     		adds	r4, r4, #1
 6416              	.LVL435:
 6417              	.LBB2204:
 6418              	.LBB2202:
 111:../../libdaisy/src/dev/oled_ssd130x.h ****         spi_.BlockingTransmit(&cmd, 1);
 6419              		.loc 5 111 23 view .LVU1584
 6420 0382 4146     		mov	r1, r8
 6421 0384 FFF7FEFF 		bl	dsy_gpio_write
 6422              	.LVL436:
 112:../../libdaisy/src/dev/oled_ssd130x.h ****     };
 6423              		.loc 5 112 9 is_stmt 1 view .LVU1585
 112:../../libdaisy/src/dev/oled_ssd130x.h ****     };
 6424              		.loc 5 112 30 is_stmt 0 view .LVU1586
 6425 0388 6423     		movs	r3, #100
 6426 038a 0122     		movs	r2, #1
 6427 038c 0DF11F01 		add	r1, sp, #31
 6428 0390 2846     		mov	r0, r5
ARM GAS  C:\Users\VINCIU~1\AppData\Local\Temp\ccdS0pnQ.s 			page 167


 6429              	.LBE2202:
 6430              	.LBE2204:
 6431              		.loc 5 270 22 view .LVU1587
 6432 0392 E4B2     		uxtb	r4, r4
 6433              	.LBB2205:
 6434              	.LBB2203:
 112:../../libdaisy/src/dev/oled_ssd130x.h ****     };
 6435              		.loc 5 112 30 view .LVU1588
 6436 0394 FFF7FEFF 		bl	_ZN5daisy9SpiHandle16BlockingTransmitEPhjm
 6437              	.LVL437:
 112:../../libdaisy/src/dev/oled_ssd130x.h ****     };
 6438              		.loc 5 112 30 view .LVU1589
 6439              	.LBE2203:
 6440              	.LBE2205:
 6441              	.LBB2206:
 6442              	.LBB2207:
 111:../../libdaisy/src/dev/oled_ssd130x.h ****         spi_.BlockingTransmit(&cmd, 1);
 6443              		.loc 5 111 23 view .LVU1590
 6444 0398 4146     		mov	r1, r8
 6445 039a 3846     		mov	r0, r7
 6446 039c 8DF81F80 		strb	r8, [sp, #31]
 6447              	.LVL438:
 111:../../libdaisy/src/dev/oled_ssd130x.h ****         spi_.BlockingTransmit(&cmd, 1);
 6448              		.loc 5 111 23 view .LVU1591
 6449              	.LBE2207:
 6450              	.LBI2206:
 109:../../libdaisy/src/dev/oled_ssd130x.h ****     {
 6451              		.loc 5 109 10 is_stmt 1 view .LVU1592
 6452              	.LBB2208:
 111:../../libdaisy/src/dev/oled_ssd130x.h ****         spi_.BlockingTransmit(&cmd, 1);
 6453              		.loc 5 111 9 view .LVU1593
 111:../../libdaisy/src/dev/oled_ssd130x.h ****         spi_.BlockingTransmit(&cmd, 1);
 6454              		.loc 5 111 23 is_stmt 0 view .LVU1594
 6455 03a0 FFF7FEFF 		bl	dsy_gpio_write
 6456              	.LVL439:
 112:../../libdaisy/src/dev/oled_ssd130x.h ****     };
 6457              		.loc 5 112 9 is_stmt 1 view .LVU1595
 112:../../libdaisy/src/dev/oled_ssd130x.h ****     };
 6458              		.loc 5 112 30 is_stmt 0 view .LVU1596
 6459 03a4 0122     		movs	r2, #1
 6460 03a6 6423     		movs	r3, #100
 6461 03a8 0DF11F01 		add	r1, sp, #31
 6462 03ac 2846     		mov	r0, r5
 6463 03ae FFF7FEFF 		bl	_ZN5daisy9SpiHandle16BlockingTransmitEPhjm
 6464              	.LVL440:
 112:../../libdaisy/src/dev/oled_ssd130x.h ****     };
 6465              		.loc 5 112 30 view .LVU1597
 6466 03b2 1023     		movs	r3, #16
 6467              	.LBE2208:
 6468              	.LBE2206:
 6469              	.LBB2209:
 6470              	.LBB2210:
 111:../../libdaisy/src/dev/oled_ssd130x.h ****         spi_.BlockingTransmit(&cmd, 1);
 6471              		.loc 5 111 23 view .LVU1598
 6472 03b4 4146     		mov	r1, r8
 6473 03b6 3846     		mov	r0, r7
 6474 03b8 8DF81F30 		strb	r3, [sp, #31]
ARM GAS  C:\Users\VINCIU~1\AppData\Local\Temp\ccdS0pnQ.s 			page 168


 6475              	.LVL441:
 111:../../libdaisy/src/dev/oled_ssd130x.h ****         spi_.BlockingTransmit(&cmd, 1);
 6476              		.loc 5 111 23 view .LVU1599
 6477              	.LBE2210:
 6478              	.LBI2209:
 109:../../libdaisy/src/dev/oled_ssd130x.h ****     {
 6479              		.loc 5 109 10 is_stmt 1 view .LVU1600
 6480              	.LBB2211:
 111:../../libdaisy/src/dev/oled_ssd130x.h ****         spi_.BlockingTransmit(&cmd, 1);
 6481              		.loc 5 111 9 view .LVU1601
 111:../../libdaisy/src/dev/oled_ssd130x.h ****         spi_.BlockingTransmit(&cmd, 1);
 6482              		.loc 5 111 23 is_stmt 0 view .LVU1602
 6483 03bc FFF7FEFF 		bl	dsy_gpio_write
 6484              	.LVL442:
 112:../../libdaisy/src/dev/oled_ssd130x.h ****     };
 6485              		.loc 5 112 9 is_stmt 1 view .LVU1603
 112:../../libdaisy/src/dev/oled_ssd130x.h ****     };
 6486              		.loc 5 112 30 is_stmt 0 view .LVU1604
 6487 03c0 6423     		movs	r3, #100
 6488 03c2 0122     		movs	r2, #1
 6489 03c4 0DF11F01 		add	r1, sp, #31
 6490 03c8 2846     		mov	r0, r5
 6491 03ca FFF7FEFF 		bl	_ZN5daisy9SpiHandle16BlockingTransmitEPhjm
 6492              	.LVL443:
 112:../../libdaisy/src/dev/oled_ssd130x.h ****     };
 6493              		.loc 5 112 30 view .LVU1605
 6494              	.LBE2211:
 6495              	.LBE2209:
 6496              	.LBB2212:
 6497              	.LBI2212:
 115:../../libdaisy/src/dev/oled_ssd130x.h ****     {
 6498              		.loc 5 115 10 is_stmt 1 view .LVU1606
 6499              	.LBB2213:
 117:../../libdaisy/src/dev/oled_ssd130x.h ****         spi_.BlockingTransmit(buff, size);
 6500              		.loc 5 117 9 view .LVU1607
 117:../../libdaisy/src/dev/oled_ssd130x.h ****         spi_.BlockingTransmit(buff, size);
 6501              		.loc 5 117 23 is_stmt 0 view .LVU1608
 6502 03ce 0121     		movs	r1, #1
 6503 03d0 3846     		mov	r0, r7
 6504 03d2 FFF7FEFF 		bl	dsy_gpio_write
 6505              	.LVL444:
 118:../../libdaisy/src/dev/oled_ssd130x.h ****     };
 6506              		.loc 5 118 9 is_stmt 1 view .LVU1609
 118:../../libdaisy/src/dev/oled_ssd130x.h ****     };
 6507              		.loc 5 118 30 is_stmt 0 view .LVU1610
 6508 03d6 8022     		movs	r2, #128
 6509 03d8 3146     		mov	r1, r6
 6510 03da 6423     		movs	r3, #100
 6511              	.LBE2213:
 6512              	.LBE2212:
 6513              		.loc 5 270 22 view .LVU1611
 6514 03dc 1644     		add	r6, r6, r2
 6515              	.LVL445:
 6516              	.LBB2215:
 6517              	.LBB2214:
 118:../../libdaisy/src/dev/oled_ssd130x.h ****     };
 6518              		.loc 5 118 30 view .LVU1612
ARM GAS  C:\Users\VINCIU~1\AppData\Local\Temp\ccdS0pnQ.s 			page 169


 6519 03de 2846     		mov	r0, r5
 6520 03e0 FFF7FEFF 		bl	_ZN5daisy9SpiHandle16BlockingTransmitEPhjm
 6521              	.LVL446:
 118:../../libdaisy/src/dev/oled_ssd130x.h ****     };
 6522              		.loc 5 118 30 view .LVU1613
 6523              	.LBE2214:
 6524              	.LBE2215:
 6525              		.loc 5 270 9 is_stmt 1 view .LVU1614
 6526              		.loc 5 270 22 view .LVU1615
 6527 03e4 4E45     		cmp	r6, r9
 6528 03e6 C6D1     		bne	.L430
 6529              	.LBE2198:
 6530              	.LBE2197:
 6531              	.LBE2196:
 808:Menus.cpp     **** }
 6532              		.loc 2 808 1 is_stmt 0 view .LVU1616
 6533 03e8 09B0     		add	sp, sp, #36
 6534              		.cfi_remember_state
 6535              		.cfi_def_cfa_offset 36
 6536              		@ sp needed
 6537 03ea BDE8F08F 		pop	{r4, r5, r6, r7, r8, r9, r10, fp, pc}
 6538              	.LVL447:
 6539              	.L515:
 6540              		.cfi_restore_state
 6541              	.LBB2216:
 6542              	.LBB2123:
 191:../../libdaisy/src/hid/disp/display.h ****         int_fast16_t error2;
 6543              		.loc 6 191 22 view .LVU1617
 6544 03ee A9F1220C 		sub	ip, r9, #34
 6545              	.LVL448:
 6546              	.LBB2121:
  41:../../libdaisy/src/hid/disp/oled_display.h ****     {
 6547              		.loc 1 41 10 is_stmt 1 view .LVU1618
 6548              	.LBB2111:
 6549              		.loc 1 43 26 is_stmt 0 view .LVU1619
 6550 03f2 04F10805 		add	r5, r4, #8
 6551              	.LVL449:
 6552              	.LBB2107:
 239:../../libdaisy/src/dev/oled_ssd130x.h ****     {
 6553              		.loc 5 239 10 is_stmt 1 view .LVU1620
 6554              	.LBE2107:
 6555              	.LBE2111:
 6556              	.LBE2121:
 189:../../libdaisy/src/hid/disp/display.h ****         int_fast16_t signY  = ((y1 < y2) ? 1 : -1);
 6557              		.loc 6 189 42 is_stmt 0 view .LVU1621
 6558 03f6 4FF0FF38 		mov	r8, #-1
 6559              	.LVL450:
 6560              	.L431:
 6561              	.LBB2122:
 6562              	.LBB2112:
 6563              	.LBB2108:
 6564              	.LBB2104:
 244:../../libdaisy/src/dev/oled_ssd130x.h ****         else
 6565              		.loc 5 244 42 view .LVU1622
 6566 03fa 01F5C073 		add	r3, r1, #384
 6567 03fe 2344     		add	r3, r3, r4
 6568 0400 1A7D     		ldrb	r2, [r3, #20]	@ zero_extendqisi2
ARM GAS  C:\Users\VINCIU~1\AppData\Local\Temp\ccdS0pnQ.s 			page 170


 6569 0402 42F00202 		orr	r2, r2, #2
 6570 0406 1A75     		strb	r2, [r3, #20]
 6571 0408 5AE6     		b	.L393
 6572              	.LVL451:
 6573              	.L398:
 244:../../libdaisy/src/dev/oled_ssd130x.h ****         else
 6574              		.loc 5 244 42 view .LVU1623
 6575              	.LBE2104:
 6576              	.LBE2108:
 6577              	.LBE2112:
 6578              	.LBE2122:
 211:../../libdaisy/src/hid/disp/display.h ****                 y1 += signY;
 6579              		.loc 6 211 23 view .LVU1624
 6580 040a CC44     		add	ip, ip, r9
 6581              	.LVL452:
 212:../../libdaisy/src/hid/disp/display.h ****             }
 6582              		.loc 6 212 20 view .LVU1625
 6583 040c 0138     		subs	r0, r0, #1
 6584              	.LVL453:
 212:../../libdaisy/src/hid/disp/display.h ****             }
 6585              		.loc 6 212 20 view .LVU1626
 6586 040e 77E6     		b	.L399
 6587              	.LVL454:
 6588              	.L420:
 212:../../libdaisy/src/hid/disp/display.h ****             }
 6589              		.loc 6 212 20 view .LVU1627
 6590              	.LBE2123:
 6591              	.LBE2216:
 6592              	.LBB2217:
 6593              	.LBB2193:
 6594              	.LBB2188:
  41:../../libdaisy/src/hid/disp/oled_display.h ****     {
 6595              		.loc 1 41 10 is_stmt 1 view .LVU1628
 6596              	.LBB2177:
 239:../../libdaisy/src/dev/oled_ssd130x.h ****     {
 6597              		.loc 5 239 10 view .LVU1629
 6598              	.LBE2177:
 6599              	.LBE2188:
 190:../../libdaisy/src/hid/disp/display.h ****         int_fast16_t error  = deltaX - deltaY;
 6600              		.loc 6 190 42 is_stmt 0 view .LVU1630
 6601 0410 0123     		movs	r3, #1
 6602              	.LBB2189:
 6603              	.LBB2178:
 6604              	.LBB2173:
 241:../../libdaisy/src/dev/oled_ssd130x.h ****             return;
 6605              		.loc 5 241 9 view .LVU1631
 6606 0412 BCF17F0F 		cmp	ip, #127
 6607              	.LBE2173:
 6608              	.LBE2178:
 6609              	.LBE2189:
 190:../../libdaisy/src/hid/disp/display.h ****         int_fast16_t error  = deltaX - deltaY;
 6610              		.loc 6 190 42 view .LVU1632
 6611 0416 0293     		str	r3, [sp, #8]
 6612              	.LBB2190:
 6613              	.LBB2179:
 6614              	.LBB2174:
 241:../../libdaisy/src/dev/oled_ssd130x.h ****             return;
ARM GAS  C:\Users\VINCIU~1\AppData\Local\Temp\ccdS0pnQ.s 			page 171


 6615              		.loc 5 241 9 view .LVU1633
 6616 0418 7FF65BAF 		bls	.L432
 241:../../libdaisy/src/dev/oled_ssd130x.h ****             return;
 6617              		.loc 5 241 9 view .LVU1634
 6618 041c 64E7     		b	.L424
 6619              	.LVL455:
 6620              	.L401:
 241:../../libdaisy/src/dev/oled_ssd130x.h ****             return;
 6621              		.loc 5 241 9 view .LVU1635
 6622              	.LBE2174:
 6623              	.LBE2179:
 6624              	.LBE2190:
 6625              	.LBE2193:
 6626              	.LBE2217:
 6627              	.LBB2218:
 6628              	.LBB2144:
 191:../../libdaisy/src/hid/disp/display.h ****         int_fast16_t error2;
 6629              		.loc 6 191 22 view .LVU1636
 6630 041e 029B     		ldr	r3, [sp, #8]
 6631              	.LVL456:
 6632              	.LBB2142:
 6633              	.LBB2133:
 6634              	.LBB2130:
 241:../../libdaisy/src/dev/oled_ssd130x.h ****             return;
 6635              		.loc 5 241 28 view .LVU1637
 6636 0420 3F2A     		cmp	r2, #63
 6637              	.LBE2130:
 6638              	.LBE2133:
 6639              	.LBE2142:
 191:../../libdaisy/src/hid/disp/display.h ****         int_fast16_t error2;
 6640              		.loc 6 191 22 view .LVU1638
 6641 0422 AEEB030C 		sub	ip, lr, r3
 6642              	.LVL457:
 6643              	.LBB2143:
  41:../../libdaisy/src/hid/disp/oled_display.h ****     {
 6644              		.loc 1 41 10 is_stmt 1 view .LVU1639
 6645              	.LBB2134:
 239:../../libdaisy/src/dev/oled_ssd130x.h ****     {
 6646              		.loc 5 239 10 view .LVU1640
 6647              	.LBB2131:
 241:../../libdaisy/src/dev/oled_ssd130x.h ****             return;
 6648              		.loc 5 241 28 is_stmt 0 view .LVU1641
 6649 0426 94BF     		ite	ls
 6650 0428 0023     		movls	r3, #0
 6651 042a 0123     		movhi	r3, #1
 241:../../libdaisy/src/dev/oled_ssd130x.h ****             return;
 6652              		.loc 5 241 9 view .LVU1642
 6653 042c 7F2E     		cmp	r6, #127
 241:../../libdaisy/src/dev/oled_ssd130x.h ****             return;
 6654              		.loc 5 241 28 view .LVU1643
 6655 042e 0593     		str	r3, [sp, #20]
 241:../../libdaisy/src/dev/oled_ssd130x.h ****             return;
 6656              		.loc 5 241 9 view .LVU1644
 6657 0430 00F28782 		bhi	.L446
 241:../../libdaisy/src/dev/oled_ssd130x.h ****             return;
 6658              		.loc 5 241 9 view .LVU1645
 6659 0434 002B     		cmp	r3, #0
ARM GAS  C:\Users\VINCIU~1\AppData\Local\Temp\ccdS0pnQ.s 			page 172


 6660 0436 40F08482 		bne	.L446
 6661              	.LBE2131:
 6662              	.LBE2134:
 6663              	.LBE2143:
 190:../../libdaisy/src/hid/disp/display.h ****         int_fast16_t error  = deltaX - deltaY;
 6664              		.loc 6 190 42 view .LVU1646
 6665 043a 0123     		movs	r3, #1
 6666 043c 0493     		str	r3, [sp, #16]
 6667 043e 94E6     		b	.L434
 6668              	.LVL458:
 6669              	.L410:
 190:../../libdaisy/src/hid/disp/display.h ****         int_fast16_t error  = deltaX - deltaY;
 6670              		.loc 6 190 42 view .LVU1647
 6671              	.LBE2144:
 6672              	.LBE2218:
 6673              	.LBB2219:
 6674              	.LBB2165:
 6675              	.LBB2162:
  41:../../libdaisy/src/hid/disp/oled_display.h ****     {
 6676              		.loc 1 41 10 is_stmt 1 view .LVU1648
 6677              	.LBB2156:
 239:../../libdaisy/src/dev/oled_ssd130x.h ****     {
 6678              		.loc 5 239 10 view .LVU1649
 6679              	.LBB2153:
 241:../../libdaisy/src/dev/oled_ssd130x.h ****             return;
 6680              		.loc 5 241 9 is_stmt 0 view .LVU1650
 6681 0440 7F29     		cmp	r1, #127
 6682              	.LBE2153:
 6683              	.LBE2156:
 6684              	.LBE2162:
 189:../../libdaisy/src/hid/disp/display.h ****         int_fast16_t signY  = ((y1 < y2) ? 1 : -1);
 6685              		.loc 6 189 42 view .LVU1651
 6686 0442 4FF00109 		mov	r9, #1
 6687              	.LBB2163:
 6688              	.LBB2157:
 6689              	.LBB2154:
 241:../../libdaisy/src/dev/oled_ssd130x.h ****             return;
 6690              		.loc 5 241 9 view .LVU1652
 6691 0446 3FF6FAAE 		bhi	.L413
 241:../../libdaisy/src/dev/oled_ssd130x.h ****             return;
 6692              		.loc 5 241 9 view .LVU1653
 6693 044a 059B     		ldr	r3, [sp, #20]
 6694 044c 002B     		cmp	r3, #0
 6695 044e 3FF4E6AE 		beq	.L433
 6696 0452 F4E6     		b	.L413
 6697              	.LVL459:
 6698              	.L512:
 241:../../libdaisy/src/dev/oled_ssd130x.h ****             return;
 6699              		.loc 5 241 9 view .LVU1654
 6700              	.LBE2154:
 6701              	.LBE2157:
 6702              	.LBE2163:
 6703              	.LBE2165:
 6704              	.LBE2219:
 678:Menus.cpp     ****         this->menuStateEnv = this->menuStateEnv + 1;
 6705              		.loc 2 678 9 is_stmt 1 view .LVU1655
 678:Menus.cpp     ****         this->menuStateEnv = this->menuStateEnv + 1;
ARM GAS  C:\Users\VINCIU~1\AppData\Local\Temp\ccdS0pnQ.s 			page 173


 6706              		.loc 2 678 49 is_stmt 0 view .LVU1656
 6707 0454 0133     		adds	r3, r3, #1
 679:Menus.cpp     ****         if(this->menuStateEnv > 3)
 6708              		.loc 2 679 9 view .LVU1657
 6709 0456 032B     		cmp	r3, #3
 678:Menus.cpp     ****         this->menuStateEnv = this->menuStateEnv + 1;
 6710              		.loc 2 678 28 view .LVU1658
 6711 0458 C7F8AC31 		str	r3, [r7, #428]
 679:Menus.cpp     ****         if(this->menuStateEnv > 3)
 6712              		.loc 2 679 9 is_stmt 1 view .LVU1659
 6713 045c 7FF7E9AD 		ble	.L336
 6714              	.L337:
 681:Menus.cpp     ****             this->menuStateEnv = 0;
 6715              		.loc 2 681 13 view .LVU1660
 681:Menus.cpp     ****             this->menuStateEnv = 0;
 6716              		.loc 2 681 32 is_stmt 0 view .LVU1661
 6717 0460 0023     		movs	r3, #0
 6718 0462 C7F8AC31 		str	r3, [r7, #428]
 684:Menus.cpp     ****     if(menuStateEnv == 0)
 6719              		.loc 2 684 5 is_stmt 1 view .LVU1662
 6720              	.L335:
 686:Menus.cpp     ****         this->attackTime += this->encoderRight.Increment() * 3.3;
 6721              		.loc 2 686 9 view .LVU1663
 6722              	.LVL460:
 6723              	.LBB2220:
 6724              	.LBI2220:
 6725              		.loc 3 41 20 view .LVU1664
 6726              	.LBB2221:
 6727              		.loc 3 41 40 view .LVU1665
 6728              		.loc 3 41 40 is_stmt 0 view .LVU1666
 6729              	.LBE2221:
 6730              	.LBE2220:
 686:Menus.cpp     ****         this->attackTime += this->encoderRight.Increment() * 3.3;
 6731              		.loc 2 686 26 view .LVU1667
 6732 0466 97ED667A 		vldr.32	s14, [r7, #408]
 687:Menus.cpp     ****         env.SetTime(daisysp::ADSR_SEG_ATTACK, this->attackTime / 100);
 6733              		.loc 2 687 20 view .LVU1668
 6734 046a 0121     		movs	r1, #1
 686:Menus.cpp     ****         this->attackTime += this->encoderRight.Increment() * 3.3;
 6735              		.loc 2 686 60 view .LVU1669
 6736 046c D7ED127A 		vldr.32	s15, [r7, #72]	@ int
 687:Menus.cpp     ****         env.SetTime(daisysp::ADSR_SEG_ATTACK, this->attackTime / 100);
 6737              		.loc 2 687 20 view .LVU1670
 6738 0470 2846     		mov	r0, r5
 6739 0472 1FED440A 		vldr.32	s0, .L521+44
 686:Menus.cpp     ****         this->attackTime += this->encoderRight.Increment() * 3.3;
 6740              		.loc 2 686 60 view .LVU1671
 6741 0476 B8EEE76B 		vcvt.f64.s32	d6, s15
 686:Menus.cpp     ****         this->attackTime += this->encoderRight.Increment() * 3.3;
 6742              		.loc 2 686 26 view .LVU1672
 6743 047a B7EEC77A 		vcvt.f64.f32	d7, s14
 6744 047e 9FEDD85B 		vldr.64	d5, .L524
 6745 0482 A6EE057B 		vfma.f64	d7, d6, d5
 6746 0486 B7EEC77B 		vcvt.f32.f64	s14, d7
 687:Menus.cpp     ****         env.SetTime(daisysp::ADSR_SEG_ATTACK, this->attackTime / 100);
 6747              		.loc 2 687 20 view .LVU1673
 6748 048a 87EE000A 		vdiv.f32	s0, s14, s0
ARM GAS  C:\Users\VINCIU~1\AppData\Local\Temp\ccdS0pnQ.s 			page 174


 686:Menus.cpp     ****         this->attackTime += this->encoderRight.Increment() * 3.3;
 6749              		.loc 2 686 26 view .LVU1674
 6750 048e 87ED667A 		vstr.32	s14, [r7, #408]
 687:Menus.cpp     ****         env.SetTime(daisysp::ADSR_SEG_ATTACK, this->attackTime / 100);
 6751              		.loc 2 687 9 is_stmt 1 view .LVU1675
 687:Menus.cpp     ****         env.SetTime(daisysp::ADSR_SEG_ATTACK, this->attackTime / 100);
 6752              		.loc 2 687 20 is_stmt 0 view .LVU1676
 6753 0492 FFF7FEFF 		bl	_ZN7daisysp4Adsr7SetTimeEif
 6754              	.LVL461:
 688:Menus.cpp     ****         this->attackTimeScaleDraw += this->encoderRight.Increment();
 6755              		.loc 2 688 9 is_stmt 1 view .LVU1677
 6756              	.LBB2222:
 6757              	.LBI2222:
 6758              		.loc 3 41 20 view .LVU1678
 6759              	.LBB2223:
 6760              		.loc 3 41 40 view .LVU1679
 6761              		.loc 3 41 40 is_stmt 0 view .LVU1680
 6762              	.LBE2223:
 6763              	.LBE2222:
 688:Menus.cpp     ****         this->attackTimeScaleDraw += this->encoderRight.Increment();
 6764              		.loc 2 688 35 view .LVU1681
 6765 0496 D7ED127A 		vldr.32	s15, [r7, #72]	@ int
 6766 049a D7ED696A 		vldr.32	s13, [r7, #420]
 689:Menus.cpp     ****         if(attackTimeScaleDraw >= screen.Width() / 4)
 6767              		.loc 2 689 9 view .LVU1682
 6768 049e 9FEDD27A 		vldr.32	s14, .L524+8
 688:Menus.cpp     ****         this->attackTimeScaleDraw += this->encoderRight.Increment();
 6769              		.loc 2 688 35 view .LVU1683
 6770 04a2 F8EEE77A 		vcvt.f32.s32	s15, s15
 6771 04a6 77EEA67A 		vadd.f32	s15, s15, s13
 689:Menus.cpp     ****         if(attackTimeScaleDraw >= screen.Width() / 4)
 6772              		.loc 2 689 9 is_stmt 1 view .LVU1684
 6773 04aa F4EEC77A 		vcmpe.f32	s15, s14
 6774 04ae F1EE10FA 		vmrs	APSR_nzcv, FPSCR
 6775 04b2 80F23D82 		bge	.L517
 693:Menus.cpp     ****         if(attackTimeScaleDraw <= 0)
 6776              		.loc 2 693 9 view .LVU1685
 6777 04b6 F5EEC07A 		vcmpe.f32	s15, #0
 6778 04ba 0023     		movs	r3, #0
 6779 04bc F1EE10FA 		vmrs	APSR_nzcv, FPSCR
 688:Menus.cpp     ****         this->attackTimeScaleDraw += this->encoderRight.Increment();
 6780              		.loc 2 688 35 is_stmt 0 view .LVU1686
 6781 04c0 8CBF     		ite	hi
 6782 04c2 C7ED697A 		vstrhi.32	s15, [r7, #420]
 695:Menus.cpp     ****             attackTimeScaleDraw = 0;
 6783              		.loc 2 695 13 is_stmt 1 view .LVU1687
 695:Menus.cpp     ****             attackTimeScaleDraw = 0;
 6784              		.loc 2 695 33 is_stmt 0 view .LVU1688
 6785 04c6 C7F8A431 		strls	r3, [r7, #420]	@ float
 6786              	.L341:
 697:Menus.cpp     ****         if(attackTime >= 100)
 6787              		.loc 2 697 9 is_stmt 1 view .LVU1689
 697:Menus.cpp     ****         if(attackTime >= 100)
 6788              		.loc 2 697 12 is_stmt 0 view .LVU1690
 6789 04ca D7ED667A 		vldr.32	s15, [r7, #408]
 697:Menus.cpp     ****         if(attackTime >= 100)
 6790              		.loc 2 697 9 view .LVU1691
ARM GAS  C:\Users\VINCIU~1\AppData\Local\Temp\ccdS0pnQ.s 			page 175


 6791 04ce 9FEDC77A 		vldr.32	s14, .L524+12
 6792 04d2 F4EEC77A 		vcmpe.f32	s15, s14
 6793 04d6 F1EE10FA 		vmrs	APSR_nzcv, FPSCR
 6794 04da C0F23E82 		blt	.L501
 699:Menus.cpp     ****             attackTime = 100;
 6795              		.loc 2 699 13 is_stmt 1 view .LVU1692
 699:Menus.cpp     ****             attackTime = 100;
 6796              		.loc 2 699 24 is_stmt 0 view .LVU1693
 6797 04de 87ED667A 		vstr.32	s14, [r7, #408]
 701:Menus.cpp     ****         if(attackTime <= 0)
 6798              		.loc 2 701 9 is_stmt 1 view .LVU1694
 6799              	.L345:
 705:Menus.cpp     ****         screen.DrawRect(28, 0, 40, 13, true, false);
 6800              		.loc 2 705 9 view .LVU1695
 6801              	.LVL462:
 6802              	.LBB2224:
 6803              	.LBI2224:
 217:../../libdaisy/src/hid/disp/display.h ****                   uint_fast8_t y1,
 6804              		.loc 6 217 10 view .LVU1696
 6805              	.LBB2225:
 6806              	.LBI2225:
 181:../../libdaisy/src/hid/disp/display.h ****                   uint_fast8_t y1,
 6807              		.loc 6 181 10 view .LVU1697
 6808              	.LBB2226:
 6809              	.LBB2227:
 6810              	.LBI2227:
  41:../../libdaisy/src/hid/disp/oled_display.h ****     {
 6811              		.loc 1 41 10 view .LVU1698
 6812              	.LBB2228:
 6813              	.LBI2228:
 239:../../libdaisy/src/dev/oled_ssd130x.h ****     {
 6814              		.loc 5 239 10 view .LVU1699
 6815              	.LBB2229:
 244:../../libdaisy/src/dev/oled_ssd130x.h ****         else
 6816              		.loc 5 244 42 is_stmt 0 view .LVU1700
 6817 04e2 94F83C20 		ldrb	r2, [r4, #60]	@ zero_extendqisi2
 6818 04e6 04F12F03 		add	r3, r4, #47
 6819 04ea 04F13B01 		add	r1, r4, #59
 6820 04ee 42F00102 		orr	r2, r2, #1
 6821 04f2 84F83C20 		strb	r2, [r4, #60]
 6822              	.LVL463:
 244:../../libdaisy/src/dev/oled_ssd130x.h ****         else
 6823              		.loc 5 244 42 view .LVU1701
 6824              	.LBE2229:
 6825              	.LBE2228:
 6826              	.LBE2227:
 199:../../libdaisy/src/hid/disp/display.h ****         {
 6827              		.loc 6 199 26 is_stmt 1 view .LVU1702
 6828              	.L347:
 6829              	.LBB2230:
 6830              	.LBI2230:
  41:../../libdaisy/src/hid/disp/oled_display.h ****     {
 6831              		.loc 1 41 10 view .LVU1703
 6832              	.LBB2231:
 6833              	.LBI2231:
 239:../../libdaisy/src/dev/oled_ssd130x.h ****     {
 6834              		.loc 5 239 10 view .LVU1704
ARM GAS  C:\Users\VINCIU~1\AppData\Local\Temp\ccdS0pnQ.s 			page 176


 6835              	.LBB2232:
 244:../../libdaisy/src/dev/oled_ssd130x.h ****         else
 6836              		.loc 5 244 42 is_stmt 0 view .LVU1705
 6837 04f6 13F8012F 		ldrb	r2, [r3, #1]!	@ zero_extendqisi2
 6838              	.LVL464:
 244:../../libdaisy/src/dev/oled_ssd130x.h ****         else
 6839              		.loc 5 244 42 view .LVU1706
 6840 04fa 42F00102 		orr	r2, r2, #1
 6841              	.LBE2232:
 6842              	.LBE2231:
 6843              	.LBE2230:
 199:../../libdaisy/src/hid/disp/display.h ****         {
 6844              		.loc 6 199 26 view .LVU1707
 6845 04fe 9942     		cmp	r1, r3
 6846              	.LBB2235:
 6847              	.LBB2234:
 6848              	.LBB2233:
 244:../../libdaisy/src/dev/oled_ssd130x.h ****         else
 6849              		.loc 5 244 42 view .LVU1708
 6850 0500 1A70     		strb	r2, [r3]
 6851              	.LVL465:
 244:../../libdaisy/src/dev/oled_ssd130x.h ****         else
 6852              		.loc 5 244 42 view .LVU1709
 6853              	.LBE2233:
 6854              	.LBE2234:
 6855              	.LBE2235:
 199:../../libdaisy/src/hid/disp/display.h ****         {
 6856              		.loc 6 199 26 is_stmt 1 view .LVU1710
 6857 0502 F8D1     		bne	.L347
 6858              	.LVL466:
 199:../../libdaisy/src/hid/disp/display.h ****         {
 6859              		.loc 6 199 26 is_stmt 0 view .LVU1711
 6860              	.LBE2226:
 6861              	.LBE2225:
 6862              	.LBB2236:
 6863              	.LBI2236:
 181:../../libdaisy/src/hid/disp/display.h ****                   uint_fast8_t y1,
 6864              		.loc 6 181 10 is_stmt 1 view .LVU1712
 6865              	.LBB2237:
 6866              	.LBB2238:
 6867              	.LBI2238:
  41:../../libdaisy/src/hid/disp/oled_display.h ****     {
 6868              		.loc 1 41 10 view .LVU1713
 6869              	.LBB2239:
 6870              	.LBI2239:
 239:../../libdaisy/src/dev/oled_ssd130x.h ****     {
 6871              		.loc 5 239 10 view .LVU1714
 6872              	.LBB2240:
 244:../../libdaisy/src/dev/oled_ssd130x.h ****         else
 6873              		.loc 5 244 42 is_stmt 0 view .LVU1715
 6874 0504 94F8BC30 		ldrb	r3, [r4, #188]	@ zero_extendqisi2
 6875 0508 0022     		movs	r2, #0
 6876 050a 43F02003 		orr	r3, r3, #32
 6877 050e 84F8BC30 		strb	r3, [r4, #188]
 6878              	.LVL467:
 244:../../libdaisy/src/dev/oled_ssd130x.h ****         else
 6879              		.loc 5 244 42 view .LVU1716
ARM GAS  C:\Users\VINCIU~1\AppData\Local\Temp\ccdS0pnQ.s 			page 177


 6880              	.LBE2240:
 6881              	.LBE2239:
 6882              	.LBE2238:
 199:../../libdaisy/src/hid/disp/display.h ****         {
 6883              		.loc 6 199 26 is_stmt 1 view .LVU1717
 6884              	.L348:
 6885              	.LBB2241:
 6886              	.LBI2241:
  41:../../libdaisy/src/hid/disp/oled_display.h ****     {
 6887              		.loc 1 41 10 view .LVU1718
 6888              	.LBB2242:
 6889              	.LBI2242:
 239:../../libdaisy/src/dev/oled_ssd130x.h ****     {
 6890              		.loc 5 239 10 view .LVU1719
 6891              	.LBB2243:
 244:../../libdaisy/src/dev/oled_ssd130x.h ****         else
 6892              		.loc 5 244 28 is_stmt 0 view .LVU1720
 6893 0512 D108     		lsrs	r1, r2, #3
 244:../../libdaisy/src/dev/oled_ssd130x.h ****         else
 6894              		.loc 5 244 54 view .LVU1721
 6895 0514 02F00700 		and	r0, r2, #7
 244:../../libdaisy/src/dev/oled_ssd130x.h ****         else
 6896              		.loc 5 244 48 view .LVU1722
 6897 0518 0123     		movs	r3, #1
 244:../../libdaisy/src/dev/oled_ssd130x.h ****         else
 6898              		.loc 5 244 42 view .LVU1723
 6899 051a 04EBC111 		add	r1, r4, r1, lsl #7
 6900              	.LBE2243:
 6901              	.LBE2242:
 6902              	.LBE2241:
 212:../../libdaisy/src/hid/disp/display.h ****             }
 6903              		.loc 6 212 20 view .LVU1724
 6904 051e 1A44     		add	r2, r2, r3
 6905              	.LVL468:
 6906              	.LBB2248:
 6907              	.LBB2246:
 6908              	.LBB2244:
 244:../../libdaisy/src/dev/oled_ssd130x.h ****         else
 6909              		.loc 5 244 48 view .LVU1725
 6910 0520 8340     		lsls	r3, r3, r0
 244:../../libdaisy/src/dev/oled_ssd130x.h ****         else
 6911              		.loc 5 244 42 view .LVU1726
 6912 0522 91F83C00 		ldrb	r0, [r1, #60]	@ zero_extendqisi2
 6913              	.LBE2244:
 6914              	.LBE2246:
 6915              	.LBE2248:
 199:../../libdaisy/src/hid/disp/display.h ****         {
 6916              		.loc 6 199 26 view .LVU1727
 6917 0526 0D2A     		cmp	r2, #13
 6918              	.LBB2249:
 6919              	.LBB2247:
 6920              	.LBB2245:
 244:../../libdaisy/src/dev/oled_ssd130x.h ****         else
 6921              		.loc 5 244 42 view .LVU1728
 6922 0528 43EA0003 		orr	r3, r3, r0
 6923 052c 81F83C30 		strb	r3, [r1, #60]
 6924              	.LVL469:
ARM GAS  C:\Users\VINCIU~1\AppData\Local\Temp\ccdS0pnQ.s 			page 178


 244:../../libdaisy/src/dev/oled_ssd130x.h ****         else
 6925              		.loc 5 244 42 view .LVU1729
 6926              	.LBE2245:
 6927              	.LBE2247:
 6928              	.LBE2249:
 199:../../libdaisy/src/hid/disp/display.h ****         {
 6929              		.loc 6 199 26 is_stmt 1 view .LVU1730
 6930 0530 EFD1     		bne	.L348
 6931              	.LVL470:
 199:../../libdaisy/src/hid/disp/display.h ****         {
 6932              		.loc 6 199 26 is_stmt 0 view .LVU1731
 6933              	.LBE2237:
 6934              	.LBE2236:
 6935              	.LBB2250:
 6936              	.LBI2250:
 181:../../libdaisy/src/hid/disp/display.h ****                   uint_fast8_t y1,
 6937              		.loc 6 181 10 is_stmt 1 view .LVU1732
 6938              	.LBB2251:
 6939              	.LBB2252:
 6940              	.LBI2252:
  41:../../libdaisy/src/hid/disp/oled_display.h ****     {
 6941              		.loc 1 41 10 view .LVU1733
 6942              	.LBB2253:
 6943              	.LBI2253:
 239:../../libdaisy/src/dev/oled_ssd130x.h ****     {
 6944              		.loc 5 239 10 view .LVU1734
 6945              	.LBB2254:
 244:../../libdaisy/src/dev/oled_ssd130x.h ****         else
 6946              		.loc 5 244 42 is_stmt 0 view .LVU1735
 6947 0532 94F8B030 		ldrb	r3, [r4, #176]	@ zero_extendqisi2
 6948 0536 04F1B100 		add	r0, r4, #177
 6949 053a 43F02003 		orr	r3, r3, #32
 6950 053e 84F8B030 		strb	r3, [r4, #176]
 6951              	.LVL471:
 244:../../libdaisy/src/dev/oled_ssd130x.h ****         else
 6952              		.loc 5 244 42 view .LVU1736
 6953              	.LBE2254:
 6954              	.LBE2253:
 6955              	.LBE2252:
 199:../../libdaisy/src/hid/disp/display.h ****         {
 6956              		.loc 6 199 26 is_stmt 1 view .LVU1737
 6957 0542 04F1BD03 		add	r3, r4, #189
 6958              	.LVL472:
 6959              	.L349:
 6960              	.LBB2255:
 6961              	.LBI2255:
  41:../../libdaisy/src/hid/disp/oled_display.h ****     {
 6962              		.loc 1 41 10 view .LVU1738
 6963              	.LBB2256:
 6964              	.LBI2256:
 239:../../libdaisy/src/dev/oled_ssd130x.h ****     {
 6965              		.loc 5 239 10 view .LVU1739
 6966              	.LBB2257:
 244:../../libdaisy/src/dev/oled_ssd130x.h ****         else
 6967              		.loc 5 244 42 is_stmt 0 view .LVU1740
 6968 0546 13F8011D 		ldrb	r1, [r3, #-1]!	@ zero_extendqisi2
 6969              	.LVL473:
ARM GAS  C:\Users\VINCIU~1\AppData\Local\Temp\ccdS0pnQ.s 			page 179


 244:../../libdaisy/src/dev/oled_ssd130x.h ****         else
 6970              		.loc 5 244 42 view .LVU1741
 6971 054a 41F02001 		orr	r1, r1, #32
 6972              	.LBE2257:
 6973              	.LBE2256:
 6974              	.LBE2255:
 199:../../libdaisy/src/hid/disp/display.h ****         {
 6975              		.loc 6 199 26 view .LVU1742
 6976 054e 9842     		cmp	r0, r3
 6977              	.LBB2260:
 6978              	.LBB2259:
 6979              	.LBB2258:
 244:../../libdaisy/src/dev/oled_ssd130x.h ****         else
 6980              		.loc 5 244 42 view .LVU1743
 6981 0550 1970     		strb	r1, [r3]
 6982              	.LVL474:
 244:../../libdaisy/src/dev/oled_ssd130x.h ****         else
 6983              		.loc 5 244 42 view .LVU1744
 6984              	.LBE2258:
 6985              	.LBE2259:
 6986              	.LBE2260:
 199:../../libdaisy/src/hid/disp/display.h ****         {
 6987              		.loc 6 199 26 is_stmt 1 view .LVU1745
 6988 0552 F8D1     		bne	.L349
 6989              	.LVL475:
 199:../../libdaisy/src/hid/disp/display.h ****         {
 6990              		.loc 6 199 26 is_stmt 0 view .LVU1746
 6991              	.LBE2251:
 6992              	.LBE2250:
 6993              	.LBB2261:
 6994              	.LBI2261:
 181:../../libdaisy/src/hid/disp/display.h ****                   uint_fast8_t y1,
 6995              		.loc 6 181 10 is_stmt 1 view .LVU1747
 6996              	.LBB2262:
 6997              	.LBB2263:
 6998              	.LBI2263:
  41:../../libdaisy/src/hid/disp/oled_display.h ****     {
 6999              		.loc 1 41 10 view .LVU1748
 7000              	.LBB2264:
 7001              	.LBI2264:
 239:../../libdaisy/src/dev/oled_ssd130x.h ****     {
 7002              		.loc 5 239 10 view .LVU1749
 7003              	.LBB2265:
 244:../../libdaisy/src/dev/oled_ssd130x.h ****         else
 7004              		.loc 5 244 42 is_stmt 0 view .LVU1750
 7005 0554 94F83030 		ldrb	r3, [r4, #48]	@ zero_extendqisi2
 7006 0558 43F00103 		orr	r3, r3, #1
 7007 055c 84F83030 		strb	r3, [r4, #48]
 7008              	.LVL476:
 244:../../libdaisy/src/dev/oled_ssd130x.h ****         else
 7009              		.loc 5 244 42 view .LVU1751
 7010              	.LBE2265:
 7011              	.LBE2264:
 7012              	.LBE2263:
 199:../../libdaisy/src/hid/disp/display.h ****         {
 7013              		.loc 6 199 26 is_stmt 1 view .LVU1752
 7014              	.L350:
ARM GAS  C:\Users\VINCIU~1\AppData\Local\Temp\ccdS0pnQ.s 			page 180


 7015              	.LBB2266:
 7016              	.LBI2266:
  41:../../libdaisy/src/hid/disp/oled_display.h ****     {
 7017              		.loc 1 41 10 view .LVU1753
 7018              	.LBB2267:
 7019              	.LBI2267:
 239:../../libdaisy/src/dev/oled_ssd130x.h ****     {
 7020              		.loc 5 239 10 view .LVU1754
 7021              	.LBB2268:
 244:../../libdaisy/src/dev/oled_ssd130x.h ****         else
 7022              		.loc 5 244 28 is_stmt 0 view .LVU1755
 7023 0560 D108     		lsrs	r1, r2, #3
 244:../../libdaisy/src/dev/oled_ssd130x.h ****         else
 7024              		.loc 5 244 54 view .LVU1756
 7025 0562 02F00700 		and	r0, r2, #7
 244:../../libdaisy/src/dev/oled_ssd130x.h ****         else
 7026              		.loc 5 244 48 view .LVU1757
 7027 0566 0123     		movs	r3, #1
 7028              	.LBE2268:
 7029              	.LBE2267:
 7030              	.LBE2266:
 199:../../libdaisy/src/hid/disp/display.h ****         {
 7031              		.loc 6 199 26 view .LVU1758
 7032 0568 013A     		subs	r2, r2, #1
 7033              	.LVL477:
 7034              	.LBB2271:
 7035              	.LBB2270:
 7036              	.LBB2269:
 244:../../libdaisy/src/dev/oled_ssd130x.h ****         else
 7037              		.loc 5 244 42 view .LVU1759
 7038 056a 04EBC111 		add	r1, r4, r1, lsl #7
 244:../../libdaisy/src/dev/oled_ssd130x.h ****         else
 7039              		.loc 5 244 48 view .LVU1760
 7040 056e 03FA00F3 		lsl	r3, r3, r0
 244:../../libdaisy/src/dev/oled_ssd130x.h ****         else
 7041              		.loc 5 244 42 view .LVU1761
 7042 0572 91F83000 		ldrb	r0, [r1, #48]	@ zero_extendqisi2
 7043 0576 43EA0003 		orr	r3, r3, r0
 7044 057a 81F83030 		strb	r3, [r1, #48]
 7045              	.LVL478:
 244:../../libdaisy/src/dev/oled_ssd130x.h ****         else
 7046              		.loc 5 244 42 view .LVU1762
 7047              	.LBE2269:
 7048              	.LBE2270:
 7049              	.LBE2271:
 199:../../libdaisy/src/hid/disp/display.h ****         {
 7050              		.loc 6 199 26 is_stmt 1 view .LVU1763
 7051 057e EFD1     		bne	.L350
 7052              	.LBE2262:
 7053              	.LBE2261:
 7054              	.LBE2224:
 707:Menus.cpp     ****     if(menuStateEnv == 1)
 7055              		.loc 2 707 8 is_stmt 0 view .LVU1764
 7056 0580 D7F8AC31 		ldr	r3, [r7, #428]
 7057              	.LVL479:
 707:Menus.cpp     ****     if(menuStateEnv == 1)
 7058              		.loc 2 707 5 is_stmt 1 view .LVU1765
ARM GAS  C:\Users\VINCIU~1\AppData\Local\Temp\ccdS0pnQ.s 			page 181


 7059 0584 012B     		cmp	r3, #1
 7060 0586 7FF45AAD 		bne	.L351
 7061              	.LVL480:
 7062              	.L513:
 709:Menus.cpp     ****         this->decayTime += this->encoderRight.Increment() * 3.3;
 7063              		.loc 2 709 9 view .LVU1766
 7064              	.LBB2272:
 7065              	.LBI2272:
 7066              		.loc 3 41 20 view .LVU1767
 7067              	.LBB2273:
 7068              		.loc 3 41 40 view .LVU1768
 7069              		.loc 3 41 40 is_stmt 0 view .LVU1769
 7070              	.LBE2273:
 7071              	.LBE2272:
 709:Menus.cpp     ****         this->decayTime += this->encoderRight.Increment() * 3.3;
 7072              		.loc 2 709 25 view .LVU1770
 7073 058a 97ED6D7A 		vldr.32	s14, [r7, #436]
 710:Menus.cpp     ****         env.SetTime(daisysp::ADSR_SEG_DECAY, this->decayTime / 100);
 7074              		.loc 2 710 20 view .LVU1771
 7075 058e 0221     		movs	r1, #2
 709:Menus.cpp     ****         this->decayTime += this->encoderRight.Increment() * 3.3;
 7076              		.loc 2 709 59 view .LVU1772
 7077 0590 D7ED127A 		vldr.32	s15, [r7, #72]	@ int
 710:Menus.cpp     ****         env.SetTime(daisysp::ADSR_SEG_DECAY, this->decayTime / 100);
 7078              		.loc 2 710 20 view .LVU1773
 7079 0594 2846     		mov	r0, r5
 7080 0596 9FED950A 		vldr.32	s0, .L524+12
 709:Menus.cpp     ****         this->decayTime += this->encoderRight.Increment() * 3.3;
 7081              		.loc 2 709 59 view .LVU1774
 7082 059a B8EEE76B 		vcvt.f64.s32	d6, s15
 709:Menus.cpp     ****         this->decayTime += this->encoderRight.Increment() * 3.3;
 7083              		.loc 2 709 25 view .LVU1775
 7084 059e B7EEC77A 		vcvt.f64.f32	d7, s14
 7085 05a2 9FED8F5B 		vldr.64	d5, .L524
 7086 05a6 A6EE057B 		vfma.f64	d7, d6, d5
 7087 05aa B7EEC77B 		vcvt.f32.f64	s14, d7
 710:Menus.cpp     ****         env.SetTime(daisysp::ADSR_SEG_DECAY, this->decayTime / 100);
 7088              		.loc 2 710 20 view .LVU1776
 7089 05ae 87EE000A 		vdiv.f32	s0, s14, s0
 709:Menus.cpp     ****         this->decayTime += this->encoderRight.Increment() * 3.3;
 7090              		.loc 2 709 25 view .LVU1777
 7091 05b2 87ED6D7A 		vstr.32	s14, [r7, #436]
 710:Menus.cpp     ****         env.SetTime(daisysp::ADSR_SEG_DECAY, this->decayTime / 100);
 7092              		.loc 2 710 9 is_stmt 1 view .LVU1778
 710:Menus.cpp     ****         env.SetTime(daisysp::ADSR_SEG_DECAY, this->decayTime / 100);
 7093              		.loc 2 710 20 is_stmt 0 view .LVU1779
 7094 05b6 FFF7FEFF 		bl	_ZN7daisysp4Adsr7SetTimeEif
 7095              	.LVL481:
 711:Menus.cpp     ****         this->decayTimeScaleDraw += this->encoderRight.Increment();
 7096              		.loc 2 711 9 is_stmt 1 view .LVU1780
 7097              	.LBB2274:
 7098              	.LBI2274:
 7099              		.loc 3 41 20 view .LVU1781
 7100              	.LBB2275:
 7101              		.loc 3 41 40 view .LVU1782
 7102              		.loc 3 41 40 is_stmt 0 view .LVU1783
 7103              	.LBE2275:
ARM GAS  C:\Users\VINCIU~1\AppData\Local\Temp\ccdS0pnQ.s 			page 182


 7104              	.LBE2274:
 711:Menus.cpp     ****         this->decayTimeScaleDraw += this->encoderRight.Increment();
 7105              		.loc 2 711 34 view .LVU1784
 7106 05ba D7ED127A 		vldr.32	s15, [r7, #72]	@ int
 7107 05be D7ED6E6A 		vldr.32	s13, [r7, #440]
 712:Menus.cpp     ****         if(decayTimeScaleDraw >= screen.Width() / 4)
 7108              		.loc 2 712 9 view .LVU1785
 7109 05c2 9FED897A 		vldr.32	s14, .L524+8
 711:Menus.cpp     ****         this->decayTimeScaleDraw += this->encoderRight.Increment();
 7110              		.loc 2 711 34 view .LVU1786
 7111 05c6 F8EEE77A 		vcvt.f32.s32	s15, s15
 7112 05ca 77EEA67A 		vadd.f32	s15, s15, s13
 712:Menus.cpp     ****         if(decayTimeScaleDraw >= screen.Width() / 4)
 7113              		.loc 2 712 9 is_stmt 1 view .LVU1787
 7114 05ce F4EEC77A 		vcmpe.f32	s15, s14
 7115 05d2 F1EE10FA 		vmrs	APSR_nzcv, FPSCR
 7116 05d6 80F2AE81 		bge	.L518
 716:Menus.cpp     ****         if(decayTimeScaleDraw <= 0)
 7117              		.loc 2 716 9 view .LVU1788
 7118 05da F5EEC07A 		vcmpe.f32	s15, #0
 7119 05de 0023     		movs	r3, #0
 7120 05e0 F1EE10FA 		vmrs	APSR_nzcv, FPSCR
 711:Menus.cpp     ****         this->decayTimeScaleDraw += this->encoderRight.Increment();
 7121              		.loc 2 711 34 is_stmt 0 view .LVU1789
 7122 05e4 8CBF     		ite	hi
 7123 05e6 C7ED6E7A 		vstrhi.32	s15, [r7, #440]
 718:Menus.cpp     ****             decayTimeScaleDraw = 0;
 7124              		.loc 2 718 13 is_stmt 1 view .LVU1790
 718:Menus.cpp     ****             decayTimeScaleDraw = 0;
 7125              		.loc 2 718 32 is_stmt 0 view .LVU1791
 7126 05ea C7F8B831 		strls	r3, [r7, #440]	@ float
 7127              	.L354:
 720:Menus.cpp     ****         if(decayTime >= 100)
 7128              		.loc 2 720 9 is_stmt 1 view .LVU1792
 720:Menus.cpp     ****         if(decayTime >= 100)
 7129              		.loc 2 720 12 is_stmt 0 view .LVU1793
 7130 05ee D7ED6D7A 		vldr.32	s15, [r7, #436]
 720:Menus.cpp     ****         if(decayTime >= 100)
 7131              		.loc 2 720 9 view .LVU1794
 7132 05f2 9FED7E7A 		vldr.32	s14, .L524+12
 7133 05f6 F4EEC77A 		vcmpe.f32	s15, s14
 7134 05fa F1EE10FA 		vmrs	APSR_nzcv, FPSCR
 7135 05fe C0F2C481 		blt	.L503
 722:Menus.cpp     ****             decayTime = 100;
 7136              		.loc 2 722 13 is_stmt 1 view .LVU1795
 722:Menus.cpp     ****             decayTime = 100;
 7137              		.loc 2 722 23 is_stmt 0 view .LVU1796
 7138 0602 87ED6D7A 		vstr.32	s14, [r7, #436]
 724:Menus.cpp     ****         if(decayTime <= 0)
 7139              		.loc 2 724 9 is_stmt 1 view .LVU1797
 7140              	.L358:
 728:Menus.cpp     ****         screen.DrawRect(44, 0, 56, 13, true, false);
 7141              		.loc 2 728 9 view .LVU1798
 7142              	.LVL482:
 7143              	.LBB2276:
 7144              	.LBI2276:
 217:../../libdaisy/src/hid/disp/display.h ****                   uint_fast8_t y1,
ARM GAS  C:\Users\VINCIU~1\AppData\Local\Temp\ccdS0pnQ.s 			page 183


 7145              		.loc 6 217 10 view .LVU1799
 7146              	.LBB2277:
 7147              	.LBI2277:
 181:../../libdaisy/src/hid/disp/display.h ****                   uint_fast8_t y1,
 7148              		.loc 6 181 10 view .LVU1800
 7149              	.LBB2278:
 7150              	.LBB2279:
 7151              	.LBI2279:
  41:../../libdaisy/src/hid/disp/oled_display.h ****     {
 7152              		.loc 1 41 10 view .LVU1801
 7153              	.LBB2280:
 7154              	.LBI2280:
 239:../../libdaisy/src/dev/oled_ssd130x.h ****     {
 7155              		.loc 5 239 10 view .LVU1802
 7156              	.LBB2281:
 244:../../libdaisy/src/dev/oled_ssd130x.h ****         else
 7157              		.loc 5 244 42 is_stmt 0 view .LVU1803
 7158 0606 94F84C20 		ldrb	r2, [r4, #76]	@ zero_extendqisi2
 7159 060a 04F13F03 		add	r3, r4, #63
 7160 060e 04F14B01 		add	r1, r4, #75
 7161 0612 42F00102 		orr	r2, r2, #1
 7162 0616 84F84C20 		strb	r2, [r4, #76]
 7163              	.LVL483:
 244:../../libdaisy/src/dev/oled_ssd130x.h ****         else
 7164              		.loc 5 244 42 view .LVU1804
 7165              	.LBE2281:
 7166              	.LBE2280:
 7167              	.LBE2279:
 199:../../libdaisy/src/hid/disp/display.h ****         {
 7168              		.loc 6 199 26 is_stmt 1 view .LVU1805
 7169              	.L360:
 7170              	.LBB2282:
 7171              	.LBI2282:
  41:../../libdaisy/src/hid/disp/oled_display.h ****     {
 7172              		.loc 1 41 10 view .LVU1806
 7173              	.LBB2283:
 7174              	.LBI2283:
 239:../../libdaisy/src/dev/oled_ssd130x.h ****     {
 7175              		.loc 5 239 10 view .LVU1807
 7176              	.LBB2284:
 244:../../libdaisy/src/dev/oled_ssd130x.h ****         else
 7177              		.loc 5 244 42 is_stmt 0 view .LVU1808
 7178 061a 13F8012F 		ldrb	r2, [r3, #1]!	@ zero_extendqisi2
 7179              	.LVL484:
 244:../../libdaisy/src/dev/oled_ssd130x.h ****         else
 7180              		.loc 5 244 42 view .LVU1809
 7181 061e 42F00102 		orr	r2, r2, #1
 7182              	.LBE2284:
 7183              	.LBE2283:
 7184              	.LBE2282:
 199:../../libdaisy/src/hid/disp/display.h ****         {
 7185              		.loc 6 199 26 view .LVU1810
 7186 0622 9942     		cmp	r1, r3
 7187              	.LBB2287:
 7188              	.LBB2286:
 7189              	.LBB2285:
 244:../../libdaisy/src/dev/oled_ssd130x.h ****         else
ARM GAS  C:\Users\VINCIU~1\AppData\Local\Temp\ccdS0pnQ.s 			page 184


 7190              		.loc 5 244 42 view .LVU1811
 7191 0624 1A70     		strb	r2, [r3]
 7192              	.LVL485:
 244:../../libdaisy/src/dev/oled_ssd130x.h ****         else
 7193              		.loc 5 244 42 view .LVU1812
 7194              	.LBE2285:
 7195              	.LBE2286:
 7196              	.LBE2287:
 199:../../libdaisy/src/hid/disp/display.h ****         {
 7197              		.loc 6 199 26 is_stmt 1 view .LVU1813
 7198 0626 F8D1     		bne	.L360
 7199              	.LVL486:
 199:../../libdaisy/src/hid/disp/display.h ****         {
 7200              		.loc 6 199 26 is_stmt 0 view .LVU1814
 7201              	.LBE2278:
 7202              	.LBE2277:
 7203              	.LBB2288:
 7204              	.LBI2288:
 181:../../libdaisy/src/hid/disp/display.h ****                   uint_fast8_t y1,
 7205              		.loc 6 181 10 is_stmt 1 view .LVU1815
 7206              	.LBB2289:
 7207              	.LBB2290:
 7208              	.LBI2290:
  41:../../libdaisy/src/hid/disp/oled_display.h ****     {
 7209              		.loc 1 41 10 view .LVU1816
 7210              	.LBB2291:
 7211              	.LBI2291:
 239:../../libdaisy/src/dev/oled_ssd130x.h ****     {
 7212              		.loc 5 239 10 view .LVU1817
 7213              	.LBB2292:
 244:../../libdaisy/src/dev/oled_ssd130x.h ****         else
 7214              		.loc 5 244 42 is_stmt 0 view .LVU1818
 7215 0628 94F8CC30 		ldrb	r3, [r4, #204]	@ zero_extendqisi2
 7216 062c 0022     		movs	r2, #0
 7217 062e 43F02003 		orr	r3, r3, #32
 7218 0632 84F8CC30 		strb	r3, [r4, #204]
 7219              	.LVL487:
 244:../../libdaisy/src/dev/oled_ssd130x.h ****         else
 7220              		.loc 5 244 42 view .LVU1819
 7221              	.LBE2292:
 7222              	.LBE2291:
 7223              	.LBE2290:
 199:../../libdaisy/src/hid/disp/display.h ****         {
 7224              		.loc 6 199 26 is_stmt 1 view .LVU1820
 7225              	.L361:
 7226              	.LBB2293:
 7227              	.LBI2293:
  41:../../libdaisy/src/hid/disp/oled_display.h ****     {
 7228              		.loc 1 41 10 view .LVU1821
 7229              	.LBB2294:
 7230              	.LBI2294:
 239:../../libdaisy/src/dev/oled_ssd130x.h ****     {
 7231              		.loc 5 239 10 view .LVU1822
 7232              	.LBB2295:
 244:../../libdaisy/src/dev/oled_ssd130x.h ****         else
 7233              		.loc 5 244 28 is_stmt 0 view .LVU1823
 7234 0636 D108     		lsrs	r1, r2, #3
ARM GAS  C:\Users\VINCIU~1\AppData\Local\Temp\ccdS0pnQ.s 			page 185


 244:../../libdaisy/src/dev/oled_ssd130x.h ****         else
 7235              		.loc 5 244 54 view .LVU1824
 7236 0638 02F00700 		and	r0, r2, #7
 244:../../libdaisy/src/dev/oled_ssd130x.h ****         else
 7237              		.loc 5 244 48 view .LVU1825
 7238 063c 0123     		movs	r3, #1
 244:../../libdaisy/src/dev/oled_ssd130x.h ****         else
 7239              		.loc 5 244 42 view .LVU1826
 7240 063e 04EBC111 		add	r1, r4, r1, lsl #7
 7241              	.LBE2295:
 7242              	.LBE2294:
 7243              	.LBE2293:
 212:../../libdaisy/src/hid/disp/display.h ****             }
 7244              		.loc 6 212 20 view .LVU1827
 7245 0642 1A44     		add	r2, r2, r3
 7246              	.LVL488:
 7247              	.LBB2300:
 7248              	.LBB2298:
 7249              	.LBB2296:
 244:../../libdaisy/src/dev/oled_ssd130x.h ****         else
 7250              		.loc 5 244 48 view .LVU1828
 7251 0644 8340     		lsls	r3, r3, r0
 244:../../libdaisy/src/dev/oled_ssd130x.h ****         else
 7252              		.loc 5 244 42 view .LVU1829
 7253 0646 91F84C00 		ldrb	r0, [r1, #76]	@ zero_extendqisi2
 7254              	.LBE2296:
 7255              	.LBE2298:
 7256              	.LBE2300:
 199:../../libdaisy/src/hid/disp/display.h ****         {
 7257              		.loc 6 199 26 view .LVU1830
 7258 064a 0D2A     		cmp	r2, #13
 7259              	.LBB2301:
 7260              	.LBB2299:
 7261              	.LBB2297:
 244:../../libdaisy/src/dev/oled_ssd130x.h ****         else
 7262              		.loc 5 244 42 view .LVU1831
 7263 064c 43EA0003 		orr	r3, r3, r0
 7264 0650 81F84C30 		strb	r3, [r1, #76]
 7265              	.LVL489:
 244:../../libdaisy/src/dev/oled_ssd130x.h ****         else
 7266              		.loc 5 244 42 view .LVU1832
 7267              	.LBE2297:
 7268              	.LBE2299:
 7269              	.LBE2301:
 199:../../libdaisy/src/hid/disp/display.h ****         {
 7270              		.loc 6 199 26 is_stmt 1 view .LVU1833
 7271 0654 EFD1     		bne	.L361
 7272              	.LVL490:
 199:../../libdaisy/src/hid/disp/display.h ****         {
 7273              		.loc 6 199 26 is_stmt 0 view .LVU1834
 7274              	.LBE2289:
 7275              	.LBE2288:
 7276              	.LBB2302:
 7277              	.LBI2302:
 181:../../libdaisy/src/hid/disp/display.h ****                   uint_fast8_t y1,
 7278              		.loc 6 181 10 is_stmt 1 view .LVU1835
 7279              	.LBB2303:
ARM GAS  C:\Users\VINCIU~1\AppData\Local\Temp\ccdS0pnQ.s 			page 186


 7280              	.LBB2304:
 7281              	.LBI2304:
  41:../../libdaisy/src/hid/disp/oled_display.h ****     {
 7282              		.loc 1 41 10 view .LVU1836
 7283              	.LBB2305:
 7284              	.LBI2305:
 239:../../libdaisy/src/dev/oled_ssd130x.h ****     {
 7285              		.loc 5 239 10 view .LVU1837
 7286              	.LBB2306:
 244:../../libdaisy/src/dev/oled_ssd130x.h ****         else
 7287              		.loc 5 244 42 is_stmt 0 view .LVU1838
 7288 0656 94F8C030 		ldrb	r3, [r4, #192]	@ zero_extendqisi2
 7289 065a 04F1C100 		add	r0, r4, #193
 7290 065e 43F02003 		orr	r3, r3, #32
 7291 0662 84F8C030 		strb	r3, [r4, #192]
 7292              	.LVL491:
 244:../../libdaisy/src/dev/oled_ssd130x.h ****         else
 7293              		.loc 5 244 42 view .LVU1839
 7294              	.LBE2306:
 7295              	.LBE2305:
 7296              	.LBE2304:
 199:../../libdaisy/src/hid/disp/display.h ****         {
 7297              		.loc 6 199 26 is_stmt 1 view .LVU1840
 7298 0666 04F1CD03 		add	r3, r4, #205
 7299              	.LVL492:
 7300              	.L362:
 7301              	.LBB2307:
 7302              	.LBI2307:
  41:../../libdaisy/src/hid/disp/oled_display.h ****     {
 7303              		.loc 1 41 10 view .LVU1841
 7304              	.LBB2308:
 7305              	.LBI2308:
 239:../../libdaisy/src/dev/oled_ssd130x.h ****     {
 7306              		.loc 5 239 10 view .LVU1842
 7307              	.LBB2309:
 244:../../libdaisy/src/dev/oled_ssd130x.h ****         else
 7308              		.loc 5 244 42 is_stmt 0 view .LVU1843
 7309 066a 13F8011D 		ldrb	r1, [r3, #-1]!	@ zero_extendqisi2
 7310              	.LVL493:
 244:../../libdaisy/src/dev/oled_ssd130x.h ****         else
 7311              		.loc 5 244 42 view .LVU1844
 7312 066e 41F02001 		orr	r1, r1, #32
 7313              	.LBE2309:
 7314              	.LBE2308:
 7315              	.LBE2307:
 199:../../libdaisy/src/hid/disp/display.h ****         {
 7316              		.loc 6 199 26 view .LVU1845
 7317 0672 9842     		cmp	r0, r3
 7318              	.LBB2312:
 7319              	.LBB2311:
 7320              	.LBB2310:
 244:../../libdaisy/src/dev/oled_ssd130x.h ****         else
 7321              		.loc 5 244 42 view .LVU1846
 7322 0674 1970     		strb	r1, [r3]
 7323              	.LVL494:
 244:../../libdaisy/src/dev/oled_ssd130x.h ****         else
 7324              		.loc 5 244 42 view .LVU1847
ARM GAS  C:\Users\VINCIU~1\AppData\Local\Temp\ccdS0pnQ.s 			page 187


 7325              	.LBE2310:
 7326              	.LBE2311:
 7327              	.LBE2312:
 199:../../libdaisy/src/hid/disp/display.h ****         {
 7328              		.loc 6 199 26 is_stmt 1 view .LVU1848
 7329 0676 F8D1     		bne	.L362
 7330              	.LVL495:
 199:../../libdaisy/src/hid/disp/display.h ****         {
 7331              		.loc 6 199 26 is_stmt 0 view .LVU1849
 7332              	.LBE2303:
 7333              	.LBE2302:
 7334              	.LBB2313:
 7335              	.LBI2313:
 181:../../libdaisy/src/hid/disp/display.h ****                   uint_fast8_t y1,
 7336              		.loc 6 181 10 is_stmt 1 view .LVU1850
 7337              	.LBB2314:
 7338              	.LBB2315:
 7339              	.LBI2315:
  41:../../libdaisy/src/hid/disp/oled_display.h ****     {
 7340              		.loc 1 41 10 view .LVU1851
 7341              	.LBB2316:
 7342              	.LBI2316:
 239:../../libdaisy/src/dev/oled_ssd130x.h ****     {
 7343              		.loc 5 239 10 view .LVU1852
 7344              	.LBB2317:
 244:../../libdaisy/src/dev/oled_ssd130x.h ****         else
 7345              		.loc 5 244 42 is_stmt 0 view .LVU1853
 7346 0678 94F84030 		ldrb	r3, [r4, #64]	@ zero_extendqisi2
 7347 067c 43F00103 		orr	r3, r3, #1
 7348 0680 84F84030 		strb	r3, [r4, #64]
 7349              	.LVL496:
 244:../../libdaisy/src/dev/oled_ssd130x.h ****         else
 7350              		.loc 5 244 42 view .LVU1854
 7351              	.LBE2317:
 7352              	.LBE2316:
 7353              	.LBE2315:
 199:../../libdaisy/src/hid/disp/display.h ****         {
 7354              		.loc 6 199 26 is_stmt 1 view .LVU1855
 7355              	.L363:
 7356              	.LBB2318:
 7357              	.LBI2318:
  41:../../libdaisy/src/hid/disp/oled_display.h ****     {
 7358              		.loc 1 41 10 view .LVU1856
 7359              	.LBB2319:
 7360              	.LBI2319:
 239:../../libdaisy/src/dev/oled_ssd130x.h ****     {
 7361              		.loc 5 239 10 view .LVU1857
 7362              	.LBB2320:
 244:../../libdaisy/src/dev/oled_ssd130x.h ****         else
 7363              		.loc 5 244 28 is_stmt 0 view .LVU1858
 7364 0684 D108     		lsrs	r1, r2, #3
 244:../../libdaisy/src/dev/oled_ssd130x.h ****         else
 7365              		.loc 5 244 54 view .LVU1859
 7366 0686 02F00700 		and	r0, r2, #7
 244:../../libdaisy/src/dev/oled_ssd130x.h ****         else
 7367              		.loc 5 244 48 view .LVU1860
 7368 068a 0123     		movs	r3, #1
ARM GAS  C:\Users\VINCIU~1\AppData\Local\Temp\ccdS0pnQ.s 			page 188


 7369              	.LBE2320:
 7370              	.LBE2319:
 7371              	.LBE2318:
 199:../../libdaisy/src/hid/disp/display.h ****         {
 7372              		.loc 6 199 26 view .LVU1861
 7373 068c 013A     		subs	r2, r2, #1
 7374              	.LVL497:
 7375              	.LBB2323:
 7376              	.LBB2322:
 7377              	.LBB2321:
 244:../../libdaisy/src/dev/oled_ssd130x.h ****         else
 7378              		.loc 5 244 42 view .LVU1862
 7379 068e 04EBC111 		add	r1, r4, r1, lsl #7
 244:../../libdaisy/src/dev/oled_ssd130x.h ****         else
 7380              		.loc 5 244 48 view .LVU1863
 7381 0692 03FA00F3 		lsl	r3, r3, r0
 244:../../libdaisy/src/dev/oled_ssd130x.h ****         else
 7382              		.loc 5 244 42 view .LVU1864
 7383 0696 91F84000 		ldrb	r0, [r1, #64]	@ zero_extendqisi2
 7384 069a 43EA0003 		orr	r3, r3, r0
 7385 069e 81F84030 		strb	r3, [r1, #64]
 7386              	.LVL498:
 244:../../libdaisy/src/dev/oled_ssd130x.h ****         else
 7387              		.loc 5 244 42 view .LVU1865
 7388              	.LBE2321:
 7389              	.LBE2322:
 7390              	.LBE2323:
 199:../../libdaisy/src/hid/disp/display.h ****         {
 7391              		.loc 6 199 26 is_stmt 1 view .LVU1866
 7392 06a2 EFD1     		bne	.L363
 7393              	.LBE2314:
 7394              	.LBE2313:
 7395              	.LBE2276:
 730:Menus.cpp     ****     if(menuStateEnv == 2)
 7396              		.loc 2 730 8 is_stmt 0 view .LVU1867
 7397 06a4 D7F8AC31 		ldr	r3, [r7, #428]
 7398              	.LVL499:
 730:Menus.cpp     ****     if(menuStateEnv == 2)
 7399              		.loc 2 730 5 is_stmt 1 view .LVU1868
 7400 06a8 022B     		cmp	r3, #2
 7401 06aa 7FF4CBAC 		bne	.L364
 7402              	.LVL500:
 7403              	.L514:
 732:Menus.cpp     ****         this->sustatinLevel += this->encoderRight.Increment() * 3.3;
 7404              		.loc 2 732 9 view .LVU1869
 7405              	.LBB2324:
 7406              	.LBI2324:
 7407              		.loc 3 41 20 view .LVU1870
 7408              	.LBB2325:
 7409              		.loc 3 41 40 view .LVU1871
 7410              	.LBE2325:
 7411              	.LBE2324:
 732:Menus.cpp     ****         this->sustatinLevel += this->encoderRight.Increment() * 3.3;
 7412              		.loc 2 732 29 is_stmt 0 view .LVU1872
 7413 06ae 97ED707A 		vldr.32	s14, [r7, #448]
 7414              	.LBB2327:
 7415              	.LBB2326:
ARM GAS  C:\Users\VINCIU~1\AppData\Local\Temp\ccdS0pnQ.s 			page 189


 7416              		.loc 3 41 47 view .LVU1873
 7417 06b2 D7ED126A 		vldr.32	s13, [r7, #72]	@ int
 7418              	.LVL501:
 7419              		.loc 3 41 47 view .LVU1874
 7420              	.LBE2326:
 7421              	.LBE2327:
 732:Menus.cpp     ****         this->sustatinLevel += this->encoderRight.Increment() * 3.3;
 7422              		.loc 2 732 29 view .LVU1875
 7423 06b6 B7EEC77A 		vcvt.f64.f32	d7, s14
 733:Menus.cpp     ****         env.SetSustainLevel(this->sustatinLevel / 100);
 7424              		.loc 2 733 28 view .LVU1876
 7425 06ba DFED4C5A 		vldr.32	s11, .L524+12
 732:Menus.cpp     ****         this->sustatinLevel += this->encoderRight.Increment() * 3.3;
 7426              		.loc 2 732 63 view .LVU1877
 7427 06be B8EEE63B 		vcvt.f64.s32	d3, s13
 732:Menus.cpp     ****         this->sustatinLevel += this->encoderRight.Increment() * 3.3;
 7428              		.loc 2 732 29 view .LVU1878
 7429 06c2 9FED474B 		vldr.64	d4, .L524
 7430 06c6 A3EE047B 		vfma.f64	d7, d3, d4
 7431 06ca B7EEC77B 		vcvt.f32.f64	s14, d7
 733:Menus.cpp     ****         env.SetSustainLevel(this->sustatinLevel / 100);
 7432              		.loc 2 733 28 view .LVU1879
 7433 06ce 87EE256A 		vdiv.f32	s12, s14, s11
 732:Menus.cpp     ****         this->sustatinLevel += this->encoderRight.Increment() * 3.3;
 7434              		.loc 2 732 29 view .LVU1880
 7435 06d2 87ED707A 		vstr.32	s14, [r7, #448]
 733:Menus.cpp     ****         env.SetSustainLevel(this->sustatinLevel / 100);
 7436              		.loc 2 733 9 is_stmt 1 view .LVU1881
 7437              	.LVL502:
 7438              	.LBB2328:
 7439              	.LBI2328:
 7440              		.file 7 "../../DaisySP/Source/Control/adsr.h"
   1:../../DaisySP/Source/Control/adsr.h **** #pragma once
   2:../../DaisySP/Source/Control/adsr.h **** #ifndef DSY_ADSR_H
   3:../../DaisySP/Source/Control/adsr.h **** #define DSY_ADSR_H
   4:../../DaisySP/Source/Control/adsr.h **** 
   5:../../DaisySP/Source/Control/adsr.h **** #include <stdint.h>
   6:../../DaisySP/Source/Control/adsr.h **** #ifdef __cplusplus
   7:../../DaisySP/Source/Control/adsr.h **** 
   8:../../DaisySP/Source/Control/adsr.h **** namespace daisysp
   9:../../DaisySP/Source/Control/adsr.h **** {
  10:../../DaisySP/Source/Control/adsr.h **** /** Distinct stages that the phase of the envelope can be located in.
  11:../../DaisySP/Source/Control/adsr.h **** - IDLE   = located at phase location 0, and not currently running
  12:../../DaisySP/Source/Control/adsr.h **** - ATTACK  = First segment of envelope where phase moves from 0 to 1
  13:../../DaisySP/Source/Control/adsr.h **** - DECAY   = Second segment of envelope where phase moves from 1 to SUSTAIN value
  14:../../DaisySP/Source/Control/adsr.h **** - RELEASE =     Fourth segment of envelop where phase moves from SUSTAIN to 0
  15:../../DaisySP/Source/Control/adsr.h **** */
  16:../../DaisySP/Source/Control/adsr.h **** enum
  17:../../DaisySP/Source/Control/adsr.h **** {
  18:../../DaisySP/Source/Control/adsr.h ****     ADSR_SEG_IDLE    = 0,
  19:../../DaisySP/Source/Control/adsr.h ****     ADSR_SEG_ATTACK  = 1,
  20:../../DaisySP/Source/Control/adsr.h ****     ADSR_SEG_DECAY   = 2,
  21:../../DaisySP/Source/Control/adsr.h ****     ADSR_SEG_RELEASE = 4
  22:../../DaisySP/Source/Control/adsr.h **** };
  23:../../DaisySP/Source/Control/adsr.h **** 
  24:../../DaisySP/Source/Control/adsr.h **** 
  25:../../DaisySP/Source/Control/adsr.h **** /** adsr envelope module
ARM GAS  C:\Users\VINCIU~1\AppData\Local\Temp\ccdS0pnQ.s 			page 190


  26:../../DaisySP/Source/Control/adsr.h **** 
  27:../../DaisySP/Source/Control/adsr.h **** Original author(s) : Paul Batchelor
  28:../../DaisySP/Source/Control/adsr.h **** 
  29:../../DaisySP/Source/Control/adsr.h **** Ported from Soundpipe by Ben Sergentanis, May 2020
  30:../../DaisySP/Source/Control/adsr.h ****  
  31:../../DaisySP/Source/Control/adsr.h **** Remake by Steffan DIedrichsen, May 2021
  32:../../DaisySP/Source/Control/adsr.h **** */
  33:../../DaisySP/Source/Control/adsr.h **** class Adsr
  34:../../DaisySP/Source/Control/adsr.h **** {
  35:../../DaisySP/Source/Control/adsr.h ****   public:
  36:../../DaisySP/Source/Control/adsr.h ****     Adsr() {}
  37:../../DaisySP/Source/Control/adsr.h ****     ~Adsr() {}
  38:../../DaisySP/Source/Control/adsr.h ****     /** Initializes the Adsr module.
  39:../../DaisySP/Source/Control/adsr.h ****         \param sample_rate - The sample rate of the audio engine being run. 
  40:../../DaisySP/Source/Control/adsr.h ****     */
  41:../../DaisySP/Source/Control/adsr.h ****     void Init(float sample_rate, int blockSize = 1);
  42:../../DaisySP/Source/Control/adsr.h ****     /**
  43:../../DaisySP/Source/Control/adsr.h ****      \function Retrigger forces the envelope back to attack phase
  44:../../DaisySP/Source/Control/adsr.h ****      \param hard  resets the history to zero, results in a click.
  45:../../DaisySP/Source/Control/adsr.h ****      */
  46:../../DaisySP/Source/Control/adsr.h ****     void Retrigger(bool hard);
  47:../../DaisySP/Source/Control/adsr.h ****     /** Processes one sample through the filter and returns one sample.
  48:../../DaisySP/Source/Control/adsr.h ****         \param gate - trigger the envelope, hold it to sustain 
  49:../../DaisySP/Source/Control/adsr.h ****     */
  50:../../DaisySP/Source/Control/adsr.h ****     float Process(bool gate);
  51:../../DaisySP/Source/Control/adsr.h ****     /** Sets time
  52:../../DaisySP/Source/Control/adsr.h ****         Set time per segment in seconds
  53:../../DaisySP/Source/Control/adsr.h ****     */
  54:../../DaisySP/Source/Control/adsr.h ****     void SetTime(int seg, float time);
  55:../../DaisySP/Source/Control/adsr.h ****     void SetAttackTime(float timeInS, float shape = 0.0f);
  56:../../DaisySP/Source/Control/adsr.h ****     void SetDecayTime(float timeInS);
  57:../../DaisySP/Source/Control/adsr.h ****     void SetReleaseTime(float timeInS);
  58:../../DaisySP/Source/Control/adsr.h **** 
  59:../../DaisySP/Source/Control/adsr.h ****   private:
  60:../../DaisySP/Source/Control/adsr.h ****     void SetTimeConstant(float timeInS, float& time, float& coeff);
  61:../../DaisySP/Source/Control/adsr.h **** 
  62:../../DaisySP/Source/Control/adsr.h ****   public:
  63:../../DaisySP/Source/Control/adsr.h ****     /** Sustain level
  64:../../DaisySP/Source/Control/adsr.h ****         \param sus_level - sets sustain level, 0...1.0
  65:../../DaisySP/Source/Control/adsr.h ****     */
  66:../../DaisySP/Source/Control/adsr.h ****     inline void SetSustainLevel(float sus_level)
 7441              		.loc 7 66 17 view .LVU1882
 7442              	.LBB2329:
  67:../../DaisySP/Source/Control/adsr.h ****     {
  68:../../DaisySP/Source/Control/adsr.h ****         sus_level = (sus_level <= 0.f) ? -0.01f // forces envelope into idle
 7443              		.loc 7 68 9 view .LVU1883
 7444              		.loc 7 68 40 is_stmt 0 view .LVU1884
 7445 06d6 B5EEC06A 		vcmpe.f32	s12, #0
 7446 06da F1EE10FA 		vmrs	APSR_nzcv, FPSCR
 7447 06de 40F24581 		bls	.L435
  69:../../DaisySP/Source/Control/adsr.h ****                                        : (sus_level > 1.f) ? 1.f : sus_level;
 7448              		.loc 7 69 60 view .LVU1885
 7449 06e2 F7EE007A 		vmov.f32	s15, #1.0e+0
 7450 06e6 B4EE676A 		vcmp.f32	s12, s15
 7451 06ea F1EE10FA 		vmrs	APSR_nzcv, FPSCR
 7452 06ee 37FE866A 		vselgt.f32	s12, s15, s12
 7453              	.LVL503:
ARM GAS  C:\Users\VINCIU~1\AppData\Local\Temp\ccdS0pnQ.s 			page 191


 7454              	.L365:
  70:../../DaisySP/Source/Control/adsr.h ****         sus_level_ = sus_level;
 7455              		.loc 7 70 9 is_stmt 1 view .LVU1886
 7456              	.LBE2329:
 7457              	.LBE2328:
 734:Menus.cpp     ****         this->sustatinLevelScaleDraw += this->encoderRight.Increment();
 7458              		.loc 2 734 38 is_stmt 0 view .LVU1887
 7459 06f2 F8EEE67A 		vcvt.f32.s32	s15, s13
 7460              	.LBB2332:
 7461              	.LBB2330:
 7462              		.loc 7 70 20 view .LVU1888
 7463 06f6 85ED006A 		vstr.32	s12, [r5]
 7464              	.LVL504:
 7465              		.loc 7 70 20 view .LVU1889
 7466              	.LBE2330:
 7467              	.LBE2332:
 734:Menus.cpp     ****         this->sustatinLevelScaleDraw += this->encoderRight.Increment();
 7468              		.loc 2 734 9 is_stmt 1 view .LVU1890
 7469              		.loc 3 41 40 view .LVU1891
 734:Menus.cpp     ****         this->sustatinLevelScaleDraw += this->encoderRight.Increment();
 7470              		.loc 2 734 38 is_stmt 0 view .LVU1892
 7471 06fa D7ED726A 		vldr.32	s13, [r7, #456]
 735:Menus.cpp     ****         if(this->sustatinLevelScaleDraw >= screen.Width() / 4)
 7472              		.loc 2 735 9 view .LVU1893
 7473 06fe 9FED3A7A 		vldr.32	s14, .L524+8
 734:Menus.cpp     ****         this->sustatinLevelScaleDraw += this->encoderRight.Increment();
 7474              		.loc 2 734 38 view .LVU1894
 7475 0702 77EEA67A 		vadd.f32	s15, s15, s13
 735:Menus.cpp     ****         if(this->sustatinLevelScaleDraw >= screen.Width() / 4)
 7476              		.loc 2 735 9 is_stmt 1 view .LVU1895
 7477 0706 F4EEC77A 		vcmpe.f32	s15, s14
 7478 070a F1EE10FA 		vmrs	APSR_nzcv, FPSCR
 7479 070e 80F20C81 		bge	.L519
 739:Menus.cpp     ****         if(this->sustatinLevelScaleDraw <= 0)
 7480              		.loc 2 739 9 view .LVU1896
 7481 0712 F5EEC07A 		vcmpe.f32	s15, #0
 7482 0716 0023     		movs	r3, #0
 7483 0718 F1EE10FA 		vmrs	APSR_nzcv, FPSCR
 734:Menus.cpp     ****         this->sustatinLevelScaleDraw += this->encoderRight.Increment();
 7484              		.loc 2 734 38 is_stmt 0 view .LVU1897
 7485 071c 8CBF     		ite	hi
 7486 071e C7ED727A 		vstrhi.32	s15, [r7, #456]
 741:Menus.cpp     ****             this->sustatinLevelScaleDraw = 0;
 7487              		.loc 2 741 13 is_stmt 1 view .LVU1898
 741:Menus.cpp     ****             this->sustatinLevelScaleDraw = 0;
 7488              		.loc 2 741 42 is_stmt 0 view .LVU1899
 7489 0722 C7F8C831 		strls	r3, [r7, #456]	@ float
 7490              	.L368:
 743:Menus.cpp     ****         if(this->sustatinLevel >= 100)
 7491              		.loc 2 743 9 is_stmt 1 view .LVU1900
 743:Menus.cpp     ****         if(this->sustatinLevel >= 100)
 7492              		.loc 2 743 18 is_stmt 0 view .LVU1901
 7493 0726 D7ED707A 		vldr.32	s15, [r7, #448]
 743:Menus.cpp     ****         if(this->sustatinLevel >= 100)
 7494              		.loc 2 743 9 view .LVU1902
 7495 072a 9FED307A 		vldr.32	s14, .L524+12
 7496 072e F4EEC77A 		vcmpe.f32	s15, s14
ARM GAS  C:\Users\VINCIU~1\AppData\Local\Temp\ccdS0pnQ.s 			page 192


 7497 0732 F1EE10FA 		vmrs	APSR_nzcv, FPSCR
 7498 0736 C0F20781 		blt	.L505
 745:Menus.cpp     ****             this->sustatinLevel = 100;
 7499              		.loc 2 745 13 is_stmt 1 view .LVU1903
 745:Menus.cpp     ****             this->sustatinLevel = 100;
 7500              		.loc 2 745 33 is_stmt 0 view .LVU1904
 7501 073a 87ED707A 		vstr.32	s14, [r7, #448]
 747:Menus.cpp     ****         if(this->sustatinLevel <= 0)
 7502              		.loc 2 747 9 is_stmt 1 view .LVU1905
 7503              	.L372:
 751:Menus.cpp     ****         screen.DrawRect(60, 0, 72, 13, true, false);
 7504              		.loc 2 751 9 view .LVU1906
 7505              	.LVL505:
 7506              	.LBB2333:
 7507              	.LBI2333:
 217:../../libdaisy/src/hid/disp/display.h ****                   uint_fast8_t y1,
 7508              		.loc 6 217 10 view .LVU1907
 7509              	.LBB2334:
 7510              	.LBI2334:
 181:../../libdaisy/src/hid/disp/display.h ****                   uint_fast8_t y1,
 7511              		.loc 6 181 10 view .LVU1908
 7512              	.LBB2335:
 7513              	.LBB2336:
 7514              	.LBI2336:
  41:../../libdaisy/src/hid/disp/oled_display.h ****     {
 7515              		.loc 1 41 10 view .LVU1909
 7516              	.LBB2337:
 7517              	.LBI2337:
 239:../../libdaisy/src/dev/oled_ssd130x.h ****     {
 7518              		.loc 5 239 10 view .LVU1910
 7519              	.LBB2338:
 244:../../libdaisy/src/dev/oled_ssd130x.h ****         else
 7520              		.loc 5 244 42 is_stmt 0 view .LVU1911
 7521 073e 94F85C20 		ldrb	r2, [r4, #92]	@ zero_extendqisi2
 7522 0742 04F14F03 		add	r3, r4, #79
 7523 0746 04F15B01 		add	r1, r4, #91
 7524 074a 42F00102 		orr	r2, r2, #1
 7525 074e 84F85C20 		strb	r2, [r4, #92]
 7526              	.LVL506:
 244:../../libdaisy/src/dev/oled_ssd130x.h ****         else
 7527              		.loc 5 244 42 view .LVU1912
 7528              	.LBE2338:
 7529              	.LBE2337:
 7530              	.LBE2336:
 199:../../libdaisy/src/hid/disp/display.h ****         {
 7531              		.loc 6 199 26 is_stmt 1 view .LVU1913
 7532              	.L374:
 7533              	.LBB2339:
 7534              	.LBI2339:
  41:../../libdaisy/src/hid/disp/oled_display.h ****     {
 7535              		.loc 1 41 10 view .LVU1914
 7536              	.LBB2340:
 7537              	.LBI2340:
 239:../../libdaisy/src/dev/oled_ssd130x.h ****     {
 7538              		.loc 5 239 10 view .LVU1915
 7539              	.LBB2341:
 244:../../libdaisy/src/dev/oled_ssd130x.h ****         else
ARM GAS  C:\Users\VINCIU~1\AppData\Local\Temp\ccdS0pnQ.s 			page 193


 7540              		.loc 5 244 42 is_stmt 0 view .LVU1916
 7541 0752 13F8012F 		ldrb	r2, [r3, #1]!	@ zero_extendqisi2
 7542              	.LVL507:
 244:../../libdaisy/src/dev/oled_ssd130x.h ****         else
 7543              		.loc 5 244 42 view .LVU1917
 7544 0756 42F00102 		orr	r2, r2, #1
 7545              	.LBE2341:
 7546              	.LBE2340:
 7547              	.LBE2339:
 199:../../libdaisy/src/hid/disp/display.h ****         {
 7548              		.loc 6 199 26 view .LVU1918
 7549 075a 9942     		cmp	r1, r3
 7550              	.LBB2344:
 7551              	.LBB2343:
 7552              	.LBB2342:
 244:../../libdaisy/src/dev/oled_ssd130x.h ****         else
 7553              		.loc 5 244 42 view .LVU1919
 7554 075c 1A70     		strb	r2, [r3]
 7555              	.LVL508:
 244:../../libdaisy/src/dev/oled_ssd130x.h ****         else
 7556              		.loc 5 244 42 view .LVU1920
 7557              	.LBE2342:
 7558              	.LBE2343:
 7559              	.LBE2344:
 199:../../libdaisy/src/hid/disp/display.h ****         {
 7560              		.loc 6 199 26 is_stmt 1 view .LVU1921
 7561 075e F8D1     		bne	.L374
 7562              	.LVL509:
 199:../../libdaisy/src/hid/disp/display.h ****         {
 7563              		.loc 6 199 26 is_stmt 0 view .LVU1922
 7564              	.LBE2335:
 7565              	.LBE2334:
 7566              	.LBB2345:
 7567              	.LBI2345:
 181:../../libdaisy/src/hid/disp/display.h ****                   uint_fast8_t y1,
 7568              		.loc 6 181 10 is_stmt 1 view .LVU1923
 7569              	.LBB2346:
 7570              	.LBB2347:
 7571              	.LBI2347:
  41:../../libdaisy/src/hid/disp/oled_display.h ****     {
 7572              		.loc 1 41 10 view .LVU1924
 7573              	.LBB2348:
 7574              	.LBI2348:
 239:../../libdaisy/src/dev/oled_ssd130x.h ****     {
 7575              		.loc 5 239 10 view .LVU1925
 7576              	.LBB2349:
 244:../../libdaisy/src/dev/oled_ssd130x.h ****         else
 7577              		.loc 5 244 42 is_stmt 0 view .LVU1926
 7578 0760 94F8DC20 		ldrb	r2, [r4, #220]	@ zero_extendqisi2
 7579 0764 0023     		movs	r3, #0
 7580 0766 42F02002 		orr	r2, r2, #32
 7581 076a 84F8DC20 		strb	r2, [r4, #220]
 7582              	.LVL510:
 244:../../libdaisy/src/dev/oled_ssd130x.h ****         else
 7583              		.loc 5 244 42 view .LVU1927
 7584              	.LBE2349:
 7585              	.LBE2348:
ARM GAS  C:\Users\VINCIU~1\AppData\Local\Temp\ccdS0pnQ.s 			page 194


 7586              	.LBE2347:
 199:../../libdaisy/src/hid/disp/display.h ****         {
 7587              		.loc 6 199 26 is_stmt 1 view .LVU1928
 7588              	.L375:
 7589              	.LBB2350:
 7590              	.LBI2350:
  41:../../libdaisy/src/hid/disp/oled_display.h ****     {
 7591              		.loc 1 41 10 view .LVU1929
 7592              	.LBB2351:
 7593              	.LBI2351:
 239:../../libdaisy/src/dev/oled_ssd130x.h ****     {
 7594              		.loc 5 239 10 view .LVU1930
 7595              	.LBB2352:
 244:../../libdaisy/src/dev/oled_ssd130x.h ****         else
 7596              		.loc 5 244 28 is_stmt 0 view .LVU1931
 7597 076e D908     		lsrs	r1, r3, #3
 244:../../libdaisy/src/dev/oled_ssd130x.h ****         else
 7598              		.loc 5 244 54 view .LVU1932
 7599 0770 03F00700 		and	r0, r3, #7
 244:../../libdaisy/src/dev/oled_ssd130x.h ****         else
 7600              		.loc 5 244 48 view .LVU1933
 7601 0774 0122     		movs	r2, #1
 244:../../libdaisy/src/dev/oled_ssd130x.h ****         else
 7602              		.loc 5 244 42 view .LVU1934
 7603 0776 04EBC111 		add	r1, r4, r1, lsl #7
 7604              	.LBE2352:
 7605              	.LBE2351:
 7606              	.LBE2350:
 212:../../libdaisy/src/hid/disp/display.h ****             }
 7607              		.loc 6 212 20 view .LVU1935
 7608 077a 1344     		add	r3, r3, r2
 7609              	.LVL511:
 7610              	.LBB2357:
 7611              	.LBB2355:
 7612              	.LBB2353:
 244:../../libdaisy/src/dev/oled_ssd130x.h ****         else
 7613              		.loc 5 244 48 view .LVU1936
 7614 077c 8240     		lsls	r2, r2, r0
 244:../../libdaisy/src/dev/oled_ssd130x.h ****         else
 7615              		.loc 5 244 42 view .LVU1937
 7616 077e 91F85C00 		ldrb	r0, [r1, #92]	@ zero_extendqisi2
 7617              	.LBE2353:
 7618              	.LBE2355:
 7619              	.LBE2357:
 199:../../libdaisy/src/hid/disp/display.h ****         {
 7620              		.loc 6 199 26 view .LVU1938
 7621 0782 0D2B     		cmp	r3, #13
 7622              	.LBB2358:
 7623              	.LBB2356:
 7624              	.LBB2354:
 244:../../libdaisy/src/dev/oled_ssd130x.h ****         else
 7625              		.loc 5 244 42 view .LVU1939
 7626 0784 42EA0002 		orr	r2, r2, r0
 7627 0788 81F85C20 		strb	r2, [r1, #92]
 7628              	.LVL512:
 244:../../libdaisy/src/dev/oled_ssd130x.h ****         else
 7629              		.loc 5 244 42 view .LVU1940
ARM GAS  C:\Users\VINCIU~1\AppData\Local\Temp\ccdS0pnQ.s 			page 195


 7630              	.LBE2354:
 7631              	.LBE2356:
 7632              	.LBE2358:
 199:../../libdaisy/src/hid/disp/display.h ****         {
 7633              		.loc 6 199 26 is_stmt 1 view .LVU1941
 7634 078c EFD1     		bne	.L375
 7635              	.LVL513:
 199:../../libdaisy/src/hid/disp/display.h ****         {
 7636              		.loc 6 199 26 is_stmt 0 view .LVU1942
 7637              	.LBE2346:
 7638              	.LBE2345:
 7639              	.LBB2359:
 7640              	.LBI2359:
 181:../../libdaisy/src/hid/disp/display.h ****                   uint_fast8_t y1,
 7641              		.loc 6 181 10 is_stmt 1 view .LVU1943
 7642              	.LBB2360:
 7643              	.LBB2361:
 7644              	.LBI2361:
  41:../../libdaisy/src/hid/disp/oled_display.h ****     {
 7645              		.loc 1 41 10 view .LVU1944
 7646              	.LBB2362:
 7647              	.LBI2362:
 239:../../libdaisy/src/dev/oled_ssd130x.h ****     {
 7648              		.loc 5 239 10 view .LVU1945
 7649              	.LBB2363:
 244:../../libdaisy/src/dev/oled_ssd130x.h ****         else
 7650              		.loc 5 244 42 is_stmt 0 view .LVU1946
 7651 078e 94F8D010 		ldrb	r1, [r4, #208]	@ zero_extendqisi2
 7652 0792 04F1DD02 		add	r2, r4, #221
 7653 0796 04F1D100 		add	r0, r4, #209
 7654 079a 41F02001 		orr	r1, r1, #32
 7655 079e 84F8D010 		strb	r1, [r4, #208]
 7656              	.LVL514:
 244:../../libdaisy/src/dev/oled_ssd130x.h ****         else
 7657              		.loc 5 244 42 view .LVU1947
 7658              	.LBE2363:
 7659              	.LBE2362:
 7660              	.LBE2361:
 199:../../libdaisy/src/hid/disp/display.h ****         {
 7661              		.loc 6 199 26 is_stmt 1 view .LVU1948
 7662              	.L376:
 7663              	.LBB2364:
 7664              	.LBI2364:
  41:../../libdaisy/src/hid/disp/oled_display.h ****     {
 7665              		.loc 1 41 10 view .LVU1949
 7666              	.LBB2365:
 7667              	.LBI2365:
 239:../../libdaisy/src/dev/oled_ssd130x.h ****     {
 7668              		.loc 5 239 10 view .LVU1950
 7669              	.LBB2366:
 244:../../libdaisy/src/dev/oled_ssd130x.h ****         else
 7670              		.loc 5 244 42 is_stmt 0 view .LVU1951
 7671 07a2 12F8011D 		ldrb	r1, [r2, #-1]!	@ zero_extendqisi2
 7672              	.LVL515:
 244:../../libdaisy/src/dev/oled_ssd130x.h ****         else
 7673              		.loc 5 244 42 view .LVU1952
 7674 07a6 41F02001 		orr	r1, r1, #32
ARM GAS  C:\Users\VINCIU~1\AppData\Local\Temp\ccdS0pnQ.s 			page 196


 7675              	.LBE2366:
 7676              	.LBE2365:
 7677              	.LBE2364:
 199:../../libdaisy/src/hid/disp/display.h ****         {
 7678              		.loc 6 199 26 view .LVU1953
 7679 07aa 9042     		cmp	r0, r2
 7680              	.LBB2369:
 7681              	.LBB2368:
 7682              	.LBB2367:
 244:../../libdaisy/src/dev/oled_ssd130x.h ****         else
 7683              		.loc 5 244 42 view .LVU1954
 7684 07ac 1170     		strb	r1, [r2]
 7685              	.LVL516:
 244:../../libdaisy/src/dev/oled_ssd130x.h ****         else
 7686              		.loc 5 244 42 view .LVU1955
 7687              	.LBE2367:
 7688              	.LBE2368:
 7689              	.LBE2369:
 199:../../libdaisy/src/hid/disp/display.h ****         {
 7690              		.loc 6 199 26 is_stmt 1 view .LVU1956
 7691 07ae F8D1     		bne	.L376
 7692              	.LVL517:
 199:../../libdaisy/src/hid/disp/display.h ****         {
 7693              		.loc 6 199 26 is_stmt 0 view .LVU1957
 7694              	.LBE2360:
 7695              	.LBE2359:
 7696              	.LBB2370:
 7697              	.LBI2370:
 181:../../libdaisy/src/hid/disp/display.h ****                   uint_fast8_t y1,
 7698              		.loc 6 181 10 is_stmt 1 view .LVU1958
 7699              	.LBB2371:
 7700              	.LBB2372:
 7701              	.LBI2372:
  41:../../libdaisy/src/hid/disp/oled_display.h ****     {
 7702              		.loc 1 41 10 view .LVU1959
 7703              	.LBB2373:
 7704              	.LBI2373:
 239:../../libdaisy/src/dev/oled_ssd130x.h ****     {
 7705              		.loc 5 239 10 view .LVU1960
 7706              	.LBB2374:
 244:../../libdaisy/src/dev/oled_ssd130x.h ****         else
 7707              		.loc 5 244 42 is_stmt 0 view .LVU1961
 7708 07b0 94F85020 		ldrb	r2, [r4, #80]	@ zero_extendqisi2
 7709 07b4 42F00102 		orr	r2, r2, #1
 7710 07b8 84F85020 		strb	r2, [r4, #80]
 7711              	.LVL518:
 244:../../libdaisy/src/dev/oled_ssd130x.h ****         else
 7712              		.loc 5 244 42 view .LVU1962
 7713              	.LBE2374:
 7714              	.LBE2373:
 7715              	.LBE2372:
 199:../../libdaisy/src/hid/disp/display.h ****         {
 7716              		.loc 6 199 26 is_stmt 1 view .LVU1963
 7717              	.L377:
 7718              	.LBB2375:
 7719              	.LBI2375:
  41:../../libdaisy/src/hid/disp/oled_display.h ****     {
ARM GAS  C:\Users\VINCIU~1\AppData\Local\Temp\ccdS0pnQ.s 			page 197


 7720              		.loc 1 41 10 view .LVU1964
 7721              	.LBB2376:
 7722              	.LBI2376:
 239:../../libdaisy/src/dev/oled_ssd130x.h ****     {
 7723              		.loc 5 239 10 view .LVU1965
 7724              	.LBB2377:
 244:../../libdaisy/src/dev/oled_ssd130x.h ****         else
 7725              		.loc 5 244 28 is_stmt 0 view .LVU1966
 7726 07bc D908     		lsrs	r1, r3, #3
 244:../../libdaisy/src/dev/oled_ssd130x.h ****         else
 7727              		.loc 5 244 54 view .LVU1967
 7728 07be 03F00700 		and	r0, r3, #7
 244:../../libdaisy/src/dev/oled_ssd130x.h ****         else
 7729              		.loc 5 244 48 view .LVU1968
 7730 07c2 0122     		movs	r2, #1
 7731              	.LBE2377:
 7732              	.LBE2376:
 7733              	.LBE2375:
 199:../../libdaisy/src/hid/disp/display.h ****         {
 7734              		.loc 6 199 26 view .LVU1969
 7735 07c4 013B     		subs	r3, r3, #1
 7736              	.LVL519:
 7737              	.LBB2380:
 7738              	.LBB2379:
 7739              	.LBB2378:
 244:../../libdaisy/src/dev/oled_ssd130x.h ****         else
 7740              		.loc 5 244 42 view .LVU1970
 7741 07c6 04EBC111 		add	r1, r4, r1, lsl #7
 244:../../libdaisy/src/dev/oled_ssd130x.h ****         else
 7742              		.loc 5 244 48 view .LVU1971
 7743 07ca 02FA00F2 		lsl	r2, r2, r0
 244:../../libdaisy/src/dev/oled_ssd130x.h ****         else
 7744              		.loc 5 244 42 view .LVU1972
 7745 07ce 91F85000 		ldrb	r0, [r1, #80]	@ zero_extendqisi2
 7746 07d2 42EA0002 		orr	r2, r2, r0
 7747 07d6 81F85020 		strb	r2, [r1, #80]
 7748              	.LVL520:
 244:../../libdaisy/src/dev/oled_ssd130x.h ****         else
 7749              		.loc 5 244 42 view .LVU1973
 7750              	.LBE2378:
 7751              	.LBE2379:
 7752              	.LBE2380:
 199:../../libdaisy/src/hid/disp/display.h ****         {
 7753              		.loc 6 199 26 is_stmt 1 view .LVU1974
 7754 07da EFD1     		bne	.L377
 7755 07dc 35E4     		b	.L380
 7756              	.L525:
 7757 07de 00BF     		.align	3
 7758              	.L524:
 7759 07e0 66666666 		.word	1717986918
 7760 07e4 66660A40 		.word	1074423398
 7761 07e8 00000042 		.word	1107296256
 7762 07ec 0000C842 		.word	1120403456
 7763              	.LVL521:
 7764              	.L332:
 199:../../libdaisy/src/hid/disp/display.h ****         {
 7765              		.loc 6 199 26 is_stmt 0 view .LVU1975
ARM GAS  C:\Users\VINCIU~1\AppData\Local\Temp\ccdS0pnQ.s 			page 198


 7766              	.LBE2371:
 7767              	.LBE2370:
 7768              	.LBE2333:
 672:Menus.cpp     ****             this->menuStateEnv = 3;
 7769              		.loc 2 672 13 is_stmt 1 view .LVU1976
 675:Menus.cpp     ****     if(this->buttonRight.RisingEdge())
 7770              		.loc 2 675 5 is_stmt 0 view .LVU1977
 7771 07f0 97F86130 		ldrb	r3, [r7, #97]	@ zero_extendqisi2
 672:Menus.cpp     ****             this->menuStateEnv = 3;
 7772              		.loc 2 672 32 view .LVU1978
 7773 07f4 0322     		movs	r2, #3
 675:Menus.cpp     ****     if(this->buttonRight.RisingEdge())
 7774              		.loc 2 675 5 view .LVU1979
 7775 07f6 7F2B     		cmp	r3, #127
 672:Menus.cpp     ****             this->menuStateEnv = 3;
 7776              		.loc 2 672 32 view .LVU1980
 7777 07f8 C7F8AC21 		str	r2, [r7, #428]
 675:Menus.cpp     ****     if(this->buttonRight.RisingEdge())
 7778              		.loc 2 675 5 is_stmt 1 view .LVU1981
 7779              	.LVL522:
 7780              	.LBB2381:
 7781              		.loc 4 69 17 view .LVU1982
 7782              	.LBB2078:
 7783              		.loc 4 69 38 view .LVU1983
 7784              		.loc 4 69 38 is_stmt 0 view .LVU1984
 7785              	.LBE2078:
 7786              	.LBE2381:
 675:Menus.cpp     ****     if(this->buttonRight.RisingEdge())
 7787              		.loc 2 675 5 view .LVU1985
 7788 07fc 3FF430AE 		beq	.L337
 7789              	.L334:
 755:Menus.cpp     ****         this->releaseTime += this->encoderRight.Increment() * 3.3;
 7790              		.loc 2 755 9 is_stmt 1 view .LVU1986
 7791              	.LVL523:
 7792              	.LBB2382:
 7793              	.LBI2382:
 7794              		.loc 3 41 20 view .LVU1987
 7795              	.LBB2383:
 7796              		.loc 3 41 40 view .LVU1988
 7797              		.loc 3 41 40 is_stmt 0 view .LVU1989
 7798              	.LBE2383:
 7799              	.LBE2382:
 755:Menus.cpp     ****         this->releaseTime += this->encoderRight.Increment() * 3.3;
 7800              		.loc 2 755 27 view .LVU1990
 7801 0800 97ED747A 		vldr.32	s14, [r7, #464]
 756:Menus.cpp     ****         env.SetTime(daisysp::ADSR_SEG_RELEASE, this->releaseTime / 100);
 7802              		.loc 2 756 20 view .LVU1991
 7803 0804 0421     		movs	r1, #4
 755:Menus.cpp     ****         this->releaseTime += this->encoderRight.Increment() * 3.3;
 7804              		.loc 2 755 61 view .LVU1992
 7805 0806 D7ED127A 		vldr.32	s15, [r7, #72]	@ int
 756:Menus.cpp     ****         env.SetTime(daisysp::ADSR_SEG_RELEASE, this->releaseTime / 100);
 7806              		.loc 2 756 20 view .LVU1993
 7807 080a 2846     		mov	r0, r5
 7808 080c 1FED090A 		vldr.32	s0, .L524+12
 755:Menus.cpp     ****         this->releaseTime += this->encoderRight.Increment() * 3.3;
 7809              		.loc 2 755 61 view .LVU1994
ARM GAS  C:\Users\VINCIU~1\AppData\Local\Temp\ccdS0pnQ.s 			page 199


 7810 0810 B8EEE76B 		vcvt.f64.s32	d6, s15
 755:Menus.cpp     ****         this->releaseTime += this->encoderRight.Increment() * 3.3;
 7811              		.loc 2 755 27 view .LVU1995
 7812 0814 B7EEC77A 		vcvt.f64.f32	d7, s14
 7813 0818 9FED615B 		vldr.64	d5, .L526
 7814 081c A6EE057B 		vfma.f64	d7, d6, d5
 7815 0820 B7EEC77B 		vcvt.f32.f64	s14, d7
 756:Menus.cpp     ****         env.SetTime(daisysp::ADSR_SEG_RELEASE, this->releaseTime / 100);
 7816              		.loc 2 756 20 view .LVU1996
 7817 0824 87EE000A 		vdiv.f32	s0, s14, s0
 755:Menus.cpp     ****         this->releaseTime += this->encoderRight.Increment() * 3.3;
 7818              		.loc 2 755 27 view .LVU1997
 7819 0828 87ED747A 		vstr.32	s14, [r7, #464]
 756:Menus.cpp     ****         env.SetTime(daisysp::ADSR_SEG_RELEASE, this->releaseTime / 100);
 7820              		.loc 2 756 9 is_stmt 1 view .LVU1998
 756:Menus.cpp     ****         env.SetTime(daisysp::ADSR_SEG_RELEASE, this->releaseTime / 100);
 7821              		.loc 2 756 20 is_stmt 0 view .LVU1999
 7822 082c FFF7FEFF 		bl	_ZN7daisysp4Adsr7SetTimeEif
 7823              	.LVL524:
 757:Menus.cpp     ****         this->releaseTimeScaleDraw += this->encoderRight.Increment();
 7824              		.loc 2 757 9 is_stmt 1 view .LVU2000
 7825              	.LBB2384:
 7826              	.LBI2384:
 7827              		.loc 3 41 20 view .LVU2001
 7828              	.LBB2385:
 7829              		.loc 3 41 40 view .LVU2002
 7830              		.loc 3 41 40 is_stmt 0 view .LVU2003
 7831              	.LBE2385:
 7832              	.LBE2384:
 757:Menus.cpp     ****         this->releaseTimeScaleDraw += this->encoderRight.Increment();
 7833              		.loc 2 757 36 view .LVU2004
 7834 0830 D7ED127A 		vldr.32	s15, [r7, #72]	@ int
 7835 0834 D7ED766A 		vldr.32	s13, [r7, #472]
 758:Menus.cpp     ****         if(this->releaseTimeScaleDraw >= screen.Width() / 4)
 7836              		.loc 2 758 9 view .LVU2005
 7837 0838 9FED5B7A 		vldr.32	s14, .L526+8
 757:Menus.cpp     ****         this->releaseTimeScaleDraw += this->encoderRight.Increment();
 7838              		.loc 2 757 36 view .LVU2006
 7839 083c F8EEE77A 		vcvt.f32.s32	s15, s15
 7840 0840 77EEA67A 		vadd.f32	s15, s15, s13
 758:Menus.cpp     ****         if(this->releaseTimeScaleDraw >= screen.Width() / 4)
 7841              		.loc 2 758 9 is_stmt 1 view .LVU2007
 7842 0844 F4EEC77A 		vcmpe.f32	s15, s14
 7843 0848 F1EE10FA 		vmrs	APSR_nzcv, FPSCR
 7844 084c 76DA     		bge	.L520
 762:Menus.cpp     ****         if(this->releaseTimeScaleDraw <= 0)
 7845              		.loc 2 762 9 view .LVU2008
 7846 084e F5EEC07A 		vcmpe.f32	s15, #0
 7847 0852 0023     		movs	r3, #0
 7848 0854 F1EE10FA 		vmrs	APSR_nzcv, FPSCR
 757:Menus.cpp     ****         this->releaseTimeScaleDraw += this->encoderRight.Increment();
 7849              		.loc 2 757 36 is_stmt 0 view .LVU2009
 7850 0858 8CBF     		ite	hi
 7851 085a C7ED767A 		vstrhi.32	s15, [r7, #472]
 764:Menus.cpp     ****             this->releaseTimeScaleDraw = 0;
 7852              		.loc 2 764 13 is_stmt 1 view .LVU2010
 764:Menus.cpp     ****             this->releaseTimeScaleDraw = 0;
ARM GAS  C:\Users\VINCIU~1\AppData\Local\Temp\ccdS0pnQ.s 			page 200


 7853              		.loc 2 764 40 is_stmt 0 view .LVU2011
 7854 085e C7F8D831 		strls	r3, [r7, #472]	@ float
 7855              	.L383:
 766:Menus.cpp     ****         if(this->releaseTime >= 100)
 7856              		.loc 2 766 9 is_stmt 1 view .LVU2012
 766:Menus.cpp     ****         if(this->releaseTime >= 100)
 7857              		.loc 2 766 18 is_stmt 0 view .LVU2013
 7858 0862 D7ED747A 		vldr.32	s15, [r7, #464]
 766:Menus.cpp     ****         if(this->releaseTime >= 100)
 7859              		.loc 2 766 9 view .LVU2014
 7860 0866 9FED517A 		vldr.32	s14, .L526+12
 7861 086a F4EEC77A 		vcmpe.f32	s15, s14
 7862 086e F1EE10FA 		vmrs	APSR_nzcv, FPSCR
 7863 0872 C0F28180 		blt	.L508
 768:Menus.cpp     ****             this->releaseTime = 100;
 7864              		.loc 2 768 13 is_stmt 1 view .LVU2015
 768:Menus.cpp     ****             this->releaseTime = 100;
 7865              		.loc 2 768 31 is_stmt 0 view .LVU2016
 7866 0876 87ED747A 		vstr.32	s14, [r7, #464]
 770:Menus.cpp     ****         if(this->releaseTime <= 0)
 7867              		.loc 2 770 9 is_stmt 1 view .LVU2017
 7868              	.L387:
 774:Menus.cpp     ****         screen.DrawRect(76, 0, 88, 13, true, false);
 7869              		.loc 2 774 9 view .LVU2018
 7870              	.LVL525:
 7871              	.LBB2386:
 7872              	.LBI2386:
 217:../../libdaisy/src/hid/disp/display.h ****                   uint_fast8_t y1,
 7873              		.loc 6 217 10 view .LVU2019
 7874              	.LBB2387:
 7875              	.LBI2387:
 181:../../libdaisy/src/hid/disp/display.h ****                   uint_fast8_t y1,
 7876              		.loc 6 181 10 view .LVU2020
 7877              	.LBB2388:
 7878              	.LBB2389:
 7879              	.LBI2389:
  41:../../libdaisy/src/hid/disp/oled_display.h ****     {
 7880              		.loc 1 41 10 view .LVU2021
 7881              	.LBB2390:
 7882              	.LBI2390:
 239:../../libdaisy/src/dev/oled_ssd130x.h ****     {
 7883              		.loc 5 239 10 view .LVU2022
 7884              	.LBB2391:
 244:../../libdaisy/src/dev/oled_ssd130x.h ****         else
 7885              		.loc 5 244 42 is_stmt 0 view .LVU2023
 7886 087a 94F86C20 		ldrb	r2, [r4, #108]	@ zero_extendqisi2
 7887 087e 04F15F03 		add	r3, r4, #95
 7888 0882 04F16B01 		add	r1, r4, #107
 7889 0886 42F00102 		orr	r2, r2, #1
 7890 088a 84F86C20 		strb	r2, [r4, #108]
 7891              	.LVL526:
 244:../../libdaisy/src/dev/oled_ssd130x.h ****         else
 7892              		.loc 5 244 42 view .LVU2024
 7893              	.LBE2391:
 7894              	.LBE2390:
 7895              	.LBE2389:
 199:../../libdaisy/src/hid/disp/display.h ****         {
ARM GAS  C:\Users\VINCIU~1\AppData\Local\Temp\ccdS0pnQ.s 			page 201


 7896              		.loc 6 199 26 is_stmt 1 view .LVU2025
 7897              	.L389:
 7898              	.LBB2392:
 7899              	.LBI2392:
  41:../../libdaisy/src/hid/disp/oled_display.h ****     {
 7900              		.loc 1 41 10 view .LVU2026
 7901              	.LBB2393:
 7902              	.LBI2393:
 239:../../libdaisy/src/dev/oled_ssd130x.h ****     {
 7903              		.loc 5 239 10 view .LVU2027
 7904              	.LBB2394:
 244:../../libdaisy/src/dev/oled_ssd130x.h ****         else
 7905              		.loc 5 244 42 is_stmt 0 view .LVU2028
 7906 088e 13F8012F 		ldrb	r2, [r3, #1]!	@ zero_extendqisi2
 7907              	.LVL527:
 244:../../libdaisy/src/dev/oled_ssd130x.h ****         else
 7908              		.loc 5 244 42 view .LVU2029
 7909 0892 42F00102 		orr	r2, r2, #1
 7910              	.LBE2394:
 7911              	.LBE2393:
 7912              	.LBE2392:
 199:../../libdaisy/src/hid/disp/display.h ****         {
 7913              		.loc 6 199 26 view .LVU2030
 7914 0896 9942     		cmp	r1, r3
 7915              	.LBB2397:
 7916              	.LBB2396:
 7917              	.LBB2395:
 244:../../libdaisy/src/dev/oled_ssd130x.h ****         else
 7918              		.loc 5 244 42 view .LVU2031
 7919 0898 1A70     		strb	r2, [r3]
 7920              	.LVL528:
 244:../../libdaisy/src/dev/oled_ssd130x.h ****         else
 7921              		.loc 5 244 42 view .LVU2032
 7922              	.LBE2395:
 7923              	.LBE2396:
 7924              	.LBE2397:
 199:../../libdaisy/src/hid/disp/display.h ****         {
 7925              		.loc 6 199 26 is_stmt 1 view .LVU2033
 7926 089a F8D1     		bne	.L389
 7927              	.LVL529:
 199:../../libdaisy/src/hid/disp/display.h ****         {
 7928              		.loc 6 199 26 is_stmt 0 view .LVU2034
 7929              	.LBE2388:
 7930              	.LBE2387:
 7931              	.LBB2398:
 7932              	.LBI2398:
 181:../../libdaisy/src/hid/disp/display.h ****                   uint_fast8_t y1,
 7933              		.loc 6 181 10 is_stmt 1 view .LVU2035
 7934              	.LBB2399:
 7935              	.LBB2400:
 7936              	.LBI2400:
  41:../../libdaisy/src/hid/disp/oled_display.h ****     {
 7937              		.loc 1 41 10 view .LVU2036
 7938              	.LBB2401:
 7939              	.LBI2401:
 239:../../libdaisy/src/dev/oled_ssd130x.h ****     {
 7940              		.loc 5 239 10 view .LVU2037
ARM GAS  C:\Users\VINCIU~1\AppData\Local\Temp\ccdS0pnQ.s 			page 202


 7941              	.LBB2402:
 244:../../libdaisy/src/dev/oled_ssd130x.h ****         else
 7942              		.loc 5 244 42 is_stmt 0 view .LVU2038
 7943 089c 94F8EC20 		ldrb	r2, [r4, #236]	@ zero_extendqisi2
 7944 08a0 0023     		movs	r3, #0
 7945 08a2 42F02002 		orr	r2, r2, #32
 7946 08a6 84F8EC20 		strb	r2, [r4, #236]
 7947              	.LVL530:
 244:../../libdaisy/src/dev/oled_ssd130x.h ****         else
 7948              		.loc 5 244 42 view .LVU2039
 7949              	.LBE2402:
 7950              	.LBE2401:
 7951              	.LBE2400:
 199:../../libdaisy/src/hid/disp/display.h ****         {
 7952              		.loc 6 199 26 is_stmt 1 view .LVU2040
 7953              	.L390:
 7954              	.LBB2403:
 7955              	.LBI2403:
  41:../../libdaisy/src/hid/disp/oled_display.h ****     {
 7956              		.loc 1 41 10 view .LVU2041
 7957              	.LBB2404:
 7958              	.LBI2404:
 239:../../libdaisy/src/dev/oled_ssd130x.h ****     {
 7959              		.loc 5 239 10 view .LVU2042
 7960              	.LBB2405:
 244:../../libdaisy/src/dev/oled_ssd130x.h ****         else
 7961              		.loc 5 244 28 is_stmt 0 view .LVU2043
 7962 08aa D908     		lsrs	r1, r3, #3
 244:../../libdaisy/src/dev/oled_ssd130x.h ****         else
 7963              		.loc 5 244 54 view .LVU2044
 7964 08ac 03F00700 		and	r0, r3, #7
 244:../../libdaisy/src/dev/oled_ssd130x.h ****         else
 7965              		.loc 5 244 48 view .LVU2045
 7966 08b0 0122     		movs	r2, #1
 244:../../libdaisy/src/dev/oled_ssd130x.h ****         else
 7967              		.loc 5 244 42 view .LVU2046
 7968 08b2 04EBC111 		add	r1, r4, r1, lsl #7
 7969              	.LBE2405:
 7970              	.LBE2404:
 7971              	.LBE2403:
 212:../../libdaisy/src/hid/disp/display.h ****             }
 7972              		.loc 6 212 20 view .LVU2047
 7973 08b6 1344     		add	r3, r3, r2
 7974              	.LVL531:
 7975              	.LBB2410:
 7976              	.LBB2408:
 7977              	.LBB2406:
 244:../../libdaisy/src/dev/oled_ssd130x.h ****         else
 7978              		.loc 5 244 48 view .LVU2048
 7979 08b8 8240     		lsls	r2, r2, r0
 244:../../libdaisy/src/dev/oled_ssd130x.h ****         else
 7980              		.loc 5 244 42 view .LVU2049
 7981 08ba 91F86C00 		ldrb	r0, [r1, #108]	@ zero_extendqisi2
 7982              	.LBE2406:
 7983              	.LBE2408:
 7984              	.LBE2410:
 199:../../libdaisy/src/hid/disp/display.h ****         {
ARM GAS  C:\Users\VINCIU~1\AppData\Local\Temp\ccdS0pnQ.s 			page 203


 7985              		.loc 6 199 26 view .LVU2050
 7986 08be 0D2B     		cmp	r3, #13
 7987              	.LBB2411:
 7988              	.LBB2409:
 7989              	.LBB2407:
 244:../../libdaisy/src/dev/oled_ssd130x.h ****         else
 7990              		.loc 5 244 42 view .LVU2051
 7991 08c0 42EA0002 		orr	r2, r2, r0
 7992 08c4 81F86C20 		strb	r2, [r1, #108]
 7993              	.LVL532:
 244:../../libdaisy/src/dev/oled_ssd130x.h ****         else
 7994              		.loc 5 244 42 view .LVU2052
 7995              	.LBE2407:
 7996              	.LBE2409:
 7997              	.LBE2411:
 199:../../libdaisy/src/hid/disp/display.h ****         {
 7998              		.loc 6 199 26 is_stmt 1 view .LVU2053
 7999 08c8 EFD1     		bne	.L390
 8000              	.LVL533:
 199:../../libdaisy/src/hid/disp/display.h ****         {
 8001              		.loc 6 199 26 is_stmt 0 view .LVU2054
 8002              	.LBE2399:
 8003              	.LBE2398:
 8004              	.LBB2412:
 8005              	.LBI2412:
 181:../../libdaisy/src/hid/disp/display.h ****                   uint_fast8_t y1,
 8006              		.loc 6 181 10 is_stmt 1 view .LVU2055
 8007              	.LBB2413:
 8008              	.LBB2414:
 8009              	.LBI2414:
  41:../../libdaisy/src/hid/disp/oled_display.h ****     {
 8010              		.loc 1 41 10 view .LVU2056
 8011              	.LBB2415:
 8012              	.LBI2415:
 239:../../libdaisy/src/dev/oled_ssd130x.h ****     {
 8013              		.loc 5 239 10 view .LVU2057
 8014              	.LBB2416:
 244:../../libdaisy/src/dev/oled_ssd130x.h ****         else
 8015              		.loc 5 244 42 is_stmt 0 view .LVU2058
 8016 08ca 94F8E010 		ldrb	r1, [r4, #224]	@ zero_extendqisi2
 8017 08ce 04F1ED02 		add	r2, r4, #237
 8018 08d2 04F1E100 		add	r0, r4, #225
 8019 08d6 41F02001 		orr	r1, r1, #32
 8020 08da 84F8E010 		strb	r1, [r4, #224]
 8021              	.LVL534:
 244:../../libdaisy/src/dev/oled_ssd130x.h ****         else
 8022              		.loc 5 244 42 view .LVU2059
 8023              	.LBE2416:
 8024              	.LBE2415:
 8025              	.LBE2414:
 199:../../libdaisy/src/hid/disp/display.h ****         {
 8026              		.loc 6 199 26 is_stmt 1 view .LVU2060
 8027              	.L391:
 8028              	.LBB2417:
 8029              	.LBI2417:
  41:../../libdaisy/src/hid/disp/oled_display.h ****     {
 8030              		.loc 1 41 10 view .LVU2061
ARM GAS  C:\Users\VINCIU~1\AppData\Local\Temp\ccdS0pnQ.s 			page 204


 8031              	.LBB2418:
 8032              	.LBI2418:
 239:../../libdaisy/src/dev/oled_ssd130x.h ****     {
 8033              		.loc 5 239 10 view .LVU2062
 8034              	.LBB2419:
 244:../../libdaisy/src/dev/oled_ssd130x.h ****         else
 8035              		.loc 5 244 42 is_stmt 0 view .LVU2063
 8036 08de 12F8011D 		ldrb	r1, [r2, #-1]!	@ zero_extendqisi2
 8037              	.LVL535:
 244:../../libdaisy/src/dev/oled_ssd130x.h ****         else
 8038              		.loc 5 244 42 view .LVU2064
 8039 08e2 41F02001 		orr	r1, r1, #32
 8040              	.LBE2419:
 8041              	.LBE2418:
 8042              	.LBE2417:
 199:../../libdaisy/src/hid/disp/display.h ****         {
 8043              		.loc 6 199 26 view .LVU2065
 8044 08e6 9042     		cmp	r0, r2
 8045              	.LBB2422:
 8046              	.LBB2421:
 8047              	.LBB2420:
 244:../../libdaisy/src/dev/oled_ssd130x.h ****         else
 8048              		.loc 5 244 42 view .LVU2066
 8049 08e8 1170     		strb	r1, [r2]
 8050              	.LVL536:
 244:../../libdaisy/src/dev/oled_ssd130x.h ****         else
 8051              		.loc 5 244 42 view .LVU2067
 8052              	.LBE2420:
 8053              	.LBE2421:
 8054              	.LBE2422:
 199:../../libdaisy/src/hid/disp/display.h ****         {
 8055              		.loc 6 199 26 is_stmt 1 view .LVU2068
 8056 08ea F8D1     		bne	.L391
 8057              	.LVL537:
 199:../../libdaisy/src/hid/disp/display.h ****         {
 8058              		.loc 6 199 26 is_stmt 0 view .LVU2069
 8059              	.LBE2413:
 8060              	.LBE2412:
 8061              	.LBB2423:
 8062              	.LBI2423:
 181:../../libdaisy/src/hid/disp/display.h ****                   uint_fast8_t y1,
 8063              		.loc 6 181 10 is_stmt 1 view .LVU2070
 8064              	.LBB2424:
 8065              	.LBB2425:
 8066              	.LBI2425:
  41:../../libdaisy/src/hid/disp/oled_display.h ****     {
 8067              		.loc 1 41 10 view .LVU2071
 8068              	.LBB2426:
 8069              	.LBI2426:
 239:../../libdaisy/src/dev/oled_ssd130x.h ****     {
 8070              		.loc 5 239 10 view .LVU2072
 8071              	.LBB2427:
 244:../../libdaisy/src/dev/oled_ssd130x.h ****         else
 8072              		.loc 5 244 42 is_stmt 0 view .LVU2073
 8073 08ec 94F86020 		ldrb	r2, [r4, #96]	@ zero_extendqisi2
 8074 08f0 42F00102 		orr	r2, r2, #1
 8075 08f4 84F86020 		strb	r2, [r4, #96]
ARM GAS  C:\Users\VINCIU~1\AppData\Local\Temp\ccdS0pnQ.s 			page 205


 8076              	.LVL538:
 244:../../libdaisy/src/dev/oled_ssd130x.h ****         else
 8077              		.loc 5 244 42 view .LVU2074
 8078              	.LBE2427:
 8079              	.LBE2426:
 8080              	.LBE2425:
 199:../../libdaisy/src/hid/disp/display.h ****         {
 8081              		.loc 6 199 26 is_stmt 1 view .LVU2075
 8082              	.L392:
 8083              	.LBB2428:
 8084              	.LBI2428:
  41:../../libdaisy/src/hid/disp/oled_display.h ****     {
 8085              		.loc 1 41 10 view .LVU2076
 8086              	.LBB2429:
 8087              	.LBI2429:
 239:../../libdaisy/src/dev/oled_ssd130x.h ****     {
 8088              		.loc 5 239 10 view .LVU2077
 8089              	.LBB2430:
 244:../../libdaisy/src/dev/oled_ssd130x.h ****         else
 8090              		.loc 5 244 28 is_stmt 0 view .LVU2078
 8091 08f8 D908     		lsrs	r1, r3, #3
 244:../../libdaisy/src/dev/oled_ssd130x.h ****         else
 8092              		.loc 5 244 54 view .LVU2079
 8093 08fa 03F00700 		and	r0, r3, #7
 244:../../libdaisy/src/dev/oled_ssd130x.h ****         else
 8094              		.loc 5 244 48 view .LVU2080
 8095 08fe 0122     		movs	r2, #1
 8096              	.LBE2430:
 8097              	.LBE2429:
 8098              	.LBE2428:
 199:../../libdaisy/src/hid/disp/display.h ****         {
 8099              		.loc 6 199 26 view .LVU2081
 8100 0900 013B     		subs	r3, r3, #1
 8101              	.LVL539:
 8102              	.LBB2433:
 8103              	.LBB2432:
 8104              	.LBB2431:
 244:../../libdaisy/src/dev/oled_ssd130x.h ****         else
 8105              		.loc 5 244 42 view .LVU2082
 8106 0902 04EBC111 		add	r1, r4, r1, lsl #7
 244:../../libdaisy/src/dev/oled_ssd130x.h ****         else
 8107              		.loc 5 244 48 view .LVU2083
 8108 0906 02FA00F2 		lsl	r2, r2, r0
 244:../../libdaisy/src/dev/oled_ssd130x.h ****         else
 8109              		.loc 5 244 42 view .LVU2084
 8110 090a 91F86000 		ldrb	r0, [r1, #96]	@ zero_extendqisi2
 8111 090e 42EA0002 		orr	r2, r2, r0
 8112 0912 81F86020 		strb	r2, [r1, #96]
 8113              	.LVL540:
 244:../../libdaisy/src/dev/oled_ssd130x.h ****         else
 8114              		.loc 5 244 42 view .LVU2085
 8115              	.LBE2431:
 8116              	.LBE2432:
 8117              	.LBE2433:
 199:../../libdaisy/src/hid/disp/display.h ****         {
 8118              		.loc 6 199 26 is_stmt 1 view .LVU2086
 8119 0916 EFD1     		bne	.L392
ARM GAS  C:\Users\VINCIU~1\AppData\Local\Temp\ccdS0pnQ.s 			page 206


 8120 0918 FFF797BB 		b	.L380
 8121              	.LVL541:
 8122              	.L511:
 199:../../libdaisy/src/hid/disp/display.h ****         {
 8123              		.loc 6 199 26 is_stmt 0 view .LVU2087
 8124              	.LBE2424:
 8125              	.LBE2423:
 8126              	.LBE2386:
 669:Menus.cpp     ****         this->menuStateEnv = this->menuStateEnv - 1;
 8127              		.loc 2 669 9 is_stmt 1 view .LVU2088
 670:Menus.cpp     ****         if(this->menuStateEnv < 0)
 8128              		.loc 2 670 9 view .LVU2089
 8129 091c 013B     		subs	r3, r3, #1
 8130 091e 3FF567AF 		bmi	.L332
 669:Menus.cpp     ****         this->menuStateEnv = this->menuStateEnv - 1;
 8131              		.loc 2 669 28 is_stmt 0 view .LVU2090
 8132 0922 C7F8AC31 		str	r3, [r7, #428]
 8133 0926 FFF77FBB 		b	.L333
 8134              	.L519:
 737:Menus.cpp     ****             this->sustatinLevelScaleDraw = screen.Width() / 4;
 8135              		.loc 2 737 13 is_stmt 1 view .LVU2091
 737:Menus.cpp     ****             this->sustatinLevelScaleDraw = screen.Width() / 4;
 8136              		.loc 2 737 42 is_stmt 0 view .LVU2092
 8137 092a 87ED727A 		vstr.32	s14, [r7, #456]
 739:Menus.cpp     ****         if(this->sustatinLevelScaleDraw <= 0)
 8138              		.loc 2 739 9 is_stmt 1 view .LVU2093
 8139 092e FAE6     		b	.L368
 8140              	.L517:
 691:Menus.cpp     ****             attackTimeScaleDraw = screen.Width() / 4;
 8141              		.loc 2 691 13 view .LVU2094
 691:Menus.cpp     ****             attackTimeScaleDraw = screen.Width() / 4;
 8142              		.loc 2 691 33 is_stmt 0 view .LVU2095
 8143 0930 87ED697A 		vstr.32	s14, [r7, #420]
 693:Menus.cpp     ****         if(attackTimeScaleDraw <= 0)
 8144              		.loc 2 693 9 is_stmt 1 view .LVU2096
 8145 0934 C9E5     		b	.L341
 8146              	.L518:
 714:Menus.cpp     ****             decayTimeScaleDraw = screen.Width() / 4;
 8147              		.loc 2 714 13 view .LVU2097
 714:Menus.cpp     ****             decayTimeScaleDraw = screen.Width() / 4;
 8148              		.loc 2 714 32 is_stmt 0 view .LVU2098
 8149 0936 87ED6E7A 		vstr.32	s14, [r7, #440]
 716:Menus.cpp     ****         if(decayTimeScaleDraw <= 0)
 8150              		.loc 2 716 9 is_stmt 1 view .LVU2099
 8151 093a 58E6     		b	.L354
 8152              	.L520:
 760:Menus.cpp     ****             this->releaseTimeScaleDraw = screen.Width() / 4;
 8153              		.loc 2 760 13 view .LVU2100
 760:Menus.cpp     ****             this->releaseTimeScaleDraw = screen.Width() / 4;
 8154              		.loc 2 760 40 is_stmt 0 view .LVU2101
 8155 093c 87ED767A 		vstr.32	s14, [r7, #472]
 762:Menus.cpp     ****         if(this->releaseTimeScaleDraw <= 0)
 8156              		.loc 2 762 9 is_stmt 1 view .LVU2102
 8157 0940 8FE7     		b	.L383
 8158              	.LVL542:
 8159              	.L446:
 8160              	.LBB2434:
ARM GAS  C:\Users\VINCIU~1\AppData\Local\Temp\ccdS0pnQ.s 			page 207


 8161              	.LBB2145:
 190:../../libdaisy/src/hid/disp/display.h ****         int_fast16_t error  = deltaX - deltaY;
 8162              		.loc 6 190 42 is_stmt 0 view .LVU2103
 8163 0942 0123     		movs	r3, #1
 8164 0944 0493     		str	r3, [sp, #16]
 8165 0946 27E4     		b	.L404
 8166              	.LVL543:
 8167              	.L505:
 190:../../libdaisy/src/hid/disp/display.h ****         int_fast16_t error  = deltaX - deltaY;
 8168              		.loc 6 190 42 view .LVU2104
 8169              	.LBE2145:
 8170              	.LBE2434:
 747:Menus.cpp     ****         if(this->sustatinLevel <= 0)
 8171              		.loc 2 747 9 is_stmt 1 view .LVU2105
 8172 0948 F5EEC07A 		vcmpe.f32	s15, #0
 8173 094c 0023     		movs	r3, #0
 8174 094e F1EE10FA 		vmrs	APSR_nzcv, FPSCR
 749:Menus.cpp     ****             this->sustatinLevel = 0;
 8175              		.loc 2 749 13 view .LVU2106
 749:Menus.cpp     ****             this->sustatinLevel = 0;
 8176              		.loc 2 749 33 is_stmt 0 view .LVU2107
 8177 0952 98BF     		it	ls
 8178 0954 C7F8C031 		strls	r3, [r7, #448]	@ float
 8179 0958 F1E6     		b	.L372
 8180              	.L501:
 701:Menus.cpp     ****         if(attackTime <= 0)
 8181              		.loc 2 701 9 is_stmt 1 view .LVU2108
 8182 095a F5EEC07A 		vcmpe.f32	s15, #0
 8183 095e 0023     		movs	r3, #0
 8184 0960 F1EE10FA 		vmrs	APSR_nzcv, FPSCR
 703:Menus.cpp     ****             attackTime = 0;
 8185              		.loc 2 703 13 view .LVU2109
 703:Menus.cpp     ****             attackTime = 0;
 8186              		.loc 2 703 24 is_stmt 0 view .LVU2110
 8187 0964 98BF     		it	ls
 8188 0966 C7F89831 		strls	r3, [r7, #408]	@ float
 8189 096a BAE5     		b	.L345
 8190              	.LVL544:
 8191              	.L435:
 8192              	.LBB2435:
 8193              	.LBB2331:
  68:../../DaisySP/Source/Control/adsr.h ****                                        : (sus_level > 1.f) ? 1.f : sus_level;
 8194              		.loc 7 68 40 view .LVU2111
 8195 096c 9FED106A 		vldr.32	s12, .L526+16
 8196              	.LVL545:
  68:../../DaisySP/Source/Control/adsr.h ****                                        : (sus_level > 1.f) ? 1.f : sus_level;
 8197              		.loc 7 68 40 view .LVU2112
 8198 0970 BFE6     		b	.L365
 8199              	.LVL546:
 8200              	.L516:
  68:../../DaisySP/Source/Control/adsr.h ****                                        : (sus_level > 1.f) ? 1.f : sus_level;
 8201              		.loc 7 68 40 view .LVU2113
 8202              	.LBE2331:
 8203              	.LBE2435:
 8204              	.LBB2436:
 8205              	.LBB2146:
 199:../../libdaisy/src/hid/disp/display.h ****         {
ARM GAS  C:\Users\VINCIU~1\AppData\Local\Temp\ccdS0pnQ.s 			page 208


 8206              		.loc 6 199 26 view .LVU2114
 8207 0972 0023     		movs	r3, #0
 8208 0974 0593     		str	r3, [sp, #20]
 8209 0976 3AE4     		b	.L403
 8210              	.LVL547:
 8211              	.L508:
 199:../../libdaisy/src/hid/disp/display.h ****         {
 8212              		.loc 6 199 26 view .LVU2115
 8213              	.LBE2146:
 8214              	.LBE2436:
 770:Menus.cpp     ****         if(this->releaseTime <= 0)
 8215              		.loc 2 770 9 is_stmt 1 view .LVU2116
 8216 0978 F5EEC07A 		vcmpe.f32	s15, #0
 8217 097c 0023     		movs	r3, #0
 8218 097e F1EE10FA 		vmrs	APSR_nzcv, FPSCR
 772:Menus.cpp     ****             this->releaseTime = 0;
 8219              		.loc 2 772 13 view .LVU2117
 772:Menus.cpp     ****             this->releaseTime = 0;
 8220              		.loc 2 772 31 is_stmt 0 view .LVU2118
 8221 0982 98BF     		it	ls
 8222 0984 C7F8D031 		strls	r3, [r7, #464]	@ float
 8223 0988 77E7     		b	.L387
 8224              	.L503:
 724:Menus.cpp     ****         if(decayTime <= 0)
 8225              		.loc 2 724 9 is_stmt 1 view .LVU2119
 8226 098a F5EEC07A 		vcmpe.f32	s15, #0
 8227 098e 0023     		movs	r3, #0
 8228 0990 F1EE10FA 		vmrs	APSR_nzcv, FPSCR
 726:Menus.cpp     ****             decayTime = 0;
 8229              		.loc 2 726 13 view .LVU2120
 726:Menus.cpp     ****             decayTime = 0;
 8230              		.loc 2 726 23 is_stmt 0 view .LVU2121
 8231 0994 98BF     		it	ls
 8232 0996 C7F8B431 		strls	r3, [r7, #436]	@ float
 8233 099a 34E6     		b	.L358
 8234              	.L527:
 8235 099c AFF30080 		.align	3
 8236              	.L526:
 8237 09a0 66666666 		.word	1717986918
 8238 09a4 66660A40 		.word	1074423398
 8239 09a8 00000042 		.word	1107296256
 8240 09ac 0000C842 		.word	1120403456
 8241 09b0 0AD723BC 		.word	-1138501878
 8242              		.cfi_endproc
 8243              	.LFE4042:
 8245              		.section	.rodata._ZN5Menus5Menu1E23OledDisplayExtravaganzaRNS_8oscVoiceE.str1.4,"aMS",%progbits,1
 8246              		.align	2
 8247              	.LC5:
 8248 0000 00       		.ascii	"\000"
 8249 0001 000000   		.align	2
 8250              	.LC6:
 8251 0004 4F736300 		.ascii	"Osc\000"
 8252              		.align	2
 8253              	.LC7:
 8254 0008 53656D69 		.ascii	"Semi_%dst\000"
 8254      5F256473 
 8254      7400
ARM GAS  C:\Users\VINCIU~1\AppData\Local\Temp\ccdS0pnQ.s 			page 209


 8255 0012 0000     		.align	2
 8256              	.LC8:
 8257 0014 46696E65 		.ascii	"Fine_%d%%\000"
 8257      5F256425 
 8257      2500
 8258              		.section	.text._ZN5Menus5Menu1E23OledDisplayExtravaganzaRNS_8oscVoiceE,"ax",%progbits
 8259              		.align	1
 8260              		.p2align 2,,3
 8261              		.global	_ZN5Menus5Menu1E23OledDisplayExtravaganzaRNS_8oscVoiceE
 8262              		.syntax unified
 8263              		.thumb
 8264              		.thumb_func
 8265              		.fpu fpv5-d16
 8267              	_ZN5Menus5Menu1E23OledDisplayExtravaganzaRNS_8oscVoiceE:
 8268              	.LVL548:
 8269              	.LFB4040:
 227:Menus.cpp     **** {
 8270              		.loc 2 227 1 is_stmt 1 view -0
 8271              		.cfi_startproc
 8272              		@ args = 0, pretend = 0, frame = 8
 8273              		@ frame_needed = 0, uses_anonymous_args = 0
 227:Menus.cpp     **** {
 8274              		.loc 2 227 1 is_stmt 0 view .LVU2123
 8275 0000 2DE9F043 		push	{r4, r5, r6, r7, r8, r9, lr}
 8276              		.cfi_def_cfa_offset 28
 8277              		.cfi_offset 4, -28
 8278              		.cfi_offset 5, -24
 8279              		.cfi_offset 6, -20
 8280              		.cfi_offset 7, -16
 8281              		.cfi_offset 8, -12
 8282              		.cfi_offset 9, -8
 8283              		.cfi_offset 14, -4
 228:Menus.cpp     ****     screen.Fill(!on);
 8284              		.loc 2 228 18 view .LVU2124
 8285 0004 90F8E581 		ldrb	r8, [r0, #485]	@ zero_extendqisi2
 8286 0008 01F11406 		add	r6, r1, #20
 227:Menus.cpp     **** {
 8287              		.loc 2 227 1 view .LVU2125
 8288 000c 0C46     		mov	r4, r1
 8289 000e 0546     		mov	r5, r0
 228:Menus.cpp     ****     screen.Fill(!on);
 8290              		.loc 2 228 5 is_stmt 1 view .LVU2126
 8291              	.LVL549:
 8292              	.LBB2658:
 8293              	.LBI2658:
  33:../../libdaisy/src/hid/disp/oled_display.h **** 
 8294              		.loc 1 33 10 view .LVU2127
 8295              	.LBB2659:
 8296              	.LBI2659:
 249:../../libdaisy/src/dev/oled_ssd130x.h ****     {
 8297              		.loc 5 249 10 view .LVU2128
 8298              	.LBB2660:
 251:../../libdaisy/src/dev/oled_ssd130x.h ****         {
 8299              		.loc 5 251 29 view .LVU2129
 253:../../libdaisy/src/dev/oled_ssd130x.h ****         }
 8300              		.loc 5 253 24 is_stmt 0 view .LVU2130
 8301 0010 88F00101 		eor	r1, r8, #1
ARM GAS  C:\Users\VINCIU~1\AppData\Local\Temp\ccdS0pnQ.s 			page 210


 8302              	.LVL550:
 253:../../libdaisy/src/dev/oled_ssd130x.h ****         }
 8303              		.loc 5 253 24 view .LVU2131
 8304              	.LBE2660:
 8305              	.LBE2659:
 8306              	.LBE2658:
 227:Menus.cpp     **** {
 8307              		.loc 2 227 1 view .LVU2132
 8308 0014 1746     		mov	r7, r2
 8309              	.LBB2667:
 8310              	.LBB2664:
 8311              	.LBB2661:
 253:../../libdaisy/src/dev/oled_ssd130x.h ****         }
 8312              		.loc 5 253 24 view .LVU2133
 8313 0016 3046     		mov	r0, r6
 8314              	.LVL551:
 253:../../libdaisy/src/dev/oled_ssd130x.h ****         }
 8315              		.loc 5 253 24 view .LVU2134
 8316 0018 4FF48062 		mov	r2, #1024
 8317              	.LVL552:
 253:../../libdaisy/src/dev/oled_ssd130x.h ****         }
 8318              		.loc 5 253 24 view .LVU2135
 8319 001c 4942     		rsbs	r1, r1, #0
 8320              	.LBE2661:
 8321              	.LBE2664:
 8322              	.LBE2667:
 227:Menus.cpp     **** {
 8323              		.loc 2 227 1 view .LVU2136
 8324 001e 2DED028B 		vpush.64	{d8}
 8325              		.cfi_def_cfa_offset 36
 8326              		.cfi_offset 80, -36
 8327              		.cfi_offset 81, -32
 8328              	.LBB2668:
 8329              	.LBB2665:
 8330              	.LBB2662:
 253:../../libdaisy/src/dev/oled_ssd130x.h ****         }
 8331              		.loc 5 253 24 view .LVU2137
 8332 0022 C9B2     		uxtb	r1, r1
 8333              	.LBE2662:
 8334              	.LBE2665:
 8335              	.LBE2668:
 227:Menus.cpp     **** {
 8336              		.loc 2 227 1 view .LVU2138
 8337 0024 87B0     		sub	sp, sp, #28
 8338              		.cfi_def_cfa_offset 64
 8339              	.LBB2669:
 8340              	.LBB2666:
 8341              	.LBB2663:
 253:../../libdaisy/src/dev/oled_ssd130x.h ****         }
 8342              		.loc 5 253 24 view .LVU2139
 8343 0026 FFF7FEFF 		bl	memset
 8344              	.LVL553:
 253:../../libdaisy/src/dev/oled_ssd130x.h ****         }
 8345              		.loc 5 253 24 view .LVU2140
 8346              	.LBE2663:
 8347              	.LBE2666:
 8348              	.LBE2669:
ARM GAS  C:\Users\VINCIU~1\AppData\Local\Temp\ccdS0pnQ.s 			page 211


 229:Menus.cpp     ****     if(this->buttonLeft.RisingEdge())
 8349              		.loc 2 229 5 is_stmt 1 view .LVU2141
 8350              	.LBB2670:
 8351              	.LBI2670:
 8352              		.loc 4 69 17 view .LVU2142
 8353              	.LBB2671:
 8354              		.loc 4 69 38 view .LVU2143
 8355              		.loc 4 69 38 is_stmt 0 view .LVU2144
 8356              	.LBE2671:
 8357              	.LBE2670:
 229:Menus.cpp     ****     if(this->buttonLeft.RisingEdge())
 8358              		.loc 2 229 5 view .LVU2145
 8359 002a 95F85130 		ldrb	r3, [r5, #81]	@ zero_extendqisi2
 8360 002e 7F2B     		cmp	r3, #127
 8361 0030 00F0BC82 		beq	.L644
 238:Menus.cpp     ****     if(this->buttonRight.RisingEdge())
 8362              		.loc 2 238 5 is_stmt 1 view .LVU2146
 8363              	.LVL554:
 8364              	.LBB2672:
 8365              	.LBI2672:
 8366              		.loc 4 69 17 view .LVU2147
 8367              	.LBB2673:
 8368              		.loc 4 69 38 view .LVU2148
 8369              		.loc 4 69 38 is_stmt 0 view .LVU2149
 8370              	.LBE2673:
 8371              	.LBE2672:
 238:Menus.cpp     ****     if(this->buttonRight.RisingEdge())
 8372              		.loc 2 238 5 view .LVU2150
 8373 0034 95F86130 		ldrb	r3, [r5, #97]	@ zero_extendqisi2
 8374 0038 7F2B     		cmp	r3, #127
 8375 003a 00F0C082 		beq	.L645
 8376              	.L532:
 248:Menus.cpp     ****     screen.drawHorizontalToggle(46, 13, 8, on, this->OscSelector, "");
 8377              		.loc 2 248 5 is_stmt 1 view .LVU2151
 248:Menus.cpp     ****     screen.drawHorizontalToggle(46, 13, 8, on, this->OscSelector, "");
 8378              		.loc 2 248 32 is_stmt 0 view .LVU2152
 8379 003e 4146     		mov	r1, r8
 8380 0040 B2EE001A 		vmov.f32	s2, #8.0e+0
 8381 0044 F2EE0A0A 		vmov.f32	s1, #1.3e+1
 8382 0048 9FEDC30A 		vldr.32	s0, .L669
 8383 004c C34B     		ldr	r3, .L669+4
 8384 004e 2046     		mov	r0, r4
 8385 0050 95F87420 		ldrb	r2, [r5, #116]	@ zero_extendqisi2
 8386 0054 FFF7FEFF 		bl	_ZN23OledDisplayExtravaganza20drawHorizontalToggleEfffbbPKc
 8387              	.LVL555:
 250:Menus.cpp     ****     if(this->OscSelector == true)
 8388              		.loc 2 250 5 is_stmt 1 view .LVU2153
 8389 0058 95F87480 		ldrb	r8, [r5, #116]	@ zero_extendqisi2
 8390 005c B8F1000F 		cmp	r8, #0
 8391 0060 00F02681 		beq	.L534
 252:Menus.cpp     ****         screen.drawSlider(70, 7, 50, 3, on, ((this->drawSliderSemi)) / 40);
 8392              		.loc 2 252 9 view .LVU2154
 252:Menus.cpp     ****         screen.drawSlider(70, 7, 50, 3, on, ((this->drawSliderSemi)) / 40);
 8393              		.loc 2 252 26 is_stmt 0 view .LVU2155
 8394 0064 95F8E531 		ldrb	r3, [r5, #485]	@ zero_extendqisi2
 8395 0068 F0EE081A 		vmov.f32	s3, #3.0e+0
 8396 006c D5ED1E2A 		vldr.32	s5, [r5, #120]
ARM GAS  C:\Users\VINCIU~1\AppData\Local\Temp\ccdS0pnQ.s 			page 212


 8397 0070 F1EE0C0A 		vmov.f32	s1, #7.0e+0
 8398 0074 02EE103A 		vmov	s4, r3	@ int
 8399 0078 9FEDC68A 		vldr.32	s16, .L669+60
 8400 007c 2046     		mov	r0, r4
 8401 007e 9FEDB81A 		vldr.32	s2, .L669+8
 8402 0082 C2EE882A 		vdiv.f32	s5, s5, s16
 8403 0086 9FEDB70A 		vldr.32	s0, .L669+12
 257:Menus.cpp     ****         screen.WriteString(this->buff, Font_6x8, true);
 8404              		.loc 2 257 27 view .LVU2156
 8405 008a DFF8FC82 		ldr	r8, .L669+48
 8406 008e 4FF00109 		mov	r9, #1
 252:Menus.cpp     ****         screen.drawSlider(70, 7, 50, 3, on, ((this->drawSliderSemi)) / 40);
 8407              		.loc 2 252 26 view .LVU2157
 8408 0092 B8EE422A 		vcvt.f32.u32	s4, s4
 8409 0096 FFF7FEFF 		bl	_ZN23OledDisplayExtravaganza10drawSliderEffffff
 8410              	.LVL556:
 253:Menus.cpp     ****         screen.drawSlider(70, 40, 50, 3, on, drawSliderFine);
 8411              		.loc 2 253 9 is_stmt 1 view .LVU2158
 253:Menus.cpp     ****         screen.drawSlider(70, 40, 50, 3, on, drawSliderFine);
 8412              		.loc 2 253 26 is_stmt 0 view .LVU2159
 8413 009a 95F8E531 		ldrb	r3, [r5, #485]	@ zero_extendqisi2
 8414 009e F0EE081A 		vmov.f32	s3, #3.0e+0
 8415 00a2 D5ED1F2A 		vldr.32	s5, [r5, #124]
 8416 00a6 02EE103A 		vmov	s4, r3	@ int
 8417 00aa F0EE480A 		vmov.f32	s1, s16
 8418 00ae 2046     		mov	r0, r4
 8419 00b0 9FEDAB1A 		vldr.32	s2, .L669+8
 8420 00b4 B8EE422A 		vcvt.f32.u32	s4, s4
 8421 00b8 9FEDAA0A 		vldr.32	s0, .L669+12
 8422 00bc FFF7FEFF 		bl	_ZN23OledDisplayExtravaganza10drawSliderEffffff
 8423              	.LVL557:
 254:Menus.cpp     ****         screen.drawVerticalToggle(13, 51, 8, on, this->toggleOsc, "");
 8424              		.loc 2 254 9 is_stmt 1 view .LVU2160
 254:Menus.cpp     ****         screen.drawVerticalToggle(13, 51, 8, on, this->toggleOsc, "");
 8425              		.loc 2 254 34 is_stmt 0 view .LVU2161
 8426 00c0 B2EE001A 		vmov.f32	s2, #8.0e+0
 8427 00c4 B2EE0A0A 		vmov.f32	s0, #1.3e+1
 8428 00c8 DFEDA70A 		vldr.32	s1, .L669+16
 8429 00cc 2046     		mov	r0, r4
 8430 00ce A34B     		ldr	r3, .L669+4
 8431 00d0 95F89820 		ldrb	r2, [r5, #152]	@ zero_extendqisi2
 8432 00d4 95F8E511 		ldrb	r1, [r5, #485]	@ zero_extendqisi2
 8433 00d8 FFF7FEFF 		bl	_ZN23OledDisplayExtravaganza18drawVerticalToggleEfffbbPKc
 8434              	.LVL558:
 255:Menus.cpp     ****         screen.WaveIcons(35, 42, 55, this->selectedWave, on);
 8435              		.loc 2 255 9 is_stmt 1 view .LVU2162
 255:Menus.cpp     ****         screen.WaveIcons(35, 42, 55, this->selectedWave, on);
 8436              		.loc 2 255 25 is_stmt 0 view .LVU2163
 8437 00dc 95F8E531 		ldrb	r3, [r5, #485]	@ zero_extendqisi2
 8438 00e0 2046     		mov	r0, r4
 8439 00e2 2A22     		movs	r2, #42
 8440 00e4 0193     		str	r3, [sp, #4]
 8441 00e6 2321     		movs	r1, #35
 8442 00e8 D5F89C30 		ldr	r3, [r5, #156]
 8443 00ec 0093     		str	r3, [sp]
 8444 00ee 3723     		movs	r3, #55
 8445 00f0 FFF7FEFF 		bl	_ZN23OledDisplayExtravaganza9WaveIconsEiiiib
ARM GAS  C:\Users\VINCIU~1\AppData\Local\Temp\ccdS0pnQ.s 			page 213


 8446              	.LVL559:
 256:Menus.cpp     ****         screen.SetCursor(70, 17);
 8447              		.loc 2 256 9 is_stmt 1 view .LVU2164
 8448              	.LBB2676:
 8449              	.LBI2676:
 131:../../libdaisy/src/hid/disp/display.h ****     {
 8450              		.loc 6 131 10 view .LVU2165
 8451              	.LBB2677:
 133:../../libdaisy/src/hid/disp/display.h ****         currentY_ = (y >= Height()) ? Height() - 1 : y;
 8452              		.loc 6 133 9 view .LVU2166
 134:../../libdaisy/src/hid/disp/display.h ****     }
 8453              		.loc 6 134 9 view .LVU2167
 133:../../libdaisy/src/hid/disp/display.h ****         currentY_ = (y >= Height()) ? Height() - 1 : y;
 8454              		.loc 6 133 19 is_stmt 0 view .LVU2168
 8455 00f4 9D4B     		ldr	r3, .L669+20
 8456              	.LBE2677:
 8457              	.LBE2676:
 257:Menus.cpp     ****         screen.WriteString(this->buff, Font_6x8, true);
 8458              		.loc 2 257 27 view .LVU2169
 8459 00f6 05F1A401 		add	r1, r5, #164
 8460 00fa 2046     		mov	r0, r4
 8461              	.LBB2679:
 8462              	.LBB2678:
 133:../../libdaisy/src/hid/disp/display.h ****         currentY_ = (y >= Height()) ? Height() - 1 : y;
 8463              		.loc 6 133 19 view .LVU2170
 8464 00fc 6360     		str	r3, [r4, #4]
 8465              	.LVL560:
 133:../../libdaisy/src/hid/disp/display.h ****         currentY_ = (y >= Height()) ? Height() - 1 : y;
 8466              		.loc 6 133 19 view .LVU2171
 8467              	.LBE2678:
 8468              	.LBE2679:
 257:Menus.cpp     ****         screen.WriteString(this->buff, Font_6x8, true);
 8469              		.loc 2 257 9 is_stmt 1 view .LVU2172
 257:Menus.cpp     ****         screen.WriteString(this->buff, Font_6x8, true);
 8470              		.loc 2 257 27 is_stmt 0 view .LVU2173
 8471 00fe CDF80090 		str	r9, [sp]
 8472 0102 98E80C00 		ldm	r8, {r2, r3}
 8473 0106 FFF7FEFF 		bl	_ZN5daisy25OneBitGraphicsDisplayImplINS_11OledDisplayINS_13SSD130xDriverILj128ELj64ENS_24SSD130
 8474              	.LVL561:
 258:Menus.cpp     ****         screen.SetCursor(70, 50);
 8475              		.loc 2 258 9 is_stmt 1 view .LVU2174
 8476              	.LBB2680:
 8477              	.LBI2680:
 131:../../libdaisy/src/hid/disp/display.h ****     {
 8478              		.loc 6 131 10 view .LVU2175
 8479              	.LBB2681:
 133:../../libdaisy/src/hid/disp/display.h ****         currentY_ = (y >= Height()) ? Height() - 1 : y;
 8480              		.loc 6 133 9 view .LVU2176
 134:../../libdaisy/src/hid/disp/display.h ****     }
 8481              		.loc 6 134 9 view .LVU2177
 133:../../libdaisy/src/hid/disp/display.h ****         currentY_ = (y >= Height()) ? Height() - 1 : y;
 8482              		.loc 6 133 19 is_stmt 0 view .LVU2178
 8483 010a 994B     		ldr	r3, .L669+24
 8484              	.LBE2681:
 8485              	.LBE2680:
 259:Menus.cpp     ****         screen.WriteString(this->buffFine, Font_6x8, true);
 8486              		.loc 2 259 27 view .LVU2179
ARM GAS  C:\Users\VINCIU~1\AppData\Local\Temp\ccdS0pnQ.s 			page 214


 8487 010c CDF80090 		str	r9, [sp]
 8488 0110 05F1D401 		add	r1, r5, #212
 8489              	.LBB2683:
 8490              	.LBB2682:
 133:../../libdaisy/src/hid/disp/display.h ****         currentY_ = (y >= Height()) ? Height() - 1 : y;
 8491              		.loc 6 133 19 view .LVU2180
 8492 0114 6360     		str	r3, [r4, #4]
 8493              	.LVL562:
 133:../../libdaisy/src/hid/disp/display.h ****         currentY_ = (y >= Height()) ? Height() - 1 : y;
 8494              		.loc 6 133 19 view .LVU2181
 8495              	.LBE2682:
 8496              	.LBE2683:
 259:Menus.cpp     ****         screen.WriteString(this->buffFine, Font_6x8, true);
 8497              		.loc 2 259 9 is_stmt 1 view .LVU2182
 259:Menus.cpp     ****         screen.WriteString(this->buffFine, Font_6x8, true);
 8498              		.loc 2 259 27 is_stmt 0 view .LVU2183
 8499 0116 2046     		mov	r0, r4
 8500 0118 98E80C00 		ldm	r8, {r2, r3}
 8501 011c FFF7FEFF 		bl	_ZN5daisy25OneBitGraphicsDisplayImplINS_11OledDisplayINS_13SSD130xDriverILj128ELj64ENS_24SSD130
 8502              	.LVL563:
 8503              	.L535:
 274:Menus.cpp     ****     screen.SetCursor(4, 8);
 8504              		.loc 2 274 5 is_stmt 1 view .LVU2184
 8505              	.LBB2684:
 8506              	.LBI2684:
 131:../../libdaisy/src/hid/disp/display.h ****     {
 8507              		.loc 6 131 10 view .LVU2185
 8508              	.LBB2685:
 133:../../libdaisy/src/hid/disp/display.h ****         currentY_ = (y >= Height()) ? Height() - 1 : y;
 8509              		.loc 6 133 9 view .LVU2186
 134:../../libdaisy/src/hid/disp/display.h ****     }
 8510              		.loc 6 134 9 view .LVU2187
 133:../../libdaisy/src/hid/disp/display.h ****         currentY_ = (y >= Height()) ? Height() - 1 : y;
 8511              		.loc 6 133 19 is_stmt 0 view .LVU2188
 8512 0120 944B     		ldr	r3, .L669+28
 8513              	.LBE2685:
 8514              	.LBE2684:
 275:Menus.cpp     ****     screen.WriteString("Osc", Font_7x10, on);
 8515              		.loc 2 275 23 view .LVU2189
 8516 0122 2046     		mov	r0, r4
 8517 0124 95F8E521 		ldrb	r2, [r5, #485]	@ zero_extendqisi2
 8518              	.LBB2687:
 8519              	.LBB2686:
 133:../../libdaisy/src/hid/disp/display.h ****         currentY_ = (y >= Height()) ? Height() - 1 : y;
 8520              		.loc 6 133 19 view .LVU2190
 8521 0128 6360     		str	r3, [r4, #4]
 8522              	.LVL564:
 133:../../libdaisy/src/hid/disp/display.h ****         currentY_ = (y >= Height()) ? Height() - 1 : y;
 8523              		.loc 6 133 19 view .LVU2191
 8524              	.LBE2686:
 8525              	.LBE2687:
 275:Menus.cpp     ****     screen.WriteString("Osc", Font_7x10, on);
 8526              		.loc 2 275 5 is_stmt 1 view .LVU2192
 275:Menus.cpp     ****     screen.WriteString("Osc", Font_7x10, on);
 8527              		.loc 2 275 23 is_stmt 0 view .LVU2193
 8528 012a 934B     		ldr	r3, .L669+32
 8529 012c 0092     		str	r2, [sp]
ARM GAS  C:\Users\VINCIU~1\AppData\Local\Temp\ccdS0pnQ.s 			page 215


 8530 012e 9349     		ldr	r1, .L669+36
 8531 0130 0CCB     		ldm	r3, {r2, r3}
 8532 0132 FFF7FEFF 		bl	_ZN5daisy25OneBitGraphicsDisplayImplINS_11OledDisplayINS_13SSD130xDriverILj128ELj64ENS_24SSD130
 8533              	.LVL565:
 278:Menus.cpp     ****     for(int i = 0; i < screen.Width(); i++)
 8534              		.loc 2 278 5 is_stmt 1 view .LVU2194
 8535              	.LBB2688:
 278:Menus.cpp     ****     for(int i = 0; i < screen.Width(); i++)
 8536              		.loc 2 278 22 view .LVU2195
 280:Menus.cpp     ****         screen.DrawPixel(i * 3, (screen.Height() / 2) - 3, on);
 8537              		.loc 2 280 25 is_stmt 0 view .LVU2196
 8538 0136 95F8E501 		ldrb	r0, [r5, #485]	@ zero_extendqisi2
 8539 013a A446     		mov	ip, r4
 8540 013c 0023     		movs	r3, #0
 8541              	.LVL566:
 8542              	.L540:
 280:Menus.cpp     ****         screen.DrawPixel(i * 3, (screen.Height() / 2) - 3, on);
 8543              		.loc 2 280 9 is_stmt 1 discriminator 2 view .LVU2197
 8544              	.LBB2689:
 8545              	.LBI2689:
  41:../../libdaisy/src/hid/disp/oled_display.h ****     {
 8546              		.loc 1 41 10 discriminator 2 view .LVU2198
 8547              	.LBB2690:
 8548              	.LBI2690:
 239:../../libdaisy/src/dev/oled_ssd130x.h ****     {
 8549              		.loc 5 239 10 discriminator 2 view .LVU2199
 8550              	.LBB2691:
 241:../../libdaisy/src/dev/oled_ssd130x.h ****             return;
 8551              		.loc 5 241 9 is_stmt 0 discriminator 2 view .LVU2200
 8552 013e 7F2B     		cmp	r3, #127
 8553 0140 0DD8     		bhi	.L536
 8554              	.LVL567:
 8555              	.L646:
 8556              	.LBB2692:
 8557              	.LBI2692:
 239:../../libdaisy/src/dev/oled_ssd130x.h ****     {
 8558              		.loc 5 239 10 is_stmt 1 view .LVU2201
 239:../../libdaisy/src/dev/oled_ssd130x.h ****     {
 8559              		.loc 5 239 10 is_stmt 0 view .LVU2202
 8560              	.LBE2692:
 244:../../libdaisy/src/dev/oled_ssd130x.h ****         else
 8561              		.loc 5 244 42 view .LVU2203
 8562 0142 9CF89421 		ldrb	r2, [ip, #404]	@ zero_extendqisi2
 243:../../libdaisy/src/dev/oled_ssd130x.h ****             buffer_[x + (y / 8) * width] |= (1 << (y % 8));
 8563              		.loc 5 243 9 view .LVU2204
 8564 0146 0028     		cmp	r0, #0
 8565 0148 00F09B80 		beq	.L537
 244:../../libdaisy/src/dev/oled_ssd130x.h ****         else
 8566              		.loc 5 244 42 view .LVU2205
 8567 014c 42F02002 		orr	r2, r2, #32
 8568 0150 8CF89421 		strb	r2, [ip, #404]
 8569              	.L538:
 8570              	.LVL568:
 244:../../libdaisy/src/dev/oled_ssd130x.h ****         else
 8571              		.loc 5 244 42 view .LVU2206
 8572              	.LBE2691:
 8573              	.LBE2690:
ARM GAS  C:\Users\VINCIU~1\AppData\Local\Temp\ccdS0pnQ.s 			page 216


 8574              	.LBE2689:
 278:Menus.cpp     ****     for(int i = 0; i < screen.Width(); i++)
 8575              		.loc 2 278 5 is_stmt 1 view .LVU2207
 278:Menus.cpp     ****     for(int i = 0; i < screen.Width(); i++)
 8576              		.loc 2 278 22 view .LVU2208
 8577 0154 0333     		adds	r3, r3, #3
 8578 0156 0CF1030C 		add	ip, ip, #3
 280:Menus.cpp     ****         screen.DrawPixel(i * 3, (screen.Height() / 2) - 3, on);
 8579              		.loc 2 280 9 view .LVU2209
 8580              	.LVL569:
 8581              	.LBB2699:
  41:../../libdaisy/src/hid/disp/oled_display.h ****     {
 8582              		.loc 1 41 10 view .LVU2210
 8583              	.LBB2697:
 239:../../libdaisy/src/dev/oled_ssd130x.h ****     {
 8584              		.loc 5 239 10 view .LVU2211
 8585              	.LBB2695:
 241:../../libdaisy/src/dev/oled_ssd130x.h ****             return;
 8586              		.loc 5 241 9 is_stmt 0 view .LVU2212
 8587 015a 7F2B     		cmp	r3, #127
 8588 015c F1D9     		bls	.L646
 8589              	.LVL570:
 8590              	.L536:
 241:../../libdaisy/src/dev/oled_ssd130x.h ****             return;
 8591              		.loc 5 241 9 view .LVU2213
 8592              	.LBE2695:
 8593              	.LBE2697:
 8594              	.LBE2699:
 278:Menus.cpp     ****     for(int i = 0; i < screen.Width(); i++)
 8595              		.loc 2 278 5 is_stmt 1 view .LVU2214
 278:Menus.cpp     ****     for(int i = 0; i < screen.Width(); i++)
 8596              		.loc 2 278 22 view .LVU2215
 8597 015e 0333     		adds	r3, r3, #3
 8598 0160 0CF1030C 		add	ip, ip, #3
 8599 0164 B3F5C07F 		cmp	r3, #384
 8600 0168 E9D1     		bne	.L540
 8601 016a 0023     		movs	r3, #0
 8602              	.L539:
 8603              	.LBE2688:
 8604              	.LBB2701:
 284:Menus.cpp     ****         screen.DrawPixel(60, i * 2, on);
 8605              		.loc 2 284 9 discriminator 2 view .LVU2216
 8606              	.LVL571:
 8607              	.LBB2702:
 8608              	.LBI2702:
  41:../../libdaisy/src/hid/disp/oled_display.h ****     {
 8609              		.loc 1 41 10 discriminator 2 view .LVU2217
 8610              	.LBB2703:
 8611              	.LBI2703:
 239:../../libdaisy/src/dev/oled_ssd130x.h ****     {
 8612              		.loc 5 239 10 discriminator 2 view .LVU2218
 8613              	.LBB2704:
 241:../../libdaisy/src/dev/oled_ssd130x.h ****             return;
 8614              		.loc 5 241 9 is_stmt 0 discriminator 2 view .LVU2219
 8615 016c 3F2B     		cmp	r3, #63
 8616 016e 14D8     		bhi	.L541
 8617              	.LVL572:
ARM GAS  C:\Users\VINCIU~1\AppData\Local\Temp\ccdS0pnQ.s 			page 217


 8618              	.L647:
 8619              	.LBB2705:
 8620              	.LBI2705:
 239:../../libdaisy/src/dev/oled_ssd130x.h ****     {
 8621              		.loc 5 239 10 is_stmt 1 view .LVU2220
 239:../../libdaisy/src/dev/oled_ssd130x.h ****     {
 8622              		.loc 5 239 10 is_stmt 0 view .LVU2221
 8623              	.LBE2705:
 244:../../libdaisy/src/dev/oled_ssd130x.h ****         else
 8624              		.loc 5 244 48 view .LVU2222
 8625 0170 0121     		movs	r1, #1
 244:../../libdaisy/src/dev/oled_ssd130x.h ****         else
 8626              		.loc 5 244 28 view .LVU2223
 8627 0172 4FEAD30C 		lsr	ip, r3, #3
 244:../../libdaisy/src/dev/oled_ssd130x.h ****         else
 8628              		.loc 5 244 54 view .LVU2224
 8629 0176 03F0070E 		and	lr, r3, #7
 8630              	.LBB2708:
 8631              	.LBB2706:
 246:../../libdaisy/src/dev/oled_ssd130x.h ****     }
 8632              		.loc 5 246 49 view .LVU2225
 8633 017a 8846     		mov	r8, r1
 8634              	.LBE2706:
 8635              	.LBE2708:
 244:../../libdaisy/src/dev/oled_ssd130x.h ****         else
 8636              		.loc 5 244 42 view .LVU2226
 8637 017c 04EBCC1C 		add	ip, r4, ip, lsl #7
 244:../../libdaisy/src/dev/oled_ssd130x.h ****         else
 8638              		.loc 5 244 48 view .LVU2227
 8639 0180 01FA0EF1 		lsl	r1, r1, lr
 243:../../libdaisy/src/dev/oled_ssd130x.h ****             buffer_[x + (y / 8) * width] |= (1 << (y % 8));
 8640              		.loc 5 243 9 view .LVU2228
 8641 0184 0028     		cmp	r0, #0
 8642 0186 00F08180 		beq	.L542
 244:../../libdaisy/src/dev/oled_ssd130x.h ****         else
 8643              		.loc 5 244 42 view .LVU2229
 8644 018a 9CF85020 		ldrb	r2, [ip, #80]	@ zero_extendqisi2
 8645 018e 1143     		orrs	r1, r1, r2
 8646 0190 8CF85010 		strb	r1, [ip, #80]
 8647              	.L543:
 8648              	.LVL573:
 244:../../libdaisy/src/dev/oled_ssd130x.h ****         else
 8649              		.loc 5 244 42 view .LVU2230
 8650              	.LBE2704:
 8651              	.LBE2703:
 8652              	.LBE2702:
 282:Menus.cpp     ****     for(int i = 0; i < screen.Height(); i++)
 8653              		.loc 2 282 5 is_stmt 1 view .LVU2231
 282:Menus.cpp     ****     for(int i = 0; i < screen.Height(); i++)
 8654              		.loc 2 282 22 view .LVU2232
 8655 0194 0233     		adds	r3, r3, #2
 284:Menus.cpp     ****         screen.DrawPixel(60, i * 2, on);
 8656              		.loc 2 284 9 view .LVU2233
 8657              	.LVL574:
 8658              	.LBB2714:
  41:../../libdaisy/src/hid/disp/oled_display.h ****     {
 8659              		.loc 1 41 10 view .LVU2234
ARM GAS  C:\Users\VINCIU~1\AppData\Local\Temp\ccdS0pnQ.s 			page 218


 8660              	.LBB2712:
 239:../../libdaisy/src/dev/oled_ssd130x.h ****     {
 8661              		.loc 5 239 10 view .LVU2235
 8662              	.LBB2710:
 241:../../libdaisy/src/dev/oled_ssd130x.h ****             return;
 8663              		.loc 5 241 9 is_stmt 0 view .LVU2236
 8664 0196 3F2B     		cmp	r3, #63
 8665 0198 EAD9     		bls	.L647
 8666              	.LVL575:
 8667              	.L541:
 241:../../libdaisy/src/dev/oled_ssd130x.h ****             return;
 8668              		.loc 5 241 9 view .LVU2237
 8669              	.LBE2710:
 8670              	.LBE2712:
 8671              	.LBE2714:
 282:Menus.cpp     ****     for(int i = 0; i < screen.Height(); i++)
 8672              		.loc 2 282 5 is_stmt 1 view .LVU2238
 282:Menus.cpp     ****     for(int i = 0; i < screen.Height(); i++)
 8673              		.loc 2 282 22 view .LVU2239
 8674 019a 0233     		adds	r3, r3, #2
 8675 019c 802B     		cmp	r3, #128
 8676 019e E5D1     		bne	.L539
 8677 01a0 1E23     		movs	r3, #30
 8678              	.L544:
 8679              	.LBE2701:
 8680              	.LBB2716:
 288:Menus.cpp     ****         screen.DrawPixel(29, i * 2, on);
 8681              		.loc 2 288 9 discriminator 2 view .LVU2240
 8682              	.LVL576:
 8683              	.LBB2717:
 8684              	.LBI2717:
  41:../../libdaisy/src/hid/disp/oled_display.h ****     {
 8685              		.loc 1 41 10 discriminator 2 view .LVU2241
 8686              	.LBB2718:
 8687              	.LBI2718:
 239:../../libdaisy/src/dev/oled_ssd130x.h ****     {
 8688              		.loc 5 239 10 discriminator 2 view .LVU2242
 8689              	.LBB2719:
 241:../../libdaisy/src/dev/oled_ssd130x.h ****             return;
 8690              		.loc 5 241 9 is_stmt 0 discriminator 2 view .LVU2243
 8691 01a2 3F2B     		cmp	r3, #63
 8692 01a4 13D8     		bhi	.L545
 8693              	.LVL577:
 8694              	.L648:
 8695              	.LBB2720:
 8696              	.LBI2720:
 239:../../libdaisy/src/dev/oled_ssd130x.h ****     {
 8697              		.loc 5 239 10 is_stmt 1 view .LVU2244
 239:../../libdaisy/src/dev/oled_ssd130x.h ****     {
 8698              		.loc 5 239 10 is_stmt 0 view .LVU2245
 8699              	.LBE2720:
 244:../../libdaisy/src/dev/oled_ssd130x.h ****         else
 8700              		.loc 5 244 48 view .LVU2246
 8701 01a6 0122     		movs	r2, #1
 244:../../libdaisy/src/dev/oled_ssd130x.h ****         else
 8702              		.loc 5 244 28 view .LVU2247
 8703 01a8 4FEAD30C 		lsr	ip, r3, #3
ARM GAS  C:\Users\VINCIU~1\AppData\Local\Temp\ccdS0pnQ.s 			page 219


 244:../../libdaisy/src/dev/oled_ssd130x.h ****         else
 8704              		.loc 5 244 54 view .LVU2248
 8705 01ac 03F0070E 		and	lr, r3, #7
 8706              	.LBB2723:
 8707              	.LBB2721:
 246:../../libdaisy/src/dev/oled_ssd130x.h ****     }
 8708              		.loc 5 246 49 view .LVU2249
 8709 01b0 9046     		mov	r8, r2
 8710              	.LBE2721:
 8711              	.LBE2723:
 244:../../libdaisy/src/dev/oled_ssd130x.h ****         else
 8712              		.loc 5 244 42 view .LVU2250
 8713 01b2 04EBCC1C 		add	ip, r4, ip, lsl #7
 244:../../libdaisy/src/dev/oled_ssd130x.h ****         else
 8714              		.loc 5 244 48 view .LVU2251
 8715 01b6 02FA0EF2 		lsl	r2, r2, lr
 243:../../libdaisy/src/dev/oled_ssd130x.h ****             buffer_[x + (y / 8) * width] |= (1 << (y % 8));
 8716              		.loc 5 243 9 view .LVU2252
 8717 01ba 0028     		cmp	r0, #0
 8718 01bc 6FD0     		beq	.L546
 244:../../libdaisy/src/dev/oled_ssd130x.h ****         else
 8719              		.loc 5 244 42 view .LVU2253
 8720 01be 9CF83110 		ldrb	r1, [ip, #49]	@ zero_extendqisi2
 8721 01c2 0A43     		orrs	r2, r2, r1
 8722 01c4 8CF83120 		strb	r2, [ip, #49]
 8723              	.L547:
 8724              	.LVL578:
 244:../../libdaisy/src/dev/oled_ssd130x.h ****         else
 8725              		.loc 5 244 42 view .LVU2254
 8726              	.LBE2719:
 8727              	.LBE2718:
 8728              	.LBE2717:
 286:Menus.cpp     ****     for(int i = screen.Height() / 4 - 1; i < screen.Height(); i++)
 8729              		.loc 2 286 5 is_stmt 1 view .LVU2255
 286:Menus.cpp     ****     for(int i = screen.Height() / 4 - 1; i < screen.Height(); i++)
 8730              		.loc 2 286 44 view .LVU2256
 8731 01c8 0233     		adds	r3, r3, #2
 288:Menus.cpp     ****         screen.DrawPixel(29, i * 2, on);
 8732              		.loc 2 288 9 view .LVU2257
 8733              	.LVL579:
 8734              	.LBB2729:
  41:../../libdaisy/src/hid/disp/oled_display.h ****     {
 8735              		.loc 1 41 10 view .LVU2258
 8736              	.LBB2727:
 239:../../libdaisy/src/dev/oled_ssd130x.h ****     {
 8737              		.loc 5 239 10 view .LVU2259
 8738              	.LBB2725:
 241:../../libdaisy/src/dev/oled_ssd130x.h ****             return;
 8739              		.loc 5 241 9 is_stmt 0 view .LVU2260
 8740 01ca 3F2B     		cmp	r3, #63
 8741 01cc EBD9     		bls	.L648
 8742              	.LVL580:
 8743              	.L545:
 241:../../libdaisy/src/dev/oled_ssd130x.h ****             return;
 8744              		.loc 5 241 9 view .LVU2261
 8745              	.LBE2725:
 8746              	.LBE2727:
ARM GAS  C:\Users\VINCIU~1\AppData\Local\Temp\ccdS0pnQ.s 			page 220


 8747              	.LBE2729:
 286:Menus.cpp     ****     for(int i = screen.Height() / 4 - 1; i < screen.Height(); i++)
 8748              		.loc 2 286 5 is_stmt 1 view .LVU2262
 286:Menus.cpp     ****     for(int i = screen.Height() / 4 - 1; i < screen.Height(); i++)
 8749              		.loc 2 286 44 view .LVU2263
 8750 01ce 0233     		adds	r3, r3, #2
 8751 01d0 802B     		cmp	r3, #128
 8752 01d2 E6D1     		bne	.L544
 8753              	.LBE2716:
 291:Menus.cpp     ****     if(encoderLeft.RisingEdge())
 8754              		.loc 2 291 5 view .LVU2264
 8755              	.LVL581:
 8756              	.LBB2731:
 8757              	.LBB2732:
 8758              	.LBI2732:
  42:../../libdaisy/src/hid/encoder.h ****     /** Returns true if the encoder was just pressed.
  43:../../libdaisy/src/hid/encoder.h **** */
  44:../../libdaisy/src/hid/encoder.h ****     inline bool RisingEdge() const { return sw_.RisingEdge(); }
 8759              		.loc 3 44 17 view .LVU2265
 8760              	.LBE2732:
 8761              	.LBE2731:
 8762              		.loc 3 44 38 view .LVU2266
 8763              	.LBB3000:
 8764              	.LBB2735:
 8765              	.LBB2733:
 8766              	.LBI2733:
 8767              		.loc 4 69 17 view .LVU2267
 8768              	.LBB2734:
 8769              		.loc 4 69 38 view .LVU2268
 8770              		.loc 4 69 38 is_stmt 0 view .LVU2269
 8771              	.LBE2734:
 8772              	.LBE2733:
 8773              	.LBE2735:
 291:Menus.cpp     ****     if(encoderLeft.RisingEdge())
 8774              		.loc 2 291 5 view .LVU2270
 8775 01d4 6B7C     		ldrb	r3, [r5, #17]	@ zero_extendqisi2
 8776 01d6 7F2B     		cmp	r3, #127
 8777 01d8 00F09E81 		beq	.L649
 8778              	.LBE3000:
 296:Menus.cpp     ****     else if(menuState == 0)
 8779              		.loc 2 296 10 is_stmt 1 view .LVU2271
 8780              	.LBB3001:
 8781              	.LBB2736:
 296:Menus.cpp     ****     else if(menuState == 0)
 8782              		.loc 2 296 13 is_stmt 0 view .LVU2272
 8783 01dc EB6E     		ldr	r3, [r5, #108]
 296:Menus.cpp     ****     else if(menuState == 0)
 8784              		.loc 2 296 10 view .LVU2273
 8785 01de 002B     		cmp	r3, #0
 8786 01e0 00F0DA80 		beq	.L650
 8787              	.LBE2736:
 8788              	.LBE3001:
 349:Menus.cpp     ****     else if(menuState == 1)
 8789              		.loc 2 349 10 is_stmt 1 view .LVU2274
 8790              	.LBB3002:
 8791              	.LBB2979:
 8792              	.LBB2737:
ARM GAS  C:\Users\VINCIU~1\AppData\Local\Temp\ccdS0pnQ.s 			page 221


 8793 01e4 012B     		cmp	r3, #1
 8794 01e6 00F07282 		beq	.L651
 8795              	.LBE2737:
 8796              	.LBE2979:
 8797              	.LBE3002:
 382:Menus.cpp     ****     else if(menuState == 2)
 8798              		.loc 2 382 10 view .LVU2275
 8799              	.LBB3003:
 8800              	.LBB2980:
 8801              	.LBB2839:
 8802              	.LBB2738:
 8803 01ea 022B     		cmp	r3, #2
 8804 01ec 00F02582 		beq	.L652
 491:Menus.cpp     ****     else if(menuState == 3)
 8805              		.loc 2 491 10 view .LVU2276
 8806 01f0 032B     		cmp	r3, #3
 8807 01f2 40F09981 		bne	.L550
 499:Menus.cpp     ****         if(this->OscSelector == true)
 8808              		.loc 2 499 9 view .LVU2277
 8809 01f6 95F87430 		ldrb	r3, [r5, #116]	@ zero_extendqisi2
 501:Menus.cpp     ****             if(this->freqFine >= 1)
 8810              		.loc 2 501 13 is_stmt 0 view .LVU2278
 8811 01fa B7EE007A 		vmov.f32	s14, #1.0e+0
 499:Menus.cpp     ****         if(this->OscSelector == true)
 8812              		.loc 2 499 9 view .LVU2279
 8813 01fe 002B     		cmp	r3, #0
 8814 0200 00F0BB82 		beq	.L599
 501:Menus.cpp     ****             if(this->freqFine >= 1)
 8815              		.loc 2 501 13 is_stmt 1 view .LVU2280
 501:Menus.cpp     ****             if(this->freqFine >= 1)
 8816              		.loc 2 501 22 is_stmt 0 view .LVU2281
 8817 0204 D5ED5D7A 		vldr.32	s15, [r5, #372]
 501:Menus.cpp     ****             if(this->freqFine >= 1)
 8818              		.loc 2 501 13 view .LVU2282
 8819 0208 F4EEC77A 		vcmpe.f32	s15, s14
 8820 020c F1EE10FA 		vmrs	APSR_nzcv, FPSCR
 8821 0210 C0F20183 		blt	.L653
 8822 0214 F0EE477A 		vmov.f32	s15, s14
 8823              	.L600:
 509:Menus.cpp     ****             if(this->drawSliderFine >= 1)
 8824              		.loc 2 509 13 is_stmt 1 view .LVU2283
 8825 0218 F7EE006A 		vmov.f32	s13, #1.0e+0
 509:Menus.cpp     ****             if(this->drawSliderFine >= 1)
 8826              		.loc 2 509 22 is_stmt 0 view .LVU2284
 8827 021c 95ED1F7A 		vldr.32	s14, [r5, #124]
 509:Menus.cpp     ****             if(this->drawSliderFine >= 1)
 8828              		.loc 2 509 13 view .LVU2285
 8829 0220 B4EEE67A 		vcmpe.f32	s14, s13
 8830 0224 F1EE10FA 		vmrs	APSR_nzcv, FPSCR
 8831 0228 C0F2EC82 		blt	.L654
 8832 022c B0EE667A 		vmov.f32	s14, s13
 8833              	.L601:
 518:Menus.cpp     ****             this->freqFine += (((float)this->encoderRight.Increment()) / 32);
 8834              		.loc 2 518 13 is_stmt 1 view .LVU2286
 8835              	.LVL582:
 8836              	.LBB2739:
 8837              	.LBI2739:
ARM GAS  C:\Users\VINCIU~1\AppData\Local\Temp\ccdS0pnQ.s 			page 222


  41:../../libdaisy/src/hid/encoder.h ****     /** Returns true if the encoder was just pressed.
 8838              		.loc 3 41 20 view .LVU2287
 8839              	.LBB2740:
  41:../../libdaisy/src/hid/encoder.h ****     /** Returns true if the encoder was just pressed.
 8840              		.loc 3 41 40 view .LVU2288
  41:../../libdaisy/src/hid/encoder.h ****     /** Returns true if the encoder was just pressed.
 8841              		.loc 3 41 40 is_stmt 0 view .LVU2289
 8842              	.LBE2740:
 8843              	.LBE2739:
 518:Menus.cpp     ****             this->freqFine += (((float)this->encoderRight.Increment()) / 32);
 8844              		.loc 2 518 33 view .LVU2290
 8845 0230 D5ED126A 		vldr.32	s13, [r5, #72]	@ int
 521:Menus.cpp     ****             sprintf(this->buffFine, "Fine_%d%%", (int)(freqFine * 100));
 8846              		.loc 2 521 20 view .LVU2291
 8847 0234 05F1D400 		add	r0, r5, #212
 518:Menus.cpp     ****             this->freqFine += (((float)this->encoderRight.Increment()) / 32);
 8848              		.loc 2 518 28 view .LVU2292
 8849 0238 DFED555A 		vldr.32	s11, .L669+56
 518:Menus.cpp     ****             this->freqFine += (((float)this->encoderRight.Increment()) / 32);
 8850              		.loc 2 518 33 view .LVU2293
 8851 023c F8EEE66A 		vcvt.f32.s32	s13, s13
 521:Menus.cpp     ****             sprintf(this->buffFine, "Fine_%d%%", (int)(freqFine * 100));
 8852              		.loc 2 521 65 view .LVU2294
 8853 0240 9FED4F6A 		vldr.32	s12, .L669+40
 521:Menus.cpp     ****             sprintf(this->buffFine, "Fine_%d%%", (int)(freqFine * 100));
 8854              		.loc 2 521 20 view .LVU2295
 8855 0244 4F49     		ldr	r1, .L669+44
 518:Menus.cpp     ****             this->freqFine += (((float)this->encoderRight.Increment()) / 32);
 8856              		.loc 2 518 28 view .LVU2296
 8857 0246 E6EEA57A 		vfma.f32	s15, s13, s11
 520:Menus.cpp     ****                 += (((float)this->encoderRight.Increment()) / 32);
 8858              		.loc 2 520 17 view .LVU2297
 8859 024a A6EEA57A 		vfma.f32	s14, s13, s11
 521:Menus.cpp     ****             sprintf(this->buffFine, "Fine_%d%%", (int)(freqFine * 100));
 8860              		.loc 2 521 65 view .LVU2298
 8861 024e 67EE866A 		vmul.f32	s13, s15, s12
 518:Menus.cpp     ****             this->freqFine += (((float)this->encoderRight.Increment()) / 32);
 8862              		.loc 2 518 28 view .LVU2299
 8863 0252 C5ED5D7A 		vstr.32	s15, [r5, #372]
 519:Menus.cpp     ****             this->drawSliderFine
 8864              		.loc 2 519 13 is_stmt 1 view .LVU2300
 8865              	.LVL583:
 519:Menus.cpp     ****             this->drawSliderFine
 8866              		.loc 2 519 13 is_stmt 0 view .LVU2301
 8867              	.LBE2738:
 8868              	.LBE2839:
 8869              	.LBE2980:
 8870              	.LBE3003:
  41:../../libdaisy/src/hid/encoder.h ****     /** Returns true if the encoder was just pressed.
 8871              		.loc 3 41 40 is_stmt 1 view .LVU2302
 8872              	.LBB3004:
 8873              	.LBB2981:
 8874              	.LBB2840:
 8875              	.LBB2823:
 520:Menus.cpp     ****                 += (((float)this->encoderRight.Increment()) / 32);
 8876              		.loc 2 520 17 is_stmt 0 view .LVU2303
 8877 0256 85ED1F7A 		vstr.32	s14, [r5, #124]
ARM GAS  C:\Users\VINCIU~1\AppData\Local\Temp\ccdS0pnQ.s 			page 223


 521:Menus.cpp     ****             sprintf(this->buffFine, "Fine_%d%%", (int)(freqFine * 100));
 8878              		.loc 2 521 13 is_stmt 1 view .LVU2304
 521:Menus.cpp     ****             sprintf(this->buffFine, "Fine_%d%%", (int)(freqFine * 100));
 8879              		.loc 2 521 20 is_stmt 0 view .LVU2305
 8880 025a FDEEE67A 		vcvt.s32.f32	s15, s13
 8881 025e 17EE902A 		vmov	r2, s15	@ int
 8882 0262 FFF7FEFF 		bl	sprintf
 8883              	.LVL584:
 8884              	.L602:
 548:Menus.cpp     ****         screen.DrawRect(60,
 8885              		.loc 2 548 9 is_stmt 1 view .LVU2306
 548:Menus.cpp     ****         screen.DrawRect(60,
 8886              		.loc 2 548 24 is_stmt 0 view .LVU2307
 8887 0266 95F8E531 		ldrb	r3, [r5, #485]	@ zero_extendqisi2
 8888 026a 0022     		movs	r2, #0
 8889 026c 3F21     		movs	r1, #63
 8890 026e 2046     		mov	r0, r4
 8891 0270 CDE90132 		strd	r3, r2, [sp, #4]
 8892 0274 0091     		str	r1, [sp]
 8893 0276 7F23     		movs	r3, #127
 8894 0278 1D22     		movs	r2, #29
 8895 027a 3C21     		movs	r1, #60
 8896 027c FFF7FEFF 		bl	_ZN5daisy25OneBitGraphicsDisplayImplINS_11OledDisplayINS_13SSD130xDriverILj128ELj64ENS_24SSD130
 8897              	.LVL585:
 8898 0280 52E1     		b	.L550
 8899              	.LVL586:
 8900              	.L537:
 548:Menus.cpp     ****         screen.DrawRect(60,
 8901              		.loc 2 548 24 view .LVU2308
 8902              	.LBE2823:
 8903              	.LBE2840:
 8904              	.LBE2981:
 8905              	.LBE3004:
 8906              	.LBB3005:
 8907              	.LBB2700:
 8908              	.LBB2698:
 8909              	.LBB2696:
 8910              	.LBB2694:
 8911              	.LBB2693:
 246:../../libdaisy/src/dev/oled_ssd130x.h ****     }
 8912              		.loc 5 246 42 view .LVU2309
 8913 0282 22F02002 		bic	r2, r2, #32
 8914 0286 8CF89421 		strb	r2, [ip, #404]
 8915 028a 63E7     		b	.L538
 8916              	.LVL587:
 8917              	.L542:
 246:../../libdaisy/src/dev/oled_ssd130x.h ****     }
 8918              		.loc 5 246 42 view .LVU2310
 8919              	.LBE2693:
 8920              	.LBE2694:
 8921              	.LBE2696:
 8922              	.LBE2698:
 8923              	.LBE2700:
 8924              	.LBE3005:
 8925              	.LBB3006:
 8926              	.LBB2715:
 8927              	.LBB2713:
ARM GAS  C:\Users\VINCIU~1\AppData\Local\Temp\ccdS0pnQ.s 			page 224


 8928              	.LBB2711:
 8929              	.LBB2709:
 8930              	.LBB2707:
 8931 028c 9CF85010 		ldrb	r1, [ip, #80]	@ zero_extendqisi2
 246:../../libdaisy/src/dev/oled_ssd130x.h ****     }
 8932              		.loc 5 246 49 view .LVU2311
 8933 0290 08FA0EF8 		lsl	r8, r8, lr
 246:../../libdaisy/src/dev/oled_ssd130x.h ****     }
 8934              		.loc 5 246 42 view .LVU2312
 8935 0294 21EA0808 		bic	r8, r1, r8
 8936 0298 8CF85080 		strb	r8, [ip, #80]
 8937 029c 7AE7     		b	.L543
 8938              	.LVL588:
 8939              	.L546:
 246:../../libdaisy/src/dev/oled_ssd130x.h ****     }
 8940              		.loc 5 246 42 view .LVU2313
 8941              	.LBE2707:
 8942              	.LBE2709:
 8943              	.LBE2711:
 8944              	.LBE2713:
 8945              	.LBE2715:
 8946              	.LBE3006:
 8947              	.LBB3007:
 8948              	.LBB2730:
 8949              	.LBB2728:
 8950              	.LBB2726:
 8951              	.LBB2724:
 8952              	.LBB2722:
 8953 029e 9CF83120 		ldrb	r2, [ip, #49]	@ zero_extendqisi2
 246:../../libdaisy/src/dev/oled_ssd130x.h ****     }
 8954              		.loc 5 246 49 view .LVU2314
 8955 02a2 08FA0EF8 		lsl	r8, r8, lr
 246:../../libdaisy/src/dev/oled_ssd130x.h ****     }
 8956              		.loc 5 246 42 view .LVU2315
 8957 02a6 22EA0808 		bic	r8, r2, r8
 8958 02aa 8CF83180 		strb	r8, [ip, #49]
 8959 02ae 8BE7     		b	.L547
 8960              	.LVL589:
 8961              	.L534:
 246:../../libdaisy/src/dev/oled_ssd130x.h ****     }
 8962              		.loc 5 246 42 view .LVU2316
 8963              	.LBE2722:
 8964              	.LBE2724:
 8965              	.LBE2726:
 8966              	.LBE2728:
 8967              	.LBE2730:
 8968              	.LBE3007:
 263:Menus.cpp     ****         screen.drawSlider(70, 7, 50, 3, false, (this->drawSliderSemi2) / 40);
 8969              		.loc 2 263 9 is_stmt 1 view .LVU2317
 263:Menus.cpp     ****         screen.drawSlider(70, 7, 50, 3, false, (this->drawSliderSemi2) / 40);
 8970              		.loc 2 263 26 is_stmt 0 view .LVU2318
 8971 02b0 D5ED202A 		vldr.32	s5, [r5, #128]
 8972 02b4 2046     		mov	r0, r4
 8973 02b6 9FED378A 		vldr.32	s16, .L669+60
 8974 02ba F0EE081A 		vmov.f32	s3, #3.0e+0
 8975 02be F1EE0C0A 		vmov.f32	s1, #7.0e+0
 8976 02c2 9FED322A 		vldr.32	s4, .L669+52
ARM GAS  C:\Users\VINCIU~1\AppData\Local\Temp\ccdS0pnQ.s 			page 225


 8977 02c6 C2EE882A 		vdiv.f32	s5, s5, s16
 8978 02ca 9FED251A 		vldr.32	s2, .L669+8
 8979 02ce 9FED250A 		vldr.32	s0, .L669+12
 8980 02d2 FFF7FEFF 		bl	_ZN23OledDisplayExtravaganza10drawSliderEffffff
 8981              	.LVL590:
 264:Menus.cpp     ****         screen.drawSlider(70, 40, 50, 3, false, drawSliderFine2);
 8982              		.loc 2 264 9 is_stmt 1 view .LVU2319
 264:Menus.cpp     ****         screen.drawSlider(70, 40, 50, 3, false, drawSliderFine2);
 8983              		.loc 2 264 26 is_stmt 0 view .LVU2320
 8984 02d6 D5ED212A 		vldr.32	s5, [r5, #132]
 8985 02da 9FED2C2A 		vldr.32	s4, .L669+52
 8986 02de 2046     		mov	r0, r4
 8987 02e0 9FED1F1A 		vldr.32	s2, .L669+8
 8988 02e4 F0EE081A 		vmov.f32	s3, #3.0e+0
 8989 02e8 9FED1E0A 		vldr.32	s0, .L669+12
 8990 02ec F0EE480A 		vmov.f32	s1, s16
 268:Menus.cpp     ****         screen.WriteString(this->buff2, Font_6x8, false);
 8991              		.loc 2 268 27 view .LVU2321
 8992 02f0 DFF89490 		ldr	r9, .L669+48
 264:Menus.cpp     ****         screen.drawSlider(70, 40, 50, 3, false, drawSliderFine2);
 8993              		.loc 2 264 26 view .LVU2322
 8994 02f4 FFF7FEFF 		bl	_ZN23OledDisplayExtravaganza10drawSliderEffffff
 8995              	.LVL591:
 265:Menus.cpp     ****         screen.drawVerticalToggle(13, 51, 8, false, this->toggleOsc2, "");
 8996              		.loc 2 265 9 is_stmt 1 view .LVU2323
 265:Menus.cpp     ****         screen.drawVerticalToggle(13, 51, 8, false, this->toggleOsc2, "");
 8997              		.loc 2 265 34 is_stmt 0 view .LVU2324
 8998 02f8 B2EE001A 		vmov.f32	s2, #8.0e+0
 8999 02fc B2EE0A0A 		vmov.f32	s0, #1.3e+1
 9000 0300 DFED190A 		vldr.32	s1, .L669+16
 9001 0304 95F89920 		ldrb	r2, [r5, #153]	@ zero_extendqisi2
 9002 0308 4146     		mov	r1, r8
 9003 030a 2046     		mov	r0, r4
 9004 030c 134B     		ldr	r3, .L669+4
 9005 030e FFF7FEFF 		bl	_ZN23OledDisplayExtravaganza18drawVerticalToggleEfffbbPKc
 9006              	.LVL592:
 266:Menus.cpp     ****         screen.WaveIcons(35, 42, 55, this->selectedWave2, false);
 9007              		.loc 2 266 9 is_stmt 1 view .LVU2325
 266:Menus.cpp     ****         screen.WaveIcons(35, 42, 55, this->selectedWave2, false);
 9008              		.loc 2 266 25 is_stmt 0 view .LVU2326
 9009 0312 CDF80480 		str	r8, [sp, #4]
 9010 0316 D5F8A030 		ldr	r3, [r5, #160]
 9011 031a 2046     		mov	r0, r4
 9012 031c 2A22     		movs	r2, #42
 9013 031e 2321     		movs	r1, #35
 9014 0320 0093     		str	r3, [sp]
 9015 0322 3723     		movs	r3, #55
 9016 0324 FFF7FEFF 		bl	_ZN23OledDisplayExtravaganza9WaveIconsEiiiib
 9017              	.LVL593:
 267:Menus.cpp     ****         screen.SetCursor(70, 17);
 9018              		.loc 2 267 9 is_stmt 1 view .LVU2327
 9019              	.LBB3008:
 9020              	.LBI3008:
 131:../../libdaisy/src/hid/disp/display.h ****     {
 9021              		.loc 6 131 10 view .LVU2328
 9022              	.LBB3009:
 133:../../libdaisy/src/hid/disp/display.h ****         currentY_ = (y >= Height()) ? Height() - 1 : y;
ARM GAS  C:\Users\VINCIU~1\AppData\Local\Temp\ccdS0pnQ.s 			page 226


 9023              		.loc 6 133 9 view .LVU2329
 134:../../libdaisy/src/hid/disp/display.h ****     }
 9024              		.loc 6 134 9 view .LVU2330
 133:../../libdaisy/src/hid/disp/display.h ****         currentY_ = (y >= Height()) ? Height() - 1 : y;
 9025              		.loc 6 133 19 is_stmt 0 view .LVU2331
 9026 0328 104B     		ldr	r3, .L669+20
 9027              	.LBE3009:
 9028              	.LBE3008:
 268:Menus.cpp     ****         screen.WriteString(this->buff2, Font_6x8, false);
 9029              		.loc 2 268 27 view .LVU2332
 9030 032a CDF80080 		str	r8, [sp]
 9031 032e 05F1BC01 		add	r1, r5, #188
 9032              	.LBB3011:
 9033              	.LBB3010:
 133:../../libdaisy/src/hid/disp/display.h ****         currentY_ = (y >= Height()) ? Height() - 1 : y;
 9034              		.loc 6 133 19 view .LVU2333
 9035 0332 6360     		str	r3, [r4, #4]
 9036              	.LVL594:
 133:../../libdaisy/src/hid/disp/display.h ****         currentY_ = (y >= Height()) ? Height() - 1 : y;
 9037              		.loc 6 133 19 view .LVU2334
 9038              	.LBE3010:
 9039              	.LBE3011:
 268:Menus.cpp     ****         screen.WriteString(this->buff2, Font_6x8, false);
 9040              		.loc 2 268 9 is_stmt 1 view .LVU2335
 268:Menus.cpp     ****         screen.WriteString(this->buff2, Font_6x8, false);
 9041              		.loc 2 268 27 is_stmt 0 view .LVU2336
 9042 0334 2046     		mov	r0, r4
 9043 0336 99E80C00 		ldm	r9, {r2, r3}
 9044 033a FFF7FEFF 		bl	_ZN5daisy25OneBitGraphicsDisplayImplINS_11OledDisplayINS_13SSD130xDriverILj128ELj64ENS_24SSD130
 9045              	.LVL595:
 269:Menus.cpp     ****         screen.SetCursor(70, 50);
 9046              		.loc 2 269 9 is_stmt 1 view .LVU2337
 9047              	.LBB3012:
 9048              	.LBI3012:
 131:../../libdaisy/src/hid/disp/display.h ****     {
 9049              		.loc 6 131 10 view .LVU2338
 9050              	.LBB3013:
 133:../../libdaisy/src/hid/disp/display.h ****         currentY_ = (y >= Height()) ? Height() - 1 : y;
 9051              		.loc 6 133 9 view .LVU2339
 134:../../libdaisy/src/hid/disp/display.h ****     }
 9052              		.loc 6 134 9 view .LVU2340
 133:../../libdaisy/src/hid/disp/display.h ****         currentY_ = (y >= Height()) ? Height() - 1 : y;
 9053              		.loc 6 133 19 is_stmt 0 view .LVU2341
 9054 033e 0C4B     		ldr	r3, .L669+24
 9055              	.LBE3013:
 9056              	.LBE3012:
 270:Menus.cpp     ****         screen.WriteString(this->buffFine2, Font_6x8, false);
 9057              		.loc 2 270 27 view .LVU2342
 9058 0340 CDF80080 		str	r8, [sp]
 9059 0344 05F1EC01 		add	r1, r5, #236
 9060              	.LBB3015:
 9061              	.LBB3014:
 133:../../libdaisy/src/hid/disp/display.h ****         currentY_ = (y >= Height()) ? Height() - 1 : y;
 9062              		.loc 6 133 19 view .LVU2343
 9063 0348 6360     		str	r3, [r4, #4]
 9064              	.LVL596:
 133:../../libdaisy/src/hid/disp/display.h ****         currentY_ = (y >= Height()) ? Height() - 1 : y;
ARM GAS  C:\Users\VINCIU~1\AppData\Local\Temp\ccdS0pnQ.s 			page 227


 9065              		.loc 6 133 19 view .LVU2344
 9066              	.LBE3014:
 9067              	.LBE3015:
 270:Menus.cpp     ****         screen.WriteString(this->buffFine2, Font_6x8, false);
 9068              		.loc 2 270 9 is_stmt 1 view .LVU2345
 270:Menus.cpp     ****         screen.WriteString(this->buffFine2, Font_6x8, false);
 9069              		.loc 2 270 27 is_stmt 0 view .LVU2346
 9070 034a 2046     		mov	r0, r4
 9071 034c 99E80C00 		ldm	r9, {r2, r3}
 9072 0350 FFF7FEFF 		bl	_ZN5daisy25OneBitGraphicsDisplayImplINS_11OledDisplayINS_13SSD130xDriverILj128ELj64ENS_24SSD130
 9073              	.LVL597:
 9074 0354 E4E6     		b	.L535
 9075              	.L670:
 9076 0356 00BF     		.align	2
 9077              	.L669:
 9078 0358 00003842 		.word	1110966272
 9079 035c 00000000 		.word	.LC5
 9080 0360 00004842 		.word	1112014848
 9081 0364 00008C42 		.word	1116471296
 9082 0368 00004C42 		.word	1112276992
 9083 036c 46001100 		.word	1114182
 9084 0370 46003200 		.word	3276870
 9085 0374 04000800 		.word	524292
 9086 0378 00000000 		.word	Font_7x10
 9087 037c 04000000 		.word	.LC6
 9088 0380 0000C842 		.word	1120403456
 9089 0384 14000000 		.word	.LC8
 9090 0388 00000000 		.word	Font_6x8
 9091 038c 00000000 		.word	0
 9092 0390 0000003D 		.word	1023410176
 9093 0394 00002042 		.word	1109393408
 9094              	.L650:
 9095              	.LBB3016:
 9096              	.LBB2982:
 298:Menus.cpp     ****         if(this->OscSelector == true)
 9097              		.loc 2 298 9 is_stmt 1 view .LVU2347
 9098 0398 95F87430 		ldrb	r3, [r5, #116]	@ zero_extendqisi2
 9099 039c 002B     		cmp	r3, #0
 9100 039e 40F01781 		bne	.L655
 323:Menus.cpp     ****             if(this->noteSemiAdd2 > 32)
 9101              		.loc 2 323 13 view .LVU2348
 323:Menus.cpp     ****             if(this->noteSemiAdd2 > 32)
 9102              		.loc 2 323 22 is_stmt 0 view .LVU2349
 9103 03a2 D5F86831 		ldr	r3, [r5, #360]
 323:Menus.cpp     ****             if(this->noteSemiAdd2 > 32)
 9104              		.loc 2 323 13 view .LVU2350
 9105 03a6 202B     		cmp	r3, #32
 9106 03a8 00F3A281 		bgt	.L613
 327:Menus.cpp     ****             if(this->noteSemiAdd2 < 0)
 9107              		.loc 2 327 13 is_stmt 1 view .LVU2351
 9108 03ac 002B     		cmp	r3, #0
 9109 03ae 80F21482 		bge	.L656
 9110 03b2 5FED0A7A 		vldr.32	s15, .L669+52
 9111              	.L555:
 331:Menus.cpp     ****             if(this->drawSliderSemi2 >= 40)
 9112              		.loc 2 331 13 view .LVU2352
 331:Menus.cpp     ****             if(this->drawSliderSemi2 >= 40)
ARM GAS  C:\Users\VINCIU~1\AppData\Local\Temp\ccdS0pnQ.s 			page 228


 9113              		.loc 2 331 22 is_stmt 0 view .LVU2353
 9114 03b6 95ED207A 		vldr.32	s14, [r5, #128]
 331:Menus.cpp     ****             if(this->drawSliderSemi2 >= 40)
 9115              		.loc 2 331 13 view .LVU2354
 9116 03ba 5FED0A6A 		vldr.32	s13, .L669+60
 9117 03be B4EEE67A 		vcmpe.f32	s14, s13
 9118 03c2 F1EE10FA 		vmrs	APSR_nzcv, FPSCR
 9119 03c6 80F29081 		bge	.L615
 335:Menus.cpp     ****             if(this->drawSliderSemi2 < 0)
 9120              		.loc 2 335 13 is_stmt 1 view .LVU2355
 9121 03ca B5EEC07A 		vcmpe.f32	s14, #0
 9122 03ce F1EE10FA 		vmrs	APSR_nzcv, FPSCR
 9123 03d2 01D5     		bpl	.L556
 9124 03d4 1FED137A 		vldr.32	s14, .L669+52
 9125              	.L556:
 339:Menus.cpp     ****             this->noteSemiAdd2 += (float)this->encoderRight.Increment();
 9126              		.loc 2 339 13 view .LVU2356
 9127              	.LVL598:
 9128              	.LBB2841:
 9129              	.LBI2841:
  41:../../libdaisy/src/hid/encoder.h ****     /** Returns true if the encoder was just pressed.
 9130              		.loc 3 41 20 view .LVU2357
 9131              	.LBB2842:
  41:../../libdaisy/src/hid/encoder.h ****     /** Returns true if the encoder was just pressed.
 9132              		.loc 3 41 40 view .LVU2358
  41:../../libdaisy/src/hid/encoder.h ****     /** Returns true if the encoder was just pressed.
 9133              		.loc 3 41 40 is_stmt 0 view .LVU2359
 9134              	.LBE2842:
 9135              	.LBE2841:
 339:Menus.cpp     ****             this->noteSemiAdd2 += (float)this->encoderRight.Increment();
 9136              		.loc 2 339 35 view .LVU2360
 9137 03d8 D5ED126A 		vldr.32	s13, [r5, #72]	@ int
 342:Menus.cpp     ****             sprintf(this->buff2, "Semi_%dst", this->noteSemiAdd2);
 9138              		.loc 2 342 20 view .LVU2361
 9139 03dc 05F1BC00 		add	r0, r5, #188
 341:Menus.cpp     ****                 += (((float)this->encoderRight.Increment()) / 32) * 40;
 9140              		.loc 2 341 61 view .LVU2362
 9141 03e0 1FED156A 		vldr.32	s12, .L669+56
 339:Menus.cpp     ****             this->noteSemiAdd2 += (float)this->encoderRight.Increment();
 9142              		.loc 2 339 35 view .LVU2363
 9143 03e4 F8EEE66A 		vcvt.f32.s32	s13, s13
 341:Menus.cpp     ****                 += (((float)this->encoderRight.Increment()) / 32) * 40;
 9144              		.loc 2 341 17 view .LVU2364
 9145 03e8 5FED165A 		vldr.32	s11, .L669+60
 342:Menus.cpp     ****             sprintf(this->buff2, "Semi_%dst", this->noteSemiAdd2);
 9146              		.loc 2 342 20 view .LVU2365
 9147 03ec C349     		ldr	r1, .L671
 341:Menus.cpp     ****                 += (((float)this->encoderRight.Increment()) / 32) * 40;
 9148              		.loc 2 341 61 view .LVU2366
 9149 03ee 26EE866A 		vmul.f32	s12, s13, s12
 339:Menus.cpp     ****             this->noteSemiAdd2 += (float)this->encoderRight.Increment();
 9150              		.loc 2 339 32 view .LVU2367
 9151 03f2 77EEA67A 		vadd.f32	s15, s15, s13
 341:Menus.cpp     ****                 += (((float)this->encoderRight.Increment()) / 32) * 40;
 9152              		.loc 2 341 17 view .LVU2368
 9153 03f6 A6EE257A 		vfma.f32	s14, s12, s11
 339:Menus.cpp     ****             this->noteSemiAdd2 += (float)this->encoderRight.Increment();
ARM GAS  C:\Users\VINCIU~1\AppData\Local\Temp\ccdS0pnQ.s 			page 229


 9154              		.loc 2 339 32 view .LVU2369
 9155 03fa FDEEE77A 		vcvt.s32.f32	s15, s15
 9156 03fe 17EE902A 		vmov	r2, s15	@ int
 9157 0402 C5ED5A7A 		vstr.32	s15, [r5, #360]	@ int
 340:Menus.cpp     ****             this->drawSliderSemi2
 9158              		.loc 2 340 13 is_stmt 1 view .LVU2370
 9159              	.LVL599:
 340:Menus.cpp     ****             this->drawSliderSemi2
 9160              		.loc 2 340 13 is_stmt 0 view .LVU2371
 9161              	.LBE2982:
 9162              	.LBE3016:
  41:../../libdaisy/src/hid/encoder.h ****     /** Returns true if the encoder was just pressed.
 9163              		.loc 3 41 40 is_stmt 1 view .LVU2372
 9164              	.LBB3017:
 9165              	.LBB2983:
 341:Menus.cpp     ****                 += (((float)this->encoderRight.Increment()) / 32) * 40;
 9166              		.loc 2 341 17 is_stmt 0 view .LVU2373
 9167 0406 85ED207A 		vstr.32	s14, [r5, #128]
 342:Menus.cpp     ****             sprintf(this->buff2, "Semi_%dst", this->noteSemiAdd2);
 9168              		.loc 2 342 13 is_stmt 1 view .LVU2374
 342:Menus.cpp     ****             sprintf(this->buff2, "Semi_%dst", this->noteSemiAdd2);
 9169              		.loc 2 342 20 is_stmt 0 view .LVU2375
 9170 040a FFF7FEFF 		bl	sprintf
 9171              	.LVL600:
 346:Menus.cpp     ****         screen.DrawRect(
 9172              		.loc 2 346 9 is_stmt 1 view .LVU2376
 346:Menus.cpp     ****         screen.DrawRect(
 9173              		.loc 2 346 24 is_stmt 0 view .LVU2377
 9174 040e 95F8E501 		ldrb	r0, [r5, #485]	@ zero_extendqisi2
 9175              	.LVL601:
 9176              	.LBB2843:
 9177              	.LBI2843:
 217:../../libdaisy/src/hid/disp/display.h ****                   uint_fast8_t y1,
 9178              		.loc 6 217 10 is_stmt 1 view .LVU2378
 9179              	.LBB2844:
 9180              	.LBI2844:
 181:../../libdaisy/src/hid/disp/display.h ****                   uint_fast8_t y1,
 9181              		.loc 6 181 10 view .LVU2379
 9182              	.LBB2845:
 9183              	.LBB2846:
 9184              	.LBI2846:
  41:../../libdaisy/src/hid/disp/oled_display.h ****     {
 9185              		.loc 1 41 10 view .LVU2380
 9186              	.LBB2847:
 9187              	.LBI2847:
 239:../../libdaisy/src/dev/oled_ssd130x.h ****     {
 9188              		.loc 5 239 10 view .LVU2381
 9189              	.LBB2848:
 244:../../libdaisy/src/dev/oled_ssd130x.h ****         else
 9190              		.loc 5 244 42 is_stmt 0 view .LVU2382
 9191 0412 94F89320 		ldrb	r2, [r4, #147]	@ zero_extendqisi2
 243:../../libdaisy/src/dev/oled_ssd130x.h ****             buffer_[x + (y / 8) * width] |= (1 << (y % 8));
 9192              		.loc 5 243 9 view .LVU2383
 9193 0416 0028     		cmp	r0, #0
 9194 0418 00F00C81 		beq	.L557
 9195              	.LVL602:
 9196              	.L664:
ARM GAS  C:\Users\VINCIU~1\AppData\Local\Temp\ccdS0pnQ.s 			page 230


 244:../../libdaisy/src/dev/oled_ssd130x.h ****         else
 9197              		.loc 5 244 42 view .LVU2384
 9198 041c 42F00102 		orr	r2, r2, #1
 9199              	.L558:
 244:../../libdaisy/src/dev/oled_ssd130x.h ****         else
 9200              		.loc 5 244 42 view .LVU2385
 9201 0420 04F14F03 		add	r3, r4, #79
 9202 0424 04F19201 		add	r1, r4, #146
 9203 0428 84F89320 		strb	r2, [r4, #147]
 9204              	.LVL603:
 244:../../libdaisy/src/dev/oled_ssd130x.h ****         else
 9205              		.loc 5 244 42 view .LVU2386
 9206              	.LBE2848:
 9207              	.LBE2847:
 9208              	.LBE2846:
 199:../../libdaisy/src/hid/disp/display.h ****         {
 9209              		.loc 6 199 26 is_stmt 1 view .LVU2387
 9210 042c 05E0     		b	.L561
 9211              	.LVL604:
 9212              	.L658:
 9213              	.LBB2853:
 9214              	.LBB2854:
 9215              	.LBB2855:
 244:../../libdaisy/src/dev/oled_ssd130x.h ****         else
 9216              		.loc 5 244 42 is_stmt 0 view .LVU2388
 9217 042e 42F00102 		orr	r2, r2, #1
 9218 0432 03F8012F 		strb	r2, [r3, #1]!
 9219              	.LVL605:
 244:../../libdaisy/src/dev/oled_ssd130x.h ****         else
 9220              		.loc 5 244 42 view .LVU2389
 9221              	.LBE2855:
 9222              	.LBE2854:
 9223              	.LBE2853:
 199:../../libdaisy/src/hid/disp/display.h ****         {
 9224              		.loc 6 199 26 is_stmt 1 view .LVU2390
 9225 0436 9942     		cmp	r1, r3
 9226 0438 08D0     		beq	.L657
 9227              	.LVL606:
 9228              	.L561:
 9229              	.LBB2861:
 9230              	.LBI2853:
  41:../../libdaisy/src/hid/disp/oled_display.h ****     {
 9231              		.loc 1 41 10 view .LVU2391
 9232              	.LBB2860:
 9233              	.LBI2854:
 239:../../libdaisy/src/dev/oled_ssd130x.h ****     {
 9234              		.loc 5 239 10 view .LVU2392
 9235              	.LBB2859:
 9236              	.LBB2856:
 9237              	.LBI2856:
 239:../../libdaisy/src/dev/oled_ssd130x.h ****     {
 9238              		.loc 5 239 10 view .LVU2393
 239:../../libdaisy/src/dev/oled_ssd130x.h ****     {
 9239              		.loc 5 239 10 is_stmt 0 view .LVU2394
 9240              	.LBE2856:
 244:../../libdaisy/src/dev/oled_ssd130x.h ****         else
 9241              		.loc 5 244 42 view .LVU2395
ARM GAS  C:\Users\VINCIU~1\AppData\Local\Temp\ccdS0pnQ.s 			page 231


 9242 043a 5A78     		ldrb	r2, [r3, #1]	@ zero_extendqisi2
 243:../../libdaisy/src/dev/oled_ssd130x.h ****             buffer_[x + (y / 8) * width] |= (1 << (y % 8));
 9243              		.loc 5 243 9 view .LVU2396
 9244 043c 0028     		cmp	r0, #0
 9245 043e F6D1     		bne	.L658
 9246              	.LBB2858:
 9247              	.LBB2857:
 246:../../libdaisy/src/dev/oled_ssd130x.h ****     }
 9248              		.loc 5 246 42 view .LVU2397
 9249 0440 02F0FE02 		and	r2, r2, #254
 9250 0444 03F8012F 		strb	r2, [r3, #1]!
 9251              	.LVL607:
 246:../../libdaisy/src/dev/oled_ssd130x.h ****     }
 9252              		.loc 5 246 42 view .LVU2398
 9253              	.LBE2857:
 9254              	.LBE2858:
 9255              	.LBE2859:
 9256              	.LBE2860:
 9257              	.LBE2861:
 199:../../libdaisy/src/hid/disp/display.h ****         {
 9258              		.loc 6 199 26 is_stmt 1 view .LVU2399
 9259 0448 9942     		cmp	r1, r3
 9260 044a F6D1     		bne	.L561
 9261              	.LVL608:
 9262              	.L657:
 199:../../libdaisy/src/hid/disp/display.h ****         {
 9263              		.loc 6 199 26 is_stmt 0 view .LVU2400
 9264              	.LBE2845:
 9265              	.LBE2844:
 9266              	.LBB2864:
 9267              	.LBI2864:
 181:../../libdaisy/src/hid/disp/display.h ****                   uint_fast8_t y1,
 9268              		.loc 6 181 10 is_stmt 1 view .LVU2401
 9269              	.LBB2865:
 9270              	.LBB2866:
 9271              	.LBI2866:
  41:../../libdaisy/src/hid/disp/oled_display.h ****     {
 9272              		.loc 1 41 10 view .LVU2402
 9273              	.LBB2867:
 9274              	.LBI2867:
 239:../../libdaisy/src/dev/oled_ssd130x.h ****     {
 9275              		.loc 5 239 10 view .LVU2403
 9276              	.LBB2868:
 244:../../libdaisy/src/dev/oled_ssd130x.h ****         else
 9277              		.loc 5 244 42 is_stmt 0 view .LVU2404
 9278 044c 94F81322 		ldrb	r2, [r4, #531]	@ zero_extendqisi2
 243:../../libdaisy/src/dev/oled_ssd130x.h ****             buffer_[x + (y / 8) * width] |= (1 << (y % 8));
 9279              		.loc 5 243 9 view .LVU2405
 9280 0450 0028     		cmp	r0, #0
 9281 0452 00F03981 		beq	.L562
 9282              	.LVL609:
 244:../../libdaisy/src/dev/oled_ssd130x.h ****         else
 9283              		.loc 5 244 42 view .LVU2406
 9284 0456 42F02002 		orr	r2, r2, #32
 9285              	.LVL610:
 9286              	.L563:
 244:../../libdaisy/src/dev/oled_ssd130x.h ****         else
ARM GAS  C:\Users\VINCIU~1\AppData\Local\Temp\ccdS0pnQ.s 			page 232


 9287              		.loc 5 244 42 view .LVU2407
 9288              	.LBE2868:
 9289              	.LBE2867:
 9290              	.LBE2866:
 9291              	.LBE2865:
 9292              	.LBE2864:
 9293              	.LBE2843:
 9294 045a 0023     		movs	r3, #0
 9295 045c 84F81322 		strb	r2, [r4, #531]
 9296              	.LVL611:
 9297              	.LBB2958:
 9298              	.LBB2903:
 9299              	.LBB2901:
 199:../../libdaisy/src/hid/disp/display.h ****         {
 9300              		.loc 6 199 26 is_stmt 1 view .LVU2408
 9301 0460 05E0     		b	.L566
 9302              	.LVL612:
 9303              	.L660:
 9304              	.LBB2873:
 9305              	.LBB2874:
 9306              	.LBB2875:
 244:../../libdaisy/src/dev/oled_ssd130x.h ****         else
 9307              		.loc 5 244 42 is_stmt 0 view .LVU2409
 9308 0462 0A7D     		ldrb	r2, [r1, #20]	@ zero_extendqisi2
 9309              	.LBE2875:
 9310              	.LBE2874:
 9311              	.LBE2873:
 212:../../libdaisy/src/hid/disp/display.h ****             }
 9312              		.loc 6 212 20 view .LVU2410
 9313 0464 0133     		adds	r3, r3, #1
 9314              	.LVL613:
 9315              	.LBB2895:
 9316              	.LBB2890:
 9317              	.LBB2885:
 244:../../libdaisy/src/dev/oled_ssd130x.h ****         else
 9318              		.loc 5 244 42 view .LVU2411
 9319 0466 1543     		orrs	r5, r5, r2
 9320              	.LBE2885:
 9321              	.LBE2890:
 9322              	.LBE2895:
 199:../../libdaisy/src/hid/disp/display.h ****         {
 9323              		.loc 6 199 26 view .LVU2412
 9324 0468 1D2B     		cmp	r3, #29
 9325              	.LBB2896:
 9326              	.LBB2891:
 9327              	.LBB2886:
 244:../../libdaisy/src/dev/oled_ssd130x.h ****         else
 9328              		.loc 5 244 42 view .LVU2413
 9329 046a 0D75     		strb	r5, [r1, #20]
 9330              	.LVL614:
 244:../../libdaisy/src/dev/oled_ssd130x.h ****         else
 9331              		.loc 5 244 42 view .LVU2414
 9332              	.LBE2886:
 9333              	.LBE2891:
 9334              	.LBE2896:
 199:../../libdaisy/src/hid/disp/display.h ****         {
 9335              		.loc 6 199 26 is_stmt 1 view .LVU2415
ARM GAS  C:\Users\VINCIU~1\AppData\Local\Temp\ccdS0pnQ.s 			page 233


 9336 046c 12D0     		beq	.L659
 9337              	.LVL615:
 9338              	.L566:
 9339              	.LBB2897:
 9340              	.LBI2873:
  41:../../libdaisy/src/hid/disp/oled_display.h ****     {
 9341              		.loc 1 41 10 view .LVU2416
 9342              	.LBB2892:
 9343              	.LBI2874:
 239:../../libdaisy/src/dev/oled_ssd130x.h ****     {
 9344              		.loc 5 239 10 view .LVU2417
 9345              	.LBB2887:
 9346              	.LBB2876:
 9347              	.LBI2876:
 239:../../libdaisy/src/dev/oled_ssd130x.h ****     {
 9348              		.loc 5 239 10 view .LVU2418
 239:../../libdaisy/src/dev/oled_ssd130x.h ****     {
 9349              		.loc 5 239 10 is_stmt 0 view .LVU2419
 9350              	.LBE2876:
 244:../../libdaisy/src/dev/oled_ssd130x.h ****         else
 9351              		.loc 5 244 42 view .LVU2420
 9352 046e 1901     		lsls	r1, r3, #4
 244:../../libdaisy/src/dev/oled_ssd130x.h ****         else
 9353              		.loc 5 244 54 view .LVU2421
 9354 0470 03F00707 		and	r7, r3, #7
 244:../../libdaisy/src/dev/oled_ssd130x.h ****         else
 9355              		.loc 5 244 48 view .LVU2422
 9356 0474 0125     		movs	r5, #1
 244:../../libdaisy/src/dev/oled_ssd130x.h ****         else
 9357              		.loc 5 244 42 view .LVU2423
 9358 0476 41F07F01 		orr	r1, r1, #127
 244:../../libdaisy/src/dev/oled_ssd130x.h ****         else
 9359              		.loc 5 244 48 view .LVU2424
 9360 047a BD40     		lsls	r5, r5, r7
 244:../../libdaisy/src/dev/oled_ssd130x.h ****         else
 9361              		.loc 5 244 42 view .LVU2425
 9362 047c 2144     		add	r1, r1, r4
 9363              	.LBB2881:
 9364              	.LBB2877:
 246:../../libdaisy/src/dev/oled_ssd130x.h ****     }
 9365              		.loc 5 246 42 view .LVU2426
 9366 047e 0A46     		mov	r2, r1
 9367              	.LBE2877:
 9368              	.LBE2881:
 243:../../libdaisy/src/dev/oled_ssd130x.h ****             buffer_[x + (y / 8) * width] |= (1 << (y % 8));
 9369              		.loc 5 243 9 view .LVU2427
 9370 0480 0028     		cmp	r0, #0
 9371 0482 EED1     		bne	.L660
 9372              	.LBB2882:
 9373              	.LBB2878:
 246:../../libdaisy/src/dev/oled_ssd130x.h ****     }
 9374              		.loc 5 246 42 view .LVU2428
 9375 0484 097D     		ldrb	r1, [r1, #20]	@ zero_extendqisi2
 9376              	.LBE2878:
 9377              	.LBE2882:
 9378              	.LBE2887:
 9379              	.LBE2892:
ARM GAS  C:\Users\VINCIU~1\AppData\Local\Temp\ccdS0pnQ.s 			page 234


 9380              	.LBE2897:
 212:../../libdaisy/src/hid/disp/display.h ****             }
 9381              		.loc 6 212 20 view .LVU2429
 9382 0486 0133     		adds	r3, r3, #1
 9383              	.LVL616:
 9384              	.LBB2898:
 9385              	.LBB2893:
 9386              	.LBB2888:
 9387              	.LBB2883:
 9388              	.LBB2879:
 246:../../libdaisy/src/dev/oled_ssd130x.h ****     }
 9389              		.loc 5 246 42 view .LVU2430
 9390 0488 21EA050C 		bic	ip, r1, r5
 9391              	.LBE2879:
 9392              	.LBE2883:
 9393              	.LBE2888:
 9394              	.LBE2893:
 9395              	.LBE2898:
 199:../../libdaisy/src/hid/disp/display.h ****         {
 9396              		.loc 6 199 26 view .LVU2431
 9397 048c 1D2B     		cmp	r3, #29
 9398              	.LBB2899:
 9399              	.LBB2894:
 9400              	.LBB2889:
 9401              	.LBB2884:
 9402              	.LBB2880:
 246:../../libdaisy/src/dev/oled_ssd130x.h ****     }
 9403              		.loc 5 246 42 view .LVU2432
 9404 048e 82F814C0 		strb	ip, [r2, #20]
 9405              	.LVL617:
 246:../../libdaisy/src/dev/oled_ssd130x.h ****     }
 9406              		.loc 5 246 42 view .LVU2433
 9407              	.LBE2880:
 9408              	.LBE2884:
 9409              	.LBE2889:
 9410              	.LBE2894:
 9411              	.LBE2899:
 199:../../libdaisy/src/hid/disp/display.h ****         {
 9412              		.loc 6 199 26 is_stmt 1 view .LVU2434
 9413 0492 ECD1     		bne	.L566
 9414              	.L659:
 9415              	.LVL618:
 199:../../libdaisy/src/hid/disp/display.h ****         {
 9416              		.loc 6 199 26 is_stmt 0 view .LVU2435
 9417              	.LBE2901:
 9418              	.LBE2903:
 9419              	.LBB2904:
 9420              	.LBI2904:
 181:../../libdaisy/src/hid/disp/display.h ****                   uint_fast8_t y1,
 9421              		.loc 6 181 10 is_stmt 1 view .LVU2436
 9422              	.LBB2905:
 9423              	.LBB2906:
 9424              	.LBI2906:
  41:../../libdaisy/src/hid/disp/oled_display.h ****     {
 9425              		.loc 1 41 10 view .LVU2437
 9426              	.LBB2907:
 9427              	.LBI2907:
ARM GAS  C:\Users\VINCIU~1\AppData\Local\Temp\ccdS0pnQ.s 			page 235


 239:../../libdaisy/src/dev/oled_ssd130x.h ****     {
 9428              		.loc 5 239 10 view .LVU2438
 9429              	.LBB2908:
 244:../../libdaisy/src/dev/oled_ssd130x.h ****         else
 9430              		.loc 5 244 42 is_stmt 0 view .LVU2439
 9431 0494 94F8D021 		ldrb	r2, [r4, #464]	@ zero_extendqisi2
 243:../../libdaisy/src/dev/oled_ssd130x.h ****             buffer_[x + (y / 8) * width] |= (1 << (y % 8));
 9432              		.loc 5 243 9 view .LVU2440
 9433 0498 0028     		cmp	r0, #0
 9434 049a 00F01281 		beq	.L567
 9435              	.LVL619:
 244:../../libdaisy/src/dev/oled_ssd130x.h ****         else
 9436              		.loc 5 244 42 view .LVU2441
 9437 049e 42F02002 		orr	r2, r2, #32
 9438              	.LVL620:
 9439              	.L568:
 244:../../libdaisy/src/dev/oled_ssd130x.h ****         else
 9440              		.loc 5 244 42 view .LVU2442
 9441 04a2 84F8D021 		strb	r2, [r4, #464]
 9442              	.LVL621:
 244:../../libdaisy/src/dev/oled_ssd130x.h ****         else
 9443              		.loc 5 244 42 view .LVU2443
 9444              	.LBE2908:
 9445              	.LBE2907:
 9446              	.LBE2906:
 199:../../libdaisy/src/hid/disp/display.h ****         {
 9447              		.loc 6 199 26 is_stmt 1 view .LVU2444
 9448 04a6 04F5E875 		add	r5, r4, #464
 9449 04aa 04F21322 		addw	r2, r4, #531
 9450 04ae 05E0     		b	.L571
 9451              	.LVL622:
 9452              	.L662:
 9453              	.LBB2913:
 9454              	.LBB2914:
 9455              	.LBB2915:
 244:../../libdaisy/src/dev/oled_ssd130x.h ****         else
 9456              		.loc 5 244 42 is_stmt 0 view .LVU2445
 9457 04b0 41F02001 		orr	r1, r1, #32
 9458              	.LBE2915:
 9459              	.LBE2914:
 9460              	.LBE2913:
 199:../../libdaisy/src/hid/disp/display.h ****         {
 9461              		.loc 6 199 26 view .LVU2446
 9462 04b4 013A     		subs	r2, r2, #1
 9463              	.LVL623:
 9464              	.LBB2927:
 9465              	.LBB2924:
 9466              	.LBB2921:
 244:../../libdaisy/src/dev/oled_ssd130x.h ****         else
 9467              		.loc 5 244 42 view .LVU2447
 9468 04b6 5170     		strb	r1, [r2, #1]
 9469              	.LVL624:
 244:../../libdaisy/src/dev/oled_ssd130x.h ****         else
 9470              		.loc 5 244 42 view .LVU2448
 9471              	.LBE2921:
 9472              	.LBE2924:
 9473              	.LBE2927:
ARM GAS  C:\Users\VINCIU~1\AppData\Local\Temp\ccdS0pnQ.s 			page 236


 199:../../libdaisy/src/hid/disp/display.h ****         {
 9474              		.loc 6 199 26 is_stmt 1 view .LVU2449
 9475 04b8 9542     		cmp	r5, r2
 9476 04ba 08D0     		beq	.L661
 9477              	.LVL625:
 9478              	.L571:
 9479              	.LBB2928:
 9480              	.LBI2913:
  41:../../libdaisy/src/hid/disp/oled_display.h ****     {
 9481              		.loc 1 41 10 view .LVU2450
 9482              	.LBB2925:
 9483              	.LBI2914:
 239:../../libdaisy/src/dev/oled_ssd130x.h ****     {
 9484              		.loc 5 239 10 view .LVU2451
 9485              	.LBB2922:
 9486              	.LBB2916:
 9487              	.LBI2916:
 239:../../libdaisy/src/dev/oled_ssd130x.h ****     {
 9488              		.loc 5 239 10 view .LVU2452
 239:../../libdaisy/src/dev/oled_ssd130x.h ****     {
 9489              		.loc 5 239 10 is_stmt 0 view .LVU2453
 9490              	.LBE2916:
 244:../../libdaisy/src/dev/oled_ssd130x.h ****         else
 9491              		.loc 5 244 42 view .LVU2454
 9492 04bc 1178     		ldrb	r1, [r2]	@ zero_extendqisi2
 243:../../libdaisy/src/dev/oled_ssd130x.h ****             buffer_[x + (y / 8) * width] |= (1 << (y % 8));
 9493              		.loc 5 243 9 view .LVU2455
 9494 04be 0028     		cmp	r0, #0
 9495 04c0 F6D1     		bne	.L662
 9496              	.LBB2919:
 9497              	.LBB2917:
 246:../../libdaisy/src/dev/oled_ssd130x.h ****     }
 9498              		.loc 5 246 42 view .LVU2456
 9499 04c2 21F02001 		bic	r1, r1, #32
 9500              	.LBE2917:
 9501              	.LBE2919:
 9502              	.LBE2922:
 9503              	.LBE2925:
 9504              	.LBE2928:
 199:../../libdaisy/src/hid/disp/display.h ****         {
 9505              		.loc 6 199 26 view .LVU2457
 9506 04c6 013A     		subs	r2, r2, #1
 9507              	.LVL626:
 9508              	.LBB2929:
 9509              	.LBB2926:
 9510              	.LBB2923:
 9511              	.LBB2920:
 9512              	.LBB2918:
 246:../../libdaisy/src/dev/oled_ssd130x.h ****     }
 9513              		.loc 5 246 42 view .LVU2458
 9514 04c8 5170     		strb	r1, [r2, #1]
 9515              	.LVL627:
 246:../../libdaisy/src/dev/oled_ssd130x.h ****     }
 9516              		.loc 5 246 42 view .LVU2459
 9517              	.LBE2918:
 9518              	.LBE2920:
 9519              	.LBE2923:
ARM GAS  C:\Users\VINCIU~1\AppData\Local\Temp\ccdS0pnQ.s 			page 237


 9520              	.LBE2926:
 9521              	.LBE2929:
 199:../../libdaisy/src/hid/disp/display.h ****         {
 9522              		.loc 6 199 26 is_stmt 1 view .LVU2460
 9523 04ca 9542     		cmp	r5, r2
 9524 04cc F6D1     		bne	.L571
 9525              	.L661:
 9526              	.LVL628:
 199:../../libdaisy/src/hid/disp/display.h ****         {
 9527              		.loc 6 199 26 is_stmt 0 view .LVU2461
 9528              	.LBE2905:
 9529              	.LBE2904:
 9530              	.LBB2932:
 9531              	.LBI2932:
 181:../../libdaisy/src/hid/disp/display.h ****                   uint_fast8_t y1,
 9532              		.loc 6 181 10 is_stmt 1 view .LVU2462
 9533              	.LBB2933:
 9534              	.LBB2934:
 9535              	.LBI2934:
  41:../../libdaisy/src/hid/disp/oled_display.h ****     {
 9536              		.loc 1 41 10 view .LVU2463
 9537              	.LBB2935:
 9538              	.LBI2935:
 239:../../libdaisy/src/dev/oled_ssd130x.h ****     {
 9539              		.loc 5 239 10 view .LVU2464
 9540              	.LBB2936:
 244:../../libdaisy/src/dev/oled_ssd130x.h ****         else
 9541              		.loc 5 244 42 is_stmt 0 view .LVU2465
 9542 04ce 94F85020 		ldrb	r2, [r4, #80]	@ zero_extendqisi2
 243:../../libdaisy/src/dev/oled_ssd130x.h ****             buffer_[x + (y / 8) * width] |= (1 << (y % 8));
 9543              		.loc 5 243 9 view .LVU2466
 9544 04d2 0028     		cmp	r0, #0
 9545 04d4 00F0F280 		beq	.L572
 9546              	.LVL629:
 244:../../libdaisy/src/dev/oled_ssd130x.h ****         else
 9547              		.loc 5 244 42 view .LVU2467
 9548 04d8 42F00102 		orr	r2, r2, #1
 9549              	.LVL630:
 9550              	.L573:
 244:../../libdaisy/src/dev/oled_ssd130x.h ****         else
 9551              		.loc 5 244 42 view .LVU2468
 9552 04dc 84F85020 		strb	r2, [r4, #80]
 9553              	.LVL631:
 244:../../libdaisy/src/dev/oled_ssd130x.h ****         else
 9554              		.loc 5 244 42 view .LVU2469
 9555              	.LBE2936:
 9556              	.LBE2935:
 9557              	.LBE2934:
 199:../../libdaisy/src/hid/disp/display.h ****         {
 9558              		.loc 6 199 26 is_stmt 1 view .LVU2470
 9559 04e0 06E0     		b	.L576
 9560              	.LVL632:
 9561              	.L663:
 9562              	.LBB2941:
 9563              	.LBB2942:
 9564              	.LBB2943:
 244:../../libdaisy/src/dev/oled_ssd130x.h ****         else
ARM GAS  C:\Users\VINCIU~1\AppData\Local\Temp\ccdS0pnQ.s 			page 238


 9565              		.loc 5 244 42 is_stmt 0 view .LVU2471
 9566 04e2 95F85020 		ldrb	r2, [r5, #80]	@ zero_extendqisi2
 9567 04e6 1143     		orrs	r1, r1, r2
 9568 04e8 85F85010 		strb	r1, [r5, #80]
 9569              	.L575:
 9570              	.LVL633:
 244:../../libdaisy/src/dev/oled_ssd130x.h ****         else
 9571              		.loc 5 244 42 view .LVU2472
 9572              	.LBE2943:
 9573              	.LBE2942:
 9574              	.LBE2941:
 199:../../libdaisy/src/hid/disp/display.h ****         {
 9575              		.loc 6 199 26 is_stmt 1 view .LVU2473
 9576 04ec 013B     		subs	r3, r3, #1
 9577              	.LVL634:
 199:../../libdaisy/src/hid/disp/display.h ****         {
 9578              		.loc 6 199 26 is_stmt 0 view .LVU2474
 9579 04ee 1BD0     		beq	.L550
 9580              	.LVL635:
 9581              	.L576:
 9582              	.LBB2951:
 9583              	.LBI2941:
  41:../../libdaisy/src/hid/disp/oled_display.h ****     {
 9584              		.loc 1 41 10 is_stmt 1 view .LVU2475
 9585              	.LBB2950:
 9586              	.LBI2942:
 239:../../libdaisy/src/dev/oled_ssd130x.h ****     {
 9587              		.loc 5 239 10 view .LVU2476
 9588              	.LBB2949:
 9589              	.LBB2944:
 9590              	.LBI2944:
 239:../../libdaisy/src/dev/oled_ssd130x.h ****     {
 9591              		.loc 5 239 10 view .LVU2477
 239:../../libdaisy/src/dev/oled_ssd130x.h ****     {
 9592              		.loc 5 239 10 is_stmt 0 view .LVU2478
 9593              	.LBE2944:
 244:../../libdaisy/src/dev/oled_ssd130x.h ****         else
 9594              		.loc 5 244 48 view .LVU2479
 9595 04f0 0121     		movs	r1, #1
 244:../../libdaisy/src/dev/oled_ssd130x.h ****         else
 9596              		.loc 5 244 28 view .LVU2480
 9597 04f2 DD08     		lsrs	r5, r3, #3
 244:../../libdaisy/src/dev/oled_ssd130x.h ****         else
 9598              		.loc 5 244 54 view .LVU2481
 9599 04f4 03F0070C 		and	ip, r3, #7
 9600              	.LBB2947:
 9601              	.LBB2945:
 246:../../libdaisy/src/dev/oled_ssd130x.h ****     }
 9602              		.loc 5 246 49 view .LVU2482
 9603 04f8 0F46     		mov	r7, r1
 9604              	.LBE2945:
 9605              	.LBE2947:
 244:../../libdaisy/src/dev/oled_ssd130x.h ****         else
 9606              		.loc 5 244 42 view .LVU2483
 9607 04fa 04EBC515 		add	r5, r4, r5, lsl #7
 244:../../libdaisy/src/dev/oled_ssd130x.h ****         else
 9608              		.loc 5 244 48 view .LVU2484
ARM GAS  C:\Users\VINCIU~1\AppData\Local\Temp\ccdS0pnQ.s 			page 239


 9609 04fe 01FA0CF1 		lsl	r1, r1, ip
 243:../../libdaisy/src/dev/oled_ssd130x.h ****             buffer_[x + (y / 8) * width] |= (1 << (y % 8));
 9610              		.loc 5 243 9 view .LVU2485
 9611 0502 0028     		cmp	r0, #0
 9612 0504 EDD1     		bne	.L663
 9613              	.LBB2948:
 9614              	.LBB2946:
 246:../../libdaisy/src/dev/oled_ssd130x.h ****     }
 9615              		.loc 5 246 42 view .LVU2486
 9616 0506 95F85010 		ldrb	r1, [r5, #80]	@ zero_extendqisi2
 246:../../libdaisy/src/dev/oled_ssd130x.h ****     }
 9617              		.loc 5 246 49 view .LVU2487
 9618 050a 07FA0CF7 		lsl	r7, r7, ip
 246:../../libdaisy/src/dev/oled_ssd130x.h ****     }
 9619              		.loc 5 246 42 view .LVU2488
 9620 050e 21EA0707 		bic	r7, r1, r7
 9621 0512 85F85070 		strb	r7, [r5, #80]
 9622 0516 E9E7     		b	.L575
 9623              	.LVL636:
 9624              	.L649:
 246:../../libdaisy/src/dev/oled_ssd130x.h ****     }
 9625              		.loc 5 246 42 view .LVU2489
 9626              	.LBE2946:
 9627              	.LBE2948:
 9628              	.LBE2949:
 9629              	.LBE2950:
 9630              	.LBE2951:
 9631              	.LBE2933:
 9632              	.LBE2932:
 9633              	.LBE2958:
 9634              	.LBE2983:
 293:Menus.cpp     ****         this->OscSelector = !this->OscSelector;
 9635              		.loc 2 293 9 is_stmt 1 view .LVU2490
 293:Menus.cpp     ****         this->OscSelector = !this->OscSelector;
 9636              		.loc 2 293 29 is_stmt 0 view .LVU2491
 9637 0518 95F87430 		ldrb	r3, [r5, #116]	@ zero_extendqisi2
 9638 051c 83F00103 		eor	r3, r3, #1
 293:Menus.cpp     ****         this->OscSelector = !this->OscSelector;
 9639              		.loc 2 293 27 view .LVU2492
 9640 0520 85F87430 		strb	r3, [r5, #116]
 294:Menus.cpp     ****         on                = this->OscSelector;
 9641              		.loc 2 294 9 is_stmt 1 view .LVU2493
 294:Menus.cpp     ****         on                = this->OscSelector;
 9642              		.loc 2 294 27 is_stmt 0 view .LVU2494
 9643 0524 85F8E531 		strb	r3, [r5, #485]
 9644              	.LVL637:
 9645              	.L550:
 294:Menus.cpp     ****         on                = this->OscSelector;
 9646              		.loc 2 294 27 view .LVU2495
 9647              	.LBE3017:
 9648              	.LBB3018:
 9649              	.LBB3019:
 9650              	.LBB3020:
 9651              	.LBB3021:
 9652              	.LBB3022:
 111:../../libdaisy/src/dev/oled_ssd130x.h ****         spi_.BlockingTransmit(&cmd, 1);
 9653              		.loc 5 111 24 view .LVU2496
ARM GAS  C:\Users\VINCIU~1\AppData\Local\Temp\ccdS0pnQ.s 			page 240


 9654 0528 04F10807 		add	r7, r4, #8
 112:../../libdaisy/src/dev/oled_ssd130x.h ****     };
 9655              		.loc 5 112 30 view .LVU2497
 9656 052c B025     		movs	r5, #176
 111:../../libdaisy/src/dev/oled_ssd130x.h ****         spi_.BlockingTransmit(&cmd, 1);
 9657              		.loc 5 111 24 view .LVU2498
 9658 052e 1034     		adds	r4, r4, #16
 9659              	.LVL638:
 9660              	.L605:
 111:../../libdaisy/src/dev/oled_ssd130x.h ****         spi_.BlockingTransmit(&cmd, 1);
 9661              		.loc 5 111 24 view .LVU2499
 9662 0530 4FF00008 		mov	r8, #0
 111:../../libdaisy/src/dev/oled_ssd130x.h ****         spi_.BlockingTransmit(&cmd, 1);
 9663              		.loc 5 111 23 view .LVU2500
 9664 0534 2046     		mov	r0, r4
 9665 0536 8DF81750 		strb	r5, [sp, #23]
 9666              	.LVL639:
 111:../../libdaisy/src/dev/oled_ssd130x.h ****         spi_.BlockingTransmit(&cmd, 1);
 9667              		.loc 5 111 23 view .LVU2501
 9668              	.LBE3022:
 9669              	.LBI3021:
 109:../../libdaisy/src/dev/oled_ssd130x.h ****     {
 9670              		.loc 5 109 10 is_stmt 1 view .LVU2502
 9671              	.LBB3023:
 111:../../libdaisy/src/dev/oled_ssd130x.h ****         spi_.BlockingTransmit(&cmd, 1);
 9672              		.loc 5 111 9 view .LVU2503
 9673              	.LBE3023:
 9674              	.LBE3021:
 9675              		.loc 5 270 22 is_stmt 0 view .LVU2504
 9676 053a 0135     		adds	r5, r5, #1
 9677              	.LVL640:
 9678              	.LBB3026:
 9679              	.LBB3024:
 111:../../libdaisy/src/dev/oled_ssd130x.h ****         spi_.BlockingTransmit(&cmd, 1);
 9680              		.loc 5 111 23 view .LVU2505
 9681 053c 4146     		mov	r1, r8
 9682 053e FFF7FEFF 		bl	dsy_gpio_write
 9683              	.LVL641:
 112:../../libdaisy/src/dev/oled_ssd130x.h ****     };
 9684              		.loc 5 112 9 is_stmt 1 view .LVU2506
 112:../../libdaisy/src/dev/oled_ssd130x.h ****     };
 9685              		.loc 5 112 30 is_stmt 0 view .LVU2507
 9686 0542 6423     		movs	r3, #100
 9687 0544 0122     		movs	r2, #1
 9688 0546 0DF11701 		add	r1, sp, #23
 9689 054a 3846     		mov	r0, r7
 9690              	.LBE3024:
 9691              	.LBE3026:
 9692              		.loc 5 270 22 view .LVU2508
 9693 054c EDB2     		uxtb	r5, r5
 9694              	.LBB3027:
 9695              	.LBB3025:
 112:../../libdaisy/src/dev/oled_ssd130x.h ****     };
 9696              		.loc 5 112 30 view .LVU2509
 9697 054e FFF7FEFF 		bl	_ZN5daisy9SpiHandle16BlockingTransmitEPhjm
 9698              	.LVL642:
 112:../../libdaisy/src/dev/oled_ssd130x.h ****     };
ARM GAS  C:\Users\VINCIU~1\AppData\Local\Temp\ccdS0pnQ.s 			page 241


 9699              		.loc 5 112 30 view .LVU2510
 9700              	.LBE3025:
 9701              	.LBE3027:
 9702              	.LBB3028:
 9703              	.LBB3029:
 111:../../libdaisy/src/dev/oled_ssd130x.h ****         spi_.BlockingTransmit(&cmd, 1);
 9704              		.loc 5 111 23 view .LVU2511
 9705 0552 4146     		mov	r1, r8
 9706 0554 2046     		mov	r0, r4
 9707 0556 8DF81780 		strb	r8, [sp, #23]
 9708              	.LVL643:
 111:../../libdaisy/src/dev/oled_ssd130x.h ****         spi_.BlockingTransmit(&cmd, 1);
 9709              		.loc 5 111 23 view .LVU2512
 9710              	.LBE3029:
 9711              	.LBI3028:
 109:../../libdaisy/src/dev/oled_ssd130x.h ****     {
 9712              		.loc 5 109 10 is_stmt 1 view .LVU2513
 9713              	.LBB3030:
 111:../../libdaisy/src/dev/oled_ssd130x.h ****         spi_.BlockingTransmit(&cmd, 1);
 9714              		.loc 5 111 9 view .LVU2514
 111:../../libdaisy/src/dev/oled_ssd130x.h ****         spi_.BlockingTransmit(&cmd, 1);
 9715              		.loc 5 111 23 is_stmt 0 view .LVU2515
 9716 055a FFF7FEFF 		bl	dsy_gpio_write
 9717              	.LVL644:
 112:../../libdaisy/src/dev/oled_ssd130x.h ****     };
 9718              		.loc 5 112 9 is_stmt 1 view .LVU2516
 112:../../libdaisy/src/dev/oled_ssd130x.h ****     };
 9719              		.loc 5 112 30 is_stmt 0 view .LVU2517
 9720 055e 0122     		movs	r2, #1
 9721 0560 6423     		movs	r3, #100
 9722 0562 0DF11701 		add	r1, sp, #23
 9723 0566 3846     		mov	r0, r7
 9724 0568 FFF7FEFF 		bl	_ZN5daisy9SpiHandle16BlockingTransmitEPhjm
 9725              	.LVL645:
 112:../../libdaisy/src/dev/oled_ssd130x.h ****     };
 9726              		.loc 5 112 30 view .LVU2518
 9727 056c 1023     		movs	r3, #16
 9728              	.LBE3030:
 9729              	.LBE3028:
 9730              	.LBB3031:
 9731              	.LBB3032:
 111:../../libdaisy/src/dev/oled_ssd130x.h ****         spi_.BlockingTransmit(&cmd, 1);
 9732              		.loc 5 111 23 view .LVU2519
 9733 056e 4146     		mov	r1, r8
 9734 0570 2046     		mov	r0, r4
 9735 0572 8DF81730 		strb	r3, [sp, #23]
 9736              	.LVL646:
 111:../../libdaisy/src/dev/oled_ssd130x.h ****         spi_.BlockingTransmit(&cmd, 1);
 9737              		.loc 5 111 23 view .LVU2520
 9738              	.LBE3032:
 9739              	.LBI3031:
 109:../../libdaisy/src/dev/oled_ssd130x.h ****     {
 9740              		.loc 5 109 10 is_stmt 1 view .LVU2521
 9741              	.LBB3033:
 111:../../libdaisy/src/dev/oled_ssd130x.h ****         spi_.BlockingTransmit(&cmd, 1);
 9742              		.loc 5 111 9 view .LVU2522
 111:../../libdaisy/src/dev/oled_ssd130x.h ****         spi_.BlockingTransmit(&cmd, 1);
ARM GAS  C:\Users\VINCIU~1\AppData\Local\Temp\ccdS0pnQ.s 			page 242


 9743              		.loc 5 111 23 is_stmt 0 view .LVU2523
 9744 0576 FFF7FEFF 		bl	dsy_gpio_write
 9745              	.LVL647:
 112:../../libdaisy/src/dev/oled_ssd130x.h ****     };
 9746              		.loc 5 112 9 is_stmt 1 view .LVU2524
 112:../../libdaisy/src/dev/oled_ssd130x.h ****     };
 9747              		.loc 5 112 30 is_stmt 0 view .LVU2525
 9748 057a 6423     		movs	r3, #100
 9749 057c 0122     		movs	r2, #1
 9750 057e 0DF11701 		add	r1, sp, #23
 9751 0582 3846     		mov	r0, r7
 9752 0584 FFF7FEFF 		bl	_ZN5daisy9SpiHandle16BlockingTransmitEPhjm
 9753              	.LVL648:
 112:../../libdaisy/src/dev/oled_ssd130x.h ****     };
 9754              		.loc 5 112 30 view .LVU2526
 9755              	.LBE3033:
 9756              	.LBE3031:
 9757              	.LBB3034:
 9758              	.LBI3034:
 115:../../libdaisy/src/dev/oled_ssd130x.h ****     {
 9759              		.loc 5 115 10 is_stmt 1 view .LVU2527
 9760              	.LBB3035:
 117:../../libdaisy/src/dev/oled_ssd130x.h ****         spi_.BlockingTransmit(buff, size);
 9761              		.loc 5 117 9 view .LVU2528
 117:../../libdaisy/src/dev/oled_ssd130x.h ****         spi_.BlockingTransmit(buff, size);
 9762              		.loc 5 117 23 is_stmt 0 view .LVU2529
 9763 0588 0121     		movs	r1, #1
 9764 058a 2046     		mov	r0, r4
 9765 058c FFF7FEFF 		bl	dsy_gpio_write
 9766              	.LVL649:
 118:../../libdaisy/src/dev/oled_ssd130x.h ****     };
 9767              		.loc 5 118 9 is_stmt 1 view .LVU2530
 118:../../libdaisy/src/dev/oled_ssd130x.h ****     };
 9768              		.loc 5 118 30 is_stmt 0 view .LVU2531
 9769 0590 8022     		movs	r2, #128
 9770 0592 3146     		mov	r1, r6
 9771 0594 6423     		movs	r3, #100
 9772 0596 3846     		mov	r0, r7
 9773              	.LBE3035:
 9774              	.LBE3034:
 9775              		.loc 5 270 22 view .LVU2532
 9776 0598 1644     		add	r6, r6, r2
 9777              	.LVL650:
 9778              	.LBB3037:
 9779              	.LBB3036:
 118:../../libdaisy/src/dev/oled_ssd130x.h ****     };
 9780              		.loc 5 118 30 view .LVU2533
 9781 059a FFF7FEFF 		bl	_ZN5daisy9SpiHandle16BlockingTransmitEPhjm
 9782              	.LVL651:
 118:../../libdaisy/src/dev/oled_ssd130x.h ****     };
 9783              		.loc 5 118 30 view .LVU2534
 9784              	.LBE3036:
 9785              	.LBE3037:
 9786              		.loc 5 270 9 is_stmt 1 view .LVU2535
 9787              		.loc 5 270 22 view .LVU2536
 9788 059e B82D     		cmp	r5, #184
 9789 05a0 C6D1     		bne	.L605
ARM GAS  C:\Users\VINCIU~1\AppData\Local\Temp\ccdS0pnQ.s 			page 243


 9790              	.LBE3020:
 9791              	.LBE3019:
 9792              	.LBE3018:
 557:Menus.cpp     **** }
 9793              		.loc 2 557 1 is_stmt 0 view .LVU2537
 9794 05a2 07B0     		add	sp, sp, #28
 9795              		.cfi_remember_state
 9796              		.cfi_def_cfa_offset 36
 9797              		@ sp needed
 9798 05a4 BDEC028B 		vldm	sp!, {d8}
 9799              		.cfi_restore 80
 9800              		.cfi_restore 81
 9801              		.cfi_def_cfa_offset 28
 9802 05a8 BDE8F083 		pop	{r4, r5, r6, r7, r8, r9, pc}
 9803              	.LVL652:
 9804              	.L644:
 9805              		.cfi_restore_state
 232:Menus.cpp     ****         menuState = menuState - 1;
 9806              		.loc 2 232 9 is_stmt 1 view .LVU2538
 233:Menus.cpp     ****         if(menuState < 0)
 9807              		.loc 2 233 9 view .LVU2539
 232:Menus.cpp     ****         menuState = menuState - 1;
 9808              		.loc 2 232 31 is_stmt 0 view .LVU2540
 9809 05ac EB6E     		ldr	r3, [r5, #108]
 233:Menus.cpp     ****         if(menuState < 0)
 9810              		.loc 2 233 9 view .LVU2541
 9811 05ae 013B     		subs	r3, r3, #1
 9812 05b0 7CD4     		bmi	.L530
 232:Menus.cpp     ****         menuState = menuState - 1;
 9813              		.loc 2 232 19 view .LVU2542
 9814 05b2 EB66     		str	r3, [r5, #108]
 238:Menus.cpp     ****     if(this->buttonRight.RisingEdge())
 9815              		.loc 2 238 5 is_stmt 1 view .LVU2543
 9816              	.LVL653:
 9817              	.LBB3038:
 9818              		.loc 4 69 17 view .LVU2544
 9819              	.LBB2674:
 9820              		.loc 4 69 38 view .LVU2545
 9821              		.loc 4 69 38 is_stmt 0 view .LVU2546
 9822              	.LBE2674:
 9823              	.LBE3038:
 238:Menus.cpp     ****     if(this->buttonRight.RisingEdge())
 9824              		.loc 2 238 5 view .LVU2547
 9825 05b4 95F86130 		ldrb	r3, [r5, #97]	@ zero_extendqisi2
 9826 05b8 7F2B     		cmp	r3, #127
 9827 05ba 7FF440AD 		bne	.L532
 9828              	.L645:
 241:Menus.cpp     ****         menuState = menuState + 1;
 9829              		.loc 2 241 9 is_stmt 1 view .LVU2548
 241:Menus.cpp     ****         menuState = menuState + 1;
 9830              		.loc 2 241 31 is_stmt 0 view .LVU2549
 9831 05be EB6E     		ldr	r3, [r5, #108]
 9832 05c0 0133     		adds	r3, r3, #1
 242:Menus.cpp     ****         if(menuState > 3)
 9833              		.loc 2 242 9 view .LVU2550
 9834 05c2 032B     		cmp	r3, #3
 241:Menus.cpp     ****         menuState = menuState + 1;
ARM GAS  C:\Users\VINCIU~1\AppData\Local\Temp\ccdS0pnQ.s 			page 244


 9835              		.loc 2 241 19 view .LVU2551
 9836 05c4 EB66     		str	r3, [r5, #108]
 242:Menus.cpp     ****         if(menuState > 3)
 9837              		.loc 2 242 9 is_stmt 1 view .LVU2552
 9838 05c6 7FF73AAD 		ble	.L532
 9839              	.L531:
 244:Menus.cpp     ****             menuState = 0;
 9840              		.loc 2 244 13 view .LVU2553
 244:Menus.cpp     ****             menuState = 0;
 9841              		.loc 2 244 23 is_stmt 0 view .LVU2554
 9842 05ca 0023     		movs	r3, #0
 9843 05cc EB66     		str	r3, [r5, #108]
 9844 05ce 36E5     		b	.L532
 9845              	.L655:
 9846              	.LBB3039:
 9847              	.LBB2984:
 300:Menus.cpp     ****             if(this->noteSemiAdd > 32)
 9848              		.loc 2 300 13 is_stmt 1 view .LVU2555
 9849 05d0 D5F86421 		ldr	r2, [r5, #356]
 308:Menus.cpp     ****             if(this->drawSliderSemi >= 40)
 9850              		.loc 2 308 22 is_stmt 0 view .LVU2556
 9851 05d4 D5ED1E7A 		vldr.32	s15, [r5, #120]
 308:Menus.cpp     ****             if(this->drawSliderSemi >= 40)
 9852              		.loc 2 308 13 view .LVU2557
 9853 05d8 9FED497A 		vldr.32	s14, .L671+4
 9854 05dc 22EAE272 		bic	r2, r2, r2, asr #31
 9855 05e0 F4EEC77A 		vcmpe.f32	s15, s14
 9856 05e4 202A     		cmp	r2, #32
 9857 05e6 A8BF     		it	ge
 9858 05e8 2022     		movge	r2, #32
 308:Menus.cpp     ****             if(this->drawSliderSemi >= 40)
 9859              		.loc 2 308 13 is_stmt 1 view .LVU2558
 9860 05ea F1EE10FA 		vmrs	APSR_nzcv, FPSCR
 9861 05ee 80F28280 		bge	.L611
 312:Menus.cpp     ****             if(this->drawSliderSemi < 0)
 9862              		.loc 2 312 13 view .LVU2559
 9863 05f2 F5EEC07A 		vcmpe.f32	s15, #0
 9864 05f6 F1EE10FA 		vmrs	APSR_nzcv, FPSCR
 9865 05fa 01D5     		bpl	.L553
 9866 05fc DFED417A 		vldr.32	s15, .L671+8
 9867              	.L553:
 316:Menus.cpp     ****             this->noteSemiAdd += this->encoderRight.Increment();
 9868              		.loc 2 316 13 view .LVU2560
 9869              	.LVL654:
 9870              	.LBB2959:
 9871              	.LBI2959:
  41:../../libdaisy/src/hid/encoder.h ****     /** Returns true if the encoder was just pressed.
 9872              		.loc 3 41 20 view .LVU2561
 9873              	.LBB2960:
  41:../../libdaisy/src/hid/encoder.h ****     /** Returns true if the encoder was just pressed.
 9874              		.loc 3 41 40 view .LVU2562
  41:../../libdaisy/src/hid/encoder.h ****     /** Returns true if the encoder was just pressed.
 9875              		.loc 3 41 40 is_stmt 0 view .LVU2563
 9876              	.LBE2960:
 9877              	.LBE2959:
 318:Menus.cpp     ****                 += (((float)this->encoderRight.Increment()) / 32) * 40;
 9878              		.loc 2 318 61 view .LVU2564
ARM GAS  C:\Users\VINCIU~1\AppData\Local\Temp\ccdS0pnQ.s 			page 245


 9879 0600 D5ED126A 		vldr.32	s13, [r5, #72]	@ int
 319:Menus.cpp     ****             sprintf(this->buff, "Semi_%dst", this->noteSemiAdd);
 9880              		.loc 2 319 20 view .LVU2565
 9881 0604 05F1A400 		add	r0, r5, #164
 318:Menus.cpp     ****                 += (((float)this->encoderRight.Increment()) / 32) * 40;
 9882              		.loc 2 318 17 view .LVU2566
 9883 0608 9FED3D7A 		vldr.32	s14, .L671+4
 318:Menus.cpp     ****                 += (((float)this->encoderRight.Increment()) / 32) * 40;
 9884              		.loc 2 318 61 view .LVU2567
 9885 060c FAEEED6A 		vcvt.f32.s32	s13, s13, #5
 316:Menus.cpp     ****             this->noteSemiAdd += this->encoderRight.Increment();
 9886              		.loc 2 316 31 view .LVU2568
 9887 0610 AB6C     		ldr	r3, [r5, #72]
 319:Menus.cpp     ****             sprintf(this->buff, "Semi_%dst", this->noteSemiAdd);
 9888              		.loc 2 319 20 view .LVU2569
 9889 0612 3A49     		ldr	r1, .L671
 316:Menus.cpp     ****             this->noteSemiAdd += this->encoderRight.Increment();
 9890              		.loc 2 316 31 view .LVU2570
 9891 0614 1A44     		add	r2, r2, r3
 318:Menus.cpp     ****                 += (((float)this->encoderRight.Increment()) / 32) * 40;
 9892              		.loc 2 318 17 view .LVU2571
 9893 0616 E6EE877A 		vfma.f32	s15, s13, s14
 316:Menus.cpp     ****             this->noteSemiAdd += this->encoderRight.Increment();
 9894              		.loc 2 316 31 view .LVU2572
 9895 061a C5F86421 		str	r2, [r5, #356]
 317:Menus.cpp     ****             this->drawSliderSemi
 9896              		.loc 2 317 13 is_stmt 1 view .LVU2573
 9897              	.LVL655:
 317:Menus.cpp     ****             this->drawSliderSemi
 9898              		.loc 2 317 13 is_stmt 0 view .LVU2574
 9899              	.LBE2984:
 9900              	.LBE3039:
  41:../../libdaisy/src/hid/encoder.h ****     /** Returns true if the encoder was just pressed.
 9901              		.loc 3 41 40 is_stmt 1 view .LVU2575
 9902              	.LBB3040:
 9903              	.LBB2985:
 318:Menus.cpp     ****                 += (((float)this->encoderRight.Increment()) / 32) * 40;
 9904              		.loc 2 318 17 is_stmt 0 view .LVU2576
 9905 061e C5ED1E7A 		vstr.32	s15, [r5, #120]
 319:Menus.cpp     ****             sprintf(this->buff, "Semi_%dst", this->noteSemiAdd);
 9906              		.loc 2 319 13 is_stmt 1 view .LVU2577
 319:Menus.cpp     ****             sprintf(this->buff, "Semi_%dst", this->noteSemiAdd);
 9907              		.loc 2 319 20 is_stmt 0 view .LVU2578
 9908 0622 FFF7FEFF 		bl	sprintf
 9909              	.LVL656:
 346:Menus.cpp     ****         screen.DrawRect(
 9910              		.loc 2 346 9 is_stmt 1 view .LVU2579
 346:Menus.cpp     ****         screen.DrawRect(
 9911              		.loc 2 346 24 is_stmt 0 view .LVU2580
 9912 0626 95F8E501 		ldrb	r0, [r5, #485]	@ zero_extendqisi2
 9913              	.LVL657:
 9914              	.LBB2961:
 217:../../libdaisy/src/hid/disp/display.h ****                   uint_fast8_t y1,
 9915              		.loc 6 217 10 is_stmt 1 view .LVU2581
 9916              	.LBB2954:
 181:../../libdaisy/src/hid/disp/display.h ****                   uint_fast8_t y1,
 9917              		.loc 6 181 10 view .LVU2582
ARM GAS  C:\Users\VINCIU~1\AppData\Local\Temp\ccdS0pnQ.s 			page 246


 9918              	.LBB2863:
 9919              	.LBB2862:
  41:../../libdaisy/src/hid/disp/oled_display.h ****     {
 9920              		.loc 1 41 10 view .LVU2583
 9921              	.LBB2852:
 239:../../libdaisy/src/dev/oled_ssd130x.h ****     {
 9922              		.loc 5 239 10 view .LVU2584
 9923              	.LBB2851:
 244:../../libdaisy/src/dev/oled_ssd130x.h ****         else
 9924              		.loc 5 244 42 is_stmt 0 view .LVU2585
 9925 062a 94F89320 		ldrb	r2, [r4, #147]	@ zero_extendqisi2
 243:../../libdaisy/src/dev/oled_ssd130x.h ****             buffer_[x + (y / 8) * width] |= (1 << (y % 8));
 9926              		.loc 5 243 9 view .LVU2586
 9927 062e 0028     		cmp	r0, #0
 9928 0630 7FF4F4AE 		bne	.L664
 9929              	.LVL658:
 9930              	.L557:
 9931              	.LBB2849:
 9932              	.LBI2849:
 239:../../libdaisy/src/dev/oled_ssd130x.h ****     {
 9933              		.loc 5 239 10 is_stmt 1 view .LVU2587
 9934              	.LBB2850:
 246:../../libdaisy/src/dev/oled_ssd130x.h ****     }
 9935              		.loc 5 246 42 is_stmt 0 view .LVU2588
 9936 0634 02F0FE02 		and	r2, r2, #254
 9937 0638 F2E6     		b	.L558
 9938              	.LVL659:
 9939              	.L652:
 246:../../libdaisy/src/dev/oled_ssd130x.h ****     }
 9940              		.loc 5 246 42 view .LVU2589
 9941              	.LBE2850:
 9942              	.LBE2849:
 9943              	.LBE2851:
 9944              	.LBE2852:
 9945              	.LBE2862:
 9946              	.LBE2863:
 9947              	.LBE2954:
 9948              	.LBE2961:
 9949              	.LBE2985:
 9950              	.LBE3040:
 384:Menus.cpp     ****         if(this->OscSelector == true)
 9951              		.loc 2 384 9 is_stmt 1 view .LVU2590
 9952              	.LBB3041:
 9953              	.LBB2986:
 9954              	.LBB2962:
 9955              	.LBB2824:
 9956              	.LBB2741:
 9957 063a 95F87430 		ldrb	r3, [r5, #116]	@ zero_extendqisi2
 9958 063e 9BB1     		cbz	r3, .L583
 9959              	.LBB2742:
 386:Menus.cpp     ****             this->setWave += this->encoderRight.Increment();
 9960              		.loc 2 386 13 view .LVU2591
 9961              	.LVL660:
 9962              	.LBB2743:
 9963              	.LBI2743:
  41:../../libdaisy/src/hid/encoder.h ****     /** Returns true if the encoder was just pressed.
 9964              		.loc 3 41 20 view .LVU2592
ARM GAS  C:\Users\VINCIU~1\AppData\Local\Temp\ccdS0pnQ.s 			page 247


 9965              	.LBB2744:
  41:../../libdaisy/src/hid/encoder.h ****     /** Returns true if the encoder was just pressed.
 9966              		.loc 3 41 40 view .LVU2593
  41:../../libdaisy/src/hid/encoder.h ****     /** Returns true if the encoder was just pressed.
 9967              		.loc 3 41 40 is_stmt 0 view .LVU2594
 9968              	.LBE2744:
 9969              	.LBE2743:
 386:Menus.cpp     ****             this->setWave += this->encoderRight.Increment();
 9970              		.loc 2 386 27 view .LVU2595
 9971 0640 D5F89031 		ldr	r3, [r5, #400]
 9972 0644 AA6C     		ldr	r2, [r5, #72]
 9973 0646 1344     		add	r3, r3, r2
 387:Menus.cpp     ****             if(setWave > 3)
 9974              		.loc 2 387 13 is_stmt 1 view .LVU2596
 9975 0648 032B     		cmp	r3, #3
 9976 064a 40F38280 		ble	.L584
 389:Menus.cpp     ****                 this->setWave = 3;
 9977              		.loc 2 389 17 view .LVU2597
 389:Menus.cpp     ****                 this->setWave = 3;
 9978              		.loc 2 389 31 is_stmt 0 view .LVU2598
 9979 064e 0323     		movs	r3, #3
 9980 0650 C5F89031 		str	r3, [r5, #400]
 391:Menus.cpp     ****             if(this->setWave < 0)
 9981              		.loc 2 391 13 is_stmt 1 view .LVU2599
 395:Menus.cpp     ****             if(this->setWave == 0)
 9982              		.loc 2 395 13 view .LVU2600
 9983              	.LBE2742:
 9984              	.LBE2741:
 9985              	.LBE2824:
 9986              	.LBE2962:
 9987              	.LBE2986:
 9988              	.LBE3041:
 403:Menus.cpp     ****             else if(setWave == 1)
 9989              		.loc 2 403 18 view .LVU2601
 9990              	.L585:
 9991              	.LVL661:
 9992              	.LBB3042:
 9993              	.LBB2987:
 9994              	.LBB2963:
 9995              	.LBB2825:
 9996              	.LBB2775:
 9997              	.LBB2770:
 9998              	.LBB2745:
 9999              	.LBB2746:
 10000              	.LBB2747:
 10001              	.LBB2748:
 421:Menus.cpp     ****                 for(int i = 0; i < 2; i++)
 10002              		.loc 2 421 34 view .LVU2602
 423:Menus.cpp     ****                     selectedWave = setWave;
 10003              		.loc 2 423 21 view .LVU2603
 424:Menus.cpp     ****                     osc.osc1.SetWaveform(osc.osc1.WAVE_SAW);
 10004              		.loc 2 424 21 view .LVU2604
 10005              	.LBB2749:
 10006              	.LBI2749:
 10007              		.file 8 "../../DaisySP/Source/Synthesis/oscillator.h"
   1:../../DaisySP/Source/Synthesis/oscillator.h **** #pragma once
   2:../../DaisySP/Source/Synthesis/oscillator.h **** #ifndef DSY_OSCILLATOR_H
ARM GAS  C:\Users\VINCIU~1\AppData\Local\Temp\ccdS0pnQ.s 			page 248


   3:../../DaisySP/Source/Synthesis/oscillator.h **** #define DSY_OSCILLATOR_H
   4:../../DaisySP/Source/Synthesis/oscillator.h **** #include <stdint.h>
   5:../../DaisySP/Source/Synthesis/oscillator.h **** #include "Utility/dsp.h"
   6:../../DaisySP/Source/Synthesis/oscillator.h **** #ifdef __cplusplus
   7:../../DaisySP/Source/Synthesis/oscillator.h **** 
   8:../../DaisySP/Source/Synthesis/oscillator.h **** namespace daisysp
   9:../../DaisySP/Source/Synthesis/oscillator.h **** {
  10:../../DaisySP/Source/Synthesis/oscillator.h **** /** Synthesis of several waveforms, including polyBLEP bandlimited waveforms.
  11:../../DaisySP/Source/Synthesis/oscillator.h **** */
  12:../../DaisySP/Source/Synthesis/oscillator.h **** class Oscillator
  13:../../DaisySP/Source/Synthesis/oscillator.h **** {
  14:../../DaisySP/Source/Synthesis/oscillator.h ****   public:
  15:../../DaisySP/Source/Synthesis/oscillator.h ****     Oscillator() {}
  16:../../DaisySP/Source/Synthesis/oscillator.h ****     ~Oscillator() {}
  17:../../DaisySP/Source/Synthesis/oscillator.h ****     /** Choices for output waveforms, POLYBLEP are appropriately labeled. Others are naive forms.
  18:../../DaisySP/Source/Synthesis/oscillator.h ****     */
  19:../../DaisySP/Source/Synthesis/oscillator.h ****     enum
  20:../../DaisySP/Source/Synthesis/oscillator.h ****     {
  21:../../DaisySP/Source/Synthesis/oscillator.h ****         WAVE_SIN,
  22:../../DaisySP/Source/Synthesis/oscillator.h ****         WAVE_TRI,
  23:../../DaisySP/Source/Synthesis/oscillator.h ****         WAVE_SAW,
  24:../../DaisySP/Source/Synthesis/oscillator.h ****         WAVE_RAMP,
  25:../../DaisySP/Source/Synthesis/oscillator.h ****         WAVE_SQUARE,
  26:../../DaisySP/Source/Synthesis/oscillator.h ****         WAVE_POLYBLEP_TRI,
  27:../../DaisySP/Source/Synthesis/oscillator.h ****         WAVE_POLYBLEP_SAW,
  28:../../DaisySP/Source/Synthesis/oscillator.h ****         WAVE_POLYBLEP_SQUARE,
  29:../../DaisySP/Source/Synthesis/oscillator.h ****         WAVE_LAST,
  30:../../DaisySP/Source/Synthesis/oscillator.h ****     };
  31:../../DaisySP/Source/Synthesis/oscillator.h **** 
  32:../../DaisySP/Source/Synthesis/oscillator.h **** 
  33:../../DaisySP/Source/Synthesis/oscillator.h ****     /** Initializes the Oscillator
  34:../../DaisySP/Source/Synthesis/oscillator.h **** 
  35:../../DaisySP/Source/Synthesis/oscillator.h ****         \param sample_rate - sample rate of the audio engine being run, and the frequency that the 
  36:../../DaisySP/Source/Synthesis/oscillator.h **** 
  37:../../DaisySP/Source/Synthesis/oscillator.h ****         Defaults:
  38:../../DaisySP/Source/Synthesis/oscillator.h ****         - freq_ = 100 Hz
  39:../../DaisySP/Source/Synthesis/oscillator.h ****         - amp_ = 0.5
  40:../../DaisySP/Source/Synthesis/oscillator.h ****         - waveform_ = sine wave.
  41:../../DaisySP/Source/Synthesis/oscillator.h ****     */
  42:../../DaisySP/Source/Synthesis/oscillator.h ****     void Init(float sample_rate)
  43:../../DaisySP/Source/Synthesis/oscillator.h ****     {
  44:../../DaisySP/Source/Synthesis/oscillator.h ****         sr_        = sample_rate;
  45:../../DaisySP/Source/Synthesis/oscillator.h ****         sr_recip_  = 1.0f / sample_rate;
  46:../../DaisySP/Source/Synthesis/oscillator.h ****         freq_      = 100.0f;
  47:../../DaisySP/Source/Synthesis/oscillator.h ****         amp_       = 0.5f;
  48:../../DaisySP/Source/Synthesis/oscillator.h ****         phase_     = 0.0f;
  49:../../DaisySP/Source/Synthesis/oscillator.h ****         phase_inc_ = CalcPhaseInc(freq_);
  50:../../DaisySP/Source/Synthesis/oscillator.h ****         waveform_  = WAVE_SIN;
  51:../../DaisySP/Source/Synthesis/oscillator.h ****         eoc_       = true;
  52:../../DaisySP/Source/Synthesis/oscillator.h ****         eor_       = true;
  53:../../DaisySP/Source/Synthesis/oscillator.h ****     }
  54:../../DaisySP/Source/Synthesis/oscillator.h **** 
  55:../../DaisySP/Source/Synthesis/oscillator.h **** 
  56:../../DaisySP/Source/Synthesis/oscillator.h ****     /** Changes the frequency of the Oscillator, and recalculates phase increment.
  57:../../DaisySP/Source/Synthesis/oscillator.h ****     */
  58:../../DaisySP/Source/Synthesis/oscillator.h ****     inline void SetFreq(const float f)
  59:../../DaisySP/Source/Synthesis/oscillator.h ****     {
ARM GAS  C:\Users\VINCIU~1\AppData\Local\Temp\ccdS0pnQ.s 			page 249


  60:../../DaisySP/Source/Synthesis/oscillator.h ****         freq_      = f;
  61:../../DaisySP/Source/Synthesis/oscillator.h ****         phase_inc_ = CalcPhaseInc(f);
  62:../../DaisySP/Source/Synthesis/oscillator.h ****     }
  63:../../DaisySP/Source/Synthesis/oscillator.h **** 
  64:../../DaisySP/Source/Synthesis/oscillator.h **** 
  65:../../DaisySP/Source/Synthesis/oscillator.h ****     /** Sets the amplitude of the waveform.
  66:../../DaisySP/Source/Synthesis/oscillator.h ****     */
  67:../../DaisySP/Source/Synthesis/oscillator.h ****     inline void SetAmp(const float a) { amp_ = a; }
  68:../../DaisySP/Source/Synthesis/oscillator.h ****     /** Sets the waveform to be synthesized by the Process() function.
  69:../../DaisySP/Source/Synthesis/oscillator.h ****     */
  70:../../DaisySP/Source/Synthesis/oscillator.h ****     inline void SetWaveform(const uint8_t wf)
 10008              		.loc 8 70 17 view .LVU2605
 10009              	.LBB2750:
  71:../../DaisySP/Source/Synthesis/oscillator.h ****     {
  72:../../DaisySP/Source/Synthesis/oscillator.h ****         waveform_ = wf < WAVE_LAST ? wf : WAVE_SIN;
 10010              		.loc 8 72 9 view .LVU2606
 10011              		.loc 8 72 19 is_stmt 0 view .LVU2607
 10012 0654 0223     		movs	r3, #2
 10013              	.LVL662:
 10014              	.L641:
 10015              		.loc 8 72 19 view .LVU2608
 10016 0656 3B70     		strb	r3, [r7]
 10017              	.LBE2750:
 10018              	.LBE2749:
 421:Menus.cpp     ****                 for(int i = 0; i < 2; i++)
 10019              		.loc 2 421 17 is_stmt 1 view .LVU2609
 10020              	.LVL663:
 421:Menus.cpp     ****                 for(int i = 0; i < 2; i++)
 10021              		.loc 2 421 34 view .LVU2610
 423:Menus.cpp     ****                     selectedWave = setWave;
 10022              		.loc 2 423 21 view .LVU2611
 423:Menus.cpp     ****                     selectedWave = setWave;
 10023              		.loc 2 423 34 is_stmt 0 view .LVU2612
 10024 0658 D5F89021 		ldr	r2, [r5, #400]
 10025 065c C5F89C20 		str	r2, [r5, #156]
 424:Menus.cpp     ****                     osc.osc1.SetWaveform(osc.osc1.WAVE_SAW);
 10026              		.loc 2 424 21 is_stmt 1 view .LVU2613
 10027              	.LVL664:
 10028              	.LBB2752:
  70:../../DaisySP/Source/Synthesis/oscillator.h ****     {
 10029              		.loc 8 70 17 view .LVU2614
 10030              	.LBB2751:
 10031              		.loc 8 72 9 view .LVU2615
 10032              		.loc 8 72 19 is_stmt 0 view .LVU2616
 10033 0660 3B70     		strb	r3, [r7]
 10034              	.LVL665:
 10035              		.loc 8 72 19 view .LVU2617
 10036              	.LBE2751:
 10037              	.LBE2752:
 421:Menus.cpp     ****                 for(int i = 0; i < 2; i++)
 10038              		.loc 2 421 17 is_stmt 1 view .LVU2618
 421:Menus.cpp     ****                 for(int i = 0; i < 2; i++)
 10039              		.loc 2 421 34 view .LVU2619
 10040              	.L589:
 421:Menus.cpp     ****                 for(int i = 0; i < 2; i++)
 10041              		.loc 2 421 34 is_stmt 0 view .LVU2620
 10042              	.LBE2748:
ARM GAS  C:\Users\VINCIU~1\AppData\Local\Temp\ccdS0pnQ.s 			page 250


 10043              	.LBE2747:
 10044              	.LBE2746:
 10045              	.LBE2745:
 10046              	.LBE2770:
 10047              	.LBE2775:
 10048              	.LBE2825:
 10049              	.LBE2963:
 10050              	.LBE2987:
 10051              	.LBE3042:
 428:Menus.cpp     ****         {
 10052              		.loc 2 428 9 is_stmt 1 view .LVU2621
 10053              	.LBB3043:
 10054              	.LBB2988:
 10055              	.LBB2964:
 10056              	.LBB2826:
 10057              	.LBB2776:
 429:Menus.cpp     ****             if(this->OscSelector == false)
 10058              		.loc 2 429 13 view .LVU2622
 10059              	.LBB2777:
 10060 0662 95F87430 		ldrb	r3, [r5, #116]	@ zero_extendqisi2
 10061 0666 9BB9     		cbnz	r3, .L643
 10062              	.L583:
 10063              	.LBB2778:
 431:Menus.cpp     ****                 if(setWave2 > 3)
 10064              		.loc 2 431 17 view .LVU2623
 439:Menus.cpp     ****                 this->setWave2 += this->encoderRight.Increment();
 10065              		.loc 2 439 17 view .LVU2624
 10066              	.LVL666:
 10067              	.LBB2779:
 10068              	.LBI2779:
  41:../../libdaisy/src/hid/encoder.h ****     /** Returns true if the encoder was just pressed.
 10069              		.loc 3 41 20 view .LVU2625
 10070              	.LBB2780:
  41:../../libdaisy/src/hid/encoder.h ****     /** Returns true if the encoder was just pressed.
 10071              		.loc 3 41 40 view .LVU2626
  41:../../libdaisy/src/hid/encoder.h ****     /** Returns true if the encoder was just pressed.
 10072              		.loc 3 41 40 is_stmt 0 view .LVU2627
 10073              	.LBE2780:
 10074              	.LBE2779:
 439:Menus.cpp     ****                 this->setWave2 += this->encoderRight.Increment();
 10075              		.loc 2 439 32 view .LVU2628
 10076 0668 D5F89431 		ldr	r3, [r5, #404]
 10077 066c AA6C     		ldr	r2, [r5, #72]
 10078 066e 83F30203 		usat	r3, #2, r3
 10079 0672 1344     		add	r3, r3, r2
 440:Menus.cpp     ****                 if(setWave2 > 3)
 10080              		.loc 2 440 17 is_stmt 1 view .LVU2629
 10081 0674 032B     		cmp	r3, #3
 10082 0676 79DD     		ble	.L592
 442:Menus.cpp     ****                     this->setWave2 = 3;
 10083              		.loc 2 442 21 view .LVU2630
 442:Menus.cpp     ****                     this->setWave2 = 3;
 10084              		.loc 2 442 36 is_stmt 0 view .LVU2631
 10085 0678 0323     		movs	r3, #3
 10086 067a C5F89431 		str	r3, [r5, #404]
 444:Menus.cpp     ****                 if(this->setWave2 < 0)
 10087              		.loc 2 444 17 is_stmt 1 view .LVU2632
ARM GAS  C:\Users\VINCIU~1\AppData\Local\Temp\ccdS0pnQ.s 			page 251


 448:Menus.cpp     ****                 if(this->setWave2 == 0)
 10088              		.loc 2 448 17 view .LVU2633
 10089              	.LBE2778:
 10090              	.LBE2777:
 10091              	.LBE2776:
 10092              	.LBE2826:
 10093              	.LBE2964:
 10094              	.LBE2988:
 10095              	.LBE3043:
 456:Menus.cpp     ****                 else if(setWave2 == 1)
 10096              		.loc 2 456 22 view .LVU2634
 10097              	.L593:
 10098              	.LVL667:
 10099              	.LBB3044:
 10100              	.LBB2989:
 10101              	.LBB2965:
 10102              	.LBB2827:
 10103              	.LBB2812:
 10104              	.LBB2807:
 10105              	.LBB2802:
 10106              	.LBB2781:
 10107              	.LBB2782:
 10108              	.LBB2783:
 10109              	.LBB2784:
 474:Menus.cpp     ****                     for(int i = 0; i < 2; i++)
 10110              		.loc 2 474 38 view .LVU2635
 476:Menus.cpp     ****                         selectedWave2 = setWave2;
 10111              		.loc 2 476 25 view .LVU2636
 477:Menus.cpp     ****                         osc.osc2.SetWaveform(osc.osc2.WAVE_SAW);
 10112              		.loc 2 477 25 view .LVU2637
 10113              	.LBB2785:
 10114              	.LBI2785:
  70:../../DaisySP/Source/Synthesis/oscillator.h ****     {
 10115              		.loc 8 70 17 view .LVU2638
 10116              	.LBB2786:
 10117              		.loc 8 72 9 view .LVU2639
 10118              		.loc 8 72 19 is_stmt 0 view .LVU2640
 10119 067e 0223     		movs	r3, #2
 10120              	.LVL668:
 10121              	.L642:
 10122              		.loc 8 72 19 view .LVU2641
 10123 0680 87F82830 		strb	r3, [r7, #40]
 10124              	.LBE2786:
 10125              	.LBE2785:
 474:Menus.cpp     ****                     for(int i = 0; i < 2; i++)
 10126              		.loc 2 474 21 is_stmt 1 view .LVU2642
 10127              	.LVL669:
 474:Menus.cpp     ****                     for(int i = 0; i < 2; i++)
 10128              		.loc 2 474 38 view .LVU2643
 476:Menus.cpp     ****                         selectedWave2 = setWave2;
 10129              		.loc 2 476 25 view .LVU2644
 476:Menus.cpp     ****                         selectedWave2 = setWave2;
 10130              		.loc 2 476 39 is_stmt 0 view .LVU2645
 10131 0684 D5F89421 		ldr	r2, [r5, #404]
 10132 0688 C5F8A020 		str	r2, [r5, #160]
 477:Menus.cpp     ****                         osc.osc2.SetWaveform(osc.osc2.WAVE_SAW);
 10133              		.loc 2 477 25 is_stmt 1 view .LVU2646
ARM GAS  C:\Users\VINCIU~1\AppData\Local\Temp\ccdS0pnQ.s 			page 252


 10134              	.LVL670:
 10135              	.LBB2788:
  70:../../DaisySP/Source/Synthesis/oscillator.h ****     {
 10136              		.loc 8 70 17 view .LVU2647
 10137              	.LBB2787:
 10138              		.loc 8 72 9 view .LVU2648
 10139              		.loc 8 72 19 is_stmt 0 view .LVU2649
 10140 068c 87F82830 		strb	r3, [r7, #40]
 10141              	.LVL671:
 10142              	.L643:
 10143              		.loc 8 72 19 view .LVU2650
 10144              	.LBE2787:
 10145              	.LBE2788:
 474:Menus.cpp     ****                     for(int i = 0; i < 2; i++)
 10146              		.loc 2 474 21 is_stmt 1 view .LVU2651
 474:Menus.cpp     ****                     for(int i = 0; i < 2; i++)
 10147              		.loc 2 474 38 view .LVU2652
 10148              	.LBE2784:
 10149              	.LBE2783:
 10150              	.LBE2782:
 10151              	.LBE2781:
 10152              	.LBE2802:
 10153              	.LBE2807:
 483:Menus.cpp     ****             screen.DrawRect(29,
 10154              		.loc 2 483 28 is_stmt 0 view .LVU2653
 10155 0690 95F8E531 		ldrb	r3, [r5, #485]	@ zero_extendqisi2
 483:Menus.cpp     ****             screen.DrawRect(29,
 10156              		.loc 2 483 13 is_stmt 1 view .LVU2654
 483:Menus.cpp     ****             screen.DrawRect(29,
 10157              		.loc 2 483 28 is_stmt 0 view .LVU2655
 10158 0694 0022     		movs	r2, #0
 10159 0696 3F21     		movs	r1, #63
 10160 0698 2046     		mov	r0, r4
 10161 069a CDE90132 		strd	r3, r2, [sp, #4]
 10162 069e 1D22     		movs	r2, #29
 10163 06a0 0091     		str	r1, [sp]
 10164 06a2 3C23     		movs	r3, #60
 10165 06a4 1146     		mov	r1, r2
 10166 06a6 FFF7FEFF 		bl	_ZN5daisy25OneBitGraphicsDisplayImplINS_11OledDisplayINS_13SSD130xDriverILj128ELj64ENS_24SSD130
 10167              	.LVL672:
 10168              	.LBE2812:
 10169 06aa 3DE7     		b	.L550
 10170              	.LVL673:
 10171              	.L530:
 483:Menus.cpp     ****             screen.DrawRect(29,
 10172              		.loc 2 483 28 view .LVU2656
 10173              	.LBE2827:
 10174              	.LBE2965:
 10175              	.LBE2989:
 10176              	.LBE3044:
 235:Menus.cpp     ****             menuState = 3;
 10177              		.loc 2 235 13 is_stmt 1 view .LVU2657
 235:Menus.cpp     ****             menuState = 3;
 10178              		.loc 2 235 23 is_stmt 0 view .LVU2658
 10179 06ac 0323     		movs	r3, #3
 10180 06ae EB66     		str	r3, [r5, #108]
 238:Menus.cpp     ****     if(this->buttonRight.RisingEdge())
ARM GAS  C:\Users\VINCIU~1\AppData\Local\Temp\ccdS0pnQ.s 			page 253


 10181              		.loc 2 238 5 is_stmt 1 view .LVU2659
 10182              	.LVL674:
 10183              	.LBB3045:
 10184              		.loc 4 69 17 view .LVU2660
 10185              	.LBB2675:
 10186              		.loc 4 69 38 view .LVU2661
 10187              		.loc 4 69 38 is_stmt 0 view .LVU2662
 10188              	.LBE2675:
 10189              	.LBE3045:
 238:Menus.cpp     ****     if(this->buttonRight.RisingEdge())
 10190              		.loc 2 238 5 view .LVU2663
 10191 06b0 95F86130 		ldrb	r3, [r5, #97]	@ zero_extendqisi2
 10192 06b4 7F2B     		cmp	r3, #127
 10193 06b6 7FF4C2AC 		bne	.L532
 10194 06ba 86E7     		b	.L531
 10195              	.LVL675:
 10196              	.L572:
 10197              	.LBB3046:
 10198              	.LBB2990:
 10199              	.LBB2966:
 10200              	.LBB2955:
 10201              	.LBB2953:
 10202              	.LBB2952:
 10203              	.LBB2940:
 10204              	.LBB2939:
 10205              	.LBB2937:
 10206              	.LBI2937:
 239:../../libdaisy/src/dev/oled_ssd130x.h ****     {
 10207              		.loc 5 239 10 is_stmt 1 view .LVU2664
 10208              	.LBB2938:
 246:../../libdaisy/src/dev/oled_ssd130x.h ****     }
 10209              		.loc 5 246 42 is_stmt 0 view .LVU2665
 10210 06bc 02F0FE02 		and	r2, r2, #254
 10211 06c0 0CE7     		b	.L573
 10212              	.LVL676:
 10213              	.L567:
 246:../../libdaisy/src/dev/oled_ssd130x.h ****     }
 10214              		.loc 5 246 42 view .LVU2666
 10215              	.LBE2938:
 10216              	.LBE2937:
 10217              	.LBE2939:
 10218              	.LBE2940:
 10219              	.LBE2952:
 10220              	.LBE2953:
 10221              	.LBE2955:
 10222              	.LBB2956:
 10223              	.LBB2931:
 10224              	.LBB2930:
 10225              	.LBB2912:
 10226              	.LBB2911:
 10227              	.LBB2909:
 10228              	.LBI2909:
 239:../../libdaisy/src/dev/oled_ssd130x.h ****     {
 10229              		.loc 5 239 10 is_stmt 1 view .LVU2667
 10230              	.LBB2910:
 246:../../libdaisy/src/dev/oled_ssd130x.h ****     }
 10231              		.loc 5 246 42 is_stmt 0 view .LVU2668
ARM GAS  C:\Users\VINCIU~1\AppData\Local\Temp\ccdS0pnQ.s 			page 254


 10232 06c2 02F0DF02 		and	r2, r2, #223
 10233 06c6 ECE6     		b	.L568
 10234              	.LVL677:
 10235              	.L562:
 246:../../libdaisy/src/dev/oled_ssd130x.h ****     }
 10236              		.loc 5 246 42 view .LVU2669
 10237              	.LBE2910:
 10238              	.LBE2909:
 10239              	.LBE2911:
 10240              	.LBE2912:
 10241              	.LBE2930:
 10242              	.LBE2931:
 10243              	.LBE2956:
 10244              	.LBB2957:
 10245              	.LBB2902:
 10246              	.LBB2900:
 10247              	.LBB2872:
 10248              	.LBB2871:
 10249              	.LBB2869:
 10250              	.LBI2869:
 239:../../libdaisy/src/dev/oled_ssd130x.h ****     {
 10251              		.loc 5 239 10 is_stmt 1 view .LVU2670
 10252              	.LBB2870:
 246:../../libdaisy/src/dev/oled_ssd130x.h ****     }
 10253              		.loc 5 246 42 is_stmt 0 view .LVU2671
 10254 06c8 02F0DF02 		and	r2, r2, #223
 10255 06cc C5E6     		b	.L563
 10256              	.LVL678:
 10257              	.L651:
 246:../../libdaisy/src/dev/oled_ssd130x.h ****     }
 10258              		.loc 5 246 42 view .LVU2672
 10259              	.LBE2870:
 10260              	.LBE2869:
 10261              	.LBE2871:
 10262              	.LBE2872:
 10263              	.LBE2900:
 10264              	.LBE2902:
 10265              	.LBE2957:
 10266              	.LBE2966:
 10267              	.LBB2967:
 351:Menus.cpp     ****         if(this->OscSelector == true)
 10268              		.loc 2 351 9 is_stmt 1 view .LVU2673
 10269 06ce 95F87420 		ldrb	r2, [r5, #116]	@ zero_extendqisi2
 10270 06d2 FAB1     		cbz	r2, .L578
 354:Menus.cpp     ****             if(this->encoderRight.Increment() == 1)
 10271              		.loc 2 354 13 view .LVU2674
 10272              	.LVL679:
 10273              	.LBB2828:
 10274              	.LBI2828:
  41:../../libdaisy/src/hid/encoder.h ****     /** Returns true if the encoder was just pressed.
 10275              		.loc 3 41 20 view .LVU2675
 10276              	.LBB2829:
  41:../../libdaisy/src/hid/encoder.h ****     /** Returns true if the encoder was just pressed.
 10277              		.loc 3 41 40 view .LVU2676
  41:../../libdaisy/src/hid/encoder.h ****     /** Returns true if the encoder was just pressed.
 10278              		.loc 3 41 47 is_stmt 0 view .LVU2677
 10279 06d4 AA6C     		ldr	r2, [r5, #72]
ARM GAS  C:\Users\VINCIU~1\AppData\Local\Temp\ccdS0pnQ.s 			page 255


 10280              	.LVL680:
  41:../../libdaisy/src/hid/encoder.h ****     /** Returns true if the encoder was just pressed.
 10281              		.loc 3 41 47 view .LVU2678
 10282              	.LBE2829:
 10283              	.LBE2828:
 354:Menus.cpp     ****             if(this->encoderRight.Increment() == 1)
 10284              		.loc 2 354 13 view .LVU2679
 10285 06d6 012A     		cmp	r2, #1
 10286 06d8 30D0     		beq	.L665
 359:Menus.cpp     ****             if(this->encoderRight.Increment() == -1)
 10287              		.loc 2 359 13 is_stmt 1 view .LVU2680
 10288              	.LVL681:
 359:Menus.cpp     ****             if(this->encoderRight.Increment() == -1)
 10289              		.loc 2 359 13 is_stmt 0 view .LVU2681
 10290              	.LBE2967:
 10291              	.LBE2990:
 10292              	.LBE3046:
  41:../../libdaisy/src/hid/encoder.h ****     /** Returns true if the encoder was just pressed.
 10293              		.loc 3 41 40 is_stmt 1 view .LVU2682
 10294              	.LBB3047:
 10295              	.LBB2991:
 10296              	.LBB2968:
 359:Menus.cpp     ****             if(this->encoderRight.Increment() == -1)
 10297              		.loc 2 359 13 is_stmt 0 view .LVU2683
 10298 06da 0132     		adds	r2, r2, #1
 10299 06dc 23D1     		bne	.L580
 361:Menus.cpp     ****                 synthOn         = 0;
 10300              		.loc 2 361 17 is_stmt 1 view .LVU2684
 362:Menus.cpp     ****                 this->toggleOsc = true;
 10301              		.loc 2 362 33 is_stmt 0 view .LVU2685
 10302 06de 85F89830 		strb	r3, [r5, #152]
 361:Menus.cpp     ****                 synthOn         = 0;
 10303              		.loc 2 361 33 view .LVU2686
 10304 06e2 0023     		movs	r3, #0
 10305 06e4 C5F86C31 		str	r3, [r5, #364]
 362:Menus.cpp     ****                 this->toggleOsc = true;
 10306              		.loc 2 362 17 is_stmt 1 view .LVU2687
 10307 06e8 1DE0     		b	.L580
 10308              	.L615:
 362:Menus.cpp     ****                 this->toggleOsc = true;
 10309              		.loc 2 362 17 is_stmt 0 view .LVU2688
 10310              	.LBE2968:
 10311 06ea B0EE667A 		vmov.f32	s14, s13
 10312 06ee 73E6     		b	.L556
 10313              	.L613:
 362:Menus.cpp     ****                 this->toggleOsc = true;
 10314              		.loc 2 362 17 view .LVU2689
 10315 06f0 DFED057A 		vldr.32	s15, .L671+12
 10316 06f4 5FE6     		b	.L555
 10317              	.L611:
 362:Menus.cpp     ****                 this->toggleOsc = true;
 10318              		.loc 2 362 17 view .LVU2690
 10319 06f6 F0EE477A 		vmov.f32	s15, s14
 10320 06fa 81E7     		b	.L553
 10321              	.L672:
 10322              		.align	2
 10323              	.L671:
ARM GAS  C:\Users\VINCIU~1\AppData\Local\Temp\ccdS0pnQ.s 			page 256


 10324 06fc 08000000 		.word	.LC7
 10325 0700 00002042 		.word	1109393408
 10326 0704 00000000 		.word	0
 10327 0708 00000042 		.word	1107296256
 10328 070c 0000003D 		.word	1023410176
 10329 0710 0000C842 		.word	1120403456
 10330              	.L578:
 10331              	.LBB2969:
 367:Menus.cpp     ****             if(this->encoderRight.Increment() == 1)
 10332              		.loc 2 367 13 is_stmt 1 view .LVU2691
 10333              	.LVL682:
 10334              	.LBB2830:
 10335              	.LBI2830:
  41:../../libdaisy/src/hid/encoder.h ****     /** Returns true if the encoder was just pressed.
 10336              		.loc 3 41 20 view .LVU2692
 10337              	.LBB2831:
  41:../../libdaisy/src/hid/encoder.h ****     /** Returns true if the encoder was just pressed.
 10338              		.loc 3 41 40 view .LVU2693
  41:../../libdaisy/src/hid/encoder.h ****     /** Returns true if the encoder was just pressed.
 10339              		.loc 3 41 47 is_stmt 0 view .LVU2694
 10340 0714 A96C     		ldr	r1, [r5, #72]
 10341              	.LVL683:
  41:../../libdaisy/src/hid/encoder.h ****     /** Returns true if the encoder was just pressed.
 10342              		.loc 3 41 47 view .LVU2695
 10343              	.LBE2831:
 10344              	.LBE2830:
 367:Menus.cpp     ****             if(this->encoderRight.Increment() == 1)
 10345              		.loc 2 367 13 view .LVU2696
 10346 0716 0129     		cmp	r1, #1
 10347 0718 16D0     		beq	.L666
 372:Menus.cpp     ****             if(this->encoderRight.Increment() == -1)
 10348              		.loc 2 372 13 is_stmt 1 view .LVU2697
 10349              	.LVL684:
 372:Menus.cpp     ****             if(this->encoderRight.Increment() == -1)
 10350              		.loc 2 372 13 is_stmt 0 view .LVU2698
 10351              	.LBE2969:
 10352              	.LBE2991:
 10353              	.LBE3047:
  41:../../libdaisy/src/hid/encoder.h ****     /** Returns true if the encoder was just pressed.
 10354              		.loc 3 41 40 is_stmt 1 view .LVU2699
 10355              	.LBB3048:
 10356              	.LBB2992:
 10357              	.LBB2970:
 372:Menus.cpp     ****             if(this->encoderRight.Increment() == -1)
 10358              		.loc 2 372 13 is_stmt 0 view .LVU2700
 10359 071a 0131     		adds	r1, r1, #1
 10360 071c 03D1     		bne	.L580
 374:Menus.cpp     ****                 synthOn2         = 0;
 10361              		.loc 2 374 17 is_stmt 1 view .LVU2701
 374:Menus.cpp     ****                 synthOn2         = 0;
 10362              		.loc 2 374 34 is_stmt 0 view .LVU2702
 10363 071e C5F87021 		str	r2, [r5, #368]
 375:Menus.cpp     ****                 this->toggleOsc2 = true;
 10364              		.loc 2 375 17 is_stmt 1 view .LVU2703
 375:Menus.cpp     ****                 this->toggleOsc2 = true;
 10365              		.loc 2 375 34 is_stmt 0 view .LVU2704
 10366 0722 85F89930 		strb	r3, [r5, #153]
ARM GAS  C:\Users\VINCIU~1\AppData\Local\Temp\ccdS0pnQ.s 			page 257


 10367              	.L580:
 379:Menus.cpp     ****         screen.DrawRect(
 10368              		.loc 2 379 9 is_stmt 1 view .LVU2705
 379:Menus.cpp     ****         screen.DrawRect(
 10369              		.loc 2 379 24 is_stmt 0 view .LVU2706
 10370 0726 3F23     		movs	r3, #63
 10371 0728 0021     		movs	r1, #0
 10372 072a 0093     		str	r3, [sp]
 10373 072c 1D23     		movs	r3, #29
 10374 072e CDE90101 		strd	r0, r1, [sp, #4]
 10375 0732 1A46     		mov	r2, r3
 10376 0734 2046     		mov	r0, r4
 10377 0736 FFF7FEFF 		bl	_ZN5daisy25OneBitGraphicsDisplayImplINS_11OledDisplayINS_13SSD130xDriverILj128ELj64ENS_24SSD130
 10378              	.LVL685:
 10379 073a F5E6     		b	.L550
 10380              	.L665:
 356:Menus.cpp     ****                 synthOn         = 1;
 10381              		.loc 2 356 17 is_stmt 1 view .LVU2707
 357:Menus.cpp     ****                 this->toggleOsc = false;
 10382              		.loc 2 357 33 is_stmt 0 view .LVU2708
 10383 073c 0023     		movs	r3, #0
 356:Menus.cpp     ****                 synthOn         = 1;
 10384              		.loc 2 356 33 view .LVU2709
 10385 073e C5F86C21 		str	r2, [r5, #364]
 357:Menus.cpp     ****                 this->toggleOsc = false;
 10386              		.loc 2 357 17 is_stmt 1 view .LVU2710
 357:Menus.cpp     ****                 this->toggleOsc = false;
 10387              		.loc 2 357 33 is_stmt 0 view .LVU2711
 10388 0742 85F89830 		strb	r3, [r5, #152]
 359:Menus.cpp     ****             if(this->encoderRight.Increment() == -1)
 10389              		.loc 2 359 13 is_stmt 1 view .LVU2712
 10390              	.LVL686:
 359:Menus.cpp     ****             if(this->encoderRight.Increment() == -1)
 10391              		.loc 2 359 13 is_stmt 0 view .LVU2713
 10392              	.LBE2970:
 10393              	.LBE2992:
 10394              	.LBE3048:
  41:../../libdaisy/src/hid/encoder.h ****     /** Returns true if the encoder was just pressed.
 10395              		.loc 3 41 40 is_stmt 1 view .LVU2714
  41:../../libdaisy/src/hid/encoder.h ****     /** Returns true if the encoder was just pressed.
 10396              		.loc 3 41 40 is_stmt 0 view .LVU2715
 10397 0746 EEE7     		b	.L580
 10398              	.L666:
 10399              	.LBB3049:
 10400              	.LBB2993:
 10401              	.LBB2971:
 369:Menus.cpp     ****                 synthOn2         = 1;
 10402              		.loc 2 369 17 is_stmt 1 view .LVU2716
 369:Menus.cpp     ****                 synthOn2         = 1;
 10403              		.loc 2 369 34 is_stmt 0 view .LVU2717
 10404 0748 C5F87011 		str	r1, [r5, #368]
 370:Menus.cpp     ****                 this->toggleOsc2 = false;
 10405              		.loc 2 370 17 is_stmt 1 view .LVU2718
 370:Menus.cpp     ****                 this->toggleOsc2 = false;
 10406              		.loc 2 370 34 is_stmt 0 view .LVU2719
 10407 074c 85F89920 		strb	r2, [r5, #153]
 372:Menus.cpp     ****             if(this->encoderRight.Increment() == -1)
ARM GAS  C:\Users\VINCIU~1\AppData\Local\Temp\ccdS0pnQ.s 			page 258


 10408              		.loc 2 372 13 is_stmt 1 view .LVU2720
 10409              	.LVL687:
 372:Menus.cpp     ****             if(this->encoderRight.Increment() == -1)
 10410              		.loc 2 372 13 is_stmt 0 view .LVU2721
 10411              	.LBE2971:
 10412              	.LBE2993:
 10413              	.LBE3049:
  41:../../libdaisy/src/hid/encoder.h ****     /** Returns true if the encoder was just pressed.
 10414              		.loc 3 41 40 is_stmt 1 view .LVU2722
  41:../../libdaisy/src/hid/encoder.h ****     /** Returns true if the encoder was just pressed.
 10415              		.loc 3 41 40 is_stmt 0 view .LVU2723
 10416 0750 E9E7     		b	.L580
 10417              	.L584:
 10418              	.LBB3050:
 10419              	.LBB2994:
 10420              	.LBB2972:
 10421              	.LBB2832:
 10422              	.LBB2813:
 10423              	.LBB2771:
 391:Menus.cpp     ****             if(this->setWave < 0)
 10424              		.loc 2 391 13 is_stmt 1 view .LVU2724
 10425 0752 002B     		cmp	r3, #0
 10426 0754 68DA     		bge	.L586
 393:Menus.cpp     ****                 this->setWave = 0;
 10427              		.loc 2 393 17 view .LVU2725
 393:Menus.cpp     ****                 this->setWave = 0;
 10428              		.loc 2 393 31 is_stmt 0 view .LVU2726
 10429 0756 0023     		movs	r3, #0
 10430 0758 C5F89031 		str	r3, [r5, #400]
 395:Menus.cpp     ****             if(this->setWave == 0)
 10431              		.loc 2 395 13 is_stmt 1 view .LVU2727
 10432              	.L587:
 10433              	.LVL688:
 10434              	.LBB2766:
 10435              	.LBB2759:
 397:Menus.cpp     ****                 for(int i = 0; i < 2; i++)
 10436              		.loc 2 397 34 view .LVU2728
 399:Menus.cpp     ****                     selectedWave = setWave;
 10437              		.loc 2 399 21 view .LVU2729
 400:Menus.cpp     ****                     osc.osc1.SetWaveform(osc.osc1.WAVE_SIN);
 10438              		.loc 2 400 21 view .LVU2730
 10439              	.LBB2760:
 10440              	.LBI2760:
  70:../../DaisySP/Source/Synthesis/oscillator.h ****     {
 10441              		.loc 8 70 17 view .LVU2731
 10442              	.LBB2761:
 10443              		.loc 8 72 9 view .LVU2732
 10444              		.loc 8 72 19 is_stmt 0 view .LVU2733
 10445 075c 0023     		movs	r3, #0
 10446 075e 3B70     		strb	r3, [r7]
 10447              	.LVL689:
 10448              		.loc 8 72 19 view .LVU2734
 10449              	.LBE2761:
 10450              	.LBE2760:
 397:Menus.cpp     ****                 for(int i = 0; i < 2; i++)
 10451              		.loc 2 397 17 is_stmt 1 view .LVU2735
 397:Menus.cpp     ****                 for(int i = 0; i < 2; i++)
ARM GAS  C:\Users\VINCIU~1\AppData\Local\Temp\ccdS0pnQ.s 			page 259


 10452              		.loc 2 397 34 view .LVU2736
 399:Menus.cpp     ****                     selectedWave = setWave;
 10453              		.loc 2 399 21 view .LVU2737
 399:Menus.cpp     ****                     selectedWave = setWave;
 10454              		.loc 2 399 34 is_stmt 0 view .LVU2738
 10455 0760 D5F89021 		ldr	r2, [r5, #400]
 10456 0764 C5F89C20 		str	r2, [r5, #156]
 400:Menus.cpp     ****                     osc.osc1.SetWaveform(osc.osc1.WAVE_SIN);
 10457              		.loc 2 400 21 is_stmt 1 view .LVU2739
 10458              	.LVL690:
 10459              	.LBB2763:
  70:../../DaisySP/Source/Synthesis/oscillator.h ****     {
 10460              		.loc 8 70 17 view .LVU2740
 10461              	.LBB2762:
 10462              		.loc 8 72 9 view .LVU2741
 10463              		.loc 8 72 19 is_stmt 0 view .LVU2742
 10464 0768 3B70     		strb	r3, [r7]
 10465              	.LVL691:
 10466              		.loc 8 72 19 view .LVU2743
 10467              	.LBE2762:
 10468              	.LBE2763:
 397:Menus.cpp     ****                 for(int i = 0; i < 2; i++)
 10469              		.loc 2 397 17 is_stmt 1 view .LVU2744
 397:Menus.cpp     ****                 for(int i = 0; i < 2; i++)
 10470              		.loc 2 397 34 view .LVU2745
 10471 076a 7AE7     		b	.L589
 10472              	.LVL692:
 10473              	.L592:
 397:Menus.cpp     ****                 for(int i = 0; i < 2; i++)
 10474              		.loc 2 397 34 is_stmt 0 view .LVU2746
 10475              	.LBE2759:
 10476              	.LBE2766:
 10477              	.LBE2771:
 10478              	.LBE2813:
 10479              	.LBB2814:
 10480              	.LBB2808:
 10481              	.LBB2803:
 444:Menus.cpp     ****                 if(this->setWave2 < 0)
 10482              		.loc 2 444 17 is_stmt 1 view .LVU2747
 10483 076c 002B     		cmp	r3, #0
 10484 076e 6CDA     		bge	.L594
 446:Menus.cpp     ****                     this->setWave2 = 0;
 10485              		.loc 2 446 21 view .LVU2748
 446:Menus.cpp     ****                     this->setWave2 = 0;
 10486              		.loc 2 446 36 is_stmt 0 view .LVU2749
 10487 0770 0023     		movs	r3, #0
 10488 0772 C5F89431 		str	r3, [r5, #404]
 448:Menus.cpp     ****                 if(this->setWave2 == 0)
 10489              		.loc 2 448 17 is_stmt 1 view .LVU2750
 10490              	.L595:
 10491              	.LVL693:
 10492              	.LBB2798:
 10493              	.LBB2793:
 450:Menus.cpp     ****                     for(int i = 0; i < 2; i++)
 10494              		.loc 2 450 38 view .LVU2751
 452:Menus.cpp     ****                         selectedWave2 = setWave2;
 10495              		.loc 2 452 25 view .LVU2752
ARM GAS  C:\Users\VINCIU~1\AppData\Local\Temp\ccdS0pnQ.s 			page 260


 453:Menus.cpp     ****                         osc.osc2.SetWaveform(osc.osc2.WAVE_SIN);
 10496              		.loc 2 453 25 view .LVU2753
 10497              	.LBB2794:
 10498              	.LBI2794:
  70:../../DaisySP/Source/Synthesis/oscillator.h ****     {
 10499              		.loc 8 70 17 view .LVU2754
 10500              	.LBB2795:
 10501              		.loc 8 72 9 view .LVU2755
 10502              		.loc 8 72 19 is_stmt 0 view .LVU2756
 10503 0776 0023     		movs	r3, #0
 10504 0778 82E7     		b	.L642
 10505              	.LVL694:
 10506              	.L599:
 10507              		.loc 8 72 19 view .LVU2757
 10508              	.LBE2795:
 10509              	.LBE2794:
 10510              	.LBE2793:
 10511              	.LBE2798:
 10512              	.LBE2803:
 10513              	.LBE2808:
 10514              	.LBE2814:
 525:Menus.cpp     ****             if(this->freqFine2 > 1)
 10515              		.loc 2 525 13 is_stmt 1 view .LVU2758
 525:Menus.cpp     ****             if(this->freqFine2 > 1)
 10516              		.loc 2 525 22 is_stmt 0 view .LVU2759
 10517 077a D5ED5E7A 		vldr.32	s15, [r5, #376]
 525:Menus.cpp     ****             if(this->freqFine2 > 1)
 10518              		.loc 2 525 13 view .LVU2760
 10519 077e F4EEC77A 		vcmpe.f32	s15, s14
 10520 0782 F1EE10FA 		vmrs	APSR_nzcv, FPSCR
 10521 0786 35DD     		ble	.L667
 10522 0788 F0EE477A 		vmov.f32	s15, s14
 10523              	.L603:
 533:Menus.cpp     ****             if(this->drawSliderFine2 >= 1)
 10524              		.loc 2 533 13 is_stmt 1 view .LVU2761
 10525 078c F7EE006A 		vmov.f32	s13, #1.0e+0
 533:Menus.cpp     ****             if(this->drawSliderFine2 >= 1)
 10526              		.loc 2 533 22 is_stmt 0 view .LVU2762
 10527 0790 95ED217A 		vldr.32	s14, [r5, #132]
 533:Menus.cpp     ****             if(this->drawSliderFine2 >= 1)
 10528              		.loc 2 533 13 view .LVU2763
 10529 0794 B4EEE67A 		vcmpe.f32	s14, s13
 10530 0798 F1EE10FA 		vmrs	APSR_nzcv, FPSCR
 10531 079c 22DB     		blt	.L668
 10532 079e B0EE667A 		vmov.f32	s14, s13
 10533              	.L604:
 542:Menus.cpp     ****             this->freqFine2 += (((float)this->encoderRight.Increment()) / 32);
 10534              		.loc 2 542 13 is_stmt 1 view .LVU2764
 10535              	.LVL695:
 10536              	.LBB2815:
 10537              	.LBI2815:
  41:../../libdaisy/src/hid/encoder.h ****     /** Returns true if the encoder was just pressed.
 10538              		.loc 3 41 20 view .LVU2765
 10539              	.LBB2816:
  41:../../libdaisy/src/hid/encoder.h ****     /** Returns true if the encoder was just pressed.
 10540              		.loc 3 41 40 view .LVU2766
  41:../../libdaisy/src/hid/encoder.h ****     /** Returns true if the encoder was just pressed.
ARM GAS  C:\Users\VINCIU~1\AppData\Local\Temp\ccdS0pnQ.s 			page 261


 10541              		.loc 3 41 40 is_stmt 0 view .LVU2767
 10542              	.LBE2816:
 10543              	.LBE2815:
 542:Menus.cpp     ****             this->freqFine2 += (((float)this->encoderRight.Increment()) / 32);
 10544              		.loc 2 542 34 view .LVU2768
 10545 07a2 D5ED126A 		vldr.32	s13, [r5, #72]	@ int
 545:Menus.cpp     ****             sprintf(this->buffFine2, "Fine_%d%%", (int)(freqFine2 * 100));
 10546              		.loc 2 545 20 view .LVU2769
 10547 07a6 05F1EC00 		add	r0, r5, #236
 542:Menus.cpp     ****             this->freqFine2 += (((float)this->encoderRight.Increment()) / 32);
 10548              		.loc 2 542 29 view .LVU2770
 10549 07aa 5FED285A 		vldr.32	s11, .L671+16
 542:Menus.cpp     ****             this->freqFine2 += (((float)this->encoderRight.Increment()) / 32);
 10550              		.loc 2 542 34 view .LVU2771
 10551 07ae F8EEE66A 		vcvt.f32.s32	s13, s13
 545:Menus.cpp     ****             sprintf(this->buffFine2, "Fine_%d%%", (int)(freqFine2 * 100));
 10552              		.loc 2 545 67 view .LVU2772
 10553 07b2 1FED296A 		vldr.32	s12, .L671+20
 545:Menus.cpp     ****             sprintf(this->buffFine2, "Fine_%d%%", (int)(freqFine2 * 100));
 10554              		.loc 2 545 20 view .LVU2773
 10555 07b6 2A49     		ldr	r1, .L673
 542:Menus.cpp     ****             this->freqFine2 += (((float)this->encoderRight.Increment()) / 32);
 10556              		.loc 2 542 29 view .LVU2774
 10557 07b8 E6EEA57A 		vfma.f32	s15, s13, s11
 544:Menus.cpp     ****                 += (((float)this->encoderRight.Increment()) / 32);
 10558              		.loc 2 544 17 view .LVU2775
 10559 07bc A6EEA57A 		vfma.f32	s14, s13, s11
 545:Menus.cpp     ****             sprintf(this->buffFine2, "Fine_%d%%", (int)(freqFine2 * 100));
 10560              		.loc 2 545 67 view .LVU2776
 10561 07c0 67EE866A 		vmul.f32	s13, s15, s12
 542:Menus.cpp     ****             this->freqFine2 += (((float)this->encoderRight.Increment()) / 32);
 10562              		.loc 2 542 29 view .LVU2777
 10563 07c4 C5ED5E7A 		vstr.32	s15, [r5, #376]
 543:Menus.cpp     ****             this->drawSliderFine2
 10564              		.loc 2 543 13 is_stmt 1 view .LVU2778
 10565              	.LVL696:
 543:Menus.cpp     ****             this->drawSliderFine2
 10566              		.loc 2 543 13 is_stmt 0 view .LVU2779
 10567              	.LBE2832:
 10568              	.LBE2972:
 10569              	.LBE2994:
 10570              	.LBE3050:
  41:../../libdaisy/src/hid/encoder.h ****     /** Returns true if the encoder was just pressed.
 10571              		.loc 3 41 40 is_stmt 1 view .LVU2780
 10572              	.LBB3051:
 10573              	.LBB2995:
 10574              	.LBB2973:
 10575              	.LBB2833:
 544:Menus.cpp     ****                 += (((float)this->encoderRight.Increment()) / 32);
 10576              		.loc 2 544 17 is_stmt 0 view .LVU2781
 10577 07c8 85ED217A 		vstr.32	s14, [r5, #132]
 545:Menus.cpp     ****             sprintf(this->buffFine2, "Fine_%d%%", (int)(freqFine2 * 100));
 10578              		.loc 2 545 13 is_stmt 1 view .LVU2782
 545:Menus.cpp     ****             sprintf(this->buffFine2, "Fine_%d%%", (int)(freqFine2 * 100));
 10579              		.loc 2 545 20 is_stmt 0 view .LVU2783
 10580 07cc FDEEE67A 		vcvt.s32.f32	s15, s13
 10581 07d0 17EE902A 		vmov	r2, s15	@ int
ARM GAS  C:\Users\VINCIU~1\AppData\Local\Temp\ccdS0pnQ.s 			page 262


 10582 07d4 FFF7FEFF 		bl	sprintf
 10583              	.LVL697:
 10584 07d8 45E5     		b	.L602
 10585              	.L656:
 545:Menus.cpp     ****             sprintf(this->buffFine2, "Fine_%d%%", (int)(freqFine2 * 100));
 10586              		.loc 2 545 20 view .LVU2784
 10587              	.LBE2833:
 10588              	.LBE2973:
 339:Menus.cpp     ****             this->noteSemiAdd2 += (float)this->encoderRight.Increment();
 10589              		.loc 2 339 32 view .LVU2785
 10590 07da 07EE903A 		vmov	s15, r3	@ int
 10591 07de F8EEE77A 		vcvt.f32.s32	s15, s15
 10592 07e2 E8E5     		b	.L555
 10593              	.L668:
 10594              	.LBB2974:
 10595              	.LBB2834:
 537:Menus.cpp     ****             if(this->drawSliderFine2 < 0)
 10596              		.loc 2 537 13 is_stmt 1 view .LVU2786
 10597 07e4 B5EEC07A 		vcmpe.f32	s14, #0
 10598 07e8 F1EE10FA 		vmrs	APSR_nzcv, FPSCR
 10599 07ec D9D5     		bpl	.L604
 10600 07ee 9FED1D7A 		vldr.32	s14, .L673+4
 10601 07f2 D6E7     		b	.L604
 10602              	.L667:
 529:Menus.cpp     ****             if(this->freqFine2 < 0)
 10603              		.loc 2 529 13 view .LVU2787
 10604 07f4 F5EEC07A 		vcmpe.f32	s15, #0
 10605 07f8 F1EE10FA 		vmrs	APSR_nzcv, FPSCR
 10606 07fc C6D5     		bpl	.L603
 10607 07fe DFED197A 		vldr.32	s15, .L673+4
 10608 0802 C3E7     		b	.L603
 10609              	.L654:
 513:Menus.cpp     ****             if(this->drawSliderFine < 0)
 10610              		.loc 2 513 13 view .LVU2788
 10611 0804 B5EEC07A 		vcmpe.f32	s14, #0
 10612 0808 F1EE10FA 		vmrs	APSR_nzcv, FPSCR
 10613 080c 7FF510AD 		bpl	.L601
 10614 0810 9FED147A 		vldr.32	s14, .L673+4
 10615 0814 0CE5     		b	.L601
 10616              	.L653:
 505:Menus.cpp     ****             if(this->freqFine < 0)
 10617              		.loc 2 505 13 view .LVU2789
 10618 0816 F5EEC07A 		vcmpe.f32	s15, #0
 10619 081a F1EE10FA 		vmrs	APSR_nzcv, FPSCR
 10620 081e 7FF5FBAC 		bpl	.L600
 10621 0822 DFED107A 		vldr.32	s15, .L673+4
 10622 0826 F7E4     		b	.L600
 10623              	.L586:
 10624              	.LBB2817:
 10625              	.LBB2772:
 386:Menus.cpp     ****             this->setWave += this->encoderRight.Increment();
 10626              		.loc 2 386 27 is_stmt 0 view .LVU2790
 10627 0828 C5F89031 		str	r3, [r5, #400]
 395:Menus.cpp     ****             if(this->setWave == 0)
 10628              		.loc 2 395 13 is_stmt 1 view .LVU2791
 10629              	.LBB2767:
 10630 082c 96D0     		beq	.L587
ARM GAS  C:\Users\VINCIU~1\AppData\Local\Temp\ccdS0pnQ.s 			page 263


 10631              	.LBE2767:
 10632              	.LBE2772:
 10633              	.LBE2817:
 10634              	.LBE2834:
 10635              	.LBE2974:
 10636              	.LBE2995:
 10637              	.LBE3051:
 403:Menus.cpp     ****             else if(setWave == 1)
 10638              		.loc 2 403 18 view .LVU2792
 10639              	.LBB3052:
 10640              	.LBB2996:
 10641              	.LBB2975:
 10642              	.LBB2835:
 10643              	.LBB2818:
 10644              	.LBB2773:
 10645              	.LBB2768:
 10646              	.LBB2764:
 10647 082e 012B     		cmp	r3, #1
 10648 0830 3FF411AF 		beq	.L641
 10649              	.LBE2764:
 10650              	.LBE2768:
 10651              	.LBE2773:
 10652              	.LBE2818:
 10653              	.LBE2835:
 10654              	.LBE2975:
 10655              	.LBE2996:
 10656              	.LBE3052:
 411:Menus.cpp     ****             else if(setWave == 2)
 10657              		.loc 2 411 18 view .LVU2793
 10658              	.LBB3053:
 10659              	.LBB2997:
 10660              	.LBB2976:
 10661              	.LBB2836:
 10662              	.LBB2819:
 10663              	.LBB2774:
 10664              	.LBB2769:
 10665              	.LBB2765:
 10666              	.LBB2758:
 10667 0834 022B     		cmp	r3, #2
 10668 0836 7FF40DAF 		bne	.L585
 10669              	.LVL698:
 10670              	.LBB2753:
 413:Menus.cpp     ****                 for(int i = 0; i < 2; i++)
 10671              		.loc 2 413 34 view .LVU2794
 415:Menus.cpp     ****                     selectedWave = setWave;
 10672              		.loc 2 415 21 view .LVU2795
 416:Menus.cpp     ****                     osc.osc1.SetWaveform(osc.osc1.WAVE_SQUARE);
 10673              		.loc 2 416 21 view .LVU2796
 10674              	.LBB2754:
 10675              	.LBI2754:
  70:../../DaisySP/Source/Synthesis/oscillator.h ****     {
 10676              		.loc 8 70 17 view .LVU2797
 10677              	.LBB2755:
 10678              		.loc 8 72 9 view .LVU2798
 10679              		.loc 8 72 19 is_stmt 0 view .LVU2799
 10680 083a 0423     		movs	r3, #4
 10681 083c 3B70     		strb	r3, [r7]
ARM GAS  C:\Users\VINCIU~1\AppData\Local\Temp\ccdS0pnQ.s 			page 264


 10682              	.LVL699:
 10683              		.loc 8 72 19 view .LVU2800
 10684              	.LBE2755:
 10685              	.LBE2754:
 413:Menus.cpp     ****                 for(int i = 0; i < 2; i++)
 10686              		.loc 2 413 17 is_stmt 1 view .LVU2801
 413:Menus.cpp     ****                 for(int i = 0; i < 2; i++)
 10687              		.loc 2 413 34 view .LVU2802
 415:Menus.cpp     ****                     selectedWave = setWave;
 10688              		.loc 2 415 21 view .LVU2803
 415:Menus.cpp     ****                     selectedWave = setWave;
 10689              		.loc 2 415 34 is_stmt 0 view .LVU2804
 10690 083e D5F89021 		ldr	r2, [r5, #400]
 10691 0842 C5F89C20 		str	r2, [r5, #156]
 416:Menus.cpp     ****                     osc.osc1.SetWaveform(osc.osc1.WAVE_SQUARE);
 10692              		.loc 2 416 21 is_stmt 1 view .LVU2805
 10693              	.LVL700:
 10694              	.LBB2757:
  70:../../DaisySP/Source/Synthesis/oscillator.h ****     {
 10695              		.loc 8 70 17 view .LVU2806
 10696              	.LBB2756:
 10697              		.loc 8 72 9 view .LVU2807
 10698              		.loc 8 72 19 is_stmt 0 view .LVU2808
 10699 0846 3B70     		strb	r3, [r7]
 10700              	.LVL701:
 10701              		.loc 8 72 19 view .LVU2809
 10702              	.LBE2756:
 10703              	.LBE2757:
 413:Menus.cpp     ****                 for(int i = 0; i < 2; i++)
 10704              		.loc 2 413 17 is_stmt 1 view .LVU2810
 413:Menus.cpp     ****                 for(int i = 0; i < 2; i++)
 10705              		.loc 2 413 34 view .LVU2811
 10706 0848 0BE7     		b	.L589
 10707              	.LVL702:
 10708              	.L594:
 413:Menus.cpp     ****                 for(int i = 0; i < 2; i++)
 10709              		.loc 2 413 34 is_stmt 0 view .LVU2812
 10710              	.LBE2753:
 10711              	.LBE2758:
 10712              	.LBE2765:
 10713              	.LBE2769:
 10714              	.LBE2774:
 10715              	.LBE2819:
 10716              	.LBB2820:
 10717              	.LBB2809:
 10718              	.LBB2804:
 439:Menus.cpp     ****                 this->setWave2 += this->encoderRight.Increment();
 10719              		.loc 2 439 32 view .LVU2813
 10720 084a C5F89431 		str	r3, [r5, #404]
 448:Menus.cpp     ****                 if(this->setWave2 == 0)
 10721              		.loc 2 448 17 is_stmt 1 view .LVU2814
 10722              	.LBB2799:
 10723 084e 92D0     		beq	.L595
 10724              	.LBE2799:
 10725              	.LBE2804:
 10726              	.LBE2809:
 10727              	.LBE2820:
ARM GAS  C:\Users\VINCIU~1\AppData\Local\Temp\ccdS0pnQ.s 			page 265


 10728              	.LBE2836:
 10729              	.LBE2976:
 10730              	.LBE2997:
 10731              	.LBE3053:
 456:Menus.cpp     ****                 else if(setWave2 == 1)
 10732              		.loc 2 456 22 view .LVU2815
 10733              	.LBB3054:
 10734              	.LBB2998:
 10735              	.LBB2977:
 10736              	.LBB2837:
 10737              	.LBB2821:
 10738              	.LBB2810:
 10739              	.LBB2805:
 10740              	.LBB2800:
 10741              	.LBB2796:
 10742 0850 012B     		cmp	r3, #1
 10743 0852 3FF415AF 		beq	.L642
 10744              	.LBE2796:
 10745              	.LBE2800:
 10746              	.LBE2805:
 10747              	.LBE2810:
 10748              	.LBE2821:
 10749              	.LBE2837:
 10750              	.LBE2977:
 10751              	.LBE2998:
 10752              	.LBE3054:
 464:Menus.cpp     ****                 else if(setWave2 == 2)
 10753              		.loc 2 464 22 view .LVU2816
 10754              	.LBB3055:
 10755              	.LBB2999:
 10756              	.LBB2978:
 10757              	.LBB2838:
 10758              	.LBB2822:
 10759              	.LBB2811:
 10760              	.LBB2806:
 10761              	.LBB2801:
 10762              	.LBB2797:
 10763              	.LBB2792:
 10764 0856 022B     		cmp	r3, #2
 10765 0858 7FF411AF 		bne	.L593
 10766              	.LVL703:
 10767              	.LBB2789:
 466:Menus.cpp     ****                     for(int i = 0; i < 2; i++)
 10768              		.loc 2 466 38 view .LVU2817
 468:Menus.cpp     ****                         selectedWave2 = setWave2;
 10769              		.loc 2 468 25 view .LVU2818
 469:Menus.cpp     ****                         osc.osc2.SetWaveform(osc.osc2.WAVE_SQUARE);
 10770              		.loc 2 469 25 view .LVU2819
 10771              	.LBB2790:
 10772              	.LBI2790:
  70:../../DaisySP/Source/Synthesis/oscillator.h ****     {
 10773              		.loc 8 70 17 view .LVU2820
 10774              	.LBB2791:
 10775              		.loc 8 72 9 view .LVU2821
 10776              		.loc 8 72 19 is_stmt 0 view .LVU2822
 10777 085c 0423     		movs	r3, #4
 10778 085e 0FE7     		b	.L642
ARM GAS  C:\Users\VINCIU~1\AppData\Local\Temp\ccdS0pnQ.s 			page 266


 10779              	.L674:
 10780              		.align	2
 10781              	.L673:
 10782 0860 14000000 		.word	.LC8
 10783 0864 00000000 		.word	0
 10784              	.LBE2791:
 10785              	.LBE2790:
 10786              	.LBE2789:
 10787              	.LBE2792:
 10788              	.LBE2797:
 10789              	.LBE2801:
 10790              	.LBE2806:
 10791              	.LBE2811:
 10792              	.LBE2822:
 10793              	.LBE2838:
 10794              	.LBE2978:
 10795              	.LBE2999:
 10796              	.LBE3055:
 10797              		.cfi_endproc
 10798              	.LFE4040:
 10800              		.section	.rodata._ZN5Menus5Menu2E23OledDisplayExtravaganzaNS_8oscVoiceE.str1.4,"aMS",%progbits,1
 10801              		.align	2
 10802              	.LC9:
 10803 0000 496E6974 		.ascii	"Init_%d%%\000"
 10803      5F256425 
 10803      2500
 10804 000a 0000     		.align	2
 10805              	.LC10:
 10806 000c 54696D65 		.ascii	"Time_%d%%\000"
 10806      5F256425 
 10806      2500
 10807              		.section	.text._ZN5Menus5Menu2E23OledDisplayExtravaganzaNS_8oscVoiceE,"ax",%progbits
 10808              		.align	1
 10809              		.p2align 2,,3
 10810              		.global	_ZN5Menus5Menu2E23OledDisplayExtravaganzaNS_8oscVoiceE
 10811              		.syntax unified
 10812              		.thumb
 10813              		.thumb_func
 10814              		.fpu fpv5-d16
 10816              	_ZN5Menus5Menu2E23OledDisplayExtravaganzaNS_8oscVoiceE:
 10817              	.LVL704:
 10818              	.LFB4041:
 560:Menus.cpp     **** {
 10819              		.loc 2 560 1 is_stmt 1 view -0
 10820              		.cfi_startproc
 10821              		@ args = 0, pretend = 0, frame = 24
 10822              		@ frame_needed = 0, uses_anonymous_args = 0
 560:Menus.cpp     **** {
 10823              		.loc 2 560 1 is_stmt 0 view .LVU2824
 10824 0000 2DE9F04F 		push	{r4, r5, r6, r7, r8, r9, r10, fp, lr}
 10825              		.cfi_def_cfa_offset 36
 10826              		.cfi_offset 4, -36
 10827              		.cfi_offset 5, -32
 10828              		.cfi_offset 6, -28
 10829              		.cfi_offset 7, -24
 10830              		.cfi_offset 8, -20
 10831              		.cfi_offset 9, -16
ARM GAS  C:\Users\VINCIU~1\AppData\Local\Temp\ccdS0pnQ.s 			page 267


 10832              		.cfi_offset 10, -12
 10833              		.cfi_offset 11, -8
 10834              		.cfi_offset 14, -4
 10835 0004 0C46     		mov	r4, r1
 10836 0006 8BB0     		sub	sp, sp, #44
 10837              		.cfi_def_cfa_offset 80
 10838              	.LBB3266:
 10839              	.LBB3267:
 10840              	.LBB3268:
 253:../../libdaisy/src/dev/oled_ssd130x.h ****         }
 10841              		.loc 5 253 24 view .LVU2825
 10842 0008 4FF48062 		mov	r2, #1024
 10843              	.LVL705:
 253:../../libdaisy/src/dev/oled_ssd130x.h ****         }
 10844              		.loc 5 253 24 view .LVU2826
 10845 000c 0021     		movs	r1, #0
 10846              	.LVL706:
 253:../../libdaisy/src/dev/oled_ssd130x.h ****         }
 10847              		.loc 5 253 24 view .LVU2827
 10848              	.LBE3268:
 10849              	.LBE3267:
 10850              	.LBE3266:
 560:Menus.cpp     **** {
 10851              		.loc 2 560 1 view .LVU2828
 10852 000e 0646     		mov	r6, r0
 561:Menus.cpp     ****     screen.Fill(false);
 10853              		.loc 2 561 5 is_stmt 1 view .LVU2829
 10854              	.LVL707:
 10855              	.LBB3271:
 10856              	.LBI3266:
  33:../../libdaisy/src/hid/disp/oled_display.h **** 
 10857              		.loc 1 33 10 view .LVU2830
 10858              	.LBB3270:
 10859              	.LBI3267:
 249:../../libdaisy/src/dev/oled_ssd130x.h ****     {
 10860              		.loc 5 249 10 view .LVU2831
 10861              	.LBB3269:
 251:../../libdaisy/src/dev/oled_ssd130x.h ****         {
 10862              		.loc 5 251 29 view .LVU2832
 253:../../libdaisy/src/dev/oled_ssd130x.h ****         }
 10863              		.loc 5 253 24 is_stmt 0 view .LVU2833
 10864 0010 04F11400 		add	r0, r4, #20
 10865              	.LVL708:
 253:../../libdaisy/src/dev/oled_ssd130x.h ****         }
 10866              		.loc 5 253 24 view .LVU2834
 10867 0014 FFF7FEFF 		bl	memset
 10868              	.LVL709:
 253:../../libdaisy/src/dev/oled_ssd130x.h ****         }
 10869              		.loc 5 253 24 view .LVU2835
 10870 0018 0023     		movs	r3, #0
 10871              	.LVL710:
 10872              	.L679:
 253:../../libdaisy/src/dev/oled_ssd130x.h ****         }
 10873              		.loc 5 253 24 view .LVU2836
 10874              	.LBE3269:
 10875              	.LBE3270:
 10876              	.LBE3271:
ARM GAS  C:\Users\VINCIU~1\AppData\Local\Temp\ccdS0pnQ.s 			page 268


 10877              	.LBB3272:
 568:Menus.cpp     ****         screen.DrawPixel(i * 3, (screen.Height() / 2), true);
 10878              		.loc 2 568 9 is_stmt 1 discriminator 2 view .LVU2837
 10879              	.LBB3273:
 10880              	.LBI3273:
  41:../../libdaisy/src/hid/disp/oled_display.h ****     {
 10881              		.loc 1 41 10 discriminator 2 view .LVU2838
 10882              	.LBB3274:
 10883              	.LBI3274:
 239:../../libdaisy/src/dev/oled_ssd130x.h ****     {
 10884              		.loc 5 239 10 discriminator 2 view .LVU2839
 10885              	.LBB3275:
 241:../../libdaisy/src/dev/oled_ssd130x.h ****             return;
 10886              		.loc 5 241 9 is_stmt 0 discriminator 2 view .LVU2840
 10887 001a 7F2B     		cmp	r3, #127
 10888 001c 04F50571 		add	r1, r4, #532
 10889 0020 08D8     		bhi	.L676
 10890              	.L755:
 244:../../libdaisy/src/dev/oled_ssd130x.h ****         else
 10891              		.loc 5 244 42 view .LVU2841
 10892 0022 CA5C     		ldrb	r2, [r1, r3]	@ zero_extendqisi2
 10893 0024 42F00102 		orr	r2, r2, #1
 10894 0028 CA54     		strb	r2, [r1, r3]
 10895              	.LVL711:
 244:../../libdaisy/src/dev/oled_ssd130x.h ****         else
 10896              		.loc 5 244 42 view .LVU2842
 10897              	.LBE3275:
 10898              	.LBE3274:
 10899              	.LBE3273:
 566:Menus.cpp     ****     for(int i = 0; i < screen.Width(); i++)
 10900              		.loc 2 566 5 is_stmt 1 view .LVU2843
 566:Menus.cpp     ****     for(int i = 0; i < screen.Width(); i++)
 10901              		.loc 2 566 22 view .LVU2844
 10902 002a 0333     		adds	r3, r3, #3
 568:Menus.cpp     ****         screen.DrawPixel(i * 3, (screen.Height() / 2), true);
 10903              		.loc 2 568 9 view .LVU2845
 10904              	.LVL712:
 10905              	.LBB3278:
  41:../../libdaisy/src/hid/disp/oled_display.h ****     {
 10906              		.loc 1 41 10 view .LVU2846
 10907              	.LBB3277:
 239:../../libdaisy/src/dev/oled_ssd130x.h ****     {
 10908              		.loc 5 239 10 view .LVU2847
 239:../../libdaisy/src/dev/oled_ssd130x.h ****     {
 10909              		.loc 5 239 10 is_stmt 0 view .LVU2848
 10910 002c 04F50571 		add	r1, r4, #532
 10911              	.LBB3276:
 241:../../libdaisy/src/dev/oled_ssd130x.h ****             return;
 10912              		.loc 5 241 9 view .LVU2849
 10913 0030 7F2B     		cmp	r3, #127
 10914 0032 F6D9     		bls	.L755
 10915              	.L676:
 10916              	.LVL713:
 241:../../libdaisy/src/dev/oled_ssd130x.h ****             return;
 10917              		.loc 5 241 9 view .LVU2850
 10918              	.LBE3276:
 10919              	.LBE3277:
ARM GAS  C:\Users\VINCIU~1\AppData\Local\Temp\ccdS0pnQ.s 			page 269


 10920              	.LBE3278:
 566:Menus.cpp     ****     for(int i = 0; i < screen.Width(); i++)
 10921              		.loc 2 566 5 is_stmt 1 view .LVU2851
 566:Menus.cpp     ****     for(int i = 0; i < screen.Width(); i++)
 10922              		.loc 2 566 22 view .LVU2852
 10923 0034 0333     		adds	r3, r3, #3
 10924 0036 B3F5C07F 		cmp	r3, #384
 10925 003a EED1     		bne	.L679
 10926              	.LBE3272:
 570:Menus.cpp     ****     if(this->buttonLeft.RisingEdge())
 10927              		.loc 2 570 5 view .LVU2853
 10928              	.LVL714:
 10929              	.LBB3279:
 10930              	.LBI3279:
 10931              		.loc 4 69 17 view .LVU2854
 10932              	.LBB3280:
 10933              		.loc 4 69 38 view .LVU2855
 10934              		.loc 4 69 38 is_stmt 0 view .LVU2856
 10935              	.LBE3280:
 10936              	.LBE3279:
 570:Menus.cpp     ****     if(this->buttonLeft.RisingEdge())
 10937              		.loc 2 570 5 view .LVU2857
 10938 003c 96F85130 		ldrb	r3, [r6, #81]	@ zero_extendqisi2
 10939 0040 7F2B     		cmp	r3, #127
 573:Menus.cpp     ****         this->menuStateGlide = this->menuStateGlide - 1;
 10940              		.loc 2 573 53 view .LVU2858
 10941 0042 336F     		ldr	r3, [r6, #112]
 570:Menus.cpp     ****     if(this->buttonLeft.RisingEdge())
 10942              		.loc 2 570 5 view .LVU2859
 10943 0044 00F07081 		beq	.L756
 10944              	.L682:
 579:Menus.cpp     ****     if(this->buttonRight.RisingEdge())
 10945              		.loc 2 579 5 is_stmt 1 view .LVU2860
 10946              	.LVL715:
 10947              	.LBB3281:
 10948              	.LBI3281:
 10949              		.loc 4 69 17 view .LVU2861
 10950              	.LBB3282:
 10951              		.loc 4 69 38 view .LVU2862
 10952              		.loc 4 69 38 is_stmt 0 view .LVU2863
 10953              	.LBE3282:
 10954              	.LBE3281:
 579:Menus.cpp     ****     if(this->buttonRight.RisingEdge())
 10955              		.loc 2 579 5 view .LVU2864
 10956 0048 96F86120 		ldrb	r2, [r6, #97]	@ zero_extendqisi2
 10957 004c 7F2A     		cmp	r2, #127
 10958 004e 4ED0     		beq	.L757
 10959              	.L685:
 588:Menus.cpp     ****     if(this->menuStateGlide == 0)
 10960              		.loc 2 588 5 is_stmt 1 view .LVU2865
 10961              	.LBB3284:
 10962 0050 002B     		cmp	r3, #0
 10963 0052 52D0     		beq	.L684
 611:Menus.cpp     ****     else if(this->menuStateGlide == 1)
 10964              		.loc 2 611 10 view .LVU2866
 10965 0054 012B     		cmp	r3, #1
 10966 0056 00F09281 		beq	.L683
ARM GAS  C:\Users\VINCIU~1\AppData\Local\Temp\ccdS0pnQ.s 			page 270


 10967 005a 06F58E77 		add	r7, r6, #284
 10968              	.L704:
 10969              	.LBB3285:
 604:Menus.cpp     ****         sprintf(this->buffPitchGlide, "Init_%d%%", this->glideInit);
 10970              		.loc 2 604 23 is_stmt 0 view .LVU2867
 10971 005e 06F58275 		add	r5, r6, #260
 10972              	.L694:
 604:Menus.cpp     ****         sprintf(this->buffPitchGlide, "Init_%d%%", this->glideInit);
 10973              		.loc 2 604 23 view .LVU2868
 10974              	.LBE3285:
 10975              	.LBE3284:
 644:Menus.cpp     ****     screen.SetCursor(6, 4);
 10976              		.loc 2 644 5 is_stmt 1 view .LVU2869
 10977              	.LVL716:
 10978              	.LBB3394:
 10979              	.LBI3394:
 131:../../libdaisy/src/hid/disp/display.h ****     {
 10980              		.loc 6 131 10 view .LVU2870
 10981              	.LBB3395:
 133:../../libdaisy/src/hid/disp/display.h ****         currentY_ = (y >= Height()) ? Height() - 1 : y;
 10982              		.loc 6 133 9 view .LVU2871
 134:../../libdaisy/src/hid/disp/display.h ****     }
 10983              		.loc 6 134 9 view .LVU2872
 10984              	.LBE3395:
 10985              	.LBE3394:
 645:Menus.cpp     ****     screen.WriteString(buffPitchGlide, Font_6x8, true);
 10986              		.loc 2 645 23 is_stmt 0 view .LVU2873
 10987 0062 2946     		mov	r1, r5
 10988              	.LBB3398:
 10989              	.LBB3396:
 133:../../libdaisy/src/hid/disp/display.h ****         currentY_ = (y >= Height()) ? Height() - 1 : y;
 10990              		.loc 6 133 19 view .LVU2874
 10991 0064 BB4B     		ldr	r3, .L760
 10992              	.LBE3396:
 10993              	.LBE3398:
 645:Menus.cpp     ****     screen.WriteString(buffPitchGlide, Font_6x8, true);
 10994              		.loc 2 645 23 view .LVU2875
 10995 0066 BC4D     		ldr	r5, .L760+4
 10996 0068 4FF00109 		mov	r9, #1
 10997              	.LBB3399:
 10998              	.LBB3397:
 133:../../libdaisy/src/hid/disp/display.h ****         currentY_ = (y >= Height()) ? Height() - 1 : y;
 10999              		.loc 6 133 19 view .LVU2876
 11000 006c 6360     		str	r3, [r4, #4]
 11001              	.LVL717:
 133:../../libdaisy/src/hid/disp/display.h ****         currentY_ = (y >= Height()) ? Height() - 1 : y;
 11002              		.loc 6 133 19 view .LVU2877
 11003              	.LBE3397:
 11004              	.LBE3399:
 645:Menus.cpp     ****     screen.WriteString(buffPitchGlide, Font_6x8, true);
 11005              		.loc 2 645 5 is_stmt 1 view .LVU2878
 645:Menus.cpp     ****     screen.WriteString(buffPitchGlide, Font_6x8, true);
 11006              		.loc 2 645 23 is_stmt 0 view .LVU2879
 11007 006e 2046     		mov	r0, r4
 11008 0070 CDF80090 		str	r9, [sp]
 11009 0074 95E80C00 		ldm	r5, {r2, r3}
 11010 0078 FFF7FEFF 		bl	_ZN5daisy25OneBitGraphicsDisplayImplINS_11OledDisplayINS_13SSD130xDriverILj128ELj64ENS_24SSD130
ARM GAS  C:\Users\VINCIU~1\AppData\Local\Temp\ccdS0pnQ.s 			page 271


 11011              	.LVL718:
 646:Menus.cpp     ****     screen.SetCursor(73, 4);
 11012              		.loc 2 646 5 is_stmt 1 view .LVU2880
 11013              	.LBB3400:
 11014              	.LBI3400:
 131:../../libdaisy/src/hid/disp/display.h ****     {
 11015              		.loc 6 131 10 view .LVU2881
 11016              	.LBB3401:
 133:../../libdaisy/src/hid/disp/display.h ****         currentY_ = (y >= Height()) ? Height() - 1 : y;
 11017              		.loc 6 133 9 view .LVU2882
 134:../../libdaisy/src/hid/disp/display.h ****     }
 11018              		.loc 6 134 9 view .LVU2883
 133:../../libdaisy/src/hid/disp/display.h ****         currentY_ = (y >= Height()) ? Height() - 1 : y;
 11019              		.loc 6 133 19 is_stmt 0 view .LVU2884
 11020 007c B74B     		ldr	r3, .L760+8
 11021              	.LBE3401:
 11022              	.LBE3400:
 647:Menus.cpp     ****     screen.WriteString(buffPitchTime, Font_6x8, true);
 11023              		.loc 2 647 23 view .LVU2885
 11024 007e CDF80090 		str	r9, [sp]
 11025 0082 3946     		mov	r1, r7
 11026              	.LBB3403:
 11027              	.LBB3402:
 133:../../libdaisy/src/hid/disp/display.h ****         currentY_ = (y >= Height()) ? Height() - 1 : y;
 11028              		.loc 6 133 19 view .LVU2886
 11029 0084 6360     		str	r3, [r4, #4]
 11030              	.LVL719:
 133:../../libdaisy/src/hid/disp/display.h ****         currentY_ = (y >= Height()) ? Height() - 1 : y;
 11031              		.loc 6 133 19 view .LVU2887
 11032              	.LBE3402:
 11033              	.LBE3403:
 647:Menus.cpp     ****     screen.WriteString(buffPitchTime, Font_6x8, true);
 11034              		.loc 2 647 5 is_stmt 1 view .LVU2888
 647:Menus.cpp     ****     screen.WriteString(buffPitchTime, Font_6x8, true);
 11035              		.loc 2 647 23 is_stmt 0 view .LVU2889
 11036 0086 2046     		mov	r0, r4
 11037 0088 95E80C00 		ldm	r5, {r2, r3}
 11038 008c FFF7FEFF 		bl	_ZN5daisy25OneBitGraphicsDisplayImplINS_11OledDisplayINS_13SSD130xDriverILj128ELj64ENS_24SSD130
 11039              	.LVL720:
 648:Menus.cpp     ****     screen.DrawLine(margin,
 11040              		.loc 2 648 5 is_stmt 1 view .LVU2890
 648:Menus.cpp     ****     screen.DrawLine(margin,
 11041              		.loc 2 648 20 is_stmt 0 view .LVU2891
 11042 0090 96ED227A 		vldr.32	s14, [r6, #136]
 11043 0094 D6ED237A 		vldr.32	s15, [r6, #140]
 11044 0098 BCEEC77A 		vcvt.u32.f32	s14, s14
 11045 009c FCEEE77A 		vcvt.u32.f32	s15, s15
 11046              	.LBB3404:
 11047              	.LBB3405:
 188:../../libdaisy/src/hid/disp/display.h ****         int_fast16_t signX  = ((x1 < x2) ? 1 : -1);
 11048              		.loc 6 188 52 view .LVU2892
 11049 00a0 17EE103A 		vmov	r3, s14	@ int
 11050              	.LBE3405:
 11051              	.LBE3404:
 648:Menus.cpp     ****     screen.DrawLine(margin,
 11052              		.loc 2 648 20 view .LVU2893
 11053 00a4 8DED057A 		vstr.32	s14, [sp, #20]	@ int
ARM GAS  C:\Users\VINCIU~1\AppData\Local\Temp\ccdS0pnQ.s 			page 272


 11054 00a8 17EE908A 		vmov	r8, s15	@ int
 11055              	.LVL721:
 11056              	.LBB3444:
 11057              	.LBI3404:
 181:../../libdaisy/src/hid/disp/display.h ****                   uint_fast8_t y1,
 11058              		.loc 6 181 10 is_stmt 1 view .LVU2894
 11059              	.LBB3440:
 188:../../libdaisy/src/hid/disp/display.h ****         int_fast16_t signX  = ((x1 < x2) ? 1 : -1);
 11060              		.loc 6 188 52 is_stmt 0 view .LVU2895
 11061 00ac C3F1200A 		rsb	r10, r3, #32
 187:../../libdaisy/src/hid/disp/display.h ****         int_fast16_t deltaY = abs((int_fast16_t)y2 - (int_fast16_t)y1);
 11062              		.loc 6 187 52 view .LVU2896
 11063 00b0 A8F10A07 		sub	r7, r8, #10
 188:../../libdaisy/src/hid/disp/display.h ****         int_fast16_t signX  = ((x1 < x2) ? 1 : -1);
 11064              		.loc 6 188 22 view .LVU2897
 11065 00b4 BAF1000F 		cmp	r10, #0
 11066 00b8 B8BF     		it	lt
 11067 00ba CAF1000A 		rsblt	r10, r10, #0
 187:../../libdaisy/src/hid/disp/display.h ****         int_fast16_t deltaY = abs((int_fast16_t)y2 - (int_fast16_t)y1);
 11068              		.loc 6 187 22 view .LVU2898
 11069 00be 002F     		cmp	r7, #0
 11070 00c0 B8BF     		it	lt
 11071 00c2 7F42     		rsblt	r7, r7, #0
 11072              	.LVL722:
 189:../../libdaisy/src/hid/disp/display.h ****         int_fast16_t signY  = ((y1 < y2) ? 1 : -1);
 11073              		.loc 6 189 42 view .LVU2899
 11074 00c4 B8F10A0F 		cmp	r8, #10
 11075 00c8 40F28680 		bls	.L706
 11076              	.LVL723:
 190:../../libdaisy/src/hid/disp/display.h ****         int_fast16_t error  = deltaX - deltaY;
 11077              		.loc 6 190 42 view .LVU2900
 11078 00cc 1F2B     		cmp	r3, #31
 191:../../libdaisy/src/hid/disp/display.h ****         int_fast16_t error2;
 11079              		.loc 6 191 22 view .LVU2901
 11080 00ce A7EB0A01 		sub	r1, r7, r10
 11081              	.LVL724:
 11082              	.LBB3406:
 11083              	.LBI3406:
  41:../../libdaisy/src/hid/disp/oled_display.h ****     {
 11084              		.loc 1 41 10 is_stmt 1 view .LVU2902
 11085              	.LBB3407:
 11086              		.loc 1 43 26 is_stmt 0 view .LVU2903
 11087 00d2 04F10805 		add	r5, r4, #8
 11088              	.LBE3407:
 11089              	.LBE3406:
 190:../../libdaisy/src/hid/disp/display.h ****         int_fast16_t error  = deltaX - deltaY;
 11090              		.loc 6 190 42 view .LVU2904
 11091 00d6 40F22B81 		bls	.L707
 11092              	.LVL725:
 11093              	.LBB3427:
 11094              	.LBB3420:
 11095              	.LBB3408:
 11096              	.LBI3408:
 239:../../libdaisy/src/dev/oled_ssd130x.h ****     {
 11097              		.loc 5 239 10 is_stmt 1 view .LVU2905
 11098              	.LBB3409:
 241:../../libdaisy/src/dev/oled_ssd130x.h ****             return;
ARM GAS  C:\Users\VINCIU~1\AppData\Local\Temp\ccdS0pnQ.s 			page 273


 11099              		.loc 5 241 9 is_stmt 0 view .LVU2906
 11100 00da B8F17F0F 		cmp	r8, #127
 11101              	.LBE3409:
 11102              	.LBE3408:
 11103              	.LBE3420:
 11104              	.LBE3427:
 189:../../libdaisy/src/hid/disp/display.h ****         int_fast16_t signY  = ((y1 < y2) ? 1 : -1);
 11105              		.loc 6 189 42 view .LVU2907
 11106 00de CDF81C90 		str	r9, [sp, #28]
 11107              	.LBB3428:
 11108              	.LBB3421:
 11109              	.LBB3414:
 11110              	.LBB3410:
 241:../../libdaisy/src/dev/oled_ssd130x.h ****             return;
 11111              		.loc 5 241 9 view .LVU2908
 11112 00e2 40F28480 		bls	.L719
 11113              	.LBE3410:
 11114              	.LBE3414:
 11115              	.LBE3421:
 11116              	.LBE3428:
 190:../../libdaisy/src/hid/disp/display.h ****         int_fast16_t error  = deltaX - deltaY;
 11117              		.loc 6 190 42 view .LVU2909
 11118 00e6 4FF0FF33 		mov	r3, #-1
 11119              	.LVL726:
 190:../../libdaisy/src/hid/disp/display.h ****         int_fast16_t error  = deltaX - deltaY;
 11120              		.loc 6 190 42 view .LVU2910
 11121 00ea 0693     		str	r3, [sp, #24]
 11122 00ec 8FE0     		b	.L708
 11123              	.LVL727:
 11124              	.L757:
 190:../../libdaisy/src/hid/disp/display.h ****         int_fast16_t error  = deltaX - deltaY;
 11125              		.loc 6 190 42 view .LVU2911
 11126              	.LBE3440:
 11127              	.LBE3444:
 582:Menus.cpp     ****         this->menuStateGlide = this->menuStateGlide + 1;
 11128              		.loc 2 582 9 is_stmt 1 view .LVU2912
 582:Menus.cpp     ****         this->menuStateGlide = this->menuStateGlide + 1;
 11129              		.loc 2 582 53 is_stmt 0 view .LVU2913
 11130 00ee 0133     		adds	r3, r3, #1
 583:Menus.cpp     ****         if(this->menuStateGlide > 1)
 11131              		.loc 2 583 9 view .LVU2914
 11132 00f0 012B     		cmp	r3, #1
 582:Menus.cpp     ****         this->menuStateGlide = this->menuStateGlide + 1;
 11133              		.loc 2 582 30 view .LVU2915
 11134 00f2 3367     		str	r3, [r6, #112]
 583:Menus.cpp     ****         if(this->menuStateGlide > 1)
 11135              		.loc 2 583 9 is_stmt 1 view .LVU2916
 11136 00f4 ACDD     		ble	.L685
 11137              	.L686:
 585:Menus.cpp     ****             this->menuStateGlide = 0;
 11138              		.loc 2 585 13 view .LVU2917
 585:Menus.cpp     ****             this->menuStateGlide = 0;
 11139              		.loc 2 585 34 is_stmt 0 view .LVU2918
 11140 00f6 0023     		movs	r3, #0
 11141 00f8 3367     		str	r3, [r6, #112]
 588:Menus.cpp     ****     if(this->menuStateGlide == 0)
 11142              		.loc 2 588 5 is_stmt 1 view .LVU2919
ARM GAS  C:\Users\VINCIU~1\AppData\Local\Temp\ccdS0pnQ.s 			page 274


 11143              	.L684:
 11144              	.LBB3445:
 11145              	.LBB3341:
 590:Menus.cpp     ****         if(this->glideInit > 100)
 11146              		.loc 2 590 9 view .LVU2920
 590:Menus.cpp     ****         if(this->glideInit > 100)
 11147              		.loc 2 590 18 is_stmt 0 view .LVU2921
 11148 00fa D6F89030 		ldr	r3, [r6, #144]
 590:Menus.cpp     ****         if(this->glideInit > 100)
 11149              		.loc 2 590 9 view .LVU2922
 11150 00fe 642B     		cmp	r3, #100
 11151 0100 66DC     		bgt	.L720
 594:Menus.cpp     ****         if(this->glideInit < -100)
 11152              		.loc 2 594 9 is_stmt 1 view .LVU2923
 11153 0102 13F1640F 		cmn	r3, #100
 11154 0106 80F2DD81 		bge	.L758
 11155 010a DFED957A 		vldr.32	s15, .L760+12
 11156 010e 6FF06303 		mvn	r3, #99
 11157              	.L688:
 599:Menus.cpp     ****         int glideScale;
 11158              		.loc 2 599 9 view .LVU2924
 600:Menus.cpp     ****         glideScale = screen.Height() - ((this->glideInit + 212) * 0.15);
 11159              		.loc 2 600 9 view .LVU2925
 11160              	.LVL728:
 601:Menus.cpp     ****         this->glideInit += this->encoderRight.Increment();
 11161              		.loc 2 601 9 view .LVU2926
 11162              	.LBB3286:
 11163              	.LBI3286:
  41:../../libdaisy/src/hid/encoder.h ****     /** Returns true if the encoder was just pressed.
 11164              		.loc 3 41 20 view .LVU2927
 11165              	.LBB3287:
  41:../../libdaisy/src/hid/encoder.h ****     /** Returns true if the encoder was just pressed.
 11166              		.loc 3 41 40 view .LVU2928
  41:../../libdaisy/src/hid/encoder.h ****     /** Returns true if the encoder was just pressed.
 11167              		.loc 3 41 40 is_stmt 0 view .LVU2929
 11168              	.LBE3287:
 11169              	.LBE3286:
 601:Menus.cpp     ****         this->glideInit += this->encoderRight.Increment();
 11170              		.loc 2 601 25 view .LVU2930
 11171 0112 B26C     		ldr	r2, [r6, #72]
 604:Menus.cpp     ****         sprintf(this->buffPitchGlide, "Init_%d%%", this->glideInit);
 11172              		.loc 2 604 23 view .LVU2931
 11173 0114 06F58275 		add	r5, r6, #260
 604:Menus.cpp     ****         sprintf(this->buffPitchGlide, "Init_%d%%", this->glideInit);
 11174              		.loc 2 604 16 view .LVU2932
 11175 0118 9249     		ldr	r1, .L760+16
 601:Menus.cpp     ****         this->glideInit += this->encoderRight.Increment();
 11176              		.loc 2 601 25 view .LVU2933
 11177 011a 1A44     		add	r2, r2, r3
 604:Menus.cpp     ****         sprintf(this->buffPitchGlide, "Init_%d%%", this->glideInit);
 11178              		.loc 2 604 16 view .LVU2934
 11179 011c 2846     		mov	r0, r5
 602:Menus.cpp     ****         circleGlidePosition = glideScale;
 11180              		.loc 2 602 29 view .LVU2935
 11181 011e C6ED227A 		vstr.32	s15, [r6, #136]
 601:Menus.cpp     ****         this->glideInit += this->encoderRight.Increment();
 11182              		.loc 2 601 25 view .LVU2936
ARM GAS  C:\Users\VINCIU~1\AppData\Local\Temp\ccdS0pnQ.s 			page 275


 11183 0122 C6F89020 		str	r2, [r6, #144]
 11184              	.LVL729:
 602:Menus.cpp     ****         circleGlidePosition = glideScale;
 11185              		.loc 2 602 9 is_stmt 1 view .LVU2937
 604:Menus.cpp     ****         sprintf(this->buffPitchGlide, "Init_%d%%", this->glideInit);
 11186              		.loc 2 604 9 view .LVU2938
 604:Menus.cpp     ****         sprintf(this->buffPitchGlide, "Init_%d%%", this->glideInit);
 11187              		.loc 2 604 16 is_stmt 0 view .LVU2939
 11188 0126 FFF7FEFF 		bl	sprintf
 11189              	.LVL730:
 609:Menus.cpp     ****         screen.DrawRect(0, 0, 66, 13, true, false);
 11190              		.loc 2 609 9 is_stmt 1 view .LVU2940
 11191              	.LBB3288:
 11192              	.LBI3288:
 217:../../libdaisy/src/hid/disp/display.h ****                   uint_fast8_t y1,
 11193              		.loc 6 217 10 view .LVU2941
 11194              	.LBB3289:
 11195              	.LBI3289:
 181:../../libdaisy/src/hid/disp/display.h ****                   uint_fast8_t y1,
 11196              		.loc 6 181 10 view .LVU2942
 11197              	.LBB3290:
 11198              	.LBB3291:
 11199              	.LBI3291:
  41:../../libdaisy/src/hid/disp/oled_display.h ****     {
 11200              		.loc 1 41 10 view .LVU2943
 11201              	.LBB3292:
 11202              	.LBI3292:
 239:../../libdaisy/src/dev/oled_ssd130x.h ****     {
 11203              		.loc 5 239 10 view .LVU2944
 11204              	.LBB3293:
 244:../../libdaisy/src/dev/oled_ssd130x.h ****         else
 11205              		.loc 5 244 42 is_stmt 0 view .LVU2945
 11206 012a 94F85620 		ldrb	r2, [r4, #86]	@ zero_extendqisi2
 11207 012e 04F11303 		add	r3, r4, #19
 11208 0132 04F15501 		add	r1, r4, #85
 11209 0136 42F00102 		orr	r2, r2, #1
 11210 013a 84F85620 		strb	r2, [r4, #86]
 11211              	.LVL731:
 244:../../libdaisy/src/dev/oled_ssd130x.h ****         else
 11212              		.loc 5 244 42 view .LVU2946
 11213              	.LBE3293:
 11214              	.LBE3292:
 11215              	.LBE3291:
 199:../../libdaisy/src/hid/disp/display.h ****         {
 11216              		.loc 6 199 26 is_stmt 1 view .LVU2947
 11217              	.L689:
 11218              	.LBB3294:
 11219              	.LBI3294:
  41:../../libdaisy/src/hid/disp/oled_display.h ****     {
 11220              		.loc 1 41 10 view .LVU2948
 11221              	.LBB3295:
 11222              	.LBI3295:
 239:../../libdaisy/src/dev/oled_ssd130x.h ****     {
 11223              		.loc 5 239 10 view .LVU2949
 11224              	.LBB3296:
 244:../../libdaisy/src/dev/oled_ssd130x.h ****         else
 11225              		.loc 5 244 42 is_stmt 0 view .LVU2950
ARM GAS  C:\Users\VINCIU~1\AppData\Local\Temp\ccdS0pnQ.s 			page 276


 11226 013e 13F8012F 		ldrb	r2, [r3, #1]!	@ zero_extendqisi2
 244:../../libdaisy/src/dev/oled_ssd130x.h ****         else
 11227              		.loc 5 244 42 view .LVU2951
 11228 0142 42F00102 		orr	r2, r2, #1
 11229              	.LBE3296:
 11230              	.LBE3295:
 11231              	.LBE3294:
 199:../../libdaisy/src/hid/disp/display.h ****         {
 11232              		.loc 6 199 26 view .LVU2952
 11233 0146 9942     		cmp	r1, r3
 11234              	.LBB3299:
 11235              	.LBB3298:
 11236              	.LBB3297:
 244:../../libdaisy/src/dev/oled_ssd130x.h ****         else
 11237              		.loc 5 244 42 view .LVU2953
 11238 0148 1A70     		strb	r2, [r3]
 11239              	.LVL732:
 244:../../libdaisy/src/dev/oled_ssd130x.h ****         else
 11240              		.loc 5 244 42 view .LVU2954
 11241              	.LBE3297:
 11242              	.LBE3298:
 11243              	.LBE3299:
 199:../../libdaisy/src/hid/disp/display.h ****         {
 11244              		.loc 6 199 26 is_stmt 1 view .LVU2955
 11245 014a F8D1     		bne	.L689
 11246              	.LVL733:
 199:../../libdaisy/src/hid/disp/display.h ****         {
 11247              		.loc 6 199 26 is_stmt 0 view .LVU2956
 11248              	.LBE3290:
 11249              	.LBE3289:
 11250              	.LBB3300:
 11251              	.LBI3300:
 181:../../libdaisy/src/hid/disp/display.h ****                   uint_fast8_t y1,
 11252              		.loc 6 181 10 is_stmt 1 view .LVU2957
 11253              	.LBB3301:
 11254              	.LBB3302:
 11255              	.LBI3302:
  41:../../libdaisy/src/hid/disp/oled_display.h ****     {
 11256              		.loc 1 41 10 view .LVU2958
 11257              	.LBB3303:
 11258              	.LBI3303:
 239:../../libdaisy/src/dev/oled_ssd130x.h ****     {
 11259              		.loc 5 239 10 view .LVU2959
 11260              	.LBB3304:
 244:../../libdaisy/src/dev/oled_ssd130x.h ****         else
 11261              		.loc 5 244 42 is_stmt 0 view .LVU2960
 11262 014c 94F8D620 		ldrb	r2, [r4, #214]	@ zero_extendqisi2
 11263 0150 0023     		movs	r3, #0
 11264 0152 42F02002 		orr	r2, r2, #32
 11265 0156 84F8D620 		strb	r2, [r4, #214]
 11266              	.LVL734:
 244:../../libdaisy/src/dev/oled_ssd130x.h ****         else
 11267              		.loc 5 244 42 view .LVU2961
 11268              	.LBE3304:
 11269              	.LBE3303:
 11270              	.LBE3302:
 199:../../libdaisy/src/hid/disp/display.h ****         {
ARM GAS  C:\Users\VINCIU~1\AppData\Local\Temp\ccdS0pnQ.s 			page 277


 11271              		.loc 6 199 26 is_stmt 1 view .LVU2962
 11272              	.L690:
 11273              	.LBB3305:
 11274              	.LBI3305:
  41:../../libdaisy/src/hid/disp/oled_display.h ****     {
 11275              		.loc 1 41 10 view .LVU2963
 11276              	.LBB3306:
 11277              	.LBI3306:
 239:../../libdaisy/src/dev/oled_ssd130x.h ****     {
 11278              		.loc 5 239 10 view .LVU2964
 11279              	.LBB3307:
 244:../../libdaisy/src/dev/oled_ssd130x.h ****         else
 11280              		.loc 5 244 28 is_stmt 0 view .LVU2965
 11281 015a D908     		lsrs	r1, r3, #3
 244:../../libdaisy/src/dev/oled_ssd130x.h ****         else
 11282              		.loc 5 244 54 view .LVU2966
 11283 015c 03F00700 		and	r0, r3, #7
 244:../../libdaisy/src/dev/oled_ssd130x.h ****         else
 11284              		.loc 5 244 48 view .LVU2967
 11285 0160 0122     		movs	r2, #1
 244:../../libdaisy/src/dev/oled_ssd130x.h ****         else
 11286              		.loc 5 244 42 view .LVU2968
 11287 0162 04EBC111 		add	r1, r4, r1, lsl #7
 11288              	.LBE3307:
 11289              	.LBE3306:
 11290              	.LBE3305:
 212:../../libdaisy/src/hid/disp/display.h ****             }
 11291              		.loc 6 212 20 view .LVU2969
 11292 0166 1344     		add	r3, r3, r2
 11293              	.LVL735:
 11294              	.LBB3312:
 11295              	.LBB3310:
 11296              	.LBB3308:
 244:../../libdaisy/src/dev/oled_ssd130x.h ****         else
 11297              		.loc 5 244 48 view .LVU2970
 11298 0168 8240     		lsls	r2, r2, r0
 244:../../libdaisy/src/dev/oled_ssd130x.h ****         else
 11299              		.loc 5 244 42 view .LVU2971
 11300 016a 91F85600 		ldrb	r0, [r1, #86]	@ zero_extendqisi2
 11301              	.LBE3308:
 11302              	.LBE3310:
 11303              	.LBE3312:
 199:../../libdaisy/src/hid/disp/display.h ****         {
 11304              		.loc 6 199 26 view .LVU2972
 11305 016e 0D2B     		cmp	r3, #13
 11306              	.LBB3313:
 11307              	.LBB3311:
 11308              	.LBB3309:
 244:../../libdaisy/src/dev/oled_ssd130x.h ****         else
 11309              		.loc 5 244 42 view .LVU2973
 11310 0170 42EA0002 		orr	r2, r2, r0
 11311 0174 81F85620 		strb	r2, [r1, #86]
 11312              	.LVL736:
 244:../../libdaisy/src/dev/oled_ssd130x.h ****         else
 11313              		.loc 5 244 42 view .LVU2974
 11314              	.LBE3309:
 11315              	.LBE3311:
ARM GAS  C:\Users\VINCIU~1\AppData\Local\Temp\ccdS0pnQ.s 			page 278


 11316              	.LBE3313:
 199:../../libdaisy/src/hid/disp/display.h ****         {
 11317              		.loc 6 199 26 is_stmt 1 view .LVU2975
 11318 0178 EFD1     		bne	.L690
 11319              	.LVL737:
 199:../../libdaisy/src/hid/disp/display.h ****         {
 11320              		.loc 6 199 26 is_stmt 0 view .LVU2976
 11321              	.LBE3301:
 11322              	.LBE3300:
 11323              	.LBB3314:
 11324              	.LBI3314:
 181:../../libdaisy/src/hid/disp/display.h ****                   uint_fast8_t y1,
 11325              		.loc 6 181 10 is_stmt 1 view .LVU2977
 11326              	.LBB3315:
 11327              	.LBB3316:
 11328              	.LBI3316:
  41:../../libdaisy/src/hid/disp/oled_display.h ****     {
 11329              		.loc 1 41 10 view .LVU2978
 11330              	.LBB3317:
 11331              	.LBI3317:
 239:../../libdaisy/src/dev/oled_ssd130x.h ****     {
 11332              		.loc 5 239 10 view .LVU2979
 11333              	.LBB3318:
 244:../../libdaisy/src/dev/oled_ssd130x.h ****         else
 11334              		.loc 5 244 42 is_stmt 0 view .LVU2980
 11335 017a 94F89420 		ldrb	r2, [r4, #148]	@ zero_extendqisi2
 11336 017e 04F1D701 		add	r1, r4, #215
 11337 0182 04F19507 		add	r7, r4, #149
 11338 0186 42F02002 		orr	r2, r2, #32
 11339 018a 84F89420 		strb	r2, [r4, #148]
 11340              	.LVL738:
 244:../../libdaisy/src/dev/oled_ssd130x.h ****         else
 11341              		.loc 5 244 42 view .LVU2981
 11342              	.LBE3318:
 11343              	.LBE3317:
 11344              	.LBE3316:
 199:../../libdaisy/src/hid/disp/display.h ****         {
 11345              		.loc 6 199 26 is_stmt 1 view .LVU2982
 11346              	.L691:
 11347              	.LBB3319:
 11348              	.LBI3319:
  41:../../libdaisy/src/hid/disp/oled_display.h ****     {
 11349              		.loc 1 41 10 view .LVU2983
 11350              	.LBB3320:
 11351              	.LBI3320:
 239:../../libdaisy/src/dev/oled_ssd130x.h ****     {
 11352              		.loc 5 239 10 view .LVU2984
 11353              	.LBB3321:
 244:../../libdaisy/src/dev/oled_ssd130x.h ****         else
 11354              		.loc 5 244 42 is_stmt 0 view .LVU2985
 11355 018e 11F8010D 		ldrb	r0, [r1, #-1]!	@ zero_extendqisi2
 244:../../libdaisy/src/dev/oled_ssd130x.h ****         else
 11356              		.loc 5 244 42 view .LVU2986
 11357 0192 40F02000 		orr	r0, r0, #32
 11358              	.LBE3321:
 11359              	.LBE3320:
 11360              	.LBE3319:
ARM GAS  C:\Users\VINCIU~1\AppData\Local\Temp\ccdS0pnQ.s 			page 279


 199:../../libdaisy/src/hid/disp/display.h ****         {
 11361              		.loc 6 199 26 view .LVU2987
 11362 0196 8F42     		cmp	r7, r1
 11363              	.LBB3324:
 11364              	.LBB3323:
 11365              	.LBB3322:
 244:../../libdaisy/src/dev/oled_ssd130x.h ****         else
 11366              		.loc 5 244 42 view .LVU2988
 11367 0198 0870     		strb	r0, [r1]
 11368              	.LVL739:
 244:../../libdaisy/src/dev/oled_ssd130x.h ****         else
 11369              		.loc 5 244 42 view .LVU2989
 11370              	.LBE3322:
 11371              	.LBE3323:
 11372              	.LBE3324:
 199:../../libdaisy/src/hid/disp/display.h ****         {
 11373              		.loc 6 199 26 is_stmt 1 view .LVU2990
 11374 019a F8D1     		bne	.L691
 11375              	.LVL740:
 199:../../libdaisy/src/hid/disp/display.h ****         {
 11376              		.loc 6 199 26 is_stmt 0 view .LVU2991
 11377              	.LBE3315:
 11378              	.LBE3314:
 11379              	.LBB3325:
 11380              	.LBI3325:
 181:../../libdaisy/src/hid/disp/display.h ****                   uint_fast8_t y1,
 11381              		.loc 6 181 10 is_stmt 1 view .LVU2992
 11382              	.LBB3326:
 11383              	.LBB3327:
 11384              	.LBI3327:
  41:../../libdaisy/src/hid/disp/oled_display.h ****     {
 11385              		.loc 1 41 10 view .LVU2993
 11386              	.LBB3328:
 11387              	.LBI3328:
 239:../../libdaisy/src/dev/oled_ssd130x.h ****     {
 11388              		.loc 5 239 10 view .LVU2994
 11389              	.LBB3329:
 244:../../libdaisy/src/dev/oled_ssd130x.h ****         else
 11390              		.loc 5 244 42 is_stmt 0 view .LVU2995
 11391 019c 217D     		ldrb	r1, [r4, #20]	@ zero_extendqisi2
 11392 019e 0120     		movs	r0, #1
 11393 01a0 41F00101 		orr	r1, r1, #1
 11394 01a4 2175     		strb	r1, [r4, #20]
 11395              	.LVL741:
 244:../../libdaisy/src/dev/oled_ssd130x.h ****         else
 11396              		.loc 5 244 42 view .LVU2996
 11397              	.LBE3329:
 11398              	.LBE3328:
 11399              	.LBE3327:
 199:../../libdaisy/src/hid/disp/display.h ****         {
 11400              		.loc 6 199 26 is_stmt 1 view .LVU2997
 11401 01a6 02E0     		b	.L693
 11402              	.LVL742:
 11403              	.L759:
 11404              	.LBB3330:
 11405              	.LBB3331:
 11406              	.LBB3332:
ARM GAS  C:\Users\VINCIU~1\AppData\Local\Temp\ccdS0pnQ.s 			page 280


 244:../../libdaisy/src/dev/oled_ssd130x.h ****         else
 11407              		.loc 5 244 42 is_stmt 0 view .LVU2998
 11408 01a8 04EBC012 		add	r2, r4, r0, lsl #7
 11409 01ac 127D     		ldrb	r2, [r2, #20]	@ zero_extendqisi2
 11410              	.LVL743:
 11411              	.L693:
 244:../../libdaisy/src/dev/oled_ssd130x.h ****         else
 11412              		.loc 5 244 42 view .LVU2999
 11413              	.LBE3332:
 11414              	.LBE3331:
 11415              	.LBI3330:
  41:../../libdaisy/src/hid/disp/oled_display.h ****     {
 11416              		.loc 1 41 10 is_stmt 1 view .LVU3000
 11417              	.LBB3336:
 11418              	.LBI3331:
 239:../../libdaisy/src/dev/oled_ssd130x.h ****     {
 11419              		.loc 5 239 10 view .LVU3001
 11420              	.LBB3333:
 244:../../libdaisy/src/dev/oled_ssd130x.h ****         else
 11421              		.loc 5 244 54 is_stmt 0 view .LVU3002
 11422 01ae 03F00707 		and	r7, r3, #7
 244:../../libdaisy/src/dev/oled_ssd130x.h ****         else
 11423              		.loc 5 244 48 view .LVU3003
 11424 01b2 0121     		movs	r1, #1
 244:../../libdaisy/src/dev/oled_ssd130x.h ****         else
 11425              		.loc 5 244 42 view .LVU3004
 11426 01b4 04EBC010 		add	r0, r4, r0, lsl #7
 11427              	.LBE3333:
 11428              	.LBE3336:
 11429              	.LBE3330:
 199:../../libdaisy/src/hid/disp/display.h ****         {
 11430              		.loc 6 199 26 view .LVU3005
 11431 01b8 013B     		subs	r3, r3, #1
 11432              	.LVL744:
 11433              	.LBB3339:
 11434              	.LBB3337:
 11435              	.LBB3334:
 244:../../libdaisy/src/dev/oled_ssd130x.h ****         else
 11436              		.loc 5 244 48 view .LVU3006
 11437 01ba 01FA07F1 		lsl	r1, r1, r7
 244:../../libdaisy/src/dev/oled_ssd130x.h ****         else
 11438              		.loc 5 244 42 view .LVU3007
 11439 01be 42EA0102 		orr	r2, r2, r1
 11440 01c2 0275     		strb	r2, [r0, #20]
 11441              	.LVL745:
 244:../../libdaisy/src/dev/oled_ssd130x.h ****         else
 11442              		.loc 5 244 42 view .LVU3008
 11443              	.LBE3334:
 11444              	.LBE3337:
 11445              	.LBE3339:
 199:../../libdaisy/src/hid/disp/display.h ****         {
 11446              		.loc 6 199 26 is_stmt 1 view .LVU3009
 11447              	.LBB3340:
 11448              	.LBB3338:
 11449              	.LBB3335:
 244:../../libdaisy/src/dev/oled_ssd130x.h ****         else
 11450              		.loc 5 244 28 is_stmt 0 view .LVU3010
ARM GAS  C:\Users\VINCIU~1\AppData\Local\Temp\ccdS0pnQ.s 			page 281


 11451 01c4 4FEAD300 		lsr	r0, r3, #3
 11452              	.LBE3335:
 11453              	.LBE3338:
 11454              	.LBE3340:
 199:../../libdaisy/src/hid/disp/display.h ****         {
 11455              		.loc 6 199 26 view .LVU3011
 11456 01c8 EED1     		bne	.L759
 11457              	.LBE3326:
 11458              	.LBE3325:
 11459              	.LBE3288:
 11460              	.LBE3341:
 640:Menus.cpp     ****         sprintf(this->buffPitchTime, "Time_%d%%", (int)this->glideTime);
 11461              		.loc 2 640 23 view .LVU3012
 11462 01ca 06F58E77 		add	r7, r6, #284
 11463 01ce 48E7     		b	.L694
 11464              	.LVL746:
 11465              	.L720:
 11466              	.LBB3342:
 640:Menus.cpp     ****         sprintf(this->buffPitchTime, "Time_%d%%", (int)this->glideTime);
 11467              		.loc 2 640 23 view .LVU3013
 11468 01d0 F3EE017A 		vmov.f32	s15, #1.7e+1
 11469 01d4 6423     		movs	r3, #100
 11470 01d6 9CE7     		b	.L688
 11471              	.LVL747:
 11472              	.L706:
 640:Menus.cpp     ****         sprintf(this->buffPitchTime, "Time_%d%%", (int)this->glideTime);
 11473              		.loc 2 640 23 view .LVU3014
 11474              	.LBE3342:
 11475              	.LBE3445:
 11476              	.LBB3446:
 11477              	.LBB3441:
 190:../../libdaisy/src/hid/disp/display.h ****         int_fast16_t error  = deltaX - deltaY;
 11478              		.loc 6 190 42 view .LVU3015
 11479 01d8 059B     		ldr	r3, [sp, #20]
 11480              	.LVL748:
 190:../../libdaisy/src/hid/disp/display.h ****         int_fast16_t error  = deltaX - deltaY;
 11481              		.loc 6 190 42 view .LVU3016
 11482 01da 1F2B     		cmp	r3, #31
 11483 01dc 40F2AF80 		bls	.L718
 11484              	.LVL749:
 189:../../libdaisy/src/hid/disp/display.h ****         int_fast16_t signY  = ((y1 < y2) ? 1 : -1);
 11485              		.loc 6 189 42 view .LVU3017
 11486 01e0 4FF0FF33 		mov	r3, #-1
 191:../../libdaisy/src/hid/disp/display.h ****         int_fast16_t error2;
 11487              		.loc 6 191 22 view .LVU3018
 11488 01e4 A7EB0A01 		sub	r1, r7, r10
 11489              	.LVL750:
 11490              	.LBB3429:
  41:../../libdaisy/src/hid/disp/oled_display.h ****     {
 11491              		.loc 1 41 10 is_stmt 1 view .LVU3019
 11492              	.LBB3422:
 11493              		.loc 1 43 26 is_stmt 0 view .LVU3020
 11494 01e8 04F10805 		add	r5, r4, #8
 11495              	.LVL751:
 11496              	.LBB3415:
 239:../../libdaisy/src/dev/oled_ssd130x.h ****     {
 11497              		.loc 5 239 10 is_stmt 1 view .LVU3021
ARM GAS  C:\Users\VINCIU~1\AppData\Local\Temp\ccdS0pnQ.s 			page 282


 11498              	.LBE3415:
 11499              	.LBE3422:
 11500              	.LBE3429:
 189:../../libdaisy/src/hid/disp/display.h ****         int_fast16_t signY  = ((y1 < y2) ? 1 : -1);
 11501              		.loc 6 189 42 is_stmt 0 view .LVU3022
 11502 01ec 0793     		str	r3, [sp, #28]
 11503              	.LVL752:
 11504              	.L719:
 190:../../libdaisy/src/hid/disp/display.h ****         int_fast16_t error  = deltaX - deltaY;
 11505              		.loc 6 190 42 view .LVU3023
 11506 01ee 4FF0FF33 		mov	r3, #-1
 11507 01f2 0693     		str	r3, [sp, #24]
 11508              	.LVL753:
 11509              	.L717:
 11510              	.LBB3430:
 11511              	.LBB3423:
 11512              	.LBB3416:
 11513              	.LBB3411:
 244:../../libdaisy/src/dev/oled_ssd130x.h ****         else
 11514              		.loc 5 244 42 view .LVU3024
 11515 01f4 08F50073 		add	r3, r8, #512
 11516 01f8 2344     		add	r3, r3, r4
 11517 01fa 1A7D     		ldrb	r2, [r3, #20]	@ zero_extendqisi2
 11518 01fc 42F00102 		orr	r2, r2, #1
 11519 0200 1A75     		strb	r2, [r3, #20]
 11520              	.LVL754:
 244:../../libdaisy/src/dev/oled_ssd130x.h ****         else
 11521              		.loc 5 244 42 view .LVU3025
 11522              	.LBE3411:
 11523              	.LBE3416:
 11524              	.LBE3423:
 11525              	.LBE3430:
 199:../../libdaisy/src/hid/disp/display.h ****         {
 11526              		.loc 6 199 26 is_stmt 1 view .LVU3026
 11527 0202 059B     		ldr	r3, [sp, #20]
 11528 0204 202B     		cmp	r3, #32
 11529 0206 02D1     		bne	.L708
 199:../../libdaisy/src/hid/disp/display.h ****         {
 11530              		.loc 6 199 26 is_stmt 0 view .LVU3027
 11531 0208 B8F10A0F 		cmp	r8, #10
 11532 020c 2AD0     		beq	.L709
 11533              	.L708:
 11534              	.LVL755:
 203:../../libdaisy/src/hid/disp/display.h ****             {
 11535              		.loc 6 203 23 view .LVU3028
 11536 020e CAF10009 		rsb	r9, r10, #0
 11537              	.LBE3441:
 11538              	.LBE3446:
 648:Menus.cpp     ****     screen.DrawLine(margin,
 11539              		.loc 2 648 20 view .LVU3029
 11540 0212 059A     		ldr	r2, [sp, #20]
 11541              	.LBB3447:
 11542              	.LBB3442:
 203:../../libdaisy/src/hid/disp/display.h ****             {
 11543              		.loc 6 203 23 view .LVU3030
 11544 0214 4FF00A0C 		mov	ip, #10
 11545              	.L712:
ARM GAS  C:\Users\VINCIU~1\AppData\Local\Temp\ccdS0pnQ.s 			page 283


 11546              	.LVL756:
 11547              	.LBB3431:
 11548              	.LBI3431:
  41:../../libdaisy/src/hid/disp/oled_display.h ****     {
 11549              		.loc 1 41 10 is_stmt 1 view .LVU3031
 11550              	.LBB3432:
 11551              	.LBI3432:
 239:../../libdaisy/src/dev/oled_ssd130x.h ****     {
 11552              		.loc 5 239 10 view .LVU3032
 11553              	.LBB3433:
 244:../../libdaisy/src/dev/oled_ssd130x.h ****         else
 11554              		.loc 5 244 48 is_stmt 0 view .LVU3033
 11555 0218 4FF0010B 		mov	fp, #1
 244:../../libdaisy/src/dev/oled_ssd130x.h ****         else
 11556              		.loc 5 244 28 view .LVU3034
 11557 021c D308     		lsrs	r3, r2, #3
 244:../../libdaisy/src/dev/oled_ssd130x.h ****         else
 11558              		.loc 5 244 54 view .LVU3035
 11559 021e 02F00700 		and	r0, r2, #7
 241:../../libdaisy/src/dev/oled_ssd130x.h ****             return;
 11560              		.loc 5 241 9 view .LVU3036
 11561 0222 BCF17F0F 		cmp	ip, #127
 244:../../libdaisy/src/dev/oled_ssd130x.h ****         else
 11562              		.loc 5 244 42 view .LVU3037
 11563 0226 0CEBC313 		add	r3, ip, r3, lsl #7
 11564              	.LBE3433:
 11565              	.LBE3432:
 11566              	.LBE3431:
 202:../../libdaisy/src/hid/disp/display.h ****             if(error2 > -deltaY)
 11567              		.loc 6 202 20 view .LVU3038
 11568 022a 01FA0BFE 		lsl	lr, r1, fp
 11569              	.LVL757:
 11570              	.LBB3436:
 11571              	.LBB3435:
 11572              	.LBB3434:
 244:../../libdaisy/src/dev/oled_ssd130x.h ****         else
 11573              		.loc 5 244 48 view .LVU3039
 11574 022e 0BFA00F0 		lsl	r0, fp, r0
 241:../../libdaisy/src/dev/oled_ssd130x.h ****             return;
 11575              		.loc 5 241 9 view .LVU3040
 11576 0232 07D8     		bhi	.L713
 11577 0234 3F2A     		cmp	r2, #63
 244:../../libdaisy/src/dev/oled_ssd130x.h ****         else
 11578              		.loc 5 244 42 view .LVU3041
 11579 0236 2344     		add	r3, r3, r4
 241:../../libdaisy/src/dev/oled_ssd130x.h ****             return;
 11580              		.loc 5 241 9 view .LVU3042
 11581 0238 04D8     		bhi	.L713
 244:../../libdaisy/src/dev/oled_ssd130x.h ****         else
 11582              		.loc 5 244 42 view .LVU3043
 11583 023a 93F814B0 		ldrb	fp, [r3, #20]	@ zero_extendqisi2
 11584 023e 40EA0B00 		orr	r0, r0, fp
 11585 0242 1875     		strb	r0, [r3, #20]
 11586              	.L713:
 244:../../libdaisy/src/dev/oled_ssd130x.h ****         else
 11587              		.loc 5 244 42 view .LVU3044
 11588              	.LBE3434:
ARM GAS  C:\Users\VINCIU~1\AppData\Local\Temp\ccdS0pnQ.s 			page 284


 11589              	.LBE3435:
 11590              	.LBE3436:
 203:../../libdaisy/src/hid/disp/display.h ****             {
 11591              		.loc 6 203 13 view .LVU3045
 11592 0244 B9EB410F 		cmp	r9, r1, lsl #1
 11593 0248 03DA     		bge	.L714
 206:../../libdaisy/src/hid/disp/display.h ****             }
 11594              		.loc 6 206 20 view .LVU3046
 11595 024a 079B     		ldr	r3, [sp, #28]
 205:../../libdaisy/src/hid/disp/display.h ****                 x1 += signX;
 11596              		.loc 6 205 23 view .LVU3047
 11597 024c A1EB0A01 		sub	r1, r1, r10
 11598              	.LVL758:
 206:../../libdaisy/src/hid/disp/display.h ****             }
 11599              		.loc 6 206 20 view .LVU3048
 11600 0250 9C44     		add	ip, ip, r3
 11601              	.LVL759:
 11602              	.L714:
 209:../../libdaisy/src/hid/disp/display.h ****             {
 11603              		.loc 6 209 13 view .LVU3049
 11604 0252 7745     		cmp	r7, lr
 11605 0254 02DD     		ble	.L715
 212:../../libdaisy/src/hid/disp/display.h ****             }
 11606              		.loc 6 212 20 view .LVU3050
 11607 0256 069B     		ldr	r3, [sp, #24]
 211:../../libdaisy/src/hid/disp/display.h ****                 y1 += signY;
 11608              		.loc 6 211 23 view .LVU3051
 11609 0258 3944     		add	r1, r1, r7
 11610              	.LVL760:
 212:../../libdaisy/src/hid/disp/display.h ****             }
 11611              		.loc 6 212 20 view .LVU3052
 11612 025a 1A44     		add	r2, r2, r3
 11613              	.LVL761:
 11614              	.L715:
 199:../../libdaisy/src/hid/disp/display.h ****         {
 11615              		.loc 6 199 26 is_stmt 1 view .LVU3053
 11616 025c E045     		cmp	r8, ip
 11617 025e DBD1     		bne	.L712
 199:../../libdaisy/src/hid/disp/display.h ****         {
 11618              		.loc 6 199 26 is_stmt 0 view .LVU3054
 11619 0260 202A     		cmp	r2, #32
 11620 0262 D9D1     		bne	.L712
 11621              	.LVL762:
 11622              	.L709:
 199:../../libdaisy/src/hid/disp/display.h ****         {
 11623              		.loc 6 199 26 view .LVU3055
 11624              	.LBE3442:
 11625              	.LBE3447:
 653:Menus.cpp     ****     screen.DrawCircle(margin, circleGlidePosition, 3, true);
 11626              		.loc 2 653 5 is_stmt 1 view .LVU3056
 11627              	.LBB3448:
 11628              	.LBI3448:
 100:../../libdaisy/src/hid/disp/display.h ****     {
 11629              		.loc 6 100 5 view .LVU3057
 11630              	.LBB3449:
 102:../../libdaisy/src/hid/disp/display.h ****     };
 11631              		.loc 6 102 9 view .LVU3058
ARM GAS  C:\Users\VINCIU~1\AppData\Local\Temp\ccdS0pnQ.s 			page 285


 102:../../libdaisy/src/hid/disp/display.h ****     };
 11632              		.loc 6 102 41 is_stmt 0 view .LVU3059
 11633 0264 2368     		ldr	r3, [r4]
 102:../../libdaisy/src/hid/disp/display.h ****     };
 11634              		.loc 6 102 16 view .LVU3060
 11635 0266 4FF00109 		mov	r9, #1
 11636 026a 0027     		movs	r7, #0
 11637 026c 4FF4B478 		mov	r8, #360
 11638 0270 2046     		mov	r0, r4
 11639 0272 059A     		ldr	r2, [sp, #20]
 11640 0274 0097     		str	r7, [sp]
 11641 0276 0A21     		movs	r1, #10
 11642 0278 CDE90189 		strd	r8, r9, [sp, #4]
 11643 027c D3F820A0 		ldr	r10, [r3, #32]
 11644 0280 0323     		movs	r3, #3
 11645 0282 D047     		blx	r10
 11646              	.LVL763:
 102:../../libdaisy/src/hid/disp/display.h ****     };
 11647              		.loc 6 102 16 view .LVU3061
 11648              	.LBE3449:
 11649              	.LBE3448:
 654:Menus.cpp     ****     screen.DrawCircle(circleGlideTimePosition, screen.Height() / 2, 3, true);
 11650              		.loc 2 654 5 is_stmt 1 view .LVU3062
 11651              	.LBB3450:
 11652              	.LBI3450:
 100:../../libdaisy/src/hid/disp/display.h ****     {
 11653              		.loc 6 100 5 view .LVU3063
 11654              	.LBB3451:
 102:../../libdaisy/src/hid/disp/display.h ****     };
 11655              		.loc 6 102 9 view .LVU3064
 11656              	.LBE3451:
 11657              	.LBE3450:
 654:Menus.cpp     ****     screen.DrawCircle(circleGlideTimePosition, screen.Height() / 2, 3, true);
 11658              		.loc 2 654 22 is_stmt 0 view .LVU3065
 11659 0284 D6ED237A 		vldr.32	s15, [r6, #140]
 11660              	.LBB3454:
 11661              	.LBB3452:
 102:../../libdaisy/src/hid/disp/display.h ****     };
 11662              		.loc 6 102 16 view .LVU3066
 11663 0288 0097     		str	r7, [sp]
 11664              	.LVL764:
 102:../../libdaisy/src/hid/disp/display.h ****     };
 11665              		.loc 6 102 16 view .LVU3067
 11666 028a 2046     		mov	r0, r4
 11667 028c FCEEE77A 		vcvt.u32.f32	s15, s15
 11668              	.LVL765:
 102:../../libdaisy/src/hid/disp/display.h ****     };
 11669              		.loc 6 102 16 view .LVU3068
 11670 0290 0323     		movs	r3, #3
 11671 0292 2022     		movs	r2, #32
 11672              	.LBE3452:
 11673              	.LBE3454:
 11674              	.LBB3455:
 11675              	.LBB3456:
 11676              	.LBB3457:
 11677              	.LBB3458:
 11678              	.LBB3459:
ARM GAS  C:\Users\VINCIU~1\AppData\Local\Temp\ccdS0pnQ.s 			page 286


 111:../../libdaisy/src/dev/oled_ssd130x.h ****         spi_.BlockingTransmit(&cmd, 1);
 11679              		.loc 5 111 24 view .LVU3069
 11680 0294 05F10807 		add	r7, r5, #8
 11681              	.LBE3459:
 11682              	.LBE3458:
 11683              	.LBE3457:
 11684              	.LBE3456:
 11685              	.LBE3455:
 11686              	.LBB3479:
 11687              	.LBB3453:
 102:../../libdaisy/src/hid/disp/display.h ****     };
 11688              		.loc 6 102 16 view .LVU3070
 11689 0298 CDE90189 		strd	r8, r9, [sp, #4]
 102:../../libdaisy/src/hid/disp/display.h ****     };
 11690              		.loc 6 102 41 view .LVU3071
 11691 029c 2668     		ldr	r6, [r4]
 11692              	.LVL766:
 102:../../libdaisy/src/hid/disp/display.h ****     };
 11693              		.loc 6 102 16 view .LVU3072
 11694 029e 17EE901A 		vmov	r1, s15	@ int
 11695 02a2 05F20C49 		addw	r9, r5, #1036
 11696 02a6 346A     		ldr	r4, [r6, #32]
 11697              	.LVL767:
 102:../../libdaisy/src/hid/disp/display.h ****     };
 11698              		.loc 6 102 16 view .LVU3073
 11699 02a8 05F10C06 		add	r6, r5, #12
 11700 02ac A047     		blx	r4
 11701              	.LVL768:
 102:../../libdaisy/src/hid/disp/display.h ****     };
 11702              		.loc 6 102 16 view .LVU3074
 11703              	.LBE3453:
 11704              	.LBE3479:
 657:Menus.cpp     ****     screen.Update();
 11705              		.loc 2 657 5 is_stmt 1 view .LVU3075
 11706              	.LBB3480:
 11707              	.LBI3455:
  44:../../libdaisy/src/hid/disp/oled_display.h ****     }
  45:../../libdaisy/src/hid/disp/oled_display.h **** 
  46:../../libdaisy/src/hid/disp/oled_display.h ****     /** 
  47:../../libdaisy/src/hid/disp/oled_display.h ****     Writes the current display buffer to the OLED device using SPI or I2C depending on 
  48:../../libdaisy/src/hid/disp/oled_display.h ****     how the object was initialized.
  49:../../libdaisy/src/hid/disp/oled_display.h ****     */
  50:../../libdaisy/src/hid/disp/oled_display.h ****     void Update() override { driver_.Update(); }
 11708              		.loc 1 50 10 view .LVU3076
 11709              	.LBB3478:
 11710              	.LBI3456:
 260:../../libdaisy/src/dev/oled_ssd130x.h ****     {
 11711              		.loc 5 260 10 view .LVU3077
 11712              	.LBB3477:
 11713              		.loc 5 270 22 view .LVU3078
 11714              	.LBB3464:
 11715              	.LBB3460:
 111:../../libdaisy/src/dev/oled_ssd130x.h ****         spi_.BlockingTransmit(&cmd, 1);
 11716              		.loc 5 111 24 is_stmt 0 view .LVU3079
 11717 02ae B024     		movs	r4, #176
 11718              	.LVL769:
 11719              	.L716:
ARM GAS  C:\Users\VINCIU~1\AppData\Local\Temp\ccdS0pnQ.s 			page 287


 111:../../libdaisy/src/dev/oled_ssd130x.h ****         spi_.BlockingTransmit(&cmd, 1);
 11720              		.loc 5 111 24 view .LVU3080
 11721 02b0 4FF00008 		mov	r8, #0
 111:../../libdaisy/src/dev/oled_ssd130x.h ****         spi_.BlockingTransmit(&cmd, 1);
 11722              		.loc 5 111 23 view .LVU3081
 11723 02b4 3846     		mov	r0, r7
 11724 02b6 8DF82740 		strb	r4, [sp, #39]
 11725              	.LVL770:
 111:../../libdaisy/src/dev/oled_ssd130x.h ****         spi_.BlockingTransmit(&cmd, 1);
 11726              		.loc 5 111 23 view .LVU3082
 11727              	.LBE3460:
 11728              	.LBI3458:
 109:../../libdaisy/src/dev/oled_ssd130x.h ****     {
 11729              		.loc 5 109 10 is_stmt 1 view .LVU3083
 11730              	.LBB3461:
 111:../../libdaisy/src/dev/oled_ssd130x.h ****         spi_.BlockingTransmit(&cmd, 1);
 11731              		.loc 5 111 9 view .LVU3084
 11732              	.LBE3461:
 11733              	.LBE3464:
 11734              		.loc 5 270 22 is_stmt 0 view .LVU3085
 11735 02ba 0134     		adds	r4, r4, #1
 11736              	.LVL771:
 11737              	.LBB3465:
 11738              	.LBB3462:
 111:../../libdaisy/src/dev/oled_ssd130x.h ****         spi_.BlockingTransmit(&cmd, 1);
 11739              		.loc 5 111 23 view .LVU3086
 11740 02bc 4146     		mov	r1, r8
 11741 02be FFF7FEFF 		bl	dsy_gpio_write
 11742              	.LVL772:
 112:../../libdaisy/src/dev/oled_ssd130x.h ****     };
 11743              		.loc 5 112 9 is_stmt 1 view .LVU3087
 112:../../libdaisy/src/dev/oled_ssd130x.h ****     };
 11744              		.loc 5 112 30 is_stmt 0 view .LVU3088
 11745 02c2 6423     		movs	r3, #100
 11746 02c4 0122     		movs	r2, #1
 11747 02c6 0DF12701 		add	r1, sp, #39
 11748 02ca 2846     		mov	r0, r5
 11749              	.LBE3462:
 11750              	.LBE3465:
 11751              		.loc 5 270 22 view .LVU3089
 11752 02cc E4B2     		uxtb	r4, r4
 11753              	.LBB3466:
 11754              	.LBB3463:
 112:../../libdaisy/src/dev/oled_ssd130x.h ****     };
 11755              		.loc 5 112 30 view .LVU3090
 11756 02ce FFF7FEFF 		bl	_ZN5daisy9SpiHandle16BlockingTransmitEPhjm
 11757              	.LVL773:
 112:../../libdaisy/src/dev/oled_ssd130x.h ****     };
 11758              		.loc 5 112 30 view .LVU3091
 11759              	.LBE3463:
 11760              	.LBE3466:
 11761              	.LBB3467:
 11762              	.LBB3468:
 111:../../libdaisy/src/dev/oled_ssd130x.h ****         spi_.BlockingTransmit(&cmd, 1);
 11763              		.loc 5 111 23 view .LVU3092
 11764 02d2 4146     		mov	r1, r8
 11765 02d4 3846     		mov	r0, r7
ARM GAS  C:\Users\VINCIU~1\AppData\Local\Temp\ccdS0pnQ.s 			page 288


 11766 02d6 8DF82780 		strb	r8, [sp, #39]
 11767              	.LVL774:
 111:../../libdaisy/src/dev/oled_ssd130x.h ****         spi_.BlockingTransmit(&cmd, 1);
 11768              		.loc 5 111 23 view .LVU3093
 11769              	.LBE3468:
 11770              	.LBI3467:
 109:../../libdaisy/src/dev/oled_ssd130x.h ****     {
 11771              		.loc 5 109 10 is_stmt 1 view .LVU3094
 11772              	.LBB3469:
 111:../../libdaisy/src/dev/oled_ssd130x.h ****         spi_.BlockingTransmit(&cmd, 1);
 11773              		.loc 5 111 9 view .LVU3095
 111:../../libdaisy/src/dev/oled_ssd130x.h ****         spi_.BlockingTransmit(&cmd, 1);
 11774              		.loc 5 111 23 is_stmt 0 view .LVU3096
 11775 02da FFF7FEFF 		bl	dsy_gpio_write
 11776              	.LVL775:
 112:../../libdaisy/src/dev/oled_ssd130x.h ****     };
 11777              		.loc 5 112 9 is_stmt 1 view .LVU3097
 112:../../libdaisy/src/dev/oled_ssd130x.h ****     };
 11778              		.loc 5 112 30 is_stmt 0 view .LVU3098
 11779 02de 0122     		movs	r2, #1
 11780 02e0 6423     		movs	r3, #100
 11781 02e2 0DF12701 		add	r1, sp, #39
 11782 02e6 2846     		mov	r0, r5
 11783 02e8 FFF7FEFF 		bl	_ZN5daisy9SpiHandle16BlockingTransmitEPhjm
 11784              	.LVL776:
 112:../../libdaisy/src/dev/oled_ssd130x.h ****     };
 11785              		.loc 5 112 30 view .LVU3099
 11786 02ec 1023     		movs	r3, #16
 11787              	.LBE3469:
 11788              	.LBE3467:
 11789              	.LBB3470:
 11790              	.LBB3471:
 111:../../libdaisy/src/dev/oled_ssd130x.h ****         spi_.BlockingTransmit(&cmd, 1);
 11791              		.loc 5 111 23 view .LVU3100
 11792 02ee 4146     		mov	r1, r8
 11793 02f0 3846     		mov	r0, r7
 11794 02f2 8DF82730 		strb	r3, [sp, #39]
 11795              	.LVL777:
 111:../../libdaisy/src/dev/oled_ssd130x.h ****         spi_.BlockingTransmit(&cmd, 1);
 11796              		.loc 5 111 23 view .LVU3101
 11797              	.LBE3471:
 11798              	.LBI3470:
 109:../../libdaisy/src/dev/oled_ssd130x.h ****     {
 11799              		.loc 5 109 10 is_stmt 1 view .LVU3102
 11800              	.LBB3472:
 111:../../libdaisy/src/dev/oled_ssd130x.h ****         spi_.BlockingTransmit(&cmd, 1);
 11801              		.loc 5 111 9 view .LVU3103
 111:../../libdaisy/src/dev/oled_ssd130x.h ****         spi_.BlockingTransmit(&cmd, 1);
 11802              		.loc 5 111 23 is_stmt 0 view .LVU3104
 11803 02f6 FFF7FEFF 		bl	dsy_gpio_write
 11804              	.LVL778:
 112:../../libdaisy/src/dev/oled_ssd130x.h ****     };
 11805              		.loc 5 112 9 is_stmt 1 view .LVU3105
 112:../../libdaisy/src/dev/oled_ssd130x.h ****     };
 11806              		.loc 5 112 30 is_stmt 0 view .LVU3106
 11807 02fa 6423     		movs	r3, #100
 11808 02fc 0122     		movs	r2, #1
ARM GAS  C:\Users\VINCIU~1\AppData\Local\Temp\ccdS0pnQ.s 			page 289


 11809 02fe 0DF12701 		add	r1, sp, #39
 11810 0302 2846     		mov	r0, r5
 11811 0304 FFF7FEFF 		bl	_ZN5daisy9SpiHandle16BlockingTransmitEPhjm
 11812              	.LVL779:
 112:../../libdaisy/src/dev/oled_ssd130x.h ****     };
 11813              		.loc 5 112 30 view .LVU3107
 11814              	.LBE3472:
 11815              	.LBE3470:
 11816              	.LBB3473:
 11817              	.LBI3473:
 115:../../libdaisy/src/dev/oled_ssd130x.h ****     {
 11818              		.loc 5 115 10 is_stmt 1 view .LVU3108
 11819              	.LBB3474:
 117:../../libdaisy/src/dev/oled_ssd130x.h ****         spi_.BlockingTransmit(buff, size);
 11820              		.loc 5 117 9 view .LVU3109
 117:../../libdaisy/src/dev/oled_ssd130x.h ****         spi_.BlockingTransmit(buff, size);
 11821              		.loc 5 117 23 is_stmt 0 view .LVU3110
 11822 0308 0121     		movs	r1, #1
 11823 030a 3846     		mov	r0, r7
 11824 030c FFF7FEFF 		bl	dsy_gpio_write
 11825              	.LVL780:
 118:../../libdaisy/src/dev/oled_ssd130x.h ****     };
 11826              		.loc 5 118 9 is_stmt 1 view .LVU3111
 118:../../libdaisy/src/dev/oled_ssd130x.h ****     };
 11827              		.loc 5 118 30 is_stmt 0 view .LVU3112
 11828 0310 8022     		movs	r2, #128
 11829 0312 3146     		mov	r1, r6
 11830 0314 6423     		movs	r3, #100
 11831              	.LBE3474:
 11832              	.LBE3473:
 11833              		.loc 5 270 22 view .LVU3113
 11834 0316 1644     		add	r6, r6, r2
 11835              	.LVL781:
 11836              	.LBB3476:
 11837              	.LBB3475:
 118:../../libdaisy/src/dev/oled_ssd130x.h ****     };
 11838              		.loc 5 118 30 view .LVU3114
 11839 0318 2846     		mov	r0, r5
 11840 031a FFF7FEFF 		bl	_ZN5daisy9SpiHandle16BlockingTransmitEPhjm
 11841              	.LVL782:
 118:../../libdaisy/src/dev/oled_ssd130x.h ****     };
 11842              		.loc 5 118 30 view .LVU3115
 11843              	.LBE3475:
 11844              	.LBE3476:
 11845              		.loc 5 270 9 is_stmt 1 view .LVU3116
 11846              		.loc 5 270 22 view .LVU3117
 11847 031e 4E45     		cmp	r6, r9
 11848 0320 C6D1     		bne	.L716
 11849              	.LBE3477:
 11850              	.LBE3478:
 11851              	.LBE3480:
 658:Menus.cpp     **** }
 11852              		.loc 2 658 1 is_stmt 0 view .LVU3118
 11853 0322 0BB0     		add	sp, sp, #44
 11854              		.cfi_remember_state
 11855              		.cfi_def_cfa_offset 36
 11856              		@ sp needed
ARM GAS  C:\Users\VINCIU~1\AppData\Local\Temp\ccdS0pnQ.s 			page 290


 11857 0324 BDE8F08F 		pop	{r4, r5, r6, r7, r8, r9, r10, fp, pc}
 11858              	.LVL783:
 11859              	.L756:
 11860              		.cfi_restore_state
 573:Menus.cpp     ****         this->menuStateGlide = this->menuStateGlide - 1;
 11861              		.loc 2 573 9 is_stmt 1 view .LVU3119
 574:Menus.cpp     ****         if(this->menuStateGlide < 0)
 11862              		.loc 2 574 9 view .LVU3120
 11863 0328 013B     		subs	r3, r3, #1
 11864 032a 21D4     		bmi	.L681
 573:Menus.cpp     ****         this->menuStateGlide = this->menuStateGlide - 1;
 11865              		.loc 2 573 30 is_stmt 0 view .LVU3121
 11866 032c 3367     		str	r3, [r6, #112]
 11867 032e 8BE6     		b	.L682
 11868              	.LVL784:
 11869              	.L707:
 11870              	.LBB3481:
 11871              	.LBB3443:
 11872              	.LBB3437:
 11873              	.LBB3424:
 11874              	.LBB3417:
 239:../../libdaisy/src/dev/oled_ssd130x.h ****     {
 11875              		.loc 5 239 10 is_stmt 1 view .LVU3122
 11876              	.LBB3412:
 241:../../libdaisy/src/dev/oled_ssd130x.h ****             return;
 11877              		.loc 5 241 9 is_stmt 0 view .LVU3123
 11878 0330 B8F17F0F 		cmp	r8, #127
 11879              	.LBE3412:
 11880              	.LBE3417:
 11881              	.LBE3424:
 11882              	.LBE3437:
 190:../../libdaisy/src/hid/disp/display.h ****         int_fast16_t error  = deltaX - deltaY;
 11883              		.loc 6 190 42 view .LVU3124
 11884 0334 CDE90699 		strd	r9, r9, [sp, #24]
 11885              	.LBB3438:
 11886              	.LBB3425:
 11887              	.LBB3418:
 11888              	.LBB3413:
 241:../../libdaisy/src/dev/oled_ssd130x.h ****             return;
 11889              		.loc 5 241 9 view .LVU3125
 11890 0338 3FF669AF 		bhi	.L708
 11891 033c 5AE7     		b	.L717
 11892              	.LVL785:
 11893              	.L718:
 241:../../libdaisy/src/dev/oled_ssd130x.h ****             return;
 11894              		.loc 5 241 9 view .LVU3126
 11895              	.LBE3413:
 11896              	.LBE3418:
 11897              	.LBE3425:
 11898              	.LBE3438:
 189:../../libdaisy/src/hid/disp/display.h ****         int_fast16_t signY  = ((y1 < y2) ? 1 : -1);
 11899              		.loc 6 189 42 view .LVU3127
 11900 033e 4FF0FF33 		mov	r3, #-1
 191:../../libdaisy/src/hid/disp/display.h ****         int_fast16_t error2;
 11901              		.loc 6 191 22 view .LVU3128
 11902 0342 A7EB0A01 		sub	r1, r7, r10
 11903              	.LVL786:
ARM GAS  C:\Users\VINCIU~1\AppData\Local\Temp\ccdS0pnQ.s 			page 291


 11904              	.LBB3439:
  41:../../libdaisy/src/hid/disp/oled_display.h ****     {
 11905              		.loc 1 41 10 is_stmt 1 view .LVU3129
 11906              	.LBB3426:
  43:../../libdaisy/src/hid/disp/oled_display.h ****     }
 11907              		.loc 1 43 26 is_stmt 0 view .LVU3130
 11908 0346 04F10805 		add	r5, r4, #8
 11909              	.LVL787:
 11910              	.LBB3419:
 239:../../libdaisy/src/dev/oled_ssd130x.h ****     {
 11911              		.loc 5 239 10 is_stmt 1 view .LVU3131
 11912              	.LBE3419:
 11913              	.LBE3426:
 11914              	.LBE3439:
 190:../../libdaisy/src/hid/disp/display.h ****         int_fast16_t error  = deltaX - deltaY;
 11915              		.loc 6 190 42 is_stmt 0 view .LVU3132
 11916 034a CDF81890 		str	r9, [sp, #24]
 189:../../libdaisy/src/hid/disp/display.h ****         int_fast16_t signY  = ((y1 < y2) ? 1 : -1);
 11917              		.loc 6 189 42 view .LVU3133
 11918 034e 0793     		str	r3, [sp, #28]
 11919 0350 50E7     		b	.L717
 11920              	.L761:
 11921 0352 00BF     		.align	2
 11922              	.L760:
 11923 0354 06000400 		.word	262150
 11924 0358 00000000 		.word	Font_6x8
 11925 035c 49000400 		.word	262217
 11926 0360 00003C42 		.word	1111228416
 11927 0364 00000000 		.word	.LC9
 11928 0368 00000000 		.word	0
 11929 036c 0000C842 		.word	1120403456
 11930              	.LVL788:
 11931              	.L681:
 189:../../libdaisy/src/hid/disp/display.h ****         int_fast16_t signY  = ((y1 < y2) ? 1 : -1);
 11932              		.loc 6 189 42 view .LVU3134
 11933              	.LBE3443:
 11934              	.LBE3481:
 576:Menus.cpp     ****             this->menuStateGlide = 1;
 11935              		.loc 2 576 13 is_stmt 1 view .LVU3135
 579:Menus.cpp     ****     if(this->buttonRight.RisingEdge())
 11936              		.loc 2 579 5 is_stmt 0 view .LVU3136
 11937 0370 96F86130 		ldrb	r3, [r6, #97]	@ zero_extendqisi2
 576:Menus.cpp     ****             this->menuStateGlide = 1;
 11938              		.loc 2 576 34 view .LVU3137
 11939 0374 0122     		movs	r2, #1
 579:Menus.cpp     ****     if(this->buttonRight.RisingEdge())
 11940              		.loc 2 579 5 view .LVU3138
 11941 0376 7F2B     		cmp	r3, #127
 576:Menus.cpp     ****             this->menuStateGlide = 1;
 11942              		.loc 2 576 34 view .LVU3139
 11943 0378 3267     		str	r2, [r6, #112]
 579:Menus.cpp     ****     if(this->buttonRight.RisingEdge())
 11944              		.loc 2 579 5 is_stmt 1 view .LVU3140
 11945              	.LVL789:
 11946              	.LBB3482:
 11947              		.loc 4 69 17 view .LVU3141
 11948              	.LBB3283:
ARM GAS  C:\Users\VINCIU~1\AppData\Local\Temp\ccdS0pnQ.s 			page 292


 11949              		.loc 4 69 38 view .LVU3142
 11950              		.loc 4 69 38 is_stmt 0 view .LVU3143
 11951              	.LBE3283:
 11952              	.LBE3482:
 579:Menus.cpp     ****     if(this->buttonRight.RisingEdge())
 11953              		.loc 2 579 5 view .LVU3144
 11954 037a 3FF4BCAE 		beq	.L686
 11955              	.L683:
 11956              	.LBB3483:
 613:Menus.cpp     ****         if(this->glideTime >= 100)
 11957              		.loc 2 613 9 is_stmt 1 view .LVU3145
 613:Menus.cpp     ****         if(this->glideTime >= 100)
 11958              		.loc 2 613 18 is_stmt 0 view .LVU3146
 11959 037e D6ED257A 		vldr.32	s15, [r6, #148]
 613:Menus.cpp     ****         if(this->glideTime >= 100)
 11960              		.loc 2 613 9 view .LVU3147
 11961 0382 1FED067A 		vldr.32	s14, .L760+24
 11962 0386 F4EEC77A 		vcmpe.f32	s15, s14
 11963 038a F1EE10FA 		vmrs	APSR_nzcv, FPSCR
 11964 038e 80F29680 		bge	.L722
 617:Menus.cpp     ****         if(this->glideTime <= 0)
 11965              		.loc 2 617 9 is_stmt 1 view .LVU3148
 11966 0392 F5EEC07A 		vcmpe.f32	s15, #0
 11967 0396 F1EE10FA 		vmrs	APSR_nzcv, FPSCR
 11968 039a 01D8     		bhi	.L695
 11969 039c 5FED0E7A 		vldr.32	s15, .L760+20
 11970              	.L695:
 621:Menus.cpp     ****         if(circleGlidePosition >= 100)
 11971              		.loc 2 621 9 view .LVU3149
 621:Menus.cpp     ****         if(circleGlidePosition >= 100)
 11972              		.loc 2 621 12 is_stmt 0 view .LVU3150
 11973 03a0 96ED227A 		vldr.32	s14, [r6, #136]
 621:Menus.cpp     ****         if(circleGlidePosition >= 100)
 11974              		.loc 2 621 9 view .LVU3151
 11975 03a4 5FED0F6A 		vldr.32	s13, .L760+24
 11976 03a8 B4EEE67A 		vcmpe.f32	s14, s13
 11977 03ac F1EE10FA 		vmrs	APSR_nzcv, FPSCR
 11978 03b0 7CDB     		blt	.L752
 623:Menus.cpp     ****             circleGlidePosition = 100;
 11979              		.loc 2 623 13 is_stmt 1 view .LVU3152
 623:Menus.cpp     ****             circleGlidePosition = 100;
 11980              		.loc 2 623 33 is_stmt 0 view .LVU3153
 11981 03b2 C6ED226A 		vstr.32	s13, [r6, #136]
 625:Menus.cpp     ****         if(circleGlidePosition <= 0)
 11982              		.loc 2 625 9 is_stmt 1 view .LVU3154
 11983              	.L698:
 629:Menus.cpp     ****         if(circleGlideTimePosition >= 100)
 11984              		.loc 2 629 9 view .LVU3155
 629:Menus.cpp     ****         if(circleGlideTimePosition >= 100)
 11985              		.loc 2 629 12 is_stmt 0 view .LVU3156
 11986 03b6 D6ED236A 		vldr.32	s13, [r6, #140]
 629:Menus.cpp     ****         if(circleGlideTimePosition >= 100)
 11987              		.loc 2 629 9 view .LVU3157
 11988 03ba 1FED147A 		vldr.32	s14, .L760+24
 11989 03be F4EEC76A 		vcmpe.f32	s13, s14
 11990 03c2 F1EE10FA 		vmrs	APSR_nzcv, FPSCR
 11991 03c6 6EDA     		bge	.L724
ARM GAS  C:\Users\VINCIU~1\AppData\Local\Temp\ccdS0pnQ.s 			page 293


 633:Menus.cpp     ****         if(circleGlideTimePosition <= 10)
 11992              		.loc 2 633 9 is_stmt 1 view .LVU3158
 11993 03c8 B2EE047A 		vmov.f32	s14, #1.0e+1
 11994 03cc F4EE476A 		vcmp.f32	s13, s14
 11995 03d0 F1EE10FA 		vmrs	APSR_nzcv, FPSCR
 11996 03d4 98BF     		it	ls
 11997 03d6 F0EE476A 		vmovls.f32	s13, s14
 11998              	.L700:
 637:Menus.cpp     ****         circleGlideTimePosition += this->encoderRight.Increment();
 11999              		.loc 2 637 9 view .LVU3159
 12000              	.LVL790:
 12001              	.LBB3343:
 12002              	.LBI3343:
  41:../../libdaisy/src/hid/encoder.h ****     /** Returns true if the encoder was just pressed.
 12003              		.loc 3 41 20 view .LVU3160
 12004              	.LBB3344:
  41:../../libdaisy/src/hid/encoder.h ****     /** Returns true if the encoder was just pressed.
 12005              		.loc 3 41 40 view .LVU3161
  41:../../libdaisy/src/hid/encoder.h ****     /** Returns true if the encoder was just pressed.
 12006              		.loc 3 41 40 is_stmt 0 view .LVU3162
 12007              	.LBE3344:
 12008              	.LBE3343:
 637:Menus.cpp     ****         circleGlideTimePosition += this->encoderRight.Increment();
 12009              		.loc 2 637 33 view .LVU3163
 12010 03da 96ED127A 		vldr.32	s14, [r6, #72]	@ int
 640:Menus.cpp     ****         sprintf(this->buffPitchTime, "Time_%d%%", (int)this->glideTime);
 12011              		.loc 2 640 16 view .LVU3164
 12012 03de 06F58E77 		add	r7, r6, #284
 12013 03e2 4549     		ldr	r1, .L762+16
 637:Menus.cpp     ****         circleGlideTimePosition += this->encoderRight.Increment();
 12014              		.loc 2 637 33 view .LVU3165
 12015 03e4 B8EEC77A 		vcvt.f32.s32	s14, s14
 640:Menus.cpp     ****         sprintf(this->buffPitchTime, "Time_%d%%", (int)this->glideTime);
 12016              		.loc 2 640 16 view .LVU3166
 12017 03e8 3846     		mov	r0, r7
 639:Menus.cpp     ****         this->glideTime += this->encoderRight.Increment();
 12018              		.loc 2 639 25 view .LVU3167
 12019 03ea 77EE277A 		vadd.f32	s15, s14, s15
 637:Menus.cpp     ****         circleGlideTimePosition += this->encoderRight.Increment();
 12020              		.loc 2 637 33 view .LVU3168
 12021 03ee 37EE267A 		vadd.f32	s14, s14, s13
 640:Menus.cpp     ****         sprintf(this->buffPitchTime, "Time_%d%%", (int)this->glideTime);
 12022              		.loc 2 640 16 view .LVU3169
 12023 03f2 FDEEE76A 		vcvt.s32.f32	s13, s15
 639:Menus.cpp     ****         this->glideTime += this->encoderRight.Increment();
 12024              		.loc 2 639 25 view .LVU3170
 12025 03f6 C6ED257A 		vstr.32	s15, [r6, #148]
 637:Menus.cpp     ****         circleGlideTimePosition += this->encoderRight.Increment();
 12026              		.loc 2 637 33 view .LVU3171
 12027 03fa 86ED237A 		vstr.32	s14, [r6, #140]
 638:Menus.cpp     ****         ;
 12028              		.loc 2 638 9 is_stmt 1 view .LVU3172
 639:Menus.cpp     ****         this->glideTime += this->encoderRight.Increment();
 12029              		.loc 2 639 9 view .LVU3173
 12030              	.LVL791:
 639:Menus.cpp     ****         this->glideTime += this->encoderRight.Increment();
 12031              		.loc 2 639 9 is_stmt 0 view .LVU3174
ARM GAS  C:\Users\VINCIU~1\AppData\Local\Temp\ccdS0pnQ.s 			page 294


 12032              	.LBE3483:
  41:../../libdaisy/src/hid/encoder.h ****     /** Returns true if the encoder was just pressed.
 12033              		.loc 3 41 40 is_stmt 1 view .LVU3175
 12034              	.LBB3484:
 640:Menus.cpp     ****         sprintf(this->buffPitchTime, "Time_%d%%", (int)this->glideTime);
 12035              		.loc 2 640 9 view .LVU3176
 640:Menus.cpp     ****         sprintf(this->buffPitchTime, "Time_%d%%", (int)this->glideTime);
 12036              		.loc 2 640 16 is_stmt 0 view .LVU3177
 12037 03fe 16EE902A 		vmov	r2, s13	@ int
 12038 0402 FFF7FEFF 		bl	sprintf
 12039              	.LVL792:
 641:Menus.cpp     ****         screen.DrawRect(67, 0, screen.Width() - 2, 13, true, false);
 12040              		.loc 2 641 9 is_stmt 1 view .LVU3178
 12041              	.LBB3345:
 12042              	.LBI3345:
 217:../../libdaisy/src/hid/disp/display.h ****                   uint_fast8_t y1,
 12043              		.loc 6 217 10 view .LVU3179
 12044              	.LBB3346:
 12045              	.LBI3346:
 181:../../libdaisy/src/hid/disp/display.h ****                   uint_fast8_t y1,
 12046              		.loc 6 181 10 view .LVU3180
 12047              	.LBB3347:
 12048              	.LBB3348:
 12049              	.LBI3348:
  41:../../libdaisy/src/hid/disp/oled_display.h ****     {
 12050              		.loc 1 41 10 view .LVU3181
 12051              	.LBB3349:
 12052              	.LBI3349:
 239:../../libdaisy/src/dev/oled_ssd130x.h ****     {
 12053              		.loc 5 239 10 view .LVU3182
 12054              	.LBB3350:
 244:../../libdaisy/src/dev/oled_ssd130x.h ****         else
 12055              		.loc 5 244 42 is_stmt 0 view .LVU3183
 12056 0406 94F89220 		ldrb	r2, [r4, #146]	@ zero_extendqisi2
 12057 040a 04F15603 		add	r3, r4, #86
 12058 040e 04F19101 		add	r1, r4, #145
 12059 0412 42F00102 		orr	r2, r2, #1
 12060 0416 84F89220 		strb	r2, [r4, #146]
 12061              	.LVL793:
 244:../../libdaisy/src/dev/oled_ssd130x.h ****         else
 12062              		.loc 5 244 42 view .LVU3184
 12063              	.LBE3350:
 12064              	.LBE3349:
 12065              	.LBE3348:
 199:../../libdaisy/src/hid/disp/display.h ****         {
 12066              		.loc 6 199 26 is_stmt 1 view .LVU3185
 12067              	.L701:
 12068              	.LBB3351:
 12069              	.LBI3351:
  41:../../libdaisy/src/hid/disp/oled_display.h ****     {
 12070              		.loc 1 41 10 view .LVU3186
 12071              	.LBB3352:
 12072              	.LBI3352:
 239:../../libdaisy/src/dev/oled_ssd130x.h ****     {
 12073              		.loc 5 239 10 view .LVU3187
 12074              	.LBB3353:
 244:../../libdaisy/src/dev/oled_ssd130x.h ****         else
ARM GAS  C:\Users\VINCIU~1\AppData\Local\Temp\ccdS0pnQ.s 			page 295


 12075              		.loc 5 244 42 is_stmt 0 view .LVU3188
 12076 041a 13F8012F 		ldrb	r2, [r3, #1]!	@ zero_extendqisi2
 244:../../libdaisy/src/dev/oled_ssd130x.h ****         else
 12077              		.loc 5 244 42 view .LVU3189
 12078 041e 42F00102 		orr	r2, r2, #1
 12079              	.LBE3353:
 12080              	.LBE3352:
 12081              	.LBE3351:
 199:../../libdaisy/src/hid/disp/display.h ****         {
 12082              		.loc 6 199 26 view .LVU3190
 12083 0422 9942     		cmp	r1, r3
 12084              	.LBB3356:
 12085              	.LBB3355:
 12086              	.LBB3354:
 244:../../libdaisy/src/dev/oled_ssd130x.h ****         else
 12087              		.loc 5 244 42 view .LVU3191
 12088 0424 1A70     		strb	r2, [r3]
 12089              	.LVL794:
 244:../../libdaisy/src/dev/oled_ssd130x.h ****         else
 12090              		.loc 5 244 42 view .LVU3192
 12091              	.LBE3354:
 12092              	.LBE3355:
 12093              	.LBE3356:
 199:../../libdaisy/src/hid/disp/display.h ****         {
 12094              		.loc 6 199 26 is_stmt 1 view .LVU3193
 12095 0426 F8D1     		bne	.L701
 12096              	.LVL795:
 199:../../libdaisy/src/hid/disp/display.h ****         {
 12097              		.loc 6 199 26 is_stmt 0 view .LVU3194
 12098              	.LBE3347:
 12099              	.LBE3346:
 12100              	.LBB3357:
 12101              	.LBI3357:
 181:../../libdaisy/src/hid/disp/display.h ****                   uint_fast8_t y1,
 12102              		.loc 6 181 10 is_stmt 1 view .LVU3195
 12103              	.LBB3358:
 12104              	.LBB3359:
 12105              	.LBI3359:
  41:../../libdaisy/src/hid/disp/oled_display.h ****     {
 12106              		.loc 1 41 10 view .LVU3196
 12107              	.LBB3360:
 12108              	.LBI3360:
 239:../../libdaisy/src/dev/oled_ssd130x.h ****     {
 12109              		.loc 5 239 10 view .LVU3197
 12110              	.LBB3361:
 244:../../libdaisy/src/dev/oled_ssd130x.h ****         else
 12111              		.loc 5 244 42 is_stmt 0 view .LVU3198
 12112 0428 94F81221 		ldrb	r2, [r4, #274]	@ zero_extendqisi2
 12113 042c 0023     		movs	r3, #0
 12114 042e 42F02002 		orr	r2, r2, #32
 12115 0432 84F81221 		strb	r2, [r4, #274]
 12116              	.LVL796:
 244:../../libdaisy/src/dev/oled_ssd130x.h ****         else
 12117              		.loc 5 244 42 view .LVU3199
 12118              	.LBE3361:
 12119              	.LBE3360:
 12120              	.LBE3359:
ARM GAS  C:\Users\VINCIU~1\AppData\Local\Temp\ccdS0pnQ.s 			page 296


 199:../../libdaisy/src/hid/disp/display.h ****         {
 12121              		.loc 6 199 26 is_stmt 1 view .LVU3200
 12122              	.L702:
 12123              	.LBB3362:
 12124              	.LBI3362:
  41:../../libdaisy/src/hid/disp/oled_display.h ****     {
 12125              		.loc 1 41 10 view .LVU3201
 12126              	.LBB3363:
 12127              	.LBI3363:
 239:../../libdaisy/src/dev/oled_ssd130x.h ****     {
 12128              		.loc 5 239 10 view .LVU3202
 12129              	.LBB3364:
 244:../../libdaisy/src/dev/oled_ssd130x.h ****         else
 12130              		.loc 5 244 28 is_stmt 0 view .LVU3203
 12131 0436 D908     		lsrs	r1, r3, #3
 244:../../libdaisy/src/dev/oled_ssd130x.h ****         else
 12132              		.loc 5 244 54 view .LVU3204
 12133 0438 03F00700 		and	r0, r3, #7
 244:../../libdaisy/src/dev/oled_ssd130x.h ****         else
 12134              		.loc 5 244 48 view .LVU3205
 12135 043c 0122     		movs	r2, #1
 244:../../libdaisy/src/dev/oled_ssd130x.h ****         else
 12136              		.loc 5 244 42 view .LVU3206
 12137 043e 04EBC111 		add	r1, r4, r1, lsl #7
 12138              	.LBE3364:
 12139              	.LBE3363:
 12140              	.LBE3362:
 212:../../libdaisy/src/hid/disp/display.h ****             }
 12141              		.loc 6 212 20 view .LVU3207
 12142 0442 1344     		add	r3, r3, r2
 12143              	.LVL797:
 12144              	.LBB3369:
 12145              	.LBB3367:
 12146              	.LBB3365:
 244:../../libdaisy/src/dev/oled_ssd130x.h ****         else
 12147              		.loc 5 244 48 view .LVU3208
 12148 0444 8240     		lsls	r2, r2, r0
 244:../../libdaisy/src/dev/oled_ssd130x.h ****         else
 12149              		.loc 5 244 42 view .LVU3209
 12150 0446 91F89200 		ldrb	r0, [r1, #146]	@ zero_extendqisi2
 12151              	.LBE3365:
 12152              	.LBE3367:
 12153              	.LBE3369:
 199:../../libdaisy/src/hid/disp/display.h ****         {
 12154              		.loc 6 199 26 view .LVU3210
 12155 044a 0D2B     		cmp	r3, #13
 12156              	.LBB3370:
 12157              	.LBB3368:
 12158              	.LBB3366:
 244:../../libdaisy/src/dev/oled_ssd130x.h ****         else
 12159              		.loc 5 244 42 view .LVU3211
 12160 044c 42EA0002 		orr	r2, r2, r0
 12161 0450 81F89220 		strb	r2, [r1, #146]
 12162              	.LVL798:
 244:../../libdaisy/src/dev/oled_ssd130x.h ****         else
 12163              		.loc 5 244 42 view .LVU3212
 12164              	.LBE3366:
ARM GAS  C:\Users\VINCIU~1\AppData\Local\Temp\ccdS0pnQ.s 			page 297


 12165              	.LBE3368:
 12166              	.LBE3370:
 199:../../libdaisy/src/hid/disp/display.h ****         {
 12167              		.loc 6 199 26 is_stmt 1 view .LVU3213
 12168 0454 EFD1     		bne	.L702
 12169              	.LVL799:
 199:../../libdaisy/src/hid/disp/display.h ****         {
 12170              		.loc 6 199 26 is_stmt 0 view .LVU3214
 12171              	.LBE3358:
 12172              	.LBE3357:
 12173              	.LBB3371:
 12174              	.LBI3371:
 181:../../libdaisy/src/hid/disp/display.h ****                   uint_fast8_t y1,
 12175              		.loc 6 181 10 is_stmt 1 view .LVU3215
 12176              	.LBB3372:
 12177              	.LBB3373:
 12178              	.LBI3373:
  41:../../libdaisy/src/hid/disp/oled_display.h ****     {
 12179              		.loc 1 41 10 view .LVU3216
 12180              	.LBB3374:
 12181              	.LBI3374:
 239:../../libdaisy/src/dev/oled_ssd130x.h ****     {
 12182              		.loc 5 239 10 view .LVU3217
 12183              	.LBB3375:
 244:../../libdaisy/src/dev/oled_ssd130x.h ****         else
 12184              		.loc 5 244 42 is_stmt 0 view .LVU3218
 12185 0456 94F8D720 		ldrb	r2, [r4, #215]	@ zero_extendqisi2
 12186 045a 04F1D800 		add	r0, r4, #216
 12187 045e 42F02002 		orr	r2, r2, #32
 12188 0462 84F8D720 		strb	r2, [r4, #215]
 12189              	.LVL800:
 244:../../libdaisy/src/dev/oled_ssd130x.h ****         else
 12190              		.loc 5 244 42 view .LVU3219
 12191              	.LBE3375:
 12192              	.LBE3374:
 12193              	.LBE3373:
 199:../../libdaisy/src/hid/disp/display.h ****         {
 12194              		.loc 6 199 26 is_stmt 1 view .LVU3220
 12195 0466 04F21312 		addw	r2, r4, #275
 12196              	.LVL801:
 12197              	.L703:
 12198              	.LBB3376:
 12199              	.LBI3376:
  41:../../libdaisy/src/hid/disp/oled_display.h ****     {
 12200              		.loc 1 41 10 view .LVU3221
 12201              	.LBB3377:
 12202              	.LBI3377:
 239:../../libdaisy/src/dev/oled_ssd130x.h ****     {
 12203              		.loc 5 239 10 view .LVU3222
 12204              	.LBB3378:
 244:../../libdaisy/src/dev/oled_ssd130x.h ****         else
 12205              		.loc 5 244 42 is_stmt 0 view .LVU3223
 12206 046a 12F8011D 		ldrb	r1, [r2, #-1]!	@ zero_extendqisi2
 244:../../libdaisy/src/dev/oled_ssd130x.h ****         else
 12207              		.loc 5 244 42 view .LVU3224
 12208 046e 41F02001 		orr	r1, r1, #32
 12209              	.LBE3378:
ARM GAS  C:\Users\VINCIU~1\AppData\Local\Temp\ccdS0pnQ.s 			page 298


 12210              	.LBE3377:
 12211              	.LBE3376:
 199:../../libdaisy/src/hid/disp/display.h ****         {
 12212              		.loc 6 199 26 view .LVU3225
 12213 0472 9042     		cmp	r0, r2
 12214              	.LBB3381:
 12215              	.LBB3380:
 12216              	.LBB3379:
 244:../../libdaisy/src/dev/oled_ssd130x.h ****         else
 12217              		.loc 5 244 42 view .LVU3226
 12218 0474 1170     		strb	r1, [r2]
 12219              	.LVL802:
 244:../../libdaisy/src/dev/oled_ssd130x.h ****         else
 12220              		.loc 5 244 42 view .LVU3227
 12221              	.LBE3379:
 12222              	.LBE3380:
 12223              	.LBE3381:
 199:../../libdaisy/src/hid/disp/display.h ****         {
 12224              		.loc 6 199 26 is_stmt 1 view .LVU3228
 12225 0476 F8D1     		bne	.L703
 12226              	.LVL803:
 199:../../libdaisy/src/hid/disp/display.h ****         {
 12227              		.loc 6 199 26 is_stmt 0 view .LVU3229
 12228              	.LBE3372:
 12229              	.LBE3371:
 12230              	.LBB3382:
 12231              	.LBI3382:
 181:../../libdaisy/src/hid/disp/display.h ****                   uint_fast8_t y1,
 12232              		.loc 6 181 10 is_stmt 1 view .LVU3230
 12233              	.LBB3383:
 12234              	.LBB3384:
 12235              	.LBI3384:
  41:../../libdaisy/src/hid/disp/oled_display.h ****     {
 12236              		.loc 1 41 10 view .LVU3231
 12237              	.LBB3385:
 12238              	.LBI3385:
 239:../../libdaisy/src/dev/oled_ssd130x.h ****     {
 12239              		.loc 5 239 10 view .LVU3232
 12240              	.LBB3386:
 244:../../libdaisy/src/dev/oled_ssd130x.h ****         else
 12241              		.loc 5 244 42 is_stmt 0 view .LVU3233
 12242 0478 94F85720 		ldrb	r2, [r4, #87]	@ zero_extendqisi2
 12243 047c 42F00102 		orr	r2, r2, #1
 12244 0480 84F85720 		strb	r2, [r4, #87]
 12245              	.LVL804:
 244:../../libdaisy/src/dev/oled_ssd130x.h ****         else
 12246              		.loc 5 244 42 view .LVU3234
 12247              	.LBE3386:
 12248              	.LBE3385:
 12249              	.LBE3384:
 199:../../libdaisy/src/hid/disp/display.h ****         {
 12250              		.loc 6 199 26 is_stmt 1 view .LVU3235
 12251              	.L705:
 12252              	.LBB3387:
 12253              	.LBI3387:
  41:../../libdaisy/src/hid/disp/oled_display.h ****     {
 12254              		.loc 1 41 10 view .LVU3236
ARM GAS  C:\Users\VINCIU~1\AppData\Local\Temp\ccdS0pnQ.s 			page 299


 12255              	.LBB3388:
 12256              	.LBI3388:
 239:../../libdaisy/src/dev/oled_ssd130x.h ****     {
 12257              		.loc 5 239 10 view .LVU3237
 12258              	.LBB3389:
 244:../../libdaisy/src/dev/oled_ssd130x.h ****         else
 12259              		.loc 5 244 28 is_stmt 0 view .LVU3238
 12260 0484 D908     		lsrs	r1, r3, #3
 244:../../libdaisy/src/dev/oled_ssd130x.h ****         else
 12261              		.loc 5 244 54 view .LVU3239
 12262 0486 03F00700 		and	r0, r3, #7
 244:../../libdaisy/src/dev/oled_ssd130x.h ****         else
 12263              		.loc 5 244 48 view .LVU3240
 12264 048a 0122     		movs	r2, #1
 12265              	.LBE3389:
 12266              	.LBE3388:
 12267              	.LBE3387:
 199:../../libdaisy/src/hid/disp/display.h ****         {
 12268              		.loc 6 199 26 view .LVU3241
 12269 048c 013B     		subs	r3, r3, #1
 12270              	.LVL805:
 12271              	.LBB3392:
 12272              	.LBB3391:
 12273              	.LBB3390:
 244:../../libdaisy/src/dev/oled_ssd130x.h ****         else
 12274              		.loc 5 244 42 view .LVU3242
 12275 048e 04EBC111 		add	r1, r4, r1, lsl #7
 244:../../libdaisy/src/dev/oled_ssd130x.h ****         else
 12276              		.loc 5 244 48 view .LVU3243
 12277 0492 02FA00F2 		lsl	r2, r2, r0
 244:../../libdaisy/src/dev/oled_ssd130x.h ****         else
 12278              		.loc 5 244 42 view .LVU3244
 12279 0496 91F85700 		ldrb	r0, [r1, #87]	@ zero_extendqisi2
 12280 049a 42EA0002 		orr	r2, r2, r0
 12281 049e 81F85720 		strb	r2, [r1, #87]
 12282              	.LVL806:
 244:../../libdaisy/src/dev/oled_ssd130x.h ****         else
 12283              		.loc 5 244 42 view .LVU3245
 12284              	.LBE3390:
 12285              	.LBE3391:
 12286              	.LBE3392:
 199:../../libdaisy/src/hid/disp/display.h ****         {
 12287              		.loc 6 199 26 is_stmt 1 view .LVU3246
 12288 04a2 EFD1     		bne	.L705
 12289 04a4 DBE5     		b	.L704
 12290              	.LVL807:
 12291              	.L724:
 199:../../libdaisy/src/hid/disp/display.h ****         {
 12292              		.loc 6 199 26 is_stmt 0 view .LVU3247
 12293              	.LBE3383:
 12294              	.LBE3382:
 12295              	.LBE3345:
 12296 04a6 F0EE476A 		vmov.f32	s13, s14
 12297 04aa 96E7     		b	.L700
 12298              	.L752:
 625:Menus.cpp     ****         if(circleGlidePosition <= 0)
 12299              		.loc 2 625 9 is_stmt 1 view .LVU3248
ARM GAS  C:\Users\VINCIU~1\AppData\Local\Temp\ccdS0pnQ.s 			page 300


 12300 04ac B5EEC07A 		vcmpe.f32	s14, #0
 12301 04b0 0023     		movs	r3, #0
 12302 04b2 F1EE10FA 		vmrs	APSR_nzcv, FPSCR
 627:Menus.cpp     ****             circleGlidePosition = 0;
 12303              		.loc 2 627 13 view .LVU3249
 627:Menus.cpp     ****             circleGlidePosition = 0;
 12304              		.loc 2 627 33 is_stmt 0 view .LVU3250
 12305 04b6 98BF     		it	ls
 12306 04b8 C6F88830 		strls	r3, [r6, #136]	@ float
 12307 04bc 7BE7     		b	.L698
 12308              	.L722:
 627:Menus.cpp     ****             circleGlidePosition = 0;
 12309              		.loc 2 627 33 view .LVU3251
 12310 04be F0EE477A 		vmov.f32	s15, s14
 12311 04c2 6DE7     		b	.L695
 12312              	.L758:
 12313              	.LBB3393:
 600:Menus.cpp     ****         glideScale = screen.Height() - ((this->glideInit + 212) * 0.15);
 12314              		.loc 2 600 58 view .LVU3252
 12315 04c4 03F1D402 		add	r2, r3, #212
 600:Menus.cpp     ****         glideScale = screen.Height() - ((this->glideInit + 212) * 0.15);
 12316              		.loc 2 600 65 view .LVU3253
 12317 04c8 06EE902A 		vmov	s13, r2	@ int
 600:Menus.cpp     ****         glideScale = screen.Height() - ((this->glideInit + 212) * 0.15);
 12318              		.loc 2 600 38 view .LVU3254
 12319 04cc 9FED065B 		vldr.64	d5, .L762
 12320 04d0 9FED077B 		vldr.64	d7, .L762+8
 600:Menus.cpp     ****         glideScale = screen.Height() - ((this->glideInit + 212) * 0.15);
 12321              		.loc 2 600 65 view .LVU3255
 12322 04d4 B8EEE66B 		vcvt.f64.s32	d6, s13
 600:Menus.cpp     ****         glideScale = screen.Height() - ((this->glideInit + 212) * 0.15);
 12323              		.loc 2 600 38 view .LVU3256
 12324 04d8 A6EE457B 		vfms.f64	d7, d6, d5
 600:Menus.cpp     ****         glideScale = screen.Height() - ((this->glideInit + 212) * 0.15);
 12325              		.loc 2 600 20 view .LVU3257
 12326 04dc FDEEC77B 		vcvt.s32.f64	s15, d7
 602:Menus.cpp     ****         circleGlidePosition = glideScale;
 12327              		.loc 2 602 29 view .LVU3258
 12328 04e0 F8EEE77A 		vcvt.f32.s32	s15, s15
 12329 04e4 15E6     		b	.L688
 12330              	.L763:
 12331 04e6 00BF     		.align	3
 12332              	.L762:
 12333 04e8 33333333 		.word	858993459
 12334 04ec 3333C33F 		.word	1069757235
 12335 04f0 00000000 		.word	0
 12336 04f4 00005040 		.word	1078984704
 12337 04f8 0C000000 		.word	.LC10
 12338              	.LBE3393:
 12339              	.LBE3484:
 12340              		.cfi_endproc
 12341              	.LFE4041:
 12343              		.text
 12344              	.Letext0:
 12345              		.file 9 "c:\\users\\vin\355cius\\documents\\daisytoolchain-0.3.1\\windows\\arm-none-eabi\\include\
 12346              		.file 10 "c:\\users\\vin\355cius\\documents\\daisytoolchain-0.3.1\\windows\\arm-none-eabi\\include
 12347              		.file 11 "c:\\users\\vin\355cius\\documents\\daisytoolchain-0.3.1\\windows\\arm-none-eabi\\include
ARM GAS  C:\Users\VINCIU~1\AppData\Local\Temp\ccdS0pnQ.s 			page 301


 12348              		.file 12 "c:\\users\\vin\355cius\\documents\\daisytoolchain-0.3.1\\windows\\lib\\gcc\\arm-none-eab
 12349              		.file 13 "c:\\users\\vin\355cius\\documents\\daisytoolchain-0.3.1\\windows\\arm-none-eabi\\include
 12350              		.file 14 "c:\\users\\vin\355cius\\documents\\daisytoolchain-0.3.1\\windows\\arm-none-eabi\\include
 12351              		.file 15 "c:\\users\\vin\355cius\\documents\\daisytoolchain-0.3.1\\windows\\arm-none-eabi\\include
 12352              		.file 16 "c:\\users\\vin\355cius\\documents\\daisytoolchain-0.3.1\\windows\\arm-none-eabi\\include
 12353              		.file 17 "c:\\users\\vin\355cius\\documents\\daisytoolchain-0.3.1\\windows\\arm-none-eabi\\include
 12354              		.file 18 "c:\\users\\vin\355cius\\documents\\daisytoolchain-0.3.1\\windows\\arm-none-eabi\\include
 12355              		.file 19 "c:\\users\\vin\355cius\\documents\\daisytoolchain-0.3.1\\windows\\arm-none-eabi\\include
 12356              		.file 20 "c:\\users\\vin\355cius\\documents\\daisytoolchain-0.3.1\\windows\\arm-none-eabi\\include
 12357              		.file 21 "c:\\users\\vin\355cius\\documents\\daisytoolchain-0.3.1\\windows\\arm-none-eabi\\include
 12358              		.file 22 "c:\\users\\vin\355cius\\documents\\daisytoolchain-0.3.1\\windows\\arm-none-eabi\\include
 12359              		.file 23 "c:\\users\\vin\355cius\\documents\\daisytoolchain-0.3.1\\windows\\arm-none-eabi\\include
 12360              		.file 24 "c:\\users\\vin\355cius\\documents\\daisytoolchain-0.3.1\\windows\\arm-none-eabi\\include
 12361              		.file 25 "c:\\users\\vin\355cius\\documents\\daisytoolchain-0.3.1\\windows\\arm-none-eabi\\include
 12362              		.file 26 "c:\\users\\vin\355cius\\documents\\daisytoolchain-0.3.1\\windows\\arm-none-eabi\\include
 12363              		.file 27 "c:\\users\\vin\355cius\\documents\\daisytoolchain-0.3.1\\windows\\arm-none-eabi\\include
 12364              		.file 28 "c:\\users\\vin\355cius\\documents\\daisytoolchain-0.3.1\\windows\\arm-none-eabi\\include
 12365              		.file 29 "c:\\users\\vin\355cius\\documents\\daisytoolchain-0.3.1\\windows\\arm-none-eabi\\include
 12366              		.file 30 "c:\\users\\vin\355cius\\documents\\daisytoolchain-0.3.1\\windows\\arm-none-eabi\\include
 12367              		.file 31 "c:\\users\\vin\355cius\\documents\\daisytoolchain-0.3.1\\windows\\arm-none-eabi\\include
 12368              		.file 32 "c:\\users\\vin\355cius\\documents\\daisytoolchain-0.3.1\\windows\\arm-none-eabi\\include
 12369              		.file 33 "c:\\users\\vin\355cius\\documents\\daisytoolchain-0.3.1\\windows\\arm-none-eabi\\include
 12370              		.file 34 "c:\\users\\vin\355cius\\documents\\daisytoolchain-0.3.1\\windows\\arm-none-eabi\\include
 12371              		.file 35 "c:\\users\\vin\355cius\\documents\\daisytoolchain-0.3.1\\windows\\arm-none-eabi\\include
 12372              		.file 36 "c:\\users\\vin\355cius\\documents\\daisytoolchain-0.3.1\\windows\\arm-none-eabi\\include
 12373              		.file 37 "c:\\users\\vin\355cius\\documents\\daisytoolchain-0.3.1\\windows\\arm-none-eabi\\include
 12374              		.file 38 "../../libdaisy/src/daisy_core.h"
 12375              		.file 39 "../../libdaisy/src/per/tim.h"
 12376              		.file 40 "../../libdaisy/src/per/spi.h"
 12377              		.file 41 "../../libdaisy/src/util/wav_format.h"
 12378              		.file 42 "../../libdaisy/src/per/gpio.h"
 12379              		.file 43 "c:\\users\\vin\355cius\\documents\\daisytoolchain-0.3.1\\windows\\lib\\gcc\\arm-none-eab
 12380              		.file 44 "c:\\users\\vin\355cius\\documents\\daisytoolchain-0.3.1\\windows\\arm-none-eabi\\include
 12381              		.file 45 "../../libdaisy/src/util/oled_fonts.h"
 12382              		.file 46 "../../DaisySP/Source/Control/adenv.h"
 12383              		.file 47 "../../DaisySP/Source/Utility/dsp.h"
 12384              		.file 48 "c:\\users\\vin\355cius\\documents\\daisytoolchain-0.3.1\\windows\\arm-none-eabi\\include
 12385              		.file 49 "c:\\users\\vin\355cius\\documents\\daisytoolchain-0.3.1\\windows\\arm-none-eabi\\include
 12386              		.file 50 "c:\\users\\vin\355cius\\documents\\daisytoolchain-0.3.1\\windows\\arm-none-eabi\\include
 12387              		.file 51 "Menus.h"
 12388              		.file 52 "OledDisplayExtravaganza.h"
 12389              		.file 53 "<built-in>"
 12390              		.file 54 "../../libdaisy/src/dev/sr_595.h"
ARM GAS  C:\Users\VINCIU~1\AppData\Local\Temp\ccdS0pnQ.s 			page 302


DEFINED SYMBOLS
                            *ABS*:00000000 Menus.cpp
C:\Users\VINCIU~1\AppData\Local\Temp\ccdS0pnQ.s:17     .text._ZNK5daisy11OledDisplayINS_13SSD130xDriverILj128ELj64ENS_24SSD130x4WireSpiTransportEEEE5WidthEv:00000000 $t
C:\Users\VINCIU~1\AppData\Local\Temp\ccdS0pnQ.s:26     .text._ZNK5daisy11OledDisplayINS_13SSD130xDriverILj128ELj64ENS_24SSD130x4WireSpiTransportEEEE5WidthEv:00000000 _ZNK5daisy11OledDisplayINS_13SSD130xDriverILj128ELj64ENS_24SSD130x4WireSpiTransportEEEE5WidthEv
C:\Users\VINCIU~1\AppData\Local\Temp\ccdS0pnQ.s:44     .text._ZNK5daisy11OledDisplayINS_13SSD130xDriverILj128ELj64ENS_24SSD130x4WireSpiTransportEEEE6HeightEv:00000000 $t
C:\Users\VINCIU~1\AppData\Local\Temp\ccdS0pnQ.s:52     .text._ZNK5daisy11OledDisplayINS_13SSD130xDriverILj128ELj64ENS_24SSD130x4WireSpiTransportEEEE6HeightEv:00000000 _ZNK5daisy11OledDisplayINS_13SSD130xDriverILj128ELj64ENS_24SSD130x4WireSpiTransportEEEE6HeightEv
C:\Users\VINCIU~1\AppData\Local\Temp\ccdS0pnQ.s:69     .rodata._ZN5MenusC2Ev.str1.4:00000000 $d
C:\Users\VINCIU~1\AppData\Local\Temp\ccdS0pnQ.s:73     .text._ZN5MenusC2Ev:00000000 $t
C:\Users\VINCIU~1\AppData\Local\Temp\ccdS0pnQ.s:81     .text._ZN5MenusC2Ev:00000000 _ZN5MenusC2Ev
C:\Users\VINCIU~1\AppData\Local\Temp\ccdS0pnQ.s:219    .text._ZN5MenusC2Ev:00000068 $d
C:\Users\VINCIU~1\AppData\Local\Temp\ccdS0pnQ.s:81     .text._ZN5MenusC2Ev:00000000 _ZN5MenusC1Ev
C:\Users\VINCIU~1\AppData\Local\Temp\ccdS0pnQ.s:227    .text._ZN5Menus12SplashScreenE23OledDisplayExtravaganza:00000000 $t
C:\Users\VINCIU~1\AppData\Local\Temp\ccdS0pnQ.s:235    .text._ZN5Menus12SplashScreenE23OledDisplayExtravaganza:00000000 _ZN5Menus12SplashScreenE23OledDisplayExtravaganza
C:\Users\VINCIU~1\AppData\Local\Temp\ccdS0pnQ.s:3471   .text._ZN5Menus12SplashScreenE23OledDisplayExtravaganza:00000800 $d
C:\Users\VINCIU~1\AppData\Local\Temp\ccdS0pnQ.s:3486   .text._ZN5Menus10WaveSelectEf:00000000 $t
C:\Users\VINCIU~1\AppData\Local\Temp\ccdS0pnQ.s:3494   .text._ZN5Menus10WaveSelectEf:00000000 _ZN5Menus10WaveSelectEf
C:\Users\VINCIU~1\AppData\Local\Temp\ccdS0pnQ.s:3569   .text._ZN5Menus9OscSelectEf:00000000 $t
C:\Users\VINCIU~1\AppData\Local\Temp\ccdS0pnQ.s:3577   .text._ZN5Menus9OscSelectEf:00000000 _ZN5Menus9OscSelectEf
C:\Users\VINCIU~1\AppData\Local\Temp\ccdS0pnQ.s:3643   .text._ZN5Menus5Menu4E23OledDisplayExtravaganzaNS_8oscVoiceERN7daisysp4AdsrE:00000000 $t
C:\Users\VINCIU~1\AppData\Local\Temp\ccdS0pnQ.s:3651   .text._ZN5Menus5Menu4E23OledDisplayExtravaganzaNS_8oscVoiceERN7daisysp4AdsrE:00000000 _ZN5Menus5Menu4E23OledDisplayExtravaganzaNS_8oscVoiceERN7daisysp4AdsrE
C:\Users\VINCIU~1\AppData\Local\Temp\ccdS0pnQ.s:3874   .text._ZN5daisy25OneBitGraphicsDisplayImplINS_11OledDisplayINS_13SSD130xDriverILj128ELj64ENS_24SSD130x4WireSpiTransportEEEEEE8DrawRectEjjjjbb:00000000 $t
C:\Users\VINCIU~1\AppData\Local\Temp\ccdS0pnQ.s:3882   .text._ZN5daisy25OneBitGraphicsDisplayImplINS_11OledDisplayINS_13SSD130xDriverILj128ELj64ENS_24SSD130x4WireSpiTransportEEEEEE8DrawRectEjjjjbb:00000000 _ZN5daisy25OneBitGraphicsDisplayImplINS_11OledDisplayINS_13SSD130xDriverILj128ELj64ENS_24SSD130x4WireSpiTransportEEEEEE8DrawRectEjjjjbb
C:\Users\VINCIU~1\AppData\Local\Temp\ccdS0pnQ.s:4992   .text._ZN5daisy25OneBitGraphicsDisplayImplINS_11OledDisplayINS_13SSD130xDriverILj128ELj64ENS_24SSD130x4WireSpiTransportEEEEEE11WriteStringEPKc7FontDefb:00000000 $t
C:\Users\VINCIU~1\AppData\Local\Temp\ccdS0pnQ.s:5000   .text._ZN5daisy25OneBitGraphicsDisplayImplINS_11OledDisplayINS_13SSD130xDriverILj128ELj64ENS_24SSD130x4WireSpiTransportEEEEEE11WriteStringEPKc7FontDefb:00000000 _ZN5daisy25OneBitGraphicsDisplayImplINS_11OledDisplayINS_13SSD130xDriverILj128ELj64ENS_24SSD130x4WireSpiTransportEEEEEE11WriteStringEPKc7FontDefb
C:\Users\VINCIU~1\AppData\Local\Temp\ccdS0pnQ.s:5457   .text._ZN5daisy25OneBitGraphicsDisplayImplINS_11OledDisplayINS_13SSD130xDriverILj128ELj64ENS_24SSD130x4WireSpiTransportEEEEEE11WriteStringEPKc7FontDefb:000001b8 $d
C:\Users\VINCIU~1\AppData\Local\Temp\ccdS0pnQ.s:5467   .rodata._ZN5Menus5Menu3E23OledDisplayExtravaganzaNS_8oscVoiceERN7daisysp4AdsrE.str1.4:00000000 $d
C:\Users\VINCIU~1\AppData\Local\Temp\ccdS0pnQ.s:5480   .text._ZN5Menus5Menu3E23OledDisplayExtravaganzaNS_8oscVoiceERN7daisysp4AdsrE:00000000 $t
C:\Users\VINCIU~1\AppData\Local\Temp\ccdS0pnQ.s:5488   .text._ZN5Menus5Menu3E23OledDisplayExtravaganzaNS_8oscVoiceERN7daisysp4AdsrE:00000000 _ZN5Menus5Menu3E23OledDisplayExtravaganzaNS_8oscVoiceERN7daisysp4AdsrE
C:\Users\VINCIU~1\AppData\Local\Temp\ccdS0pnQ.s:6370   .text._ZN5Menus5Menu3E23OledDisplayExtravaganzaNS_8oscVoiceERN7daisysp4AdsrE:00000338 $d
C:\Users\VINCIU~1\AppData\Local\Temp\ccdS0pnQ.s:6394   .text._ZN5Menus5Menu3E23OledDisplayExtravaganzaNS_8oscVoiceERN7daisysp4AdsrE:00000368 $t
C:\Users\VINCIU~1\AppData\Local\Temp\ccdS0pnQ.s:7759   .text._ZN5Menus5Menu3E23OledDisplayExtravaganzaNS_8oscVoiceERN7daisysp4AdsrE:000007e0 $d
C:\Users\VINCIU~1\AppData\Local\Temp\ccdS0pnQ.s:7771   .text._ZN5Menus5Menu3E23OledDisplayExtravaganzaNS_8oscVoiceERN7daisysp4AdsrE:000007f0 $t
C:\Users\VINCIU~1\AppData\Local\Temp\ccdS0pnQ.s:8237   .text._ZN5Menus5Menu3E23OledDisplayExtravaganzaNS_8oscVoiceERN7daisysp4AdsrE:000009a0 $d
C:\Users\VINCIU~1\AppData\Local\Temp\ccdS0pnQ.s:8246   .rodata._ZN5Menus5Menu1E23OledDisplayExtravaganzaRNS_8oscVoiceE.str1.4:00000000 $d
C:\Users\VINCIU~1\AppData\Local\Temp\ccdS0pnQ.s:8259   .text._ZN5Menus5Menu1E23OledDisplayExtravaganzaRNS_8oscVoiceE:00000000 $t
C:\Users\VINCIU~1\AppData\Local\Temp\ccdS0pnQ.s:8267   .text._ZN5Menus5Menu1E23OledDisplayExtravaganzaRNS_8oscVoiceE:00000000 _ZN5Menus5Menu1E23OledDisplayExtravaganzaRNS_8oscVoiceE
C:\Users\VINCIU~1\AppData\Local\Temp\ccdS0pnQ.s:9078   .text._ZN5Menus5Menu1E23OledDisplayExtravaganzaRNS_8oscVoiceE:00000358 $d
C:\Users\VINCIU~1\AppData\Local\Temp\ccdS0pnQ.s:9098   .text._ZN5Menus5Menu1E23OledDisplayExtravaganzaRNS_8oscVoiceE:00000398 $t
C:\Users\VINCIU~1\AppData\Local\Temp\ccdS0pnQ.s:10324  .text._ZN5Menus5Menu1E23OledDisplayExtravaganzaRNS_8oscVoiceE:000006fc $d
C:\Users\VINCIU~1\AppData\Local\Temp\ccdS0pnQ.s:10340  .text._ZN5Menus5Menu1E23OledDisplayExtravaganzaRNS_8oscVoiceE:00000714 $t
C:\Users\VINCIU~1\AppData\Local\Temp\ccdS0pnQ.s:10782  .text._ZN5Menus5Menu1E23OledDisplayExtravaganzaRNS_8oscVoiceE:00000860 $d
C:\Users\VINCIU~1\AppData\Local\Temp\ccdS0pnQ.s:10801  .rodata._ZN5Menus5Menu2E23OledDisplayExtravaganzaNS_8oscVoiceE.str1.4:00000000 $d
C:\Users\VINCIU~1\AppData\Local\Temp\ccdS0pnQ.s:10808  .text._ZN5Menus5Menu2E23OledDisplayExtravaganzaNS_8oscVoiceE:00000000 $t
C:\Users\VINCIU~1\AppData\Local\Temp\ccdS0pnQ.s:10816  .text._ZN5Menus5Menu2E23OledDisplayExtravaganzaNS_8oscVoiceE:00000000 _ZN5Menus5Menu2E23OledDisplayExtravaganzaNS_8oscVoiceE
C:\Users\VINCIU~1\AppData\Local\Temp\ccdS0pnQ.s:11923  .text._ZN5Menus5Menu2E23OledDisplayExtravaganzaNS_8oscVoiceE:00000354 $d
C:\Users\VINCIU~1\AppData\Local\Temp\ccdS0pnQ.s:11937  .text._ZN5Menus5Menu2E23OledDisplayExtravaganzaNS_8oscVoiceE:00000370 $t
C:\Users\VINCIU~1\AppData\Local\Temp\ccdS0pnQ.s:12333  .text._ZN5Menus5Menu2E23OledDisplayExtravaganzaNS_8oscVoiceE:000004e8 $d

UNDEFINED SYMBOLS
sprintf
memset
dsy_gpio_write
_ZN5daisy9SpiHandle16BlockingTransmitEPhjm
Font_6x8
_ZN7daisysp4Adsr7SetTimeEif
_ZN23OledDisplayExtravaganza20drawHorizontalToggleEfffbbPKc
_ZN23OledDisplayExtravaganza10drawSliderEffffff
ARM GAS  C:\Users\VINCIU~1\AppData\Local\Temp\ccdS0pnQ.s 			page 303


_ZN23OledDisplayExtravaganza18drawVerticalToggleEfffbbPKc
_ZN23OledDisplayExtravaganza9WaveIconsEiiiib
Font_7x10
