ARM GAS  C:\Users\VINCIU~1\AppData\Local\Temp\ccF8ydZb.s 			page 1


   1              		.cpu cortex-m7
   2              		.eabi_attribute 28, 1
   3              		.eabi_attribute 20, 1
   4              		.eabi_attribute 21, 1
   5              		.eabi_attribute 23, 3
   6              		.eabi_attribute 24, 1
   7              		.eabi_attribute 25, 1
   8              		.eabi_attribute 26, 1
   9              		.eabi_attribute 30, 2
  10              		.eabi_attribute 34, 1
  11              		.eabi_attribute 18, 4
  12              		.file	"Menus.cpp"
  13              		.text
  14              	.Ltext0:
  15              		.cfi_sections	.debug_frame
  16              		.section	.text._ZNK5daisy11OledDisplayINS_13SSD130xDriverILj128ELj64ENS_24SSD130x4WireSpiTransport
  17              		.align	1
  18              		.p2align 2,,3
  19              		.weak	_ZNK5daisy11OledDisplayINS_13SSD130xDriverILj128ELj64ENS_24SSD130x4WireSpiTransportEEEE5Widt
  20              		.arch armv7e-m
  21              		.syntax unified
  22              		.thumb
  23              		.thumb_func
  24              		.fpu fpv5-d16
  26              	_ZNK5daisy11OledDisplayINS_13SSD130xDriverILj128ELj64ENS_24SSD130x4WireSpiTransportEEEE5WidthEv:
  27              	.LVL0:
  28              	.LFB4337:
  29              		.file 1 "../../libdaisy/src/hid/disp/oled_display.h"
   1:../../libdaisy/src/hid/disp/oled_display.h **** #pragma once
   2:../../libdaisy/src/hid/disp/oled_display.h **** #ifndef DSY_OLED_DISPLAY_H
   3:../../libdaisy/src/hid/disp/oled_display.h **** #define DSY_OLED_DISPLAY_H /**< Macro */
   4:../../libdaisy/src/hid/disp/oled_display.h **** 
   5:../../libdaisy/src/hid/disp/oled_display.h **** #include "display.h"
   6:../../libdaisy/src/hid/disp/oled_display.h **** 
   7:../../libdaisy/src/hid/disp/oled_display.h **** namespace daisy
   8:../../libdaisy/src/hid/disp/oled_display.h **** {
   9:../../libdaisy/src/hid/disp/oled_display.h **** /** 
  10:../../libdaisy/src/hid/disp/oled_display.h ****  * This class is for drawing to a monochrome OLED display. 
  11:../../libdaisy/src/hid/disp/oled_display.h **** */
  12:../../libdaisy/src/hid/disp/oled_display.h **** template <typename DisplayDriver>
  13:../../libdaisy/src/hid/disp/oled_display.h **** class OledDisplay : public OneBitGraphicsDisplayImpl<OledDisplay<DisplayDriver>>
  14:../../libdaisy/src/hid/disp/oled_display.h **** {
  15:../../libdaisy/src/hid/disp/oled_display.h ****   public:
  16:../../libdaisy/src/hid/disp/oled_display.h ****     OledDisplay() {}
  17:../../libdaisy/src/hid/disp/oled_display.h ****     virtual ~OledDisplay() {}
  18:../../libdaisy/src/hid/disp/oled_display.h **** 
  19:../../libdaisy/src/hid/disp/oled_display.h ****     struct Config
  20:../../libdaisy/src/hid/disp/oled_display.h ****     {
  21:../../libdaisy/src/hid/disp/oled_display.h ****         typename DisplayDriver::Config driver_config;
  22:../../libdaisy/src/hid/disp/oled_display.h ****     };
  23:../../libdaisy/src/hid/disp/oled_display.h **** 
  24:../../libdaisy/src/hid/disp/oled_display.h ****     void Init(Config config) { driver_.Init(config.driver_config); }
  25:../../libdaisy/src/hid/disp/oled_display.h **** 
  26:../../libdaisy/src/hid/disp/oled_display.h ****     uint16_t Height() const override { return driver_.Height(); }
  27:../../libdaisy/src/hid/disp/oled_display.h ****     uint16_t Width() const override { return driver_.Width(); }
  30              		.loc 1 27 14 view -0
  31              		.cfi_startproc
ARM GAS  C:\Users\VINCIU~1\AppData\Local\Temp\ccF8ydZb.s 			page 2


  32              		@ args = 0, pretend = 0, frame = 0
  33              		@ frame_needed = 0, uses_anonymous_args = 0
  34              		@ link register save eliminated.
  35              		.loc 1 27 63 is_stmt 0 view .LVU1
  36 0000 8020     		movs	r0, #128
  37              	.LVL1:
  38              		.loc 1 27 63 view .LVU2
  39 0002 7047     		bx	lr
  40              		.cfi_endproc
  41              	.LFE4337:
  43              		.section	.text._ZNK5daisy11OledDisplayINS_13SSD130xDriverILj128ELj64ENS_24SSD130x4WireSpiTransport
  44              		.align	1
  45              		.p2align 2,,3
  46              		.weak	_ZNK5daisy11OledDisplayINS_13SSD130xDriverILj128ELj64ENS_24SSD130x4WireSpiTransportEEEE6Heig
  47              		.syntax unified
  48              		.thumb
  49              		.thumb_func
  50              		.fpu fpv5-d16
  52              	_ZNK5daisy11OledDisplayINS_13SSD130xDriverILj128ELj64ENS_24SSD130x4WireSpiTransportEEEE6HeightEv:
  53              	.LVL2:
  54              	.LFB4338:
  26:../../libdaisy/src/hid/disp/oled_display.h ****     uint16_t Width() const override { return driver_.Width(); }
  55              		.loc 1 26 14 is_stmt 1 view -0
  56              		.cfi_startproc
  57              		@ args = 0, pretend = 0, frame = 0
  58              		@ frame_needed = 0, uses_anonymous_args = 0
  59              		@ link register save eliminated.
  26:../../libdaisy/src/hid/disp/oled_display.h ****     uint16_t Width() const override { return driver_.Width(); }
  60              		.loc 1 26 65 is_stmt 0 view .LVU4
  61 0000 4020     		movs	r0, #64
  62              	.LVL3:
  26:../../libdaisy/src/hid/disp/oled_display.h ****     uint16_t Width() const override { return driver_.Width(); }
  63              		.loc 1 26 65 view .LVU5
  64 0002 7047     		bx	lr
  65              		.cfi_endproc
  66              	.LFE4338:
  68              		.section	.rodata._ZN5MenusC2Ev.str1.4,"aMS",%progbits,1
  69              		.align	2
  70              	.LC0:
  71 0000 54696D65 		.ascii	"Time_50%%\000"
  71      5F353025 
  71      2500
  72              		.section	.text._ZN5MenusC2Ev,"ax",%progbits
  73              		.align	1
  74              		.p2align 2,,3
  75              		.global	_ZN5MenusC2Ev
  76              		.syntax unified
  77              		.thumb
  78              		.thumb_func
  79              		.fpu fpv5-d16
  81              	_ZN5MenusC2Ev:
  82              	.LVL4:
  83              	.LFB4035:
  84              		.file 2 "Menus.cpp"
   1:Menus.cpp     **** #include "Menus.h"
   2:Menus.cpp     **** 
   3:Menus.cpp     **** 
ARM GAS  C:\Users\VINCIU~1\AppData\Local\Temp\ccF8ydZb.s 			page 3


   4:Menus.cpp     **** Menus::Menus()
  85              		.loc 2 4 1 is_stmt 1 view -0
  86              		.cfi_startproc
  87              		@ args = 0, pretend = 0, frame = 0
  88              		@ frame_needed = 0, uses_anonymous_args = 0
  89              	.LBB206:
   5:Menus.cpp     **** {
   6:Menus.cpp     ****     this->on                      = true;
   7:Menus.cpp     ****     this->analogRead              = 0;
  90              		.loc 2 7 35 is_stmt 0 view .LVU7
  91 0000 0021     		movs	r1, #0
   6:Menus.cpp     ****     this->analogRead              = 0;
  92              		.loc 2 6 35 view .LVU8
  93 0002 0123     		movs	r3, #1
   8:Menus.cpp     ****     this->analogLastRead          = 0;
   9:Menus.cpp     ****     this->updateValue             = false;
  94              		.loc 2 9 35 view .LVU9
  95 0004 0022     		movs	r2, #0
  10:Menus.cpp     ****     this->menuState               = 0;
  11:Menus.cpp     ****     this->menuStateGlide          = 0;
  12:Menus.cpp     ****     this->OscSelector             = true;
  13:Menus.cpp     ****     this->synthOn                 = 1;
  14:Menus.cpp     ****     this->synthOn2                = 1;
  15:Menus.cpp     ****     this->freqFine2               = 0;
  16:Menus.cpp     ****     this->freqFine                = 0;
  17:Menus.cpp     ****     this->analogRead              = 0;
  18:Menus.cpp     ****     this->glideTime               = 1;
  96              		.loc 2 18 35 view .LVU10
  97 0006 4FF07E5C 		mov	ip, #1065353216
  98              	.LBE206:
   4:Menus.cpp     ****     this->on                      = true;
  99              		.loc 2 4 1 view .LVU11
 100 000a 10B5     		push	{r4, lr}
 101              		.cfi_def_cfa_offset 8
 102              		.cfi_offset 4, -8
 103              		.cfi_offset 14, -4
   4:Menus.cpp     ****     this->on                      = true;
 104              		.loc 2 4 1 view .LVU12
 105 000c 0446     		mov	r4, r0
 106              	.LVL5:
 107              	.LBB213:
 108              	.LBB207:
 109              	.LBI207:
 110              		.file 3 "../../libdaisy/src/hid/encoder.h"
   1:../../libdaisy/src/hid/encoder.h **** #pragma once
   2:../../libdaisy/src/hid/encoder.h **** #ifndef DSY_ENCODER_H
   3:../../libdaisy/src/hid/encoder.h **** #define DSY_ENCODER_H
   4:../../libdaisy/src/hid/encoder.h **** #include "daisy_core.h"
   5:../../libdaisy/src/hid/encoder.h **** #include "per/gpio.h"
   6:../../libdaisy/src/hid/encoder.h **** #include "hid/switch.h"
   7:../../libdaisy/src/hid/encoder.h **** 
   8:../../libdaisy/src/hid/encoder.h **** namespace daisy
   9:../../libdaisy/src/hid/encoder.h **** {
  10:../../libdaisy/src/hid/encoder.h **** /** 
  11:../../libdaisy/src/hid/encoder.h ****     @brief Generic Class for handling Quadrature Encoders \n 
  12:../../libdaisy/src/hid/encoder.h ****     Inspired/influenced by Mutable Instruments (pichenettes) Encoder classes
  13:../../libdaisy/src/hid/encoder.h ****     @author Stephen Hensley
ARM GAS  C:\Users\VINCIU~1\AppData\Local\Temp\ccF8ydZb.s 			page 4


  14:../../libdaisy/src/hid/encoder.h ****     @date December 2019
  15:../../libdaisy/src/hid/encoder.h ****     @ingroup controls
  16:../../libdaisy/src/hid/encoder.h **** */
  17:../../libdaisy/src/hid/encoder.h **** class Encoder
  18:../../libdaisy/src/hid/encoder.h **** {
  19:../../libdaisy/src/hid/encoder.h ****   public:
  20:../../libdaisy/src/hid/encoder.h ****     Encoder() {}
 111              		.loc 3 20 5 is_stmt 1 view .LVU13
 112              	.LBB208:
 113              	.LBI208:
 114              		.file 4 "../../libdaisy/src/hid/switch.h"
   1:../../libdaisy/src/hid/switch.h **** #pragma once
   2:../../libdaisy/src/hid/switch.h **** #ifndef DSY_SWITCH_H
   3:../../libdaisy/src/hid/switch.h **** #define DSY_SWITCH_H
   4:../../libdaisy/src/hid/switch.h **** #include "daisy_core.h"
   5:../../libdaisy/src/hid/switch.h **** #include "per/gpio.h"
   6:../../libdaisy/src/hid/switch.h **** 
   7:../../libdaisy/src/hid/switch.h **** namespace daisy
   8:../../libdaisy/src/hid/switch.h **** {
   9:../../libdaisy/src/hid/switch.h **** /** 
  10:../../libdaisy/src/hid/switch.h ****     Generic Class for handling momentary/latching switches \n 
  11:../../libdaisy/src/hid/switch.h ****     Inspired/influenced by Mutable Instruments (pichenettes) Switch classes
  12:../../libdaisy/src/hid/switch.h ****     @author Stephen Hensley
  13:../../libdaisy/src/hid/switch.h ****     @date December 2019
  14:../../libdaisy/src/hid/switch.h ****     @ingroup controls
  15:../../libdaisy/src/hid/switch.h **** */
  16:../../libdaisy/src/hid/switch.h **** class Switch
  17:../../libdaisy/src/hid/switch.h **** {
  18:../../libdaisy/src/hid/switch.h ****   public:
  19:../../libdaisy/src/hid/switch.h ****     /** Specifies the expected behavior of the switch */
  20:../../libdaisy/src/hid/switch.h ****     enum Type
  21:../../libdaisy/src/hid/switch.h ****     {
  22:../../libdaisy/src/hid/switch.h ****         TYPE_TOGGLE,    /**< & */
  23:../../libdaisy/src/hid/switch.h ****         TYPE_MOMENTARY, /**< & */
  24:../../libdaisy/src/hid/switch.h ****     };
  25:../../libdaisy/src/hid/switch.h ****     /** Specifies whether the pressed is HIGH or LOW. */
  26:../../libdaisy/src/hid/switch.h ****     enum Polarity
  27:../../libdaisy/src/hid/switch.h ****     {
  28:../../libdaisy/src/hid/switch.h ****         POLARITY_NORMAL,   /**< & */
  29:../../libdaisy/src/hid/switch.h ****         POLARITY_INVERTED, /**< & */
  30:../../libdaisy/src/hid/switch.h ****     };
  31:../../libdaisy/src/hid/switch.h **** 
  32:../../libdaisy/src/hid/switch.h ****     /** Specifies whether to use built-in Pull Up/Down resistors to hold button at a given state wh
  33:../../libdaisy/src/hid/switch.h ****     enum Pull
  34:../../libdaisy/src/hid/switch.h ****     {
  35:../../libdaisy/src/hid/switch.h ****         PULL_UP,   /**< & */
  36:../../libdaisy/src/hid/switch.h ****         PULL_DOWN, /**< & */
  37:../../libdaisy/src/hid/switch.h ****         PULL_NONE, /**< & */
  38:../../libdaisy/src/hid/switch.h ****     };
  39:../../libdaisy/src/hid/switch.h **** 
  40:../../libdaisy/src/hid/switch.h ****     Switch() {}
 115              		.loc 4 40 5 view .LVU14
 116              		.loc 4 40 5 is_stmt 0 view .LVU15
 117              	.LBE208:
 118              	.LBE207:
 119              	.LBB209:
 120              	.LBI209:
ARM GAS  C:\Users\VINCIU~1\AppData\Local\Temp\ccF8ydZb.s 			page 5


 121              		.loc 3 20 5 is_stmt 1 view .LVU16
 122              	.LBB210:
 123              	.LBI210:
 124              		.loc 4 40 5 view .LVU17
 125              		.loc 4 40 5 is_stmt 0 view .LVU18
 126              	.LBE210:
 127              	.LBE209:
 128              	.LBB211:
 129              	.LBI211:
 130              		.loc 4 40 5 is_stmt 1 view .LVU19
 131              		.loc 4 40 5 is_stmt 0 view .LVU20
 132              	.LBE211:
 133              	.LBB212:
 134              	.LBI212:
 135              		.loc 4 40 5 is_stmt 1 view .LVU21
 136              		.loc 4 40 5 is_stmt 0 view .LVU22
 137              	.LBE212:
   6:Menus.cpp     ****     this->analogRead              = 0;
 138              		.loc 2 6 5 is_stmt 1 view .LVU23
   7:Menus.cpp     ****     this->analogLastRead          = 0;
 139              		.loc 2 7 35 is_stmt 0 view .LVU24
 140 000e 0160     		str	r1, [r0]	@ float
   8:Menus.cpp     ****     this->updateValue             = false;
 141              		.loc 2 8 35 view .LVU25
 142 0010 4160     		str	r1, [r0, #4]	@ float
  15:Menus.cpp     ****     this->freqFine                = 0;
 143              		.loc 2 15 35 view .LVU26
 144 0012 C0F84811 		str	r1, [r0, #328]	@ float
  16:Menus.cpp     ****     this->analogRead              = 0;
 145              		.loc 2 16 35 view .LVU27
 146 0016 C0F84411 		str	r1, [r0, #324]	@ float
  19:Menus.cpp     ****     this->circleGlideTimePosition = 64;
 147              		.loc 2 19 35 view .LVU28
 148 001a 4FF08541 		mov	r1, #1115684864
   6:Menus.cpp     ****     this->analogRead              = 0;
 149              		.loc 2 6 35 view .LVU29
 150 001e 80F86831 		strb	r3, [r0, #360]
   7:Menus.cpp     ****     this->analogLastRead          = 0;
 151              		.loc 2 7 5 is_stmt 1 view .LVU30
   8:Menus.cpp     ****     this->updateValue             = false;
 152              		.loc 2 8 5 view .LVU31
   9:Menus.cpp     ****     this->menuState               = 0;
 153              		.loc 2 9 5 view .LVU32
   9:Menus.cpp     ****     this->menuState               = 0;
 154              		.loc 2 9 35 is_stmt 0 view .LVU33
 155 0022 0272     		strb	r2, [r0, #8]
  10:Menus.cpp     ****     this->menuStateGlide          = 0;
 156              		.loc 2 10 5 is_stmt 1 view .LVU34
  12:Menus.cpp     ****     this->synthOn                 = 1;
 157              		.loc 2 12 35 is_stmt 0 view .LVU35
 158 0024 80F87430 		strb	r3, [r0, #116]
  18:Menus.cpp     ****     this->circleGlideTimePosition = 64;
 159              		.loc 2 18 35 view .LVU36
 160 0028 C0F894C0 		str	ip, [r0, #148]	@ float
  20:Menus.cpp     ****     this->state                   = 1;
 161              		.loc 2 20 35 view .LVU37
 162 002c C0F85031 		str	r3, [r0, #336]
ARM GAS  C:\Users\VINCIU~1\AppData\Local\Temp\ccF8ydZb.s 			page 6


  19:Menus.cpp     ****     this->state                   = 1;
 163              		.loc 2 19 35 view .LVU38
 164 0030 C0F88C10 		str	r1, [r0, #140]	@ float
  21:Menus.cpp     ****     this->stateWave               = 0;
  22:Menus.cpp     ****     this->toggleState             = 1;
  23:Menus.cpp     ****     this->toggleState2            = 1;
  24:Menus.cpp     ****     this->setWave                 = 0;
  25:Menus.cpp     ****     this->setWave2                = 0;
  26:Menus.cpp     **** 
  27:Menus.cpp     ****     sprintf(this->buffPitchTime, "Time_50%%");
 165              		.loc 2 27 12 view .LVU39
 166 0034 0849     		ldr	r1, .L6
  11:Menus.cpp     ****     this->OscSelector             = true;
 167              		.loc 2 11 35 view .LVU40
 168 0036 C0E91B22 		strd	r2, r2, [r0, #108]
  12:Menus.cpp     ****     this->synthOn                 = 1;
 169              		.loc 2 12 5 is_stmt 1 view .LVU41
  13:Menus.cpp     ****     this->synthOn2                = 1;
 170              		.loc 2 13 5 view .LVU42
  14:Menus.cpp     ****     this->freqFine2               = 0;
 171              		.loc 2 14 35 is_stmt 0 view .LVU43
 172 003a C0E94F33 		strd	r3, r3, [r0, #316]
  15:Menus.cpp     ****     this->freqFine                = 0;
 173              		.loc 2 15 5 is_stmt 1 view .LVU44
  16:Menus.cpp     ****     this->analogRead              = 0;
 174              		.loc 2 16 5 view .LVU45
  17:Menus.cpp     ****     this->glideTime               = 1;
 175              		.loc 2 17 5 view .LVU46
  18:Menus.cpp     ****     this->circleGlideTimePosition = 64;
 176              		.loc 2 18 5 view .LVU47
  19:Menus.cpp     ****     this->state                   = 1;
 177              		.loc 2 19 5 view .LVU48
  20:Menus.cpp     ****     this->stateWave               = 0;
 178              		.loc 2 20 5 view .LVU49
  21:Menus.cpp     ****     this->toggleState             = 1;
 179              		.loc 2 21 5 view .LVU50
  22:Menus.cpp     ****     this->toggleState2            = 1;
 180              		.loc 2 22 35 is_stmt 0 view .LVU51
 181 003e C4E95523 		strd	r2, r3, [r4, #340]
  23:Menus.cpp     ****     this->setWave                 = 0;
 182              		.loc 2 23 5 is_stmt 1 view .LVU52
  24:Menus.cpp     ****     this->setWave2                = 0;
 183              		.loc 2 24 35 is_stmt 0 view .LVU53
 184 0042 C4E95732 		strd	r3, r2, [r4, #348]
  25:Menus.cpp     **** 
 185              		.loc 2 25 5 is_stmt 1 view .LVU54
  25:Menus.cpp     **** 
 186              		.loc 2 25 35 is_stmt 0 view .LVU55
 187 0046 C4F86421 		str	r2, [r4, #356]
 188              		.loc 2 27 5 is_stmt 1 view .LVU56
 189              		.loc 2 27 12 is_stmt 0 view .LVU57
 190 004a 00F58E70 		add	r0, r0, #284
 191              	.LVL6:
 192              		.loc 2 27 12 view .LVU58
 193 004e FFF7FEFF 		bl	sprintf
 194              	.LVL7:
 195              	.LBE213:
ARM GAS  C:\Users\VINCIU~1\AppData\Local\Temp\ccF8ydZb.s 			page 7


  28:Menus.cpp     **** }
 196              		.loc 2 28 1 view .LVU59
 197 0052 2046     		mov	r0, r4
 198 0054 10BD     		pop	{r4, pc}
 199              	.LVL8:
 200              	.L7:
 201              		.loc 2 28 1 view .LVU60
 202 0056 00BF     		.align	2
 203              	.L6:
 204 0058 00000000 		.word	.LC0
 205              		.cfi_endproc
 206              	.LFE4035:
 208              		.global	_ZN5MenusC1Ev
 209              		.thumb_set _ZN5MenusC1Ev,_ZN5MenusC2Ev
 210              		.section	.text._ZN5Menus10WaveSelectEf,"ax",%progbits
 211              		.align	1
 212              		.p2align 2,,3
 213              		.global	_ZN5Menus10WaveSelectEf
 214              		.syntax unified
 215              		.thumb
 216              		.thumb_func
 217              		.fpu fpv5-d16
 219              	_ZN5Menus10WaveSelectEf:
 220              	.LVL9:
 221              	.LFB4037:
  29:Menus.cpp     **** 
  30:Menus.cpp     **** int Menus::WaveSelect(float select)
  31:Menus.cpp     **** {
 222              		.loc 2 31 1 is_stmt 1 view -0
 223              		.cfi_startproc
 224              		@ args = 0, pretend = 0, frame = 0
 225              		@ frame_needed = 0, uses_anonymous_args = 0
 226              		@ link register save eliminated.
  32:Menus.cpp     ****     this->stateWave += this->encoderRight.Increment();
 227              		.loc 2 32 5 view .LVU62
 228              		.loc 2 32 21 is_stmt 0 view .LVU63
 229 0000 D0F85431 		ldr	r3, [r0, #340]
  31:Menus.cpp     ****     this->stateWave += this->encoderRight.Increment();
 230              		.loc 2 31 1 view .LVU64
 231 0004 0246     		mov	r2, r0
 232              	.LVL10:
 233              	.LBB214:
 234              	.LBI214:
  21:../../libdaisy/src/hid/encoder.h ****     ~Encoder() {}
  22:../../libdaisy/src/hid/encoder.h **** 
  23:../../libdaisy/src/hid/encoder.h ****     /** Initializes the encoder with the specified hardware pins.
  24:../../libdaisy/src/hid/encoder.h **** */
  25:../../libdaisy/src/hid/encoder.h ****     //
  26:../../libdaisy/src/hid/encoder.h ****     /** Update rate should be the rate at which Debounce() gets called
  27:../../libdaisy/src/hid/encoder.h **** in Hertz.
  28:../../libdaisy/src/hid/encoder.h **** */
  29:../../libdaisy/src/hid/encoder.h ****     //
  30:../../libdaisy/src/hid/encoder.h ****     void
  31:../../libdaisy/src/hid/encoder.h ****     Init(dsy_gpio_pin a, dsy_gpio_pin b, dsy_gpio_pin click, float update_rate);
  32:../../libdaisy/src/hid/encoder.h ****     /** Called at update_rate to debounce and handle timing for the switch.
  33:../../libdaisy/src/hid/encoder.h **** */
  34:../../libdaisy/src/hid/encoder.h ****     //
ARM GAS  C:\Users\VINCIU~1\AppData\Local\Temp\ccF8ydZb.s 			page 8


  35:../../libdaisy/src/hid/encoder.h ****     /** In order for events not to be missed, its important that the Edge/Pressed checks
  36:../../libdaisy/src/hid/encoder.h **** be made at the same rate as the debounce function is being called.
  37:../../libdaisy/src/hid/encoder.h **** */
  38:../../libdaisy/src/hid/encoder.h ****     void Debounce();
  39:../../libdaisy/src/hid/encoder.h ****     /** Returns +1 if the encoder was turned clockwise, -1 if it was turned counter-clockwise, or 0
  40:../../libdaisy/src/hid/encoder.h **** */
  41:../../libdaisy/src/hid/encoder.h ****     inline int32_t Increment() const { return inc_; }
 235              		.loc 3 41 20 is_stmt 1 view .LVU65
 236              	.LBB215:
 237              		.loc 3 41 40 view .LVU66
 238              		.loc 3 41 40 is_stmt 0 view .LVU67
 239              	.LBE215:
 240              	.LBE214:
 241              		.loc 2 32 21 view .LVU68
 242 0006 806C     		ldr	r0, [r0, #72]
 243              	.LVL11:
 244              		.loc 2 32 21 view .LVU69
 245 0008 1844     		add	r0, r0, r3
  33:Menus.cpp     ****     int state;
 246              		.loc 2 33 5 is_stmt 1 view .LVU70
  34:Menus.cpp     ****     if(this->stateWave > 3)
 247              		.loc 2 34 5 view .LVU71
 248 000a 0328     		cmp	r0, #3
 249 000c 04DD     		ble	.L9
  35:Menus.cpp     ****     {
  36:Menus.cpp     ****         this->stateWave = 3;
 250              		.loc 2 36 9 view .LVU72
 251              		.loc 2 36 25 is_stmt 0 view .LVU73
 252 000e 0323     		movs	r3, #3
  37:Menus.cpp     ****     }
  38:Menus.cpp     ****     if(this->stateWave < 0)
  39:Menus.cpp     ****     {
  40:Menus.cpp     ****         this->stateWave = 0;
  41:Menus.cpp     ****     }
  42:Menus.cpp     **** 
  43:Menus.cpp     ****     if(this->stateWave == 0)
  44:Menus.cpp     ****     {
  45:Menus.cpp     ****         state = 0;
  46:Menus.cpp     ****         return state;
  47:Menus.cpp     ****     }
  48:Menus.cpp     ****     else if(this->stateWave == 1)
  49:Menus.cpp     ****     {
  50:Menus.cpp     ****         state = 1;
  51:Menus.cpp     ****         return state;
  52:Menus.cpp     ****     }
  53:Menus.cpp     ****     else if(this->stateWave == 2)
  54:Menus.cpp     ****     {
  55:Menus.cpp     ****         state = 2;
  56:Menus.cpp     ****         return state;
  57:Menus.cpp     ****     }
  58:Menus.cpp     ****     else if(this->stateWave == 3)
  59:Menus.cpp     ****     {
  60:Menus.cpp     ****         state = 3;
  61:Menus.cpp     ****         return state;
 253              		.loc 2 61 16 view .LVU74
 254 0010 1846     		mov	r0, r3
  36:Menus.cpp     ****     }
ARM GAS  C:\Users\VINCIU~1\AppData\Local\Temp\ccF8ydZb.s 			page 9


 255              		.loc 2 36 25 view .LVU75
 256 0012 C2F85431 		str	r3, [r2, #340]
  38:Menus.cpp     ****     {
 257              		.loc 2 38 5 is_stmt 1 view .LVU76
  43:Menus.cpp     ****     {
 258              		.loc 2 43 5 view .LVU77
  48:Menus.cpp     ****     {
 259              		.loc 2 48 10 view .LVU78
 260 0016 7047     		bx	lr
 261              	.L9:
  38:Menus.cpp     ****     {
 262              		.loc 2 38 5 view .LVU79
 263 0018 0028     		cmp	r0, #0
 264 001a 04DA     		bge	.L11
  40:Menus.cpp     ****     }
 265              		.loc 2 40 9 view .LVU80
  40:Menus.cpp     ****     }
 266              		.loc 2 40 25 is_stmt 0 view .LVU81
 267 001c 0023     		movs	r3, #0
  46:Menus.cpp     ****     }
 268              		.loc 2 46 16 view .LVU82
 269 001e 1846     		mov	r0, r3
  40:Menus.cpp     ****     }
 270              		.loc 2 40 25 view .LVU83
 271 0020 C2F85431 		str	r3, [r2, #340]
  43:Menus.cpp     ****     {
 272              		.loc 2 43 5 is_stmt 1 view .LVU84
 273 0024 7047     		bx	lr
 274              	.L11:
  32:Menus.cpp     ****     int state;
 275              		.loc 2 32 21 is_stmt 0 view .LVU85
 276 0026 C2F85401 		str	r0, [r2, #340]
  43:Menus.cpp     ****     {
 277              		.loc 2 43 5 is_stmt 1 view .LVU86
 278 002a 04D0     		beq	.L8
  48:Menus.cpp     ****     {
 279              		.loc 2 48 10 view .LVU87
 280 002c 0128     		cmp	r0, #1
 281 002e 02D0     		beq	.L8
  53:Menus.cpp     ****     {
 282              		.loc 2 53 10 view .LVU88
 283              		.loc 2 61 16 is_stmt 0 view .LVU89
 284 0030 0228     		cmp	r0, #2
 285 0032 18BF     		it	ne
 286 0034 0320     		movne	r0, #3
 287              	.L8:
  62:Menus.cpp     ****     }
  63:Menus.cpp     **** }
 288              		.loc 2 63 1 view .LVU90
 289 0036 7047     		bx	lr
 290              		.cfi_endproc
 291              	.LFE4037:
 293              		.section	.text._ZN5Menus9OscSelectEf,"ax",%progbits
 294              		.align	1
 295              		.p2align 2,,3
 296              		.global	_ZN5Menus9OscSelectEf
 297              		.syntax unified
ARM GAS  C:\Users\VINCIU~1\AppData\Local\Temp\ccF8ydZb.s 			page 10


 298              		.thumb
 299              		.thumb_func
 300              		.fpu fpv5-d16
 302              	_ZN5Menus9OscSelectEf:
 303              	.LVL12:
 304              	.LFB4038:
  64:Menus.cpp     **** 
  65:Menus.cpp     **** bool Menus::OscSelect(float select)
  66:Menus.cpp     **** {
 305              		.loc 2 66 1 is_stmt 1 view -0
 306              		.cfi_startproc
 307              		@ args = 0, pretend = 0, frame = 0
 308              		@ frame_needed = 0, uses_anonymous_args = 0
 309              		@ link register save eliminated.
  67:Menus.cpp     ****     this->state += this->encoderRight.Increment();
 310              		.loc 2 67 5 view .LVU92
 311              		.loc 2 67 17 is_stmt 0 view .LVU93
 312 0000 D0F85021 		ldr	r2, [r0, #336]
  66:Menus.cpp     ****     this->state += this->encoderRight.Increment();
 313              		.loc 2 66 1 view .LVU94
 314 0004 0346     		mov	r3, r0
 315              	.LVL13:
 316              	.LBB216:
 317              	.LBI216:
 318              		.loc 3 41 20 is_stmt 1 view .LVU95
 319              	.LBB217:
 320              		.loc 3 41 40 view .LVU96
 321              		.loc 3 41 40 is_stmt 0 view .LVU97
 322              	.LBE217:
 323              	.LBE216:
 324              		.loc 2 67 17 view .LVU98
 325 0006 816C     		ldr	r1, [r0, #72]
 326 0008 0A44     		add	r2, r2, r1
  68:Menus.cpp     ****     if(this->state > 1)
 327              		.loc 2 68 5 is_stmt 1 view .LVU99
 328 000a 012A     		cmp	r2, #1
 329 000c 04DD     		ble	.L21
 330              	.L17:
  69:Menus.cpp     ****     {
  70:Menus.cpp     ****         this->state = 1;
  71:Menus.cpp     ****     }
  72:Menus.cpp     ****     if(this->state < 0)
  73:Menus.cpp     ****     {
  74:Menus.cpp     ****         this->state = 0;
  75:Menus.cpp     ****     }
  76:Menus.cpp     **** 
  77:Menus.cpp     **** 
  78:Menus.cpp     ****     if(this->state == 1)
  79:Menus.cpp     ****     {
  80:Menus.cpp     ****         state = true;
 331              		.loc 2 80 15 is_stmt 0 view .LVU100
 332 000e 0122     		movs	r2, #1
  81:Menus.cpp     ****         return state;
 333              		.loc 2 81 16 view .LVU101
 334 0010 1046     		mov	r0, r2
 335              	.LVL14:
 336              		.loc 2 81 16 view .LVU102
ARM GAS  C:\Users\VINCIU~1\AppData\Local\Temp\ccF8ydZb.s 			page 11


 337 0012 C3F85021 		str	r2, [r3, #336]
  82:Menus.cpp     ****     }
  83:Menus.cpp     ****     else
  84:Menus.cpp     ****     {
  85:Menus.cpp     ****         state = false;
  86:Menus.cpp     ****         return state;
  87:Menus.cpp     ****     }
  88:Menus.cpp     **** }
 338              		.loc 2 88 1 view .LVU103
 339 0016 7047     		bx	lr
 340              	.LVL15:
 341              	.L21:
  72:Menus.cpp     ****     {
 342              		.loc 2 72 5 is_stmt 1 view .LVU104
 343 0018 002A     		cmp	r2, #0
 344 001a 04DA     		bge	.L22
 345              	.L20:
  85:Menus.cpp     ****         return state;
 346              		.loc 2 85 15 is_stmt 0 view .LVU105
 347 001c 0022     		movs	r2, #0
  86:Menus.cpp     ****     }
 348              		.loc 2 86 16 view .LVU106
 349 001e 1046     		mov	r0, r2
 350              	.LVL16:
  86:Menus.cpp     ****     }
 351              		.loc 2 86 16 view .LVU107
 352 0020 C3F85021 		str	r2, [r3, #336]
 353              		.loc 2 88 1 view .LVU108
 354 0024 7047     		bx	lr
 355              	.LVL17:
 356              	.L22:
  78:Menus.cpp     ****     {
 357              		.loc 2 78 5 view .LVU109
 358 0026 012A     		cmp	r2, #1
  67:Menus.cpp     ****     if(this->state > 1)
 359              		.loc 2 67 17 view .LVU110
 360 0028 C0F85021 		str	r2, [r0, #336]
  78:Menus.cpp     ****     {
 361              		.loc 2 78 5 is_stmt 1 view .LVU111
 362 002c EFD0     		beq	.L17
 363 002e F5E7     		b	.L20
 364              		.cfi_endproc
 365              	.LFE4038:
 367              		.section	.text._ZN5daisy25OneBitGraphicsDisplayImplINS_11OledDisplayINS_13SSD130xDriverILj128ELj64
 368              		.align	1
 369              		.p2align 2,,3
 370              		.weak	_ZN5daisy25OneBitGraphicsDisplayImplINS_11OledDisplayINS_13SSD130xDriverILj128ELj64ENS_24SSD
 371              		.syntax unified
 372              		.thumb
 373              		.thumb_func
 374              		.fpu fpv5-d16
 376              	_ZN5daisy25OneBitGraphicsDisplayImplINS_11OledDisplayINS_13SSD130xDriverILj128ELj64ENS_24SSD130x4Wi
 377              	.LVL18:
 378              	.LFB4336:
 379              		.file 5 "../../libdaisy/src/hid/disp/display.h"
   1:../../libdaisy/src/hid/disp/display.h **** #pragma once
   2:../../libdaisy/src/hid/disp/display.h **** #ifndef DSY_DISPLAY_H
ARM GAS  C:\Users\VINCIU~1\AppData\Local\Temp\ccF8ydZb.s 			page 12


   3:../../libdaisy/src/hid/disp/display.h **** #define DSY_DISPLAY_H /**< Macro */
   4:../../libdaisy/src/hid/disp/display.h **** #include <cmath>
   5:../../libdaisy/src/hid/disp/display.h **** #include "util/oled_fonts.h"
   6:../../libdaisy/src/hid/disp/display.h **** #include "daisy_core.h"
   7:../../libdaisy/src/hid/disp/display.h **** 
   8:../../libdaisy/src/hid/disp/display.h **** #ifndef deg2rad
   9:../../libdaisy/src/hid/disp/display.h **** #define deg2rad(deg) ((deg)*3.141592 / 180.0)
  10:../../libdaisy/src/hid/disp/display.h **** #endif
  11:../../libdaisy/src/hid/disp/display.h **** 
  12:../../libdaisy/src/hid/disp/display.h **** namespace daisy
  13:../../libdaisy/src/hid/disp/display.h **** {
  14:../../libdaisy/src/hid/disp/display.h **** /** 
  15:../../libdaisy/src/hid/disp/display.h ****  * This interface is used as a base class for all types of 1bit-per-pixel
  16:../../libdaisy/src/hid/disp/display.h ****  * graphics displays.
  17:../../libdaisy/src/hid/disp/display.h **** */
  18:../../libdaisy/src/hid/disp/display.h **** class OneBitGraphicsDisplay
  19:../../libdaisy/src/hid/disp/display.h **** {
  20:../../libdaisy/src/hid/disp/display.h ****   public:
  21:../../libdaisy/src/hid/disp/display.h ****     OneBitGraphicsDisplay() {}
  22:../../libdaisy/src/hid/disp/display.h ****     virtual ~OneBitGraphicsDisplay() {}
  23:../../libdaisy/src/hid/disp/display.h **** 
  24:../../libdaisy/src/hid/disp/display.h ****     virtual uint16_t Height() const = 0;
  25:../../libdaisy/src/hid/disp/display.h ****     virtual uint16_t Width() const  = 0;
  26:../../libdaisy/src/hid/disp/display.h **** 
  27:../../libdaisy/src/hid/disp/display.h ****     size_t CurrentX() { return currentX_; };
  28:../../libdaisy/src/hid/disp/display.h ****     size_t CurrentY() { return currentY_; };
  29:../../libdaisy/src/hid/disp/display.h **** 
  30:../../libdaisy/src/hid/disp/display.h ****     /** 
  31:../../libdaisy/src/hid/disp/display.h ****     Fills the entire display with either on/off.
  32:../../libdaisy/src/hid/disp/display.h ****     \param on Sets on or off.
  33:../../libdaisy/src/hid/disp/display.h ****     */
  34:../../libdaisy/src/hid/disp/display.h ****     virtual void Fill(bool on) = 0;
  35:../../libdaisy/src/hid/disp/display.h **** 
  36:../../libdaisy/src/hid/disp/display.h ****     /**
  37:../../libdaisy/src/hid/disp/display.h ****     Sets the pixel at the specified coordinate to be on/off.
  38:../../libdaisy/src/hid/disp/display.h ****     \param x   x Coordinate
  39:../../libdaisy/src/hid/disp/display.h ****     \param y   y coordinate
  40:../../libdaisy/src/hid/disp/display.h ****     \param on  on or off
  41:../../libdaisy/src/hid/disp/display.h ****     */
  42:../../libdaisy/src/hid/disp/display.h ****     virtual void DrawPixel(uint_fast8_t x, uint_fast8_t y, bool on) = 0;
  43:../../libdaisy/src/hid/disp/display.h **** 
  44:../../libdaisy/src/hid/disp/display.h ****     /**
  45:../../libdaisy/src/hid/disp/display.h ****     Draws a line from (x1, y1) to (y1, y2)
  46:../../libdaisy/src/hid/disp/display.h ****     \param x1  x Coordinate of the starting point
  47:../../libdaisy/src/hid/disp/display.h ****     \param y1  y Coordinate of the starting point
  48:../../libdaisy/src/hid/disp/display.h ****     \param x2  x Coordinate of the ending point
  49:../../libdaisy/src/hid/disp/display.h ****     \param y2  y Coordinate of the ending point
  50:../../libdaisy/src/hid/disp/display.h ****     \param on  on or off
  51:../../libdaisy/src/hid/disp/display.h ****     */
  52:../../libdaisy/src/hid/disp/display.h ****     virtual void DrawLine(uint_fast8_t x1,
  53:../../libdaisy/src/hid/disp/display.h ****                           uint_fast8_t y1,
  54:../../libdaisy/src/hid/disp/display.h ****                           uint_fast8_t x2,
  55:../../libdaisy/src/hid/disp/display.h ****                           uint_fast8_t y2,
  56:../../libdaisy/src/hid/disp/display.h ****                           bool         on)
  57:../../libdaisy/src/hid/disp/display.h ****         = 0;
  58:../../libdaisy/src/hid/disp/display.h **** 
  59:../../libdaisy/src/hid/disp/display.h ****     /**
ARM GAS  C:\Users\VINCIU~1\AppData\Local\Temp\ccF8ydZb.s 			page 13


  60:../../libdaisy/src/hid/disp/display.h ****     Draws a rectangle based on two coordinates.
  61:../../libdaisy/src/hid/disp/display.h ****     \param x1 x Coordinate of the first point
  62:../../libdaisy/src/hid/disp/display.h ****     \param y1 y Coordinate of the first point
  63:../../libdaisy/src/hid/disp/display.h ****     \param x2 x Coordinate of the second point
  64:../../libdaisy/src/hid/disp/display.h ****     \param y2 y Coordinate of the second point
  65:../../libdaisy/src/hid/disp/display.h ****     \param on on or off
  66:../../libdaisy/src/hid/disp/display.h ****     */
  67:../../libdaisy/src/hid/disp/display.h ****     virtual void DrawRect(uint_fast8_t x1,
  68:../../libdaisy/src/hid/disp/display.h ****                           uint_fast8_t y1,
  69:../../libdaisy/src/hid/disp/display.h ****                           uint_fast8_t x2,
  70:../../libdaisy/src/hid/disp/display.h ****                           uint_fast8_t y2,
  71:../../libdaisy/src/hid/disp/display.h ****                           bool         on,
  72:../../libdaisy/src/hid/disp/display.h ****                           bool         fill = false)
  73:../../libdaisy/src/hid/disp/display.h ****         = 0;
  74:../../libdaisy/src/hid/disp/display.h **** 
  75:../../libdaisy/src/hid/disp/display.h ****     /**
  76:../../libdaisy/src/hid/disp/display.h ****     Draws an arc around the specified coordinate
  77:../../libdaisy/src/hid/disp/display.h ****     \param x           x Coordinate of the center of the arc
  78:../../libdaisy/src/hid/disp/display.h ****     \param y           y Coordinate of the center of the arc
  79:../../libdaisy/src/hid/disp/display.h ****     \param radius      radius of the arc
  80:../../libdaisy/src/hid/disp/display.h ****     \param start_angle angle where to start the arc
  81:../../libdaisy/src/hid/disp/display.h ****     \param sweep       total angle of the arc
  82:../../libdaisy/src/hid/disp/display.h ****     \param on  on or off
  83:../../libdaisy/src/hid/disp/display.h ****     */
  84:../../libdaisy/src/hid/disp/display.h ****     virtual void DrawArc(uint_fast8_t x,
  85:../../libdaisy/src/hid/disp/display.h ****                          uint_fast8_t y,
  86:../../libdaisy/src/hid/disp/display.h ****                          uint_fast8_t radius,
  87:../../libdaisy/src/hid/disp/display.h ****                          int_fast16_t start_angle,
  88:../../libdaisy/src/hid/disp/display.h ****                          int_fast16_t sweep,
  89:../../libdaisy/src/hid/disp/display.h ****                          bool         on)
  90:../../libdaisy/src/hid/disp/display.h ****         = 0;
  91:../../libdaisy/src/hid/disp/display.h **** 
  92:../../libdaisy/src/hid/disp/display.h ****     /**
  93:../../libdaisy/src/hid/disp/display.h ****     Draws a circle around the specified coordinate
  94:../../libdaisy/src/hid/disp/display.h ****     \param x           x Coordinate of the center of the circle
  95:../../libdaisy/src/hid/disp/display.h ****     \param y           y Coordinate of the center of the circle
  96:../../libdaisy/src/hid/disp/display.h ****     \param radius      radius of the circle
  97:../../libdaisy/src/hid/disp/display.h ****     \param on  on or off
  98:../../libdaisy/src/hid/disp/display.h ****     */
  99:../../libdaisy/src/hid/disp/display.h ****     void
 100:../../libdaisy/src/hid/disp/display.h ****     DrawCircle(uint_fast8_t x, uint_fast8_t y, uint_fast8_t radius, bool on)
 101:../../libdaisy/src/hid/disp/display.h ****     {
 102:../../libdaisy/src/hid/disp/display.h ****         DrawArc(x, y, radius, 0, 360, on);
 103:../../libdaisy/src/hid/disp/display.h ****     };
 104:../../libdaisy/src/hid/disp/display.h **** 
 105:../../libdaisy/src/hid/disp/display.h ****     /** 
 106:../../libdaisy/src/hid/disp/display.h ****     Writes the character with the specific FontDef
 107:../../libdaisy/src/hid/disp/display.h ****     to the display buffer at the current Cursor position.
 108:../../libdaisy/src/hid/disp/display.h ****     \param ch character to be written
 109:../../libdaisy/src/hid/disp/display.h ****     \param font font to be written in
 110:../../libdaisy/src/hid/disp/display.h ****     \param on    on or off
 111:../../libdaisy/src/hid/disp/display.h ****     \return &
 112:../../libdaisy/src/hid/disp/display.h ****     */
 113:../../libdaisy/src/hid/disp/display.h ****     virtual char WriteChar(char ch, FontDef font, bool on) = 0;
 114:../../libdaisy/src/hid/disp/display.h **** 
 115:../../libdaisy/src/hid/disp/display.h ****     /** 
 116:../../libdaisy/src/hid/disp/display.h ****     Similar to WriteChar, except it will handle an entire String.
ARM GAS  C:\Users\VINCIU~1\AppData\Local\Temp\ccF8ydZb.s 			page 14


 117:../../libdaisy/src/hid/disp/display.h ****     Wrapping does not happen automatically, so the width
 118:../../libdaisy/src/hid/disp/display.h ****     of the string must be kept within the dimensions of the screen.
 119:../../libdaisy/src/hid/disp/display.h ****     \param str string to be written
 120:../../libdaisy/src/hid/disp/display.h ****     \param font font to use
 121:../../libdaisy/src/hid/disp/display.h ****     \param on  on or off
 122:../../libdaisy/src/hid/disp/display.h ****     \return &
 123:../../libdaisy/src/hid/disp/display.h ****     */
 124:../../libdaisy/src/hid/disp/display.h ****     virtual char WriteString(const char* str, FontDef font, bool on) = 0;
 125:../../libdaisy/src/hid/disp/display.h **** 
 126:../../libdaisy/src/hid/disp/display.h ****     /** 
 127:../../libdaisy/src/hid/disp/display.h ****     Moves the 'Cursor' position used for WriteChar, and WriteStr to the specified coordinate.
 128:../../libdaisy/src/hid/disp/display.h ****     \param x x pos
 129:../../libdaisy/src/hid/disp/display.h ****     \param y y pos
 130:../../libdaisy/src/hid/disp/display.h ****     */
 131:../../libdaisy/src/hid/disp/display.h ****     void SetCursor(uint16_t x, uint16_t y)
 132:../../libdaisy/src/hid/disp/display.h ****     {
 133:../../libdaisy/src/hid/disp/display.h ****         currentX_ = (x >= Width()) ? Width() - 1 : x;
 134:../../libdaisy/src/hid/disp/display.h ****         currentY_ = (y >= Height()) ? Height() - 1 : y;
 135:../../libdaisy/src/hid/disp/display.h ****     }
 136:../../libdaisy/src/hid/disp/display.h **** 
 137:../../libdaisy/src/hid/disp/display.h ****     /** 
 138:../../libdaisy/src/hid/disp/display.h ****     Writes the current display buffer to the OLED device using SPI or I2C depending on 
 139:../../libdaisy/src/hid/disp/display.h ****     how the object was initialized.
 140:../../libdaisy/src/hid/disp/display.h ****     */
 141:../../libdaisy/src/hid/disp/display.h ****     virtual void Update() = 0;
 142:../../libdaisy/src/hid/disp/display.h **** 
 143:../../libdaisy/src/hid/disp/display.h ****   protected:
 144:../../libdaisy/src/hid/disp/display.h ****     uint16_t currentX_;
 145:../../libdaisy/src/hid/disp/display.h ****     uint16_t currentY_;
 146:../../libdaisy/src/hid/disp/display.h **** };
 147:../../libdaisy/src/hid/disp/display.h **** 
 148:../../libdaisy/src/hid/disp/display.h **** /** This class is intended as a intermediary class for your actual implementation of the OneBitGrap
 149:../../libdaisy/src/hid/disp/display.h ****  *  interface. It uses the CRTP design pattern where the template argument is the child class. It p
 150:../../libdaisy/src/hid/disp/display.h ****  *  implementations for most of the functions, except DrawPixel(), Update() and Fill(), which you'l
 151:../../libdaisy/src/hid/disp/display.h ****  *  to provide in your child class.
 152:../../libdaisy/src/hid/disp/display.h ****  *  The main goal of this class is to provide common drawing functions without relying on massive a
 153:../../libdaisy/src/hid/disp/display.h ****  *  virtual function calls that would result in a performance loss. To achieve this, any drawing fu
 154:../../libdaisy/src/hid/disp/display.h ****  *  is implemented here and internally calls other drawing functions (e.g. DrawRect() which interna
 155:../../libdaisy/src/hid/disp/display.h ****  *  DrawPixel() and DrawLine()) makes these calls via the qualified name of these functions to expl
 156:../../libdaisy/src/hid/disp/display.h ****  *  suppress the virtual dispatch mechanism like this:
 157:../../libdaisy/src/hid/disp/display.h ****  * 
 158:../../libdaisy/src/hid/disp/display.h ****  *      ChildType::DrawPixel(...); // no virtual function call; direct call into the child class fu
 159:../../libdaisy/src/hid/disp/display.h ****  *  
 160:../../libdaisy/src/hid/disp/display.h ****  *  To create a custom OneBitGraphicsDisplay implementation, you can 
 161:../../libdaisy/src/hid/disp/display.h ****  *  A) inherit from OneBitGraphicsDisplay directly and provide all the drawing functions yourself
 162:../../libdaisy/src/hid/disp/display.h ****  *  B) Inherit from OneBitGraphicsDisplayImpl and only provide DrawPixel(), Fill() and Update()
 163:../../libdaisy/src/hid/disp/display.h ****  *     like this:
 164:../../libdaisy/src/hid/disp/display.h ****  *  
 165:../../libdaisy/src/hid/disp/display.h ****  *      class MyDisplayClass : public OneBitGraphicsDisplayImpl<MyDisplayClass> 
 166:../../libdaisy/src/hid/disp/display.h ****  *      {
 167:../../libdaisy/src/hid/disp/display.h ****  *      public:
 168:../../libdaisy/src/hid/disp/display.h ****  *          void Fill() override { ... };
 169:../../libdaisy/src/hid/disp/display.h ****  *          void DrawPixel(uint_fast8_t x, uint_fast8_t y, bool on) override { ... };
 170:../../libdaisy/src/hid/disp/display.h ****  *          void Update() override { ... }
 171:../../libdaisy/src/hid/disp/display.h ****  *      };
 172:../../libdaisy/src/hid/disp/display.h ****  *  
 173:../../libdaisy/src/hid/disp/display.h ****  */
ARM GAS  C:\Users\VINCIU~1\AppData\Local\Temp\ccF8ydZb.s 			page 15


 174:../../libdaisy/src/hid/disp/display.h **** template <class ChildType>
 175:../../libdaisy/src/hid/disp/display.h **** class OneBitGraphicsDisplayImpl : public OneBitGraphicsDisplay
 176:../../libdaisy/src/hid/disp/display.h **** {
 177:../../libdaisy/src/hid/disp/display.h ****   public:
 178:../../libdaisy/src/hid/disp/display.h ****     OneBitGraphicsDisplayImpl() {}
 179:../../libdaisy/src/hid/disp/display.h ****     virtual ~OneBitGraphicsDisplayImpl() {}
 180:../../libdaisy/src/hid/disp/display.h **** 
 181:../../libdaisy/src/hid/disp/display.h ****     void DrawLine(uint_fast8_t x1,
 182:../../libdaisy/src/hid/disp/display.h ****                   uint_fast8_t y1,
 183:../../libdaisy/src/hid/disp/display.h ****                   uint_fast8_t x2,
 184:../../libdaisy/src/hid/disp/display.h ****                   uint_fast8_t y2,
 185:../../libdaisy/src/hid/disp/display.h ****                   bool         on) override
 186:../../libdaisy/src/hid/disp/display.h ****     {
 187:../../libdaisy/src/hid/disp/display.h ****         int_fast16_t deltaX = abs((int_fast16_t)x2 - (int_fast16_t)x1);
 188:../../libdaisy/src/hid/disp/display.h ****         int_fast16_t deltaY = abs((int_fast16_t)y2 - (int_fast16_t)y1);
 189:../../libdaisy/src/hid/disp/display.h ****         int_fast16_t signX  = ((x1 < x2) ? 1 : -1);
 190:../../libdaisy/src/hid/disp/display.h ****         int_fast16_t signY  = ((y1 < y2) ? 1 : -1);
 191:../../libdaisy/src/hid/disp/display.h ****         int_fast16_t error  = deltaX - deltaY;
 192:../../libdaisy/src/hid/disp/display.h ****         int_fast16_t error2;
 193:../../libdaisy/src/hid/disp/display.h **** 
 194:../../libdaisy/src/hid/disp/display.h ****         // If we write "ChildType::DrawPixel(x2, y2, on);", we end up with
 195:../../libdaisy/src/hid/disp/display.h ****         // all sorts of weird compiler errors when the Child class is a template
 196:../../libdaisy/src/hid/disp/display.h ****         // class. The only way around this is to use this very verbose syntax:
 197:../../libdaisy/src/hid/disp/display.h ****         ((ChildType*)(this))->ChildType::DrawPixel(x2, y2, on);
 198:../../libdaisy/src/hid/disp/display.h **** 
 199:../../libdaisy/src/hid/disp/display.h ****         while((x1 != x2) || (y1 != y2))
 200:../../libdaisy/src/hid/disp/display.h ****         {
 201:../../libdaisy/src/hid/disp/display.h ****             ((ChildType*)(this))->ChildType::DrawPixel(x1, y1, on);
 202:../../libdaisy/src/hid/disp/display.h ****             error2 = error * 2;
 203:../../libdaisy/src/hid/disp/display.h ****             if(error2 > -deltaY)
 204:../../libdaisy/src/hid/disp/display.h ****             {
 205:../../libdaisy/src/hid/disp/display.h ****                 error -= deltaY;
 206:../../libdaisy/src/hid/disp/display.h ****                 x1 += signX;
 207:../../libdaisy/src/hid/disp/display.h ****             }
 208:../../libdaisy/src/hid/disp/display.h **** 
 209:../../libdaisy/src/hid/disp/display.h ****             if(error2 < deltaX)
 210:../../libdaisy/src/hid/disp/display.h ****             {
 211:../../libdaisy/src/hid/disp/display.h ****                 error += deltaX;
 212:../../libdaisy/src/hid/disp/display.h ****                 y1 += signY;
 213:../../libdaisy/src/hid/disp/display.h ****             }
 214:../../libdaisy/src/hid/disp/display.h ****         }
 215:../../libdaisy/src/hid/disp/display.h ****     }
 216:../../libdaisy/src/hid/disp/display.h **** 
 217:../../libdaisy/src/hid/disp/display.h ****     void DrawRect(uint_fast8_t x1,
 218:../../libdaisy/src/hid/disp/display.h ****                   uint_fast8_t y1,
 219:../../libdaisy/src/hid/disp/display.h ****                   uint_fast8_t x2,
 220:../../libdaisy/src/hid/disp/display.h ****                   uint_fast8_t y2,
 221:../../libdaisy/src/hid/disp/display.h ****                   bool         on,
 222:../../libdaisy/src/hid/disp/display.h ****                   bool         fill = false) override
 223:../../libdaisy/src/hid/disp/display.h ****     {
 224:../../libdaisy/src/hid/disp/display.h ****         if(fill)
 225:../../libdaisy/src/hid/disp/display.h ****         {
 226:../../libdaisy/src/hid/disp/display.h ****             for(uint_fast8_t x = x1; x <= x2; x++)
 227:../../libdaisy/src/hid/disp/display.h ****             {
 228:../../libdaisy/src/hid/disp/display.h ****                 for(uint_fast8_t y = y1; y <= y2; y++)
 229:../../libdaisy/src/hid/disp/display.h ****                 {
 230:../../libdaisy/src/hid/disp/display.h ****                     ((ChildType*)(this))->ChildType::DrawPixel(x, y, on);
ARM GAS  C:\Users\VINCIU~1\AppData\Local\Temp\ccF8ydZb.s 			page 16


 231:../../libdaisy/src/hid/disp/display.h ****                 }
 232:../../libdaisy/src/hid/disp/display.h ****             }
 233:../../libdaisy/src/hid/disp/display.h ****         }
 234:../../libdaisy/src/hid/disp/display.h ****         else
 235:../../libdaisy/src/hid/disp/display.h ****         {
 236:../../libdaisy/src/hid/disp/display.h ****             ((ChildType*)(this))->ChildType::DrawLine(x1, y1, x2, y1, on);
 237:../../libdaisy/src/hid/disp/display.h ****             ((ChildType*)(this))->ChildType::DrawLine(x2, y1, x2, y2, on);
 238:../../libdaisy/src/hid/disp/display.h ****             ((ChildType*)(this))->ChildType::DrawLine(x2, y2, x1, y2, on);
 239:../../libdaisy/src/hid/disp/display.h ****             ((ChildType*)(this))->ChildType::DrawLine(x1, y2, x1, y1, on);
 240:../../libdaisy/src/hid/disp/display.h ****         }
 241:../../libdaisy/src/hid/disp/display.h ****     }
 242:../../libdaisy/src/hid/disp/display.h **** 
 243:../../libdaisy/src/hid/disp/display.h ****     void DrawArc(uint_fast8_t x,
 244:../../libdaisy/src/hid/disp/display.h ****                  uint_fast8_t y,
 245:../../libdaisy/src/hid/disp/display.h ****                  uint_fast8_t radius,
 246:../../libdaisy/src/hid/disp/display.h ****                  int_fast16_t start_angle,
 247:../../libdaisy/src/hid/disp/display.h ****                  int_fast16_t sweep,
 248:../../libdaisy/src/hid/disp/display.h ****                  bool         on) override
 249:../../libdaisy/src/hid/disp/display.h ****     {
 250:../../libdaisy/src/hid/disp/display.h ****         // Values to calculate the circle
 251:../../libdaisy/src/hid/disp/display.h ****         int_fast16_t t_x, t_y, err, e2;
 252:../../libdaisy/src/hid/disp/display.h **** 
 253:../../libdaisy/src/hid/disp/display.h ****         // Temporary values to speed up comparisons
 254:../../libdaisy/src/hid/disp/display.h ****         float t_sxy, t_syx, t_sxny, t_synx;
 255:../../libdaisy/src/hid/disp/display.h ****         float t_exy, t_eyx, t_exny, t_eynx;
 256:../../libdaisy/src/hid/disp/display.h **** 
 257:../../libdaisy/src/hid/disp/display.h ****         float start_angle_rad, end_angle_rad;
 258:../../libdaisy/src/hid/disp/display.h ****         float start_x, start_y, end_x, end_y;
 259:../../libdaisy/src/hid/disp/display.h **** 
 260:../../libdaisy/src/hid/disp/display.h ****         bool d1, d2, d3, d4;
 261:../../libdaisy/src/hid/disp/display.h **** 
 262:../../libdaisy/src/hid/disp/display.h ****         d1 = d2 = d3 = d4 = true;
 263:../../libdaisy/src/hid/disp/display.h **** 
 264:../../libdaisy/src/hid/disp/display.h ****         bool circle = false;
 265:../../libdaisy/src/hid/disp/display.h **** 
 266:../../libdaisy/src/hid/disp/display.h ****         if(sweep < 0)
 267:../../libdaisy/src/hid/disp/display.h ****         {
 268:../../libdaisy/src/hid/disp/display.h ****             start_angle += sweep;
 269:../../libdaisy/src/hid/disp/display.h ****             sweep = -sweep;
 270:../../libdaisy/src/hid/disp/display.h ****         }
 271:../../libdaisy/src/hid/disp/display.h **** 
 272:../../libdaisy/src/hid/disp/display.h ****         start_angle_rad = deg2rad(start_angle);
 273:../../libdaisy/src/hid/disp/display.h ****         end_angle_rad   = deg2rad(start_angle + sweep);
 274:../../libdaisy/src/hid/disp/display.h **** 
 275:../../libdaisy/src/hid/disp/display.h ****         start_x = cos(start_angle_rad) * radius;
 276:../../libdaisy/src/hid/disp/display.h ****         start_y = -sin(start_angle_rad) * radius;
 277:../../libdaisy/src/hid/disp/display.h ****         end_x   = cos(end_angle_rad) * radius;
 278:../../libdaisy/src/hid/disp/display.h ****         end_y   = -sin(end_angle_rad) * radius;
 279:../../libdaisy/src/hid/disp/display.h **** 
 280:../../libdaisy/src/hid/disp/display.h ****         // Check if start and endpoint are very near
 281:../../libdaisy/src/hid/disp/display.h ****         if((end_x - start_x) * (end_x - start_x)
 282:../../libdaisy/src/hid/disp/display.h ****                + (end_y - start_y) * (end_y - start_y)
 283:../../libdaisy/src/hid/disp/display.h ****            < 2.0f)
 284:../../libdaisy/src/hid/disp/display.h ****         {
 285:../../libdaisy/src/hid/disp/display.h ****             if(sweep > 180)
 286:../../libdaisy/src/hid/disp/display.h ****                 circle = true;
 287:../../libdaisy/src/hid/disp/display.h ****             else
ARM GAS  C:\Users\VINCIU~1\AppData\Local\Temp\ccF8ydZb.s 			page 17


 288:../../libdaisy/src/hid/disp/display.h ****                 // Nothing to draw
 289:../../libdaisy/src/hid/disp/display.h ****                 return;
 290:../../libdaisy/src/hid/disp/display.h ****         }
 291:../../libdaisy/src/hid/disp/display.h **** 
 292:../../libdaisy/src/hid/disp/display.h ****         t_x = -radius;
 293:../../libdaisy/src/hid/disp/display.h ****         t_y = 0;
 294:../../libdaisy/src/hid/disp/display.h ****         err = 2 - 2 * radius;
 295:../../libdaisy/src/hid/disp/display.h **** 
 296:../../libdaisy/src/hid/disp/display.h ****         do
 297:../../libdaisy/src/hid/disp/display.h ****         {
 298:../../libdaisy/src/hid/disp/display.h ****             if(!circle)
 299:../../libdaisy/src/hid/disp/display.h ****             {
 300:../../libdaisy/src/hid/disp/display.h ****                 t_sxy  = start_x * t_y;
 301:../../libdaisy/src/hid/disp/display.h ****                 t_syx  = start_y * t_x;
 302:../../libdaisy/src/hid/disp/display.h ****                 t_sxny = start_x * -t_y;
 303:../../libdaisy/src/hid/disp/display.h ****                 t_synx = start_y * -t_x;
 304:../../libdaisy/src/hid/disp/display.h ****                 t_exy  = end_x * t_y;
 305:../../libdaisy/src/hid/disp/display.h ****                 t_eyx  = end_y * t_x;
 306:../../libdaisy/src/hid/disp/display.h ****                 t_exny = end_x * -t_y;
 307:../../libdaisy/src/hid/disp/display.h ****                 t_eynx = end_y * -t_x;
 308:../../libdaisy/src/hid/disp/display.h **** 
 309:../../libdaisy/src/hid/disp/display.h ****                 if(sweep > 180)
 310:../../libdaisy/src/hid/disp/display.h ****                 {
 311:../../libdaisy/src/hid/disp/display.h ****                     d1 = (t_sxy - t_synx < 0 || t_exy - t_eynx > 0);
 312:../../libdaisy/src/hid/disp/display.h ****                     d2 = (t_sxy - t_syx < 0 || t_exy - t_eyx > 0);
 313:../../libdaisy/src/hid/disp/display.h ****                     d3 = (t_sxny - t_syx < 0 || t_exny - t_eyx > 0);
 314:../../libdaisy/src/hid/disp/display.h ****                     d4 = (t_sxny - t_synx < 0 || t_exny - t_eynx > 0);
 315:../../libdaisy/src/hid/disp/display.h ****                 }
 316:../../libdaisy/src/hid/disp/display.h ****                 else
 317:../../libdaisy/src/hid/disp/display.h ****                 {
 318:../../libdaisy/src/hid/disp/display.h ****                     d1 = (t_sxy - t_synx < 0 && t_exy - t_eynx > 0);
 319:../../libdaisy/src/hid/disp/display.h ****                     d2 = (t_sxy - t_syx < 0 && t_exy - t_eyx > 0);
 320:../../libdaisy/src/hid/disp/display.h ****                     d3 = (t_sxny - t_syx < 0 && t_exny - t_eyx > 0);
 321:../../libdaisy/src/hid/disp/display.h ****                     d4 = (t_sxny - t_synx < 0 && t_exny - t_eynx > 0);
 322:../../libdaisy/src/hid/disp/display.h ****                 }
 323:../../libdaisy/src/hid/disp/display.h ****             }
 324:../../libdaisy/src/hid/disp/display.h **** 
 325:../../libdaisy/src/hid/disp/display.h ****             if(d1)
 326:../../libdaisy/src/hid/disp/display.h ****                 ((ChildType*)(this))
 327:../../libdaisy/src/hid/disp/display.h ****                     ->ChildType::DrawPixel(x - t_x, y + t_y, on);
 328:../../libdaisy/src/hid/disp/display.h ****             if(d2)
 329:../../libdaisy/src/hid/disp/display.h ****                 ((ChildType*)(this))
 330:../../libdaisy/src/hid/disp/display.h ****                     ->ChildType::DrawPixel(x + t_x, y + t_y, on);
 331:../../libdaisy/src/hid/disp/display.h ****             if(d3)
 332:../../libdaisy/src/hid/disp/display.h ****                 ((ChildType*)(this))
 333:../../libdaisy/src/hid/disp/display.h ****                     ->ChildType::DrawPixel(x + t_x, y - t_y, on);
 334:../../libdaisy/src/hid/disp/display.h ****             if(d4)
 335:../../libdaisy/src/hid/disp/display.h ****                 ((ChildType*)(this))
 336:../../libdaisy/src/hid/disp/display.h ****                     ->ChildType::DrawPixel(x - t_x, y - t_y, on);
 337:../../libdaisy/src/hid/disp/display.h **** 
 338:../../libdaisy/src/hid/disp/display.h ****             e2 = err;
 339:../../libdaisy/src/hid/disp/display.h ****             if(e2 <= t_y)
 340:../../libdaisy/src/hid/disp/display.h ****             {
 341:../../libdaisy/src/hid/disp/display.h ****                 t_y++;
 342:../../libdaisy/src/hid/disp/display.h ****                 err = err + (t_y * 2 + 1);
 343:../../libdaisy/src/hid/disp/display.h ****                 if(-t_x == t_y && e2 <= t_x)
 344:../../libdaisy/src/hid/disp/display.h ****                 {
ARM GAS  C:\Users\VINCIU~1\AppData\Local\Temp\ccF8ydZb.s 			page 18


 345:../../libdaisy/src/hid/disp/display.h ****                     e2 = 0;
 346:../../libdaisy/src/hid/disp/display.h ****                 }
 347:../../libdaisy/src/hid/disp/display.h ****             }
 348:../../libdaisy/src/hid/disp/display.h ****             if(e2 > t_x)
 349:../../libdaisy/src/hid/disp/display.h ****             {
 350:../../libdaisy/src/hid/disp/display.h ****                 t_x++;
 351:../../libdaisy/src/hid/disp/display.h ****                 err = err + (t_x * 2 + 1);
 352:../../libdaisy/src/hid/disp/display.h ****             }
 353:../../libdaisy/src/hid/disp/display.h ****         } while(t_x <= 0);
 354:../../libdaisy/src/hid/disp/display.h ****     }
 355:../../libdaisy/src/hid/disp/display.h **** 
 356:../../libdaisy/src/hid/disp/display.h ****     char WriteChar(char ch, FontDef font, bool on) override
 357:../../libdaisy/src/hid/disp/display.h ****     {
 358:../../libdaisy/src/hid/disp/display.h ****         uint32_t i, b, j;
 359:../../libdaisy/src/hid/disp/display.h **** 
 360:../../libdaisy/src/hid/disp/display.h ****         // Check if character is valid
 361:../../libdaisy/src/hid/disp/display.h ****         if(ch < 32 || ch > 126)
 362:../../libdaisy/src/hid/disp/display.h ****             return 0;
 363:../../libdaisy/src/hid/disp/display.h **** 
 364:../../libdaisy/src/hid/disp/display.h ****         // Check remaining space on current line
 365:../../libdaisy/src/hid/disp/display.h ****         if(Width() < (currentX_ + font.FontWidth)
 366:../../libdaisy/src/hid/disp/display.h ****            || Height() < (currentY_ + font.FontHeight))
 367:../../libdaisy/src/hid/disp/display.h ****         {
 368:../../libdaisy/src/hid/disp/display.h ****             // Not enough space on current line
 369:../../libdaisy/src/hid/disp/display.h ****             return 0;
 370:../../libdaisy/src/hid/disp/display.h ****         }
 371:../../libdaisy/src/hid/disp/display.h **** 
 372:../../libdaisy/src/hid/disp/display.h ****         // Use the font to write
 373:../../libdaisy/src/hid/disp/display.h ****         for(i = 0; i < font.FontHeight; i++)
 374:../../libdaisy/src/hid/disp/display.h ****         {
 375:../../libdaisy/src/hid/disp/display.h ****             b = font.data[(ch - 32) * font.FontHeight + i];
 376:../../libdaisy/src/hid/disp/display.h ****             for(j = 0; j < font.FontWidth; j++)
 377:../../libdaisy/src/hid/disp/display.h ****             {
 378:../../libdaisy/src/hid/disp/display.h ****                 if((b << j) & 0x8000)
 379:../../libdaisy/src/hid/disp/display.h ****                 {
 380:../../libdaisy/src/hid/disp/display.h ****                     ((ChildType*)(this))
 381:../../libdaisy/src/hid/disp/display.h ****                         ->ChildType::DrawPixel(
 382:../../libdaisy/src/hid/disp/display.h ****                             currentX_ + j, (currentY_ + i), on);
 383:../../libdaisy/src/hid/disp/display.h ****                 }
 384:../../libdaisy/src/hid/disp/display.h ****                 else
 385:../../libdaisy/src/hid/disp/display.h ****                 {
 386:../../libdaisy/src/hid/disp/display.h ****                     ((ChildType*)(this))
 387:../../libdaisy/src/hid/disp/display.h ****                         ->ChildType::DrawPixel(
 388:../../libdaisy/src/hid/disp/display.h ****                             currentX_ + j, (currentY_ + i), !on);
 389:../../libdaisy/src/hid/disp/display.h ****                 }
 390:../../libdaisy/src/hid/disp/display.h ****             }
 391:../../libdaisy/src/hid/disp/display.h ****         }
 392:../../libdaisy/src/hid/disp/display.h **** 
 393:../../libdaisy/src/hid/disp/display.h ****         // The current space is now taken
 394:../../libdaisy/src/hid/disp/display.h ****         SetCursor(currentX_ + font.FontWidth, currentY_);
 395:../../libdaisy/src/hid/disp/display.h **** 
 396:../../libdaisy/src/hid/disp/display.h ****         // Return written char for validation
 397:../../libdaisy/src/hid/disp/display.h ****         return ch;
 398:../../libdaisy/src/hid/disp/display.h ****     }
 399:../../libdaisy/src/hid/disp/display.h **** 
 400:../../libdaisy/src/hid/disp/display.h ****     char WriteString(const char* str, FontDef font, bool on) override
 380              		.loc 5 400 10 view -0
ARM GAS  C:\Users\VINCIU~1\AppData\Local\Temp\ccF8ydZb.s 			page 19


 381              		.cfi_startproc
 382              		@ args = 4, pretend = 0, frame = 32
 383              		@ frame_needed = 0, uses_anonymous_args = 0
 384              		.loc 5 400 10 is_stmt 0 view .LVU113
 385 0000 2DE9F04F 		push	{r4, r5, r6, r7, r8, r9, r10, fp, lr}
 386              		.cfi_def_cfa_offset 36
 387              		.cfi_offset 4, -36
 388              		.cfi_offset 5, -32
 389              		.cfi_offset 6, -28
 390              		.cfi_offset 7, -24
 391              		.cfi_offset 8, -20
 392              		.cfi_offset 9, -16
 393              		.cfi_offset 10, -12
 394              		.cfi_offset 11, -8
 395              		.cfi_offset 14, -4
 396 0004 89B0     		sub	sp, sp, #36
 397              		.cfi_def_cfa_offset 72
 398              		.loc 5 400 10 view .LVU114
 399 0006 08AC     		add	r4, sp, #32
 400 0008 9DF84870 		ldrb	r7, [sp, #72]	@ zero_extendqisi2
 401 000c 0191     		str	r1, [sp, #4]
 402 000e 04E90C00 		stmdb	r4, {r2, r3}
 401:../../libdaisy/src/hid/disp/display.h ****     {
 402:../../libdaisy/src/hid/disp/display.h ****         // Write until null-byte
 403:../../libdaisy/src/hid/disp/display.h ****         while(*str)
 403              		.loc 5 403 9 is_stmt 1 view .LVU115
 404 0012 0B78     		ldrb	r3, [r1]	@ zero_extendqisi2
 405 0014 002B     		cmp	r3, #0
 406 0016 00F0AB80 		beq	.L47
 407 001a 1A46     		mov	r2, r3
 408 001c 9DF81880 		ldrb	r8, [sp, #24]	@ zero_extendqisi2
 409 0020 9DF81930 		ldrb	r3, [sp, #25]	@ zero_extendqisi2
 410 0024 0646     		mov	r6, r0
 411 0026 4546     		mov	r5, r8
 412 0028 9046     		mov	r8, r2
 413 002a 0393     		str	r3, [sp, #12]
 414 002c 079B     		ldr	r3, [sp, #28]
 415 002e 0593     		str	r3, [sp, #20]
 416              	.LVL19:
 417              	.L48:
 418              	.LBB246:
 419              	.LBI246:
 356:../../libdaisy/src/hid/disp/display.h ****     {
 420              		.loc 5 356 10 view .LVU116
 421              	.LBB247:
 361:../../libdaisy/src/hid/disp/display.h ****             return 0;
 422              		.loc 5 361 20 is_stmt 0 view .LVU117
 423 0030 A8F12004 		sub	r4, r8, #32
 361:../../libdaisy/src/hid/disp/display.h ****             return 0;
 424              		.loc 5 361 9 view .LVU118
 425 0034 E3B2     		uxtb	r3, r4
 426 0036 5E2B     		cmp	r3, #94
 427 0038 00F29E80 		bhi	.L29
 365:../../libdaisy/src/hid/disp/display.h ****            || Height() < (currentY_ + font.FontHeight))
 428              		.loc 5 365 17 view .LVU119
 429 003c 3368     		ldr	r3, [r6]
 430 003e 5E4A     		ldr	r2, .L69
ARM GAS  C:\Users\VINCIU~1\AppData\Local\Temp\ccF8ydZb.s 			page 20


 431 0040 DB68     		ldr	r3, [r3, #12]
 432 0042 9342     		cmp	r3, r2
 433 0044 40F09B80 		bne	.L62
 434 0048 8020     		movs	r0, #128
 435              	.L28:
 365:../../libdaisy/src/hid/disp/display.h ****            || Height() < (currentY_ + font.FontHeight))
 436              		.loc 5 365 23 view .LVU120
 437 004a B388     		ldrh	r3, [r6, #4]
 365:../../libdaisy/src/hid/disp/display.h ****            || Height() < (currentY_ + font.FontHeight))
 438              		.loc 5 365 33 view .LVU121
 439 004c 2B44     		add	r3, r3, r5
 366:../../libdaisy/src/hid/disp/display.h ****         {
 440              		.loc 5 366 12 view .LVU122
 441 004e 8342     		cmp	r3, r0
 442 0050 00F39280 		bgt	.L29
 366:../../libdaisy/src/hid/disp/display.h ****         {
 443              		.loc 5 366 21 view .LVU123
 444 0054 3368     		ldr	r3, [r6]
 445 0056 594A     		ldr	r2, .L69+4
 446 0058 9B68     		ldr	r3, [r3, #8]
 447 005a 9342     		cmp	r3, r2
 448 005c 40F09280 		bne	.L63
 449 0060 4020     		movs	r0, #64
 450              	.L30:
 366:../../libdaisy/src/hid/disp/display.h ****         {
 451              		.loc 5 366 27 view .LVU124
 452 0062 F188     		ldrh	r1, [r6, #6]
 366:../../libdaisy/src/hid/disp/display.h ****         {
 453              		.loc 5 366 37 view .LVU125
 454 0064 039A     		ldr	r2, [sp, #12]
 366:../../libdaisy/src/hid/disp/display.h ****         {
 455              		.loc 5 366 27 view .LVU126
 456 0066 0291     		str	r1, [sp, #8]
 366:../../libdaisy/src/hid/disp/display.h ****         {
 457              		.loc 5 366 37 view .LVU127
 458 0068 8B18     		adds	r3, r1, r2
 366:../../libdaisy/src/hid/disp/display.h ****         {
 459              		.loc 5 366 12 view .LVU128
 460 006a 8342     		cmp	r3, r0
 461 006c 00F38480 		bgt	.L29
 462              	.LVL20:
 373:../../libdaisy/src/hid/disp/display.h ****         {
 463              		.loc 5 373 22 is_stmt 1 view .LVU129
 464 0070 002A     		cmp	r2, #0
 465 0072 00F09180 		beq	.L31
 375:../../libdaisy/src/hid/disp/display.h ****             for(j = 0; j < font.FontWidth; j++)
 466              		.loc 5 375 37 is_stmt 0 view .LVU130
 467 0076 02FB04F4 		mul	r4, r2, r4
 468 007a 6FF00049 		mvn	r9, #-2147483648
 469 007e 059B     		ldr	r3, [sp, #20]
 470 0080 A144     		add	r9, r9, r4
 471 0082 1444     		add	r4, r4, r2
 394:../../libdaisy/src/hid/disp/display.h **** 
 472              		.loc 5 394 19 view .LVU131
 473 0084 B6F804B0 		ldrh	fp, [r6, #4]
 474 0088 03EB4909 		add	r9, r3, r9, lsl #1
 475 008c 023B     		subs	r3, r3, #2
ARM GAS  C:\Users\VINCIU~1\AppData\Local\Temp\ccF8ydZb.s 			page 21


 476 008e CDF81080 		str	r8, [sp, #16]
 477 0092 03EB4403 		add	r3, r3, r4, lsl #1
 478 0096 0C46     		mov	r4, r1
 479 0098 9A46     		mov	r10, r3
 480              	.LVL21:
 481              	.L34:
 375:../../libdaisy/src/hid/disp/display.h ****             for(j = 0; j < font.FontWidth; j++)
 482              		.loc 5 375 15 view .LVU132
 483 009a 39F802CF 		ldrh	ip, [r9, #2]!
 484              	.LVL22:
 376:../../libdaisy/src/hid/disp/display.h ****             {
 485              		.loc 5 376 26 is_stmt 1 view .LVU133
 486 009e A5B3     		cbz	r5, .L39
 487              	.LBB248:
 488              	.LBB249:
 489              	.LBB250:
 490              	.LBB251:
 491              	.LBB252:
 492              		.file 6 "../../libdaisy/src/dev/oled_ssd130x.h"
   1:../../libdaisy/src/dev/oled_ssd130x.h **** #pragma once
   2:../../libdaisy/src/dev/oled_ssd130x.h **** #ifndef SA_OLED_SSD130X_H
   3:../../libdaisy/src/dev/oled_ssd130x.h **** #define SA_OLED_SSD130X_H /**< & */
   4:../../libdaisy/src/dev/oled_ssd130x.h **** 
   5:../../libdaisy/src/dev/oled_ssd130x.h **** #include "per/i2c.h"
   6:../../libdaisy/src/dev/oled_ssd130x.h **** #include "per/spi.h"
   7:../../libdaisy/src/dev/oled_ssd130x.h **** #include "per/gpio.h"
   8:../../libdaisy/src/dev/oled_ssd130x.h **** #include "sys/system.h"
   9:../../libdaisy/src/dev/oled_ssd130x.h **** 
  10:../../libdaisy/src/dev/oled_ssd130x.h **** namespace daisy
  11:../../libdaisy/src/dev/oled_ssd130x.h **** {
  12:../../libdaisy/src/dev/oled_ssd130x.h **** /**
  13:../../libdaisy/src/dev/oled_ssd130x.h ****  * I2C Transport for SSD1306 / SSD1309 OLED display devices
  14:../../libdaisy/src/dev/oled_ssd130x.h ****  */
  15:../../libdaisy/src/dev/oled_ssd130x.h **** class SSD130xI2CTransport
  16:../../libdaisy/src/dev/oled_ssd130x.h **** {
  17:../../libdaisy/src/dev/oled_ssd130x.h ****   public:
  18:../../libdaisy/src/dev/oled_ssd130x.h ****     struct Config
  19:../../libdaisy/src/dev/oled_ssd130x.h ****     {
  20:../../libdaisy/src/dev/oled_ssd130x.h ****         I2CHandle::Config i2c_config;
  21:../../libdaisy/src/dev/oled_ssd130x.h ****         uint8_t           i2c_address;
  22:../../libdaisy/src/dev/oled_ssd130x.h ****         void              Defaults()
  23:../../libdaisy/src/dev/oled_ssd130x.h ****         {
  24:../../libdaisy/src/dev/oled_ssd130x.h ****             i2c_config.periph         = I2CHandle::Config::Peripheral::I2C_1;
  25:../../libdaisy/src/dev/oled_ssd130x.h ****             i2c_config.speed          = I2CHandle::Config::Speed::I2C_1MHZ;
  26:../../libdaisy/src/dev/oled_ssd130x.h ****             i2c_config.mode           = I2CHandle::Config::Mode::I2C_MASTER;
  27:../../libdaisy/src/dev/oled_ssd130x.h ****             i2c_config.pin_config.scl = {DSY_GPIOB, 8};
  28:../../libdaisy/src/dev/oled_ssd130x.h ****             i2c_config.pin_config.sda = {DSY_GPIOB, 9};
  29:../../libdaisy/src/dev/oled_ssd130x.h ****             i2c_address               = 0x3C;
  30:../../libdaisy/src/dev/oled_ssd130x.h ****         }
  31:../../libdaisy/src/dev/oled_ssd130x.h ****     };
  32:../../libdaisy/src/dev/oled_ssd130x.h ****     void Init(const Config& config)
  33:../../libdaisy/src/dev/oled_ssd130x.h ****     {
  34:../../libdaisy/src/dev/oled_ssd130x.h ****         i2c_address_ = config.i2c_address;
  35:../../libdaisy/src/dev/oled_ssd130x.h ****         i2c_.Init(config.i2c_config);
  36:../../libdaisy/src/dev/oled_ssd130x.h ****     };
  37:../../libdaisy/src/dev/oled_ssd130x.h ****     void SendCommand(uint8_t cmd)
  38:../../libdaisy/src/dev/oled_ssd130x.h ****     {
ARM GAS  C:\Users\VINCIU~1\AppData\Local\Temp\ccF8ydZb.s 			page 22


  39:../../libdaisy/src/dev/oled_ssd130x.h ****         uint8_t buf[2] = {0X00, cmd};
  40:../../libdaisy/src/dev/oled_ssd130x.h ****         i2c_.TransmitBlocking(i2c_address_, buf, 2, 1000);
  41:../../libdaisy/src/dev/oled_ssd130x.h ****     };
  42:../../libdaisy/src/dev/oled_ssd130x.h **** 
  43:../../libdaisy/src/dev/oled_ssd130x.h ****     void SendData(uint8_t* buff, size_t size)
  44:../../libdaisy/src/dev/oled_ssd130x.h ****     {
  45:../../libdaisy/src/dev/oled_ssd130x.h ****         for(size_t i = 0; i < size; i++)
  46:../../libdaisy/src/dev/oled_ssd130x.h ****         {
  47:../../libdaisy/src/dev/oled_ssd130x.h ****             uint8_t buf[2] = {0X40, buff[i]};
  48:../../libdaisy/src/dev/oled_ssd130x.h ****             i2c_.TransmitBlocking(i2c_address_, buf, 2, 1000);
  49:../../libdaisy/src/dev/oled_ssd130x.h ****         }
  50:../../libdaisy/src/dev/oled_ssd130x.h ****     };
  51:../../libdaisy/src/dev/oled_ssd130x.h **** 
  52:../../libdaisy/src/dev/oled_ssd130x.h ****   private:
  53:../../libdaisy/src/dev/oled_ssd130x.h ****     daisy::I2CHandle i2c_;
  54:../../libdaisy/src/dev/oled_ssd130x.h ****     uint8_t          i2c_address_;
  55:../../libdaisy/src/dev/oled_ssd130x.h **** };
  56:../../libdaisy/src/dev/oled_ssd130x.h **** 
  57:../../libdaisy/src/dev/oled_ssd130x.h **** /**
  58:../../libdaisy/src/dev/oled_ssd130x.h ****  * 4 Wire SPI Transport for SSD1306 / SSD1309 OLED display devices
  59:../../libdaisy/src/dev/oled_ssd130x.h ****  */
  60:../../libdaisy/src/dev/oled_ssd130x.h **** class SSD130x4WireSpiTransport
  61:../../libdaisy/src/dev/oled_ssd130x.h **** {
  62:../../libdaisy/src/dev/oled_ssd130x.h ****   public:
  63:../../libdaisy/src/dev/oled_ssd130x.h ****     struct Config
  64:../../libdaisy/src/dev/oled_ssd130x.h ****     {
  65:../../libdaisy/src/dev/oled_ssd130x.h ****         struct
  66:../../libdaisy/src/dev/oled_ssd130x.h ****         {
  67:../../libdaisy/src/dev/oled_ssd130x.h ****             dsy_gpio_pin dc;    /**< & */
  68:../../libdaisy/src/dev/oled_ssd130x.h ****             dsy_gpio_pin reset; /**< & */
  69:../../libdaisy/src/dev/oled_ssd130x.h ****         } pin_config;
  70:../../libdaisy/src/dev/oled_ssd130x.h ****         void Defaults()
  71:../../libdaisy/src/dev/oled_ssd130x.h ****         {
  72:../../libdaisy/src/dev/oled_ssd130x.h ****             pin_config.dc    = {DSY_GPIOB, 4};
  73:../../libdaisy/src/dev/oled_ssd130x.h ****             pin_config.reset = {DSY_GPIOB, 15};
  74:../../libdaisy/src/dev/oled_ssd130x.h ****         }
  75:../../libdaisy/src/dev/oled_ssd130x.h ****     };
  76:../../libdaisy/src/dev/oled_ssd130x.h ****     void Init(const Config& config)
  77:../../libdaisy/src/dev/oled_ssd130x.h ****     {
  78:../../libdaisy/src/dev/oled_ssd130x.h ****         // Initialize both GPIO
  79:../../libdaisy/src/dev/oled_ssd130x.h ****         pin_dc_.mode = DSY_GPIO_MODE_OUTPUT_PP;
  80:../../libdaisy/src/dev/oled_ssd130x.h ****         pin_dc_.pin  = config.pin_config.dc;
  81:../../libdaisy/src/dev/oled_ssd130x.h ****         dsy_gpio_init(&pin_dc_);
  82:../../libdaisy/src/dev/oled_ssd130x.h ****         pin_reset_.mode = DSY_GPIO_MODE_OUTPUT_PP;
  83:../../libdaisy/src/dev/oled_ssd130x.h ****         pin_reset_.pin  = config.pin_config.reset;
  84:../../libdaisy/src/dev/oled_ssd130x.h ****         dsy_gpio_init(&pin_reset_);
  85:../../libdaisy/src/dev/oled_ssd130x.h ****         // Initialize SPI
  86:../../libdaisy/src/dev/oled_ssd130x.h ****         SpiHandle::Config spi_config;
  87:../../libdaisy/src/dev/oled_ssd130x.h ****         spi_config.periph    = SpiHandle::Config::Peripheral::SPI_1;
  88:../../libdaisy/src/dev/oled_ssd130x.h ****         spi_config.mode      = SpiHandle::Config::Mode::MASTER;
  89:../../libdaisy/src/dev/oled_ssd130x.h ****         spi_config.direction = SpiHandle::Config::Direction::TWO_LINES_TX_ONLY;
  90:../../libdaisy/src/dev/oled_ssd130x.h ****         spi_config.datasize  = 8;
  91:../../libdaisy/src/dev/oled_ssd130x.h ****         spi_config.clock_polarity = SpiHandle::Config::ClockPolarity::LOW;
  92:../../libdaisy/src/dev/oled_ssd130x.h ****         spi_config.clock_phase    = SpiHandle::Config::ClockPhase::ONE_EDGE;
  93:../../libdaisy/src/dev/oled_ssd130x.h ****         spi_config.nss            = SpiHandle::Config::NSS::HARD_OUTPUT;
  94:../../libdaisy/src/dev/oled_ssd130x.h ****         spi_config.baud_prescaler = SpiHandle::Config::BaudPrescaler::PS_8;
  95:../../libdaisy/src/dev/oled_ssd130x.h **** 
ARM GAS  C:\Users\VINCIU~1\AppData\Local\Temp\ccF8ydZb.s 			page 23


  96:../../libdaisy/src/dev/oled_ssd130x.h ****         spi_config.pin_config.sclk = {DSY_GPIOG, 11};
  97:../../libdaisy/src/dev/oled_ssd130x.h ****         spi_config.pin_config.miso = {DSY_GPIOX, 0};
  98:../../libdaisy/src/dev/oled_ssd130x.h ****         spi_config.pin_config.mosi = {DSY_GPIOB, 5};
  99:../../libdaisy/src/dev/oled_ssd130x.h ****         spi_config.pin_config.nss  = {DSY_GPIOG, 10};
 100:../../libdaisy/src/dev/oled_ssd130x.h **** 
 101:../../libdaisy/src/dev/oled_ssd130x.h ****         spi_.Init(spi_config);
 102:../../libdaisy/src/dev/oled_ssd130x.h **** 
 103:../../libdaisy/src/dev/oled_ssd130x.h ****         // Reset and Configure OLED.
 104:../../libdaisy/src/dev/oled_ssd130x.h ****         dsy_gpio_write(&pin_reset_, 0);
 105:../../libdaisy/src/dev/oled_ssd130x.h ****         System::Delay(10);
 106:../../libdaisy/src/dev/oled_ssd130x.h ****         dsy_gpio_write(&pin_reset_, 1);
 107:../../libdaisy/src/dev/oled_ssd130x.h ****         System::Delay(10);
 108:../../libdaisy/src/dev/oled_ssd130x.h ****     };
 109:../../libdaisy/src/dev/oled_ssd130x.h ****     void SendCommand(uint8_t cmd)
 110:../../libdaisy/src/dev/oled_ssd130x.h ****     {
 111:../../libdaisy/src/dev/oled_ssd130x.h ****         dsy_gpio_write(&pin_dc_, 0);
 112:../../libdaisy/src/dev/oled_ssd130x.h ****         spi_.BlockingTransmit(&cmd, 1);
 113:../../libdaisy/src/dev/oled_ssd130x.h ****     };
 114:../../libdaisy/src/dev/oled_ssd130x.h **** 
 115:../../libdaisy/src/dev/oled_ssd130x.h ****     void SendData(uint8_t* buff, size_t size)
 116:../../libdaisy/src/dev/oled_ssd130x.h ****     {
 117:../../libdaisy/src/dev/oled_ssd130x.h ****         dsy_gpio_write(&pin_dc_, 1);
 118:../../libdaisy/src/dev/oled_ssd130x.h ****         spi_.BlockingTransmit(buff, size);
 119:../../libdaisy/src/dev/oled_ssd130x.h ****     };
 120:../../libdaisy/src/dev/oled_ssd130x.h **** 
 121:../../libdaisy/src/dev/oled_ssd130x.h ****   private:
 122:../../libdaisy/src/dev/oled_ssd130x.h ****     SpiHandle spi_;
 123:../../libdaisy/src/dev/oled_ssd130x.h ****     dsy_gpio  pin_reset_;
 124:../../libdaisy/src/dev/oled_ssd130x.h ****     dsy_gpio  pin_dc_;
 125:../../libdaisy/src/dev/oled_ssd130x.h **** };
 126:../../libdaisy/src/dev/oled_ssd130x.h **** 
 127:../../libdaisy/src/dev/oled_ssd130x.h **** 
 128:../../libdaisy/src/dev/oled_ssd130x.h **** /**
 129:../../libdaisy/src/dev/oled_ssd130x.h ****  * A driver implementation for the SSD1306/SSD1309
 130:../../libdaisy/src/dev/oled_ssd130x.h ****  */
 131:../../libdaisy/src/dev/oled_ssd130x.h **** template <size_t width, size_t height, typename Transport>
 132:../../libdaisy/src/dev/oled_ssd130x.h **** class SSD130xDriver
 133:../../libdaisy/src/dev/oled_ssd130x.h **** {
 134:../../libdaisy/src/dev/oled_ssd130x.h ****   public:
 135:../../libdaisy/src/dev/oled_ssd130x.h ****     struct Config
 136:../../libdaisy/src/dev/oled_ssd130x.h ****     {
 137:../../libdaisy/src/dev/oled_ssd130x.h ****         typename Transport::Config transport_config;
 138:../../libdaisy/src/dev/oled_ssd130x.h ****     };
 139:../../libdaisy/src/dev/oled_ssd130x.h **** 
 140:../../libdaisy/src/dev/oled_ssd130x.h ****     void Init(Config config)
 141:../../libdaisy/src/dev/oled_ssd130x.h ****     {
 142:../../libdaisy/src/dev/oled_ssd130x.h ****         transport_.Init(config.transport_config);
 143:../../libdaisy/src/dev/oled_ssd130x.h **** 
 144:../../libdaisy/src/dev/oled_ssd130x.h ****         // Init routine...
 145:../../libdaisy/src/dev/oled_ssd130x.h **** 
 146:../../libdaisy/src/dev/oled_ssd130x.h ****         // Display Off
 147:../../libdaisy/src/dev/oled_ssd130x.h ****         transport_.SendCommand(0xaE);
 148:../../libdaisy/src/dev/oled_ssd130x.h ****         // Dimension dependent commands...
 149:../../libdaisy/src/dev/oled_ssd130x.h ****         switch(height)
 150:../../libdaisy/src/dev/oled_ssd130x.h ****         {
 151:../../libdaisy/src/dev/oled_ssd130x.h ****             case 16:
 152:../../libdaisy/src/dev/oled_ssd130x.h ****                 // Display Clock Divide Ratio
ARM GAS  C:\Users\VINCIU~1\AppData\Local\Temp\ccF8ydZb.s 			page 24


 153:../../libdaisy/src/dev/oled_ssd130x.h ****                 transport_.SendCommand(0xD5);
 154:../../libdaisy/src/dev/oled_ssd130x.h ****                 transport_.SendCommand(0x60);
 155:../../libdaisy/src/dev/oled_ssd130x.h ****                 // Multiplex Ratio
 156:../../libdaisy/src/dev/oled_ssd130x.h ****                 transport_.SendCommand(0xA8);
 157:../../libdaisy/src/dev/oled_ssd130x.h ****                 transport_.SendCommand(0x0F);
 158:../../libdaisy/src/dev/oled_ssd130x.h ****                 // COM Pins
 159:../../libdaisy/src/dev/oled_ssd130x.h ****                 transport_.SendCommand(0xDA);
 160:../../libdaisy/src/dev/oled_ssd130x.h ****                 transport_.SendCommand(0x02);
 161:../../libdaisy/src/dev/oled_ssd130x.h ****                 break;
 162:../../libdaisy/src/dev/oled_ssd130x.h ****             case 32:
 163:../../libdaisy/src/dev/oled_ssd130x.h ****                 // Display Clock Divide Ratio
 164:../../libdaisy/src/dev/oled_ssd130x.h ****                 transport_.SendCommand(0xD5);
 165:../../libdaisy/src/dev/oled_ssd130x.h ****                 transport_.SendCommand(0x80);
 166:../../libdaisy/src/dev/oled_ssd130x.h ****                 // Multiplex Ratio
 167:../../libdaisy/src/dev/oled_ssd130x.h ****                 transport_.SendCommand(0xA8);
 168:../../libdaisy/src/dev/oled_ssd130x.h ****                 transport_.SendCommand(0x1F);
 169:../../libdaisy/src/dev/oled_ssd130x.h ****                 // COM Pins
 170:../../libdaisy/src/dev/oled_ssd130x.h ****                 transport_.SendCommand(0xDA);
 171:../../libdaisy/src/dev/oled_ssd130x.h ****                 if(width == 64)
 172:../../libdaisy/src/dev/oled_ssd130x.h ****                 {
 173:../../libdaisy/src/dev/oled_ssd130x.h ****                     transport_.SendCommand(0x12);
 174:../../libdaisy/src/dev/oled_ssd130x.h ****                 }
 175:../../libdaisy/src/dev/oled_ssd130x.h ****                 else
 176:../../libdaisy/src/dev/oled_ssd130x.h ****                 {
 177:../../libdaisy/src/dev/oled_ssd130x.h ****                     transport_.SendCommand(0x02);
 178:../../libdaisy/src/dev/oled_ssd130x.h ****                 }
 179:../../libdaisy/src/dev/oled_ssd130x.h **** 
 180:../../libdaisy/src/dev/oled_ssd130x.h ****                 break;
 181:../../libdaisy/src/dev/oled_ssd130x.h ****             case 48:
 182:../../libdaisy/src/dev/oled_ssd130x.h ****                 // Display Clock Divide Ratio
 183:../../libdaisy/src/dev/oled_ssd130x.h ****                 transport_.SendCommand(0xD5);
 184:../../libdaisy/src/dev/oled_ssd130x.h ****                 transport_.SendCommand(0x80);
 185:../../libdaisy/src/dev/oled_ssd130x.h ****                 // Multiplex Ratio
 186:../../libdaisy/src/dev/oled_ssd130x.h ****                 transport_.SendCommand(0xA8);
 187:../../libdaisy/src/dev/oled_ssd130x.h ****                 transport_.SendCommand(0x2F);
 188:../../libdaisy/src/dev/oled_ssd130x.h ****                 // COM Pins
 189:../../libdaisy/src/dev/oled_ssd130x.h ****                 transport_.SendCommand(0xDA);
 190:../../libdaisy/src/dev/oled_ssd130x.h ****                 transport_.SendCommand(0x12);
 191:../../libdaisy/src/dev/oled_ssd130x.h ****                 break;
 192:../../libdaisy/src/dev/oled_ssd130x.h ****             default: // 128
 193:../../libdaisy/src/dev/oled_ssd130x.h ****                 // Display Clock Divide Ratio
 194:../../libdaisy/src/dev/oled_ssd130x.h ****                 transport_.SendCommand(0xD5);
 195:../../libdaisy/src/dev/oled_ssd130x.h ****                 transport_.SendCommand(0x80);
 196:../../libdaisy/src/dev/oled_ssd130x.h ****                 // Multiplex Ratio
 197:../../libdaisy/src/dev/oled_ssd130x.h ****                 transport_.SendCommand(0xA8);
 198:../../libdaisy/src/dev/oled_ssd130x.h ****                 transport_.SendCommand(0x3F);
 199:../../libdaisy/src/dev/oled_ssd130x.h ****                 // COM Pins
 200:../../libdaisy/src/dev/oled_ssd130x.h ****                 transport_.SendCommand(0xDA);
 201:../../libdaisy/src/dev/oled_ssd130x.h ****                 transport_.SendCommand(0x12);
 202:../../libdaisy/src/dev/oled_ssd130x.h ****                 break;
 203:../../libdaisy/src/dev/oled_ssd130x.h ****         }
 204:../../libdaisy/src/dev/oled_ssd130x.h **** 
 205:../../libdaisy/src/dev/oled_ssd130x.h ****         // Display Offset
 206:../../libdaisy/src/dev/oled_ssd130x.h ****         transport_.SendCommand(0xD3);
 207:../../libdaisy/src/dev/oled_ssd130x.h ****         transport_.SendCommand(0x00);
 208:../../libdaisy/src/dev/oled_ssd130x.h ****         // Start Line Address
 209:../../libdaisy/src/dev/oled_ssd130x.h ****         transport_.SendCommand(0x40);
ARM GAS  C:\Users\VINCIU~1\AppData\Local\Temp\ccF8ydZb.s 			page 25


 210:../../libdaisy/src/dev/oled_ssd130x.h ****         // Normal Display
 211:../../libdaisy/src/dev/oled_ssd130x.h ****         transport_.SendCommand(0xA6);
 212:../../libdaisy/src/dev/oled_ssd130x.h ****         // All On Resume
 213:../../libdaisy/src/dev/oled_ssd130x.h ****         transport_.SendCommand(0xA4);
 214:../../libdaisy/src/dev/oled_ssd130x.h ****         // Charge Pump
 215:../../libdaisy/src/dev/oled_ssd130x.h ****         transport_.SendCommand(0x8D);
 216:../../libdaisy/src/dev/oled_ssd130x.h ****         transport_.SendCommand(0x14);
 217:../../libdaisy/src/dev/oled_ssd130x.h ****         // Set Segment Remap
 218:../../libdaisy/src/dev/oled_ssd130x.h ****         transport_.SendCommand(0xA1);
 219:../../libdaisy/src/dev/oled_ssd130x.h ****         // COM Output Scan Direction
 220:../../libdaisy/src/dev/oled_ssd130x.h ****         transport_.SendCommand(0xC8);
 221:../../libdaisy/src/dev/oled_ssd130x.h ****         // Contrast Control
 222:../../libdaisy/src/dev/oled_ssd130x.h ****         transport_.SendCommand(0x81);
 223:../../libdaisy/src/dev/oled_ssd130x.h ****         transport_.SendCommand(0x8F);
 224:../../libdaisy/src/dev/oled_ssd130x.h ****         // Pre Charge
 225:../../libdaisy/src/dev/oled_ssd130x.h ****         transport_.SendCommand(0xD9);
 226:../../libdaisy/src/dev/oled_ssd130x.h ****         transport_.SendCommand(0x25);
 227:../../libdaisy/src/dev/oled_ssd130x.h ****         // VCOM Detect
 228:../../libdaisy/src/dev/oled_ssd130x.h ****         transport_.SendCommand(0xDB);
 229:../../libdaisy/src/dev/oled_ssd130x.h ****         transport_.SendCommand(0x34);
 230:../../libdaisy/src/dev/oled_ssd130x.h **** 
 231:../../libdaisy/src/dev/oled_ssd130x.h **** 
 232:../../libdaisy/src/dev/oled_ssd130x.h ****         // Display On
 233:../../libdaisy/src/dev/oled_ssd130x.h ****         transport_.SendCommand(0xAF); //--turn on oled panel
 234:../../libdaisy/src/dev/oled_ssd130x.h ****     };
 235:../../libdaisy/src/dev/oled_ssd130x.h **** 
 236:../../libdaisy/src/dev/oled_ssd130x.h ****     size_t Width() const { return width; };
 237:../../libdaisy/src/dev/oled_ssd130x.h ****     size_t Height() const { return height; };
 238:../../libdaisy/src/dev/oled_ssd130x.h **** 
 239:../../libdaisy/src/dev/oled_ssd130x.h ****     void DrawPixel(uint_fast8_t x, uint_fast8_t y, bool on)
 240:../../libdaisy/src/dev/oled_ssd130x.h ****     {
 241:../../libdaisy/src/dev/oled_ssd130x.h ****         if(x >= width || y >= height)
 242:../../libdaisy/src/dev/oled_ssd130x.h ****             return;
 243:../../libdaisy/src/dev/oled_ssd130x.h ****         if(on)
 244:../../libdaisy/src/dev/oled_ssd130x.h ****             buffer_[x + (y / 8) * width] |= (1 << (y % 8));
 245:../../libdaisy/src/dev/oled_ssd130x.h ****         else
 246:../../libdaisy/src/dev/oled_ssd130x.h ****             buffer_[x + (y / 8) * width] &= ~(1 << (y % 8));
 493              		.loc 6 246 55 is_stmt 0 view .LVU134
 494 00a0 04F00703 		and	r3, r4, #7
 495              		.loc 6 246 49 view .LVU135
 496 00a4 4FF0010E 		mov	lr, #1
 497              		.loc 6 246 28 view .LVU136
 498 00a8 E208     		lsrs	r2, r4, #3
 499 00aa 5946     		mov	r1, fp
 500              		.loc 6 246 49 view .LVU137
 501 00ac 0EFA03FE 		lsl	lr, lr, r3
 502 00b0 0BF11403 		add	r3, fp, #20
 503              		.loc 6 246 42 view .LVU138
 504 00b4 4FFA8EFE 		sxtb	lr, lr
 505 00b8 03EBC212 		add	r2, r3, r2, lsl #7
 506              	.LBE252:
 507              	.LBE251:
 508              	.LBE250:
 509              	.LBE249:
 510              	.LBE248:
 376:../../libdaisy/src/hid/disp/display.h ****             {
 511              		.loc 5 376 19 view .LVU139
ARM GAS  C:\Users\VINCIU~1\AppData\Local\Temp\ccF8ydZb.s 			page 26


 512 00bc 0023     		movs	r3, #0
 513              	.LBB270:
 514              	.LBB265:
 515              	.LBB260:
 516              	.LBB256:
 517              	.LBB253:
 518              		.loc 6 246 42 view .LVU140
 519 00be 6FEA0E08 		mvn	r8, lr
 520 00c2 3244     		add	r2, r2, r6
 521 00c4 0DE0     		b	.L40
 522              	.LVL23:
 523              	.L64:
 524              		.loc 6 246 42 view .LVU141
 525              	.LBE253:
 526              	.LBE256:
 527              	.LBE260:
 528              	.LBE265:
 529              	.LBE270:
 530              	.LBB271:
 531              	.LBI271:
  28:../../libdaisy/src/hid/disp/oled_display.h **** 
  29:../../libdaisy/src/hid/disp/oled_display.h ****     /** 
  30:../../libdaisy/src/hid/disp/oled_display.h ****     Fills the entire display with either on/off.
  31:../../libdaisy/src/hid/disp/oled_display.h ****     \param on Sets on or off.
  32:../../libdaisy/src/hid/disp/oled_display.h ****     */
  33:../../libdaisy/src/hid/disp/oled_display.h ****     void Fill(bool on) override { driver_.Fill(on); }
  34:../../libdaisy/src/hid/disp/oled_display.h **** 
  35:../../libdaisy/src/hid/disp/oled_display.h ****     /**
  36:../../libdaisy/src/hid/disp/oled_display.h ****     Sets the pixel at the specified coordinate to be on/off.
  37:../../libdaisy/src/hid/disp/oled_display.h ****     \param x   x Coordinate
  38:../../libdaisy/src/hid/disp/oled_display.h ****     \param y   y coordinate
  39:../../libdaisy/src/hid/disp/oled_display.h ****     \param on  on or off
  40:../../libdaisy/src/hid/disp/oled_display.h ****     */
  41:../../libdaisy/src/hid/disp/oled_display.h ****     void DrawPixel(uint_fast8_t x, uint_fast8_t y, bool on) override
 532              		.loc 1 41 10 is_stmt 1 view .LVU142
 533              	.LBB272:
 534              	.LBI272:
 239:../../libdaisy/src/dev/oled_ssd130x.h ****     {
 535              		.loc 6 239 10 view .LVU143
 536              	.LBB273:
 241:../../libdaisy/src/dev/oled_ssd130x.h ****             return;
 537              		.loc 6 241 9 is_stmt 0 view .LVU144
 538 00c6 7F29     		cmp	r1, #127
 539 00c8 06D8     		bhi	.L36
 540 00ca 3F2C     		cmp	r4, #63
 541 00cc 04D8     		bhi	.L36
 244:../../libdaisy/src/dev/oled_ssd130x.h ****         else
 542              		.loc 6 244 42 view .LVU145
 543 00ce 1078     		ldrb	r0, [r2]	@ zero_extendqisi2
 243:../../libdaisy/src/dev/oled_ssd130x.h ****             buffer_[x + (y / 8) * width] |= (1 << (y % 8));
 544              		.loc 6 243 9 view .LVU146
 545 00d0 97B1     		cbz	r7, .L38
 546              	.L61:
 243:../../libdaisy/src/dev/oled_ssd130x.h ****             buffer_[x + (y / 8) * width] |= (1 << (y % 8));
 547              		.loc 6 243 9 view .LVU147
 548              	.LBE273:
 549              	.LBE272:
ARM GAS  C:\Users\VINCIU~1\AppData\Local\Temp\ccF8ydZb.s 			page 27


 550              	.LBE271:
 551              	.LBB274:
 552              	.LBB266:
 553              	.LBB261:
 244:../../libdaisy/src/dev/oled_ssd130x.h ****         else
 554              		.loc 6 244 42 view .LVU148
 555 00d2 4EEA0000 		orr	r0, lr, r0
 556 00d6 1070     		strb	r0, [r2]
 557              	.L36:
 558              	.LBE261:
 559              	.LBE266:
 560              	.LBE274:
 376:../../libdaisy/src/hid/disp/display.h ****             {
 561              		.loc 5 376 13 is_stmt 1 view .LVU149
 562 00d8 0133     		adds	r3, r3, #1
 563              	.LVL24:
 376:../../libdaisy/src/hid/disp/display.h ****             {
 564              		.loc 5 376 26 view .LVU150
 565 00da 0132     		adds	r2, r2, #1
 566 00dc 0131     		adds	r1, r1, #1
 567 00de AB42     		cmp	r3, r5
 568 00e0 13D0     		beq	.L39
 569              	.LVL25:
 570              	.L40:
 378:../../libdaisy/src/hid/disp/display.h ****                 {
 571              		.loc 5 378 23 is_stmt 0 view .LVU151
 572 00e2 0CFA03F0 		lsl	r0, ip, r3
 378:../../libdaisy/src/hid/disp/display.h ****                 {
 573              		.loc 5 378 17 view .LVU152
 574 00e6 0004     		lsls	r0, r0, #16
 575 00e8 EDD4     		bmi	.L64
 576              	.LVL26:
 577              	.LBB275:
 578              	.LBI248:
 579              		.loc 1 41 10 is_stmt 1 view .LVU153
 580              	.LBB267:
 581              	.LBI249:
 239:../../libdaisy/src/dev/oled_ssd130x.h ****     {
 582              		.loc 6 239 10 view .LVU154
 583              	.LBB262:
 241:../../libdaisy/src/dev/oled_ssd130x.h ****             return;
 584              		.loc 6 241 9 is_stmt 0 view .LVU155
 585 00ea 7F29     		cmp	r1, #127
 586 00ec F4D8     		bhi	.L36
 587 00ee 3F2C     		cmp	r4, #63
 588 00f0 F2D8     		bhi	.L36
 244:../../libdaisy/src/dev/oled_ssd130x.h ****         else
 589              		.loc 6 244 42 view .LVU156
 590 00f2 1078     		ldrb	r0, [r2]	@ zero_extendqisi2
 243:../../libdaisy/src/dev/oled_ssd130x.h ****             buffer_[x + (y / 8) * width] |= (1 << (y % 8));
 591              		.loc 6 243 9 view .LVU157
 592 00f4 002F     		cmp	r7, #0
 593 00f6 ECD0     		beq	.L61
 594              	.L38:
 595              	.LVL27:
 596              	.LBB257:
 597              	.LBI251:
ARM GAS  C:\Users\VINCIU~1\AppData\Local\Temp\ccF8ydZb.s 			page 28


 239:../../libdaisy/src/dev/oled_ssd130x.h ****     {
 598              		.loc 6 239 10 is_stmt 1 view .LVU158
 239:../../libdaisy/src/dev/oled_ssd130x.h ****     {
 599              		.loc 6 239 10 is_stmt 0 view .LVU159
 600              	.LBE257:
 601              	.LBE262:
 602              	.LBE267:
 603              	.LBE275:
 376:../../libdaisy/src/hid/disp/display.h ****             {
 604              		.loc 5 376 13 view .LVU160
 605 00f8 0133     		adds	r3, r3, #1
 606              	.LVL28:
 607              	.LBB276:
 608              	.LBB268:
 609              	.LBB263:
 610              	.LBB258:
 611              	.LBB254:
 612              		.loc 6 246 42 view .LVU161
 613 00fa 08EA0000 		and	r0, r8, r0
 614              	.LBE254:
 615              	.LBE258:
 616              	.LBE263:
 617              	.LBE268:
 618              	.LBE276:
 376:../../libdaisy/src/hid/disp/display.h ****             {
 619              		.loc 5 376 26 view .LVU162
 620 00fe 0132     		adds	r2, r2, #1
 621 0100 0131     		adds	r1, r1, #1
 622 0102 AB42     		cmp	r3, r5
 623              	.LBB277:
 624              	.LBB269:
 625              	.LBB264:
 626              	.LBB259:
 627              	.LBB255:
 628              		.loc 6 246 42 view .LVU163
 629 0104 02F8010C 		strb	r0, [r2, #-1]
 630              		.loc 6 246 42 view .LVU164
 631              	.LBE255:
 632              	.LBE259:
 633              	.LBE264:
 634              	.LBE269:
 635              	.LBE277:
 376:../../libdaisy/src/hid/disp/display.h ****             {
 636              		.loc 5 376 13 is_stmt 1 view .LVU165
 637              	.LVL29:
 376:../../libdaisy/src/hid/disp/display.h ****             {
 638              		.loc 5 376 26 view .LVU166
 639 0108 EBD1     		bne	.L40
 640              	.LVL30:
 641              	.L39:
 373:../../libdaisy/src/hid/disp/display.h ****         {
 642              		.loc 5 373 9 view .LVU167
 373:../../libdaisy/src/hid/disp/display.h ****         {
 643              		.loc 5 373 22 view .LVU168
 644 010a D145     		cmp	r9, r10
 645 010c 04F10104 		add	r4, r4, #1
 646 0110 C3D1     		bne	.L34
ARM GAS  C:\Users\VINCIU~1\AppData\Local\Temp\ccF8ydZb.s 			page 29


 647 0112 DDF81080 		ldr	r8, [sp, #16]
 648              	.LVL31:
 649              	.L33:
 650              	.LBB278:
 651              	.LBB279:
 133:../../libdaisy/src/hid/disp/display.h ****         currentY_ = (y >= Height()) ? Height() - 1 : y;
 652              		.loc 5 133 33 is_stmt 0 view .LVU169
 653 0116 3268     		ldr	r2, [r6]
 654              	.LBE279:
 655              	.LBE278:
 394:../../libdaisy/src/hid/disp/display.h **** 
 656              		.loc 5 394 18 view .LVU170
 657 0118 0BEB0504 		add	r4, fp, r5
 658 011c 2649     		ldr	r1, .L69
 659              	.LBB284:
 660              	.LBB280:
 133:../../libdaisy/src/hid/disp/display.h ****         currentY_ = (y >= Height()) ? Height() - 1 : y;
 661              		.loc 5 133 33 view .LVU171
 662 011e D368     		ldr	r3, [r2, #12]
 663              	.LBE280:
 664              	.LBE284:
 394:../../libdaisy/src/hid/disp/display.h **** 
 665              		.loc 5 394 18 view .LVU172
 666 0120 A4B2     		uxth	r4, r4
 667              	.LVL32:
 668              	.LBB285:
 669              	.LBI278:
 131:../../libdaisy/src/hid/disp/display.h ****     {
 670              		.loc 5 131 10 is_stmt 1 view .LVU173
 671              	.LBB281:
 133:../../libdaisy/src/hid/disp/display.h ****         currentY_ = (y >= Height()) ? Height() - 1 : y;
 672              		.loc 5 133 9 view .LVU174
 673 0122 8B42     		cmp	r3, r1
 674 0124 34D1     		bne	.L65
 133:../../libdaisy/src/hid/disp/display.h ****         currentY_ = (y >= Height()) ? Height() - 1 : y;
 675              		.loc 5 133 33 is_stmt 0 view .LVU175
 676 0126 8020     		movs	r0, #128
 677              	.L41:
 133:../../libdaisy/src/hid/disp/display.h ****         currentY_ = (y >= Height()) ? Height() - 1 : y;
 678              		.loc 5 133 19 view .LVU176
 679 0128 8442     		cmp	r4, r0
 680 012a 04D3     		bcc	.L42
 133:../../libdaisy/src/hid/disp/display.h ****         currentY_ = (y >= Height()) ? Height() - 1 : y;
 681              		.loc 5 133 44 view .LVU177
 682 012c D368     		ldr	r3, [r2, #12]
 683 012e 2249     		ldr	r1, .L69
 684 0130 8B42     		cmp	r3, r1
 685 0132 3AD1     		bne	.L66
 686 0134 7F24     		movs	r4, #127
 687              	.LVL33:
 688              	.L42:
 134:../../libdaisy/src/hid/disp/display.h ****     }
 689              		.loc 5 134 34 view .LVU178
 690 0136 9368     		ldr	r3, [r2, #8]
 691 0138 204A     		ldr	r2, .L69+4
 133:../../libdaisy/src/hid/disp/display.h ****         currentY_ = (y >= Height()) ? Height() - 1 : y;
 692              		.loc 5 133 19 view .LVU179
ARM GAS  C:\Users\VINCIU~1\AppData\Local\Temp\ccF8ydZb.s 			page 30


 693 013a B480     		strh	r4, [r6, #4]	@ movhi
 134:../../libdaisy/src/hid/disp/display.h ****     }
 694              		.loc 5 134 9 is_stmt 1 view .LVU180
 695 013c 9342     		cmp	r3, r2
 696 013e 24D1     		bne	.L67
 134:../../libdaisy/src/hid/disp/display.h ****     }
 697              		.loc 5 134 34 is_stmt 0 view .LVU181
 698 0140 4020     		movs	r0, #64
 699              	.L44:
 134:../../libdaisy/src/hid/disp/display.h ****     }
 700              		.loc 5 134 19 view .LVU182
 701 0142 029B     		ldr	r3, [sp, #8]
 702 0144 8342     		cmp	r3, r0
 703 0146 06D3     		bcc	.L45
 134:../../libdaisy/src/hid/disp/display.h ****     }
 704              		.loc 5 134 46 view .LVU183
 705 0148 3368     		ldr	r3, [r6]
 706 014a 1C4A     		ldr	r2, .L69+4
 707 014c 9B68     		ldr	r3, [r3, #8]
 708 014e 9342     		cmp	r3, r2
 709 0150 25D1     		bne	.L68
 710 0152 3F23     		movs	r3, #63
 711 0154 0293     		str	r3, [sp, #8]
 712              	.LVL34:
 713              	.L45:
 134:../../libdaisy/src/hid/disp/display.h ****     }
 714              		.loc 5 134 19 view .LVU184
 715 0156 029B     		ldr	r3, [sp, #8]
 716 0158 F380     		strh	r3, [r6, #6]	@ movhi
 717              	.LVL35:
 718              	.L27:
 134:../../libdaisy/src/hid/disp/display.h ****     }
 719              		.loc 5 134 19 view .LVU185
 720              	.LBE281:
 721              	.LBE285:
 722              	.LBE247:
 723              	.LBE246:
 404:../../libdaisy/src/hid/disp/display.h ****         {
 405:../../libdaisy/src/hid/disp/display.h ****             if(((ChildType*)(this))->ChildType::WriteChar(*str, font, on)
 406:../../libdaisy/src/hid/disp/display.h ****                != *str)
 724              		.loc 5 406 16 view .LVU186
 725 015a 019B     		ldr	r3, [sp, #4]
 726 015c 1878     		ldrb	r0, [r3]	@ zero_extendqisi2
 405:../../libdaisy/src/hid/disp/display.h ****                != *str)
 727              		.loc 5 405 13 view .LVU187
 728 015e 4045     		cmp	r0, r8
 729 0160 07D1     		bne	.L25
 730              	.LVL36:
 403:../../libdaisy/src/hid/disp/display.h ****         {
 731              		.loc 5 403 9 is_stmt 1 view .LVU188
 732 0162 13F8018F 		ldrb	r8, [r3, #1]!	@ zero_extendqisi2
 733              	.LVL37:
 403:../../libdaisy/src/hid/disp/display.h ****         {
 734              		.loc 5 403 9 is_stmt 0 view .LVU189
 735 0166 0193     		str	r3, [sp, #4]
 736 0168 B8F1000F 		cmp	r8, #0
 737 016c 7FF460AF 		bne	.L48
ARM GAS  C:\Users\VINCIU~1\AppData\Local\Temp\ccF8ydZb.s 			page 31


 738              	.LVL38:
 739              	.L47:
 740              	.LBB290:
 741              	.LBB288:
 362:../../libdaisy/src/hid/disp/display.h **** 
 742              		.loc 5 362 20 view .LVU190
 743 0170 0020     		movs	r0, #0
 744              	.L25:
 745              	.LBE288:
 746              	.LBE290:
 407:../../libdaisy/src/hid/disp/display.h ****             {
 408:../../libdaisy/src/hid/disp/display.h ****                 // Char could not be written
 409:../../libdaisy/src/hid/disp/display.h ****                 return *str;
 410:../../libdaisy/src/hid/disp/display.h ****             }
 411:../../libdaisy/src/hid/disp/display.h **** 
 412:../../libdaisy/src/hid/disp/display.h ****             // Next char
 413:../../libdaisy/src/hid/disp/display.h ****             str++;
 414:../../libdaisy/src/hid/disp/display.h ****         }
 415:../../libdaisy/src/hid/disp/display.h **** 
 416:../../libdaisy/src/hid/disp/display.h ****         // Everything ok
 417:../../libdaisy/src/hid/disp/display.h ****         return *str;
 418:../../libdaisy/src/hid/disp/display.h ****     }
 747              		.loc 5 418 5 view .LVU191
 748 0172 09B0     		add	sp, sp, #36
 749              		.cfi_remember_state
 750              		.cfi_def_cfa_offset 36
 751              		@ sp needed
 752 0174 BDE8F08F 		pop	{r4, r5, r6, r7, r8, r9, r10, fp, pc}
 753              	.LVL39:
 754              	.L29:
 755              		.cfi_restore_state
 756              	.LBB291:
 757              	.LBB289:
 362:../../libdaisy/src/hid/disp/display.h **** 
 758              		.loc 5 362 20 view .LVU192
 759 0178 4FF00008 		mov	r8, #0
 760              	.LVL40:
 362:../../libdaisy/src/hid/disp/display.h **** 
 761              		.loc 5 362 20 view .LVU193
 762 017c EDE7     		b	.L27
 763              	.LVL41:
 764              	.L62:
 365:../../libdaisy/src/hid/disp/display.h ****            || Height() < (currentY_ + font.FontHeight))
 765              		.loc 5 365 17 view .LVU194
 766 017e 3046     		mov	r0, r6
 767 0180 9847     		blx	r3
 768              	.LVL42:
 769 0182 62E7     		b	.L28
 770              	.L63:
 366:../../libdaisy/src/hid/disp/display.h ****         {
 771              		.loc 5 366 21 view .LVU195
 772 0184 3046     		mov	r0, r6
 773 0186 9847     		blx	r3
 774              	.LVL43:
 775 0188 6BE7     		b	.L30
 776              	.LVL44:
 777              	.L67:
ARM GAS  C:\Users\VINCIU~1\AppData\Local\Temp\ccF8ydZb.s 			page 32


 778              	.LBB286:
 779              	.LBB282:
 134:../../libdaisy/src/hid/disp/display.h ****     }
 780              		.loc 5 134 33 view .LVU196
 781 018a 3046     		mov	r0, r6
 782 018c 9847     		blx	r3
 783              	.LVL45:
 784 018e D8E7     		b	.L44
 785              	.LVL46:
 786              	.L65:
 133:../../libdaisy/src/hid/disp/display.h ****         currentY_ = (y >= Height()) ? Height() - 1 : y;
 787              		.loc 5 133 32 view .LVU197
 788 0190 3046     		mov	r0, r6
 789 0192 9847     		blx	r3
 790              	.LVL47:
 133:../../libdaisy/src/hid/disp/display.h ****         currentY_ = (y >= Height()) ? Height() - 1 : y;
 791              		.loc 5 133 44 view .LVU198
 792 0194 3268     		ldr	r2, [r6]
 793 0196 C7E7     		b	.L41
 794              	.LVL48:
 795              	.L31:
 133:../../libdaisy/src/hid/disp/display.h ****         currentY_ = (y >= Height()) ? Height() - 1 : y;
 796              		.loc 5 133 44 view .LVU199
 797              	.LBE282:
 798              	.LBE286:
 394:../../libdaisy/src/hid/disp/display.h **** 
 799              		.loc 5 394 19 view .LVU200
 800 0198 B6F804B0 		ldrh	fp, [r6, #4]
 801 019c BBE7     		b	.L33
 802              	.LVL49:
 803              	.L68:
 804              	.LBB287:
 805              	.LBB283:
 134:../../libdaisy/src/hid/disp/display.h ****     }
 806              		.loc 5 134 45 view .LVU201
 807 019e 3046     		mov	r0, r6
 808 01a0 9847     		blx	r3
 809              	.LVL50:
 134:../../libdaisy/src/hid/disp/display.h ****     }
 810              		.loc 5 134 19 view .LVU202
 811 01a2 0138     		subs	r0, r0, #1
 812 01a4 83B2     		uxth	r3, r0
 813 01a6 0293     		str	r3, [sp, #8]
 814              	.LVL51:
 134:../../libdaisy/src/hid/disp/display.h ****     }
 815              		.loc 5 134 19 view .LVU203
 816 01a8 D5E7     		b	.L45
 817              	.LVL52:
 818              	.L66:
 133:../../libdaisy/src/hid/disp/display.h ****         currentY_ = (y >= Height()) ? Height() - 1 : y;
 819              		.loc 5 133 43 view .LVU204
 820 01aa 3046     		mov	r0, r6
 821 01ac 9847     		blx	r3
 822              	.LVL53:
 133:../../libdaisy/src/hid/disp/display.h ****         currentY_ = (y >= Height()) ? Height() - 1 : y;
 823              		.loc 5 133 19 view .LVU205
 824 01ae 0138     		subs	r0, r0, #1
ARM GAS  C:\Users\VINCIU~1\AppData\Local\Temp\ccF8ydZb.s 			page 33


 134:../../libdaisy/src/hid/disp/display.h ****     }
 825              		.loc 5 134 34 view .LVU206
 826 01b0 3268     		ldr	r2, [r6]
 133:../../libdaisy/src/hid/disp/display.h ****         currentY_ = (y >= Height()) ? Height() - 1 : y;
 827              		.loc 5 133 19 view .LVU207
 828 01b2 84B2     		uxth	r4, r0
 829              	.LVL54:
 133:../../libdaisy/src/hid/disp/display.h ****         currentY_ = (y >= Height()) ? Height() - 1 : y;
 830              		.loc 5 133 19 view .LVU208
 831 01b4 BFE7     		b	.L42
 832              	.L70:
 833 01b6 00BF     		.align	2
 834              	.L69:
 835 01b8 00000000 		.word	_ZNK5daisy11OledDisplayINS_13SSD130xDriverILj128ELj64ENS_24SSD130x4WireSpiTransportEEEE5Widt
 836 01bc 00000000 		.word	_ZNK5daisy11OledDisplayINS_13SSD130xDriverILj128ELj64ENS_24SSD130x4WireSpiTransportEEEE6Heig
 837              	.LBE283:
 838              	.LBE287:
 839              	.LBE289:
 840              	.LBE291:
 841              		.cfi_endproc
 842              	.LFE4336:
 844              		.section	.rodata._ZN5Menus5Menu2E23OledDisplayExtravaganzaPN7daisysp10OscillatorE.str1.4,"aMS",%pr
 845              		.align	2
 846              	.LC1:
 847 0000 496E6974 		.ascii	"Init_%d%%\000"
 847      5F256425 
 847      2500
 848 000a 0000     		.align	2
 849              	.LC2:
 850 000c 54696D65 		.ascii	"Time_%d%%\000"
 850      5F256425 
 850      2500
 851              		.section	.text._ZN5Menus5Menu2E23OledDisplayExtravaganzaPN7daisysp10OscillatorE,"ax",%progbits
 852              		.align	1
 853              		.p2align 2,,3
 854              		.global	_ZN5Menus5Menu2E23OledDisplayExtravaganzaPN7daisysp10OscillatorE
 855              		.syntax unified
 856              		.thumb
 857              		.thumb_func
 858              		.fpu fpv5-d16
 860              	_ZN5Menus5Menu2E23OledDisplayExtravaganzaPN7daisysp10OscillatorE:
 861              	.LVL55:
 862              	.LFB4040:
  89:Menus.cpp     **** 
  90:Menus.cpp     **** void Menus::Menu1(OledDisplayExtravaganza screen, daisysp::Oscillator osc[])
  91:Menus.cpp     **** 
  92:Menus.cpp     **** {
  93:Menus.cpp     ****     screen.Fill(!on);
  94:Menus.cpp     ****     if(this->buttonLeft.RisingEdge())
  95:Menus.cpp     **** 
  96:Menus.cpp     ****     {
  97:Menus.cpp     ****         menuState = menuState - 1;
  98:Menus.cpp     ****         if(menuState < 0)
  99:Menus.cpp     ****         {
 100:Menus.cpp     ****             menuState = 3;
 101:Menus.cpp     ****         }
 102:Menus.cpp     ****     }
ARM GAS  C:\Users\VINCIU~1\AppData\Local\Temp\ccF8ydZb.s 			page 34


 103:Menus.cpp     ****     if(this->buttonRight.RisingEdge())
 104:Menus.cpp     **** 
 105:Menus.cpp     ****     {
 106:Menus.cpp     ****         menuState = menuState + 1;
 107:Menus.cpp     ****         if(menuState > 3)
 108:Menus.cpp     ****         {
 109:Menus.cpp     ****             menuState = 0;
 110:Menus.cpp     ****         }
 111:Menus.cpp     ****     }
 112:Menus.cpp     **** 
 113:Menus.cpp     ****     screen.drawHorizontalToggle(46, 13, 8, on, this->OscSelector, "");
 114:Menus.cpp     **** 
 115:Menus.cpp     ****     if(this->OscSelector == true)
 116:Menus.cpp     ****     {
 117:Menus.cpp     ****         screen.drawSlider(70, 7, 50, 3, on, ((this->drawSliderSemi)) / 40);
 118:Menus.cpp     ****         screen.drawSlider(70, 40, 50, 3, on, drawSliderFine);
 119:Menus.cpp     ****         screen.drawVerticalToggle(13, 51, 8, on, this->toggleOsc, "");
 120:Menus.cpp     ****         screen.WaveIcons(35, 42, 55, this->selectedWave, on);
 121:Menus.cpp     ****         screen.SetCursor(70, 17);
 122:Menus.cpp     ****         screen.WriteString(this->buff, Font_6x8, true);
 123:Menus.cpp     ****         screen.SetCursor(70, 50);
 124:Menus.cpp     ****         screen.WriteString(this->buffFine, Font_6x8, true);
 125:Menus.cpp     ****     }
 126:Menus.cpp     ****     else
 127:Menus.cpp     ****     {
 128:Menus.cpp     ****         screen.drawSlider(70, 7, 50, 3, false, (this->drawSliderSemi2) / 40);
 129:Menus.cpp     ****         screen.drawSlider(70, 40, 50, 3, false, drawSliderFine2);
 130:Menus.cpp     ****         screen.drawVerticalToggle(13, 51, 8, false, this->toggleOsc2, "");
 131:Menus.cpp     ****         screen.WaveIcons(35, 42, 55, this->selectedWave2, false);
 132:Menus.cpp     ****         screen.SetCursor(70, 17);
 133:Menus.cpp     ****         screen.WriteString(this->buff2, Font_6x8, false);
 134:Menus.cpp     ****         screen.SetCursor(70, 50);
 135:Menus.cpp     ****         screen.WriteString(this->buffFine2, Font_6x8, false);
 136:Menus.cpp     ****     }
 137:Menus.cpp     **** 
 138:Menus.cpp     **** 
 139:Menus.cpp     ****     screen.SetCursor(4, 8);
 140:Menus.cpp     ****     screen.WriteString("Osc", Font_7x10, on);
 141:Menus.cpp     **** 
 142:Menus.cpp     **** 
 143:Menus.cpp     ****     for(int i = 0; i < screen.Width(); i++)
 144:Menus.cpp     ****     {
 145:Menus.cpp     ****         screen.DrawPixel(i * 3, (screen.Height() / 2) - 3, on);
 146:Menus.cpp     ****     }
 147:Menus.cpp     ****     for(int i = 0; i < screen.Height(); i++)
 148:Menus.cpp     ****     {
 149:Menus.cpp     ****         screen.DrawPixel(60, i * 2, on);
 150:Menus.cpp     ****     }
 151:Menus.cpp     ****     for(int i = screen.Height() / 4 - 1; i < screen.Height(); i++)
 152:Menus.cpp     ****     {
 153:Menus.cpp     ****         screen.DrawPixel(29, i * 2, on);
 154:Menus.cpp     ****     }
 155:Menus.cpp     **** 
 156:Menus.cpp     ****     if(encoderLeft.RisingEdge())
 157:Menus.cpp     ****     {
 158:Menus.cpp     ****         this->OscSelector = !this->OscSelector;
 159:Menus.cpp     ****         on                = this->OscSelector;
ARM GAS  C:\Users\VINCIU~1\AppData\Local\Temp\ccF8ydZb.s 			page 35


 160:Menus.cpp     ****     }
 161:Menus.cpp     ****     else if(menuState == 0)
 162:Menus.cpp     ****     {
 163:Menus.cpp     ****         if(this->OscSelector == true)
 164:Menus.cpp     ****         {
 165:Menus.cpp     ****             if(this->noteSemiAdd > 32)
 166:Menus.cpp     ****             {
 167:Menus.cpp     ****                 this->noteSemiAdd = 32;
 168:Menus.cpp     ****             }
 169:Menus.cpp     ****             if(this->noteSemiAdd < 0)
 170:Menus.cpp     ****             {
 171:Menus.cpp     ****                 this->noteSemiAdd = 0;
 172:Menus.cpp     ****             }
 173:Menus.cpp     ****             if(this->drawSliderSemi >= 40)
 174:Menus.cpp     ****             {
 175:Menus.cpp     ****                 this->drawSliderSemi = 40;
 176:Menus.cpp     ****             }
 177:Menus.cpp     ****             if(this->drawSliderSemi < 0)
 178:Menus.cpp     ****             {
 179:Menus.cpp     ****                 this->drawSliderSemi = 0;
 180:Menus.cpp     ****             }
 181:Menus.cpp     ****             this->noteSemiAdd += this->encoderRight.Increment();
 182:Menus.cpp     ****             this->drawSliderSemi
 183:Menus.cpp     ****                 += (((float)this->encoderRight.Increment()) / 32) * 40;
 184:Menus.cpp     ****             sprintf(this->buff, "Semi_%dst", this->noteSemiAdd);
 185:Menus.cpp     ****         }
 186:Menus.cpp     ****         else
 187:Menus.cpp     ****         {
 188:Menus.cpp     ****             if(this->noteSemiAdd2 > 32)
 189:Menus.cpp     ****             {
 190:Menus.cpp     ****                 this->noteSemiAdd2 = 32;
 191:Menus.cpp     ****             }
 192:Menus.cpp     ****             if(this->noteSemiAdd2 < 0)
 193:Menus.cpp     ****             {
 194:Menus.cpp     ****                 this->noteSemiAdd2 = 0;
 195:Menus.cpp     ****             }
 196:Menus.cpp     ****             if(this->drawSliderSemi2 >= 40)
 197:Menus.cpp     ****             {
 198:Menus.cpp     ****                 this->drawSliderSemi2 = 40;
 199:Menus.cpp     ****             }
 200:Menus.cpp     ****             if(this->drawSliderSemi2 < 0)
 201:Menus.cpp     ****             {
 202:Menus.cpp     ****                 this->drawSliderSemi2 = 0;
 203:Menus.cpp     ****             }
 204:Menus.cpp     ****             this->noteSemiAdd2 += (float)this->encoderRight.Increment();
 205:Menus.cpp     ****             this->drawSliderSemi2
 206:Menus.cpp     ****                 += (((float)this->encoderRight.Increment()) / 32) * 40;
 207:Menus.cpp     ****             sprintf(this->buff2, "Semi_%dst", this->noteSemiAdd2);
 208:Menus.cpp     ****         }
 209:Menus.cpp     **** 
 210:Menus.cpp     **** 
 211:Menus.cpp     ****         screen.DrawRect(
 212:Menus.cpp     ****             60, 0, screen.Width() - 1, screen.Height() / 2 - 3, on, false);
 213:Menus.cpp     ****     }
 214:Menus.cpp     ****     else if(menuState == 1)
 215:Menus.cpp     ****     {
 216:Menus.cpp     ****         if(this->OscSelector == true)
ARM GAS  C:\Users\VINCIU~1\AppData\Local\Temp\ccF8ydZb.s 			page 36


 217:Menus.cpp     **** 
 218:Menus.cpp     ****         {
 219:Menus.cpp     ****             if(this->encoderRight.Increment() == 1)
 220:Menus.cpp     ****             {
 221:Menus.cpp     ****                 synthOn         = 1;
 222:Menus.cpp     ****                 this->toggleOsc = false;
 223:Menus.cpp     ****             }
 224:Menus.cpp     ****             if(this->encoderRight.Increment() == -1)
 225:Menus.cpp     ****             {
 226:Menus.cpp     ****                 synthOn         = 0;
 227:Menus.cpp     ****                 this->toggleOsc = true;
 228:Menus.cpp     ****             }
 229:Menus.cpp     ****         }
 230:Menus.cpp     ****         else
 231:Menus.cpp     ****         {
 232:Menus.cpp     ****             if(this->encoderRight.Increment() == 1)
 233:Menus.cpp     ****             {
 234:Menus.cpp     ****                 synthOn2         = 1;
 235:Menus.cpp     ****                 this->toggleOsc2 = false;
 236:Menus.cpp     ****             }
 237:Menus.cpp     ****             if(this->encoderRight.Increment() == -1)
 238:Menus.cpp     ****             {
 239:Menus.cpp     ****                 synthOn2         = 0;
 240:Menus.cpp     ****                 this->toggleOsc2 = true;
 241:Menus.cpp     ****             }
 242:Menus.cpp     ****         }
 243:Menus.cpp     **** 
 244:Menus.cpp     ****         screen.DrawRect(
 245:Menus.cpp     ****             0, screen.Height() / 2 - 3, 29, screen.Height() - 1, on, false);
 246:Menus.cpp     ****     }
 247:Menus.cpp     ****     else if(menuState == 2)
 248:Menus.cpp     ****     {
 249:Menus.cpp     ****         if(this->OscSelector == true)
 250:Menus.cpp     ****         {
 251:Menus.cpp     ****             this->setWave += this->encoderRight.Increment();
 252:Menus.cpp     ****             if(setWave > 3)
 253:Menus.cpp     ****             {
 254:Menus.cpp     ****                 this->setWave = 3;
 255:Menus.cpp     ****             }
 256:Menus.cpp     ****             if(this->setWave < 0)
 257:Menus.cpp     ****             {
 258:Menus.cpp     ****                 this->setWave = 0;
 259:Menus.cpp     ****             }
 260:Menus.cpp     ****             if(this->setWave == 0)
 261:Menus.cpp     ****             {
 262:Menus.cpp     ****                 for(int i = 0; i < 2; i++)
 263:Menus.cpp     ****                 {
 264:Menus.cpp     ****                     selectedWave = setWave;
 265:Menus.cpp     ****                     osc[0].SetWaveform(osc[0].WAVE_SIN);
 266:Menus.cpp     ****                 }
 267:Menus.cpp     ****             }
 268:Menus.cpp     ****             else if(setWave == 1)
 269:Menus.cpp     ****             {
 270:Menus.cpp     ****                 for(int i = 0; i < 2; i++)
 271:Menus.cpp     ****                 {
 272:Menus.cpp     ****                     selectedWave = setWave;
 273:Menus.cpp     ****                     osc[0].SetWaveform(osc[0].WAVE_TRI);
ARM GAS  C:\Users\VINCIU~1\AppData\Local\Temp\ccF8ydZb.s 			page 37


 274:Menus.cpp     ****                 }
 275:Menus.cpp     ****             }
 276:Menus.cpp     ****             else if(setWave == 2)
 277:Menus.cpp     ****             {
 278:Menus.cpp     ****                 for(int i = 0; i < 2; i++)
 279:Menus.cpp     ****                 {
 280:Menus.cpp     ****                     selectedWave = setWave;
 281:Menus.cpp     ****                     osc[0].SetWaveform(osc[0].WAVE_SQUARE);
 282:Menus.cpp     ****                 }
 283:Menus.cpp     ****             }
 284:Menus.cpp     ****             else if(setWave == 3)
 285:Menus.cpp     ****             {
 286:Menus.cpp     ****                 for(int i = 0; i < 2; i++)
 287:Menus.cpp     ****                 {
 288:Menus.cpp     ****                     selectedWave = setWave;
 289:Menus.cpp     ****                     osc[0].SetWaveform(osc[0].WAVE_SAW);
 290:Menus.cpp     ****                 }
 291:Menus.cpp     ****             }
 292:Menus.cpp     ****         }
 293:Menus.cpp     ****         {
 294:Menus.cpp     ****             if(this->OscSelector == false)
 295:Menus.cpp     ****             {
 296:Menus.cpp     ****                 if(setWave2 > 3)
 297:Menus.cpp     ****                 {
 298:Menus.cpp     ****                     this->setWave2 = 3;
 299:Menus.cpp     ****                 }
 300:Menus.cpp     ****                 if(this->setWave2 < 0)
 301:Menus.cpp     ****                 {
 302:Menus.cpp     ****                     this->setWave2 = 0;
 303:Menus.cpp     ****                 }
 304:Menus.cpp     ****                 this->setWave2 += this->encoderRight.Increment();
 305:Menus.cpp     ****                 if(setWave2 > 3)
 306:Menus.cpp     ****                 {
 307:Menus.cpp     ****                     this->setWave2 = 3;
 308:Menus.cpp     ****                 }
 309:Menus.cpp     ****                 if(this->setWave2 < 0)
 310:Menus.cpp     ****                 {
 311:Menus.cpp     ****                     this->setWave2 = 0;
 312:Menus.cpp     ****                 }
 313:Menus.cpp     ****                 if(this->setWave2 == 0)
 314:Menus.cpp     ****                 {
 315:Menus.cpp     ****                     for(int i = 0; i < 2; i++)
 316:Menus.cpp     ****                     {
 317:Menus.cpp     ****                         selectedWave2 = setWave2;
 318:Menus.cpp     ****                         osc[1].SetWaveform(osc[1].WAVE_SIN);
 319:Menus.cpp     ****                     }
 320:Menus.cpp     ****                 }
 321:Menus.cpp     ****                 else if(setWave2 == 1)
 322:Menus.cpp     ****                 {
 323:Menus.cpp     ****                     for(int i = 0; i < 2; i++)
 324:Menus.cpp     ****                     {
 325:Menus.cpp     ****                         selectedWave2 = setWave2;
 326:Menus.cpp     ****                         osc[1].SetWaveform(osc[1].WAVE_TRI);
 327:Menus.cpp     ****                     }
 328:Menus.cpp     ****                 }
 329:Menus.cpp     ****                 else if(setWave2 == 2)
 330:Menus.cpp     ****                 {
ARM GAS  C:\Users\VINCIU~1\AppData\Local\Temp\ccF8ydZb.s 			page 38


 331:Menus.cpp     ****                     for(int i = 0; i < 2; i++)
 332:Menus.cpp     ****                     {
 333:Menus.cpp     ****                         selectedWave2 = setWave2;
 334:Menus.cpp     ****                         osc[1].SetWaveform(osc[1].WAVE_SQUARE);
 335:Menus.cpp     ****                     }
 336:Menus.cpp     ****                 }
 337:Menus.cpp     ****                 else if(setWave2 == 3)
 338:Menus.cpp     ****                 {
 339:Menus.cpp     ****                     for(int i = 0; i < 2; i++)
 340:Menus.cpp     ****                     {
 341:Menus.cpp     ****                         selectedWave2 = setWave2;
 342:Menus.cpp     ****                         osc[1].SetWaveform(osc[1].WAVE_SAW);
 343:Menus.cpp     ****                     }
 344:Menus.cpp     ****                 }
 345:Menus.cpp     ****             }
 346:Menus.cpp     **** 
 347:Menus.cpp     **** 
 348:Menus.cpp     ****             screen.DrawRect(29,
 349:Menus.cpp     ****                             screen.Height() / 2 - 3,
 350:Menus.cpp     ****                             60,
 351:Menus.cpp     ****                             screen.Height() - 1,
 352:Menus.cpp     ****                             on,
 353:Menus.cpp     ****                             false);
 354:Menus.cpp     ****         }
 355:Menus.cpp     ****     }
 356:Menus.cpp     ****     else if(menuState == 3)
 357:Menus.cpp     ****     {
 358:Menus.cpp     ****         /*  this->noteSemiAdd
 359:Menus.cpp     ****                 += (((float)this->encoderRight.Increment()) / 32) * 40;
 360:Menus.cpp     ****             this->drawSliderSemi
 361:Menus.cpp     ****                 += ((float)this->encoderRight.Increment()) / 32; */
 362:Menus.cpp     **** 
 363:Menus.cpp     **** 
 364:Menus.cpp     ****         if(this->OscSelector == true)
 365:Menus.cpp     ****         {
 366:Menus.cpp     ****             if(this->freqFine >= 1)
 367:Menus.cpp     ****             {
 368:Menus.cpp     ****                 this->freqFine = 1;
 369:Menus.cpp     ****             }
 370:Menus.cpp     ****             if(this->freqFine < 0)
 371:Menus.cpp     ****             {
 372:Menus.cpp     ****                 this->freqFine = 0;
 373:Menus.cpp     ****             }
 374:Menus.cpp     ****             if(this->drawSliderFine >= 1)
 375:Menus.cpp     ****             {
 376:Menus.cpp     ****                 this->drawSliderFine = 1;
 377:Menus.cpp     ****             }
 378:Menus.cpp     ****             if(this->drawSliderFine < 0)
 379:Menus.cpp     ****             {
 380:Menus.cpp     ****                 this->drawSliderFine = 0;
 381:Menus.cpp     ****             }
 382:Menus.cpp     **** 
 383:Menus.cpp     ****             this->freqFine += (((float)this->encoderRight.Increment()) / 32);
 384:Menus.cpp     ****             this->drawSliderFine += (((float)this->encoderRight.Increment()) / 32);
 385:Menus.cpp     ****             sprintf(this->buffFine, "Fine_%d%%", (int)(freqFine * 100));
 386:Menus.cpp     ****         }
 387:Menus.cpp     ****         else
ARM GAS  C:\Users\VINCIU~1\AppData\Local\Temp\ccF8ydZb.s 			page 39


 388:Menus.cpp     ****         {
 389:Menus.cpp     ****             if(this->freqFine2 > 1)
 390:Menus.cpp     ****             {
 391:Menus.cpp     ****                 this->freqFine2 = 1;
 392:Menus.cpp     ****             }
 393:Menus.cpp     ****             if(this->freqFine2 < 0)
 394:Menus.cpp     ****             {
 395:Menus.cpp     ****                 this->freqFine2 = 0;
 396:Menus.cpp     ****             }
 397:Menus.cpp     ****             if(this->drawSliderFine2 >= 1)
 398:Menus.cpp     ****             {
 399:Menus.cpp     ****                 this->drawSliderFine2 = 1;
 400:Menus.cpp     ****             }
 401:Menus.cpp     ****             if(this->drawSliderFine2 < 0)
 402:Menus.cpp     ****             {
 403:Menus.cpp     ****                 this->drawSliderFine2 = 0;
 404:Menus.cpp     ****             }
 405:Menus.cpp     **** 
 406:Menus.cpp     ****              this->freqFine2 += (((float)this->encoderRight.Increment()) / 32);
 407:Menus.cpp     ****             this->drawSliderFine2 += (((float)this->encoderRight.Increment()) / 32);
 408:Menus.cpp     ****             sprintf(this->buffFine2, "Fine_%d%%", (int)(freqFine2 * 100));
 409:Menus.cpp     ****         }
 410:Menus.cpp     **** 
 411:Menus.cpp     ****         screen.DrawRect(60,
 412:Menus.cpp     ****                         screen.Height() / 2 - 3,
 413:Menus.cpp     ****                         screen.Width() - 1,
 414:Menus.cpp     ****                         screen.Height() - 1,
 415:Menus.cpp     ****                         on,
 416:Menus.cpp     ****                         false);
 417:Menus.cpp     ****     }
 418:Menus.cpp     ****     //noteCross            = noteCross + (this->drawSliderSemi * 100);
 419:Menus.cpp     ****     screen.Update();
 420:Menus.cpp     **** }
 421:Menus.cpp     **** 
 422:Menus.cpp     **** void Menus::Menu2(OledDisplayExtravaganza screen, daisysp::Oscillator osc[])
 423:Menus.cpp     **** {
 863              		.loc 2 423 1 is_stmt 1 view -0
 864              		.cfi_startproc
 865              		@ args = 0, pretend = 0, frame = 24
 866              		@ frame_needed = 0, uses_anonymous_args = 0
 867              		.loc 2 423 1 is_stmt 0 view .LVU210
 868 0000 2DE9F04F 		push	{r4, r5, r6, r7, r8, r9, r10, fp, lr}
 869              		.cfi_def_cfa_offset 36
 870              		.cfi_offset 4, -36
 871              		.cfi_offset 5, -32
 872              		.cfi_offset 6, -28
 873              		.cfi_offset 7, -24
 874              		.cfi_offset 8, -20
 875              		.cfi_offset 9, -16
 876              		.cfi_offset 10, -12
 877              		.cfi_offset 11, -8
 878              		.cfi_offset 14, -4
 879 0004 0C46     		mov	r4, r1
 880 0006 0646     		mov	r6, r0
 424:Menus.cpp     ****     screen.Fill(false);
 881              		.loc 2 424 5 is_stmt 1 view .LVU211
 882              	.LVL56:
ARM GAS  C:\Users\VINCIU~1\AppData\Local\Temp\ccF8ydZb.s 			page 40


 883              	.LBB500:
 884              	.LBI500:
  33:../../libdaisy/src/hid/disp/oled_display.h **** 
 885              		.loc 1 33 10 view .LVU212
 886              	.LBB501:
 887              	.LBI501:
 247:../../libdaisy/src/dev/oled_ssd130x.h ****     }
 248:../../libdaisy/src/dev/oled_ssd130x.h **** 
 249:../../libdaisy/src/dev/oled_ssd130x.h ****     void Fill(bool on)
 888              		.loc 6 249 10 view .LVU213
 889              	.LBB502:
 250:../../libdaisy/src/dev/oled_ssd130x.h ****     {
 251:../../libdaisy/src/dev/oled_ssd130x.h ****         for(size_t i = 0; i < sizeof(buffer_); i++)
 890              		.loc 6 251 29 view .LVU214
 252:../../libdaisy/src/dev/oled_ssd130x.h ****         {
 253:../../libdaisy/src/dev/oled_ssd130x.h ****             buffer_[i] = on ? 0xff : 0x00;
 891              		.loc 6 253 24 is_stmt 0 view .LVU215
 892 0008 4FF48062 		mov	r2, #1024
 893              	.LVL57:
 894              		.loc 6 253 24 view .LVU216
 895              	.LBE502:
 896              	.LBE501:
 897              	.LBE500:
 423:Menus.cpp     ****     screen.Fill(false);
 898              		.loc 2 423 1 view .LVU217
 899 000c 8BB0     		sub	sp, sp, #44
 900              		.cfi_def_cfa_offset 80
 901              	.LBB505:
 902              	.LBB504:
 903              	.LBB503:
 904              		.loc 6 253 24 view .LVU218
 905 000e 0021     		movs	r1, #0
 906              	.LVL58:
 907              		.loc 6 253 24 view .LVU219
 908 0010 04F11400 		add	r0, r4, #20
 909              	.LVL59:
 910              		.loc 6 253 24 view .LVU220
 911 0014 FFF7FEFF 		bl	memset
 912              	.LVL60:
 913              		.loc 6 253 24 view .LVU221
 914              	.LBE503:
 915              	.LBE504:
 916              	.LBE505:
 425:Menus.cpp     **** 
 426:Menus.cpp     ****     if(abs(this->analogRead - this->analogLastRead) > 0.001)
 917              		.loc 2 426 5 is_stmt 1 view .LVU222
 918              		.loc 2 426 18 is_stmt 0 view .LVU223
 919 0018 D6ED004A 		vldr.32	s9, [r6]
 920              	.LVL61:
 921              	.LBB506:
 922              	.LBI506:
 923              		.file 7 "c:\\users\\vin\355cius\\documents\\daisytoolchain-0.3.1\\windows\\arm-none-eabi\\include\
   1:c:\users\vincius\documents\daisytoolchain-0.3.1\windows\arm-none-eabi\include\c++\10.2.1\bits\std_abs.h **** // -*- C++ -*- C library enhancements header.
   2:c:\users\vincius\documents\daisytoolchain-0.3.1\windows\arm-none-eabi\include\c++\10.2.1\bits\std_abs.h **** 
   3:c:\users\vincius\documents\daisytoolchain-0.3.1\windows\arm-none-eabi\include\c++\10.2.1\bits\std_abs.h **** // Copyright (C) 2016-2020 Free Software Foundation, Inc.
   4:c:\users\vincius\documents\daisytoolchain-0.3.1\windows\arm-none-eabi\include\c++\10.2.1\bits\std_abs.h **** //
   5:c:\users\vincius\documents\daisytoolchain-0.3.1\windows\arm-none-eabi\include\c++\10.2.1\bits\std_abs.h **** // This file is part of the GNU ISO C++ Library.  This library is free
ARM GAS  C:\Users\VINCIU~1\AppData\Local\Temp\ccF8ydZb.s 			page 41


   6:c:\users\vincius\documents\daisytoolchain-0.3.1\windows\arm-none-eabi\include\c++\10.2.1\bits\std_abs.h **** // software; you can redistribute it and/or modify it under the
   7:c:\users\vincius\documents\daisytoolchain-0.3.1\windows\arm-none-eabi\include\c++\10.2.1\bits\std_abs.h **** // terms of the GNU General Public License as published by the
   8:c:\users\vincius\documents\daisytoolchain-0.3.1\windows\arm-none-eabi\include\c++\10.2.1\bits\std_abs.h **** // Free Software Foundation; either version 3, or (at your option)
   9:c:\users\vincius\documents\daisytoolchain-0.3.1\windows\arm-none-eabi\include\c++\10.2.1\bits\std_abs.h **** // any later version.
  10:c:\users\vincius\documents\daisytoolchain-0.3.1\windows\arm-none-eabi\include\c++\10.2.1\bits\std_abs.h **** 
  11:c:\users\vincius\documents\daisytoolchain-0.3.1\windows\arm-none-eabi\include\c++\10.2.1\bits\std_abs.h **** // This library is distributed in the hope that it will be useful,
  12:c:\users\vincius\documents\daisytoolchain-0.3.1\windows\arm-none-eabi\include\c++\10.2.1\bits\std_abs.h **** // but WITHOUT ANY WARRANTY; without even the implied warranty of
  13:c:\users\vincius\documents\daisytoolchain-0.3.1\windows\arm-none-eabi\include\c++\10.2.1\bits\std_abs.h **** // MERCHANTABILITY or FITNESS FOR A PARTICULAR PURPOSE.  See the
  14:c:\users\vincius\documents\daisytoolchain-0.3.1\windows\arm-none-eabi\include\c++\10.2.1\bits\std_abs.h **** // GNU General Public License for more details.
  15:c:\users\vincius\documents\daisytoolchain-0.3.1\windows\arm-none-eabi\include\c++\10.2.1\bits\std_abs.h **** 
  16:c:\users\vincius\documents\daisytoolchain-0.3.1\windows\arm-none-eabi\include\c++\10.2.1\bits\std_abs.h **** // Under Section 7 of GPL version 3, you are granted additional
  17:c:\users\vincius\documents\daisytoolchain-0.3.1\windows\arm-none-eabi\include\c++\10.2.1\bits\std_abs.h **** // permissions described in the GCC Runtime Library Exception, version
  18:c:\users\vincius\documents\daisytoolchain-0.3.1\windows\arm-none-eabi\include\c++\10.2.1\bits\std_abs.h **** // 3.1, as published by the Free Software Foundation.
  19:c:\users\vincius\documents\daisytoolchain-0.3.1\windows\arm-none-eabi\include\c++\10.2.1\bits\std_abs.h **** 
  20:c:\users\vincius\documents\daisytoolchain-0.3.1\windows\arm-none-eabi\include\c++\10.2.1\bits\std_abs.h **** // You should have received a copy of the GNU General Public License and
  21:c:\users\vincius\documents\daisytoolchain-0.3.1\windows\arm-none-eabi\include\c++\10.2.1\bits\std_abs.h **** // a copy of the GCC Runtime Library Exception along with this program;
  22:c:\users\vincius\documents\daisytoolchain-0.3.1\windows\arm-none-eabi\include\c++\10.2.1\bits\std_abs.h **** // see the files COPYING3 and COPYING.RUNTIME respectively.  If not, see
  23:c:\users\vincius\documents\daisytoolchain-0.3.1\windows\arm-none-eabi\include\c++\10.2.1\bits\std_abs.h **** // <http://www.gnu.org/licenses/>.
  24:c:\users\vincius\documents\daisytoolchain-0.3.1\windows\arm-none-eabi\include\c++\10.2.1\bits\std_abs.h **** 
  25:c:\users\vincius\documents\daisytoolchain-0.3.1\windows\arm-none-eabi\include\c++\10.2.1\bits\std_abs.h **** /** @file include/bits/std_abs.h
  26:c:\users\vincius\documents\daisytoolchain-0.3.1\windows\arm-none-eabi\include\c++\10.2.1\bits\std_abs.h ****  *  This is an internal header file, included by other library headers.
  27:c:\users\vincius\documents\daisytoolchain-0.3.1\windows\arm-none-eabi\include\c++\10.2.1\bits\std_abs.h ****  *  Do not attempt to use it directly. @headername{cmath, cstdlib}
  28:c:\users\vincius\documents\daisytoolchain-0.3.1\windows\arm-none-eabi\include\c++\10.2.1\bits\std_abs.h ****  */
  29:c:\users\vincius\documents\daisytoolchain-0.3.1\windows\arm-none-eabi\include\c++\10.2.1\bits\std_abs.h **** 
  30:c:\users\vincius\documents\daisytoolchain-0.3.1\windows\arm-none-eabi\include\c++\10.2.1\bits\std_abs.h **** #ifndef _GLIBCXX_BITS_STD_ABS_H
  31:c:\users\vincius\documents\daisytoolchain-0.3.1\windows\arm-none-eabi\include\c++\10.2.1\bits\std_abs.h **** #define _GLIBCXX_BITS_STD_ABS_H
  32:c:\users\vincius\documents\daisytoolchain-0.3.1\windows\arm-none-eabi\include\c++\10.2.1\bits\std_abs.h **** 
  33:c:\users\vincius\documents\daisytoolchain-0.3.1\windows\arm-none-eabi\include\c++\10.2.1\bits\std_abs.h **** #pragma GCC system_header
  34:c:\users\vincius\documents\daisytoolchain-0.3.1\windows\arm-none-eabi\include\c++\10.2.1\bits\std_abs.h **** 
  35:c:\users\vincius\documents\daisytoolchain-0.3.1\windows\arm-none-eabi\include\c++\10.2.1\bits\std_abs.h **** #include <bits/c++config.h>
  36:c:\users\vincius\documents\daisytoolchain-0.3.1\windows\arm-none-eabi\include\c++\10.2.1\bits\std_abs.h **** 
  37:c:\users\vincius\documents\daisytoolchain-0.3.1\windows\arm-none-eabi\include\c++\10.2.1\bits\std_abs.h **** #define _GLIBCXX_INCLUDE_NEXT_C_HEADERS
  38:c:\users\vincius\documents\daisytoolchain-0.3.1\windows\arm-none-eabi\include\c++\10.2.1\bits\std_abs.h **** #include_next <stdlib.h>
  39:c:\users\vincius\documents\daisytoolchain-0.3.1\windows\arm-none-eabi\include\c++\10.2.1\bits\std_abs.h **** #ifdef __CORRECT_ISO_CPP_MATH_H_PROTO
  40:c:\users\vincius\documents\daisytoolchain-0.3.1\windows\arm-none-eabi\include\c++\10.2.1\bits\std_abs.h **** # include_next <math.h>
  41:c:\users\vincius\documents\daisytoolchain-0.3.1\windows\arm-none-eabi\include\c++\10.2.1\bits\std_abs.h **** #endif
  42:c:\users\vincius\documents\daisytoolchain-0.3.1\windows\arm-none-eabi\include\c++\10.2.1\bits\std_abs.h **** #undef _GLIBCXX_INCLUDE_NEXT_C_HEADERS
  43:c:\users\vincius\documents\daisytoolchain-0.3.1\windows\arm-none-eabi\include\c++\10.2.1\bits\std_abs.h **** 
  44:c:\users\vincius\documents\daisytoolchain-0.3.1\windows\arm-none-eabi\include\c++\10.2.1\bits\std_abs.h **** #undef abs
  45:c:\users\vincius\documents\daisytoolchain-0.3.1\windows\arm-none-eabi\include\c++\10.2.1\bits\std_abs.h **** 
  46:c:\users\vincius\documents\daisytoolchain-0.3.1\windows\arm-none-eabi\include\c++\10.2.1\bits\std_abs.h **** extern "C++"
  47:c:\users\vincius\documents\daisytoolchain-0.3.1\windows\arm-none-eabi\include\c++\10.2.1\bits\std_abs.h **** {
  48:c:\users\vincius\documents\daisytoolchain-0.3.1\windows\arm-none-eabi\include\c++\10.2.1\bits\std_abs.h **** namespace std _GLIBCXX_VISIBILITY(default)
  49:c:\users\vincius\documents\daisytoolchain-0.3.1\windows\arm-none-eabi\include\c++\10.2.1\bits\std_abs.h **** {
  50:c:\users\vincius\documents\daisytoolchain-0.3.1\windows\arm-none-eabi\include\c++\10.2.1\bits\std_abs.h **** _GLIBCXX_BEGIN_NAMESPACE_VERSION
  51:c:\users\vincius\documents\daisytoolchain-0.3.1\windows\arm-none-eabi\include\c++\10.2.1\bits\std_abs.h **** 
  52:c:\users\vincius\documents\daisytoolchain-0.3.1\windows\arm-none-eabi\include\c++\10.2.1\bits\std_abs.h ****   using ::abs;
  53:c:\users\vincius\documents\daisytoolchain-0.3.1\windows\arm-none-eabi\include\c++\10.2.1\bits\std_abs.h **** 
  54:c:\users\vincius\documents\daisytoolchain-0.3.1\windows\arm-none-eabi\include\c++\10.2.1\bits\std_abs.h **** #ifndef __CORRECT_ISO_CPP_STDLIB_H_PROTO
  55:c:\users\vincius\documents\daisytoolchain-0.3.1\windows\arm-none-eabi\include\c++\10.2.1\bits\std_abs.h ****   inline long
  56:c:\users\vincius\documents\daisytoolchain-0.3.1\windows\arm-none-eabi\include\c++\10.2.1\bits\std_abs.h ****   abs(long __i) { return __builtin_labs(__i); }
  57:c:\users\vincius\documents\daisytoolchain-0.3.1\windows\arm-none-eabi\include\c++\10.2.1\bits\std_abs.h **** #endif
  58:c:\users\vincius\documents\daisytoolchain-0.3.1\windows\arm-none-eabi\include\c++\10.2.1\bits\std_abs.h **** 
  59:c:\users\vincius\documents\daisytoolchain-0.3.1\windows\arm-none-eabi\include\c++\10.2.1\bits\std_abs.h **** #ifdef _GLIBCXX_USE_LONG_LONG
  60:c:\users\vincius\documents\daisytoolchain-0.3.1\windows\arm-none-eabi\include\c++\10.2.1\bits\std_abs.h ****   inline long long
  61:c:\users\vincius\documents\daisytoolchain-0.3.1\windows\arm-none-eabi\include\c++\10.2.1\bits\std_abs.h ****   abs(long long __x) { return __builtin_llabs (__x); }
  62:c:\users\vincius\documents\daisytoolchain-0.3.1\windows\arm-none-eabi\include\c++\10.2.1\bits\std_abs.h **** #endif
ARM GAS  C:\Users\VINCIU~1\AppData\Local\Temp\ccF8ydZb.s 			page 42


  63:c:\users\vincius\documents\daisytoolchain-0.3.1\windows\arm-none-eabi\include\c++\10.2.1\bits\std_abs.h **** 
  64:c:\users\vincius\documents\daisytoolchain-0.3.1\windows\arm-none-eabi\include\c++\10.2.1\bits\std_abs.h **** // _GLIBCXX_RESOLVE_LIB_DEFECTS
  65:c:\users\vincius\documents\daisytoolchain-0.3.1\windows\arm-none-eabi\include\c++\10.2.1\bits\std_abs.h **** // 2192. Validity and return type of std::abs(0u) is unclear
  66:c:\users\vincius\documents\daisytoolchain-0.3.1\windows\arm-none-eabi\include\c++\10.2.1\bits\std_abs.h **** // 2294. <cstdlib> should declare abs(double)
  67:c:\users\vincius\documents\daisytoolchain-0.3.1\windows\arm-none-eabi\include\c++\10.2.1\bits\std_abs.h **** // 2735. std::abs(short), std::abs(signed char) and others should return int
  68:c:\users\vincius\documents\daisytoolchain-0.3.1\windows\arm-none-eabi\include\c++\10.2.1\bits\std_abs.h **** 
  69:c:\users\vincius\documents\daisytoolchain-0.3.1\windows\arm-none-eabi\include\c++\10.2.1\bits\std_abs.h **** #ifndef __CORRECT_ISO_CPP_MATH_H_PROTO
  70:c:\users\vincius\documents\daisytoolchain-0.3.1\windows\arm-none-eabi\include\c++\10.2.1\bits\std_abs.h ****   inline _GLIBCXX_CONSTEXPR double
  71:c:\users\vincius\documents\daisytoolchain-0.3.1\windows\arm-none-eabi\include\c++\10.2.1\bits\std_abs.h ****   abs(double __x)
  72:c:\users\vincius\documents\daisytoolchain-0.3.1\windows\arm-none-eabi\include\c++\10.2.1\bits\std_abs.h ****   { return __builtin_fabs(__x); }
  73:c:\users\vincius\documents\daisytoolchain-0.3.1\windows\arm-none-eabi\include\c++\10.2.1\bits\std_abs.h **** 
  74:c:\users\vincius\documents\daisytoolchain-0.3.1\windows\arm-none-eabi\include\c++\10.2.1\bits\std_abs.h ****   inline _GLIBCXX_CONSTEXPR float
  75:c:\users\vincius\documents\daisytoolchain-0.3.1\windows\arm-none-eabi\include\c++\10.2.1\bits\std_abs.h ****   abs(float __x)
 924              		.loc 7 75 3 is_stmt 1 view .LVU224
 925              	.LBB507:
  76:c:\users\vincius\documents\daisytoolchain-0.3.1\windows\arm-none-eabi\include\c++\10.2.1\bits\std_abs.h ****   { return __builtin_fabsf(__x); }
 926              		.loc 7 76 5 view .LVU225
 927              		.loc 7 76 5 is_stmt 0 view .LVU226
 928              	.LBE507:
 929              	.LBE506:
 930              		.loc 2 426 11 view .LVU227
 931 001c 96ED017A 		vldr.32	s14, [r6, #4]
 427:Menus.cpp     ****     {
 428:Menus.cpp     ****         this->updateValue = true;
 429:Menus.cpp     ****     }
 430:Menus.cpp     ****     else
 431:Menus.cpp     ****     {
 432:Menus.cpp     ****         this->updateValue = false;
 433:Menus.cpp     ****     }
 434:Menus.cpp     ****     float glideInit;
 435:Menus.cpp     ****     float margin = 10;
 436:Menus.cpp     ****     float offset = (screen.Height() / 4);
 437:Menus.cpp     ****     glideInit    = (offset + (this->analogRead * screen.Height() * 0.625));
 932              		.loc 2 437 28 view .LVU228
 933 0020 B6EE042B 		vmov.f64	d2, #6.25e-1
 934              		.loc 2 437 48 view .LVU229
 935 0024 9FEDD06A 		vldr.32	s12, .L146+8
 936              		.loc 2 437 28 view .LVU230
 937 0028 B3EE005B 		vmov.f64	d5, #1.6e+1
 426:Menus.cpp     ****     {
 938              		.loc 2 426 11 view .LVU231
 939 002c 34EEC77A 		vsub.f32	s14, s9, s14
 438:Menus.cpp     ****     if(this->buttonLeft.RisingEdge())
 940              		.loc 2 438 5 view .LVU232
 941 0030 96F85130 		ldrb	r3, [r6, #81]	@ zero_extendqisi2
 437:Menus.cpp     ****     if(this->buttonLeft.RisingEdge())
 942              		.loc 2 437 48 view .LVU233
 943 0034 24EE866A 		vmul.f32	s12, s9, s12
 944              	.LBB509:
 945              	.LBB508:
 946              		.loc 7 76 31 view .LVU234
 947 0038 B0EEC77A 		vabs.f32	s14, s14
 948              	.LBE508:
 949              	.LBE509:
 437:Menus.cpp     ****     if(this->buttonLeft.RisingEdge())
 950              		.loc 2 437 48 view .LVU235
 951 003c B7EEC66A 		vcvt.f64.f32	d6, s12
ARM GAS  C:\Users\VINCIU~1\AppData\Local\Temp\ccF8ydZb.s 			page 43


 426:Menus.cpp     ****     {
 952              		.loc 2 426 5 view .LVU236
 953 0040 9FEDC73B 		vldr.64	d3, .L146
 426:Menus.cpp     ****     {
 954              		.loc 2 426 11 view .LVU237
 955 0044 B7EEC77A 		vcvt.f64.f32	d7, s14
 437:Menus.cpp     ****     if(this->buttonLeft.RisingEdge())
 956              		.loc 2 437 28 view .LVU238
 957 0048 A6EE025B 		vfma.f64	d5, d6, d2
 426:Menus.cpp     ****     {
 958              		.loc 2 426 5 view .LVU239
 959 004c B4EEC37B 		vcmpe.f64	d7, d3
 960 0050 F1EE10FA 		vmrs	APSR_nzcv, FPSCR
 961 0054 CCBF     		ite	gt
 962 0056 0122     		movgt	r2, #1
 963 0058 0022     		movle	r2, #0
 964              		.loc 2 438 5 view .LVU240
 965 005a 7F2B     		cmp	r3, #127
 437:Menus.cpp     ****     if(this->buttonLeft.RisingEdge())
 966              		.loc 2 437 18 view .LVU241
 967 005c B7EEC55B 		vcvt.f32.f64	s10, d5
 439:Menus.cpp     **** 
 440:Menus.cpp     ****     {
 441:Menus.cpp     ****         this->menuStateGlide = this->menuStateGlide - 1;
 968              		.loc 2 441 53 view .LVU242
 969 0060 336F     		ldr	r3, [r6, #112]
 426:Menus.cpp     ****     {
 970              		.loc 2 426 5 view .LVU243
 971 0062 3272     		strb	r2, [r6, #8]
 434:Menus.cpp     ****     float margin = 10;
 972              		.loc 2 434 5 is_stmt 1 view .LVU244
 435:Menus.cpp     ****     float offset = (screen.Height() / 4);
 973              		.loc 2 435 5 view .LVU245
 974              	.LVL62:
 436:Menus.cpp     ****     glideInit    = (offset + (this->analogRead * screen.Height() * 0.625));
 975              		.loc 2 436 5 view .LVU246
 437:Menus.cpp     ****     if(this->buttonLeft.RisingEdge())
 976              		.loc 2 437 5 view .LVU247
 438:Menus.cpp     **** 
 977              		.loc 2 438 5 view .LVU248
 978              	.LBB510:
 979              	.LBI510:
  41:../../libdaisy/src/hid/switch.h ****     ~Switch() {}
  42:../../libdaisy/src/hid/switch.h **** 
  43:../../libdaisy/src/hid/switch.h ****     /** 
  44:../../libdaisy/src/hid/switch.h ****     Initializes the switch object with a given port/pin combo.
  45:../../libdaisy/src/hid/switch.h ****     \param pin port/pin object to tell the switch which hardware pin to use.
  46:../../libdaisy/src/hid/switch.h ****     \param update_rate the rate at which the Debounce() function will be called. (used for timing).
  47:../../libdaisy/src/hid/switch.h ****     \param t switch type -- Default: TYPE_MOMENTARY
  48:../../libdaisy/src/hid/switch.h ****     \param pol switch polarity -- Default: POLARITY_INVERTED
  49:../../libdaisy/src/hid/switch.h ****     \param pu switch pull up/down -- Default: PULL_UP
  50:../../libdaisy/src/hid/switch.h ****     */
  51:../../libdaisy/src/hid/switch.h ****     void
  52:../../libdaisy/src/hid/switch.h ****     Init(dsy_gpio_pin pin, float update_rate, Type t, Polarity pol, Pull pu);
  53:../../libdaisy/src/hid/switch.h **** 
  54:../../libdaisy/src/hid/switch.h ****     /**
  55:../../libdaisy/src/hid/switch.h ****        Simplified Init.
ARM GAS  C:\Users\VINCIU~1\AppData\Local\Temp\ccF8ydZb.s 			page 44


  56:../../libdaisy/src/hid/switch.h ****        \param pin port/pin object to tell the switch which hardware pin to use.
  57:../../libdaisy/src/hid/switch.h ****        \param update_rate the rate at which the Debounce() function will be called. (used for timin
  58:../../libdaisy/src/hid/switch.h ****     */
  59:../../libdaisy/src/hid/switch.h ****     void Init(dsy_gpio_pin pin, float update_rate);
  60:../../libdaisy/src/hid/switch.h **** 
  61:../../libdaisy/src/hid/switch.h ****     /** 
  62:../../libdaisy/src/hid/switch.h ****     Called at update_rate to debounce and handle timing for the switch.
  63:../../libdaisy/src/hid/switch.h ****     In order for events not to be missed, its important that the Edge/Pressed checks
  64:../../libdaisy/src/hid/switch.h ****     be made at the same rate as the debounce function is being called.
  65:../../libdaisy/src/hid/switch.h ****     */
  66:../../libdaisy/src/hid/switch.h ****     void Debounce();
  67:../../libdaisy/src/hid/switch.h **** 
  68:../../libdaisy/src/hid/switch.h ****     /** \return true if a button was just pressed. */
  69:../../libdaisy/src/hid/switch.h ****     inline bool RisingEdge() const { return state_ == 0x7f; }
 980              		.loc 4 69 17 view .LVU249
 981              	.LBB511:
 982              		.loc 4 69 38 view .LVU250
 983              		.loc 4 69 38 is_stmt 0 view .LVU251
 984              	.LBE511:
 985              	.LBE510:
 438:Menus.cpp     **** 
 986              		.loc 2 438 5 view .LVU252
 987 0064 00F08E81 		beq	.L142
 988              	.L74:
 442:Menus.cpp     ****         if(this->menuStateGlide < 0)
 443:Menus.cpp     ****         {
 444:Menus.cpp     ****             this->menuStateGlide = 1;
 445:Menus.cpp     ****         }
 446:Menus.cpp     ****     }
 447:Menus.cpp     ****     if(this->buttonRight.RisingEdge())
 989              		.loc 2 447 5 is_stmt 1 view .LVU253
 990              	.LVL63:
 991              	.LBB512:
 992              	.LBI512:
 993              		.loc 4 69 17 view .LVU254
 994              	.LBB513:
 995              		.loc 4 69 38 view .LVU255
 996              		.loc 4 69 38 is_stmt 0 view .LVU256
 997              	.LBE513:
 998              	.LBE512:
 999              		.loc 2 447 5 view .LVU257
 1000 0068 96F86120 		ldrb	r2, [r6, #97]	@ zero_extendqisi2
 1001 006c 7F2A     		cmp	r2, #127
 1002 006e 4CD0     		beq	.L143
 1003              	.L77:
 448:Menus.cpp     **** 
 449:Menus.cpp     ****     {
 450:Menus.cpp     ****         this->menuStateGlide = this->menuStateGlide + 1;
 451:Menus.cpp     ****         if(this->menuStateGlide > 1)
 452:Menus.cpp     ****         {
 453:Menus.cpp     ****             this->menuStateGlide = 0;
 454:Menus.cpp     ****         }
 455:Menus.cpp     ****     }
 456:Menus.cpp     ****     if(this->menuStateGlide == 0)
 1004              		.loc 2 456 5 is_stmt 1 view .LVU258
 1005 0070 002B     		cmp	r3, #0
 1006 0072 50D0     		beq	.L76
ARM GAS  C:\Users\VINCIU~1\AppData\Local\Temp\ccF8ydZb.s 			page 45


 457:Menus.cpp     ****     {
 458:Menus.cpp     ****         if(this->updateValue)
 459:Menus.cpp     ****         {
 460:Menus.cpp     ****             circleGlidePosition = ((screen.Height()) + margin) - glideInit;
 461:Menus.cpp     ****             sprintf(this->buffPitchGlide,
 462:Menus.cpp     ****                     "Init_%d%%",
 463:Menus.cpp     ****                     (int)(((glideInit - offset) / 40) * 200) - 100);
 464:Menus.cpp     ****             this->glideInit = (this->analogRead * 24) - 12;
 465:Menus.cpp     ****         }
 466:Menus.cpp     ****         screen.DrawRect(0, 0, 66, 13, true, false);
 467:Menus.cpp     ****     }
 468:Menus.cpp     ****     else if(this->menuStateGlide == 1)
 1007              		.loc 2 468 10 view .LVU259
 1008 0074 012B     		cmp	r3, #1
 1009 0076 00F0C981 		beq	.L75
 1010 007a 06F58E77 		add	r7, r6, #284
 1011              	.LVL64:
 1012              	.L93:
 461:Menus.cpp     ****                     "Init_%d%%",
 1013              		.loc 2 461 27 is_stmt 0 view .LVU260
 1014 007e 06F58275 		add	r5, r6, #260
 1015              	.L87:
 469:Menus.cpp     ****     {
 470:Menus.cpp     ****         if(this->updateValue)
 471:Menus.cpp     ****         {
 472:Menus.cpp     ****             circleGlideTimePosition
 473:Menus.cpp     ****                 = ((this->analogRead * screen.Width() * 0.8) + margin);
 474:Menus.cpp     ****             this->glideTime = this->analogRead * 2;
 475:Menus.cpp     ****             sprintf(this->buffPitchTime,
 476:Menus.cpp     ****                     "Time_%d%%",
 477:Menus.cpp     ****                     (int)(((glideInit - offset) / 40) * 100) - 0);
 478:Menus.cpp     ****         }
 479:Menus.cpp     ****         screen.DrawRect(67, 0, screen.Width() - 2, 13, true, false);
 480:Menus.cpp     ****     }
 481:Menus.cpp     **** 
 482:Menus.cpp     ****     screen.SetCursor(6, 4);
 1016              		.loc 2 482 5 is_stmt 1 view .LVU261
 1017              	.LVL65:
 1018              	.LBB515:
 1019              	.LBI515:
 131:../../libdaisy/src/hid/disp/display.h ****     {
 1020              		.loc 5 131 10 view .LVU262
 1021              	.LBB516:
 133:../../libdaisy/src/hid/disp/display.h ****         currentY_ = (y >= Height()) ? Height() - 1 : y;
 1022              		.loc 5 133 9 view .LVU263
 134:../../libdaisy/src/hid/disp/display.h ****     }
 1023              		.loc 5 134 9 view .LVU264
 1024              	.LBE516:
 1025              	.LBE515:
 483:Menus.cpp     ****     screen.WriteString(buffPitchGlide, Font_6x8, true);
 1026              		.loc 2 483 23 is_stmt 0 view .LVU265
 1027 0082 2946     		mov	r1, r5
 1028              	.LBB519:
 1029              	.LBB517:
 133:../../libdaisy/src/hid/disp/display.h ****         currentY_ = (y >= Height()) ? Height() - 1 : y;
 1030              		.loc 5 133 19 view .LVU266
 1031 0084 B94B     		ldr	r3, .L146+12
ARM GAS  C:\Users\VINCIU~1\AppData\Local\Temp\ccF8ydZb.s 			page 46


 1032              	.LBE517:
 1033              	.LBE519:
 1034              		.loc 2 483 23 view .LVU267
 1035 0086 BA4D     		ldr	r5, .L146+16
 1036 0088 4FF00109 		mov	r9, #1
 1037              	.LBB520:
 1038              	.LBB518:
 133:../../libdaisy/src/hid/disp/display.h ****         currentY_ = (y >= Height()) ? Height() - 1 : y;
 1039              		.loc 5 133 19 view .LVU268
 1040 008c 6360     		str	r3, [r4, #4]
 1041              	.LVL66:
 133:../../libdaisy/src/hid/disp/display.h ****         currentY_ = (y >= Height()) ? Height() - 1 : y;
 1042              		.loc 5 133 19 view .LVU269
 1043              	.LBE518:
 1044              	.LBE520:
 1045              		.loc 2 483 5 is_stmt 1 view .LVU270
 1046              		.loc 2 483 23 is_stmt 0 view .LVU271
 1047 008e 2046     		mov	r0, r4
 1048 0090 CDF80090 		str	r9, [sp]
 1049 0094 95E80C00 		ldm	r5, {r2, r3}
 1050 0098 FFF7FEFF 		bl	_ZN5daisy25OneBitGraphicsDisplayImplINS_11OledDisplayINS_13SSD130xDriverILj128ELj64ENS_24SSD130
 1051              	.LVL67:
 484:Menus.cpp     ****     screen.SetCursor(73, 4);
 1052              		.loc 2 484 5 is_stmt 1 view .LVU272
 1053              	.LBB521:
 1054              	.LBI521:
 131:../../libdaisy/src/hid/disp/display.h ****     {
 1055              		.loc 5 131 10 view .LVU273
 1056              	.LBB522:
 133:../../libdaisy/src/hid/disp/display.h ****         currentY_ = (y >= Height()) ? Height() - 1 : y;
 1057              		.loc 5 133 9 view .LVU274
 134:../../libdaisy/src/hid/disp/display.h ****     }
 1058              		.loc 5 134 9 view .LVU275
 133:../../libdaisy/src/hid/disp/display.h ****         currentY_ = (y >= Height()) ? Height() - 1 : y;
 1059              		.loc 5 133 19 is_stmt 0 view .LVU276
 1060 009c B54B     		ldr	r3, .L146+20
 1061              	.LBE522:
 1062              	.LBE521:
 485:Menus.cpp     ****     screen.WriteString(buffPitchTime, Font_6x8, true);
 1063              		.loc 2 485 23 view .LVU277
 1064 009e CDF80090 		str	r9, [sp]
 1065 00a2 3946     		mov	r1, r7
 1066              	.LBB524:
 1067              	.LBB523:
 133:../../libdaisy/src/hid/disp/display.h ****         currentY_ = (y >= Height()) ? Height() - 1 : y;
 1068              		.loc 5 133 19 view .LVU278
 1069 00a4 6360     		str	r3, [r4, #4]
 1070              	.LVL68:
 133:../../libdaisy/src/hid/disp/display.h ****         currentY_ = (y >= Height()) ? Height() - 1 : y;
 1071              		.loc 5 133 19 view .LVU279
 1072              	.LBE523:
 1073              	.LBE524:
 1074              		.loc 2 485 5 is_stmt 1 view .LVU280
 1075              		.loc 2 485 23 is_stmt 0 view .LVU281
 1076 00a6 2046     		mov	r0, r4
 1077 00a8 95E80C00 		ldm	r5, {r2, r3}
 1078 00ac FFF7FEFF 		bl	_ZN5daisy25OneBitGraphicsDisplayImplINS_11OledDisplayINS_13SSD130xDriverILj128ELj64ENS_24SSD130
ARM GAS  C:\Users\VINCIU~1\AppData\Local\Temp\ccF8ydZb.s 			page 47


 1079              	.LVL69:
 486:Menus.cpp     ****     screen.DrawLine(margin,
 1080              		.loc 2 486 5 is_stmt 1 view .LVU282
 1081              		.loc 2 486 20 is_stmt 0 view .LVU283
 1082 00b0 96ED227A 		vldr.32	s14, [r6, #136]
 1083 00b4 D6ED237A 		vldr.32	s15, [r6, #140]
 1084 00b8 BCEEC77A 		vcvt.u32.f32	s14, s14
 1085 00bc FCEEE77A 		vcvt.u32.f32	s15, s15
 1086              	.LBB525:
 1087              	.LBB526:
 188:../../libdaisy/src/hid/disp/display.h ****         int_fast16_t signX  = ((x1 < x2) ? 1 : -1);
 1088              		.loc 5 188 52 view .LVU284
 1089 00c0 17EE103A 		vmov	r3, s14	@ int
 1090              	.LBE526:
 1091              	.LBE525:
 1092              		.loc 2 486 20 view .LVU285
 1093 00c4 8DED057A 		vstr.32	s14, [sp, #20]	@ int
 1094 00c8 17EE908A 		vmov	r8, s15	@ int
 1095              	.LVL70:
 1096              	.LBB565:
 1097              	.LBI525:
 181:../../libdaisy/src/hid/disp/display.h ****                   uint_fast8_t y1,
 1098              		.loc 5 181 10 is_stmt 1 view .LVU286
 1099              	.LBB561:
 188:../../libdaisy/src/hid/disp/display.h ****         int_fast16_t signX  = ((x1 < x2) ? 1 : -1);
 1100              		.loc 5 188 52 is_stmt 0 view .LVU287
 1101 00cc C3F1200A 		rsb	r10, r3, #32
 187:../../libdaisy/src/hid/disp/display.h ****         int_fast16_t deltaY = abs((int_fast16_t)y2 - (int_fast16_t)y1);
 1102              		.loc 5 187 52 view .LVU288
 1103 00d0 A8F10A07 		sub	r7, r8, #10
 188:../../libdaisy/src/hid/disp/display.h ****         int_fast16_t signX  = ((x1 < x2) ? 1 : -1);
 1104              		.loc 5 188 22 view .LVU289
 1105 00d4 BAF1000F 		cmp	r10, #0
 1106 00d8 B8BF     		it	lt
 1107 00da CAF1000A 		rsblt	r10, r10, #0
 187:../../libdaisy/src/hid/disp/display.h ****         int_fast16_t deltaY = abs((int_fast16_t)y2 - (int_fast16_t)y1);
 1108              		.loc 5 187 22 view .LVU290
 1109 00de 002F     		cmp	r7, #0
 1110 00e0 B8BF     		it	lt
 1111 00e2 7F42     		rsblt	r7, r7, #0
 1112              	.LVL71:
 189:../../libdaisy/src/hid/disp/display.h ****         int_fast16_t signY  = ((y1 < y2) ? 1 : -1);
 1113              		.loc 5 189 42 view .LVU291
 1114 00e4 B8F10A0F 		cmp	r8, #10
 1115 00e8 72D9     		bls	.L95
 1116              	.LVL72:
 190:../../libdaisy/src/hid/disp/display.h ****         int_fast16_t error  = deltaX - deltaY;
 1117              		.loc 5 190 42 view .LVU292
 1118 00ea 1F2B     		cmp	r3, #31
 191:../../libdaisy/src/hid/disp/display.h ****         int_fast16_t error2;
 1119              		.loc 5 191 22 view .LVU293
 1120 00ec A7EB0A01 		sub	r1, r7, r10
 1121              	.LVL73:
 1122              	.LBB527:
 1123              	.LBI527:
 1124              		.loc 1 41 10 is_stmt 1 view .LVU294
 1125              	.LBB528:
ARM GAS  C:\Users\VINCIU~1\AppData\Local\Temp\ccF8ydZb.s 			page 48


  42:../../libdaisy/src/hid/disp/oled_display.h ****     {
  43:../../libdaisy/src/hid/disp/oled_display.h ****         driver_.DrawPixel(x, y, on);
 1126              		.loc 1 43 26 is_stmt 0 view .LVU295
 1127 00f0 04F10805 		add	r5, r4, #8
 1128              	.LBE528:
 1129              	.LBE527:
 190:../../libdaisy/src/hid/disp/display.h ****         int_fast16_t error  = deltaX - deltaY;
 1130              		.loc 5 190 42 view .LVU296
 1131 00f4 40F24A81 		bls	.L96
 1132              	.LVL74:
 1133              	.LBB548:
 1134              	.LBB541:
 1135              	.LBB529:
 1136              	.LBI529:
 239:../../libdaisy/src/dev/oled_ssd130x.h ****     {
 1137              		.loc 6 239 10 is_stmt 1 view .LVU297
 1138              	.LBB530:
 241:../../libdaisy/src/dev/oled_ssd130x.h ****             return;
 1139              		.loc 6 241 9 is_stmt 0 view .LVU298
 1140 00f8 B8F17F0F 		cmp	r8, #127
 1141              	.LBE530:
 1142              	.LBE529:
 1143              	.LBE541:
 1144              	.LBE548:
 189:../../libdaisy/src/hid/disp/display.h ****         int_fast16_t signY  = ((y1 < y2) ? 1 : -1);
 1145              		.loc 5 189 42 view .LVU299
 1146 00fc CDF81C90 		str	r9, [sp, #28]
 1147              	.LBB549:
 1148              	.LBB542:
 1149              	.LBB535:
 1150              	.LBB531:
 241:../../libdaisy/src/dev/oled_ssd130x.h ****             return;
 1151              		.loc 6 241 9 view .LVU300
 1152 0100 71D9     		bls	.L114
 1153              	.LBE531:
 1154              	.LBE535:
 1155              	.LBE542:
 1156              	.LBE549:
 190:../../libdaisy/src/hid/disp/display.h ****         int_fast16_t error  = deltaX - deltaY;
 1157              		.loc 5 190 42 view .LVU301
 1158 0102 4FF0FF33 		mov	r3, #-1
 1159              	.LVL75:
 190:../../libdaisy/src/hid/disp/display.h ****         int_fast16_t error  = deltaX - deltaY;
 1160              		.loc 5 190 42 view .LVU302
 1161 0106 0693     		str	r3, [sp, #24]
 1162 0108 7DE0     		b	.L97
 1163              	.LVL76:
 1164              	.L143:
 190:../../libdaisy/src/hid/disp/display.h ****         int_fast16_t error  = deltaX - deltaY;
 1165              		.loc 5 190 42 view .LVU303
 1166              	.LBE561:
 1167              	.LBE565:
 450:Menus.cpp     ****         if(this->menuStateGlide > 1)
 1168              		.loc 2 450 9 is_stmt 1 view .LVU304
 450:Menus.cpp     ****         if(this->menuStateGlide > 1)
 1169              		.loc 2 450 53 is_stmt 0 view .LVU305
 1170 010a 0133     		adds	r3, r3, #1
ARM GAS  C:\Users\VINCIU~1\AppData\Local\Temp\ccF8ydZb.s 			page 49


 451:Menus.cpp     ****         {
 1171              		.loc 2 451 9 view .LVU306
 1172 010c 012B     		cmp	r3, #1
 450:Menus.cpp     ****         if(this->menuStateGlide > 1)
 1173              		.loc 2 450 30 view .LVU307
 1174 010e 3367     		str	r3, [r6, #112]
 451:Menus.cpp     ****         {
 1175              		.loc 2 451 9 is_stmt 1 view .LVU308
 1176 0110 AEDD     		ble	.L77
 1177              	.L78:
 453:Menus.cpp     ****         }
 1178              		.loc 2 453 13 view .LVU309
 453:Menus.cpp     ****         }
 1179              		.loc 2 453 34 is_stmt 0 view .LVU310
 1180 0112 0023     		movs	r3, #0
 1181 0114 3367     		str	r3, [r6, #112]
 456:Menus.cpp     ****     {
 1182              		.loc 2 456 5 is_stmt 1 view .LVU311
 1183              	.L76:
 458:Menus.cpp     ****         {
 1184              		.loc 2 458 9 view .LVU312
 1185 0116 9FED926B 		vldr.64	d6, .L146
 1186 011a B4EEC67B 		vcmpe.f64	d7, d6
 1187 011e F1EE10FA 		vmrs	APSR_nzcv, FPSCR
 1188 0122 00F34481 		bgt	.L80
 461:Menus.cpp     ****                     "Init_%d%%",
 1189              		.loc 2 461 27 is_stmt 0 view .LVU313
 1190 0126 06F58275 		add	r5, r6, #260
 1191              	.LVL77:
 1192              	.L81:
 466:Menus.cpp     ****     }
 1193              		.loc 2 466 9 is_stmt 1 view .LVU314
 1194              	.LBB566:
 1195              	.LBI566:
 217:../../libdaisy/src/hid/disp/display.h ****                   uint_fast8_t y1,
 1196              		.loc 5 217 10 view .LVU315
 1197              	.LBB567:
 1198              	.LBI567:
 181:../../libdaisy/src/hid/disp/display.h ****                   uint_fast8_t y1,
 1199              		.loc 5 181 10 view .LVU316
 1200              	.LBB568:
 1201              	.LBB569:
 1202              	.LBI569:
  41:../../libdaisy/src/hid/disp/oled_display.h ****     {
 1203              		.loc 1 41 10 view .LVU317
 1204              	.LBB570:
 1205              	.LBI570:
 239:../../libdaisy/src/dev/oled_ssd130x.h ****     {
 1206              		.loc 6 239 10 view .LVU318
 1207              	.LBB571:
 244:../../libdaisy/src/dev/oled_ssd130x.h ****         else
 1208              		.loc 6 244 42 is_stmt 0 view .LVU319
 1209 012a 94F85620 		ldrb	r2, [r4, #86]	@ zero_extendqisi2
 1210 012e 04F11303 		add	r3, r4, #19
 1211 0132 04F15501 		add	r1, r4, #85
 1212 0136 42F00102 		orr	r2, r2, #1
 1213 013a 84F85620 		strb	r2, [r4, #86]
ARM GAS  C:\Users\VINCIU~1\AppData\Local\Temp\ccF8ydZb.s 			page 50


 1214              	.LVL78:
 244:../../libdaisy/src/dev/oled_ssd130x.h ****         else
 1215              		.loc 6 244 42 view .LVU320
 1216              	.LBE571:
 1217              	.LBE570:
 1218              	.LBE569:
 199:../../libdaisy/src/hid/disp/display.h ****         {
 1219              		.loc 5 199 26 is_stmt 1 view .LVU321
 1220              	.L82:
 1221              	.LBB572:
 1222              	.LBI572:
  41:../../libdaisy/src/hid/disp/oled_display.h ****     {
 1223              		.loc 1 41 10 view .LVU322
 1224              	.LBB573:
 1225              	.LBI573:
 239:../../libdaisy/src/dev/oled_ssd130x.h ****     {
 1226              		.loc 6 239 10 view .LVU323
 1227              	.LBB574:
 244:../../libdaisy/src/dev/oled_ssd130x.h ****         else
 1228              		.loc 6 244 42 is_stmt 0 view .LVU324
 1229 013e 13F8012F 		ldrb	r2, [r3, #1]!	@ zero_extendqisi2
 244:../../libdaisy/src/dev/oled_ssd130x.h ****         else
 1230              		.loc 6 244 42 view .LVU325
 1231 0142 42F00102 		orr	r2, r2, #1
 1232              	.LBE574:
 1233              	.LBE573:
 1234              	.LBE572:
 199:../../libdaisy/src/hid/disp/display.h ****         {
 1235              		.loc 5 199 26 view .LVU326
 1236 0146 9942     		cmp	r1, r3
 1237              	.LBB577:
 1238              	.LBB576:
 1239              	.LBB575:
 244:../../libdaisy/src/dev/oled_ssd130x.h ****         else
 1240              		.loc 6 244 42 view .LVU327
 1241 0148 1A70     		strb	r2, [r3]
 1242              	.LVL79:
 244:../../libdaisy/src/dev/oled_ssd130x.h ****         else
 1243              		.loc 6 244 42 view .LVU328
 1244              	.LBE575:
 1245              	.LBE576:
 1246              	.LBE577:
 199:../../libdaisy/src/hid/disp/display.h ****         {
 1247              		.loc 5 199 26 is_stmt 1 view .LVU329
 1248 014a F8D1     		bne	.L82
 1249              	.LVL80:
 199:../../libdaisy/src/hid/disp/display.h ****         {
 1250              		.loc 5 199 26 is_stmt 0 view .LVU330
 1251              	.LBE568:
 1252              	.LBE567:
 1253              	.LBB578:
 1254              	.LBI578:
 181:../../libdaisy/src/hid/disp/display.h ****                   uint_fast8_t y1,
 1255              		.loc 5 181 10 is_stmt 1 view .LVU331
 1256              	.LBB579:
 1257              	.LBB580:
 1258              	.LBI580:
ARM GAS  C:\Users\VINCIU~1\AppData\Local\Temp\ccF8ydZb.s 			page 51


  41:../../libdaisy/src/hid/disp/oled_display.h ****     {
 1259              		.loc 1 41 10 view .LVU332
 1260              	.LBB581:
 1261              	.LBI581:
 239:../../libdaisy/src/dev/oled_ssd130x.h ****     {
 1262              		.loc 6 239 10 view .LVU333
 1263              	.LBB582:
 244:../../libdaisy/src/dev/oled_ssd130x.h ****         else
 1264              		.loc 6 244 42 is_stmt 0 view .LVU334
 1265 014c 94F8D620 		ldrb	r2, [r4, #214]	@ zero_extendqisi2
 1266 0150 0023     		movs	r3, #0
 1267 0152 42F02002 		orr	r2, r2, #32
 1268 0156 84F8D620 		strb	r2, [r4, #214]
 1269              	.LVL81:
 244:../../libdaisy/src/dev/oled_ssd130x.h ****         else
 1270              		.loc 6 244 42 view .LVU335
 1271              	.LBE582:
 1272              	.LBE581:
 1273              	.LBE580:
 199:../../libdaisy/src/hid/disp/display.h ****         {
 1274              		.loc 5 199 26 is_stmt 1 view .LVU336
 1275              	.L83:
 1276              	.LBB583:
 1277              	.LBI583:
  41:../../libdaisy/src/hid/disp/oled_display.h ****     {
 1278              		.loc 1 41 10 view .LVU337
 1279              	.LBB584:
 1280              	.LBI584:
 239:../../libdaisy/src/dev/oled_ssd130x.h ****     {
 1281              		.loc 6 239 10 view .LVU338
 1282              	.LBB585:
 244:../../libdaisy/src/dev/oled_ssd130x.h ****         else
 1283              		.loc 6 244 28 is_stmt 0 view .LVU339
 1284 015a D908     		lsrs	r1, r3, #3
 244:../../libdaisy/src/dev/oled_ssd130x.h ****         else
 1285              		.loc 6 244 54 view .LVU340
 1286 015c 03F00700 		and	r0, r3, #7
 244:../../libdaisy/src/dev/oled_ssd130x.h ****         else
 1287              		.loc 6 244 48 view .LVU341
 1288 0160 0122     		movs	r2, #1
 244:../../libdaisy/src/dev/oled_ssd130x.h ****         else
 1289              		.loc 6 244 42 view .LVU342
 1290 0162 04EBC111 		add	r1, r4, r1, lsl #7
 1291              	.LBE585:
 1292              	.LBE584:
 1293              	.LBE583:
 212:../../libdaisy/src/hid/disp/display.h ****             }
 1294              		.loc 5 212 20 view .LVU343
 1295 0166 1344     		add	r3, r3, r2
 1296              	.LVL82:
 1297              	.LBB590:
 1298              	.LBB588:
 1299              	.LBB586:
 244:../../libdaisy/src/dev/oled_ssd130x.h ****         else
 1300              		.loc 6 244 48 view .LVU344
 1301 0168 8240     		lsls	r2, r2, r0
 244:../../libdaisy/src/dev/oled_ssd130x.h ****         else
ARM GAS  C:\Users\VINCIU~1\AppData\Local\Temp\ccF8ydZb.s 			page 52


 1302              		.loc 6 244 42 view .LVU345
 1303 016a 91F85600 		ldrb	r0, [r1, #86]	@ zero_extendqisi2
 1304              	.LBE586:
 1305              	.LBE588:
 1306              	.LBE590:
 199:../../libdaisy/src/hid/disp/display.h ****         {
 1307              		.loc 5 199 26 view .LVU346
 1308 016e 0D2B     		cmp	r3, #13
 1309              	.LBB591:
 1310              	.LBB589:
 1311              	.LBB587:
 244:../../libdaisy/src/dev/oled_ssd130x.h ****         else
 1312              		.loc 6 244 42 view .LVU347
 1313 0170 42EA0002 		orr	r2, r2, r0
 1314 0174 81F85620 		strb	r2, [r1, #86]
 1315              	.LVL83:
 244:../../libdaisy/src/dev/oled_ssd130x.h ****         else
 1316              		.loc 6 244 42 view .LVU348
 1317              	.LBE587:
 1318              	.LBE589:
 1319              	.LBE591:
 199:../../libdaisy/src/hid/disp/display.h ****         {
 1320              		.loc 5 199 26 is_stmt 1 view .LVU349
 1321 0178 EFD1     		bne	.L83
 1322              	.LVL84:
 199:../../libdaisy/src/hid/disp/display.h ****         {
 1323              		.loc 5 199 26 is_stmt 0 view .LVU350
 1324              	.LBE579:
 1325              	.LBE578:
 1326              	.LBB592:
 1327              	.LBI592:
 181:../../libdaisy/src/hid/disp/display.h ****                   uint_fast8_t y1,
 1328              		.loc 5 181 10 is_stmt 1 view .LVU351
 1329              	.LBB593:
 1330              	.LBB594:
 1331              	.LBI594:
  41:../../libdaisy/src/hid/disp/oled_display.h ****     {
 1332              		.loc 1 41 10 view .LVU352
 1333              	.LBB595:
 1334              	.LBI595:
 239:../../libdaisy/src/dev/oled_ssd130x.h ****     {
 1335              		.loc 6 239 10 view .LVU353
 1336              	.LBB596:
 244:../../libdaisy/src/dev/oled_ssd130x.h ****         else
 1337              		.loc 6 244 42 is_stmt 0 view .LVU354
 1338 017a 94F89420 		ldrb	r2, [r4, #148]	@ zero_extendqisi2
 1339 017e 04F1D701 		add	r1, r4, #215
 1340 0182 04F19507 		add	r7, r4, #149
 1341 0186 42F02002 		orr	r2, r2, #32
 1342 018a 84F89420 		strb	r2, [r4, #148]
 1343              	.LVL85:
 244:../../libdaisy/src/dev/oled_ssd130x.h ****         else
 1344              		.loc 6 244 42 view .LVU355
 1345              	.LBE596:
 1346              	.LBE595:
 1347              	.LBE594:
 199:../../libdaisy/src/hid/disp/display.h ****         {
ARM GAS  C:\Users\VINCIU~1\AppData\Local\Temp\ccF8ydZb.s 			page 53


 1348              		.loc 5 199 26 is_stmt 1 view .LVU356
 1349              	.L84:
 1350              	.LBB597:
 1351              	.LBI597:
  41:../../libdaisy/src/hid/disp/oled_display.h ****     {
 1352              		.loc 1 41 10 view .LVU357
 1353              	.LBB598:
 1354              	.LBI598:
 239:../../libdaisy/src/dev/oled_ssd130x.h ****     {
 1355              		.loc 6 239 10 view .LVU358
 1356              	.LBB599:
 244:../../libdaisy/src/dev/oled_ssd130x.h ****         else
 1357              		.loc 6 244 42 is_stmt 0 view .LVU359
 1358 018e 11F8010D 		ldrb	r0, [r1, #-1]!	@ zero_extendqisi2
 244:../../libdaisy/src/dev/oled_ssd130x.h ****         else
 1359              		.loc 6 244 42 view .LVU360
 1360 0192 40F02000 		orr	r0, r0, #32
 1361              	.LBE599:
 1362              	.LBE598:
 1363              	.LBE597:
 199:../../libdaisy/src/hid/disp/display.h ****         {
 1364              		.loc 5 199 26 view .LVU361
 1365 0196 8F42     		cmp	r7, r1
 1366              	.LBB602:
 1367              	.LBB601:
 1368              	.LBB600:
 244:../../libdaisy/src/dev/oled_ssd130x.h ****         else
 1369              		.loc 6 244 42 view .LVU362
 1370 0198 0870     		strb	r0, [r1]
 1371              	.LVL86:
 244:../../libdaisy/src/dev/oled_ssd130x.h ****         else
 1372              		.loc 6 244 42 view .LVU363
 1373              	.LBE600:
 1374              	.LBE601:
 1375              	.LBE602:
 199:../../libdaisy/src/hid/disp/display.h ****         {
 1376              		.loc 5 199 26 is_stmt 1 view .LVU364
 1377 019a F8D1     		bne	.L84
 1378              	.LVL87:
 199:../../libdaisy/src/hid/disp/display.h ****         {
 1379              		.loc 5 199 26 is_stmt 0 view .LVU365
 1380              	.LBE593:
 1381              	.LBE592:
 1382              	.LBB603:
 1383              	.LBI603:
 181:../../libdaisy/src/hid/disp/display.h ****                   uint_fast8_t y1,
 1384              		.loc 5 181 10 is_stmt 1 view .LVU366
 1385              	.LBB604:
 1386              	.LBB605:
 1387              	.LBI605:
  41:../../libdaisy/src/hid/disp/oled_display.h ****     {
 1388              		.loc 1 41 10 view .LVU367
 1389              	.LBB606:
 1390              	.LBI606:
 239:../../libdaisy/src/dev/oled_ssd130x.h ****     {
 1391              		.loc 6 239 10 view .LVU368
 1392              	.LBB607:
ARM GAS  C:\Users\VINCIU~1\AppData\Local\Temp\ccF8ydZb.s 			page 54


 244:../../libdaisy/src/dev/oled_ssd130x.h ****         else
 1393              		.loc 6 244 42 is_stmt 0 view .LVU369
 1394 019c 217D     		ldrb	r1, [r4, #20]	@ zero_extendqisi2
 1395 019e 0120     		movs	r0, #1
 1396 01a0 41F00101 		orr	r1, r1, #1
 1397 01a4 2175     		strb	r1, [r4, #20]
 1398              	.LVL88:
 244:../../libdaisy/src/dev/oled_ssd130x.h ****         else
 1399              		.loc 6 244 42 view .LVU370
 1400              	.LBE607:
 1401              	.LBE606:
 1402              	.LBE605:
 199:../../libdaisy/src/hid/disp/display.h ****         {
 1403              		.loc 5 199 26 is_stmt 1 view .LVU371
 1404 01a6 02E0     		b	.L86
 1405              	.LVL89:
 1406              	.L144:
 1407              	.LBB608:
 1408              	.LBB609:
 1409              	.LBB610:
 244:../../libdaisy/src/dev/oled_ssd130x.h ****         else
 1410              		.loc 6 244 42 is_stmt 0 view .LVU372
 1411 01a8 04EBC012 		add	r2, r4, r0, lsl #7
 1412 01ac 127D     		ldrb	r2, [r2, #20]	@ zero_extendqisi2
 1413              	.LVL90:
 1414              	.L86:
 244:../../libdaisy/src/dev/oled_ssd130x.h ****         else
 1415              		.loc 6 244 42 view .LVU373
 1416              	.LBE610:
 1417              	.LBE609:
 1418              	.LBI608:
  41:../../libdaisy/src/hid/disp/oled_display.h ****     {
 1419              		.loc 1 41 10 is_stmt 1 view .LVU374
 1420              	.LBB614:
 1421              	.LBI609:
 239:../../libdaisy/src/dev/oled_ssd130x.h ****     {
 1422              		.loc 6 239 10 view .LVU375
 1423              	.LBB611:
 244:../../libdaisy/src/dev/oled_ssd130x.h ****         else
 1424              		.loc 6 244 54 is_stmt 0 view .LVU376
 1425 01ae 03F00707 		and	r7, r3, #7
 244:../../libdaisy/src/dev/oled_ssd130x.h ****         else
 1426              		.loc 6 244 48 view .LVU377
 1427 01b2 0121     		movs	r1, #1
 244:../../libdaisy/src/dev/oled_ssd130x.h ****         else
 1428              		.loc 6 244 42 view .LVU378
 1429 01b4 04EBC010 		add	r0, r4, r0, lsl #7
 1430              	.LBE611:
 1431              	.LBE614:
 1432              	.LBE608:
 199:../../libdaisy/src/hid/disp/display.h ****         {
 1433              		.loc 5 199 26 view .LVU379
 1434 01b8 013B     		subs	r3, r3, #1
 1435              	.LVL91:
 1436              	.LBB617:
 1437              	.LBB615:
 1438              	.LBB612:
ARM GAS  C:\Users\VINCIU~1\AppData\Local\Temp\ccF8ydZb.s 			page 55


 244:../../libdaisy/src/dev/oled_ssd130x.h ****         else
 1439              		.loc 6 244 48 view .LVU380
 1440 01ba 01FA07F1 		lsl	r1, r1, r7
 244:../../libdaisy/src/dev/oled_ssd130x.h ****         else
 1441              		.loc 6 244 42 view .LVU381
 1442 01be 42EA0102 		orr	r2, r2, r1
 1443 01c2 0275     		strb	r2, [r0, #20]
 1444              	.LVL92:
 244:../../libdaisy/src/dev/oled_ssd130x.h ****         else
 1445              		.loc 6 244 42 view .LVU382
 1446              	.LBE612:
 1447              	.LBE615:
 1448              	.LBE617:
 199:../../libdaisy/src/hid/disp/display.h ****         {
 1449              		.loc 5 199 26 is_stmt 1 view .LVU383
 1450              	.LBB618:
 1451              	.LBB616:
 1452              	.LBB613:
 244:../../libdaisy/src/dev/oled_ssd130x.h ****         else
 1453              		.loc 6 244 28 is_stmt 0 view .LVU384
 1454 01c4 4FEAD300 		lsr	r0, r3, #3
 1455              	.LBE613:
 1456              	.LBE616:
 1457              	.LBE618:
 199:../../libdaisy/src/hid/disp/display.h ****         {
 1458              		.loc 5 199 26 view .LVU385
 1459 01c8 EED1     		bne	.L144
 1460              	.LBE604:
 1461              	.LBE603:
 1462              	.LBE566:
 475:Menus.cpp     ****                     "Time_%d%%",
 1463              		.loc 2 475 27 view .LVU386
 1464 01ca 06F58E77 		add	r7, r6, #284
 1465 01ce 58E7     		b	.L87
 1466              	.LVL93:
 1467              	.L95:
 1468              	.LBB619:
 1469              	.LBB562:
 190:../../libdaisy/src/hid/disp/display.h ****         int_fast16_t error  = deltaX - deltaY;
 1470              		.loc 5 190 42 view .LVU387
 1471 01d0 059B     		ldr	r3, [sp, #20]
 1472              	.LVL94:
 190:../../libdaisy/src/hid/disp/display.h ****         int_fast16_t error  = deltaX - deltaY;
 1473              		.loc 5 190 42 view .LVU388
 1474 01d2 1F2B     		cmp	r3, #31
 1475 01d4 40F2E180 		bls	.L113
 1476              	.LVL95:
 189:../../libdaisy/src/hid/disp/display.h ****         int_fast16_t signY  = ((y1 < y2) ? 1 : -1);
 1477              		.loc 5 189 42 view .LVU389
 1478 01d8 4FF0FF33 		mov	r3, #-1
 191:../../libdaisy/src/hid/disp/display.h ****         int_fast16_t error2;
 1479              		.loc 5 191 22 view .LVU390
 1480 01dc A7EB0A01 		sub	r1, r7, r10
 1481              	.LVL96:
 1482              	.LBB550:
  41:../../libdaisy/src/hid/disp/oled_display.h ****     {
 1483              		.loc 1 41 10 is_stmt 1 view .LVU391
ARM GAS  C:\Users\VINCIU~1\AppData\Local\Temp\ccF8ydZb.s 			page 56


 1484              	.LBB543:
 1485              		.loc 1 43 26 is_stmt 0 view .LVU392
 1486 01e0 04F10805 		add	r5, r4, #8
 1487              	.LVL97:
 1488              	.LBB536:
 239:../../libdaisy/src/dev/oled_ssd130x.h ****     {
 1489              		.loc 6 239 10 is_stmt 1 view .LVU393
 1490              	.LBE536:
 1491              	.LBE543:
 1492              	.LBE550:
 189:../../libdaisy/src/hid/disp/display.h ****         int_fast16_t signY  = ((y1 < y2) ? 1 : -1);
 1493              		.loc 5 189 42 is_stmt 0 view .LVU394
 1494 01e4 0793     		str	r3, [sp, #28]
 1495              	.LVL98:
 1496              	.L114:
 190:../../libdaisy/src/hid/disp/display.h ****         int_fast16_t error  = deltaX - deltaY;
 1497              		.loc 5 190 42 view .LVU395
 1498 01e6 4FF0FF33 		mov	r3, #-1
 1499 01ea 0693     		str	r3, [sp, #24]
 1500              	.LVL99:
 1501              	.L111:
 1502              	.LBB551:
 1503              	.LBB544:
 1504              	.LBB537:
 1505              	.LBB532:
 244:../../libdaisy/src/dev/oled_ssd130x.h ****         else
 1506              		.loc 6 244 42 view .LVU396
 1507 01ec 08F50073 		add	r3, r8, #512
 1508 01f0 2344     		add	r3, r3, r4
 1509 01f2 1A7D     		ldrb	r2, [r3, #20]	@ zero_extendqisi2
 1510 01f4 42F00102 		orr	r2, r2, #1
 1511 01f8 1A75     		strb	r2, [r3, #20]
 1512              	.LVL100:
 244:../../libdaisy/src/dev/oled_ssd130x.h ****         else
 1513              		.loc 6 244 42 view .LVU397
 1514              	.LBE532:
 1515              	.LBE537:
 1516              	.LBE544:
 1517              	.LBE551:
 199:../../libdaisy/src/hid/disp/display.h ****         {
 1518              		.loc 5 199 26 is_stmt 1 view .LVU398
 1519 01fa 059B     		ldr	r3, [sp, #20]
 1520 01fc 202B     		cmp	r3, #32
 1521 01fe 02D1     		bne	.L97
 199:../../libdaisy/src/hid/disp/display.h ****         {
 1522              		.loc 5 199 26 is_stmt 0 view .LVU399
 1523 0200 B8F10A0F 		cmp	r8, #10
 1524 0204 2AD0     		beq	.L98
 1525              	.L97:
 1526              	.LVL101:
 203:../../libdaisy/src/hid/disp/display.h ****             {
 1527              		.loc 5 203 23 view .LVU400
 1528 0206 CAF10009 		rsb	r9, r10, #0
 1529              	.LBE562:
 1530              	.LBE619:
 1531              		.loc 2 486 20 view .LVU401
 1532 020a 059A     		ldr	r2, [sp, #20]
ARM GAS  C:\Users\VINCIU~1\AppData\Local\Temp\ccF8ydZb.s 			page 57


 1533              	.LBB620:
 1534              	.LBB563:
 203:../../libdaisy/src/hid/disp/display.h ****             {
 1535              		.loc 5 203 23 view .LVU402
 1536 020c 4FF00A0C 		mov	ip, #10
 1537              	.L101:
 1538              	.LVL102:
 1539              	.LBB552:
 1540              	.LBI552:
  41:../../libdaisy/src/hid/disp/oled_display.h ****     {
 1541              		.loc 1 41 10 is_stmt 1 view .LVU403
 1542              	.LBB553:
 1543              	.LBI553:
 239:../../libdaisy/src/dev/oled_ssd130x.h ****     {
 1544              		.loc 6 239 10 view .LVU404
 1545              	.LBB554:
 244:../../libdaisy/src/dev/oled_ssd130x.h ****         else
 1546              		.loc 6 244 48 is_stmt 0 view .LVU405
 1547 0210 4FF0010B 		mov	fp, #1
 244:../../libdaisy/src/dev/oled_ssd130x.h ****         else
 1548              		.loc 6 244 28 view .LVU406
 1549 0214 D308     		lsrs	r3, r2, #3
 244:../../libdaisy/src/dev/oled_ssd130x.h ****         else
 1550              		.loc 6 244 54 view .LVU407
 1551 0216 02F00700 		and	r0, r2, #7
 241:../../libdaisy/src/dev/oled_ssd130x.h ****             return;
 1552              		.loc 6 241 9 view .LVU408
 1553 021a BCF17F0F 		cmp	ip, #127
 244:../../libdaisy/src/dev/oled_ssd130x.h ****         else
 1554              		.loc 6 244 42 view .LVU409
 1555 021e 0CEBC313 		add	r3, ip, r3, lsl #7
 1556              	.LBE554:
 1557              	.LBE553:
 1558              	.LBE552:
 202:../../libdaisy/src/hid/disp/display.h ****             if(error2 > -deltaY)
 1559              		.loc 5 202 20 view .LVU410
 1560 0222 01FA0BFE 		lsl	lr, r1, fp
 1561              	.LVL103:
 1562              	.LBB557:
 1563              	.LBB556:
 1564              	.LBB555:
 244:../../libdaisy/src/dev/oled_ssd130x.h ****         else
 1565              		.loc 6 244 48 view .LVU411
 1566 0226 0BFA00F0 		lsl	r0, fp, r0
 241:../../libdaisy/src/dev/oled_ssd130x.h ****             return;
 1567              		.loc 6 241 9 view .LVU412
 1568 022a 07D8     		bhi	.L102
 1569 022c 3F2A     		cmp	r2, #63
 244:../../libdaisy/src/dev/oled_ssd130x.h ****         else
 1570              		.loc 6 244 42 view .LVU413
 1571 022e 2344     		add	r3, r3, r4
 241:../../libdaisy/src/dev/oled_ssd130x.h ****             return;
 1572              		.loc 6 241 9 view .LVU414
 1573 0230 04D8     		bhi	.L102
 244:../../libdaisy/src/dev/oled_ssd130x.h ****         else
 1574              		.loc 6 244 42 view .LVU415
 1575 0232 93F814B0 		ldrb	fp, [r3, #20]	@ zero_extendqisi2
ARM GAS  C:\Users\VINCIU~1\AppData\Local\Temp\ccF8ydZb.s 			page 58


 1576 0236 40EA0B00 		orr	r0, r0, fp
 1577 023a 1875     		strb	r0, [r3, #20]
 1578              	.L102:
 244:../../libdaisy/src/dev/oled_ssd130x.h ****         else
 1579              		.loc 6 244 42 view .LVU416
 1580              	.LBE555:
 1581              	.LBE556:
 1582              	.LBE557:
 203:../../libdaisy/src/hid/disp/display.h ****             {
 1583              		.loc 5 203 13 view .LVU417
 1584 023c B9EB410F 		cmp	r9, r1, lsl #1
 1585 0240 03DA     		bge	.L103
 206:../../libdaisy/src/hid/disp/display.h ****             }
 1586              		.loc 5 206 20 view .LVU418
 1587 0242 079B     		ldr	r3, [sp, #28]
 205:../../libdaisy/src/hid/disp/display.h ****                 x1 += signX;
 1588              		.loc 5 205 23 view .LVU419
 1589 0244 A1EB0A01 		sub	r1, r1, r10
 1590              	.LVL104:
 206:../../libdaisy/src/hid/disp/display.h ****             }
 1591              		.loc 5 206 20 view .LVU420
 1592 0248 9C44     		add	ip, ip, r3
 1593              	.LVL105:
 1594              	.L103:
 209:../../libdaisy/src/hid/disp/display.h ****             {
 1595              		.loc 5 209 13 view .LVU421
 1596 024a 7745     		cmp	r7, lr
 1597 024c 02DD     		ble	.L104
 212:../../libdaisy/src/hid/disp/display.h ****             }
 1598              		.loc 5 212 20 view .LVU422
 1599 024e 069B     		ldr	r3, [sp, #24]
 211:../../libdaisy/src/hid/disp/display.h ****                 y1 += signY;
 1600              		.loc 5 211 23 view .LVU423
 1601 0250 3944     		add	r1, r1, r7
 1602              	.LVL106:
 212:../../libdaisy/src/hid/disp/display.h ****             }
 1603              		.loc 5 212 20 view .LVU424
 1604 0252 1A44     		add	r2, r2, r3
 1605              	.LVL107:
 1606              	.L104:
 199:../../libdaisy/src/hid/disp/display.h ****         {
 1607              		.loc 5 199 26 is_stmt 1 view .LVU425
 1608 0254 E045     		cmp	r8, ip
 1609 0256 DBD1     		bne	.L101
 199:../../libdaisy/src/hid/disp/display.h ****         {
 1610              		.loc 5 199 26 is_stmt 0 view .LVU426
 1611 0258 202A     		cmp	r2, #32
 1612 025a D9D1     		bne	.L101
 1613              	.LVL108:
 1614              	.L98:
 199:../../libdaisy/src/hid/disp/display.h ****         {
 1615              		.loc 5 199 26 view .LVU427
 1616              	.LBE563:
 1617              	.LBE620:
 487:Menus.cpp     ****                     circleGlidePosition,
 488:Menus.cpp     ****                     circleGlideTimePosition,
 489:Menus.cpp     ****                     screen.Height() / 2,
ARM GAS  C:\Users\VINCIU~1\AppData\Local\Temp\ccF8ydZb.s 			page 59


 490:Menus.cpp     ****                     true);
 491:Menus.cpp     ****     screen.DrawCircle(margin, circleGlidePosition, 3, true);
 1618              		.loc 2 491 5 is_stmt 1 view .LVU428
 1619              	.LBB621:
 1620              	.LBI621:
 100:../../libdaisy/src/hid/disp/display.h ****     {
 1621              		.loc 5 100 5 view .LVU429
 1622              	.LBB622:
 102:../../libdaisy/src/hid/disp/display.h ****     };
 1623              		.loc 5 102 9 view .LVU430
 102:../../libdaisy/src/hid/disp/display.h ****     };
 1624              		.loc 5 102 41 is_stmt 0 view .LVU431
 1625 025c 2368     		ldr	r3, [r4]
 102:../../libdaisy/src/hid/disp/display.h ****     };
 1626              		.loc 5 102 16 view .LVU432
 1627 025e 0027     		movs	r7, #0
 1628 0260 4FF4B478 		mov	r8, #360
 1629 0264 4FF00109 		mov	r9, #1
 1630 0268 059A     		ldr	r2, [sp, #20]
 1631 026a 0A21     		movs	r1, #10
 1632 026c 2046     		mov	r0, r4
 1633 026e 8DE88003 		stm	sp, {r7, r8, r9}
 1634 0272 D3F820A0 		ldr	r10, [r3, #32]
 1635 0276 0323     		movs	r3, #3
 1636 0278 D047     		blx	r10
 1637              	.LVL109:
 102:../../libdaisy/src/hid/disp/display.h ****     };
 1638              		.loc 5 102 16 view .LVU433
 1639              	.LBE622:
 1640              	.LBE621:
 492:Menus.cpp     ****     screen.DrawCircle(circleGlideTimePosition, screen.Height() / 2, 3, true);
 1641              		.loc 2 492 5 is_stmt 1 view .LVU434
 1642              	.LBB623:
 1643              	.LBI623:
 100:../../libdaisy/src/hid/disp/display.h ****     {
 1644              		.loc 5 100 5 view .LVU435
 1645              	.LBB624:
 102:../../libdaisy/src/hid/disp/display.h ****     };
 1646              		.loc 5 102 9 view .LVU436
 102:../../libdaisy/src/hid/disp/display.h ****     };
 1647              		.loc 5 102 16 is_stmt 0 view .LVU437
 1648 027a CDF80890 		str	r9, [sp, #8]
 1649              	.LVL110:
 102:../../libdaisy/src/hid/disp/display.h ****     };
 1650              		.loc 5 102 16 view .LVU438
 1651              	.LBE624:
 1652              	.LBE623:
 1653              		.loc 2 492 22 view .LVU439
 1654 027e D6ED237A 		vldr.32	s15, [r6, #140]
 1655              	.LBB626:
 1656              	.LBB625:
 102:../../libdaisy/src/hid/disp/display.h ****     };
 1657              		.loc 5 102 16 view .LVU440
 1658 0282 2022     		movs	r2, #32
 1659 0284 2046     		mov	r0, r4
 1660 0286 FCEEE77A 		vcvt.u32.f32	s15, s15
 1661 028a CDE90078 		strd	r7, r8, [sp]
ARM GAS  C:\Users\VINCIU~1\AppData\Local\Temp\ccF8ydZb.s 			page 60


 102:../../libdaisy/src/hid/disp/display.h ****     };
 1662              		.loc 5 102 41 view .LVU441
 1663 028e 2368     		ldr	r3, [r4]
 102:../../libdaisy/src/hid/disp/display.h ****     };
 1664              		.loc 5 102 16 view .LVU442
 1665 0290 17EE901A 		vmov	r1, s15	@ int
 1666 0294 D3F82080 		ldr	r8, [r3, #32]
 1667 0298 0323     		movs	r3, #3
 1668 029a C047     		blx	r8
 1669              	.LVL111:
 102:../../libdaisy/src/hid/disp/display.h ****     };
 1670              		.loc 5 102 16 view .LVU443
 1671              	.LBE625:
 1672              	.LBE626:
 493:Menus.cpp     ****     for(int i = 0; i < screen.Width(); i++)
 1673              		.loc 2 493 5 is_stmt 1 view .LVU444
 1674              	.LBB627:
 1675              		.loc 2 493 22 view .LVU445
 494:Menus.cpp     ****     {
 495:Menus.cpp     ****         screen.DrawPixel(i * 3, (screen.Height() / 2), on);
 1676              		.loc 2 495 25 is_stmt 0 view .LVU446
 1677 029c 96F86811 		ldrb	r1, [r6, #360]	@ zero_extendqisi2
 1678 02a0 3B46     		mov	r3, r7
 1679              	.LVL112:
 1680              	.L109:
 1681              		.loc 2 495 9 is_stmt 1 discriminator 2 view .LVU447
 1682              	.LBB628:
 1683              	.LBI628:
  41:../../libdaisy/src/hid/disp/oled_display.h ****     {
 1684              		.loc 1 41 10 discriminator 2 view .LVU448
 1685              	.LBB629:
 1686              	.LBI629:
 239:../../libdaisy/src/dev/oled_ssd130x.h ****     {
 1687              		.loc 6 239 10 discriminator 2 view .LVU449
 1688              	.LBB630:
 241:../../libdaisy/src/dev/oled_ssd130x.h ****             return;
 1689              		.loc 6 241 9 is_stmt 0 discriminator 2 view .LVU450
 1690 02a2 7F2B     		cmp	r3, #127
 1691 02a4 0BD8     		bhi	.L105
 1692              	.L145:
 1693              	.LVL113:
 1694              	.LBB631:
 1695              	.LBI631:
 239:../../libdaisy/src/dev/oled_ssd130x.h ****     {
 1696              		.loc 6 239 10 is_stmt 1 view .LVU451
 239:../../libdaisy/src/dev/oled_ssd130x.h ****     {
 1697              		.loc 6 239 10 is_stmt 0 view .LVU452
 1698              	.LBE631:
 244:../../libdaisy/src/dev/oled_ssd130x.h ****         else
 1699              		.loc 6 244 42 view .LVU453
 1700 02a6 94F81422 		ldrb	r2, [r4, #532]	@ zero_extendqisi2
 243:../../libdaisy/src/dev/oled_ssd130x.h ****             buffer_[x + (y / 8) * width] |= (1 << (y % 8));
 1701              		.loc 6 243 9 view .LVU454
 1702 02aa 0029     		cmp	r1, #0
 1703 02ac 50D0     		beq	.L106
 244:../../libdaisy/src/dev/oled_ssd130x.h ****         else
 1704              		.loc 6 244 42 view .LVU455
ARM GAS  C:\Users\VINCIU~1\AppData\Local\Temp\ccF8ydZb.s 			page 61


 1705 02ae 42F00102 		orr	r2, r2, #1
 1706 02b2 84F81422 		strb	r2, [r4, #532]
 1707              	.L107:
 1708              	.LVL114:
 244:../../libdaisy/src/dev/oled_ssd130x.h ****         else
 1709              		.loc 6 244 42 view .LVU456
 1710              	.LBE630:
 1711              	.LBE629:
 1712              	.LBE628:
 493:Menus.cpp     ****     {
 1713              		.loc 2 493 5 is_stmt 1 view .LVU457
 493:Menus.cpp     ****     {
 1714              		.loc 2 493 22 view .LVU458
 1715 02b6 0333     		adds	r3, r3, #3
 1716 02b8 0334     		adds	r4, r4, #3
 1717              		.loc 2 495 9 view .LVU459
 1718              	.LVL115:
 1719              	.LBB638:
  41:../../libdaisy/src/hid/disp/oled_display.h ****     {
 1720              		.loc 1 41 10 view .LVU460
 1721              	.LBB636:
 239:../../libdaisy/src/dev/oled_ssd130x.h ****     {
 1722              		.loc 6 239 10 view .LVU461
 1723              	.LBB634:
 241:../../libdaisy/src/dev/oled_ssd130x.h ****             return;
 1724              		.loc 6 241 9 is_stmt 0 view .LVU462
 1725 02ba 7F2B     		cmp	r3, #127
 1726 02bc F3D9     		bls	.L145
 1727              	.L105:
 1728              	.LVL116:
 241:../../libdaisy/src/dev/oled_ssd130x.h ****             return;
 1729              		.loc 6 241 9 view .LVU463
 1730              	.LBE634:
 1731              	.LBE636:
 1732              	.LBE638:
 493:Menus.cpp     ****     {
 1733              		.loc 2 493 5 is_stmt 1 view .LVU464
 493:Menus.cpp     ****     {
 1734              		.loc 2 493 22 view .LVU465
 1735 02be 0333     		adds	r3, r3, #3
 1736 02c0 0334     		adds	r4, r4, #3
 1737 02c2 B3F5C07F 		cmp	r3, #384
 1738 02c6 ECD1     		bne	.L109
 1739              	.LBE627:
 496:Menus.cpp     ****     }
 497:Menus.cpp     ****     this->analogLastRead = this->analogRead;
 1740              		.loc 2 497 5 view .LVU466
 1741              		.loc 2 497 26 is_stmt 0 view .LVU467
 1742 02c8 3368     		ldr	r3, [r6]	@ float
 1743              	.LBB640:
 1744              	.LBB641:
 1745              	.LBB642:
 1746              	.LBB643:
 1747              	.LBB644:
 111:../../libdaisy/src/dev/oled_ssd130x.h ****         spi_.BlockingTransmit(&cmd, 1);
 1748              		.loc 6 111 24 view .LVU468
 1749 02ca 05F10808 		add	r8, r5, #8
ARM GAS  C:\Users\VINCIU~1\AppData\Local\Temp\ccF8ydZb.s 			page 62


 1750 02ce 05F10C07 		add	r7, r5, #12
 1751 02d2 05F20C49 		addw	r9, r5, #1036
 1752 02d6 B024     		movs	r4, #176
 1753              	.LBE644:
 1754              	.LBE643:
 1755              	.LBE642:
 1756              	.LBE641:
 1757              	.LBE640:
 1758              		.loc 2 497 26 view .LVU469
 1759 02d8 7360     		str	r3, [r6, #4]	@ float
 498:Menus.cpp     **** 
 499:Menus.cpp     ****     screen.Update();
 1760              		.loc 2 499 5 is_stmt 1 view .LVU470
 1761              	.LVL117:
 1762              	.LBB664:
 1763              	.LBI640:
  44:../../libdaisy/src/hid/disp/oled_display.h ****     }
  45:../../libdaisy/src/hid/disp/oled_display.h **** 
  46:../../libdaisy/src/hid/disp/oled_display.h ****     /** 
  47:../../libdaisy/src/hid/disp/oled_display.h ****     Writes the current display buffer to the OLED device using SPI or I2C depending on 
  48:../../libdaisy/src/hid/disp/oled_display.h ****     how the object was initialized.
  49:../../libdaisy/src/hid/disp/oled_display.h ****     */
  50:../../libdaisy/src/hid/disp/oled_display.h ****     void Update() override { driver_.Update(); }
 1764              		.loc 1 50 10 view .LVU471
 1765              	.LBB663:
 1766              	.LBI641:
 254:../../libdaisy/src/dev/oled_ssd130x.h ****         }
 255:../../libdaisy/src/dev/oled_ssd130x.h ****     };
 256:../../libdaisy/src/dev/oled_ssd130x.h **** 
 257:../../libdaisy/src/dev/oled_ssd130x.h ****     /**
 258:../../libdaisy/src/dev/oled_ssd130x.h ****      * Update the display 
 259:../../libdaisy/src/dev/oled_ssd130x.h ****     */
 260:../../libdaisy/src/dev/oled_ssd130x.h ****     void Update()
 1767              		.loc 6 260 10 view .LVU472
 1768              	.LBB662:
 261:../../libdaisy/src/dev/oled_ssd130x.h ****     {
 262:../../libdaisy/src/dev/oled_ssd130x.h ****         uint8_t i;
 263:../../libdaisy/src/dev/oled_ssd130x.h ****         uint8_t high_column_addr;
 264:../../libdaisy/src/dev/oled_ssd130x.h ****         switch(height)
 265:../../libdaisy/src/dev/oled_ssd130x.h ****         {
 266:../../libdaisy/src/dev/oled_ssd130x.h ****             case 32: high_column_addr = 0x12; break;
 267:../../libdaisy/src/dev/oled_ssd130x.h **** 
 268:../../libdaisy/src/dev/oled_ssd130x.h ****             default: high_column_addr = 0x10; break;
 269:../../libdaisy/src/dev/oled_ssd130x.h ****         }
 270:../../libdaisy/src/dev/oled_ssd130x.h ****         for(i = 0; i < (height / 8); i++)
 1769              		.loc 6 270 22 view .LVU473
 1770              	.L110:
 1771              		.loc 6 270 22 is_stmt 0 view .LVU474
 1772 02da 0026     		movs	r6, #0
 1773              	.LBB649:
 1774              	.LBB645:
 111:../../libdaisy/src/dev/oled_ssd130x.h ****         spi_.BlockingTransmit(&cmd, 1);
 1775              		.loc 6 111 23 view .LVU475
 1776 02dc 4046     		mov	r0, r8
 1777 02de 8DF82740 		strb	r4, [sp, #39]
 1778              	.LVL118:
 111:../../libdaisy/src/dev/oled_ssd130x.h ****         spi_.BlockingTransmit(&cmd, 1);
ARM GAS  C:\Users\VINCIU~1\AppData\Local\Temp\ccF8ydZb.s 			page 63


 1779              		.loc 6 111 23 view .LVU476
 1780              	.LBE645:
 1781              	.LBI643:
 109:../../libdaisy/src/dev/oled_ssd130x.h ****     {
 1782              		.loc 6 109 10 is_stmt 1 view .LVU477
 1783              	.LBB646:
 111:../../libdaisy/src/dev/oled_ssd130x.h ****         spi_.BlockingTransmit(&cmd, 1);
 1784              		.loc 6 111 9 view .LVU478
 1785              	.LBE646:
 1786              	.LBE649:
 1787              		.loc 6 270 22 is_stmt 0 view .LVU479
 1788 02e2 0134     		adds	r4, r4, #1
 1789              	.LVL119:
 1790              	.LBB650:
 1791              	.LBB647:
 111:../../libdaisy/src/dev/oled_ssd130x.h ****         spi_.BlockingTransmit(&cmd, 1);
 1792              		.loc 6 111 23 view .LVU480
 1793 02e4 3146     		mov	r1, r6
 1794 02e6 FFF7FEFF 		bl	dsy_gpio_write
 1795              	.LVL120:
 112:../../libdaisy/src/dev/oled_ssd130x.h ****     };
 1796              		.loc 6 112 9 is_stmt 1 view .LVU481
 112:../../libdaisy/src/dev/oled_ssd130x.h ****     };
 1797              		.loc 6 112 30 is_stmt 0 view .LVU482
 1798 02ea 6423     		movs	r3, #100
 1799 02ec 0122     		movs	r2, #1
 1800 02ee 0DF12701 		add	r1, sp, #39
 1801 02f2 2846     		mov	r0, r5
 1802              	.LBE647:
 1803              	.LBE650:
 1804              		.loc 6 270 22 view .LVU483
 1805 02f4 E4B2     		uxtb	r4, r4
 1806              	.LBB651:
 1807              	.LBB648:
 112:../../libdaisy/src/dev/oled_ssd130x.h ****     };
 1808              		.loc 6 112 30 view .LVU484
 1809 02f6 FFF7FEFF 		bl	_ZN5daisy9SpiHandle16BlockingTransmitEPhjm
 1810              	.LVL121:
 112:../../libdaisy/src/dev/oled_ssd130x.h ****     };
 1811              		.loc 6 112 30 view .LVU485
 1812              	.LBE648:
 1813              	.LBE651:
 1814              	.LBB652:
 1815              	.LBB653:
 111:../../libdaisy/src/dev/oled_ssd130x.h ****         spi_.BlockingTransmit(&cmd, 1);
 1816              		.loc 6 111 23 view .LVU486
 1817 02fa 3146     		mov	r1, r6
 1818 02fc 4046     		mov	r0, r8
 1819 02fe 8DF82760 		strb	r6, [sp, #39]
 1820              	.LVL122:
 111:../../libdaisy/src/dev/oled_ssd130x.h ****         spi_.BlockingTransmit(&cmd, 1);
 1821              		.loc 6 111 23 view .LVU487
 1822              	.LBE653:
 1823              	.LBI652:
 109:../../libdaisy/src/dev/oled_ssd130x.h ****     {
 1824              		.loc 6 109 10 is_stmt 1 view .LVU488
 1825              	.LBB654:
ARM GAS  C:\Users\VINCIU~1\AppData\Local\Temp\ccF8ydZb.s 			page 64


 111:../../libdaisy/src/dev/oled_ssd130x.h ****         spi_.BlockingTransmit(&cmd, 1);
 1826              		.loc 6 111 9 view .LVU489
 111:../../libdaisy/src/dev/oled_ssd130x.h ****         spi_.BlockingTransmit(&cmd, 1);
 1827              		.loc 6 111 23 is_stmt 0 view .LVU490
 1828 0302 FFF7FEFF 		bl	dsy_gpio_write
 1829              	.LVL123:
 112:../../libdaisy/src/dev/oled_ssd130x.h ****     };
 1830              		.loc 6 112 9 is_stmt 1 view .LVU491
 112:../../libdaisy/src/dev/oled_ssd130x.h ****     };
 1831              		.loc 6 112 30 is_stmt 0 view .LVU492
 1832 0306 0122     		movs	r2, #1
 1833 0308 6423     		movs	r3, #100
 1834 030a 0DF12701 		add	r1, sp, #39
 1835 030e 2846     		mov	r0, r5
 1836 0310 FFF7FEFF 		bl	_ZN5daisy9SpiHandle16BlockingTransmitEPhjm
 1837              	.LVL124:
 112:../../libdaisy/src/dev/oled_ssd130x.h ****     };
 1838              		.loc 6 112 30 view .LVU493
 1839 0314 1023     		movs	r3, #16
 1840              	.LBE654:
 1841              	.LBE652:
 1842              	.LBB655:
 1843              	.LBB656:
 111:../../libdaisy/src/dev/oled_ssd130x.h ****         spi_.BlockingTransmit(&cmd, 1);
 1844              		.loc 6 111 23 view .LVU494
 1845 0316 3146     		mov	r1, r6
 1846 0318 4046     		mov	r0, r8
 1847 031a 8DF82730 		strb	r3, [sp, #39]
 1848              	.LVL125:
 111:../../libdaisy/src/dev/oled_ssd130x.h ****         spi_.BlockingTransmit(&cmd, 1);
 1849              		.loc 6 111 23 view .LVU495
 1850              	.LBE656:
 1851              	.LBI655:
 109:../../libdaisy/src/dev/oled_ssd130x.h ****     {
 1852              		.loc 6 109 10 is_stmt 1 view .LVU496
 1853              	.LBB657:
 111:../../libdaisy/src/dev/oled_ssd130x.h ****         spi_.BlockingTransmit(&cmd, 1);
 1854              		.loc 6 111 9 view .LVU497
 111:../../libdaisy/src/dev/oled_ssd130x.h ****         spi_.BlockingTransmit(&cmd, 1);
 1855              		.loc 6 111 23 is_stmt 0 view .LVU498
 1856 031e FFF7FEFF 		bl	dsy_gpio_write
 1857              	.LVL126:
 112:../../libdaisy/src/dev/oled_ssd130x.h ****     };
 1858              		.loc 6 112 9 is_stmt 1 view .LVU499
 112:../../libdaisy/src/dev/oled_ssd130x.h ****     };
 1859              		.loc 6 112 30 is_stmt 0 view .LVU500
 1860 0322 6423     		movs	r3, #100
 1861 0324 0122     		movs	r2, #1
 1862 0326 0DF12701 		add	r1, sp, #39
 1863 032a 2846     		mov	r0, r5
 1864 032c FFF7FEFF 		bl	_ZN5daisy9SpiHandle16BlockingTransmitEPhjm
 1865              	.LVL127:
 112:../../libdaisy/src/dev/oled_ssd130x.h ****     };
 1866              		.loc 6 112 30 view .LVU501
 1867              	.LBE657:
 1868              	.LBE655:
 1869              	.LBB658:
ARM GAS  C:\Users\VINCIU~1\AppData\Local\Temp\ccF8ydZb.s 			page 65


 1870              	.LBI658:
 115:../../libdaisy/src/dev/oled_ssd130x.h ****     {
 1871              		.loc 6 115 10 is_stmt 1 view .LVU502
 1872              	.LBB659:
 117:../../libdaisy/src/dev/oled_ssd130x.h ****         spi_.BlockingTransmit(buff, size);
 1873              		.loc 6 117 9 view .LVU503
 117:../../libdaisy/src/dev/oled_ssd130x.h ****         spi_.BlockingTransmit(buff, size);
 1874              		.loc 6 117 23 is_stmt 0 view .LVU504
 1875 0330 0121     		movs	r1, #1
 1876 0332 4046     		mov	r0, r8
 1877 0334 FFF7FEFF 		bl	dsy_gpio_write
 1878              	.LVL128:
 118:../../libdaisy/src/dev/oled_ssd130x.h ****     };
 1879              		.loc 6 118 9 is_stmt 1 view .LVU505
 118:../../libdaisy/src/dev/oled_ssd130x.h ****     };
 1880              		.loc 6 118 30 is_stmt 0 view .LVU506
 1881 0338 8022     		movs	r2, #128
 1882 033a 3946     		mov	r1, r7
 1883 033c 6423     		movs	r3, #100
 1884              	.LBE659:
 1885              	.LBE658:
 1886              		.loc 6 270 22 view .LVU507
 1887 033e 1744     		add	r7, r7, r2
 1888              	.LVL129:
 1889              	.LBB661:
 1890              	.LBB660:
 118:../../libdaisy/src/dev/oled_ssd130x.h ****     };
 1891              		.loc 6 118 30 view .LVU508
 1892 0340 2846     		mov	r0, r5
 1893 0342 FFF7FEFF 		bl	_ZN5daisy9SpiHandle16BlockingTransmitEPhjm
 1894              	.LVL130:
 118:../../libdaisy/src/dev/oled_ssd130x.h ****     };
 1895              		.loc 6 118 30 view .LVU509
 1896              	.LBE660:
 1897              	.LBE661:
 1898              		.loc 6 270 9 is_stmt 1 view .LVU510
 1899              		.loc 6 270 22 view .LVU511
 1900 0346 4F45     		cmp	r7, r9
 1901 0348 C7D1     		bne	.L110
 1902              	.LBE662:
 1903              	.LBE663:
 1904              	.LBE664:
 500:Menus.cpp     **** }...
 1905              		.loc 2 500 1 is_stmt 0 view .LVU512
 1906 034a 0BB0     		add	sp, sp, #44
 1907              		.cfi_remember_state
 1908              		.cfi_def_cfa_offset 36
 1909              		@ sp needed
 1910 034c BDE8F08F 		pop	{r4, r5, r6, r7, r8, r9, r10, fp, pc}
 1911              	.LVL131:
 1912              	.L106:
 1913              		.cfi_restore_state
 1914              	.LBB665:
 1915              	.LBB639:
 1916              	.LBB637:
 1917              	.LBB635:
 1918              	.LBB633:
ARM GAS  C:\Users\VINCIU~1\AppData\Local\Temp\ccF8ydZb.s 			page 66


 1919              	.LBB632:
 246:../../libdaisy/src/dev/oled_ssd130x.h ****     }
 1920              		.loc 6 246 42 view .LVU513
 1921 0350 22F00102 		bic	r2, r2, #1
 1922 0354 84F81422 		strb	r2, [r4, #532]
 1923 0358 ADE7     		b	.L107
 1924              	.L147:
 1925 035a 00BFAFF3 		.align	3
 1925      0080
 1926              	.L146:
 1927 0360 FCA9F1D2 		.word	-755914244
 1928 0364 4D62503F 		.word	1062232653
 1929 0368 00008042 		.word	1115684864
 1930 036c 06000400 		.word	262150
 1931 0370 00000000 		.word	Font_6x8
 1932 0374 49000400 		.word	262217
 1933 0378 00002042 		.word	1109393408
 1934 037c 00009442 		.word	1116995584
 1935 0380 00004843 		.word	1128792064
 1936              	.LVL132:
 1937              	.L142:
 246:../../libdaisy/src/dev/oled_ssd130x.h ****     }
 1938              		.loc 6 246 42 view .LVU514
 1939              	.LBE632:
 1940              	.LBE633:
 1941              	.LBE635:
 1942              	.LBE637:
 1943              	.LBE639:
 1944              	.LBE665:
 441:Menus.cpp     ****         this->menuStateGlide = this->menuStateGlide - 1;
 1945              		.loc 2 441 9 is_stmt 1 view .LVU515
 442:Menus.cpp     ****         if(this->menuStateGlide < 0)
 1946              		.loc 2 442 9 view .LVU516
 1947 0384 013B     		subs	r3, r3, #1
 1948 0386 3AD4     		bmi	.L73
 441:Menus.cpp     ****         this->menuStateGlide = this->menuStateGlide - 1;
 1949              		.loc 2 441 30 is_stmt 0 view .LVU517
 1950 0388 3367     		str	r3, [r6, #112]
 1951 038a 6DE6     		b	.L74
 1952              	.LVL133:
 1953              	.L96:
 1954              	.LBB666:
 1955              	.LBB564:
 1956              	.LBB558:
 1957              	.LBB545:
 1958              	.LBB538:
 239:../../libdaisy/src/dev/oled_ssd130x.h ****     {
 1959              		.loc 6 239 10 is_stmt 1 view .LVU518
 1960              	.LBB533:
 241:../../libdaisy/src/dev/oled_ssd130x.h ****             return;
 1961              		.loc 6 241 9 is_stmt 0 view .LVU519
 1962 038c B8F17F0F 		cmp	r8, #127
 1963              	.LBE533:
 1964              	.LBE538:
 1965              	.LBE545:
 1966              	.LBE558:
 190:../../libdaisy/src/hid/disp/display.h ****         int_fast16_t error  = deltaX - deltaY;
ARM GAS  C:\Users\VINCIU~1\AppData\Local\Temp\ccF8ydZb.s 			page 67


 1967              		.loc 5 190 42 view .LVU520
 1968 0390 CDE90699 		strd	r9, r9, [sp, #24]
 1969              	.LBB559:
 1970              	.LBB546:
 1971              	.LBB539:
 1972              	.LBB534:
 241:../../libdaisy/src/dev/oled_ssd130x.h ****             return;
 1973              		.loc 6 241 9 view .LVU521
 1974 0394 3FF637AF 		bhi	.L97
 1975 0398 28E7     		b	.L111
 1976              	.LVL134:
 1977              	.L113:
 241:../../libdaisy/src/dev/oled_ssd130x.h ****             return;
 1978              		.loc 6 241 9 view .LVU522
 1979              	.LBE534:
 1980              	.LBE539:
 1981              	.LBE546:
 1982              	.LBE559:
 189:../../libdaisy/src/hid/disp/display.h ****         int_fast16_t signY  = ((y1 < y2) ? 1 : -1);
 1983              		.loc 5 189 42 view .LVU523
 1984 039a 4FF0FF33 		mov	r3, #-1
 191:../../libdaisy/src/hid/disp/display.h ****         int_fast16_t error2;
 1985              		.loc 5 191 22 view .LVU524
 1986 039e A7EB0A01 		sub	r1, r7, r10
 1987              	.LVL135:
 1988              	.LBB560:
  41:../../libdaisy/src/hid/disp/oled_display.h ****     {
 1989              		.loc 1 41 10 is_stmt 1 view .LVU525
 1990              	.LBB547:
  43:../../libdaisy/src/hid/disp/oled_display.h ****     }
 1991              		.loc 1 43 26 is_stmt 0 view .LVU526
 1992 03a2 04F10805 		add	r5, r4, #8
 1993              	.LVL136:
 1994              	.LBB540:
 239:../../libdaisy/src/dev/oled_ssd130x.h ****     {
 1995              		.loc 6 239 10 is_stmt 1 view .LVU527
 1996              	.LBE540:
 1997              	.LBE547:
 1998              	.LBE560:
 190:../../libdaisy/src/hid/disp/display.h ****         int_fast16_t error  = deltaX - deltaY;
 1999              		.loc 5 190 42 is_stmt 0 view .LVU528
 2000 03a6 CDF81890 		str	r9, [sp, #24]
 189:../../libdaisy/src/hid/disp/display.h ****         int_fast16_t signY  = ((y1 < y2) ? 1 : -1);
 2001              		.loc 5 189 42 view .LVU529
 2002 03aa 0793     		str	r3, [sp, #28]
 2003 03ac 1EE7     		b	.L111
 2004              	.LVL137:
 2005              	.L80:
 189:../../libdaisy/src/hid/disp/display.h ****         int_fast16_t signY  = ((y1 < y2) ? 1 : -1);
 2006              		.loc 5 189 42 view .LVU530
 2007              	.LBE564:
 2008              	.LBE666:
 460:Menus.cpp     ****             circleGlidePosition = ((screen.Height()) + margin) - glideInit;
 2009              		.loc 2 460 13 is_stmt 1 view .LVU531
 463:Menus.cpp     ****                     (int)(((glideInit - offset) / 40) * 200) - 100);
 2010              		.loc 2 463 39 is_stmt 0 view .LVU532
 2011 03ae B3EE007A 		vmov.f32	s14, #1.6e+1
ARM GAS  C:\Users\VINCIU~1\AppData\Local\Temp\ccF8ydZb.s 			page 68


 463:Menus.cpp     ****                     (int)(((glideInit - offset) / 40) * 200) - 100);
 2012              		.loc 2 463 49 view .LVU533
 2013 03b2 1FED0F6A 		vldr.32	s12, .L146+24
 460:Menus.cpp     ****             circleGlidePosition = ((screen.Height()) + margin) - glideInit;
 2014              		.loc 2 460 64 view .LVU534
 2015 03b6 5FED0F7A 		vldr.32	s15, .L146+28
 461:Menus.cpp     ****             sprintf(this->buffPitchGlide,
 2016              		.loc 2 461 27 view .LVU535
 2017 03ba 06F58275 		add	r5, r6, #260
 463:Menus.cpp     ****                     (int)(((glideInit - offset) / 40) * 200) - 100);
 2018              		.loc 2 463 55 view .LVU536
 2019 03be 5FED106A 		vldr.32	s13, .L146+32
 463:Menus.cpp     ****                     (int)(((glideInit - offset) / 40) * 200) - 100);
 2020              		.loc 2 463 39 view .LVU537
 2021 03c2 35EE477A 		vsub.f32	s14, s10, s14
 461:Menus.cpp     ****             sprintf(this->buffPitchGlide,
 2022              		.loc 2 461 20 view .LVU538
 2023 03c6 5849     		ldr	r1, .L148+16
 460:Menus.cpp     ****             circleGlidePosition = ((screen.Height()) + margin) - glideInit;
 2024              		.loc 2 460 64 view .LVU539
 2025 03c8 37EEC55A 		vsub.f32	s10, s15, s10
 2026              	.LVL138:
 461:Menus.cpp     ****             sprintf(this->buffPitchGlide,
 2027              		.loc 2 461 20 view .LVU540
 2028 03cc 2846     		mov	r0, r5
 463:Menus.cpp     ****                     (int)(((glideInit - offset) / 40) * 200) - 100);
 2029              		.loc 2 463 49 view .LVU541
 2030 03ce C7EE067A 		vdiv.f32	s15, s14, s12
 460:Menus.cpp     ****             circleGlidePosition = ((screen.Height()) + margin) - glideInit;
 2031              		.loc 2 460 33 view .LVU542
 2032 03d2 86ED225A 		vstr.32	s10, [r6, #136]
 461:Menus.cpp     ****             sprintf(this->buffPitchGlide,
 2033              		.loc 2 461 13 is_stmt 1 view .LVU543
 463:Menus.cpp     ****                     (int)(((glideInit - offset) / 40) * 200) - 100);
 2034              		.loc 2 463 55 is_stmt 0 view .LVU544
 2035 03d6 67EEA67A 		vmul.f32	s15, s15, s13
 463:Menus.cpp     ****                     (int)(((glideInit - offset) / 40) * 200) - 100);
 2036              		.loc 2 463 21 view .LVU545
 2037 03da FDEEE77A 		vcvt.s32.f32	s15, s15
 2038 03de 17EE902A 		vmov	r2, s15	@ int
 461:Menus.cpp     ****             sprintf(this->buffPitchGlide,
 2039              		.loc 2 461 20 view .LVU546
 2040 03e2 643A     		subs	r2, r2, #100
 2041 03e4 FFF7FEFF 		bl	sprintf
 2042              	.LVL139:
 464:Menus.cpp     ****             this->glideInit = (this->analogRead * 24) - 12;
 2043              		.loc 2 464 13 is_stmt 1 view .LVU547
 464:Menus.cpp     ****             this->glideInit = (this->analogRead * 24) - 12;
 2044              		.loc 2 464 55 is_stmt 0 view .LVU548
 2045 03e8 B3EE087A 		vmov.f32	s14, #2.4e+1
 2046 03ec FAEE087A 		vmov.f32	s15, #-1.2e+1
 2047 03f0 D6ED006A 		vldr.32	s13, [r6]
 2048 03f4 E6EE877A 		vfma.f32	s15, s13, s14
 464:Menus.cpp     ****             this->glideInit = (this->analogRead * 24) - 12;
 2049              		.loc 2 464 29 view .LVU549
 2050 03f8 C6ED247A 		vstr.32	s15, [r6, #144]
 2051 03fc 95E6     		b	.L81
ARM GAS  C:\Users\VINCIU~1\AppData\Local\Temp\ccF8ydZb.s 			page 69


 2052              	.LVL140:
 2053              	.L73:
 444:Menus.cpp     ****             this->menuStateGlide = 1;
 2054              		.loc 2 444 13 is_stmt 1 view .LVU550
 447:Menus.cpp     ****     if(this->buttonRight.RisingEdge())
 2055              		.loc 2 447 5 is_stmt 0 view .LVU551
 2056 03fe 96F86130 		ldrb	r3, [r6, #97]	@ zero_extendqisi2
 444:Menus.cpp     ****             this->menuStateGlide = 1;
 2057              		.loc 2 444 34 view .LVU552
 2058 0402 0122     		movs	r2, #1
 447:Menus.cpp     ****     if(this->buttonRight.RisingEdge())
 2059              		.loc 2 447 5 view .LVU553
 2060 0404 7F2B     		cmp	r3, #127
 444:Menus.cpp     ****             this->menuStateGlide = 1;
 2061              		.loc 2 444 34 view .LVU554
 2062 0406 3267     		str	r2, [r6, #112]
 447:Menus.cpp     ****     if(this->buttonRight.RisingEdge())
 2063              		.loc 2 447 5 is_stmt 1 view .LVU555
 2064              	.LVL141:
 2065              	.LBB667:
 2066              		.loc 4 69 17 view .LVU556
 2067              	.LBB514:
 2068              		.loc 4 69 38 view .LVU557
 2069              		.loc 4 69 38 is_stmt 0 view .LVU558
 2070              	.LBE514:
 2071              	.LBE667:
 447:Menus.cpp     ****     if(this->buttonRight.RisingEdge())
 2072              		.loc 2 447 5 view .LVU559
 2073 0408 3FF483AE 		beq	.L78
 2074              	.L75:
 470:Menus.cpp     ****         if(this->updateValue)
 2075              		.loc 2 470 9 is_stmt 1 view .LVU560
 2076 040c 9FED426B 		vldr.64	d6, .L148
 2077 0410 B4EEC67B 		vcmpe.f64	d7, d6
 2078 0414 F1EE10FA 		vmrs	APSR_nzcv, FPSCR
 2079 0418 51DC     		bgt	.L117
 2080 041a 06F58E77 		add	r7, r6, #284
 2081              	.LVL142:
 2082              	.L88:
 479:Menus.cpp     ****         screen.DrawRect(67, 0, screen.Width() - 2, 13, true, false);
 2083              		.loc 2 479 9 view .LVU561
 2084              	.LBB668:
 2085              	.LBI668:
 217:../../libdaisy/src/hid/disp/display.h ****                   uint_fast8_t y1,
 2086              		.loc 5 217 10 view .LVU562
 2087              	.LBB669:
 2088              	.LBI669:
 181:../../libdaisy/src/hid/disp/display.h ****                   uint_fast8_t y1,
 2089              		.loc 5 181 10 view .LVU563
 2090              	.LBB670:
 2091              	.LBB671:
 2092              	.LBI671:
  41:../../libdaisy/src/hid/disp/oled_display.h ****     {
 2093              		.loc 1 41 10 view .LVU564
 2094              	.LBB672:
 2095              	.LBI672:
 239:../../libdaisy/src/dev/oled_ssd130x.h ****     {
ARM GAS  C:\Users\VINCIU~1\AppData\Local\Temp\ccF8ydZb.s 			page 70


 2096              		.loc 6 239 10 view .LVU565
 2097              	.LBB673:
 244:../../libdaisy/src/dev/oled_ssd130x.h ****         else
 2098              		.loc 6 244 42 is_stmt 0 view .LVU566
 2099 041e 94F89220 		ldrb	r2, [r4, #146]	@ zero_extendqisi2
 2100 0422 04F15603 		add	r3, r4, #86
 2101 0426 04F19101 		add	r1, r4, #145
 2102 042a 42F00102 		orr	r2, r2, #1
 2103 042e 84F89220 		strb	r2, [r4, #146]
 2104              	.LVL143:
 244:../../libdaisy/src/dev/oled_ssd130x.h ****         else
 2105              		.loc 6 244 42 view .LVU567
 2106              	.LBE673:
 2107              	.LBE672:
 2108              	.LBE671:
 199:../../libdaisy/src/hid/disp/display.h ****         {
 2109              		.loc 5 199 26 is_stmt 1 view .LVU568
 2110              	.L90:
 2111              	.LBB674:
 2112              	.LBI674:
  41:../../libdaisy/src/hid/disp/oled_display.h ****     {
 2113              		.loc 1 41 10 view .LVU569
 2114              	.LBB675:
 2115              	.LBI675:
 239:../../libdaisy/src/dev/oled_ssd130x.h ****     {
 2116              		.loc 6 239 10 view .LVU570
 2117              	.LBB676:
 244:../../libdaisy/src/dev/oled_ssd130x.h ****         else
 2118              		.loc 6 244 42 is_stmt 0 view .LVU571
 2119 0432 13F8012F 		ldrb	r2, [r3, #1]!	@ zero_extendqisi2
 244:../../libdaisy/src/dev/oled_ssd130x.h ****         else
 2120              		.loc 6 244 42 view .LVU572
 2121 0436 42F00102 		orr	r2, r2, #1
 2122              	.LBE676:
 2123              	.LBE675:
 2124              	.LBE674:
 199:../../libdaisy/src/hid/disp/display.h ****         {
 2125              		.loc 5 199 26 view .LVU573
 2126 043a 9942     		cmp	r1, r3
 2127              	.LBB679:
 2128              	.LBB678:
 2129              	.LBB677:
 244:../../libdaisy/src/dev/oled_ssd130x.h ****         else
 2130              		.loc 6 244 42 view .LVU574
 2131 043c 1A70     		strb	r2, [r3]
 2132              	.LVL144:
 244:../../libdaisy/src/dev/oled_ssd130x.h ****         else
 2133              		.loc 6 244 42 view .LVU575
 2134              	.LBE677:
 2135              	.LBE678:
 2136              	.LBE679:
 199:../../libdaisy/src/hid/disp/display.h ****         {
 2137              		.loc 5 199 26 is_stmt 1 view .LVU576
 2138 043e F8D1     		bne	.L90
 2139              	.LVL145:
 199:../../libdaisy/src/hid/disp/display.h ****         {
 2140              		.loc 5 199 26 is_stmt 0 view .LVU577
ARM GAS  C:\Users\VINCIU~1\AppData\Local\Temp\ccF8ydZb.s 			page 71


 2141              	.LBE670:
 2142              	.LBE669:
 2143              	.LBB680:
 2144              	.LBI680:
 181:../../libdaisy/src/hid/disp/display.h ****                   uint_fast8_t y1,
 2145              		.loc 5 181 10 is_stmt 1 view .LVU578
 2146              	.LBB681:
 2147              	.LBB682:
 2148              	.LBI682:
  41:../../libdaisy/src/hid/disp/oled_display.h ****     {
 2149              		.loc 1 41 10 view .LVU579
 2150              	.LBB683:
 2151              	.LBI683:
 239:../../libdaisy/src/dev/oled_ssd130x.h ****     {
 2152              		.loc 6 239 10 view .LVU580
 2153              	.LBB684:
 244:../../libdaisy/src/dev/oled_ssd130x.h ****         else
 2154              		.loc 6 244 42 is_stmt 0 view .LVU581
 2155 0440 94F81221 		ldrb	r2, [r4, #274]	@ zero_extendqisi2
 2156 0444 0023     		movs	r3, #0
 2157 0446 42F02002 		orr	r2, r2, #32
 2158 044a 84F81221 		strb	r2, [r4, #274]
 2159              	.LVL146:
 244:../../libdaisy/src/dev/oled_ssd130x.h ****         else
 2160              		.loc 6 244 42 view .LVU582
 2161              	.LBE684:
 2162              	.LBE683:
 2163              	.LBE682:
 199:../../libdaisy/src/hid/disp/display.h ****         {
 2164              		.loc 5 199 26 is_stmt 1 view .LVU583
 2165              	.L91:
 2166              	.LBB685:
 2167              	.LBI685:
  41:../../libdaisy/src/hid/disp/oled_display.h ****     {
 2168              		.loc 1 41 10 view .LVU584
 2169              	.LBB686:
 2170              	.LBI686:
 239:../../libdaisy/src/dev/oled_ssd130x.h ****     {
 2171              		.loc 6 239 10 view .LVU585
 2172              	.LBB687:
 244:../../libdaisy/src/dev/oled_ssd130x.h ****         else
 2173              		.loc 6 244 28 is_stmt 0 view .LVU586
 2174 044e D908     		lsrs	r1, r3, #3
 244:../../libdaisy/src/dev/oled_ssd130x.h ****         else
 2175              		.loc 6 244 54 view .LVU587
 2176 0450 03F00700 		and	r0, r3, #7
 244:../../libdaisy/src/dev/oled_ssd130x.h ****         else
 2177              		.loc 6 244 48 view .LVU588
 2178 0454 0122     		movs	r2, #1
 244:../../libdaisy/src/dev/oled_ssd130x.h ****         else
 2179              		.loc 6 244 42 view .LVU589
 2180 0456 04EBC111 		add	r1, r4, r1, lsl #7
 2181              	.LBE687:
 2182              	.LBE686:
 2183              	.LBE685:
 212:../../libdaisy/src/hid/disp/display.h ****             }
 2184              		.loc 5 212 20 view .LVU590
ARM GAS  C:\Users\VINCIU~1\AppData\Local\Temp\ccF8ydZb.s 			page 72


 2185 045a 1344     		add	r3, r3, r2
 2186              	.LVL147:
 2187              	.LBB692:
 2188              	.LBB690:
 2189              	.LBB688:
 244:../../libdaisy/src/dev/oled_ssd130x.h ****         else
 2190              		.loc 6 244 48 view .LVU591
 2191 045c 8240     		lsls	r2, r2, r0
 244:../../libdaisy/src/dev/oled_ssd130x.h ****         else
 2192              		.loc 6 244 42 view .LVU592
 2193 045e 91F89200 		ldrb	r0, [r1, #146]	@ zero_extendqisi2
 2194              	.LBE688:
 2195              	.LBE690:
 2196              	.LBE692:
 199:../../libdaisy/src/hid/disp/display.h ****         {
 2197              		.loc 5 199 26 view .LVU593
 2198 0462 0D2B     		cmp	r3, #13
 2199              	.LBB693:
 2200              	.LBB691:
 2201              	.LBB689:
 244:../../libdaisy/src/dev/oled_ssd130x.h ****         else
 2202              		.loc 6 244 42 view .LVU594
 2203 0464 42EA0002 		orr	r2, r2, r0
 2204 0468 81F89220 		strb	r2, [r1, #146]
 2205              	.LVL148:
 244:../../libdaisy/src/dev/oled_ssd130x.h ****         else
 2206              		.loc 6 244 42 view .LVU595
 2207              	.LBE689:
 2208              	.LBE691:
 2209              	.LBE693:
 199:../../libdaisy/src/hid/disp/display.h ****         {
 2210              		.loc 5 199 26 is_stmt 1 view .LVU596
 2211 046c EFD1     		bne	.L91
 2212              	.LVL149:
 199:../../libdaisy/src/hid/disp/display.h ****         {
 2213              		.loc 5 199 26 is_stmt 0 view .LVU597
 2214              	.LBE681:
 2215              	.LBE680:
 2216              	.LBB694:
 2217              	.LBI694:
 181:../../libdaisy/src/hid/disp/display.h ****                   uint_fast8_t y1,
 2218              		.loc 5 181 10 is_stmt 1 view .LVU598
 2219              	.LBB695:
 2220              	.LBB696:
 2221              	.LBI696:
  41:../../libdaisy/src/hid/disp/oled_display.h ****     {
 2222              		.loc 1 41 10 view .LVU599
 2223              	.LBB697:
 2224              	.LBI697:
 239:../../libdaisy/src/dev/oled_ssd130x.h ****     {
 2225              		.loc 6 239 10 view .LVU600
 2226              	.LBB698:
 244:../../libdaisy/src/dev/oled_ssd130x.h ****         else
 2227              		.loc 6 244 42 is_stmt 0 view .LVU601
 2228 046e 94F8D720 		ldrb	r2, [r4, #215]	@ zero_extendqisi2
 2229 0472 04F1D800 		add	r0, r4, #216
 2230 0476 42F02002 		orr	r2, r2, #32
ARM GAS  C:\Users\VINCIU~1\AppData\Local\Temp\ccF8ydZb.s 			page 73


 2231 047a 84F8D720 		strb	r2, [r4, #215]
 2232              	.LVL150:
 244:../../libdaisy/src/dev/oled_ssd130x.h ****         else
 2233              		.loc 6 244 42 view .LVU602
 2234              	.LBE698:
 2235              	.LBE697:
 2236              	.LBE696:
 199:../../libdaisy/src/hid/disp/display.h ****         {
 2237              		.loc 5 199 26 is_stmt 1 view .LVU603
 2238 047e 04F21312 		addw	r2, r4, #275
 2239              	.LVL151:
 2240              	.L92:
 2241              	.LBB699:
 2242              	.LBI699:
  41:../../libdaisy/src/hid/disp/oled_display.h ****     {
 2243              		.loc 1 41 10 view .LVU604
 2244              	.LBB700:
 2245              	.LBI700:
 239:../../libdaisy/src/dev/oled_ssd130x.h ****     {
 2246              		.loc 6 239 10 view .LVU605
 2247              	.LBB701:
 244:../../libdaisy/src/dev/oled_ssd130x.h ****         else
 2248              		.loc 6 244 42 is_stmt 0 view .LVU606
 2249 0482 12F8011D 		ldrb	r1, [r2, #-1]!	@ zero_extendqisi2
 244:../../libdaisy/src/dev/oled_ssd130x.h ****         else
 2250              		.loc 6 244 42 view .LVU607
 2251 0486 41F02001 		orr	r1, r1, #32
 2252              	.LBE701:
 2253              	.LBE700:
 2254              	.LBE699:
 199:../../libdaisy/src/hid/disp/display.h ****         {
 2255              		.loc 5 199 26 view .LVU608
 2256 048a 9042     		cmp	r0, r2
 2257              	.LBB704:
 2258              	.LBB703:
 2259              	.LBB702:
 244:../../libdaisy/src/dev/oled_ssd130x.h ****         else
 2260              		.loc 6 244 42 view .LVU609
 2261 048c 1170     		strb	r1, [r2]
 2262              	.LVL152:
 244:../../libdaisy/src/dev/oled_ssd130x.h ****         else
 2263              		.loc 6 244 42 view .LVU610
 2264              	.LBE702:
 2265              	.LBE703:
 2266              	.LBE704:
 199:../../libdaisy/src/hid/disp/display.h ****         {
 2267              		.loc 5 199 26 is_stmt 1 view .LVU611
 2268 048e F8D1     		bne	.L92
 2269              	.LVL153:
 199:../../libdaisy/src/hid/disp/display.h ****         {
 2270              		.loc 5 199 26 is_stmt 0 view .LVU612
 2271              	.LBE695:
 2272              	.LBE694:
 2273              	.LBB705:
 2274              	.LBI705:
 181:../../libdaisy/src/hid/disp/display.h ****                   uint_fast8_t y1,
 2275              		.loc 5 181 10 is_stmt 1 view .LVU613
ARM GAS  C:\Users\VINCIU~1\AppData\Local\Temp\ccF8ydZb.s 			page 74


 2276              	.LBB706:
 2277              	.LBB707:
 2278              	.LBI707:
  41:../../libdaisy/src/hid/disp/oled_display.h ****     {
 2279              		.loc 1 41 10 view .LVU614
 2280              	.LBB708:
 2281              	.LBI708:
 239:../../libdaisy/src/dev/oled_ssd130x.h ****     {
 2282              		.loc 6 239 10 view .LVU615
 2283              	.LBB709:
 244:../../libdaisy/src/dev/oled_ssd130x.h ****         else
 2284              		.loc 6 244 42 is_stmt 0 view .LVU616
 2285 0490 94F85720 		ldrb	r2, [r4, #87]	@ zero_extendqisi2
 2286 0494 42F00102 		orr	r2, r2, #1
 2287 0498 84F85720 		strb	r2, [r4, #87]
 2288              	.LVL154:
 244:../../libdaisy/src/dev/oled_ssd130x.h ****         else
 2289              		.loc 6 244 42 view .LVU617
 2290              	.LBE709:
 2291              	.LBE708:
 2292              	.LBE707:
 199:../../libdaisy/src/hid/disp/display.h ****         {
 2293              		.loc 5 199 26 is_stmt 1 view .LVU618
 2294              	.L94:
 2295              	.LBB710:
 2296              	.LBI710:
  41:../../libdaisy/src/hid/disp/oled_display.h ****     {
 2297              		.loc 1 41 10 view .LVU619
 2298              	.LBB711:
 2299              	.LBI711:
 239:../../libdaisy/src/dev/oled_ssd130x.h ****     {
 2300              		.loc 6 239 10 view .LVU620
 2301              	.LBB712:
 244:../../libdaisy/src/dev/oled_ssd130x.h ****         else
 2302              		.loc 6 244 28 is_stmt 0 view .LVU621
 2303 049c D908     		lsrs	r1, r3, #3
 244:../../libdaisy/src/dev/oled_ssd130x.h ****         else
 2304              		.loc 6 244 54 view .LVU622
 2305 049e 03F00700 		and	r0, r3, #7
 244:../../libdaisy/src/dev/oled_ssd130x.h ****         else
 2306              		.loc 6 244 48 view .LVU623
 2307 04a2 0122     		movs	r2, #1
 2308              	.LBE712:
 2309              	.LBE711:
 2310              	.LBE710:
 199:../../libdaisy/src/hid/disp/display.h ****         {
 2311              		.loc 5 199 26 view .LVU624
 2312 04a4 013B     		subs	r3, r3, #1
 2313              	.LVL155:
 2314              	.LBB715:
 2315              	.LBB714:
 2316              	.LBB713:
 244:../../libdaisy/src/dev/oled_ssd130x.h ****         else
 2317              		.loc 6 244 42 view .LVU625
 2318 04a6 04EBC111 		add	r1, r4, r1, lsl #7
 244:../../libdaisy/src/dev/oled_ssd130x.h ****         else
 2319              		.loc 6 244 48 view .LVU626
ARM GAS  C:\Users\VINCIU~1\AppData\Local\Temp\ccF8ydZb.s 			page 75


 2320 04aa 02FA00F2 		lsl	r2, r2, r0
 244:../../libdaisy/src/dev/oled_ssd130x.h ****         else
 2321              		.loc 6 244 42 view .LVU627
 2322 04ae 91F85700 		ldrb	r0, [r1, #87]	@ zero_extendqisi2
 2323 04b2 42EA0002 		orr	r2, r2, r0
 2324 04b6 81F85720 		strb	r2, [r1, #87]
 2325              	.LVL156:
 244:../../libdaisy/src/dev/oled_ssd130x.h ****         else
 2326              		.loc 6 244 42 view .LVU628
 2327              	.LBE713:
 2328              	.LBE714:
 2329              	.LBE715:
 199:../../libdaisy/src/hid/disp/display.h ****         {
 2330              		.loc 5 199 26 is_stmt 1 view .LVU629
 2331 04ba EFD1     		bne	.L94
 2332 04bc DFE5     		b	.L93
 2333              	.LVL157:
 2334              	.L117:
 199:../../libdaisy/src/hid/disp/display.h ****         {
 2335              		.loc 5 199 26 is_stmt 0 view .LVU630
 2336              	.LBE706:
 2337              	.LBE705:
 2338              	.LBE668:
 472:Menus.cpp     ****             circleGlideTimePosition
 2339              		.loc 2 472 13 is_stmt 1 view .LVU631
 477:Menus.cpp     ****                     (int)(((glideInit - offset) / 40) * 100) - 0);
 2340              		.loc 2 477 39 is_stmt 0 view .LVU632
 2341 04be F3EE006A 		vmov.f32	s13, #1.6e+1
 477:Menus.cpp     ****                     (int)(((glideInit - offset) / 40) * 100) - 0);
 2342              		.loc 2 477 49 view .LVU633
 2343 04c2 DFED1A2A 		vldr.32	s5, .L148+20
 473:Menus.cpp     ****                 = ((this->analogRead * screen.Width() * 0.8) + margin);
 2344              		.loc 2 473 38 view .LVU634
 2345 04c6 9FED1A6A 		vldr.32	s12, .L148+24
 473:Menus.cpp     ****                 = ((this->analogRead * screen.Width() * 0.8) + margin);
 2346              		.loc 2 473 62 view .LVU635
 2347 04ca B2EE047B 		vmov.f64	d7, #1.0e+1
 477:Menus.cpp     ****                     (int)(((glideInit - offset) / 40) * 100) - 0);
 2348              		.loc 2 477 55 view .LVU636
 2349 04ce 9FED194A 		vldr.32	s8, .L148+28
 475:Menus.cpp     ****             sprintf(this->buffPitchTime,
 2350              		.loc 2 475 20 view .LVU637
 2351 04d2 06F58E77 		add	r7, r6, #284
 477:Menus.cpp     ****                     (int)(((glideInit - offset) / 40) * 100) - 0);
 2352              		.loc 2 477 39 view .LVU638
 2353 04d6 35EE665A 		vsub.f32	s10, s10, s13
 2354              	.LVL158:
 475:Menus.cpp     ****             sprintf(this->buffPitchTime,
 2355              		.loc 2 475 20 view .LVU639
 2356 04da 1749     		ldr	r1, .L148+32
 473:Menus.cpp     ****                 = ((this->analogRead * screen.Width() * 0.8) + margin);
 2357              		.loc 2 473 38 view .LVU640
 2358 04dc 24EE866A 		vmul.f32	s12, s9, s12
 475:Menus.cpp     ****             sprintf(this->buffPitchTime,
 2359              		.loc 2 475 20 view .LVU641
 2360 04e0 3846     		mov	r0, r7
 474:Menus.cpp     ****             this->glideTime = this->analogRead * 2;
ARM GAS  C:\Users\VINCIU~1\AppData\Local\Temp\ccF8ydZb.s 			page 76


 2361              		.loc 2 474 48 view .LVU642
 2362 04e2 74EEA44A 		vadd.f32	s9, s9, s9
 2363              	.LVL159:
 477:Menus.cpp     ****                     (int)(((glideInit - offset) / 40) * 100) - 0);
 2364              		.loc 2 477 49 view .LVU643
 2365 04e6 C5EE225A 		vdiv.f32	s11, s10, s5
 474:Menus.cpp     ****             this->glideTime = this->analogRead * 2;
 2366              		.loc 2 474 29 view .LVU644
 2367 04ea C6ED254A 		vstr.32	s9, [r6, #148]
 473:Menus.cpp     ****                 = ((this->analogRead * screen.Width() * 0.8) + margin);
 2368              		.loc 2 473 38 view .LVU645
 2369 04ee B7EEC66A 		vcvt.f64.f32	d6, s12
 473:Menus.cpp     ****                 = ((this->analogRead * screen.Width() * 0.8) + margin);
 2370              		.loc 2 473 62 view .LVU646
 2371 04f2 9FED0B3B 		vldr.64	d3, .L148+8
 2372 04f6 A6EE037B 		vfma.f64	d7, d6, d3
 2373 04fa B7EEC77B 		vcvt.f32.f64	s14, d7
 477:Menus.cpp     ****                     (int)(((glideInit - offset) / 40) * 100) - 0);
 2374              		.loc 2 477 55 view .LVU647
 2375 04fe 65EE847A 		vmul.f32	s15, s11, s8
 473:Menus.cpp     ****                 = ((this->analogRead * screen.Width() * 0.8) + margin);
 2376              		.loc 2 473 62 view .LVU648
 2377 0502 86ED237A 		vstr.32	s14, [r6, #140]
 474:Menus.cpp     ****             this->glideTime = this->analogRead * 2;
 2378              		.loc 2 474 13 is_stmt 1 view .LVU649
 475:Menus.cpp     ****             sprintf(this->buffPitchTime,
 2379              		.loc 2 475 13 view .LVU650
 475:Menus.cpp     ****             sprintf(this->buffPitchTime,
 2380              		.loc 2 475 20 is_stmt 0 view .LVU651
 2381 0506 FDEEE77A 		vcvt.s32.f32	s15, s15
 2382 050a 17EE902A 		vmov	r2, s15	@ int
 2383 050e FFF7FEFF 		bl	sprintf
 2384              	.LVL160:
 475:Menus.cpp     ****             sprintf(this->buffPitchTime,
 2385              		.loc 2 475 20 view .LVU652
 2386 0512 84E7     		b	.L88
 2387              	.L149:
 2388 0514 AFF30080 		.align	3
 2389              	.L148:
 2390 0518 FCA9F1D2 		.word	-755914244
 2391 051c 4D62503F 		.word	1062232653
 2392 0520 9A999999 		.word	-1717986918
 2393 0524 9999E93F 		.word	1072273817
 2394 0528 00000000 		.word	.LC1
 2395 052c 00002042 		.word	1109393408
 2396 0530 00000043 		.word	1124073472
 2397 0534 0000C842 		.word	1120403456
 2398 0538 0C000000 		.word	.LC2
 2399              		.cfi_endproc
 2400              	.LFE4040:
 2402              		.section	.text._ZN5daisy25OneBitGraphicsDisplayImplINS_11OledDisplayINS_13SSD130xDriverILj128ELj64
 2403              		.align	1
 2404              		.p2align 2,,3
 2405              		.weak	_ZN5daisy25OneBitGraphicsDisplayImplINS_11OledDisplayINS_13SSD130xDriverILj128ELj64ENS_24SSD
 2406              		.syntax unified
 2407              		.thumb
 2408              		.thumb_func
ARM GAS  C:\Users\VINCIU~1\AppData\Local\Temp\ccF8ydZb.s 			page 77


 2409              		.fpu fpv5-d16
 2411              	_ZN5daisy25OneBitGraphicsDisplayImplINS_11OledDisplayINS_13SSD130xDriverILj128ELj64ENS_24SSD130x4Wi
 2412              	.LVL161:
 2413              	.LFB4340:
 217:../../libdaisy/src/hid/disp/display.h ****                   uint_fast8_t y1,
 2414              		.loc 5 217 10 is_stmt 1 view -0
 2415              		.cfi_startproc
 2416              		@ args = 12, pretend = 0, frame = 24
 2417              		@ frame_needed = 0, uses_anonymous_args = 0
 217:../../libdaisy/src/hid/disp/display.h ****                   uint_fast8_t y1,
 2418              		.loc 5 217 10 is_stmt 0 view .LVU654
 2419 0000 2DE9F04F 		push	{r4, r5, r6, r7, r8, r9, r10, fp, lr}
 2420              		.cfi_def_cfa_offset 36
 2421              		.cfi_offset 4, -36
 2422              		.cfi_offset 5, -32
 2423              		.cfi_offset 6, -28
 2424              		.cfi_offset 7, -24
 2425              		.cfi_offset 8, -20
 2426              		.cfi_offset 9, -16
 2427              		.cfi_offset 10, -12
 2428              		.cfi_offset 11, -8
 2429              		.cfi_offset 14, -4
 2430 0004 87B0     		sub	sp, sp, #28
 2431              		.cfi_def_cfa_offset 64
 217:../../libdaisy/src/hid/disp/display.h ****                   uint_fast8_t y1,
 2432              		.loc 5 217 10 view .LVU655
 2433 0006 9DF84850 		ldrb	r5, [sp, #72]	@ zero_extendqisi2
 2434 000a 109C     		ldr	r4, [sp, #64]
 2435 000c 2E46     		mov	r6, r5
 2436 000e 0195     		str	r5, [sp, #4]
 2437 0010 9DF84450 		ldrb	r5, [sp, #68]	@ zero_extendqisi2
 2438              	.LBB787:
 224:../../libdaisy/src/hid/disp/display.h ****         {
 2439              		.loc 5 224 9 view .LVU656
 2440 0014 9EB3     		cbz	r6, .L151
 2441              	.LVL162:
 224:../../libdaisy/src/hid/disp/display.h ****         {
 2442              		.loc 5 224 9 view .LVU657
 2443              	.LBE787:
 2444              	.LBB909:
 2445              	.LBB910:
 226:../../libdaisy/src/hid/disp/display.h ****             {
 2446              		.loc 5 226 40 is_stmt 1 view .LVU658
 2447 0016 9942     		cmp	r1, r3
 2448 0018 2ED8     		bhi	.L150
 2449 001a 9946     		mov	r9, r3
 2450              	.LVL163:
 2451              	.L154:
 2452              	.LBB911:
 228:../../libdaisy/src/hid/disp/display.h ****                 {
 2453              		.loc 5 228 44 view .LVU659
 2454 001c A242     		cmp	r2, r4
 2455 001e 28D8     		bhi	.L157
 2456              	.LBB912:
 2457              	.LBB913:
 2458              	.LBB914:
 241:../../libdaisy/src/dev/oled_ssd130x.h ****             return;
ARM GAS  C:\Users\VINCIU~1\AppData\Local\Temp\ccF8ydZb.s 			page 78


 2459              		.loc 6 241 14 is_stmt 0 view .LVU660
 2460 0020 7F29     		cmp	r1, #127
 2461 0022 1646     		mov	r6, r2
 2462 0024 94BF     		ite	ls
 2463 0026 0023     		movls	r3, #0
 2464 0028 0123     		movhi	r3, #1
 2465 002a 08E0     		b	.L158
 2466              	.LVL164:
 2467              	.L241:
 244:../../libdaisy/src/dev/oled_ssd130x.h ****         else
 2468              		.loc 6 244 42 view .LVU661
 2469 002c 9CF81480 		ldrb	r8, [ip, #20]	@ zero_extendqisi2
 2470 0030 4EEA080E 		orr	lr, lr, r8
 2471 0034 8CF814E0 		strb	lr, [ip, #20]
 2472              	.LVL165:
 2473              	.L155:
 244:../../libdaisy/src/dev/oled_ssd130x.h ****         else
 2474              		.loc 6 244 42 view .LVU662
 2475              	.LBE914:
 2476              	.LBE913:
 2477              	.LBE912:
 228:../../libdaisy/src/hid/disp/display.h ****                 {
 2478              		.loc 5 228 17 is_stmt 1 view .LVU663
 2479 0038 0136     		adds	r6, r6, #1
 2480              	.LVL166:
 228:../../libdaisy/src/hid/disp/display.h ****                 {
 2481              		.loc 5 228 44 view .LVU664
 2482 003a B442     		cmp	r4, r6
 2483 003c 19D3     		bcc	.L157
 2484              	.L158:
 2485              	.LVL167:
 2486              	.LBB928:
 2487              	.LBI912:
  41:../../libdaisy/src/hid/disp/oled_display.h ****     {
 2488              		.loc 1 41 10 view .LVU665
 2489              	.LBB925:
 2490              	.LBI913:
 239:../../libdaisy/src/dev/oled_ssd130x.h ****     {
 2491              		.loc 6 239 10 view .LVU666
 2492              	.LBB922:
 241:../../libdaisy/src/dev/oled_ssd130x.h ****             return;
 2493              		.loc 6 241 9 is_stmt 0 view .LVU667
 2494 003e 3F2E     		cmp	r6, #63
 2495 0040 FAD8     		bhi	.L155
 241:../../libdaisy/src/dev/oled_ssd130x.h ****             return;
 2496              		.loc 6 241 9 view .LVU668
 2497 0042 002B     		cmp	r3, #0
 2498 0044 F8D1     		bne	.L155
 2499              	.LVL168:
 2500              	.LBB915:
 2501              	.LBI915:
 239:../../libdaisy/src/dev/oled_ssd130x.h ****     {
 2502              		.loc 6 239 10 is_stmt 1 view .LVU669
 239:../../libdaisy/src/dev/oled_ssd130x.h ****     {
 2503              		.loc 6 239 10 is_stmt 0 view .LVU670
 2504              	.LBE915:
 244:../../libdaisy/src/dev/oled_ssd130x.h ****         else
ARM GAS  C:\Users\VINCIU~1\AppData\Local\Temp\ccF8ydZb.s 			page 79


 2505              		.loc 6 244 28 view .LVU671
 2506 0046 4FEAD60C 		lsr	ip, r6, #3
 244:../../libdaisy/src/dev/oled_ssd130x.h ****         else
 2507              		.loc 6 244 54 view .LVU672
 2508 004a 06F0070E 		and	lr, r6, #7
 244:../../libdaisy/src/dev/oled_ssd130x.h ****         else
 2509              		.loc 6 244 48 view .LVU673
 2510 004e 4FF00108 		mov	r8, #1
 244:../../libdaisy/src/dev/oled_ssd130x.h ****         else
 2511              		.loc 6 244 42 view .LVU674
 2512 0052 01EBCC1C 		add	ip, r1, ip, lsl #7
 244:../../libdaisy/src/dev/oled_ssd130x.h ****         else
 2513              		.loc 6 244 48 view .LVU675
 2514 0056 08FA0EFE 		lsl	lr, r8, lr
 244:../../libdaisy/src/dev/oled_ssd130x.h ****         else
 2515              		.loc 6 244 42 view .LVU676
 2516 005a 8444     		add	ip, ip, r0
 243:../../libdaisy/src/dev/oled_ssd130x.h ****             buffer_[x + (y / 8) * width] |= (1 << (y % 8));
 2517              		.loc 6 243 9 view .LVU677
 2518 005c 002D     		cmp	r5, #0
 2519 005e E5D1     		bne	.L241
 2520              	.LBB919:
 2521              	.LBB916:
 246:../../libdaisy/src/dev/oled_ssd130x.h ****     }
 2522              		.loc 6 246 42 view .LVU678
 2523 0060 9CF814B0 		ldrb	fp, [ip, #20]	@ zero_extendqisi2
 2524              	.LBE916:
 2525              	.LBE919:
 2526              	.LBE922:
 2527              	.LBE925:
 2528              	.LBE928:
 228:../../libdaisy/src/hid/disp/display.h ****                 {
 2529              		.loc 5 228 17 view .LVU679
 2530 0064 0136     		adds	r6, r6, #1
 2531              	.LVL169:
 2532              	.LBB929:
 2533              	.LBB926:
 2534              	.LBB923:
 2535              	.LBB920:
 2536              	.LBB917:
 246:../../libdaisy/src/dev/oled_ssd130x.h ****     }
 2537              		.loc 6 246 42 view .LVU680
 2538 0066 2BEA0E0A 		bic	r10, fp, lr
 2539              	.LBE917:
 2540              	.LBE920:
 2541              	.LBE923:
 2542              	.LBE926:
 2543              	.LBE929:
 228:../../libdaisy/src/hid/disp/display.h ****                 {
 2544              		.loc 5 228 44 view .LVU681
 2545 006a B442     		cmp	r4, r6
 2546              	.LBB930:
 2547              	.LBB927:
 2548              	.LBB924:
 2549              	.LBB921:
 2550              	.LBB918:
 246:../../libdaisy/src/dev/oled_ssd130x.h ****     }
ARM GAS  C:\Users\VINCIU~1\AppData\Local\Temp\ccF8ydZb.s 			page 80


 2551              		.loc 6 246 42 view .LVU682
 2552 006c 8CF814A0 		strb	r10, [ip, #20]
 2553              	.LVL170:
 246:../../libdaisy/src/dev/oled_ssd130x.h ****     }
 2554              		.loc 6 246 42 view .LVU683
 2555              	.LBE918:
 2556              	.LBE921:
 2557              	.LBE924:
 2558              	.LBE927:
 2559              	.LBE930:
 228:../../libdaisy/src/hid/disp/display.h ****                 {
 2560              		.loc 5 228 17 is_stmt 1 view .LVU684
 228:../../libdaisy/src/hid/disp/display.h ****                 {
 2561              		.loc 5 228 44 view .LVU685
 2562 0070 E5D2     		bcs	.L158
 2563              	.LVL171:
 2564              	.L157:
 228:../../libdaisy/src/hid/disp/display.h ****                 {
 2565              		.loc 5 228 44 is_stmt 0 view .LVU686
 2566              	.LBE911:
 226:../../libdaisy/src/hid/disp/display.h ****             {
 2567              		.loc 5 226 13 is_stmt 1 view .LVU687
 2568 0072 0131     		adds	r1, r1, #1
 2569              	.LVL172:
 226:../../libdaisy/src/hid/disp/display.h ****             {
 2570              		.loc 5 226 40 view .LVU688
 2571 0074 8945     		cmp	r9, r1
 2572 0076 D1D2     		bcs	.L154
 2573              	.LVL173:
 2574              	.L150:
 226:../../libdaisy/src/hid/disp/display.h ****             {
 2575              		.loc 5 226 40 is_stmt 0 view .LVU689
 2576              	.LBE910:
 2577              	.LBE909:
 241:../../libdaisy/src/hid/disp/display.h **** 
 2578              		.loc 5 241 5 view .LVU690
 2579 0078 07B0     		add	sp, sp, #28
 2580              		.cfi_remember_state
 2581              		.cfi_def_cfa_offset 36
 2582              		@ sp needed
 2583 007a BDE8F08F 		pop	{r4, r5, r6, r7, r8, r9, r10, fp, pc}
 2584              	.LVL174:
 2585              	.L151:
 2586              		.cfi_restore_state
 2587              	.LBB931:
 2588              	.LBB788:
 2589              	.LBI788:
 181:../../libdaisy/src/hid/disp/display.h ****                   uint_fast8_t y1,
 2590              		.loc 5 181 10 is_stmt 1 view .LVU691
 2591              	.LBB789:
 187:../../libdaisy/src/hid/disp/display.h ****         int_fast16_t deltaY = abs((int_fast16_t)y2 - (int_fast16_t)y1);
 2592              		.loc 5 187 52 is_stmt 0 view .LVU692
 2593 007e A3EB0108 		sub	r8, r3, r1
 187:../../libdaisy/src/hid/disp/display.h ****         int_fast16_t deltaY = abs((int_fast16_t)y2 - (int_fast16_t)y1);
 2594              		.loc 5 187 22 view .LVU693
 2595 0082 B8F1000F 		cmp	r8, #0
 2596 0086 B8BF     		it	lt
ARM GAS  C:\Users\VINCIU~1\AppData\Local\Temp\ccF8ydZb.s 			page 81


 2597 0088 C8F10008 		rsblt	r8, r8, #0
 2598              	.LVL175:
 189:../../libdaisy/src/hid/disp/display.h ****         int_fast16_t signY  = ((y1 < y2) ? 1 : -1);
 2599              		.loc 5 189 42 view .LVU694
 2600 008c 9942     		cmp	r1, r3
 2601 008e C0F04E81 		bcc	.L159
 2602              	.LVL176:
 2603              	.LBB790:
 2604              	.LBI790:
  41:../../libdaisy/src/hid/disp/oled_display.h ****     {
 2605              		.loc 1 41 10 is_stmt 1 view .LVU695
 2606              	.LBB791:
 2607              	.LBI791:
 239:../../libdaisy/src/dev/oled_ssd130x.h ****     {
 2608              		.loc 6 239 10 view .LVU696
 2609              	.LBB792:
 241:../../libdaisy/src/dev/oled_ssd130x.h ****             return;
 2610              		.loc 6 241 14 is_stmt 0 view .LVU697
 2611 0092 7F2B     		cmp	r3, #127
 2612              	.LBE792:
 2613              	.LBE791:
 2614              	.LBE790:
 189:../../libdaisy/src/hid/disp/display.h ****         int_fast16_t signY  = ((y1 < y2) ? 1 : -1);
 2615              		.loc 5 189 42 view .LVU698
 2616 0094 4FF0FF3A 		mov	r10, #-1
 2617              	.LBB803:
 2618              	.LBB799:
 2619              	.LBB795:
 241:../../libdaisy/src/dev/oled_ssd130x.h ****             return;
 2620              		.loc 6 241 14 view .LVU699
 2621 0098 94BF     		ite	ls
 2622 009a 0026     		movls	r6, #0
 2623 009c 0126     		movhi	r6, #1
 241:../../libdaisy/src/dev/oled_ssd130x.h ****             return;
 2624              		.loc 6 241 28 view .LVU700
 2625 009e 3F2A     		cmp	r2, #63
 241:../../libdaisy/src/dev/oled_ssd130x.h ****             return;
 2626              		.loc 6 241 14 view .LVU701
 2627 00a0 0096     		str	r6, [sp]
 241:../../libdaisy/src/dev/oled_ssd130x.h ****             return;
 2628              		.loc 6 241 28 view .LVU702
 2629 00a2 94BF     		ite	ls
 2630 00a4 0027     		movls	r7, #0
 2631 00a6 0127     		movhi	r7, #1
 2632 00a8 0297     		str	r7, [sp, #8]
 241:../../libdaisy/src/dev/oled_ssd130x.h ****             return;
 2633              		.loc 6 241 9 view .LVU703
 2634 00aa A6B9     		cbnz	r6, .L160
 2635 00ac 9FB9     		cbnz	r7, .L160
 2636              	.LVL177:
 2637              	.L201:
 244:../../libdaisy/src/dev/oled_ssd130x.h ****         else
 2638              		.loc 6 244 28 view .LVU704
 2639 00ae D608     		lsrs	r6, r2, #3
 244:../../libdaisy/src/dev/oled_ssd130x.h ****         else
 2640              		.loc 6 244 54 view .LVU705
 2641 00b0 02F0070C 		and	ip, r2, #7
ARM GAS  C:\Users\VINCIU~1\AppData\Local\Temp\ccF8ydZb.s 			page 82


 244:../../libdaisy/src/dev/oled_ssd130x.h ****         else
 2642              		.loc 6 244 48 view .LVU706
 2643 00b4 0127     		movs	r7, #1
 244:../../libdaisy/src/dev/oled_ssd130x.h ****         else
 2644              		.loc 6 244 42 view .LVU707
 2645 00b6 03EBC616 		add	r6, r3, r6, lsl #7
 2646 00ba 0644     		add	r6, r6, r0
 243:../../libdaisy/src/dev/oled_ssd130x.h ****             buffer_[x + (y / 8) * width] |= (1 << (y % 8));
 2647              		.loc 6 243 9 view .LVU708
 2648 00bc 002D     		cmp	r5, #0
 2649 00be 00F09481 		beq	.L161
 244:../../libdaisy/src/dev/oled_ssd130x.h ****         else
 2650              		.loc 6 244 48 view .LVU709
 2651 00c2 07FA0CF7 		lsl	r7, r7, ip
 244:../../libdaisy/src/dev/oled_ssd130x.h ****         else
 2652              		.loc 6 244 42 view .LVU710
 2653 00c6 96F814C0 		ldrb	ip, [r6, #20]	@ zero_extendqisi2
 2654 00ca 47EA0C07 		orr	r7, r7, ip
 2655 00ce 3775     		strb	r7, [r6, #20]
 2656 00d0 0026     		movs	r6, #0
 2657 00d2 0296     		str	r6, [sp, #8]
 2658 00d4 0096     		str	r6, [sp]
 2659              	.L160:
 2660              	.LVL178:
 244:../../libdaisy/src/dev/oled_ssd130x.h ****         else
 2661              		.loc 6 244 42 view .LVU711
 2662              	.LBE795:
 2663              	.LBE799:
 2664              	.LBE803:
 199:../../libdaisy/src/hid/disp/display.h ****         {
 2665              		.loc 5 199 26 is_stmt 1 view .LVU712
 2666 00d6 9942     		cmp	r1, r3
 2667 00d8 00F09781 		beq	.L242
 2668              	.L163:
 2669              	.LVL179:
 187:../../libdaisy/src/hid/disp/display.h ****         int_fast16_t deltaY = abs((int_fast16_t)y2 - (int_fast16_t)y1);
 2670              		.loc 5 187 22 is_stmt 0 view .LVU713
 2671 00dc 4646     		mov	r6, r8
 2672 00de 9446     		mov	ip, r2
 2673 00e0 8E46     		mov	lr, r1
 2674              	.LVL180:
 2675              	.L165:
 2676              	.LBB804:
 2677              	.LBI804:
  41:../../libdaisy/src/hid/disp/oled_display.h ****     {
 2678              		.loc 1 41 10 is_stmt 1 view .LVU714
 2679              	.LBB805:
 2680              	.LBI805:
 239:../../libdaisy/src/dev/oled_ssd130x.h ****     {
 2681              		.loc 6 239 10 view .LVU715
 2682              	.LBB806:
 241:../../libdaisy/src/dev/oled_ssd130x.h ****             return;
 2683              		.loc 6 241 9 is_stmt 0 view .LVU716
 2684 00e2 BEF17F0F 		cmp	lr, #127
 2685 00e6 16D8     		bhi	.L166
 2686 00e8 BCF13F0F 		cmp	ip, #63
 2687 00ec 13D8     		bhi	.L166
ARM GAS  C:\Users\VINCIU~1\AppData\Local\Temp\ccF8ydZb.s 			page 83


 244:../../libdaisy/src/dev/oled_ssd130x.h ****         else
 2688              		.loc 6 244 28 view .LVU717
 2689 00ee 4FEADC07 		lsr	r7, ip, #3
 244:../../libdaisy/src/dev/oled_ssd130x.h ****         else
 2690              		.loc 6 244 54 view .LVU718
 2691 00f2 0CF0070B 		and	fp, ip, #7
 244:../../libdaisy/src/dev/oled_ssd130x.h ****         else
 2692              		.loc 6 244 48 view .LVU719
 2693 00f6 4FF00109 		mov	r9, #1
 244:../../libdaisy/src/dev/oled_ssd130x.h ****         else
 2694              		.loc 6 244 42 view .LVU720
 2695 00fa 0EEBC717 		add	r7, lr, r7, lsl #7
 2696 00fe 0744     		add	r7, r7, r0
 243:../../libdaisy/src/dev/oled_ssd130x.h ****             buffer_[x + (y / 8) * width] |= (1 << (y % 8));
 2697              		.loc 6 243 9 view .LVU721
 2698 0100 002D     		cmp	r5, #0
 2699 0102 00F03981 		beq	.L167
 244:../../libdaisy/src/dev/oled_ssd130x.h ****         else
 2700              		.loc 6 244 48 view .LVU722
 2701 0106 09FA0BF9 		lsl	r9, r9, fp
 244:../../libdaisy/src/dev/oled_ssd130x.h ****         else
 2702              		.loc 6 244 42 view .LVU723
 2703 010a 97F814B0 		ldrb	fp, [r7, #20]	@ zero_extendqisi2
 2704 010e 49EA0B09 		orr	r9, r9, fp
 2705 0112 87F81490 		strb	r9, [r7, #20]
 2706              	.L166:
 2707              	.LVL181:
 244:../../libdaisy/src/dev/oled_ssd130x.h ****         else
 2708              		.loc 6 244 42 view .LVU724
 2709              	.LBE806:
 2710              	.LBE805:
 2711              	.LBE804:
 203:../../libdaisy/src/hid/disp/display.h ****             {
 2712              		.loc 5 203 13 view .LVU725
 2713 0116 7700     		lsls	r7, r6, #1
 2714              	.LVL182:
 206:../../libdaisy/src/hid/disp/display.h ****             }
 2715              		.loc 5 206 20 view .LVU726
 2716 0118 18BF     		it	ne
 2717 011a D644     		addne	lr, lr, r10
 2718              	.LVL183:
 209:../../libdaisy/src/hid/disp/display.h ****             {
 2719              		.loc 5 209 13 view .LVU727
 2720 011c B845     		cmp	r8, r7
 2721 011e 02DD     		ble	.L169
 211:../../libdaisy/src/hid/disp/display.h ****                 y1 += signY;
 2722              		.loc 5 211 23 view .LVU728
 2723 0120 4644     		add	r6, r6, r8
 2724              	.LVL184:
 212:../../libdaisy/src/hid/disp/display.h ****             }
 2725              		.loc 5 212 20 view .LVU729
 2726 0122 0CF1FF3C 		add	ip, ip, #-1
 2727              	.LVL185:
 2728              	.L169:
 199:../../libdaisy/src/hid/disp/display.h ****         {
 2729              		.loc 5 199 26 is_stmt 1 view .LVU730
 2730 0126 7345     		cmp	r3, lr
ARM GAS  C:\Users\VINCIU~1\AppData\Local\Temp\ccF8ydZb.s 			page 84


 2731 0128 DBD1     		bne	.L165
 199:../../libdaisy/src/hid/disp/display.h ****         {
 2732              		.loc 5 199 26 is_stmt 0 view .LVU731
 2733 012a 6245     		cmp	r2, ip
 2734 012c D9D1     		bne	.L165
 2735 012e 0026     		movs	r6, #0
 2736              	.LVL186:
 199:../../libdaisy/src/hid/disp/display.h ****         {
 2737              		.loc 5 199 26 view .LVU732
 2738 0130 0496     		str	r6, [sp, #16]
 2739              	.LVL187:
 2740              	.L162:
 199:../../libdaisy/src/hid/disp/display.h ****         {
 2741              		.loc 5 199 26 view .LVU733
 2742              	.LBE789:
 2743              	.LBE788:
 2744              	.LBB819:
 2745              	.LBI819:
 181:../../libdaisy/src/hid/disp/display.h ****                   uint_fast8_t y1,
 2746              		.loc 5 181 10 is_stmt 1 view .LVU734
 2747              	.LBB820:
 188:../../libdaisy/src/hid/disp/display.h ****         int_fast16_t signX  = ((x1 < x2) ? 1 : -1);
 2748              		.loc 5 188 52 is_stmt 0 view .LVU735
 2749 0132 A4EB0209 		sub	r9, r4, r2
 2750              	.LBB821:
 2751              	.LBB822:
 2752              	.LBB823:
 241:../../libdaisy/src/dev/oled_ssd130x.h ****             return;
 2753              		.loc 6 241 9 view .LVU736
 2754 0136 009F     		ldr	r7, [sp]
 2755              	.LBE823:
 2756              	.LBE822:
 2757              	.LBE821:
 188:../../libdaisy/src/hid/disp/display.h ****         int_fast16_t signX  = ((x1 < x2) ? 1 : -1);
 2758              		.loc 5 188 22 view .LVU737
 2759 0138 B9F1000F 		cmp	r9, #0
 2760 013c B8BF     		it	lt
 2761 013e C9F10009 		rsblt	r9, r9, #0
 2762              	.LVL188:
 2763              	.LBB838:
 2764              	.LBB832:
 2765              	.LBB826:
 241:../../libdaisy/src/dev/oled_ssd130x.h ****             return;
 2766              		.loc 6 241 28 view .LVU738
 2767 0142 3F2C     		cmp	r4, #63
 2768 0144 94BF     		ite	ls
 2769 0146 0026     		movls	r6, #0
 2770 0148 0126     		movhi	r6, #1
 2771              	.LBE826:
 2772              	.LBE832:
 2773              	.LBE838:
 190:../../libdaisy/src/hid/disp/display.h ****         int_fast16_t error  = deltaX - deltaY;
 2774              		.loc 5 190 42 view .LVU739
 2775 014a A242     		cmp	r2, r4
 191:../../libdaisy/src/hid/disp/display.h ****         int_fast16_t error2;
 2776              		.loc 5 191 22 view .LVU740
 2777 014c C9F10008 		rsb	r8, r9, #0
ARM GAS  C:\Users\VINCIU~1\AppData\Local\Temp\ccF8ydZb.s 			page 85


 2778              	.LVL189:
 2779              	.LBB839:
 2780              	.LBI821:
  41:../../libdaisy/src/hid/disp/oled_display.h ****     {
 2781              		.loc 1 41 10 is_stmt 1 view .LVU741
 2782              	.LBB833:
 2783              	.LBI822:
 239:../../libdaisy/src/dev/oled_ssd130x.h ****     {
 2784              		.loc 6 239 10 view .LVU742
 2785              	.LBB827:
 241:../../libdaisy/src/dev/oled_ssd130x.h ****             return;
 2786              		.loc 6 241 28 is_stmt 0 view .LVU743
 2787 0150 0396     		str	r6, [sp, #12]
 2788              	.LBE827:
 2789              	.LBE833:
 2790              	.LBE839:
 190:../../libdaisy/src/hid/disp/display.h ****         int_fast16_t error  = deltaX - deltaY;
 2791              		.loc 5 190 42 view .LVU744
 2792 0152 C0F02381 		bcc	.L170
 2793              	.LVL190:
 2794              	.LBB840:
 2795              	.LBB834:
 2796              	.LBB828:
 241:../../libdaisy/src/dev/oled_ssd130x.h ****             return;
 2797              		.loc 6 241 9 view .LVU745
 2798 0156 002F     		cmp	r7, #0
 2799 0158 40F05081 		bne	.L205
 2800 015c 002E     		cmp	r6, #0
 2801 015e 40F04D81 		bne	.L205
 2802              	.LBE828:
 2803              	.LBE834:
 2804              	.LBE840:
 190:../../libdaisy/src/hid/disp/display.h ****         int_fast16_t error  = deltaX - deltaY;
 2805              		.loc 5 190 42 view .LVU746
 2806 0162 4FF0FF36 		mov	r6, #-1
 2807 0166 0096     		str	r6, [sp]
 2808              	.LBB841:
 2809              	.LBB835:
 2810              	.LBB829:
 244:../../libdaisy/src/dev/oled_ssd130x.h ****         else
 2811              		.loc 6 244 28 view .LVU747
 2812 0168 E608     		lsrs	r6, r4, #3
 244:../../libdaisy/src/dev/oled_ssd130x.h ****         else
 2813              		.loc 6 244 42 view .LVU748
 2814 016a 03EBC616 		add	r6, r3, r6, lsl #7
 2815 016e 0644     		add	r6, r6, r0
 243:../../libdaisy/src/dev/oled_ssd130x.h ****             buffer_[x + (y / 8) * width] |= (1 << (y % 8));
 2816              		.loc 6 243 9 view .LVU749
 2817 0170 002D     		cmp	r5, #0
 2818 0172 00F01E81 		beq	.L172
 2819              	.LVL191:
 2820              	.L244:
 244:../../libdaisy/src/dev/oled_ssd130x.h ****         else
 2821              		.loc 6 244 48 view .LVU750
 2822 0176 4FF0010C 		mov	ip, #1
 244:../../libdaisy/src/dev/oled_ssd130x.h ****         else
 2823              		.loc 6 244 54 view .LVU751
ARM GAS  C:\Users\VINCIU~1\AppData\Local\Temp\ccF8ydZb.s 			page 86


 2824 017a 04F00707 		and	r7, r4, #7
 244:../../libdaisy/src/dev/oled_ssd130x.h ****         else
 2825              		.loc 6 244 48 view .LVU752
 2826 017e 0CFA07F7 		lsl	r7, ip, r7
 244:../../libdaisy/src/dev/oled_ssd130x.h ****         else
 2827              		.loc 6 244 42 view .LVU753
 2828 0182 96F814C0 		ldrb	ip, [r6, #20]	@ zero_extendqisi2
 2829 0186 47EA0C07 		orr	r7, r7, ip
 2830 018a 3775     		strb	r7, [r6, #20]
 2831 018c 0026     		movs	r6, #0
 2832 018e 0396     		str	r6, [sp, #12]
 2833              	.L171:
 2834              	.LVL192:
 244:../../libdaisy/src/dev/oled_ssd130x.h ****         else
 2835              		.loc 6 244 42 view .LVU754
 2836              	.LBE829:
 2837              	.LBE835:
 2838              	.LBE841:
 199:../../libdaisy/src/hid/disp/display.h ****         {
 2839              		.loc 5 199 26 is_stmt 1 view .LVU755
 2840 0190 A242     		cmp	r2, r4
 2841 0192 00F03D81 		beq	.L243
 2842              	.L174:
 2843              	.LVL193:
 190:../../libdaisy/src/hid/disp/display.h ****         int_fast16_t error  = deltaX - deltaY;
 2844              		.loc 5 190 42 is_stmt 0 view .LVU756
 2845 0196 C446     		mov	ip, r8
 2846 0198 1646     		mov	r6, r2
 2847 019a 1F46     		mov	r7, r3
 2848 019c 0592     		str	r2, [sp, #20]
 2849              	.LVL194:
 2850              	.L176:
 2851              	.LBB842:
 2852              	.LBI842:
  41:../../libdaisy/src/hid/disp/oled_display.h ****     {
 2853              		.loc 1 41 10 is_stmt 1 view .LVU757
 2854              	.LBB843:
 2855              	.LBI843:
 239:../../libdaisy/src/dev/oled_ssd130x.h ****     {
 2856              		.loc 6 239 10 view .LVU758
 2857              	.LBB844:
 241:../../libdaisy/src/dev/oled_ssd130x.h ****             return;
 2858              		.loc 6 241 9 is_stmt 0 view .LVU759
 2859 019e 7F2F     		cmp	r7, #127
 2860 01a0 15D8     		bhi	.L177
 2861 01a2 3F2E     		cmp	r6, #63
 2862 01a4 13D8     		bhi	.L177
 244:../../libdaisy/src/dev/oled_ssd130x.h ****         else
 2863              		.loc 6 244 28 view .LVU760
 2864 01a6 4FEAD60E 		lsr	lr, r6, #3
 244:../../libdaisy/src/dev/oled_ssd130x.h ****         else
 2865              		.loc 6 244 54 view .LVU761
 2866 01aa 06F0070B 		and	fp, r6, #7
 244:../../libdaisy/src/dev/oled_ssd130x.h ****         else
 2867              		.loc 6 244 48 view .LVU762
 2868 01ae 4FF0010A 		mov	r10, #1
 244:../../libdaisy/src/dev/oled_ssd130x.h ****         else
ARM GAS  C:\Users\VINCIU~1\AppData\Local\Temp\ccF8ydZb.s 			page 87


 2869              		.loc 6 244 42 view .LVU763
 2870 01b2 07EBCE1E 		add	lr, r7, lr, lsl #7
 2871 01b6 8644     		add	lr, lr, r0
 243:../../libdaisy/src/dev/oled_ssd130x.h ****             buffer_[x + (y / 8) * width] |= (1 << (y % 8));
 2872              		.loc 6 243 9 view .LVU764
 2873 01b8 002D     		cmp	r5, #0
 2874 01ba 00F0E680 		beq	.L178
 244:../../libdaisy/src/dev/oled_ssd130x.h ****         else
 2875              		.loc 6 244 48 view .LVU765
 2876 01be 0AFA0BFA 		lsl	r10, r10, fp
 244:../../libdaisy/src/dev/oled_ssd130x.h ****         else
 2877              		.loc 6 244 42 view .LVU766
 2878 01c2 9EF814B0 		ldrb	fp, [lr, #20]	@ zero_extendqisi2
 2879 01c6 4AEA0B0A 		orr	r10, r10, fp
 2880 01ca 8EF814A0 		strb	r10, [lr, #20]
 2881              	.L177:
 2882              	.LVL195:
 244:../../libdaisy/src/dev/oled_ssd130x.h ****         else
 2883              		.loc 6 244 42 view .LVU767
 2884              	.LBE844:
 2885              	.LBE843:
 2886              	.LBE842:
 203:../../libdaisy/src/hid/disp/display.h ****             {
 2887              		.loc 5 203 13 view .LVU768
 2888 01ce B8EB4C0F 		cmp	r8, ip, lsl #1
 202:../../libdaisy/src/hid/disp/display.h ****             if(error2 > -deltaY)
 2889              		.loc 5 202 20 view .LVU769
 2890 01d2 4FEA4C0E 		lsl	lr, ip, #1
 2891              	.LVL196:
 203:../../libdaisy/src/hid/disp/display.h ****             {
 2892              		.loc 5 203 13 view .LVU770
 2893 01d6 02DA     		bge	.L179
 205:../../libdaisy/src/hid/disp/display.h ****                 x1 += signX;
 2894              		.loc 5 205 23 view .LVU771
 2895 01d8 ACEB090C 		sub	ip, ip, r9
 2896              	.LVL197:
 206:../../libdaisy/src/hid/disp/display.h ****             }
 2897              		.loc 5 206 20 view .LVU772
 2898 01dc 013F     		subs	r7, r7, #1
 2899              	.LVL198:
 2900              	.L179:
 209:../../libdaisy/src/hid/disp/display.h ****             {
 2901              		.loc 5 209 13 view .LVU773
 2902 01de BEF1000F 		cmp	lr, #0
 2903 01e2 01D0     		beq	.L180
 212:../../libdaisy/src/hid/disp/display.h ****             }
 2904              		.loc 5 212 20 view .LVU774
 2905 01e4 009A     		ldr	r2, [sp]
 2906 01e6 1644     		add	r6, r6, r2
 2907              	.LVL199:
 2908              	.L180:
 199:../../libdaisy/src/hid/disp/display.h ****         {
 2909              		.loc 5 199 26 is_stmt 1 view .LVU775
 2910 01e8 BB42     		cmp	r3, r7
 2911 01ea D8D1     		bne	.L176
 199:../../libdaisy/src/hid/disp/display.h ****         {
 2912              		.loc 5 199 26 is_stmt 0 view .LVU776
ARM GAS  C:\Users\VINCIU~1\AppData\Local\Temp\ccF8ydZb.s 			page 88


 2913 01ec B442     		cmp	r4, r6
 2914 01ee D6D1     		bne	.L176
 2915 01f0 059A     		ldr	r2, [sp, #20]
 2916              	.LVL200:
 2917              	.L173:
 199:../../libdaisy/src/hid/disp/display.h ****         {
 2918              		.loc 5 199 26 view .LVU777
 2919              	.LBE820:
 2920              	.LBE819:
 2921              	.LBB855:
 2922              	.LBI855:
 181:../../libdaisy/src/hid/disp/display.h ****                   uint_fast8_t y1,
 2923              		.loc 5 181 10 is_stmt 1 view .LVU778
 2924              	.LBB856:
 187:../../libdaisy/src/hid/disp/display.h ****         int_fast16_t deltaY = abs((int_fast16_t)y2 - (int_fast16_t)y1);
 2925              		.loc 5 187 52 is_stmt 0 view .LVU779
 2926 01f2 A1EB030E 		sub	lr, r1, r3
 187:../../libdaisy/src/hid/disp/display.h ****         int_fast16_t deltaY = abs((int_fast16_t)y2 - (int_fast16_t)y1);
 2927              		.loc 5 187 22 view .LVU780
 2928 01f6 BEF1000F 		cmp	lr, #0
 2929 01fa B8BF     		it	lt
 2930 01fc CEF1000E 		rsblt	lr, lr, #0
 2931              	.LVL201:
 2932              	.LBB857:
 2933              	.LBB858:
 2934              	.LBB859:
 241:../../libdaisy/src/dev/oled_ssd130x.h ****             return;
 2935              		.loc 6 241 14 view .LVU781
 2936 0200 7F29     		cmp	r1, #127
 2937 0202 94BF     		ite	ls
 2938 0204 4FF0000A 		movls	r10, #0
 2939 0208 4FF0010A 		movhi	r10, #1
 2940              	.LBE859:
 2941              	.LBE858:
 2942              	.LBE857:
 189:../../libdaisy/src/hid/disp/display.h ****         int_fast16_t signY  = ((y1 < y2) ? 1 : -1);
 2943              		.loc 5 189 42 view .LVU782
 2944 020c 9942     		cmp	r1, r3
 2945 020e 8CBF     		ite	hi
 2946 0210 4FF00109 		movhi	r9, #1
 2947 0214 4FF0FF39 		movls	r9, #-1
 2948              	.LVL202:
 2949              	.LBB866:
 2950              	.LBI857:
  41:../../libdaisy/src/hid/disp/oled_display.h ****     {
 2951              		.loc 1 41 10 is_stmt 1 view .LVU783
 2952              	.LBB864:
 2953              	.LBI858:
 239:../../libdaisy/src/dev/oled_ssd130x.h ****     {
 2954              		.loc 6 239 10 view .LVU784
 2955              	.LBB862:
 241:../../libdaisy/src/dev/oled_ssd130x.h ****             return;
 2956              		.loc 6 241 9 is_stmt 0 view .LVU785
 2957 0218 BAF1000F 		cmp	r10, #0
 2958 021c 13D1     		bne	.L182
 2959 021e 039E     		ldr	r6, [sp, #12]
 2960 0220 8EB9     		cbnz	r6, .L182
ARM GAS  C:\Users\VINCIU~1\AppData\Local\Temp\ccF8ydZb.s 			page 89


 244:../../libdaisy/src/dev/oled_ssd130x.h ****         else
 2961              		.loc 6 244 28 view .LVU786
 2962 0222 E608     		lsrs	r6, r4, #3
 244:../../libdaisy/src/dev/oled_ssd130x.h ****         else
 2963              		.loc 6 244 42 view .LVU787
 2964 0224 01EBC616 		add	r6, r1, r6, lsl #7
 2965 0228 0644     		add	r6, r6, r0
 243:../../libdaisy/src/dev/oled_ssd130x.h ****             buffer_[x + (y / 8) * width] |= (1 << (y % 8));
 2966              		.loc 6 243 9 view .LVU788
 2967 022a 002D     		cmp	r5, #0
 2968 022c 00F0D380 		beq	.L183
 244:../../libdaisy/src/dev/oled_ssd130x.h ****         else
 2969              		.loc 6 244 48 view .LVU789
 2970 0230 4FF0010C 		mov	ip, #1
 244:../../libdaisy/src/dev/oled_ssd130x.h ****         else
 2971              		.loc 6 244 54 view .LVU790
 2972 0234 04F00707 		and	r7, r4, #7
 244:../../libdaisy/src/dev/oled_ssd130x.h ****         else
 2973              		.loc 6 244 48 view .LVU791
 2974 0238 0CFA07F7 		lsl	r7, ip, r7
 244:../../libdaisy/src/dev/oled_ssd130x.h ****         else
 2975              		.loc 6 244 42 view .LVU792
 2976 023c 96F814C0 		ldrb	ip, [r6, #20]	@ zero_extendqisi2
 2977 0240 47EA0C07 		orr	r7, r7, ip
 2978 0244 3775     		strb	r7, [r6, #20]
 2979              	.L182:
 2980              	.LVL203:
 244:../../libdaisy/src/dev/oled_ssd130x.h ****         else
 2981              		.loc 6 244 42 view .LVU793
 2982              	.LBE862:
 2983              	.LBE864:
 2984              	.LBE866:
 199:../../libdaisy/src/hid/disp/display.h ****         {
 2985              		.loc 5 199 26 is_stmt 1 view .LVU794
 2986 0246 049E     		ldr	r6, [sp, #16]
 2987 0248 26BB     		cbnz	r6, .L184
 187:../../libdaisy/src/hid/disp/display.h ****         int_fast16_t deltaY = abs((int_fast16_t)y2 - (int_fast16_t)y1);
 2988              		.loc 5 187 22 is_stmt 0 view .LVU795
 2989 024a 7746     		mov	r7, lr
 199:../../libdaisy/src/hid/disp/display.h ****         {
 2990              		.loc 5 199 26 view .LVU796
 2991 024c 2646     		mov	r6, r4
 2992              	.LVL204:
 2993              	.L185:
 2994              	.LBB867:
 2995              	.LBI867:
  41:../../libdaisy/src/hid/disp/oled_display.h ****     {
 2996              		.loc 1 41 10 is_stmt 1 view .LVU797
 2997              	.LBB868:
 2998              	.LBI868:
 239:../../libdaisy/src/dev/oled_ssd130x.h ****     {
 2999              		.loc 6 239 10 view .LVU798
 3000              	.LBB869:
 241:../../libdaisy/src/dev/oled_ssd130x.h ****             return;
 3001              		.loc 6 241 9 is_stmt 0 view .LVU799
 3002 024e 7F2B     		cmp	r3, #127
 3003 0250 14D8     		bhi	.L187
ARM GAS  C:\Users\VINCIU~1\AppData\Local\Temp\ccF8ydZb.s 			page 90


 241:../../libdaisy/src/dev/oled_ssd130x.h ****             return;
 3004              		.loc 6 241 9 view .LVU800
 3005 0252 3F2E     		cmp	r6, #63
 3006 0254 12D8     		bhi	.L187
 244:../../libdaisy/src/dev/oled_ssd130x.h ****         else
 3007              		.loc 6 244 28 view .LVU801
 3008 0256 4FEAD60C 		lsr	ip, r6, #3
 244:../../libdaisy/src/dev/oled_ssd130x.h ****         else
 3009              		.loc 6 244 54 view .LVU802
 3010 025a 06F0070B 		and	fp, r6, #7
 244:../../libdaisy/src/dev/oled_ssd130x.h ****         else
 3011              		.loc 6 244 48 view .LVU803
 3012 025e 4FF00108 		mov	r8, #1
 244:../../libdaisy/src/dev/oled_ssd130x.h ****         else
 3013              		.loc 6 244 42 view .LVU804
 3014 0262 03EBCC1C 		add	ip, r3, ip, lsl #7
 3015 0266 8444     		add	ip, ip, r0
 243:../../libdaisy/src/dev/oled_ssd130x.h ****             buffer_[x + (y / 8) * width] |= (1 << (y % 8));
 3016              		.loc 6 243 9 view .LVU805
 3017 0268 002D     		cmp	r5, #0
 3018 026a 73D0     		beq	.L188
 244:../../libdaisy/src/dev/oled_ssd130x.h ****         else
 3019              		.loc 6 244 48 view .LVU806
 3020 026c 08FA0BF8 		lsl	r8, r8, fp
 244:../../libdaisy/src/dev/oled_ssd130x.h ****         else
 3021              		.loc 6 244 42 view .LVU807
 3022 0270 9CF814B0 		ldrb	fp, [ip, #20]	@ zero_extendqisi2
 3023 0274 48EA0B08 		orr	r8, r8, fp
 3024 0278 8CF81480 		strb	r8, [ip, #20]
 3025              	.L187:
 3026              	.LVL205:
 244:../../libdaisy/src/dev/oled_ssd130x.h ****         else
 3027              		.loc 6 244 42 view .LVU808
 3028              	.LBE869:
 3029              	.LBE868:
 3030              	.LBE867:
 203:../../libdaisy/src/hid/disp/display.h ****             {
 3031              		.loc 5 203 13 view .LVU809
 3032 027c 5FEA470C 		lsls	ip, r7, #1
 3033              	.LVL206:
 206:../../libdaisy/src/hid/disp/display.h ****             }
 3034              		.loc 5 206 20 view .LVU810
 3035 0280 18BF     		it	ne
 3036 0282 4B44     		addne	r3, r3, r9
 3037              	.LVL207:
 209:../../libdaisy/src/hid/disp/display.h ****             {
 3038              		.loc 5 209 13 view .LVU811
 3039 0284 E645     		cmp	lr, ip
 3040 0286 01DD     		ble	.L190
 211:../../libdaisy/src/hid/disp/display.h ****                 y1 += signY;
 3041              		.loc 5 211 23 view .LVU812
 3042 0288 7744     		add	r7, r7, lr
 3043              	.LVL208:
 212:../../libdaisy/src/hid/disp/display.h ****             }
 3044              		.loc 5 212 20 view .LVU813
 3045 028a 013E     		subs	r6, r6, #1
 3046              	.LVL209:
ARM GAS  C:\Users\VINCIU~1\AppData\Local\Temp\ccF8ydZb.s 			page 91


 3047              	.L190:
 199:../../libdaisy/src/hid/disp/display.h ****         {
 3048              		.loc 5 199 26 is_stmt 1 view .LVU814
 3049 028c 9942     		cmp	r1, r3
 3050 028e DED1     		bne	.L185
 199:../../libdaisy/src/hid/disp/display.h ****         {
 3051              		.loc 5 199 26 is_stmt 0 view .LVU815
 3052 0290 B442     		cmp	r4, r6
 3053 0292 DCD1     		bne	.L185
 3054              	.LVL210:
 3055              	.L184:
 199:../../libdaisy/src/hid/disp/display.h ****         {
 3056              		.loc 5 199 26 view .LVU816
 3057              	.LBE856:
 3058              	.LBE855:
 3059              	.LBB878:
 3060              	.LBI878:
 181:../../libdaisy/src/hid/disp/display.h ****                   uint_fast8_t y1,
 3061              		.loc 5 181 10 is_stmt 1 view .LVU817
 3062              	.LBB879:
 188:../../libdaisy/src/hid/disp/display.h ****         int_fast16_t signX  = ((x1 < x2) ? 1 : -1);
 3063              		.loc 5 188 52 is_stmt 0 view .LVU818
 3064 0294 A2EB040E 		sub	lr, r2, r4
 188:../../libdaisy/src/hid/disp/display.h ****         int_fast16_t signX  = ((x1 < x2) ? 1 : -1);
 3065              		.loc 5 188 22 view .LVU819
 3066 0298 BEF1000F 		cmp	lr, #0
 3067 029c B8BF     		it	lt
 3068 029e CEF1000E 		rsblt	lr, lr, #0
 3069              	.LVL211:
 190:../../libdaisy/src/hid/disp/display.h ****         int_fast16_t error  = deltaX - deltaY;
 3070              		.loc 5 190 42 view .LVU820
 3071 02a2 A242     		cmp	r2, r4
 3072 02a4 8CBF     		ite	hi
 3073 02a6 4FF00108 		movhi	r8, #1
 3074 02aa 4FF0FF38 		movls	r8, #-1
 3075              	.LVL212:
 191:../../libdaisy/src/hid/disp/display.h ****         int_fast16_t error2;
 3076              		.loc 5 191 22 view .LVU821
 3077 02ae CEF1000C 		rsb	ip, lr, #0
 3078              	.LVL213:
 3079              	.LBB880:
 3080              	.LBI880:
  41:../../libdaisy/src/hid/disp/oled_display.h ****     {
 3081              		.loc 1 41 10 is_stmt 1 view .LVU822
 3082              	.LBB881:
 3083              	.LBI881:
 239:../../libdaisy/src/dev/oled_ssd130x.h ****     {
 3084              		.loc 6 239 10 view .LVU823
 3085              	.LBB882:
 241:../../libdaisy/src/dev/oled_ssd130x.h ****             return;
 3086              		.loc 6 241 9 is_stmt 0 view .LVU824
 3087 02b2 BAF1000F 		cmp	r10, #0
 3088 02b6 0ED1     		bne	.L192
 3089 02b8 029B     		ldr	r3, [sp, #8]
 3090 02ba 63B9     		cbnz	r3, .L192
 244:../../libdaisy/src/dev/oled_ssd130x.h ****         else
 3091              		.loc 6 244 28 view .LVU825
ARM GAS  C:\Users\VINCIU~1\AppData\Local\Temp\ccF8ydZb.s 			page 92


 3092 02bc D308     		lsrs	r3, r2, #3
 244:../../libdaisy/src/dev/oled_ssd130x.h ****         else
 3093              		.loc 6 244 54 view .LVU826
 3094 02be 02F00707 		and	r7, r2, #7
 244:../../libdaisy/src/dev/oled_ssd130x.h ****         else
 3095              		.loc 6 244 48 view .LVU827
 3096 02c2 0126     		movs	r6, #1
 244:../../libdaisy/src/dev/oled_ssd130x.h ****         else
 3097              		.loc 6 244 42 view .LVU828
 3098 02c4 01EBC313 		add	r3, r1, r3, lsl #7
 3099 02c8 0344     		add	r3, r3, r0
 243:../../libdaisy/src/dev/oled_ssd130x.h ****             buffer_[x + (y / 8) * width] |= (1 << (y % 8));
 3100              		.loc 6 243 9 view .LVU829
 3101 02ca 002D     		cmp	r5, #0
 3102 02cc 7CD0     		beq	.L193
 244:../../libdaisy/src/dev/oled_ssd130x.h ****         else
 3103              		.loc 6 244 48 view .LVU830
 3104 02ce BE40     		lsls	r6, r6, r7
 244:../../libdaisy/src/dev/oled_ssd130x.h ****         else
 3105              		.loc 6 244 42 view .LVU831
 3106 02d0 1F7D     		ldrb	r7, [r3, #20]	@ zero_extendqisi2
 3107 02d2 3E43     		orrs	r6, r6, r7
 3108 02d4 1E75     		strb	r6, [r3, #20]
 3109              	.L192:
 3110              	.LVL214:
 244:../../libdaisy/src/dev/oled_ssd130x.h ****         else
 3111              		.loc 6 244 42 view .LVU832
 3112              	.LBE882:
 3113              	.LBE881:
 3114              	.LBE880:
 199:../../libdaisy/src/hid/disp/display.h ****         {
 3115              		.loc 5 199 26 is_stmt 1 view .LVU833
 3116 02d6 019B     		ldr	r3, [sp, #4]
 3117 02d8 002B     		cmp	r3, #0
 3118 02da 7FF4CDAE 		bne	.L150
 3119 02de 6646     		mov	r6, ip
 3120 02e0 0B46     		mov	r3, r1
 3121              	.LVL215:
 3122              	.L194:
 3123              	.LBB887:
 3124              	.LBI887:
  41:../../libdaisy/src/hid/disp/oled_display.h ****     {
 3125              		.loc 1 41 10 view .LVU834
 3126              	.LBB888:
 3127              	.LBI888:
 239:../../libdaisy/src/dev/oled_ssd130x.h ****     {
 3128              		.loc 6 239 10 view .LVU835
 3129              	.LBB889:
 241:../../libdaisy/src/dev/oled_ssd130x.h ****             return;
 3130              		.loc 6 241 9 is_stmt 0 view .LVU836
 3131 02e2 7F2B     		cmp	r3, #127
 3132 02e4 12D8     		bhi	.L196
 241:../../libdaisy/src/dev/oled_ssd130x.h ****             return;
 3133              		.loc 6 241 9 view .LVU837
 3134 02e6 3F2C     		cmp	r4, #63
 3135 02e8 10D8     		bhi	.L196
 244:../../libdaisy/src/dev/oled_ssd130x.h ****         else
ARM GAS  C:\Users\VINCIU~1\AppData\Local\Temp\ccF8ydZb.s 			page 93


 3136              		.loc 6 244 28 view .LVU838
 3137 02ea E708     		lsrs	r7, r4, #3
 244:../../libdaisy/src/dev/oled_ssd130x.h ****         else
 3138              		.loc 6 244 54 view .LVU839
 3139 02ec 04F0070A 		and	r10, r4, #7
 244:../../libdaisy/src/dev/oled_ssd130x.h ****         else
 3140              		.loc 6 244 48 view .LVU840
 3141 02f0 4FF00109 		mov	r9, #1
 244:../../libdaisy/src/dev/oled_ssd130x.h ****         else
 3142              		.loc 6 244 42 view .LVU841
 3143 02f4 03EBC717 		add	r7, r3, r7, lsl #7
 3144 02f8 0744     		add	r7, r7, r0
 243:../../libdaisy/src/dev/oled_ssd130x.h ****             buffer_[x + (y / 8) * width] |= (1 << (y % 8));
 3145              		.loc 6 243 9 view .LVU842
 3146 02fa A5B3     		cbz	r5, .L197
 244:../../libdaisy/src/dev/oled_ssd130x.h ****         else
 3147              		.loc 6 244 48 view .LVU843
 3148 02fc 09FA0AF9 		lsl	r9, r9, r10
 244:../../libdaisy/src/dev/oled_ssd130x.h ****         else
 3149              		.loc 6 244 42 view .LVU844
 3150 0300 97F814A0 		ldrb	r10, [r7, #20]	@ zero_extendqisi2
 3151 0304 49EA0A09 		orr	r9, r9, r10
 3152 0308 87F81490 		strb	r9, [r7, #20]
 3153              	.L196:
 3154              	.LVL216:
 244:../../libdaisy/src/dev/oled_ssd130x.h ****         else
 3155              		.loc 6 244 42 view .LVU845
 3156              	.LBE889:
 3157              	.LBE888:
 3158              	.LBE887:
 203:../../libdaisy/src/hid/disp/display.h ****             {
 3159              		.loc 5 203 13 view .LVU846
 3160 030c BCEB460F 		cmp	ip, r6, lsl #1
 202:../../libdaisy/src/hid/disp/display.h ****             if(error2 > -deltaY)
 3161              		.loc 5 202 20 view .LVU847
 3162 0310 4FEA4607 		lsl	r7, r6, #1
 3163              	.LVL217:
 203:../../libdaisy/src/hid/disp/display.h ****             {
 3164              		.loc 5 203 13 view .LVU848
 3165 0314 02DA     		bge	.L198
 205:../../libdaisy/src/hid/disp/display.h ****                 x1 += signX;
 3166              		.loc 5 205 23 view .LVU849
 3167 0316 A6EB0E06 		sub	r6, r6, lr
 3168              	.LVL218:
 206:../../libdaisy/src/hid/disp/display.h ****             }
 3169              		.loc 5 206 20 view .LVU850
 3170 031a 013B     		subs	r3, r3, #1
 3171              	.LVL219:
 3172              	.L198:
 209:../../libdaisy/src/hid/disp/display.h ****             {
 3173              		.loc 5 209 13 view .LVU851
 3174 031c 07B1     		cbz	r7, .L199
 212:../../libdaisy/src/hid/disp/display.h ****             }
 3175              		.loc 5 212 20 view .LVU852
 3176 031e 4444     		add	r4, r4, r8
 3177              	.LVL220:
 3178              	.L199:
ARM GAS  C:\Users\VINCIU~1\AppData\Local\Temp\ccF8ydZb.s 			page 94


 199:../../libdaisy/src/hid/disp/display.h ****         {
 3179              		.loc 5 199 26 is_stmt 1 view .LVU853
 3180 0320 9942     		cmp	r1, r3
 3181 0322 DED1     		bne	.L194
 199:../../libdaisy/src/hid/disp/display.h ****         {
 3182              		.loc 5 199 26 is_stmt 0 view .LVU854
 3183 0324 A242     		cmp	r2, r4
 3184 0326 DCD1     		bne	.L194
 3185              	.LBE879:
 3186              	.LBE878:
 3187              	.LBE931:
 241:../../libdaisy/src/hid/disp/display.h **** 
 3188              		.loc 5 241 5 view .LVU855
 3189 0328 07B0     		add	sp, sp, #28
 3190              		.cfi_remember_state
 3191              		.cfi_def_cfa_offset 36
 3192              		@ sp needed
 3193 032a BDE8F08F 		pop	{r4, r5, r6, r7, r8, r9, r10, fp, pc}
 3194              	.LVL221:
 3195              	.L159:
 3196              		.cfi_restore_state
 3197              	.LBB932:
 3198              	.LBB898:
 3199              	.LBB815:
 3200              	.LBB811:
  41:../../libdaisy/src/hid/disp/oled_display.h ****     {
 3201              		.loc 1 41 10 is_stmt 1 view .LVU856
 3202              	.LBB800:
 239:../../libdaisy/src/dev/oled_ssd130x.h ****     {
 3203              		.loc 6 239 10 view .LVU857
 3204              	.LBB796:
 241:../../libdaisy/src/dev/oled_ssd130x.h ****             return;
 3205              		.loc 6 241 28 is_stmt 0 view .LVU858
 3206 032e 3F2A     		cmp	r2, #63
 3207              	.LBE796:
 3208              	.LBE800:
 3209              	.LBE811:
 189:../../libdaisy/src/hid/disp/display.h ****         int_fast16_t signY  = ((y1 < y2) ? 1 : -1);
 3210              		.loc 5 189 42 view .LVU859
 3211 0330 4FF0010A 		mov	r10, #1
 3212              	.LBB812:
 3213              	.LBB801:
 3214              	.LBB797:
 241:../../libdaisy/src/dev/oled_ssd130x.h ****             return;
 3215              		.loc 6 241 28 view .LVU860
 3216 0334 94BF     		ite	ls
 3217 0336 0026     		movls	r6, #0
 3218 0338 0126     		movhi	r6, #1
 241:../../libdaisy/src/dev/oled_ssd130x.h ****             return;
 3219              		.loc 6 241 14 view .LVU861
 3220 033a 7F2B     		cmp	r3, #127
 241:../../libdaisy/src/dev/oled_ssd130x.h ****             return;
 3221              		.loc 6 241 28 view .LVU862
 3222 033c 0296     		str	r6, [sp, #8]
 241:../../libdaisy/src/dev/oled_ssd130x.h ****             return;
 3223              		.loc 6 241 14 view .LVU863
 3224 033e 94BF     		ite	ls
ARM GAS  C:\Users\VINCIU~1\AppData\Local\Temp\ccF8ydZb.s 			page 95


 3225 0340 0027     		movls	r7, #0
 3226 0342 0127     		movhi	r7, #1
 3227 0344 0097     		str	r7, [sp]
 241:../../libdaisy/src/dev/oled_ssd130x.h ****             return;
 3228              		.loc 6 241 9 view .LVU864
 3229 0346 002E     		cmp	r6, #0
 3230 0348 7FF4C8AE 		bne	.L163
 3231 034c 002F     		cmp	r7, #0
 3232 034e 3FF4AEAE 		beq	.L201
 3233 0352 C3E6     		b	.L163
 3234              	.LVL222:
 3235              	.L188:
 241:../../libdaisy/src/dev/oled_ssd130x.h ****             return;
 3236              		.loc 6 241 9 view .LVU865
 3237              	.LBE797:
 3238              	.LBE801:
 3239              	.LBE812:
 3240              	.LBE815:
 3241              	.LBE898:
 3242              	.LBB899:
 3243              	.LBB876:
 3244              	.LBB874:
 3245              	.LBB873:
 3246              	.LBB872:
 3247              	.LBB870:
 3248              	.LBI870:
 239:../../libdaisy/src/dev/oled_ssd130x.h ****     {
 3249              		.loc 6 239 10 is_stmt 1 view .LVU866
 3250              	.LBB871:
 246:../../libdaisy/src/dev/oled_ssd130x.h ****     }
 3251              		.loc 6 246 49 is_stmt 0 view .LVU867
 3252 0354 08FA0BFB 		lsl	fp, r8, fp
 246:../../libdaisy/src/dev/oled_ssd130x.h ****     }
 3253              		.loc 6 246 42 view .LVU868
 3254 0358 9CF81480 		ldrb	r8, [ip, #20]	@ zero_extendqisi2
 3255 035c 28EA0B08 		bic	r8, r8, fp
 3256 0360 8CF81480 		strb	r8, [ip, #20]
 3257 0364 8AE7     		b	.L187
 3258              	.LVL223:
 3259              	.L197:
 246:../../libdaisy/src/dev/oled_ssd130x.h ****     }
 3260              		.loc 6 246 42 view .LVU869
 3261              	.LBE871:
 3262              	.LBE870:
 3263              	.LBE872:
 3264              	.LBE873:
 3265              	.LBE874:
 3266              	.LBE876:
 3267              	.LBE899:
 3268              	.LBB900:
 3269              	.LBB896:
 3270              	.LBB894:
 3271              	.LBB893:
 3272              	.LBB892:
 3273              	.LBB890:
 3274              	.LBI890:
 239:../../libdaisy/src/dev/oled_ssd130x.h ****     {
ARM GAS  C:\Users\VINCIU~1\AppData\Local\Temp\ccF8ydZb.s 			page 96


 3275              		.loc 6 239 10 is_stmt 1 view .LVU870
 3276              	.LBB891:
 246:../../libdaisy/src/dev/oled_ssd130x.h ****     }
 3277              		.loc 6 246 49 is_stmt 0 view .LVU871
 3278 0366 09FA0AFA 		lsl	r10, r9, r10
 246:../../libdaisy/src/dev/oled_ssd130x.h ****     }
 3279              		.loc 6 246 42 view .LVU872
 3280 036a 97F81490 		ldrb	r9, [r7, #20]	@ zero_extendqisi2
 3281 036e 29EA0A09 		bic	r9, r9, r10
 3282 0372 87F81490 		strb	r9, [r7, #20]
 3283 0376 C9E7     		b	.L196
 3284              	.LVL224:
 3285              	.L167:
 246:../../libdaisy/src/dev/oled_ssd130x.h ****     }
 3286              		.loc 6 246 42 view .LVU873
 3287              	.LBE891:
 3288              	.LBE890:
 3289              	.LBE892:
 3290              	.LBE893:
 3291              	.LBE894:
 3292              	.LBE896:
 3293              	.LBE900:
 3294              	.LBB901:
 3295              	.LBB816:
 3296              	.LBB813:
 3297              	.LBB810:
 3298              	.LBB809:
 3299              	.LBB807:
 3300              	.LBI807:
 239:../../libdaisy/src/dev/oled_ssd130x.h ****     {
 3301              		.loc 6 239 10 is_stmt 1 view .LVU874
 3302              	.LBB808:
 246:../../libdaisy/src/dev/oled_ssd130x.h ****     }
 3303              		.loc 6 246 49 is_stmt 0 view .LVU875
 3304 0378 09FA0BFB 		lsl	fp, r9, fp
 246:../../libdaisy/src/dev/oled_ssd130x.h ****     }
 3305              		.loc 6 246 42 view .LVU876
 3306 037c 97F81490 		ldrb	r9, [r7, #20]	@ zero_extendqisi2
 3307 0380 29EA0B09 		bic	r9, r9, fp
 3308 0384 87F81490 		strb	r9, [r7, #20]
 3309 0388 C5E6     		b	.L166
 3310              	.LVL225:
 3311              	.L178:
 246:../../libdaisy/src/dev/oled_ssd130x.h ****     }
 3312              		.loc 6 246 42 view .LVU877
 3313              	.LBE808:
 3314              	.LBE807:
 3315              	.LBE809:
 3316              	.LBE810:
 3317              	.LBE813:
 3318              	.LBE816:
 3319              	.LBE901:
 3320              	.LBB902:
 3321              	.LBB852:
 3322              	.LBB849:
 3323              	.LBB848:
 3324              	.LBB847:
ARM GAS  C:\Users\VINCIU~1\AppData\Local\Temp\ccF8ydZb.s 			page 97


 3325              	.LBB845:
 3326              	.LBI845:
 239:../../libdaisy/src/dev/oled_ssd130x.h ****     {
 3327              		.loc 6 239 10 is_stmt 1 view .LVU878
 3328              	.LBB846:
 246:../../libdaisy/src/dev/oled_ssd130x.h ****     }
 3329              		.loc 6 246 49 is_stmt 0 view .LVU879
 3330 038a 0AFA0BFB 		lsl	fp, r10, fp
 246:../../libdaisy/src/dev/oled_ssd130x.h ****     }
 3331              		.loc 6 246 42 view .LVU880
 3332 038e 9EF814A0 		ldrb	r10, [lr, #20]	@ zero_extendqisi2
 3333 0392 2AEA0B0A 		bic	r10, r10, fp
 3334 0396 8EF814A0 		strb	r10, [lr, #20]
 3335 039a 18E7     		b	.L177
 3336              	.LVL226:
 3337              	.L170:
 246:../../libdaisy/src/dev/oled_ssd130x.h ****     }
 3338              		.loc 6 246 42 view .LVU881
 3339              	.LBE846:
 3340              	.LBE845:
 3341              	.LBE847:
 3342              	.LBE848:
 3343              	.LBE849:
 3344              	.LBB850:
 3345              	.LBB836:
 3346              	.LBB830:
 241:../../libdaisy/src/dev/oled_ssd130x.h ****             return;
 3347              		.loc 6 241 9 view .LVU882
 3348 039c 97BB     		cbnz	r7, .L209
 3349 039e 8EBB     		cbnz	r6, .L209
 3350              	.LBE830:
 3351              	.LBE836:
 3352              	.LBE850:
 190:../../libdaisy/src/hid/disp/display.h ****         int_fast16_t error  = deltaX - deltaY;
 3353              		.loc 5 190 42 view .LVU883
 3354 03a0 0126     		movs	r6, #1
 3355 03a2 0096     		str	r6, [sp]
 3356              	.LBB851:
 3357              	.LBB837:
 3358              	.LBB831:
 244:../../libdaisy/src/dev/oled_ssd130x.h ****         else
 3359              		.loc 6 244 28 view .LVU884
 3360 03a4 E608     		lsrs	r6, r4, #3
 244:../../libdaisy/src/dev/oled_ssd130x.h ****         else
 3361              		.loc 6 244 42 view .LVU885
 3362 03a6 03EBC616 		add	r6, r3, r6, lsl #7
 3363 03aa 0644     		add	r6, r6, r0
 243:../../libdaisy/src/dev/oled_ssd130x.h ****             buffer_[x + (y / 8) * width] |= (1 << (y % 8));
 3364              		.loc 6 243 9 view .LVU886
 3365 03ac 002D     		cmp	r5, #0
 3366 03ae 7FF4E2AE 		bne	.L244
 3367              	.LVL227:
 3368              	.L172:
 3369              	.LBB824:
 3370              	.LBI824:
 239:../../libdaisy/src/dev/oled_ssd130x.h ****     {
 3371              		.loc 6 239 10 is_stmt 1 view .LVU887
ARM GAS  C:\Users\VINCIU~1\AppData\Local\Temp\ccF8ydZb.s 			page 98


 3372              	.LBB825:
 246:../../libdaisy/src/dev/oled_ssd130x.h ****     }
 3373              		.loc 6 246 49 is_stmt 0 view .LVU888
 3374 03b2 0127     		movs	r7, #1
 246:../../libdaisy/src/dev/oled_ssd130x.h ****     }
 3375              		.loc 6 246 55 view .LVU889
 3376 03b4 04F0070C 		and	ip, r4, #7
 246:../../libdaisy/src/dev/oled_ssd130x.h ****     }
 3377              		.loc 6 246 42 view .LVU890
 3378 03b8 0395     		str	r5, [sp, #12]
 246:../../libdaisy/src/dev/oled_ssd130x.h ****     }
 3379              		.loc 6 246 49 view .LVU891
 3380 03ba 07FA0CFC 		lsl	ip, r7, ip
 246:../../libdaisy/src/dev/oled_ssd130x.h ****     }
 3381              		.loc 6 246 42 view .LVU892
 3382 03be 377D     		ldrb	r7, [r6, #20]	@ zero_extendqisi2
 3383 03c0 27EA0C07 		bic	r7, r7, ip
 3384 03c4 3775     		strb	r7, [r6, #20]
 3385 03c6 E3E6     		b	.L171
 3386              	.LVL228:
 3387              	.L193:
 246:../../libdaisy/src/dev/oled_ssd130x.h ****     }
 3388              		.loc 6 246 42 view .LVU893
 3389              	.LBE825:
 3390              	.LBE824:
 3391              	.LBE831:
 3392              	.LBE837:
 3393              	.LBE851:
 3394              	.LBE852:
 3395              	.LBE902:
 3396              	.LBB903:
 3397              	.LBB897:
 3398              	.LBB895:
 3399              	.LBB886:
 3400              	.LBB885:
 3401              	.LBB883:
 3402              	.LBI883:
 239:../../libdaisy/src/dev/oled_ssd130x.h ****     {
 3403              		.loc 6 239 10 is_stmt 1 view .LVU894
 3404              	.LBB884:
 246:../../libdaisy/src/dev/oled_ssd130x.h ****     }
 3405              		.loc 6 246 49 is_stmt 0 view .LVU895
 3406 03c8 06FA07F7 		lsl	r7, r6, r7
 246:../../libdaisy/src/dev/oled_ssd130x.h ****     }
 3407              		.loc 6 246 42 view .LVU896
 3408 03cc 1E7D     		ldrb	r6, [r3, #20]	@ zero_extendqisi2
 3409 03ce 26EA0706 		bic	r6, r6, r7
 3410 03d2 1E75     		strb	r6, [r3, #20]
 3411 03d4 7FE7     		b	.L192
 3412              	.LVL229:
 3413              	.L183:
 246:../../libdaisy/src/dev/oled_ssd130x.h ****     }
 3414              		.loc 6 246 42 view .LVU897
 3415              	.LBE884:
 3416              	.LBE883:
 3417              	.LBE885:
 3418              	.LBE886:
ARM GAS  C:\Users\VINCIU~1\AppData\Local\Temp\ccF8ydZb.s 			page 99


 3419              	.LBE895:
 3420              	.LBE897:
 3421              	.LBE903:
 3422              	.LBB904:
 3423              	.LBB877:
 3424              	.LBB875:
 3425              	.LBB865:
 3426              	.LBB863:
 3427              	.LBB860:
 3428              	.LBI860:
 239:../../libdaisy/src/dev/oled_ssd130x.h ****     {
 3429              		.loc 6 239 10 is_stmt 1 view .LVU898
 3430              	.LBB861:
 246:../../libdaisy/src/dev/oled_ssd130x.h ****     }
 3431              		.loc 6 246 49 is_stmt 0 view .LVU899
 3432 03d6 0127     		movs	r7, #1
 246:../../libdaisy/src/dev/oled_ssd130x.h ****     }
 3433              		.loc 6 246 55 view .LVU900
 3434 03d8 04F0070C 		and	ip, r4, #7
 246:../../libdaisy/src/dev/oled_ssd130x.h ****     }
 3435              		.loc 6 246 49 view .LVU901
 3436 03dc 07FA0CFC 		lsl	ip, r7, ip
 246:../../libdaisy/src/dev/oled_ssd130x.h ****     }
 3437              		.loc 6 246 42 view .LVU902
 3438 03e0 377D     		ldrb	r7, [r6, #20]	@ zero_extendqisi2
 3439 03e2 27EA0C07 		bic	r7, r7, ip
 3440 03e6 3775     		strb	r7, [r6, #20]
 3441 03e8 2DE7     		b	.L182
 3442              	.LVL230:
 3443              	.L161:
 246:../../libdaisy/src/dev/oled_ssd130x.h ****     }
 3444              		.loc 6 246 42 view .LVU903
 3445              	.LBE861:
 3446              	.LBE860:
 3447              	.LBE863:
 3448              	.LBE865:
 3449              	.LBE875:
 3450              	.LBE877:
 3451              	.LBE904:
 3452              	.LBB905:
 3453              	.LBB817:
 3454              	.LBB814:
 3455              	.LBB802:
 3456              	.LBB798:
 3457              	.LBB793:
 3458              	.LBI793:
 239:../../libdaisy/src/dev/oled_ssd130x.h ****     {
 3459              		.loc 6 239 10 is_stmt 1 view .LVU904
 3460              	.LBB794:
 246:../../libdaisy/src/dev/oled_ssd130x.h ****     }
 3461              		.loc 6 246 49 is_stmt 0 view .LVU905
 3462 03ea 07FA0CFC 		lsl	ip, r7, ip
 246:../../libdaisy/src/dev/oled_ssd130x.h ****     }
 3463              		.loc 6 246 42 view .LVU906
 3464 03ee 377D     		ldrb	r7, [r6, #20]	@ zero_extendqisi2
 3465 03f0 0295     		str	r5, [sp, #8]
 3466 03f2 27EA0C07 		bic	r7, r7, ip
ARM GAS  C:\Users\VINCIU~1\AppData\Local\Temp\ccF8ydZb.s 			page 100


 3467 03f6 0095     		str	r5, [sp]
 3468 03f8 3775     		strb	r7, [r6, #20]
 3469 03fa 6CE6     		b	.L160
 3470              	.LVL231:
 3471              	.L205:
 246:../../libdaisy/src/dev/oled_ssd130x.h ****     }
 3472              		.loc 6 246 42 view .LVU907
 3473              	.LBE794:
 3474              	.LBE793:
 3475              	.LBE798:
 3476              	.LBE802:
 3477              	.LBE814:
 3478              	.LBE817:
 3479              	.LBE905:
 3480              	.LBB906:
 3481              	.LBB853:
 190:../../libdaisy/src/hid/disp/display.h ****         int_fast16_t error  = deltaX - deltaY;
 3482              		.loc 5 190 42 view .LVU908
 3483 03fc 4FF0FF36 		mov	r6, #-1
 3484 0400 0096     		str	r6, [sp]
 3485 0402 C5E6     		b	.L171
 3486              	.LVL232:
 3487              	.L209:
 190:../../libdaisy/src/hid/disp/display.h ****         int_fast16_t error  = deltaX - deltaY;
 3488              		.loc 5 190 42 view .LVU909
 3489 0404 0126     		movs	r6, #1
 3490 0406 0096     		str	r6, [sp]
 3491 0408 C5E6     		b	.L174
 3492              	.LVL233:
 3493              	.L242:
 190:../../libdaisy/src/hid/disp/display.h ****         int_fast16_t error  = deltaX - deltaY;
 3494              		.loc 5 190 42 view .LVU910
 3495              	.LBE853:
 3496              	.LBE906:
 3497              	.LBB907:
 3498              	.LBB818:
 199:../../libdaisy/src/hid/disp/display.h ****         {
 3499              		.loc 5 199 19 view .LVU911
 3500 040a 0126     		movs	r6, #1
 3501 040c 0496     		str	r6, [sp, #16]
 3502 040e 90E6     		b	.L162
 3503              	.LVL234:
 3504              	.L243:
 199:../../libdaisy/src/hid/disp/display.h ****         {
 3505              		.loc 5 199 19 view .LVU912
 3506              	.LBE818:
 3507              	.LBE907:
 3508              	.LBB908:
 3509              	.LBB854:
 199:../../libdaisy/src/hid/disp/display.h ****         {
 3510              		.loc 5 199 33 view .LVU913
 3511 0410 0126     		movs	r6, #1
 3512 0412 0196     		str	r6, [sp, #4]
 3513 0414 EDE6     		b	.L173
 3514              	.LBE854:
 3515              	.LBE908:
 3516              	.LBE932:
ARM GAS  C:\Users\VINCIU~1\AppData\Local\Temp\ccF8ydZb.s 			page 101


 3517              		.cfi_endproc
 3518              	.LFE4340:
 3520 0416 00BF     		.section	.rodata._ZN5Menus5Menu1E23OledDisplayExtravaganzaPN7daisysp10OscillatorE.str1.4,"aMS",%pr
 3521              		.align	2
 3522              	.LC3:
 3523 0000 00       		.ascii	"\000"
 3524 0001 000000   		.align	2
 3525              	.LC4:
 3526 0004 4F736300 		.ascii	"Osc\000"
 3527              		.align	2
 3528              	.LC5:
 3529 0008 53656D69 		.ascii	"Semi_%dst\000"
 3529      5F256473 
 3529      7400
 3530 0012 0000     		.align	2
 3531              	.LC6:
 3532 0014 46696E65 		.ascii	"Fine_%d%%\000"
 3532      5F256425 
 3532      2500
 3533              		.section	.text._ZN5Menus5Menu1E23OledDisplayExtravaganzaPN7daisysp10OscillatorE,"ax",%progbits
 3534              		.align	1
 3535              		.p2align 2,,3
 3536              		.global	_ZN5Menus5Menu1E23OledDisplayExtravaganzaPN7daisysp10OscillatorE
 3537              		.syntax unified
 3538              		.thumb
 3539              		.thumb_func
 3540              		.fpu fpv5-d16
 3542              	_ZN5Menus5Menu1E23OledDisplayExtravaganzaPN7daisysp10OscillatorE:
 3543              	.LVL235:
 3544              	.LFB4039:
  92:Menus.cpp     **** {
 3545              		.loc 2 92 1 is_stmt 1 view -0
 3546              		.cfi_startproc
 3547              		@ args = 0, pretend = 0, frame = 8
 3548              		@ frame_needed = 0, uses_anonymous_args = 0
  92:Menus.cpp     **** {
 3549              		.loc 2 92 1 is_stmt 0 view .LVU915
 3550 0000 2DE9F043 		push	{r4, r5, r6, r7, r8, r9, lr}
 3551              		.cfi_def_cfa_offset 28
 3552              		.cfi_offset 4, -28
 3553              		.cfi_offset 5, -24
 3554              		.cfi_offset 6, -20
 3555              		.cfi_offset 7, -16
 3556              		.cfi_offset 8, -12
 3557              		.cfi_offset 9, -8
 3558              		.cfi_offset 14, -4
  93:Menus.cpp     ****     screen.Fill(!on);
 3559              		.loc 2 93 18 view .LVU916
 3560 0004 90F86881 		ldrb	r8, [r0, #360]	@ zero_extendqisi2
 3561 0008 01F11406 		add	r6, r1, #20
  92:Menus.cpp     **** {
 3562              		.loc 2 92 1 view .LVU917
 3563 000c 0C46     		mov	r4, r1
 3564 000e 0546     		mov	r5, r0
  93:Menus.cpp     ****     screen.Fill(!on);
 3565              		.loc 2 93 5 is_stmt 1 view .LVU918
 3566              	.LVL236:
ARM GAS  C:\Users\VINCIU~1\AppData\Local\Temp\ccF8ydZb.s 			page 102


 3567              	.LBB1154:
 3568              	.LBI1154:
  33:../../libdaisy/src/hid/disp/oled_display.h **** 
 3569              		.loc 1 33 10 view .LVU919
 3570              	.LBB1155:
 3571              	.LBI1155:
 249:../../libdaisy/src/dev/oled_ssd130x.h ****     {
 3572              		.loc 6 249 10 view .LVU920
 3573              	.LBB1156:
 251:../../libdaisy/src/dev/oled_ssd130x.h ****         {
 3574              		.loc 6 251 29 view .LVU921
 253:../../libdaisy/src/dev/oled_ssd130x.h ****         }
 3575              		.loc 6 253 24 is_stmt 0 view .LVU922
 3576 0010 88F00101 		eor	r1, r8, #1
 3577              	.LVL237:
 253:../../libdaisy/src/dev/oled_ssd130x.h ****         }
 3578              		.loc 6 253 24 view .LVU923
 3579              	.LBE1156:
 3580              	.LBE1155:
 3581              	.LBE1154:
  92:Menus.cpp     **** {
 3582              		.loc 2 92 1 view .LVU924
 3583 0014 1746     		mov	r7, r2
 3584              	.LBB1163:
 3585              	.LBB1160:
 3586              	.LBB1157:
 253:../../libdaisy/src/dev/oled_ssd130x.h ****         }
 3587              		.loc 6 253 24 view .LVU925
 3588 0016 3046     		mov	r0, r6
 3589              	.LVL238:
 253:../../libdaisy/src/dev/oled_ssd130x.h ****         }
 3590              		.loc 6 253 24 view .LVU926
 3591 0018 4FF48062 		mov	r2, #1024
 3592              	.LVL239:
 253:../../libdaisy/src/dev/oled_ssd130x.h ****         }
 3593              		.loc 6 253 24 view .LVU927
 3594 001c 4942     		rsbs	r1, r1, #0
 3595              	.LBE1157:
 3596              	.LBE1160:
 3597              	.LBE1163:
  92:Menus.cpp     **** {
 3598              		.loc 2 92 1 view .LVU928
 3599 001e 2DED028B 		vpush.64	{d8}
 3600              		.cfi_def_cfa_offset 36
 3601              		.cfi_offset 80, -36
 3602              		.cfi_offset 81, -32
 3603              	.LBB1164:
 3604              	.LBB1161:
 3605              	.LBB1158:
 253:../../libdaisy/src/dev/oled_ssd130x.h ****         }
 3606              		.loc 6 253 24 view .LVU929
 3607 0022 C9B2     		uxtb	r1, r1
 3608              	.LBE1158:
 3609              	.LBE1161:
 3610              	.LBE1164:
  92:Menus.cpp     **** {
 3611              		.loc 2 92 1 view .LVU930
ARM GAS  C:\Users\VINCIU~1\AppData\Local\Temp\ccF8ydZb.s 			page 103


 3612 0024 87B0     		sub	sp, sp, #28
 3613              		.cfi_def_cfa_offset 64
 3614              	.LBB1165:
 3615              	.LBB1162:
 3616              	.LBB1159:
 253:../../libdaisy/src/dev/oled_ssd130x.h ****         }
 3617              		.loc 6 253 24 view .LVU931
 3618 0026 FFF7FEFF 		bl	memset
 3619              	.LVL240:
 253:../../libdaisy/src/dev/oled_ssd130x.h ****         }
 3620              		.loc 6 253 24 view .LVU932
 3621              	.LBE1159:
 3622              	.LBE1162:
 3623              	.LBE1165:
  94:Menus.cpp     ****     if(this->buttonLeft.RisingEdge())
 3624              		.loc 2 94 5 is_stmt 1 view .LVU933
 3625              	.LBB1166:
 3626              	.LBI1166:
 3627              		.loc 4 69 17 view .LVU934
 3628              	.LBB1167:
 3629              		.loc 4 69 38 view .LVU935
 3630              		.loc 4 69 38 is_stmt 0 view .LVU936
 3631              	.LBE1167:
 3632              	.LBE1166:
  94:Menus.cpp     ****     if(this->buttonLeft.RisingEdge())
 3633              		.loc 2 94 5 view .LVU937
 3634 002a 95F85130 		ldrb	r3, [r5, #81]	@ zero_extendqisi2
 3635 002e 7F2B     		cmp	r3, #127
 3636 0030 00F0BC82 		beq	.L361
 103:Menus.cpp     ****     if(this->buttonRight.RisingEdge())
 3637              		.loc 2 103 5 is_stmt 1 view .LVU938
 3638              	.LVL241:
 3639              	.LBB1168:
 3640              	.LBI1168:
 3641              		.loc 4 69 17 view .LVU939
 3642              	.LBB1169:
 3643              		.loc 4 69 38 view .LVU940
 3644              		.loc 4 69 38 is_stmt 0 view .LVU941
 3645              	.LBE1169:
 3646              	.LBE1168:
 103:Menus.cpp     ****     if(this->buttonRight.RisingEdge())
 3647              		.loc 2 103 5 view .LVU942
 3648 0034 95F86130 		ldrb	r3, [r5, #97]	@ zero_extendqisi2
 3649 0038 7F2B     		cmp	r3, #127
 3650 003a 00F0C082 		beq	.L362
 3651              	.L249:
 113:Menus.cpp     ****     screen.drawHorizontalToggle(46, 13, 8, on, this->OscSelector, "");
 3652              		.loc 2 113 5 is_stmt 1 view .LVU943
 113:Menus.cpp     ****     screen.drawHorizontalToggle(46, 13, 8, on, this->OscSelector, "");
 3653              		.loc 2 113 32 is_stmt 0 view .LVU944
 3654 003e 4146     		mov	r1, r8
 3655 0040 B2EE001A 		vmov.f32	s2, #8.0e+0
 3656 0044 F2EE0A0A 		vmov.f32	s1, #1.3e+1
 3657 0048 9FEDC30A 		vldr.32	s0, .L386
 3658 004c C34B     		ldr	r3, .L386+4
 3659 004e 2046     		mov	r0, r4
 3660 0050 95F87420 		ldrb	r2, [r5, #116]	@ zero_extendqisi2
ARM GAS  C:\Users\VINCIU~1\AppData\Local\Temp\ccF8ydZb.s 			page 104


 3661 0054 FFF7FEFF 		bl	_ZN23OledDisplayExtravaganza20drawHorizontalToggleEfffbbPKc
 3662              	.LVL242:
 115:Menus.cpp     ****     if(this->OscSelector == true)
 3663              		.loc 2 115 5 is_stmt 1 view .LVU945
 3664 0058 95F87480 		ldrb	r8, [r5, #116]	@ zero_extendqisi2
 3665 005c B8F1000F 		cmp	r8, #0
 3666 0060 00F02681 		beq	.L251
 117:Menus.cpp     ****         screen.drawSlider(70, 7, 50, 3, on, ((this->drawSliderSemi)) / 40);
 3667              		.loc 2 117 9 view .LVU946
 117:Menus.cpp     ****         screen.drawSlider(70, 7, 50, 3, on, ((this->drawSliderSemi)) / 40);
 3668              		.loc 2 117 26 is_stmt 0 view .LVU947
 3669 0064 95F86831 		ldrb	r3, [r5, #360]	@ zero_extendqisi2
 3670 0068 F0EE081A 		vmov.f32	s3, #3.0e+0
 3671 006c D5ED1E2A 		vldr.32	s5, [r5, #120]
 3672 0070 F1EE0C0A 		vmov.f32	s1, #7.0e+0
 3673 0074 02EE103A 		vmov	s4, r3	@ int
 3674 0078 9FEDC68A 		vldr.32	s16, .L386+60
 3675 007c 2046     		mov	r0, r4
 3676 007e 9FEDB81A 		vldr.32	s2, .L386+8
 3677 0082 C2EE882A 		vdiv.f32	s5, s5, s16
 3678 0086 9FEDB70A 		vldr.32	s0, .L386+12
 122:Menus.cpp     ****         screen.WriteString(this->buff, Font_6x8, true);
 3679              		.loc 2 122 27 view .LVU948
 3680 008a DFF8FC82 		ldr	r8, .L386+48
 3681 008e 4FF00109 		mov	r9, #1
 117:Menus.cpp     ****         screen.drawSlider(70, 7, 50, 3, on, ((this->drawSliderSemi)) / 40);
 3682              		.loc 2 117 26 view .LVU949
 3683 0092 B8EE422A 		vcvt.f32.u32	s4, s4
 3684 0096 FFF7FEFF 		bl	_ZN23OledDisplayExtravaganza10drawSliderEffffff
 3685              	.LVL243:
 118:Menus.cpp     ****         screen.drawSlider(70, 40, 50, 3, on, drawSliderFine);
 3686              		.loc 2 118 9 is_stmt 1 view .LVU950
 118:Menus.cpp     ****         screen.drawSlider(70, 40, 50, 3, on, drawSliderFine);
 3687              		.loc 2 118 26 is_stmt 0 view .LVU951
 3688 009a 95F86831 		ldrb	r3, [r5, #360]	@ zero_extendqisi2
 3689 009e F0EE081A 		vmov.f32	s3, #3.0e+0
 3690 00a2 D5ED1F2A 		vldr.32	s5, [r5, #124]
 3691 00a6 02EE103A 		vmov	s4, r3	@ int
 3692 00aa F0EE480A 		vmov.f32	s1, s16
 3693 00ae 2046     		mov	r0, r4
 3694 00b0 9FEDAB1A 		vldr.32	s2, .L386+8
 3695 00b4 B8EE422A 		vcvt.f32.u32	s4, s4
 3696 00b8 9FEDAA0A 		vldr.32	s0, .L386+12
 3697 00bc FFF7FEFF 		bl	_ZN23OledDisplayExtravaganza10drawSliderEffffff
 3698              	.LVL244:
 119:Menus.cpp     ****         screen.drawVerticalToggle(13, 51, 8, on, this->toggleOsc, "");
 3699              		.loc 2 119 9 is_stmt 1 view .LVU952
 119:Menus.cpp     ****         screen.drawVerticalToggle(13, 51, 8, on, this->toggleOsc, "");
 3700              		.loc 2 119 34 is_stmt 0 view .LVU953
 3701 00c0 B2EE001A 		vmov.f32	s2, #8.0e+0
 3702 00c4 B2EE0A0A 		vmov.f32	s0, #1.3e+1
 3703 00c8 DFEDA70A 		vldr.32	s1, .L386+16
 3704 00cc 2046     		mov	r0, r4
 3705 00ce A34B     		ldr	r3, .L386+4
 3706 00d0 95F89820 		ldrb	r2, [r5, #152]	@ zero_extendqisi2
 3707 00d4 95F86811 		ldrb	r1, [r5, #360]	@ zero_extendqisi2
 3708 00d8 FFF7FEFF 		bl	_ZN23OledDisplayExtravaganza18drawVerticalToggleEfffbbPKc
ARM GAS  C:\Users\VINCIU~1\AppData\Local\Temp\ccF8ydZb.s 			page 105


 3709              	.LVL245:
 120:Menus.cpp     ****         screen.WaveIcons(35, 42, 55, this->selectedWave, on);
 3710              		.loc 2 120 9 is_stmt 1 view .LVU954
 120:Menus.cpp     ****         screen.WaveIcons(35, 42, 55, this->selectedWave, on);
 3711              		.loc 2 120 25 is_stmt 0 view .LVU955
 3712 00dc 95F86831 		ldrb	r3, [r5, #360]	@ zero_extendqisi2
 3713 00e0 2046     		mov	r0, r4
 3714 00e2 2A22     		movs	r2, #42
 3715 00e4 0193     		str	r3, [sp, #4]
 3716 00e6 2321     		movs	r1, #35
 3717 00e8 D5F89C30 		ldr	r3, [r5, #156]
 3718 00ec 0093     		str	r3, [sp]
 3719 00ee 3723     		movs	r3, #55
 3720 00f0 FFF7FEFF 		bl	_ZN23OledDisplayExtravaganza9WaveIconsEiiiib
 3721              	.LVL246:
 121:Menus.cpp     ****         screen.SetCursor(70, 17);
 3722              		.loc 2 121 9 is_stmt 1 view .LVU956
 3723              	.LBB1172:
 3724              	.LBI1172:
 131:../../libdaisy/src/hid/disp/display.h ****     {
 3725              		.loc 5 131 10 view .LVU957
 3726              	.LBB1173:
 133:../../libdaisy/src/hid/disp/display.h ****         currentY_ = (y >= Height()) ? Height() - 1 : y;
 3727              		.loc 5 133 9 view .LVU958
 134:../../libdaisy/src/hid/disp/display.h ****     }
 3728              		.loc 5 134 9 view .LVU959
 133:../../libdaisy/src/hid/disp/display.h ****         currentY_ = (y >= Height()) ? Height() - 1 : y;
 3729              		.loc 5 133 19 is_stmt 0 view .LVU960
 3730 00f4 9D4B     		ldr	r3, .L386+20
 3731              	.LBE1173:
 3732              	.LBE1172:
 122:Menus.cpp     ****         screen.WriteString(this->buff, Font_6x8, true);
 3733              		.loc 2 122 27 view .LVU961
 3734 00f6 05F1A401 		add	r1, r5, #164
 3735 00fa 2046     		mov	r0, r4
 3736              	.LBB1175:
 3737              	.LBB1174:
 133:../../libdaisy/src/hid/disp/display.h ****         currentY_ = (y >= Height()) ? Height() - 1 : y;
 3738              		.loc 5 133 19 view .LVU962
 3739 00fc 6360     		str	r3, [r4, #4]
 3740              	.LVL247:
 133:../../libdaisy/src/hid/disp/display.h ****         currentY_ = (y >= Height()) ? Height() - 1 : y;
 3741              		.loc 5 133 19 view .LVU963
 3742              	.LBE1174:
 3743              	.LBE1175:
 122:Menus.cpp     ****         screen.WriteString(this->buff, Font_6x8, true);
 3744              		.loc 2 122 9 is_stmt 1 view .LVU964
 122:Menus.cpp     ****         screen.WriteString(this->buff, Font_6x8, true);
 3745              		.loc 2 122 27 is_stmt 0 view .LVU965
 3746 00fe CDF80090 		str	r9, [sp]
 3747 0102 98E80C00 		ldm	r8, {r2, r3}
 3748 0106 FFF7FEFF 		bl	_ZN5daisy25OneBitGraphicsDisplayImplINS_11OledDisplayINS_13SSD130xDriverILj128ELj64ENS_24SSD130
 3749              	.LVL248:
 123:Menus.cpp     ****         screen.SetCursor(70, 50);
 3750              		.loc 2 123 9 is_stmt 1 view .LVU966
 3751              	.LBB1176:
 3752              	.LBI1176:
ARM GAS  C:\Users\VINCIU~1\AppData\Local\Temp\ccF8ydZb.s 			page 106


 131:../../libdaisy/src/hid/disp/display.h ****     {
 3753              		.loc 5 131 10 view .LVU967
 3754              	.LBB1177:
 133:../../libdaisy/src/hid/disp/display.h ****         currentY_ = (y >= Height()) ? Height() - 1 : y;
 3755              		.loc 5 133 9 view .LVU968
 134:../../libdaisy/src/hid/disp/display.h ****     }
 3756              		.loc 5 134 9 view .LVU969
 133:../../libdaisy/src/hid/disp/display.h ****         currentY_ = (y >= Height()) ? Height() - 1 : y;
 3757              		.loc 5 133 19 is_stmt 0 view .LVU970
 3758 010a 994B     		ldr	r3, .L386+24
 3759              	.LBE1177:
 3760              	.LBE1176:
 124:Menus.cpp     ****         screen.WriteString(this->buffFine, Font_6x8, true);
 3761              		.loc 2 124 27 view .LVU971
 3762 010c CDF80090 		str	r9, [sp]
 3763 0110 05F1D401 		add	r1, r5, #212
 3764              	.LBB1179:
 3765              	.LBB1178:
 133:../../libdaisy/src/hid/disp/display.h ****         currentY_ = (y >= Height()) ? Height() - 1 : y;
 3766              		.loc 5 133 19 view .LVU972
 3767 0114 6360     		str	r3, [r4, #4]
 3768              	.LVL249:
 133:../../libdaisy/src/hid/disp/display.h ****         currentY_ = (y >= Height()) ? Height() - 1 : y;
 3769              		.loc 5 133 19 view .LVU973
 3770              	.LBE1178:
 3771              	.LBE1179:
 124:Menus.cpp     ****         screen.WriteString(this->buffFine, Font_6x8, true);
 3772              		.loc 2 124 9 is_stmt 1 view .LVU974
 124:Menus.cpp     ****         screen.WriteString(this->buffFine, Font_6x8, true);
 3773              		.loc 2 124 27 is_stmt 0 view .LVU975
 3774 0116 2046     		mov	r0, r4
 3775 0118 98E80C00 		ldm	r8, {r2, r3}
 3776 011c FFF7FEFF 		bl	_ZN5daisy25OneBitGraphicsDisplayImplINS_11OledDisplayINS_13SSD130xDriverILj128ELj64ENS_24SSD130
 3777              	.LVL250:
 3778              	.L252:
 139:Menus.cpp     ****     screen.SetCursor(4, 8);
 3779              		.loc 2 139 5 is_stmt 1 view .LVU976
 3780              	.LBB1180:
 3781              	.LBI1180:
 131:../../libdaisy/src/hid/disp/display.h ****     {
 3782              		.loc 5 131 10 view .LVU977
 3783              	.LBB1181:
 133:../../libdaisy/src/hid/disp/display.h ****         currentY_ = (y >= Height()) ? Height() - 1 : y;
 3784              		.loc 5 133 9 view .LVU978
 134:../../libdaisy/src/hid/disp/display.h ****     }
 3785              		.loc 5 134 9 view .LVU979
 133:../../libdaisy/src/hid/disp/display.h ****         currentY_ = (y >= Height()) ? Height() - 1 : y;
 3786              		.loc 5 133 19 is_stmt 0 view .LVU980
 3787 0120 944B     		ldr	r3, .L386+28
 3788              	.LBE1181:
 3789              	.LBE1180:
 140:Menus.cpp     ****     screen.WriteString("Osc", Font_7x10, on);
 3790              		.loc 2 140 23 view .LVU981
 3791 0122 2046     		mov	r0, r4
 3792 0124 95F86821 		ldrb	r2, [r5, #360]	@ zero_extendqisi2
 3793              	.LBB1183:
 3794              	.LBB1182:
ARM GAS  C:\Users\VINCIU~1\AppData\Local\Temp\ccF8ydZb.s 			page 107


 133:../../libdaisy/src/hid/disp/display.h ****         currentY_ = (y >= Height()) ? Height() - 1 : y;
 3795              		.loc 5 133 19 view .LVU982
 3796 0128 6360     		str	r3, [r4, #4]
 3797              	.LVL251:
 133:../../libdaisy/src/hid/disp/display.h ****         currentY_ = (y >= Height()) ? Height() - 1 : y;
 3798              		.loc 5 133 19 view .LVU983
 3799              	.LBE1182:
 3800              	.LBE1183:
 140:Menus.cpp     ****     screen.WriteString("Osc", Font_7x10, on);
 3801              		.loc 2 140 5 is_stmt 1 view .LVU984
 140:Menus.cpp     ****     screen.WriteString("Osc", Font_7x10, on);
 3802              		.loc 2 140 23 is_stmt 0 view .LVU985
 3803 012a 934B     		ldr	r3, .L386+32
 3804 012c 0092     		str	r2, [sp]
 3805 012e 9349     		ldr	r1, .L386+36
 3806 0130 0CCB     		ldm	r3, {r2, r3}
 3807 0132 FFF7FEFF 		bl	_ZN5daisy25OneBitGraphicsDisplayImplINS_11OledDisplayINS_13SSD130xDriverILj128ELj64ENS_24SSD130
 3808              	.LVL252:
 143:Menus.cpp     ****     for(int i = 0; i < screen.Width(); i++)
 3809              		.loc 2 143 5 is_stmt 1 view .LVU986
 3810              	.LBB1184:
 143:Menus.cpp     ****     for(int i = 0; i < screen.Width(); i++)
 3811              		.loc 2 143 22 view .LVU987
 145:Menus.cpp     ****         screen.DrawPixel(i * 3, (screen.Height() / 2) - 3, on);
 3812              		.loc 2 145 25 is_stmt 0 view .LVU988
 3813 0136 95F86801 		ldrb	r0, [r5, #360]	@ zero_extendqisi2
 3814 013a A446     		mov	ip, r4
 3815 013c 0023     		movs	r3, #0
 3816              	.LVL253:
 3817              	.L257:
 145:Menus.cpp     ****         screen.DrawPixel(i * 3, (screen.Height() / 2) - 3, on);
 3818              		.loc 2 145 9 is_stmt 1 discriminator 2 view .LVU989
 3819              	.LBB1185:
 3820              	.LBI1185:
  41:../../libdaisy/src/hid/disp/oled_display.h ****     {
 3821              		.loc 1 41 10 discriminator 2 view .LVU990
 3822              	.LBB1186:
 3823              	.LBI1186:
 239:../../libdaisy/src/dev/oled_ssd130x.h ****     {
 3824              		.loc 6 239 10 discriminator 2 view .LVU991
 3825              	.LBB1187:
 241:../../libdaisy/src/dev/oled_ssd130x.h ****             return;
 3826              		.loc 6 241 9 is_stmt 0 discriminator 2 view .LVU992
 3827 013e 7F2B     		cmp	r3, #127
 3828 0140 0DD8     		bhi	.L253
 3829              	.LVL254:
 3830              	.L363:
 3831              	.LBB1188:
 3832              	.LBI1188:
 239:../../libdaisy/src/dev/oled_ssd130x.h ****     {
 3833              		.loc 6 239 10 is_stmt 1 view .LVU993
 239:../../libdaisy/src/dev/oled_ssd130x.h ****     {
 3834              		.loc 6 239 10 is_stmt 0 view .LVU994
 3835              	.LBE1188:
 244:../../libdaisy/src/dev/oled_ssd130x.h ****         else
 3836              		.loc 6 244 42 view .LVU995
 3837 0142 9CF89421 		ldrb	r2, [ip, #404]	@ zero_extendqisi2
ARM GAS  C:\Users\VINCIU~1\AppData\Local\Temp\ccF8ydZb.s 			page 108


 243:../../libdaisy/src/dev/oled_ssd130x.h ****             buffer_[x + (y / 8) * width] |= (1 << (y % 8));
 3838              		.loc 6 243 9 view .LVU996
 3839 0146 0028     		cmp	r0, #0
 3840 0148 00F09B80 		beq	.L254
 244:../../libdaisy/src/dev/oled_ssd130x.h ****         else
 3841              		.loc 6 244 42 view .LVU997
 3842 014c 42F02002 		orr	r2, r2, #32
 3843 0150 8CF89421 		strb	r2, [ip, #404]
 3844              	.L255:
 3845              	.LVL255:
 244:../../libdaisy/src/dev/oled_ssd130x.h ****         else
 3846              		.loc 6 244 42 view .LVU998
 3847              	.LBE1187:
 3848              	.LBE1186:
 3849              	.LBE1185:
 143:Menus.cpp     ****     for(int i = 0; i < screen.Width(); i++)
 3850              		.loc 2 143 5 is_stmt 1 view .LVU999
 143:Menus.cpp     ****     for(int i = 0; i < screen.Width(); i++)
 3851              		.loc 2 143 22 view .LVU1000
 3852 0154 0333     		adds	r3, r3, #3
 3853 0156 0CF1030C 		add	ip, ip, #3
 145:Menus.cpp     ****         screen.DrawPixel(i * 3, (screen.Height() / 2) - 3, on);
 3854              		.loc 2 145 9 view .LVU1001
 3855              	.LVL256:
 3856              	.LBB1195:
  41:../../libdaisy/src/hid/disp/oled_display.h ****     {
 3857              		.loc 1 41 10 view .LVU1002
 3858              	.LBB1193:
 239:../../libdaisy/src/dev/oled_ssd130x.h ****     {
 3859              		.loc 6 239 10 view .LVU1003
 3860              	.LBB1191:
 241:../../libdaisy/src/dev/oled_ssd130x.h ****             return;
 3861              		.loc 6 241 9 is_stmt 0 view .LVU1004
 3862 015a 7F2B     		cmp	r3, #127
 3863 015c F1D9     		bls	.L363
 3864              	.LVL257:
 3865              	.L253:
 241:../../libdaisy/src/dev/oled_ssd130x.h ****             return;
 3866              		.loc 6 241 9 view .LVU1005
 3867              	.LBE1191:
 3868              	.LBE1193:
 3869              	.LBE1195:
 143:Menus.cpp     ****     for(int i = 0; i < screen.Width(); i++)
 3870              		.loc 2 143 5 is_stmt 1 view .LVU1006
 143:Menus.cpp     ****     for(int i = 0; i < screen.Width(); i++)
 3871              		.loc 2 143 22 view .LVU1007
 3872 015e 0333     		adds	r3, r3, #3
 3873 0160 0CF1030C 		add	ip, ip, #3
 3874 0164 B3F5C07F 		cmp	r3, #384
 3875 0168 E9D1     		bne	.L257
 3876 016a 0023     		movs	r3, #0
 3877              	.L256:
 3878              	.LBE1184:
 3879              	.LBB1197:
 149:Menus.cpp     ****         screen.DrawPixel(60, i * 2, on);
 3880              		.loc 2 149 9 discriminator 2 view .LVU1008
 3881              	.LVL258:
ARM GAS  C:\Users\VINCIU~1\AppData\Local\Temp\ccF8ydZb.s 			page 109


 3882              	.LBB1198:
 3883              	.LBI1198:
  41:../../libdaisy/src/hid/disp/oled_display.h ****     {
 3884              		.loc 1 41 10 discriminator 2 view .LVU1009
 3885              	.LBB1199:
 3886              	.LBI1199:
 239:../../libdaisy/src/dev/oled_ssd130x.h ****     {
 3887              		.loc 6 239 10 discriminator 2 view .LVU1010
 3888              	.LBB1200:
 241:../../libdaisy/src/dev/oled_ssd130x.h ****             return;
 3889              		.loc 6 241 9 is_stmt 0 discriminator 2 view .LVU1011
 3890 016c 3F2B     		cmp	r3, #63
 3891 016e 14D8     		bhi	.L258
 3892              	.LVL259:
 3893              	.L364:
 3894              	.LBB1201:
 3895              	.LBI1201:
 239:../../libdaisy/src/dev/oled_ssd130x.h ****     {
 3896              		.loc 6 239 10 is_stmt 1 view .LVU1012
 239:../../libdaisy/src/dev/oled_ssd130x.h ****     {
 3897              		.loc 6 239 10 is_stmt 0 view .LVU1013
 3898              	.LBE1201:
 244:../../libdaisy/src/dev/oled_ssd130x.h ****         else
 3899              		.loc 6 244 48 view .LVU1014
 3900 0170 0121     		movs	r1, #1
 244:../../libdaisy/src/dev/oled_ssd130x.h ****         else
 3901              		.loc 6 244 28 view .LVU1015
 3902 0172 4FEAD30C 		lsr	ip, r3, #3
 244:../../libdaisy/src/dev/oled_ssd130x.h ****         else
 3903              		.loc 6 244 54 view .LVU1016
 3904 0176 03F0070E 		and	lr, r3, #7
 3905              	.LBB1204:
 3906              	.LBB1202:
 246:../../libdaisy/src/dev/oled_ssd130x.h ****     }
 3907              		.loc 6 246 49 view .LVU1017
 3908 017a 8846     		mov	r8, r1
 3909              	.LBE1202:
 3910              	.LBE1204:
 244:../../libdaisy/src/dev/oled_ssd130x.h ****         else
 3911              		.loc 6 244 42 view .LVU1018
 3912 017c 04EBCC1C 		add	ip, r4, ip, lsl #7
 244:../../libdaisy/src/dev/oled_ssd130x.h ****         else
 3913              		.loc 6 244 48 view .LVU1019
 3914 0180 01FA0EF1 		lsl	r1, r1, lr
 243:../../libdaisy/src/dev/oled_ssd130x.h ****             buffer_[x + (y / 8) * width] |= (1 << (y % 8));
 3915              		.loc 6 243 9 view .LVU1020
 3916 0184 0028     		cmp	r0, #0
 3917 0186 00F08180 		beq	.L259
 244:../../libdaisy/src/dev/oled_ssd130x.h ****         else
 3918              		.loc 6 244 42 view .LVU1021
 3919 018a 9CF85020 		ldrb	r2, [ip, #80]	@ zero_extendqisi2
 3920 018e 1143     		orrs	r1, r1, r2
 3921 0190 8CF85010 		strb	r1, [ip, #80]
 3922              	.L260:
 3923              	.LVL260:
 244:../../libdaisy/src/dev/oled_ssd130x.h ****         else
 3924              		.loc 6 244 42 view .LVU1022
ARM GAS  C:\Users\VINCIU~1\AppData\Local\Temp\ccF8ydZb.s 			page 110


 3925              	.LBE1200:
 3926              	.LBE1199:
 3927              	.LBE1198:
 147:Menus.cpp     ****     for(int i = 0; i < screen.Height(); i++)
 3928              		.loc 2 147 5 is_stmt 1 view .LVU1023
 147:Menus.cpp     ****     for(int i = 0; i < screen.Height(); i++)
 3929              		.loc 2 147 22 view .LVU1024
 3930 0194 0233     		adds	r3, r3, #2
 149:Menus.cpp     ****         screen.DrawPixel(60, i * 2, on);
 3931              		.loc 2 149 9 view .LVU1025
 3932              	.LVL261:
 3933              	.LBB1210:
  41:../../libdaisy/src/hid/disp/oled_display.h ****     {
 3934              		.loc 1 41 10 view .LVU1026
 3935              	.LBB1208:
 239:../../libdaisy/src/dev/oled_ssd130x.h ****     {
 3936              		.loc 6 239 10 view .LVU1027
 3937              	.LBB1206:
 241:../../libdaisy/src/dev/oled_ssd130x.h ****             return;
 3938              		.loc 6 241 9 is_stmt 0 view .LVU1028
 3939 0196 3F2B     		cmp	r3, #63
 3940 0198 EAD9     		bls	.L364
 3941              	.LVL262:
 3942              	.L258:
 241:../../libdaisy/src/dev/oled_ssd130x.h ****             return;
 3943              		.loc 6 241 9 view .LVU1029
 3944              	.LBE1206:
 3945              	.LBE1208:
 3946              	.LBE1210:
 147:Menus.cpp     ****     for(int i = 0; i < screen.Height(); i++)
 3947              		.loc 2 147 5 is_stmt 1 view .LVU1030
 147:Menus.cpp     ****     for(int i = 0; i < screen.Height(); i++)
 3948              		.loc 2 147 22 view .LVU1031
 3949 019a 0233     		adds	r3, r3, #2
 3950 019c 802B     		cmp	r3, #128
 3951 019e E5D1     		bne	.L256
 3952 01a0 1E23     		movs	r3, #30
 3953              	.L261:
 3954              	.LBE1197:
 3955              	.LBB1212:
 153:Menus.cpp     ****         screen.DrawPixel(29, i * 2, on);
 3956              		.loc 2 153 9 discriminator 2 view .LVU1032
 3957              	.LVL263:
 3958              	.LBB1213:
 3959              	.LBI1213:
  41:../../libdaisy/src/hid/disp/oled_display.h ****     {
 3960              		.loc 1 41 10 discriminator 2 view .LVU1033
 3961              	.LBB1214:
 3962              	.LBI1214:
 239:../../libdaisy/src/dev/oled_ssd130x.h ****     {
 3963              		.loc 6 239 10 discriminator 2 view .LVU1034
 3964              	.LBB1215:
 241:../../libdaisy/src/dev/oled_ssd130x.h ****             return;
 3965              		.loc 6 241 9 is_stmt 0 discriminator 2 view .LVU1035
 3966 01a2 3F2B     		cmp	r3, #63
 3967 01a4 13D8     		bhi	.L262
 3968              	.LVL264:
ARM GAS  C:\Users\VINCIU~1\AppData\Local\Temp\ccF8ydZb.s 			page 111


 3969              	.L365:
 3970              	.LBB1216:
 3971              	.LBI1216:
 239:../../libdaisy/src/dev/oled_ssd130x.h ****     {
 3972              		.loc 6 239 10 is_stmt 1 view .LVU1036
 239:../../libdaisy/src/dev/oled_ssd130x.h ****     {
 3973              		.loc 6 239 10 is_stmt 0 view .LVU1037
 3974              	.LBE1216:
 244:../../libdaisy/src/dev/oled_ssd130x.h ****         else
 3975              		.loc 6 244 48 view .LVU1038
 3976 01a6 0122     		movs	r2, #1
 244:../../libdaisy/src/dev/oled_ssd130x.h ****         else
 3977              		.loc 6 244 28 view .LVU1039
 3978 01a8 4FEAD30C 		lsr	ip, r3, #3
 244:../../libdaisy/src/dev/oled_ssd130x.h ****         else
 3979              		.loc 6 244 54 view .LVU1040
 3980 01ac 03F0070E 		and	lr, r3, #7
 3981              	.LBB1219:
 3982              	.LBB1217:
 246:../../libdaisy/src/dev/oled_ssd130x.h ****     }
 3983              		.loc 6 246 49 view .LVU1041
 3984 01b0 9046     		mov	r8, r2
 3985              	.LBE1217:
 3986              	.LBE1219:
 244:../../libdaisy/src/dev/oled_ssd130x.h ****         else
 3987              		.loc 6 244 42 view .LVU1042
 3988 01b2 04EBCC1C 		add	ip, r4, ip, lsl #7
 244:../../libdaisy/src/dev/oled_ssd130x.h ****         else
 3989              		.loc 6 244 48 view .LVU1043
 3990 01b6 02FA0EF2 		lsl	r2, r2, lr
 243:../../libdaisy/src/dev/oled_ssd130x.h ****             buffer_[x + (y / 8) * width] |= (1 << (y % 8));
 3991              		.loc 6 243 9 view .LVU1044
 3992 01ba 0028     		cmp	r0, #0
 3993 01bc 6FD0     		beq	.L263
 244:../../libdaisy/src/dev/oled_ssd130x.h ****         else
 3994              		.loc 6 244 42 view .LVU1045
 3995 01be 9CF83110 		ldrb	r1, [ip, #49]	@ zero_extendqisi2
 3996 01c2 0A43     		orrs	r2, r2, r1
 3997 01c4 8CF83120 		strb	r2, [ip, #49]
 3998              	.L264:
 3999              	.LVL265:
 244:../../libdaisy/src/dev/oled_ssd130x.h ****         else
 4000              		.loc 6 244 42 view .LVU1046
 4001              	.LBE1215:
 4002              	.LBE1214:
 4003              	.LBE1213:
 151:Menus.cpp     ****     for(int i = screen.Height() / 4 - 1; i < screen.Height(); i++)
 4004              		.loc 2 151 5 is_stmt 1 view .LVU1047
 151:Menus.cpp     ****     for(int i = screen.Height() / 4 - 1; i < screen.Height(); i++)
 4005              		.loc 2 151 44 view .LVU1048
 4006 01c8 0233     		adds	r3, r3, #2
 153:Menus.cpp     ****         screen.DrawPixel(29, i * 2, on);
 4007              		.loc 2 153 9 view .LVU1049
 4008              	.LVL266:
 4009              	.LBB1225:
  41:../../libdaisy/src/hid/disp/oled_display.h ****     {
 4010              		.loc 1 41 10 view .LVU1050
ARM GAS  C:\Users\VINCIU~1\AppData\Local\Temp\ccF8ydZb.s 			page 112


 4011              	.LBB1223:
 239:../../libdaisy/src/dev/oled_ssd130x.h ****     {
 4012              		.loc 6 239 10 view .LVU1051
 4013              	.LBB1221:
 241:../../libdaisy/src/dev/oled_ssd130x.h ****             return;
 4014              		.loc 6 241 9 is_stmt 0 view .LVU1052
 4015 01ca 3F2B     		cmp	r3, #63
 4016 01cc EBD9     		bls	.L365
 4017              	.LVL267:
 4018              	.L262:
 241:../../libdaisy/src/dev/oled_ssd130x.h ****             return;
 4019              		.loc 6 241 9 view .LVU1053
 4020              	.LBE1221:
 4021              	.LBE1223:
 4022              	.LBE1225:
 151:Menus.cpp     ****     for(int i = screen.Height() / 4 - 1; i < screen.Height(); i++)
 4023              		.loc 2 151 5 is_stmt 1 view .LVU1054
 151:Menus.cpp     ****     for(int i = screen.Height() / 4 - 1; i < screen.Height(); i++)
 4024              		.loc 2 151 44 view .LVU1055
 4025 01ce 0233     		adds	r3, r3, #2
 4026 01d0 802B     		cmp	r3, #128
 4027 01d2 E6D1     		bne	.L261
 4028              	.LBE1212:
 156:Menus.cpp     ****     if(encoderLeft.RisingEdge())
 4029              		.loc 2 156 5 view .LVU1056
 4030              	.LVL268:
 4031              	.LBB1227:
 4032              	.LBB1228:
 4033              	.LBI1228:
  42:../../libdaisy/src/hid/encoder.h ****     /** Returns true if the encoder was just pressed.
  43:../../libdaisy/src/hid/encoder.h **** */
  44:../../libdaisy/src/hid/encoder.h ****     inline bool RisingEdge() const { return sw_.RisingEdge(); }
 4034              		.loc 3 44 17 view .LVU1057
 4035              	.LBE1228:
 4036              	.LBE1227:
 4037              		.loc 3 44 38 view .LVU1058
 4038              	.LBB1496:
 4039              	.LBB1231:
 4040              	.LBB1229:
 4041              	.LBI1229:
 4042              		.loc 4 69 17 view .LVU1059
 4043              	.LBB1230:
 4044              		.loc 4 69 38 view .LVU1060
 4045              		.loc 4 69 38 is_stmt 0 view .LVU1061
 4046              	.LBE1230:
 4047              	.LBE1229:
 4048              	.LBE1231:
 156:Menus.cpp     ****     if(encoderLeft.RisingEdge())
 4049              		.loc 2 156 5 view .LVU1062
 4050 01d4 6B7C     		ldrb	r3, [r5, #17]	@ zero_extendqisi2
 4051 01d6 7F2B     		cmp	r3, #127
 4052 01d8 00F09E81 		beq	.L366
 4053              	.LBE1496:
 161:Menus.cpp     ****     else if(menuState == 0)
 4054              		.loc 2 161 10 is_stmt 1 view .LVU1063
 4055              	.LBB1497:
 4056              	.LBB1232:
ARM GAS  C:\Users\VINCIU~1\AppData\Local\Temp\ccF8ydZb.s 			page 113


 161:Menus.cpp     ****     else if(menuState == 0)
 4057              		.loc 2 161 13 is_stmt 0 view .LVU1064
 4058 01dc EB6E     		ldr	r3, [r5, #108]
 161:Menus.cpp     ****     else if(menuState == 0)
 4059              		.loc 2 161 10 view .LVU1065
 4060 01de 002B     		cmp	r3, #0
 4061 01e0 00F0DA80 		beq	.L367
 4062              	.LBE1232:
 4063              	.LBE1497:
 214:Menus.cpp     ****     else if(menuState == 1)
 4064              		.loc 2 214 10 is_stmt 1 view .LVU1066
 4065              	.LBB1498:
 4066              	.LBB1475:
 4067              	.LBB1233:
 4068 01e4 012B     		cmp	r3, #1
 4069 01e6 00F07282 		beq	.L368
 4070              	.LBE1233:
 4071              	.LBE1475:
 4072              	.LBE1498:
 247:Menus.cpp     ****     else if(menuState == 2)
 4073              		.loc 2 247 10 view .LVU1067
 4074              	.LBB1499:
 4075              	.LBB1476:
 4076              	.LBB1335:
 4077              	.LBB1234:
 4078 01ea 022B     		cmp	r3, #2
 4079 01ec 00F02582 		beq	.L369
 356:Menus.cpp     ****     else if(menuState == 3)
 4080              		.loc 2 356 10 view .LVU1068
 4081 01f0 032B     		cmp	r3, #3
 4082 01f2 40F09981 		bne	.L267
 364:Menus.cpp     ****         if(this->OscSelector == true)
 4083              		.loc 2 364 9 view .LVU1069
 4084 01f6 95F87430 		ldrb	r3, [r5, #116]	@ zero_extendqisi2
 366:Menus.cpp     ****             if(this->freqFine >= 1)
 4085              		.loc 2 366 13 is_stmt 0 view .LVU1070
 4086 01fa B7EE007A 		vmov.f32	s14, #1.0e+0
 364:Menus.cpp     ****         if(this->OscSelector == true)
 4087              		.loc 2 364 9 view .LVU1071
 4088 01fe 002B     		cmp	r3, #0
 4089 0200 00F0BB82 		beq	.L316
 366:Menus.cpp     ****             if(this->freqFine >= 1)
 4090              		.loc 2 366 13 is_stmt 1 view .LVU1072
 366:Menus.cpp     ****             if(this->freqFine >= 1)
 4091              		.loc 2 366 22 is_stmt 0 view .LVU1073
 4092 0204 D5ED517A 		vldr.32	s15, [r5, #324]
 366:Menus.cpp     ****             if(this->freqFine >= 1)
 4093              		.loc 2 366 13 view .LVU1074
 4094 0208 F4EEC77A 		vcmpe.f32	s15, s14
 4095 020c F1EE10FA 		vmrs	APSR_nzcv, FPSCR
 4096 0210 C0F20183 		blt	.L370
 4097 0214 F0EE477A 		vmov.f32	s15, s14
 4098              	.L317:
 374:Menus.cpp     ****             if(this->drawSliderFine >= 1)
 4099              		.loc 2 374 13 is_stmt 1 view .LVU1075
 4100 0218 F7EE006A 		vmov.f32	s13, #1.0e+0
 374:Menus.cpp     ****             if(this->drawSliderFine >= 1)
ARM GAS  C:\Users\VINCIU~1\AppData\Local\Temp\ccF8ydZb.s 			page 114


 4101              		.loc 2 374 22 is_stmt 0 view .LVU1076
 4102 021c 95ED1F7A 		vldr.32	s14, [r5, #124]
 374:Menus.cpp     ****             if(this->drawSliderFine >= 1)
 4103              		.loc 2 374 13 view .LVU1077
 4104 0220 B4EEE67A 		vcmpe.f32	s14, s13
 4105 0224 F1EE10FA 		vmrs	APSR_nzcv, FPSCR
 4106 0228 C0F2EC82 		blt	.L371
 4107 022c B0EE667A 		vmov.f32	s14, s13
 4108              	.L318:
 383:Menus.cpp     ****             this->freqFine += (((float)this->encoderRight.Increment()) / 32);
 4109              		.loc 2 383 13 is_stmt 1 view .LVU1078
 4110              	.LVL269:
 4111              	.LBB1235:
 4112              	.LBI1235:
  41:../../libdaisy/src/hid/encoder.h ****     /** Returns true if the encoder was just pressed.
 4113              		.loc 3 41 20 view .LVU1079
 4114              	.LBB1236:
  41:../../libdaisy/src/hid/encoder.h ****     /** Returns true if the encoder was just pressed.
 4115              		.loc 3 41 40 view .LVU1080
  41:../../libdaisy/src/hid/encoder.h ****     /** Returns true if the encoder was just pressed.
 4116              		.loc 3 41 40 is_stmt 0 view .LVU1081
 4117              	.LBE1236:
 4118              	.LBE1235:
 383:Menus.cpp     ****             this->freqFine += (((float)this->encoderRight.Increment()) / 32);
 4119              		.loc 2 383 33 view .LVU1082
 4120 0230 D5ED126A 		vldr.32	s13, [r5, #72]	@ int
 385:Menus.cpp     ****             sprintf(this->buffFine, "Fine_%d%%", (int)(freqFine * 100));
 4121              		.loc 2 385 20 view .LVU1083
 4122 0234 05F1D400 		add	r0, r5, #212
 383:Menus.cpp     ****             this->freqFine += (((float)this->encoderRight.Increment()) / 32);
 4123              		.loc 2 383 28 view .LVU1084
 4124 0238 DFED555A 		vldr.32	s11, .L386+56
 383:Menus.cpp     ****             this->freqFine += (((float)this->encoderRight.Increment()) / 32);
 4125              		.loc 2 383 33 view .LVU1085
 4126 023c F8EEE66A 		vcvt.f32.s32	s13, s13
 385:Menus.cpp     ****             sprintf(this->buffFine, "Fine_%d%%", (int)(freqFine * 100));
 4127              		.loc 2 385 65 view .LVU1086
 4128 0240 9FED4F6A 		vldr.32	s12, .L386+40
 385:Menus.cpp     ****             sprintf(this->buffFine, "Fine_%d%%", (int)(freqFine * 100));
 4129              		.loc 2 385 20 view .LVU1087
 4130 0244 4F49     		ldr	r1, .L386+44
 383:Menus.cpp     ****             this->freqFine += (((float)this->encoderRight.Increment()) / 32);
 4131              		.loc 2 383 28 view .LVU1088
 4132 0246 E6EEA57A 		vfma.f32	s15, s13, s11
 384:Menus.cpp     ****             this->drawSliderFine += (((float)this->encoderRight.Increment()) / 32);
 4133              		.loc 2 384 34 view .LVU1089
 4134 024a A6EEA57A 		vfma.f32	s14, s13, s11
 385:Menus.cpp     ****             sprintf(this->buffFine, "Fine_%d%%", (int)(freqFine * 100));
 4135              		.loc 2 385 65 view .LVU1090
 4136 024e 67EE866A 		vmul.f32	s13, s15, s12
 383:Menus.cpp     ****             this->freqFine += (((float)this->encoderRight.Increment()) / 32);
 4137              		.loc 2 383 28 view .LVU1091
 4138 0252 C5ED517A 		vstr.32	s15, [r5, #324]
 384:Menus.cpp     ****             this->drawSliderFine += (((float)this->encoderRight.Increment()) / 32);
 4139              		.loc 2 384 13 is_stmt 1 view .LVU1092
 4140              	.LVL270:
 384:Menus.cpp     ****             this->drawSliderFine += (((float)this->encoderRight.Increment()) / 32);
ARM GAS  C:\Users\VINCIU~1\AppData\Local\Temp\ccF8ydZb.s 			page 115


 4141              		.loc 2 384 13 is_stmt 0 view .LVU1093
 4142              	.LBE1234:
 4143              	.LBE1335:
 4144              	.LBE1476:
 4145              	.LBE1499:
  41:../../libdaisy/src/hid/encoder.h ****     /** Returns true if the encoder was just pressed.
 4146              		.loc 3 41 40 is_stmt 1 view .LVU1094
 4147              	.LBB1500:
 4148              	.LBB1477:
 4149              	.LBB1336:
 4150              	.LBB1319:
 384:Menus.cpp     ****             this->drawSliderFine += (((float)this->encoderRight.Increment()) / 32);
 4151              		.loc 2 384 34 is_stmt 0 view .LVU1095
 4152 0256 85ED1F7A 		vstr.32	s14, [r5, #124]
 385:Menus.cpp     ****             sprintf(this->buffFine, "Fine_%d%%", (int)(freqFine * 100));
 4153              		.loc 2 385 13 is_stmt 1 view .LVU1096
 385:Menus.cpp     ****             sprintf(this->buffFine, "Fine_%d%%", (int)(freqFine * 100));
 4154              		.loc 2 385 20 is_stmt 0 view .LVU1097
 4155 025a FDEEE67A 		vcvt.s32.f32	s15, s13
 4156 025e 17EE902A 		vmov	r2, s15	@ int
 4157 0262 FFF7FEFF 		bl	sprintf
 4158              	.LVL271:
 4159              	.L319:
 411:Menus.cpp     ****         screen.DrawRect(60,
 4160              		.loc 2 411 9 is_stmt 1 view .LVU1098
 411:Menus.cpp     ****         screen.DrawRect(60,
 4161              		.loc 2 411 24 is_stmt 0 view .LVU1099
 4162 0266 95F86831 		ldrb	r3, [r5, #360]	@ zero_extendqisi2
 4163 026a 0022     		movs	r2, #0
 4164 026c 3F21     		movs	r1, #63
 4165 026e 2046     		mov	r0, r4
 4166 0270 CDE90132 		strd	r3, r2, [sp, #4]
 4167 0274 0091     		str	r1, [sp]
 4168 0276 7F23     		movs	r3, #127
 4169 0278 1D22     		movs	r2, #29
 4170 027a 3C21     		movs	r1, #60
 4171 027c FFF7FEFF 		bl	_ZN5daisy25OneBitGraphicsDisplayImplINS_11OledDisplayINS_13SSD130xDriverILj128ELj64ENS_24SSD130
 4172              	.LVL272:
 4173 0280 52E1     		b	.L267
 4174              	.LVL273:
 4175              	.L254:
 411:Menus.cpp     ****         screen.DrawRect(60,
 4176              		.loc 2 411 24 view .LVU1100
 4177              	.LBE1319:
 4178              	.LBE1336:
 4179              	.LBE1477:
 4180              	.LBE1500:
 4181              	.LBB1501:
 4182              	.LBB1196:
 4183              	.LBB1194:
 4184              	.LBB1192:
 4185              	.LBB1190:
 4186              	.LBB1189:
 246:../../libdaisy/src/dev/oled_ssd130x.h ****     }
 4187              		.loc 6 246 42 view .LVU1101
 4188 0282 22F02002 		bic	r2, r2, #32
 4189 0286 8CF89421 		strb	r2, [ip, #404]
ARM GAS  C:\Users\VINCIU~1\AppData\Local\Temp\ccF8ydZb.s 			page 116


 4190 028a 63E7     		b	.L255
 4191              	.LVL274:
 4192              	.L259:
 246:../../libdaisy/src/dev/oled_ssd130x.h ****     }
 4193              		.loc 6 246 42 view .LVU1102
 4194              	.LBE1189:
 4195              	.LBE1190:
 4196              	.LBE1192:
 4197              	.LBE1194:
 4198              	.LBE1196:
 4199              	.LBE1501:
 4200              	.LBB1502:
 4201              	.LBB1211:
 4202              	.LBB1209:
 4203              	.LBB1207:
 4204              	.LBB1205:
 4205              	.LBB1203:
 4206 028c 9CF85010 		ldrb	r1, [ip, #80]	@ zero_extendqisi2
 246:../../libdaisy/src/dev/oled_ssd130x.h ****     }
 4207              		.loc 6 246 49 view .LVU1103
 4208 0290 08FA0EF8 		lsl	r8, r8, lr
 246:../../libdaisy/src/dev/oled_ssd130x.h ****     }
 4209              		.loc 6 246 42 view .LVU1104
 4210 0294 21EA0808 		bic	r8, r1, r8
 4211 0298 8CF85080 		strb	r8, [ip, #80]
 4212 029c 7AE7     		b	.L260
 4213              	.LVL275:
 4214              	.L263:
 246:../../libdaisy/src/dev/oled_ssd130x.h ****     }
 4215              		.loc 6 246 42 view .LVU1105
 4216              	.LBE1203:
 4217              	.LBE1205:
 4218              	.LBE1207:
 4219              	.LBE1209:
 4220              	.LBE1211:
 4221              	.LBE1502:
 4222              	.LBB1503:
 4223              	.LBB1226:
 4224              	.LBB1224:
 4225              	.LBB1222:
 4226              	.LBB1220:
 4227              	.LBB1218:
 4228 029e 9CF83120 		ldrb	r2, [ip, #49]	@ zero_extendqisi2
 246:../../libdaisy/src/dev/oled_ssd130x.h ****     }
 4229              		.loc 6 246 49 view .LVU1106
 4230 02a2 08FA0EF8 		lsl	r8, r8, lr
 246:../../libdaisy/src/dev/oled_ssd130x.h ****     }
 4231              		.loc 6 246 42 view .LVU1107
 4232 02a6 22EA0808 		bic	r8, r2, r8
 4233 02aa 8CF83180 		strb	r8, [ip, #49]
 4234 02ae 8BE7     		b	.L264
 4235              	.LVL276:
 4236              	.L251:
 246:../../libdaisy/src/dev/oled_ssd130x.h ****     }
 4237              		.loc 6 246 42 view .LVU1108
 4238              	.LBE1218:
 4239              	.LBE1220:
ARM GAS  C:\Users\VINCIU~1\AppData\Local\Temp\ccF8ydZb.s 			page 117


 4240              	.LBE1222:
 4241              	.LBE1224:
 4242              	.LBE1226:
 4243              	.LBE1503:
 128:Menus.cpp     ****         screen.drawSlider(70, 7, 50, 3, false, (this->drawSliderSemi2) / 40);
 4244              		.loc 2 128 9 is_stmt 1 view .LVU1109
 128:Menus.cpp     ****         screen.drawSlider(70, 7, 50, 3, false, (this->drawSliderSemi2) / 40);
 4245              		.loc 2 128 26 is_stmt 0 view .LVU1110
 4246 02b0 D5ED202A 		vldr.32	s5, [r5, #128]
 4247 02b4 2046     		mov	r0, r4
 4248 02b6 9FED378A 		vldr.32	s16, .L386+60
 4249 02ba F0EE081A 		vmov.f32	s3, #3.0e+0
 4250 02be F1EE0C0A 		vmov.f32	s1, #7.0e+0
 4251 02c2 9FED322A 		vldr.32	s4, .L386+52
 4252 02c6 C2EE882A 		vdiv.f32	s5, s5, s16
 4253 02ca 9FED251A 		vldr.32	s2, .L386+8
 4254 02ce 9FED250A 		vldr.32	s0, .L386+12
 4255 02d2 FFF7FEFF 		bl	_ZN23OledDisplayExtravaganza10drawSliderEffffff
 4256              	.LVL277:
 129:Menus.cpp     ****         screen.drawSlider(70, 40, 50, 3, false, drawSliderFine2);
 4257              		.loc 2 129 9 is_stmt 1 view .LVU1111
 129:Menus.cpp     ****         screen.drawSlider(70, 40, 50, 3, false, drawSliderFine2);
 4258              		.loc 2 129 26 is_stmt 0 view .LVU1112
 4259 02d6 D5ED212A 		vldr.32	s5, [r5, #132]
 4260 02da 9FED2C2A 		vldr.32	s4, .L386+52
 4261 02de 2046     		mov	r0, r4
 4262 02e0 9FED1F1A 		vldr.32	s2, .L386+8
 4263 02e4 F0EE081A 		vmov.f32	s3, #3.0e+0
 4264 02e8 9FED1E0A 		vldr.32	s0, .L386+12
 4265 02ec F0EE480A 		vmov.f32	s1, s16
 133:Menus.cpp     ****         screen.WriteString(this->buff2, Font_6x8, false);
 4266              		.loc 2 133 27 view .LVU1113
 4267 02f0 DFF89490 		ldr	r9, .L386+48
 129:Menus.cpp     ****         screen.drawSlider(70, 40, 50, 3, false, drawSliderFine2);
 4268              		.loc 2 129 26 view .LVU1114
 4269 02f4 FFF7FEFF 		bl	_ZN23OledDisplayExtravaganza10drawSliderEffffff
 4270              	.LVL278:
 130:Menus.cpp     ****         screen.drawVerticalToggle(13, 51, 8, false, this->toggleOsc2, "");
 4271              		.loc 2 130 9 is_stmt 1 view .LVU1115
 130:Menus.cpp     ****         screen.drawVerticalToggle(13, 51, 8, false, this->toggleOsc2, "");
 4272              		.loc 2 130 34 is_stmt 0 view .LVU1116
 4273 02f8 B2EE001A 		vmov.f32	s2, #8.0e+0
 4274 02fc B2EE0A0A 		vmov.f32	s0, #1.3e+1
 4275 0300 DFED190A 		vldr.32	s1, .L386+16
 4276 0304 95F89920 		ldrb	r2, [r5, #153]	@ zero_extendqisi2
 4277 0308 4146     		mov	r1, r8
 4278 030a 2046     		mov	r0, r4
 4279 030c 134B     		ldr	r3, .L386+4
 4280 030e FFF7FEFF 		bl	_ZN23OledDisplayExtravaganza18drawVerticalToggleEfffbbPKc
 4281              	.LVL279:
 131:Menus.cpp     ****         screen.WaveIcons(35, 42, 55, this->selectedWave2, false);
 4282              		.loc 2 131 9 is_stmt 1 view .LVU1117
 131:Menus.cpp     ****         screen.WaveIcons(35, 42, 55, this->selectedWave2, false);
 4283              		.loc 2 131 25 is_stmt 0 view .LVU1118
 4284 0312 CDF80480 		str	r8, [sp, #4]
 4285 0316 D5F8A030 		ldr	r3, [r5, #160]
 4286 031a 2046     		mov	r0, r4
ARM GAS  C:\Users\VINCIU~1\AppData\Local\Temp\ccF8ydZb.s 			page 118


 4287 031c 2A22     		movs	r2, #42
 4288 031e 2321     		movs	r1, #35
 4289 0320 0093     		str	r3, [sp]
 4290 0322 3723     		movs	r3, #55
 4291 0324 FFF7FEFF 		bl	_ZN23OledDisplayExtravaganza9WaveIconsEiiiib
 4292              	.LVL280:
 132:Menus.cpp     ****         screen.SetCursor(70, 17);
 4293              		.loc 2 132 9 is_stmt 1 view .LVU1119
 4294              	.LBB1504:
 4295              	.LBI1504:
 131:../../libdaisy/src/hid/disp/display.h ****     {
 4296              		.loc 5 131 10 view .LVU1120
 4297              	.LBB1505:
 133:../../libdaisy/src/hid/disp/display.h ****         currentY_ = (y >= Height()) ? Height() - 1 : y;
 4298              		.loc 5 133 9 view .LVU1121
 134:../../libdaisy/src/hid/disp/display.h ****     }
 4299              		.loc 5 134 9 view .LVU1122
 133:../../libdaisy/src/hid/disp/display.h ****         currentY_ = (y >= Height()) ? Height() - 1 : y;
 4300              		.loc 5 133 19 is_stmt 0 view .LVU1123
 4301 0328 104B     		ldr	r3, .L386+20
 4302              	.LBE1505:
 4303              	.LBE1504:
 133:Menus.cpp     ****         screen.WriteString(this->buff2, Font_6x8, false);
 4304              		.loc 2 133 27 view .LVU1124
 4305 032a CDF80080 		str	r8, [sp]
 4306 032e 05F1BC01 		add	r1, r5, #188
 4307              	.LBB1507:
 4308              	.LBB1506:
 133:../../libdaisy/src/hid/disp/display.h ****         currentY_ = (y >= Height()) ? Height() - 1 : y;
 4309              		.loc 5 133 19 view .LVU1125
 4310 0332 6360     		str	r3, [r4, #4]
 4311              	.LVL281:
 133:../../libdaisy/src/hid/disp/display.h ****         currentY_ = (y >= Height()) ? Height() - 1 : y;
 4312              		.loc 5 133 19 view .LVU1126
 4313              	.LBE1506:
 4314              	.LBE1507:
 133:Menus.cpp     ****         screen.WriteString(this->buff2, Font_6x8, false);
 4315              		.loc 2 133 9 is_stmt 1 view .LVU1127
 133:Menus.cpp     ****         screen.WriteString(this->buff2, Font_6x8, false);
 4316              		.loc 2 133 27 is_stmt 0 view .LVU1128
 4317 0334 2046     		mov	r0, r4
 4318 0336 99E80C00 		ldm	r9, {r2, r3}
 4319 033a FFF7FEFF 		bl	_ZN5daisy25OneBitGraphicsDisplayImplINS_11OledDisplayINS_13SSD130xDriverILj128ELj64ENS_24SSD130
 4320              	.LVL282:
 134:Menus.cpp     ****         screen.SetCursor(70, 50);
 4321              		.loc 2 134 9 is_stmt 1 view .LVU1129
 4322              	.LBB1508:
 4323              	.LBI1508:
 131:../../libdaisy/src/hid/disp/display.h ****     {
 4324              		.loc 5 131 10 view .LVU1130
 4325              	.LBB1509:
 133:../../libdaisy/src/hid/disp/display.h ****         currentY_ = (y >= Height()) ? Height() - 1 : y;
 4326              		.loc 5 133 9 view .LVU1131
 134:../../libdaisy/src/hid/disp/display.h ****     }
 4327              		.loc 5 134 9 view .LVU1132
 133:../../libdaisy/src/hid/disp/display.h ****         currentY_ = (y >= Height()) ? Height() - 1 : y;
 4328              		.loc 5 133 19 is_stmt 0 view .LVU1133
ARM GAS  C:\Users\VINCIU~1\AppData\Local\Temp\ccF8ydZb.s 			page 119


 4329 033e 0C4B     		ldr	r3, .L386+24
 4330              	.LBE1509:
 4331              	.LBE1508:
 135:Menus.cpp     ****         screen.WriteString(this->buffFine2, Font_6x8, false);
 4332              		.loc 2 135 27 view .LVU1134
 4333 0340 CDF80080 		str	r8, [sp]
 4334 0344 05F1EC01 		add	r1, r5, #236
 4335              	.LBB1511:
 4336              	.LBB1510:
 133:../../libdaisy/src/hid/disp/display.h ****         currentY_ = (y >= Height()) ? Height() - 1 : y;
 4337              		.loc 5 133 19 view .LVU1135
 4338 0348 6360     		str	r3, [r4, #4]
 4339              	.LVL283:
 133:../../libdaisy/src/hid/disp/display.h ****         currentY_ = (y >= Height()) ? Height() - 1 : y;
 4340              		.loc 5 133 19 view .LVU1136
 4341              	.LBE1510:
 4342              	.LBE1511:
 135:Menus.cpp     ****         screen.WriteString(this->buffFine2, Font_6x8, false);
 4343              		.loc 2 135 9 is_stmt 1 view .LVU1137
 135:Menus.cpp     ****         screen.WriteString(this->buffFine2, Font_6x8, false);
 4344              		.loc 2 135 27 is_stmt 0 view .LVU1138
 4345 034a 2046     		mov	r0, r4
 4346 034c 99E80C00 		ldm	r9, {r2, r3}
 4347 0350 FFF7FEFF 		bl	_ZN5daisy25OneBitGraphicsDisplayImplINS_11OledDisplayINS_13SSD130xDriverILj128ELj64ENS_24SSD130
 4348              	.LVL284:
 4349 0354 E4E6     		b	.L252
 4350              	.L387:
 4351 0356 00BF     		.align	2
 4352              	.L386:
 4353 0358 00003842 		.word	1110966272
 4354 035c 00000000 		.word	.LC3
 4355 0360 00004842 		.word	1112014848
 4356 0364 00008C42 		.word	1116471296
 4357 0368 00004C42 		.word	1112276992
 4358 036c 46001100 		.word	1114182
 4359 0370 46003200 		.word	3276870
 4360 0374 04000800 		.word	524292
 4361 0378 00000000 		.word	Font_7x10
 4362 037c 04000000 		.word	.LC4
 4363 0380 0000C842 		.word	1120403456
 4364 0384 14000000 		.word	.LC6
 4365 0388 00000000 		.word	Font_6x8
 4366 038c 00000000 		.word	0
 4367 0390 0000003D 		.word	1023410176
 4368 0394 00002042 		.word	1109393408
 4369              	.L367:
 4370              	.LBB1512:
 4371              	.LBB1478:
 163:Menus.cpp     ****         if(this->OscSelector == true)
 4372              		.loc 2 163 9 is_stmt 1 view .LVU1139
 4373 0398 95F87430 		ldrb	r3, [r5, #116]	@ zero_extendqisi2
 4374 039c 002B     		cmp	r3, #0
 4375 039e 40F01781 		bne	.L372
 188:Menus.cpp     ****             if(this->noteSemiAdd2 > 32)
 4376              		.loc 2 188 13 view .LVU1140
 188:Menus.cpp     ****             if(this->noteSemiAdd2 > 32)
 4377              		.loc 2 188 22 is_stmt 0 view .LVU1141
ARM GAS  C:\Users\VINCIU~1\AppData\Local\Temp\ccF8ydZb.s 			page 120


 4378 03a2 D5F83831 		ldr	r3, [r5, #312]
 188:Menus.cpp     ****             if(this->noteSemiAdd2 > 32)
 4379              		.loc 2 188 13 view .LVU1142
 4380 03a6 202B     		cmp	r3, #32
 4381 03a8 00F3A281 		bgt	.L330
 192:Menus.cpp     ****             if(this->noteSemiAdd2 < 0)
 4382              		.loc 2 192 13 is_stmt 1 view .LVU1143
 4383 03ac 002B     		cmp	r3, #0
 4384 03ae 80F21482 		bge	.L373
 4385 03b2 5FED0A7A 		vldr.32	s15, .L386+52
 4386              	.L272:
 196:Menus.cpp     ****             if(this->drawSliderSemi2 >= 40)
 4387              		.loc 2 196 13 view .LVU1144
 196:Menus.cpp     ****             if(this->drawSliderSemi2 >= 40)
 4388              		.loc 2 196 22 is_stmt 0 view .LVU1145
 4389 03b6 95ED207A 		vldr.32	s14, [r5, #128]
 196:Menus.cpp     ****             if(this->drawSliderSemi2 >= 40)
 4390              		.loc 2 196 13 view .LVU1146
 4391 03ba 5FED0A6A 		vldr.32	s13, .L386+60
 4392 03be B4EEE67A 		vcmpe.f32	s14, s13
 4393 03c2 F1EE10FA 		vmrs	APSR_nzcv, FPSCR
 4394 03c6 80F29081 		bge	.L332
 200:Menus.cpp     ****             if(this->drawSliderSemi2 < 0)
 4395              		.loc 2 200 13 is_stmt 1 view .LVU1147
 4396 03ca B5EEC07A 		vcmpe.f32	s14, #0
 4397 03ce F1EE10FA 		vmrs	APSR_nzcv, FPSCR
 4398 03d2 01D5     		bpl	.L273
 4399 03d4 1FED137A 		vldr.32	s14, .L386+52
 4400              	.L273:
 204:Menus.cpp     ****             this->noteSemiAdd2 += (float)this->encoderRight.Increment();
 4401              		.loc 2 204 13 view .LVU1148
 4402              	.LVL285:
 4403              	.LBB1337:
 4404              	.LBI1337:
  41:../../libdaisy/src/hid/encoder.h ****     /** Returns true if the encoder was just pressed.
 4405              		.loc 3 41 20 view .LVU1149
 4406              	.LBB1338:
  41:../../libdaisy/src/hid/encoder.h ****     /** Returns true if the encoder was just pressed.
 4407              		.loc 3 41 40 view .LVU1150
  41:../../libdaisy/src/hid/encoder.h ****     /** Returns true if the encoder was just pressed.
 4408              		.loc 3 41 40 is_stmt 0 view .LVU1151
 4409              	.LBE1338:
 4410              	.LBE1337:
 204:Menus.cpp     ****             this->noteSemiAdd2 += (float)this->encoderRight.Increment();
 4411              		.loc 2 204 35 view .LVU1152
 4412 03d8 D5ED126A 		vldr.32	s13, [r5, #72]	@ int
 207:Menus.cpp     ****             sprintf(this->buff2, "Semi_%dst", this->noteSemiAdd2);
 4413              		.loc 2 207 20 view .LVU1153
 4414 03dc 05F1BC00 		add	r0, r5, #188
 206:Menus.cpp     ****                 += (((float)this->encoderRight.Increment()) / 32) * 40;
 4415              		.loc 2 206 61 view .LVU1154
 4416 03e0 1FED156A 		vldr.32	s12, .L386+56
 204:Menus.cpp     ****             this->noteSemiAdd2 += (float)this->encoderRight.Increment();
 4417              		.loc 2 204 35 view .LVU1155
 4418 03e4 F8EEE66A 		vcvt.f32.s32	s13, s13
 206:Menus.cpp     ****                 += (((float)this->encoderRight.Increment()) / 32) * 40;
 4419              		.loc 2 206 17 view .LVU1156
ARM GAS  C:\Users\VINCIU~1\AppData\Local\Temp\ccF8ydZb.s 			page 121


 4420 03e8 5FED165A 		vldr.32	s11, .L386+60
 207:Menus.cpp     ****             sprintf(this->buff2, "Semi_%dst", this->noteSemiAdd2);
 4421              		.loc 2 207 20 view .LVU1157
 4422 03ec C349     		ldr	r1, .L388
 206:Menus.cpp     ****                 += (((float)this->encoderRight.Increment()) / 32) * 40;
 4423              		.loc 2 206 61 view .LVU1158
 4424 03ee 26EE866A 		vmul.f32	s12, s13, s12
 204:Menus.cpp     ****             this->noteSemiAdd2 += (float)this->encoderRight.Increment();
 4425              		.loc 2 204 32 view .LVU1159
 4426 03f2 77EEA67A 		vadd.f32	s15, s15, s13
 206:Menus.cpp     ****                 += (((float)this->encoderRight.Increment()) / 32) * 40;
 4427              		.loc 2 206 17 view .LVU1160
 4428 03f6 A6EE257A 		vfma.f32	s14, s12, s11
 204:Menus.cpp     ****             this->noteSemiAdd2 += (float)this->encoderRight.Increment();
 4429              		.loc 2 204 32 view .LVU1161
 4430 03fa FDEEE77A 		vcvt.s32.f32	s15, s15
 4431 03fe 17EE902A 		vmov	r2, s15	@ int
 4432 0402 C5ED4E7A 		vstr.32	s15, [r5, #312]	@ int
 205:Menus.cpp     ****             this->drawSliderSemi2
 4433              		.loc 2 205 13 is_stmt 1 view .LVU1162
 4434              	.LVL286:
 205:Menus.cpp     ****             this->drawSliderSemi2
 4435              		.loc 2 205 13 is_stmt 0 view .LVU1163
 4436              	.LBE1478:
 4437              	.LBE1512:
  41:../../libdaisy/src/hid/encoder.h ****     /** Returns true if the encoder was just pressed.
 4438              		.loc 3 41 40 is_stmt 1 view .LVU1164
 4439              	.LBB1513:
 4440              	.LBB1479:
 206:Menus.cpp     ****                 += (((float)this->encoderRight.Increment()) / 32) * 40;
 4441              		.loc 2 206 17 is_stmt 0 view .LVU1165
 4442 0406 85ED207A 		vstr.32	s14, [r5, #128]
 207:Menus.cpp     ****             sprintf(this->buff2, "Semi_%dst", this->noteSemiAdd2);
 4443              		.loc 2 207 13 is_stmt 1 view .LVU1166
 207:Menus.cpp     ****             sprintf(this->buff2, "Semi_%dst", this->noteSemiAdd2);
 4444              		.loc 2 207 20 is_stmt 0 view .LVU1167
 4445 040a FFF7FEFF 		bl	sprintf
 4446              	.LVL287:
 211:Menus.cpp     ****         screen.DrawRect(
 4447              		.loc 2 211 9 is_stmt 1 view .LVU1168
 211:Menus.cpp     ****         screen.DrawRect(
 4448              		.loc 2 211 24 is_stmt 0 view .LVU1169
 4449 040e 95F86801 		ldrb	r0, [r5, #360]	@ zero_extendqisi2
 4450              	.LVL288:
 4451              	.LBB1339:
 4452              	.LBI1339:
 217:../../libdaisy/src/hid/disp/display.h ****                   uint_fast8_t y1,
 4453              		.loc 5 217 10 is_stmt 1 view .LVU1170
 4454              	.LBB1340:
 4455              	.LBI1340:
 181:../../libdaisy/src/hid/disp/display.h ****                   uint_fast8_t y1,
 4456              		.loc 5 181 10 view .LVU1171
 4457              	.LBB1341:
 4458              	.LBB1342:
 4459              	.LBI1342:
  41:../../libdaisy/src/hid/disp/oled_display.h ****     {
 4460              		.loc 1 41 10 view .LVU1172
ARM GAS  C:\Users\VINCIU~1\AppData\Local\Temp\ccF8ydZb.s 			page 122


 4461              	.LBB1343:
 4462              	.LBI1343:
 239:../../libdaisy/src/dev/oled_ssd130x.h ****     {
 4463              		.loc 6 239 10 view .LVU1173
 4464              	.LBB1344:
 244:../../libdaisy/src/dev/oled_ssd130x.h ****         else
 4465              		.loc 6 244 42 is_stmt 0 view .LVU1174
 4466 0412 94F89320 		ldrb	r2, [r4, #147]	@ zero_extendqisi2
 243:../../libdaisy/src/dev/oled_ssd130x.h ****             buffer_[x + (y / 8) * width] |= (1 << (y % 8));
 4467              		.loc 6 243 9 view .LVU1175
 4468 0416 0028     		cmp	r0, #0
 4469 0418 00F00C81 		beq	.L274
 4470              	.LVL289:
 4471              	.L381:
 244:../../libdaisy/src/dev/oled_ssd130x.h ****         else
 4472              		.loc 6 244 42 view .LVU1176
 4473 041c 42F00102 		orr	r2, r2, #1
 4474              	.L275:
 244:../../libdaisy/src/dev/oled_ssd130x.h ****         else
 4475              		.loc 6 244 42 view .LVU1177
 4476 0420 04F14F03 		add	r3, r4, #79
 4477 0424 04F19201 		add	r1, r4, #146
 4478 0428 84F89320 		strb	r2, [r4, #147]
 4479              	.LVL290:
 244:../../libdaisy/src/dev/oled_ssd130x.h ****         else
 4480              		.loc 6 244 42 view .LVU1178
 4481              	.LBE1344:
 4482              	.LBE1343:
 4483              	.LBE1342:
 199:../../libdaisy/src/hid/disp/display.h ****         {
 4484              		.loc 5 199 26 is_stmt 1 view .LVU1179
 4485 042c 05E0     		b	.L278
 4486              	.LVL291:
 4487              	.L375:
 4488              	.LBB1349:
 4489              	.LBB1350:
 4490              	.LBB1351:
 244:../../libdaisy/src/dev/oled_ssd130x.h ****         else
 4491              		.loc 6 244 42 is_stmt 0 view .LVU1180
 4492 042e 42F00102 		orr	r2, r2, #1
 4493 0432 03F8012F 		strb	r2, [r3, #1]!
 4494              	.LVL292:
 244:../../libdaisy/src/dev/oled_ssd130x.h ****         else
 4495              		.loc 6 244 42 view .LVU1181
 4496              	.LBE1351:
 4497              	.LBE1350:
 4498              	.LBE1349:
 199:../../libdaisy/src/hid/disp/display.h ****         {
 4499              		.loc 5 199 26 is_stmt 1 view .LVU1182
 4500 0436 9942     		cmp	r1, r3
 4501 0438 08D0     		beq	.L374
 4502              	.LVL293:
 4503              	.L278:
 4504              	.LBB1357:
 4505              	.LBI1349:
  41:../../libdaisy/src/hid/disp/oled_display.h ****     {
 4506              		.loc 1 41 10 view .LVU1183
ARM GAS  C:\Users\VINCIU~1\AppData\Local\Temp\ccF8ydZb.s 			page 123


 4507              	.LBB1356:
 4508              	.LBI1350:
 239:../../libdaisy/src/dev/oled_ssd130x.h ****     {
 4509              		.loc 6 239 10 view .LVU1184
 4510              	.LBB1355:
 4511              	.LBB1352:
 4512              	.LBI1352:
 239:../../libdaisy/src/dev/oled_ssd130x.h ****     {
 4513              		.loc 6 239 10 view .LVU1185
 239:../../libdaisy/src/dev/oled_ssd130x.h ****     {
 4514              		.loc 6 239 10 is_stmt 0 view .LVU1186
 4515              	.LBE1352:
 244:../../libdaisy/src/dev/oled_ssd130x.h ****         else
 4516              		.loc 6 244 42 view .LVU1187
 4517 043a 5A78     		ldrb	r2, [r3, #1]	@ zero_extendqisi2
 243:../../libdaisy/src/dev/oled_ssd130x.h ****             buffer_[x + (y / 8) * width] |= (1 << (y % 8));
 4518              		.loc 6 243 9 view .LVU1188
 4519 043c 0028     		cmp	r0, #0
 4520 043e F6D1     		bne	.L375
 4521              	.LBB1354:
 4522              	.LBB1353:
 246:../../libdaisy/src/dev/oled_ssd130x.h ****     }
 4523              		.loc 6 246 42 view .LVU1189
 4524 0440 02F0FE02 		and	r2, r2, #254
 4525 0444 03F8012F 		strb	r2, [r3, #1]!
 4526              	.LVL294:
 246:../../libdaisy/src/dev/oled_ssd130x.h ****     }
 4527              		.loc 6 246 42 view .LVU1190
 4528              	.LBE1353:
 4529              	.LBE1354:
 4530              	.LBE1355:
 4531              	.LBE1356:
 4532              	.LBE1357:
 199:../../libdaisy/src/hid/disp/display.h ****         {
 4533              		.loc 5 199 26 is_stmt 1 view .LVU1191
 4534 0448 9942     		cmp	r1, r3
 4535 044a F6D1     		bne	.L278
 4536              	.LVL295:
 4537              	.L374:
 199:../../libdaisy/src/hid/disp/display.h ****         {
 4538              		.loc 5 199 26 is_stmt 0 view .LVU1192
 4539              	.LBE1341:
 4540              	.LBE1340:
 4541              	.LBB1360:
 4542              	.LBI1360:
 181:../../libdaisy/src/hid/disp/display.h ****                   uint_fast8_t y1,
 4543              		.loc 5 181 10 is_stmt 1 view .LVU1193
 4544              	.LBB1361:
 4545              	.LBB1362:
 4546              	.LBI1362:
  41:../../libdaisy/src/hid/disp/oled_display.h ****     {
 4547              		.loc 1 41 10 view .LVU1194
 4548              	.LBB1363:
 4549              	.LBI1363:
 239:../../libdaisy/src/dev/oled_ssd130x.h ****     {
 4550              		.loc 6 239 10 view .LVU1195
 4551              	.LBB1364:
ARM GAS  C:\Users\VINCIU~1\AppData\Local\Temp\ccF8ydZb.s 			page 124


 244:../../libdaisy/src/dev/oled_ssd130x.h ****         else
 4552              		.loc 6 244 42 is_stmt 0 view .LVU1196
 4553 044c 94F81322 		ldrb	r2, [r4, #531]	@ zero_extendqisi2
 243:../../libdaisy/src/dev/oled_ssd130x.h ****             buffer_[x + (y / 8) * width] |= (1 << (y % 8));
 4554              		.loc 6 243 9 view .LVU1197
 4555 0450 0028     		cmp	r0, #0
 4556 0452 00F03981 		beq	.L279
 4557              	.LVL296:
 244:../../libdaisy/src/dev/oled_ssd130x.h ****         else
 4558              		.loc 6 244 42 view .LVU1198
 4559 0456 42F02002 		orr	r2, r2, #32
 4560              	.LVL297:
 4561              	.L280:
 244:../../libdaisy/src/dev/oled_ssd130x.h ****         else
 4562              		.loc 6 244 42 view .LVU1199
 4563              	.LBE1364:
 4564              	.LBE1363:
 4565              	.LBE1362:
 4566              	.LBE1361:
 4567              	.LBE1360:
 4568              	.LBE1339:
 4569 045a 0023     		movs	r3, #0
 4570 045c 84F81322 		strb	r2, [r4, #531]
 4571              	.LVL298:
 4572              	.LBB1454:
 4573              	.LBB1399:
 4574              	.LBB1397:
 199:../../libdaisy/src/hid/disp/display.h ****         {
 4575              		.loc 5 199 26 is_stmt 1 view .LVU1200
 4576 0460 05E0     		b	.L283
 4577              	.LVL299:
 4578              	.L377:
 4579              	.LBB1369:
 4580              	.LBB1370:
 4581              	.LBB1371:
 244:../../libdaisy/src/dev/oled_ssd130x.h ****         else
 4582              		.loc 6 244 42 is_stmt 0 view .LVU1201
 4583 0462 0A7D     		ldrb	r2, [r1, #20]	@ zero_extendqisi2
 4584              	.LBE1371:
 4585              	.LBE1370:
 4586              	.LBE1369:
 212:../../libdaisy/src/hid/disp/display.h ****             }
 4587              		.loc 5 212 20 view .LVU1202
 4588 0464 0133     		adds	r3, r3, #1
 4589              	.LVL300:
 4590              	.LBB1391:
 4591              	.LBB1386:
 4592              	.LBB1381:
 244:../../libdaisy/src/dev/oled_ssd130x.h ****         else
 4593              		.loc 6 244 42 view .LVU1203
 4594 0466 1543     		orrs	r5, r5, r2
 4595              	.LBE1381:
 4596              	.LBE1386:
 4597              	.LBE1391:
 199:../../libdaisy/src/hid/disp/display.h ****         {
 4598              		.loc 5 199 26 view .LVU1204
 4599 0468 1D2B     		cmp	r3, #29
ARM GAS  C:\Users\VINCIU~1\AppData\Local\Temp\ccF8ydZb.s 			page 125


 4600              	.LBB1392:
 4601              	.LBB1387:
 4602              	.LBB1382:
 244:../../libdaisy/src/dev/oled_ssd130x.h ****         else
 4603              		.loc 6 244 42 view .LVU1205
 4604 046a 0D75     		strb	r5, [r1, #20]
 4605              	.LVL301:
 244:../../libdaisy/src/dev/oled_ssd130x.h ****         else
 4606              		.loc 6 244 42 view .LVU1206
 4607              	.LBE1382:
 4608              	.LBE1387:
 4609              	.LBE1392:
 199:../../libdaisy/src/hid/disp/display.h ****         {
 4610              		.loc 5 199 26 is_stmt 1 view .LVU1207
 4611 046c 12D0     		beq	.L376
 4612              	.LVL302:
 4613              	.L283:
 4614              	.LBB1393:
 4615              	.LBI1369:
  41:../../libdaisy/src/hid/disp/oled_display.h ****     {
 4616              		.loc 1 41 10 view .LVU1208
 4617              	.LBB1388:
 4618              	.LBI1370:
 239:../../libdaisy/src/dev/oled_ssd130x.h ****     {
 4619              		.loc 6 239 10 view .LVU1209
 4620              	.LBB1383:
 4621              	.LBB1372:
 4622              	.LBI1372:
 239:../../libdaisy/src/dev/oled_ssd130x.h ****     {
 4623              		.loc 6 239 10 view .LVU1210
 239:../../libdaisy/src/dev/oled_ssd130x.h ****     {
 4624              		.loc 6 239 10 is_stmt 0 view .LVU1211
 4625              	.LBE1372:
 244:../../libdaisy/src/dev/oled_ssd130x.h ****         else
 4626              		.loc 6 244 42 view .LVU1212
 4627 046e 1901     		lsls	r1, r3, #4
 244:../../libdaisy/src/dev/oled_ssd130x.h ****         else
 4628              		.loc 6 244 54 view .LVU1213
 4629 0470 03F00707 		and	r7, r3, #7
 244:../../libdaisy/src/dev/oled_ssd130x.h ****         else
 4630              		.loc 6 244 48 view .LVU1214
 4631 0474 0125     		movs	r5, #1
 244:../../libdaisy/src/dev/oled_ssd130x.h ****         else
 4632              		.loc 6 244 42 view .LVU1215
 4633 0476 41F07F01 		orr	r1, r1, #127
 244:../../libdaisy/src/dev/oled_ssd130x.h ****         else
 4634              		.loc 6 244 48 view .LVU1216
 4635 047a BD40     		lsls	r5, r5, r7
 244:../../libdaisy/src/dev/oled_ssd130x.h ****         else
 4636              		.loc 6 244 42 view .LVU1217
 4637 047c 2144     		add	r1, r1, r4
 4638              	.LBB1377:
 4639              	.LBB1373:
 246:../../libdaisy/src/dev/oled_ssd130x.h ****     }
 4640              		.loc 6 246 42 view .LVU1218
 4641 047e 0A46     		mov	r2, r1
 4642              	.LBE1373:
ARM GAS  C:\Users\VINCIU~1\AppData\Local\Temp\ccF8ydZb.s 			page 126


 4643              	.LBE1377:
 243:../../libdaisy/src/dev/oled_ssd130x.h ****             buffer_[x + (y / 8) * width] |= (1 << (y % 8));
 4644              		.loc 6 243 9 view .LVU1219
 4645 0480 0028     		cmp	r0, #0
 4646 0482 EED1     		bne	.L377
 4647              	.LBB1378:
 4648              	.LBB1374:
 246:../../libdaisy/src/dev/oled_ssd130x.h ****     }
 4649              		.loc 6 246 42 view .LVU1220
 4650 0484 097D     		ldrb	r1, [r1, #20]	@ zero_extendqisi2
 4651              	.LBE1374:
 4652              	.LBE1378:
 4653              	.LBE1383:
 4654              	.LBE1388:
 4655              	.LBE1393:
 212:../../libdaisy/src/hid/disp/display.h ****             }
 4656              		.loc 5 212 20 view .LVU1221
 4657 0486 0133     		adds	r3, r3, #1
 4658              	.LVL303:
 4659              	.LBB1394:
 4660              	.LBB1389:
 4661              	.LBB1384:
 4662              	.LBB1379:
 4663              	.LBB1375:
 246:../../libdaisy/src/dev/oled_ssd130x.h ****     }
 4664              		.loc 6 246 42 view .LVU1222
 4665 0488 21EA050C 		bic	ip, r1, r5
 4666              	.LBE1375:
 4667              	.LBE1379:
 4668              	.LBE1384:
 4669              	.LBE1389:
 4670              	.LBE1394:
 199:../../libdaisy/src/hid/disp/display.h ****         {
 4671              		.loc 5 199 26 view .LVU1223
 4672 048c 1D2B     		cmp	r3, #29
 4673              	.LBB1395:
 4674              	.LBB1390:
 4675              	.LBB1385:
 4676              	.LBB1380:
 4677              	.LBB1376:
 246:../../libdaisy/src/dev/oled_ssd130x.h ****     }
 4678              		.loc 6 246 42 view .LVU1224
 4679 048e 82F814C0 		strb	ip, [r2, #20]
 4680              	.LVL304:
 246:../../libdaisy/src/dev/oled_ssd130x.h ****     }
 4681              		.loc 6 246 42 view .LVU1225
 4682              	.LBE1376:
 4683              	.LBE1380:
 4684              	.LBE1385:
 4685              	.LBE1390:
 4686              	.LBE1395:
 199:../../libdaisy/src/hid/disp/display.h ****         {
 4687              		.loc 5 199 26 is_stmt 1 view .LVU1226
 4688 0492 ECD1     		bne	.L283
 4689              	.L376:
 4690              	.LVL305:
 199:../../libdaisy/src/hid/disp/display.h ****         {
ARM GAS  C:\Users\VINCIU~1\AppData\Local\Temp\ccF8ydZb.s 			page 127


 4691              		.loc 5 199 26 is_stmt 0 view .LVU1227
 4692              	.LBE1397:
 4693              	.LBE1399:
 4694              	.LBB1400:
 4695              	.LBI1400:
 181:../../libdaisy/src/hid/disp/display.h ****                   uint_fast8_t y1,
 4696              		.loc 5 181 10 is_stmt 1 view .LVU1228
 4697              	.LBB1401:
 4698              	.LBB1402:
 4699              	.LBI1402:
  41:../../libdaisy/src/hid/disp/oled_display.h ****     {
 4700              		.loc 1 41 10 view .LVU1229
 4701              	.LBB1403:
 4702              	.LBI1403:
 239:../../libdaisy/src/dev/oled_ssd130x.h ****     {
 4703              		.loc 6 239 10 view .LVU1230
 4704              	.LBB1404:
 244:../../libdaisy/src/dev/oled_ssd130x.h ****         else
 4705              		.loc 6 244 42 is_stmt 0 view .LVU1231
 4706 0494 94F8D021 		ldrb	r2, [r4, #464]	@ zero_extendqisi2
 243:../../libdaisy/src/dev/oled_ssd130x.h ****             buffer_[x + (y / 8) * width] |= (1 << (y % 8));
 4707              		.loc 6 243 9 view .LVU1232
 4708 0498 0028     		cmp	r0, #0
 4709 049a 00F01281 		beq	.L284
 4710              	.LVL306:
 244:../../libdaisy/src/dev/oled_ssd130x.h ****         else
 4711              		.loc 6 244 42 view .LVU1233
 4712 049e 42F02002 		orr	r2, r2, #32
 4713              	.LVL307:
 4714              	.L285:
 244:../../libdaisy/src/dev/oled_ssd130x.h ****         else
 4715              		.loc 6 244 42 view .LVU1234
 4716 04a2 84F8D021 		strb	r2, [r4, #464]
 4717              	.LVL308:
 244:../../libdaisy/src/dev/oled_ssd130x.h ****         else
 4718              		.loc 6 244 42 view .LVU1235
 4719              	.LBE1404:
 4720              	.LBE1403:
 4721              	.LBE1402:
 199:../../libdaisy/src/hid/disp/display.h ****         {
 4722              		.loc 5 199 26 is_stmt 1 view .LVU1236
 4723 04a6 04F5E875 		add	r5, r4, #464
 4724 04aa 04F21322 		addw	r2, r4, #531
 4725 04ae 05E0     		b	.L288
 4726              	.LVL309:
 4727              	.L379:
 4728              	.LBB1409:
 4729              	.LBB1410:
 4730              	.LBB1411:
 244:../../libdaisy/src/dev/oled_ssd130x.h ****         else
 4731              		.loc 6 244 42 is_stmt 0 view .LVU1237
 4732 04b0 41F02001 		orr	r1, r1, #32
 4733              	.LBE1411:
 4734              	.LBE1410:
 4735              	.LBE1409:
 199:../../libdaisy/src/hid/disp/display.h ****         {
 4736              		.loc 5 199 26 view .LVU1238
ARM GAS  C:\Users\VINCIU~1\AppData\Local\Temp\ccF8ydZb.s 			page 128


 4737 04b4 013A     		subs	r2, r2, #1
 4738              	.LVL310:
 4739              	.LBB1423:
 4740              	.LBB1420:
 4741              	.LBB1417:
 244:../../libdaisy/src/dev/oled_ssd130x.h ****         else
 4742              		.loc 6 244 42 view .LVU1239
 4743 04b6 5170     		strb	r1, [r2, #1]
 4744              	.LVL311:
 244:../../libdaisy/src/dev/oled_ssd130x.h ****         else
 4745              		.loc 6 244 42 view .LVU1240
 4746              	.LBE1417:
 4747              	.LBE1420:
 4748              	.LBE1423:
 199:../../libdaisy/src/hid/disp/display.h ****         {
 4749              		.loc 5 199 26 is_stmt 1 view .LVU1241
 4750 04b8 9542     		cmp	r5, r2
 4751 04ba 08D0     		beq	.L378
 4752              	.LVL312:
 4753              	.L288:
 4754              	.LBB1424:
 4755              	.LBI1409:
  41:../../libdaisy/src/hid/disp/oled_display.h ****     {
 4756              		.loc 1 41 10 view .LVU1242
 4757              	.LBB1421:
 4758              	.LBI1410:
 239:../../libdaisy/src/dev/oled_ssd130x.h ****     {
 4759              		.loc 6 239 10 view .LVU1243
 4760              	.LBB1418:
 4761              	.LBB1412:
 4762              	.LBI1412:
 239:../../libdaisy/src/dev/oled_ssd130x.h ****     {
 4763              		.loc 6 239 10 view .LVU1244
 239:../../libdaisy/src/dev/oled_ssd130x.h ****     {
 4764              		.loc 6 239 10 is_stmt 0 view .LVU1245
 4765              	.LBE1412:
 244:../../libdaisy/src/dev/oled_ssd130x.h ****         else
 4766              		.loc 6 244 42 view .LVU1246
 4767 04bc 1178     		ldrb	r1, [r2]	@ zero_extendqisi2
 243:../../libdaisy/src/dev/oled_ssd130x.h ****             buffer_[x + (y / 8) * width] |= (1 << (y % 8));
 4768              		.loc 6 243 9 view .LVU1247
 4769 04be 0028     		cmp	r0, #0
 4770 04c0 F6D1     		bne	.L379
 4771              	.LBB1415:
 4772              	.LBB1413:
 246:../../libdaisy/src/dev/oled_ssd130x.h ****     }
 4773              		.loc 6 246 42 view .LVU1248
 4774 04c2 21F02001 		bic	r1, r1, #32
 4775              	.LBE1413:
 4776              	.LBE1415:
 4777              	.LBE1418:
 4778              	.LBE1421:
 4779              	.LBE1424:
 199:../../libdaisy/src/hid/disp/display.h ****         {
 4780              		.loc 5 199 26 view .LVU1249
 4781 04c6 013A     		subs	r2, r2, #1
 4782              	.LVL313:
ARM GAS  C:\Users\VINCIU~1\AppData\Local\Temp\ccF8ydZb.s 			page 129


 4783              	.LBB1425:
 4784              	.LBB1422:
 4785              	.LBB1419:
 4786              	.LBB1416:
 4787              	.LBB1414:
 246:../../libdaisy/src/dev/oled_ssd130x.h ****     }
 4788              		.loc 6 246 42 view .LVU1250
 4789 04c8 5170     		strb	r1, [r2, #1]
 4790              	.LVL314:
 246:../../libdaisy/src/dev/oled_ssd130x.h ****     }
 4791              		.loc 6 246 42 view .LVU1251
 4792              	.LBE1414:
 4793              	.LBE1416:
 4794              	.LBE1419:
 4795              	.LBE1422:
 4796              	.LBE1425:
 199:../../libdaisy/src/hid/disp/display.h ****         {
 4797              		.loc 5 199 26 is_stmt 1 view .LVU1252
 4798 04ca 9542     		cmp	r5, r2
 4799 04cc F6D1     		bne	.L288
 4800              	.L378:
 4801              	.LVL315:
 199:../../libdaisy/src/hid/disp/display.h ****         {
 4802              		.loc 5 199 26 is_stmt 0 view .LVU1253
 4803              	.LBE1401:
 4804              	.LBE1400:
 4805              	.LBB1428:
 4806              	.LBI1428:
 181:../../libdaisy/src/hid/disp/display.h ****                   uint_fast8_t y1,
 4807              		.loc 5 181 10 is_stmt 1 view .LVU1254
 4808              	.LBB1429:
 4809              	.LBB1430:
 4810              	.LBI1430:
  41:../../libdaisy/src/hid/disp/oled_display.h ****     {
 4811              		.loc 1 41 10 view .LVU1255
 4812              	.LBB1431:
 4813              	.LBI1431:
 239:../../libdaisy/src/dev/oled_ssd130x.h ****     {
 4814              		.loc 6 239 10 view .LVU1256
 4815              	.LBB1432:
 244:../../libdaisy/src/dev/oled_ssd130x.h ****         else
 4816              		.loc 6 244 42 is_stmt 0 view .LVU1257
 4817 04ce 94F85020 		ldrb	r2, [r4, #80]	@ zero_extendqisi2
 243:../../libdaisy/src/dev/oled_ssd130x.h ****             buffer_[x + (y / 8) * width] |= (1 << (y % 8));
 4818              		.loc 6 243 9 view .LVU1258
 4819 04d2 0028     		cmp	r0, #0
 4820 04d4 00F0F280 		beq	.L289
 4821              	.LVL316:
 244:../../libdaisy/src/dev/oled_ssd130x.h ****         else
 4822              		.loc 6 244 42 view .LVU1259
 4823 04d8 42F00102 		orr	r2, r2, #1
 4824              	.LVL317:
 4825              	.L290:
 244:../../libdaisy/src/dev/oled_ssd130x.h ****         else
 4826              		.loc 6 244 42 view .LVU1260
 4827 04dc 84F85020 		strb	r2, [r4, #80]
 4828              	.LVL318:
ARM GAS  C:\Users\VINCIU~1\AppData\Local\Temp\ccF8ydZb.s 			page 130


 244:../../libdaisy/src/dev/oled_ssd130x.h ****         else
 4829              		.loc 6 244 42 view .LVU1261
 4830              	.LBE1432:
 4831              	.LBE1431:
 4832              	.LBE1430:
 199:../../libdaisy/src/hid/disp/display.h ****         {
 4833              		.loc 5 199 26 is_stmt 1 view .LVU1262
 4834 04e0 06E0     		b	.L293
 4835              	.LVL319:
 4836              	.L380:
 4837              	.LBB1437:
 4838              	.LBB1438:
 4839              	.LBB1439:
 244:../../libdaisy/src/dev/oled_ssd130x.h ****         else
 4840              		.loc 6 244 42 is_stmt 0 view .LVU1263
 4841 04e2 95F85020 		ldrb	r2, [r5, #80]	@ zero_extendqisi2
 4842 04e6 1143     		orrs	r1, r1, r2
 4843 04e8 85F85010 		strb	r1, [r5, #80]
 4844              	.L292:
 4845              	.LVL320:
 244:../../libdaisy/src/dev/oled_ssd130x.h ****         else
 4846              		.loc 6 244 42 view .LVU1264
 4847              	.LBE1439:
 4848              	.LBE1438:
 4849              	.LBE1437:
 199:../../libdaisy/src/hid/disp/display.h ****         {
 4850              		.loc 5 199 26 is_stmt 1 view .LVU1265
 4851 04ec 013B     		subs	r3, r3, #1
 4852              	.LVL321:
 199:../../libdaisy/src/hid/disp/display.h ****         {
 4853              		.loc 5 199 26 is_stmt 0 view .LVU1266
 4854 04ee 1BD0     		beq	.L267
 4855              	.LVL322:
 4856              	.L293:
 4857              	.LBB1447:
 4858              	.LBI1437:
  41:../../libdaisy/src/hid/disp/oled_display.h ****     {
 4859              		.loc 1 41 10 is_stmt 1 view .LVU1267
 4860              	.LBB1446:
 4861              	.LBI1438:
 239:../../libdaisy/src/dev/oled_ssd130x.h ****     {
 4862              		.loc 6 239 10 view .LVU1268
 4863              	.LBB1445:
 4864              	.LBB1440:
 4865              	.LBI1440:
 239:../../libdaisy/src/dev/oled_ssd130x.h ****     {
 4866              		.loc 6 239 10 view .LVU1269
 239:../../libdaisy/src/dev/oled_ssd130x.h ****     {
 4867              		.loc 6 239 10 is_stmt 0 view .LVU1270
 4868              	.LBE1440:
 244:../../libdaisy/src/dev/oled_ssd130x.h ****         else
 4869              		.loc 6 244 48 view .LVU1271
 4870 04f0 0121     		movs	r1, #1
 244:../../libdaisy/src/dev/oled_ssd130x.h ****         else
 4871              		.loc 6 244 28 view .LVU1272
 4872 04f2 DD08     		lsrs	r5, r3, #3
 244:../../libdaisy/src/dev/oled_ssd130x.h ****         else
ARM GAS  C:\Users\VINCIU~1\AppData\Local\Temp\ccF8ydZb.s 			page 131


 4873              		.loc 6 244 54 view .LVU1273
 4874 04f4 03F0070C 		and	ip, r3, #7
 4875              	.LBB1443:
 4876              	.LBB1441:
 246:../../libdaisy/src/dev/oled_ssd130x.h ****     }
 4877              		.loc 6 246 49 view .LVU1274
 4878 04f8 0F46     		mov	r7, r1
 4879              	.LBE1441:
 4880              	.LBE1443:
 244:../../libdaisy/src/dev/oled_ssd130x.h ****         else
 4881              		.loc 6 244 42 view .LVU1275
 4882 04fa 04EBC515 		add	r5, r4, r5, lsl #7
 244:../../libdaisy/src/dev/oled_ssd130x.h ****         else
 4883              		.loc 6 244 48 view .LVU1276
 4884 04fe 01FA0CF1 		lsl	r1, r1, ip
 243:../../libdaisy/src/dev/oled_ssd130x.h ****             buffer_[x + (y / 8) * width] |= (1 << (y % 8));
 4885              		.loc 6 243 9 view .LVU1277
 4886 0502 0028     		cmp	r0, #0
 4887 0504 EDD1     		bne	.L380
 4888              	.LBB1444:
 4889              	.LBB1442:
 246:../../libdaisy/src/dev/oled_ssd130x.h ****     }
 4890              		.loc 6 246 42 view .LVU1278
 4891 0506 95F85010 		ldrb	r1, [r5, #80]	@ zero_extendqisi2
 246:../../libdaisy/src/dev/oled_ssd130x.h ****     }
 4892              		.loc 6 246 49 view .LVU1279
 4893 050a 07FA0CF7 		lsl	r7, r7, ip
 246:../../libdaisy/src/dev/oled_ssd130x.h ****     }
 4894              		.loc 6 246 42 view .LVU1280
 4895 050e 21EA0707 		bic	r7, r1, r7
 4896 0512 85F85070 		strb	r7, [r5, #80]
 4897 0516 E9E7     		b	.L292
 4898              	.LVL323:
 4899              	.L366:
 246:../../libdaisy/src/dev/oled_ssd130x.h ****     }
 4900              		.loc 6 246 42 view .LVU1281
 4901              	.LBE1442:
 4902              	.LBE1444:
 4903              	.LBE1445:
 4904              	.LBE1446:
 4905              	.LBE1447:
 4906              	.LBE1429:
 4907              	.LBE1428:
 4908              	.LBE1454:
 4909              	.LBE1479:
 158:Menus.cpp     ****         this->OscSelector = !this->OscSelector;
 4910              		.loc 2 158 9 is_stmt 1 view .LVU1282
 158:Menus.cpp     ****         this->OscSelector = !this->OscSelector;
 4911              		.loc 2 158 29 is_stmt 0 view .LVU1283
 4912 0518 95F87430 		ldrb	r3, [r5, #116]	@ zero_extendqisi2
 4913 051c 83F00103 		eor	r3, r3, #1
 158:Menus.cpp     ****         this->OscSelector = !this->OscSelector;
 4914              		.loc 2 158 27 view .LVU1284
 4915 0520 85F87430 		strb	r3, [r5, #116]
 159:Menus.cpp     ****         on                = this->OscSelector;
 4916              		.loc 2 159 9 is_stmt 1 view .LVU1285
 159:Menus.cpp     ****         on                = this->OscSelector;
ARM GAS  C:\Users\VINCIU~1\AppData\Local\Temp\ccF8ydZb.s 			page 132


 4917              		.loc 2 159 27 is_stmt 0 view .LVU1286
 4918 0524 85F86831 		strb	r3, [r5, #360]
 4919              	.LVL324:
 4920              	.L267:
 159:Menus.cpp     ****         on                = this->OscSelector;
 4921              		.loc 2 159 27 view .LVU1287
 4922              	.LBE1513:
 4923              	.LBB1514:
 4924              	.LBB1515:
 4925              	.LBB1516:
 4926              	.LBB1517:
 4927              	.LBB1518:
 111:../../libdaisy/src/dev/oled_ssd130x.h ****         spi_.BlockingTransmit(&cmd, 1);
 4928              		.loc 6 111 24 view .LVU1288
 4929 0528 04F10807 		add	r7, r4, #8
 112:../../libdaisy/src/dev/oled_ssd130x.h ****     };
 4930              		.loc 6 112 30 view .LVU1289
 4931 052c B025     		movs	r5, #176
 111:../../libdaisy/src/dev/oled_ssd130x.h ****         spi_.BlockingTransmit(&cmd, 1);
 4932              		.loc 6 111 24 view .LVU1290
 4933 052e 1034     		adds	r4, r4, #16
 4934              	.LVL325:
 4935              	.L322:
 111:../../libdaisy/src/dev/oled_ssd130x.h ****         spi_.BlockingTransmit(&cmd, 1);
 4936              		.loc 6 111 24 view .LVU1291
 4937 0530 4FF00008 		mov	r8, #0
 111:../../libdaisy/src/dev/oled_ssd130x.h ****         spi_.BlockingTransmit(&cmd, 1);
 4938              		.loc 6 111 23 view .LVU1292
 4939 0534 2046     		mov	r0, r4
 4940 0536 8DF81750 		strb	r5, [sp, #23]
 4941              	.LVL326:
 111:../../libdaisy/src/dev/oled_ssd130x.h ****         spi_.BlockingTransmit(&cmd, 1);
 4942              		.loc 6 111 23 view .LVU1293
 4943              	.LBE1518:
 4944              	.LBI1517:
 109:../../libdaisy/src/dev/oled_ssd130x.h ****     {
 4945              		.loc 6 109 10 is_stmt 1 view .LVU1294
 4946              	.LBB1519:
 111:../../libdaisy/src/dev/oled_ssd130x.h ****         spi_.BlockingTransmit(&cmd, 1);
 4947              		.loc 6 111 9 view .LVU1295
 4948              	.LBE1519:
 4949              	.LBE1517:
 4950              		.loc 6 270 22 is_stmt 0 view .LVU1296
 4951 053a 0135     		adds	r5, r5, #1
 4952              	.LVL327:
 4953              	.LBB1522:
 4954              	.LBB1520:
 111:../../libdaisy/src/dev/oled_ssd130x.h ****         spi_.BlockingTransmit(&cmd, 1);
 4955              		.loc 6 111 23 view .LVU1297
 4956 053c 4146     		mov	r1, r8
 4957 053e FFF7FEFF 		bl	dsy_gpio_write
 4958              	.LVL328:
 112:../../libdaisy/src/dev/oled_ssd130x.h ****     };
 4959              		.loc 6 112 9 is_stmt 1 view .LVU1298
 112:../../libdaisy/src/dev/oled_ssd130x.h ****     };
 4960              		.loc 6 112 30 is_stmt 0 view .LVU1299
 4961 0542 6423     		movs	r3, #100
ARM GAS  C:\Users\VINCIU~1\AppData\Local\Temp\ccF8ydZb.s 			page 133


 4962 0544 0122     		movs	r2, #1
 4963 0546 0DF11701 		add	r1, sp, #23
 4964 054a 3846     		mov	r0, r7
 4965              	.LBE1520:
 4966              	.LBE1522:
 4967              		.loc 6 270 22 view .LVU1300
 4968 054c EDB2     		uxtb	r5, r5
 4969              	.LBB1523:
 4970              	.LBB1521:
 112:../../libdaisy/src/dev/oled_ssd130x.h ****     };
 4971              		.loc 6 112 30 view .LVU1301
 4972 054e FFF7FEFF 		bl	_ZN5daisy9SpiHandle16BlockingTransmitEPhjm
 4973              	.LVL329:
 112:../../libdaisy/src/dev/oled_ssd130x.h ****     };
 4974              		.loc 6 112 30 view .LVU1302
 4975              	.LBE1521:
 4976              	.LBE1523:
 4977              	.LBB1524:
 4978              	.LBB1525:
 111:../../libdaisy/src/dev/oled_ssd130x.h ****         spi_.BlockingTransmit(&cmd, 1);
 4979              		.loc 6 111 23 view .LVU1303
 4980 0552 4146     		mov	r1, r8
 4981 0554 2046     		mov	r0, r4
 4982 0556 8DF81780 		strb	r8, [sp, #23]
 4983              	.LVL330:
 111:../../libdaisy/src/dev/oled_ssd130x.h ****         spi_.BlockingTransmit(&cmd, 1);
 4984              		.loc 6 111 23 view .LVU1304
 4985              	.LBE1525:
 4986              	.LBI1524:
 109:../../libdaisy/src/dev/oled_ssd130x.h ****     {
 4987              		.loc 6 109 10 is_stmt 1 view .LVU1305
 4988              	.LBB1526:
 111:../../libdaisy/src/dev/oled_ssd130x.h ****         spi_.BlockingTransmit(&cmd, 1);
 4989              		.loc 6 111 9 view .LVU1306
 111:../../libdaisy/src/dev/oled_ssd130x.h ****         spi_.BlockingTransmit(&cmd, 1);
 4990              		.loc 6 111 23 is_stmt 0 view .LVU1307
 4991 055a FFF7FEFF 		bl	dsy_gpio_write
 4992              	.LVL331:
 112:../../libdaisy/src/dev/oled_ssd130x.h ****     };
 4993              		.loc 6 112 9 is_stmt 1 view .LVU1308
 112:../../libdaisy/src/dev/oled_ssd130x.h ****     };
 4994              		.loc 6 112 30 is_stmt 0 view .LVU1309
 4995 055e 0122     		movs	r2, #1
 4996 0560 6423     		movs	r3, #100
 4997 0562 0DF11701 		add	r1, sp, #23
 4998 0566 3846     		mov	r0, r7
 4999 0568 FFF7FEFF 		bl	_ZN5daisy9SpiHandle16BlockingTransmitEPhjm
 5000              	.LVL332:
 112:../../libdaisy/src/dev/oled_ssd130x.h ****     };
 5001              		.loc 6 112 30 view .LVU1310
 5002 056c 1023     		movs	r3, #16
 5003              	.LBE1526:
 5004              	.LBE1524:
 5005              	.LBB1527:
 5006              	.LBB1528:
 111:../../libdaisy/src/dev/oled_ssd130x.h ****         spi_.BlockingTransmit(&cmd, 1);
 5007              		.loc 6 111 23 view .LVU1311
ARM GAS  C:\Users\VINCIU~1\AppData\Local\Temp\ccF8ydZb.s 			page 134


 5008 056e 4146     		mov	r1, r8
 5009 0570 2046     		mov	r0, r4
 5010 0572 8DF81730 		strb	r3, [sp, #23]
 5011              	.LVL333:
 111:../../libdaisy/src/dev/oled_ssd130x.h ****         spi_.BlockingTransmit(&cmd, 1);
 5012              		.loc 6 111 23 view .LVU1312
 5013              	.LBE1528:
 5014              	.LBI1527:
 109:../../libdaisy/src/dev/oled_ssd130x.h ****     {
 5015              		.loc 6 109 10 is_stmt 1 view .LVU1313
 5016              	.LBB1529:
 111:../../libdaisy/src/dev/oled_ssd130x.h ****         spi_.BlockingTransmit(&cmd, 1);
 5017              		.loc 6 111 9 view .LVU1314
 111:../../libdaisy/src/dev/oled_ssd130x.h ****         spi_.BlockingTransmit(&cmd, 1);
 5018              		.loc 6 111 23 is_stmt 0 view .LVU1315
 5019 0576 FFF7FEFF 		bl	dsy_gpio_write
 5020              	.LVL334:
 112:../../libdaisy/src/dev/oled_ssd130x.h ****     };
 5021              		.loc 6 112 9 is_stmt 1 view .LVU1316
 112:../../libdaisy/src/dev/oled_ssd130x.h ****     };
 5022              		.loc 6 112 30 is_stmt 0 view .LVU1317
 5023 057a 6423     		movs	r3, #100
 5024 057c 0122     		movs	r2, #1
 5025 057e 0DF11701 		add	r1, sp, #23
 5026 0582 3846     		mov	r0, r7
 5027 0584 FFF7FEFF 		bl	_ZN5daisy9SpiHandle16BlockingTransmitEPhjm
 5028              	.LVL335:
 112:../../libdaisy/src/dev/oled_ssd130x.h ****     };
 5029              		.loc 6 112 30 view .LVU1318
 5030              	.LBE1529:
 5031              	.LBE1527:
 5032              	.LBB1530:
 5033              	.LBI1530:
 115:../../libdaisy/src/dev/oled_ssd130x.h ****     {
 5034              		.loc 6 115 10 is_stmt 1 view .LVU1319
 5035              	.LBB1531:
 117:../../libdaisy/src/dev/oled_ssd130x.h ****         spi_.BlockingTransmit(buff, size);
 5036              		.loc 6 117 9 view .LVU1320
 117:../../libdaisy/src/dev/oled_ssd130x.h ****         spi_.BlockingTransmit(buff, size);
 5037              		.loc 6 117 23 is_stmt 0 view .LVU1321
 5038 0588 0121     		movs	r1, #1
 5039 058a 2046     		mov	r0, r4
 5040 058c FFF7FEFF 		bl	dsy_gpio_write
 5041              	.LVL336:
 118:../../libdaisy/src/dev/oled_ssd130x.h ****     };
 5042              		.loc 6 118 9 is_stmt 1 view .LVU1322
 118:../../libdaisy/src/dev/oled_ssd130x.h ****     };
 5043              		.loc 6 118 30 is_stmt 0 view .LVU1323
 5044 0590 8022     		movs	r2, #128
 5045 0592 3146     		mov	r1, r6
 5046 0594 6423     		movs	r3, #100
 5047 0596 3846     		mov	r0, r7
 5048              	.LBE1531:
 5049              	.LBE1530:
 5050              		.loc 6 270 22 view .LVU1324
 5051 0598 1644     		add	r6, r6, r2
 5052              	.LVL337:
ARM GAS  C:\Users\VINCIU~1\AppData\Local\Temp\ccF8ydZb.s 			page 135


 5053              	.LBB1533:
 5054              	.LBB1532:
 118:../../libdaisy/src/dev/oled_ssd130x.h ****     };
 5055              		.loc 6 118 30 view .LVU1325
 5056 059a FFF7FEFF 		bl	_ZN5daisy9SpiHandle16BlockingTransmitEPhjm
 5057              	.LVL338:
 118:../../libdaisy/src/dev/oled_ssd130x.h ****     };
 5058              		.loc 6 118 30 view .LVU1326
 5059              	.LBE1532:
 5060              	.LBE1533:
 5061              		.loc 6 270 9 is_stmt 1 view .LVU1327
 5062              		.loc 6 270 22 view .LVU1328
 5063 059e B82D     		cmp	r5, #184
 5064 05a0 C6D1     		bne	.L322
 5065              	.LBE1516:
 5066              	.LBE1515:
 5067              	.LBE1514:
 420:Menus.cpp     **** }
 5068              		.loc 2 420 1 is_stmt 0 view .LVU1329
 5069 05a2 07B0     		add	sp, sp, #28
 5070              		.cfi_remember_state
 5071              		.cfi_def_cfa_offset 36
 5072              		@ sp needed
 5073 05a4 BDEC028B 		vldm	sp!, {d8}
 5074              		.cfi_restore 80
 5075              		.cfi_restore 81
 5076              		.cfi_def_cfa_offset 28
 5077 05a8 BDE8F083 		pop	{r4, r5, r6, r7, r8, r9, pc}
 5078              	.LVL339:
 5079              	.L361:
 5080              		.cfi_restore_state
  97:Menus.cpp     ****         menuState = menuState - 1;
 5081              		.loc 2 97 9 is_stmt 1 view .LVU1330
  98:Menus.cpp     ****         if(menuState < 0)
 5082              		.loc 2 98 9 view .LVU1331
  97:Menus.cpp     ****         menuState = menuState - 1;
 5083              		.loc 2 97 31 is_stmt 0 view .LVU1332
 5084 05ac EB6E     		ldr	r3, [r5, #108]
  98:Menus.cpp     ****         if(menuState < 0)
 5085              		.loc 2 98 9 view .LVU1333
 5086 05ae 013B     		subs	r3, r3, #1
 5087 05b0 7CD4     		bmi	.L247
  97:Menus.cpp     ****         menuState = menuState - 1;
 5088              		.loc 2 97 19 view .LVU1334
 5089 05b2 EB66     		str	r3, [r5, #108]
 103:Menus.cpp     ****     if(this->buttonRight.RisingEdge())
 5090              		.loc 2 103 5 is_stmt 1 view .LVU1335
 5091              	.LVL340:
 5092              	.LBB1534:
 5093              		.loc 4 69 17 view .LVU1336
 5094              	.LBB1170:
 5095              		.loc 4 69 38 view .LVU1337
 5096              		.loc 4 69 38 is_stmt 0 view .LVU1338
 5097              	.LBE1170:
 5098              	.LBE1534:
 103:Menus.cpp     ****     if(this->buttonRight.RisingEdge())
 5099              		.loc 2 103 5 view .LVU1339
ARM GAS  C:\Users\VINCIU~1\AppData\Local\Temp\ccF8ydZb.s 			page 136


 5100 05b4 95F86130 		ldrb	r3, [r5, #97]	@ zero_extendqisi2
 5101 05b8 7F2B     		cmp	r3, #127
 5102 05ba 7FF440AD 		bne	.L249
 5103              	.L362:
 106:Menus.cpp     ****         menuState = menuState + 1;
 5104              		.loc 2 106 9 is_stmt 1 view .LVU1340
 106:Menus.cpp     ****         menuState = menuState + 1;
 5105              		.loc 2 106 31 is_stmt 0 view .LVU1341
 5106 05be EB6E     		ldr	r3, [r5, #108]
 5107 05c0 0133     		adds	r3, r3, #1
 107:Menus.cpp     ****         if(menuState > 3)
 5108              		.loc 2 107 9 view .LVU1342
 5109 05c2 032B     		cmp	r3, #3
 106:Menus.cpp     ****         menuState = menuState + 1;
 5110              		.loc 2 106 19 view .LVU1343
 5111 05c4 EB66     		str	r3, [r5, #108]
 107:Menus.cpp     ****         if(menuState > 3)
 5112              		.loc 2 107 9 is_stmt 1 view .LVU1344
 5113 05c6 7FF73AAD 		ble	.L249
 5114              	.L248:
 109:Menus.cpp     ****             menuState = 0;
 5115              		.loc 2 109 13 view .LVU1345
 109:Menus.cpp     ****             menuState = 0;
 5116              		.loc 2 109 23 is_stmt 0 view .LVU1346
 5117 05ca 0023     		movs	r3, #0
 5118 05cc EB66     		str	r3, [r5, #108]
 5119 05ce 36E5     		b	.L249
 5120              	.L372:
 5121              	.LBB1535:
 5122              	.LBB1480:
 165:Menus.cpp     ****             if(this->noteSemiAdd > 32)
 5123              		.loc 2 165 13 is_stmt 1 view .LVU1347
 5124 05d0 D5F83421 		ldr	r2, [r5, #308]
 173:Menus.cpp     ****             if(this->drawSliderSemi >= 40)
 5125              		.loc 2 173 22 is_stmt 0 view .LVU1348
 5126 05d4 D5ED1E7A 		vldr.32	s15, [r5, #120]
 173:Menus.cpp     ****             if(this->drawSliderSemi >= 40)
 5127              		.loc 2 173 13 view .LVU1349
 5128 05d8 9FED497A 		vldr.32	s14, .L388+4
 5129 05dc 22EAE272 		bic	r2, r2, r2, asr #31
 5130 05e0 F4EEC77A 		vcmpe.f32	s15, s14
 5131 05e4 202A     		cmp	r2, #32
 5132 05e6 A8BF     		it	ge
 5133 05e8 2022     		movge	r2, #32
 173:Menus.cpp     ****             if(this->drawSliderSemi >= 40)
 5134              		.loc 2 173 13 is_stmt 1 view .LVU1350
 5135 05ea F1EE10FA 		vmrs	APSR_nzcv, FPSCR
 5136 05ee 80F28280 		bge	.L328
 177:Menus.cpp     ****             if(this->drawSliderSemi < 0)
 5137              		.loc 2 177 13 view .LVU1351
 5138 05f2 F5EEC07A 		vcmpe.f32	s15, #0
 5139 05f6 F1EE10FA 		vmrs	APSR_nzcv, FPSCR
 5140 05fa 01D5     		bpl	.L270
 5141 05fc DFED417A 		vldr.32	s15, .L388+8
 5142              	.L270:
 181:Menus.cpp     ****             this->noteSemiAdd += this->encoderRight.Increment();
 5143              		.loc 2 181 13 view .LVU1352
ARM GAS  C:\Users\VINCIU~1\AppData\Local\Temp\ccF8ydZb.s 			page 137


 5144              	.LVL341:
 5145              	.LBB1455:
 5146              	.LBI1455:
  41:../../libdaisy/src/hid/encoder.h ****     /** Returns true if the encoder was just pressed.
 5147              		.loc 3 41 20 view .LVU1353
 5148              	.LBB1456:
  41:../../libdaisy/src/hid/encoder.h ****     /** Returns true if the encoder was just pressed.
 5149              		.loc 3 41 40 view .LVU1354
  41:../../libdaisy/src/hid/encoder.h ****     /** Returns true if the encoder was just pressed.
 5150              		.loc 3 41 40 is_stmt 0 view .LVU1355
 5151              	.LBE1456:
 5152              	.LBE1455:
 183:Menus.cpp     ****                 += (((float)this->encoderRight.Increment()) / 32) * 40;
 5153              		.loc 2 183 61 view .LVU1356
 5154 0600 D5ED126A 		vldr.32	s13, [r5, #72]	@ int
 184:Menus.cpp     ****             sprintf(this->buff, "Semi_%dst", this->noteSemiAdd);
 5155              		.loc 2 184 20 view .LVU1357
 5156 0604 05F1A400 		add	r0, r5, #164
 183:Menus.cpp     ****                 += (((float)this->encoderRight.Increment()) / 32) * 40;
 5157              		.loc 2 183 17 view .LVU1358
 5158 0608 9FED3D7A 		vldr.32	s14, .L388+4
 183:Menus.cpp     ****                 += (((float)this->encoderRight.Increment()) / 32) * 40;
 5159              		.loc 2 183 61 view .LVU1359
 5160 060c FAEEED6A 		vcvt.f32.s32	s13, s13, #5
 181:Menus.cpp     ****             this->noteSemiAdd += this->encoderRight.Increment();
 5161              		.loc 2 181 31 view .LVU1360
 5162 0610 AB6C     		ldr	r3, [r5, #72]
 184:Menus.cpp     ****             sprintf(this->buff, "Semi_%dst", this->noteSemiAdd);
 5163              		.loc 2 184 20 view .LVU1361
 5164 0612 3A49     		ldr	r1, .L388
 181:Menus.cpp     ****             this->noteSemiAdd += this->encoderRight.Increment();
 5165              		.loc 2 181 31 view .LVU1362
 5166 0614 1A44     		add	r2, r2, r3
 183:Menus.cpp     ****                 += (((float)this->encoderRight.Increment()) / 32) * 40;
 5167              		.loc 2 183 17 view .LVU1363
 5168 0616 E6EE877A 		vfma.f32	s15, s13, s14
 181:Menus.cpp     ****             this->noteSemiAdd += this->encoderRight.Increment();
 5169              		.loc 2 181 31 view .LVU1364
 5170 061a C5F83421 		str	r2, [r5, #308]
 182:Menus.cpp     ****             this->drawSliderSemi
 5171              		.loc 2 182 13 is_stmt 1 view .LVU1365
 5172              	.LVL342:
 182:Menus.cpp     ****             this->drawSliderSemi
 5173              		.loc 2 182 13 is_stmt 0 view .LVU1366
 5174              	.LBE1480:
 5175              	.LBE1535:
  41:../../libdaisy/src/hid/encoder.h ****     /** Returns true if the encoder was just pressed.
 5176              		.loc 3 41 40 is_stmt 1 view .LVU1367
 5177              	.LBB1536:
 5178              	.LBB1481:
 183:Menus.cpp     ****                 += (((float)this->encoderRight.Increment()) / 32) * 40;
 5179              		.loc 2 183 17 is_stmt 0 view .LVU1368
 5180 061e C5ED1E7A 		vstr.32	s15, [r5, #120]
 184:Menus.cpp     ****             sprintf(this->buff, "Semi_%dst", this->noteSemiAdd);
 5181              		.loc 2 184 13 is_stmt 1 view .LVU1369
 184:Menus.cpp     ****             sprintf(this->buff, "Semi_%dst", this->noteSemiAdd);
 5182              		.loc 2 184 20 is_stmt 0 view .LVU1370
ARM GAS  C:\Users\VINCIU~1\AppData\Local\Temp\ccF8ydZb.s 			page 138


 5183 0622 FFF7FEFF 		bl	sprintf
 5184              	.LVL343:
 211:Menus.cpp     ****         screen.DrawRect(
 5185              		.loc 2 211 9 is_stmt 1 view .LVU1371
 211:Menus.cpp     ****         screen.DrawRect(
 5186              		.loc 2 211 24 is_stmt 0 view .LVU1372
 5187 0626 95F86801 		ldrb	r0, [r5, #360]	@ zero_extendqisi2
 5188              	.LVL344:
 5189              	.LBB1457:
 217:../../libdaisy/src/hid/disp/display.h ****                   uint_fast8_t y1,
 5190              		.loc 5 217 10 is_stmt 1 view .LVU1373
 5191              	.LBB1450:
 181:../../libdaisy/src/hid/disp/display.h ****                   uint_fast8_t y1,
 5192              		.loc 5 181 10 view .LVU1374
 5193              	.LBB1359:
 5194              	.LBB1358:
  41:../../libdaisy/src/hid/disp/oled_display.h ****     {
 5195              		.loc 1 41 10 view .LVU1375
 5196              	.LBB1348:
 239:../../libdaisy/src/dev/oled_ssd130x.h ****     {
 5197              		.loc 6 239 10 view .LVU1376
 5198              	.LBB1347:
 244:../../libdaisy/src/dev/oled_ssd130x.h ****         else
 5199              		.loc 6 244 42 is_stmt 0 view .LVU1377
 5200 062a 94F89320 		ldrb	r2, [r4, #147]	@ zero_extendqisi2
 243:../../libdaisy/src/dev/oled_ssd130x.h ****             buffer_[x + (y / 8) * width] |= (1 << (y % 8));
 5201              		.loc 6 243 9 view .LVU1378
 5202 062e 0028     		cmp	r0, #0
 5203 0630 7FF4F4AE 		bne	.L381
 5204              	.LVL345:
 5205              	.L274:
 5206              	.LBB1345:
 5207              	.LBI1345:
 239:../../libdaisy/src/dev/oled_ssd130x.h ****     {
 5208              		.loc 6 239 10 is_stmt 1 view .LVU1379
 5209              	.LBB1346:
 246:../../libdaisy/src/dev/oled_ssd130x.h ****     }
 5210              		.loc 6 246 42 is_stmt 0 view .LVU1380
 5211 0634 02F0FE02 		and	r2, r2, #254
 5212 0638 F2E6     		b	.L275
 5213              	.LVL346:
 5214              	.L369:
 246:../../libdaisy/src/dev/oled_ssd130x.h ****     }
 5215              		.loc 6 246 42 view .LVU1381
 5216              	.LBE1346:
 5217              	.LBE1345:
 5218              	.LBE1347:
 5219              	.LBE1348:
 5220              	.LBE1358:
 5221              	.LBE1359:
 5222              	.LBE1450:
 5223              	.LBE1457:
 5224              	.LBE1481:
 5225              	.LBE1536:
 249:Menus.cpp     ****         if(this->OscSelector == true)
 5226              		.loc 2 249 9 is_stmt 1 view .LVU1382
 5227              	.LBB1537:
ARM GAS  C:\Users\VINCIU~1\AppData\Local\Temp\ccF8ydZb.s 			page 139


 5228              	.LBB1482:
 5229              	.LBB1458:
 5230              	.LBB1320:
 5231              	.LBB1237:
 5232 063a 95F87430 		ldrb	r3, [r5, #116]	@ zero_extendqisi2
 5233 063e 9BB1     		cbz	r3, .L300
 5234              	.LBB1238:
 251:Menus.cpp     ****             this->setWave += this->encoderRight.Increment();
 5235              		.loc 2 251 13 view .LVU1383
 5236              	.LVL347:
 5237              	.LBB1239:
 5238              	.LBI1239:
  41:../../libdaisy/src/hid/encoder.h ****     /** Returns true if the encoder was just pressed.
 5239              		.loc 3 41 20 view .LVU1384
 5240              	.LBB1240:
  41:../../libdaisy/src/hid/encoder.h ****     /** Returns true if the encoder was just pressed.
 5241              		.loc 3 41 40 view .LVU1385
  41:../../libdaisy/src/hid/encoder.h ****     /** Returns true if the encoder was just pressed.
 5242              		.loc 3 41 40 is_stmt 0 view .LVU1386
 5243              	.LBE1240:
 5244              	.LBE1239:
 251:Menus.cpp     ****             this->setWave += this->encoderRight.Increment();
 5245              		.loc 2 251 27 view .LVU1387
 5246 0640 D5F86031 		ldr	r3, [r5, #352]
 5247 0644 AA6C     		ldr	r2, [r5, #72]
 5248 0646 1344     		add	r3, r3, r2
 252:Menus.cpp     ****             if(setWave > 3)
 5249              		.loc 2 252 13 is_stmt 1 view .LVU1388
 5250 0648 032B     		cmp	r3, #3
 5251 064a 40F38280 		ble	.L301
 254:Menus.cpp     ****                 this->setWave = 3;
 5252              		.loc 2 254 17 view .LVU1389
 254:Menus.cpp     ****                 this->setWave = 3;
 5253              		.loc 2 254 31 is_stmt 0 view .LVU1390
 5254 064e 0323     		movs	r3, #3
 5255 0650 C5F86031 		str	r3, [r5, #352]
 256:Menus.cpp     ****             if(this->setWave < 0)
 5256              		.loc 2 256 13 is_stmt 1 view .LVU1391
 260:Menus.cpp     ****             if(this->setWave == 0)
 5257              		.loc 2 260 13 view .LVU1392
 5258              	.LBE1238:
 5259              	.LBE1237:
 5260              	.LBE1320:
 5261              	.LBE1458:
 5262              	.LBE1482:
 5263              	.LBE1537:
 268:Menus.cpp     ****             else if(setWave == 1)
 5264              		.loc 2 268 18 view .LVU1393
 5265              	.L302:
 5266              	.LVL348:
 5267              	.LBB1538:
 5268              	.LBB1483:
 5269              	.LBB1459:
 5270              	.LBB1321:
 5271              	.LBB1271:
 5272              	.LBB1266:
 5273              	.LBB1241:
ARM GAS  C:\Users\VINCIU~1\AppData\Local\Temp\ccF8ydZb.s 			page 140


 5274              	.LBB1242:
 5275              	.LBB1243:
 5276              	.LBB1244:
 286:Menus.cpp     ****                 for(int i = 0; i < 2; i++)
 5277              		.loc 2 286 34 view .LVU1394
 288:Menus.cpp     ****                     selectedWave = setWave;
 5278              		.loc 2 288 21 view .LVU1395
 289:Menus.cpp     ****                     osc[0].SetWaveform(osc[0].WAVE_SAW);
 5279              		.loc 2 289 21 view .LVU1396
 5280              	.LBB1245:
 5281              	.LBI1245:
 5282              		.file 8 "../../DaisySP/Source/Synthesis/oscillator.h"
   1:../../DaisySP/Source/Synthesis/oscillator.h **** #pragma once
   2:../../DaisySP/Source/Synthesis/oscillator.h **** #ifndef DSY_OSCILLATOR_H
   3:../../DaisySP/Source/Synthesis/oscillator.h **** #define DSY_OSCILLATOR_H
   4:../../DaisySP/Source/Synthesis/oscillator.h **** #include <stdint.h>
   5:../../DaisySP/Source/Synthesis/oscillator.h **** #include "Utility/dsp.h"
   6:../../DaisySP/Source/Synthesis/oscillator.h **** #ifdef __cplusplus
   7:../../DaisySP/Source/Synthesis/oscillator.h **** 
   8:../../DaisySP/Source/Synthesis/oscillator.h **** namespace daisysp
   9:../../DaisySP/Source/Synthesis/oscillator.h **** {
  10:../../DaisySP/Source/Synthesis/oscillator.h **** /** Synthesis of several waveforms, including polyBLEP bandlimited waveforms.
  11:../../DaisySP/Source/Synthesis/oscillator.h **** */
  12:../../DaisySP/Source/Synthesis/oscillator.h **** class Oscillator
  13:../../DaisySP/Source/Synthesis/oscillator.h **** {
  14:../../DaisySP/Source/Synthesis/oscillator.h ****   public:
  15:../../DaisySP/Source/Synthesis/oscillator.h ****     Oscillator() {}
  16:../../DaisySP/Source/Synthesis/oscillator.h ****     ~Oscillator() {}
  17:../../DaisySP/Source/Synthesis/oscillator.h ****     /** Choices for output waveforms, POLYBLEP are appropriately labeled. Others are naive forms.
  18:../../DaisySP/Source/Synthesis/oscillator.h ****     */
  19:../../DaisySP/Source/Synthesis/oscillator.h ****     enum
  20:../../DaisySP/Source/Synthesis/oscillator.h ****     {
  21:../../DaisySP/Source/Synthesis/oscillator.h ****         WAVE_SIN,
  22:../../DaisySP/Source/Synthesis/oscillator.h ****         WAVE_TRI,
  23:../../DaisySP/Source/Synthesis/oscillator.h ****         WAVE_SAW,
  24:../../DaisySP/Source/Synthesis/oscillator.h ****         WAVE_RAMP,
  25:../../DaisySP/Source/Synthesis/oscillator.h ****         WAVE_SQUARE,
  26:../../DaisySP/Source/Synthesis/oscillator.h ****         WAVE_POLYBLEP_TRI,
  27:../../DaisySP/Source/Synthesis/oscillator.h ****         WAVE_POLYBLEP_SAW,
  28:../../DaisySP/Source/Synthesis/oscillator.h ****         WAVE_POLYBLEP_SQUARE,
  29:../../DaisySP/Source/Synthesis/oscillator.h ****         WAVE_LAST,
  30:../../DaisySP/Source/Synthesis/oscillator.h ****     };
  31:../../DaisySP/Source/Synthesis/oscillator.h **** 
  32:../../DaisySP/Source/Synthesis/oscillator.h **** 
  33:../../DaisySP/Source/Synthesis/oscillator.h ****     /** Initializes the Oscillator
  34:../../DaisySP/Source/Synthesis/oscillator.h **** 
  35:../../DaisySP/Source/Synthesis/oscillator.h ****         \param sample_rate - sample rate of the audio engine being run, and the frequency that the 
  36:../../DaisySP/Source/Synthesis/oscillator.h **** 
  37:../../DaisySP/Source/Synthesis/oscillator.h ****         Defaults:
  38:../../DaisySP/Source/Synthesis/oscillator.h ****         - freq_ = 100 Hz
  39:../../DaisySP/Source/Synthesis/oscillator.h ****         - amp_ = 0.5
  40:../../DaisySP/Source/Synthesis/oscillator.h ****         - waveform_ = sine wave.
  41:../../DaisySP/Source/Synthesis/oscillator.h ****     */
  42:../../DaisySP/Source/Synthesis/oscillator.h ****     void Init(float sample_rate)
  43:../../DaisySP/Source/Synthesis/oscillator.h ****     {
  44:../../DaisySP/Source/Synthesis/oscillator.h ****         sr_        = sample_rate;
  45:../../DaisySP/Source/Synthesis/oscillator.h ****         sr_recip_  = 1.0f / sample_rate;
ARM GAS  C:\Users\VINCIU~1\AppData\Local\Temp\ccF8ydZb.s 			page 141


  46:../../DaisySP/Source/Synthesis/oscillator.h ****         freq_      = 100.0f;
  47:../../DaisySP/Source/Synthesis/oscillator.h ****         amp_       = 0.5f;
  48:../../DaisySP/Source/Synthesis/oscillator.h ****         phase_     = 0.0f;
  49:../../DaisySP/Source/Synthesis/oscillator.h ****         phase_inc_ = CalcPhaseInc(freq_);
  50:../../DaisySP/Source/Synthesis/oscillator.h ****         waveform_  = WAVE_SIN;
  51:../../DaisySP/Source/Synthesis/oscillator.h ****         eoc_       = true;
  52:../../DaisySP/Source/Synthesis/oscillator.h ****         eor_       = true;
  53:../../DaisySP/Source/Synthesis/oscillator.h ****     }
  54:../../DaisySP/Source/Synthesis/oscillator.h **** 
  55:../../DaisySP/Source/Synthesis/oscillator.h **** 
  56:../../DaisySP/Source/Synthesis/oscillator.h ****     /** Changes the frequency of the Oscillator, and recalculates phase increment.
  57:../../DaisySP/Source/Synthesis/oscillator.h ****     */
  58:../../DaisySP/Source/Synthesis/oscillator.h ****     inline void SetFreq(const float f)
  59:../../DaisySP/Source/Synthesis/oscillator.h ****     {
  60:../../DaisySP/Source/Synthesis/oscillator.h ****         freq_      = f;
  61:../../DaisySP/Source/Synthesis/oscillator.h ****         phase_inc_ = CalcPhaseInc(f);
  62:../../DaisySP/Source/Synthesis/oscillator.h ****     }
  63:../../DaisySP/Source/Synthesis/oscillator.h **** 
  64:../../DaisySP/Source/Synthesis/oscillator.h **** 
  65:../../DaisySP/Source/Synthesis/oscillator.h ****     /** Sets the amplitude of the waveform.
  66:../../DaisySP/Source/Synthesis/oscillator.h ****     */
  67:../../DaisySP/Source/Synthesis/oscillator.h ****     inline void SetAmp(const float a) { amp_ = a; }
  68:../../DaisySP/Source/Synthesis/oscillator.h ****     /** Sets the waveform to be synthesized by the Process() function.
  69:../../DaisySP/Source/Synthesis/oscillator.h ****     */
  70:../../DaisySP/Source/Synthesis/oscillator.h ****     inline void SetWaveform(const uint8_t wf)
 5283              		.loc 8 70 17 view .LVU1397
 5284              	.LBB1246:
  71:../../DaisySP/Source/Synthesis/oscillator.h ****     {
  72:../../DaisySP/Source/Synthesis/oscillator.h ****         waveform_ = wf < WAVE_LAST ? wf : WAVE_SIN;
 5285              		.loc 8 72 9 view .LVU1398
 5286              		.loc 8 72 19 is_stmt 0 view .LVU1399
 5287 0654 0223     		movs	r3, #2
 5288              	.LVL349:
 5289              	.L358:
 5290              		.loc 8 72 19 view .LVU1400
 5291 0656 3B70     		strb	r3, [r7]
 5292              	.LBE1246:
 5293              	.LBE1245:
 286:Menus.cpp     ****                 for(int i = 0; i < 2; i++)
 5294              		.loc 2 286 17 is_stmt 1 view .LVU1401
 5295              	.LVL350:
 286:Menus.cpp     ****                 for(int i = 0; i < 2; i++)
 5296              		.loc 2 286 34 view .LVU1402
 288:Menus.cpp     ****                     selectedWave = setWave;
 5297              		.loc 2 288 21 view .LVU1403
 288:Menus.cpp     ****                     selectedWave = setWave;
 5298              		.loc 2 288 34 is_stmt 0 view .LVU1404
 5299 0658 D5F86021 		ldr	r2, [r5, #352]
 5300 065c C5F89C20 		str	r2, [r5, #156]
 289:Menus.cpp     ****                     osc[0].SetWaveform(osc[0].WAVE_SAW);
 5301              		.loc 2 289 21 is_stmt 1 view .LVU1405
 5302              	.LVL351:
 5303              	.LBB1248:
  70:../../DaisySP/Source/Synthesis/oscillator.h ****     {
 5304              		.loc 8 70 17 view .LVU1406
 5305              	.LBB1247:
 5306              		.loc 8 72 9 view .LVU1407
ARM GAS  C:\Users\VINCIU~1\AppData\Local\Temp\ccF8ydZb.s 			page 142


 5307              		.loc 8 72 19 is_stmt 0 view .LVU1408
 5308 0660 3B70     		strb	r3, [r7]
 5309              	.LVL352:
 5310              		.loc 8 72 19 view .LVU1409
 5311              	.LBE1247:
 5312              	.LBE1248:
 286:Menus.cpp     ****                 for(int i = 0; i < 2; i++)
 5313              		.loc 2 286 17 is_stmt 1 view .LVU1410
 286:Menus.cpp     ****                 for(int i = 0; i < 2; i++)
 5314              		.loc 2 286 34 view .LVU1411
 5315              	.L306:
 286:Menus.cpp     ****                 for(int i = 0; i < 2; i++)
 5316              		.loc 2 286 34 is_stmt 0 view .LVU1412
 5317              	.LBE1244:
 5318              	.LBE1243:
 5319              	.LBE1242:
 5320              	.LBE1241:
 5321              	.LBE1266:
 5322              	.LBE1271:
 5323              	.LBE1321:
 5324              	.LBE1459:
 5325              	.LBE1483:
 5326              	.LBE1538:
 293:Menus.cpp     ****         {
 5327              		.loc 2 293 9 is_stmt 1 view .LVU1413
 5328              	.LBB1539:
 5329              	.LBB1484:
 5330              	.LBB1460:
 5331              	.LBB1322:
 5332              	.LBB1272:
 294:Menus.cpp     ****             if(this->OscSelector == false)
 5333              		.loc 2 294 13 view .LVU1414
 5334              	.LBB1273:
 5335 0662 95F87430 		ldrb	r3, [r5, #116]	@ zero_extendqisi2
 5336 0666 9BB9     		cbnz	r3, .L360
 5337              	.L300:
 5338              	.LBB1274:
 296:Menus.cpp     ****                 if(setWave2 > 3)
 5339              		.loc 2 296 17 view .LVU1415
 304:Menus.cpp     ****                 this->setWave2 += this->encoderRight.Increment();
 5340              		.loc 2 304 17 view .LVU1416
 5341              	.LVL353:
 5342              	.LBB1275:
 5343              	.LBI1275:
  41:../../libdaisy/src/hid/encoder.h ****     /** Returns true if the encoder was just pressed.
 5344              		.loc 3 41 20 view .LVU1417
 5345              	.LBB1276:
  41:../../libdaisy/src/hid/encoder.h ****     /** Returns true if the encoder was just pressed.
 5346              		.loc 3 41 40 view .LVU1418
  41:../../libdaisy/src/hid/encoder.h ****     /** Returns true if the encoder was just pressed.
 5347              		.loc 3 41 40 is_stmt 0 view .LVU1419
 5348              	.LBE1276:
 5349              	.LBE1275:
 304:Menus.cpp     ****                 this->setWave2 += this->encoderRight.Increment();
 5350              		.loc 2 304 32 view .LVU1420
 5351 0668 D5F86431 		ldr	r3, [r5, #356]
 5352 066c AA6C     		ldr	r2, [r5, #72]
ARM GAS  C:\Users\VINCIU~1\AppData\Local\Temp\ccF8ydZb.s 			page 143


 5353 066e 83F30203 		usat	r3, #2, r3
 5354 0672 1344     		add	r3, r3, r2
 305:Menus.cpp     ****                 if(setWave2 > 3)
 5355              		.loc 2 305 17 is_stmt 1 view .LVU1421
 5356 0674 032B     		cmp	r3, #3
 5357 0676 79DD     		ble	.L309
 307:Menus.cpp     ****                     this->setWave2 = 3;
 5358              		.loc 2 307 21 view .LVU1422
 307:Menus.cpp     ****                     this->setWave2 = 3;
 5359              		.loc 2 307 36 is_stmt 0 view .LVU1423
 5360 0678 0323     		movs	r3, #3
 5361 067a C5F86431 		str	r3, [r5, #356]
 309:Menus.cpp     ****                 if(this->setWave2 < 0)
 5362              		.loc 2 309 17 is_stmt 1 view .LVU1424
 313:Menus.cpp     ****                 if(this->setWave2 == 0)
 5363              		.loc 2 313 17 view .LVU1425
 5364              	.LBE1274:
 5365              	.LBE1273:
 5366              	.LBE1272:
 5367              	.LBE1322:
 5368              	.LBE1460:
 5369              	.LBE1484:
 5370              	.LBE1539:
 321:Menus.cpp     ****                 else if(setWave2 == 1)
 5371              		.loc 2 321 22 view .LVU1426
 5372              	.L310:
 5373              	.LVL354:
 5374              	.LBB1540:
 5375              	.LBB1485:
 5376              	.LBB1461:
 5377              	.LBB1323:
 5378              	.LBB1308:
 5379              	.LBB1303:
 5380              	.LBB1298:
 5381              	.LBB1277:
 5382              	.LBB1278:
 5383              	.LBB1279:
 5384              	.LBB1280:
 339:Menus.cpp     ****                     for(int i = 0; i < 2; i++)
 5385              		.loc 2 339 38 view .LVU1427
 341:Menus.cpp     ****                         selectedWave2 = setWave2;
 5386              		.loc 2 341 25 view .LVU1428
 342:Menus.cpp     ****                         osc[1].SetWaveform(osc[1].WAVE_SAW);
 5387              		.loc 2 342 25 view .LVU1429
 5388              	.LBB1281:
 5389              	.LBI1281:
  70:../../DaisySP/Source/Synthesis/oscillator.h ****     {
 5390              		.loc 8 70 17 view .LVU1430
 5391              	.LBB1282:
 5392              		.loc 8 72 9 view .LVU1431
 5393              		.loc 8 72 19 is_stmt 0 view .LVU1432
 5394 067e 0223     		movs	r3, #2
 5395              	.LVL355:
 5396              	.L359:
 5397              		.loc 8 72 19 view .LVU1433
 5398 0680 87F82830 		strb	r3, [r7, #40]
 5399              	.LBE1282:
ARM GAS  C:\Users\VINCIU~1\AppData\Local\Temp\ccF8ydZb.s 			page 144


 5400              	.LBE1281:
 339:Menus.cpp     ****                     for(int i = 0; i < 2; i++)
 5401              		.loc 2 339 21 is_stmt 1 view .LVU1434
 5402              	.LVL356:
 339:Menus.cpp     ****                     for(int i = 0; i < 2; i++)
 5403              		.loc 2 339 38 view .LVU1435
 341:Menus.cpp     ****                         selectedWave2 = setWave2;
 5404              		.loc 2 341 25 view .LVU1436
 341:Menus.cpp     ****                         selectedWave2 = setWave2;
 5405              		.loc 2 341 39 is_stmt 0 view .LVU1437
 5406 0684 D5F86421 		ldr	r2, [r5, #356]
 5407 0688 C5F8A020 		str	r2, [r5, #160]
 342:Menus.cpp     ****                         osc[1].SetWaveform(osc[1].WAVE_SAW);
 5408              		.loc 2 342 25 is_stmt 1 view .LVU1438
 5409              	.LVL357:
 5410              	.LBB1284:
  70:../../DaisySP/Source/Synthesis/oscillator.h ****     {
 5411              		.loc 8 70 17 view .LVU1439
 5412              	.LBB1283:
 5413              		.loc 8 72 9 view .LVU1440
 5414              		.loc 8 72 19 is_stmt 0 view .LVU1441
 5415 068c 87F82830 		strb	r3, [r7, #40]
 5416              	.LVL358:
 5417              	.L360:
 5418              		.loc 8 72 19 view .LVU1442
 5419              	.LBE1283:
 5420              	.LBE1284:
 339:Menus.cpp     ****                     for(int i = 0; i < 2; i++)
 5421              		.loc 2 339 21 is_stmt 1 view .LVU1443
 339:Menus.cpp     ****                     for(int i = 0; i < 2; i++)
 5422              		.loc 2 339 38 view .LVU1444
 5423              	.LBE1280:
 5424              	.LBE1279:
 5425              	.LBE1278:
 5426              	.LBE1277:
 5427              	.LBE1298:
 5428              	.LBE1303:
 348:Menus.cpp     ****             screen.DrawRect(29,
 5429              		.loc 2 348 28 is_stmt 0 view .LVU1445
 5430 0690 95F86831 		ldrb	r3, [r5, #360]	@ zero_extendqisi2
 348:Menus.cpp     ****             screen.DrawRect(29,
 5431              		.loc 2 348 13 is_stmt 1 view .LVU1446
 348:Menus.cpp     ****             screen.DrawRect(29,
 5432              		.loc 2 348 28 is_stmt 0 view .LVU1447
 5433 0694 0022     		movs	r2, #0
 5434 0696 3F21     		movs	r1, #63
 5435 0698 2046     		mov	r0, r4
 5436 069a CDE90132 		strd	r3, r2, [sp, #4]
 5437 069e 1D22     		movs	r2, #29
 5438 06a0 0091     		str	r1, [sp]
 5439 06a2 3C23     		movs	r3, #60
 5440 06a4 1146     		mov	r1, r2
 5441 06a6 FFF7FEFF 		bl	_ZN5daisy25OneBitGraphicsDisplayImplINS_11OledDisplayINS_13SSD130xDriverILj128ELj64ENS_24SSD130
 5442              	.LVL359:
 5443              	.LBE1308:
 5444 06aa 3DE7     		b	.L267
 5445              	.LVL360:
ARM GAS  C:\Users\VINCIU~1\AppData\Local\Temp\ccF8ydZb.s 			page 145


 5446              	.L247:
 348:Menus.cpp     ****             screen.DrawRect(29,
 5447              		.loc 2 348 28 view .LVU1448
 5448              	.LBE1323:
 5449              	.LBE1461:
 5450              	.LBE1485:
 5451              	.LBE1540:
 100:Menus.cpp     ****             menuState = 3;
 5452              		.loc 2 100 13 is_stmt 1 view .LVU1449
 100:Menus.cpp     ****             menuState = 3;
 5453              		.loc 2 100 23 is_stmt 0 view .LVU1450
 5454 06ac 0323     		movs	r3, #3
 5455 06ae EB66     		str	r3, [r5, #108]
 103:Menus.cpp     ****     if(this->buttonRight.RisingEdge())
 5456              		.loc 2 103 5 is_stmt 1 view .LVU1451
 5457              	.LVL361:
 5458              	.LBB1541:
 5459              		.loc 4 69 17 view .LVU1452
 5460              	.LBB1171:
 5461              		.loc 4 69 38 view .LVU1453
 5462              		.loc 4 69 38 is_stmt 0 view .LVU1454
 5463              	.LBE1171:
 5464              	.LBE1541:
 103:Menus.cpp     ****     if(this->buttonRight.RisingEdge())
 5465              		.loc 2 103 5 view .LVU1455
 5466 06b0 95F86130 		ldrb	r3, [r5, #97]	@ zero_extendqisi2
 5467 06b4 7F2B     		cmp	r3, #127
 5468 06b6 7FF4C2AC 		bne	.L249
 5469 06ba 86E7     		b	.L248
 5470              	.LVL362:
 5471              	.L289:
 5472              	.LBB1542:
 5473              	.LBB1486:
 5474              	.LBB1462:
 5475              	.LBB1451:
 5476              	.LBB1449:
 5477              	.LBB1448:
 5478              	.LBB1436:
 5479              	.LBB1435:
 5480              	.LBB1433:
 5481              	.LBI1433:
 239:../../libdaisy/src/dev/oled_ssd130x.h ****     {
 5482              		.loc 6 239 10 is_stmt 1 view .LVU1456
 5483              	.LBB1434:
 246:../../libdaisy/src/dev/oled_ssd130x.h ****     }
 5484              		.loc 6 246 42 is_stmt 0 view .LVU1457
 5485 06bc 02F0FE02 		and	r2, r2, #254
 5486 06c0 0CE7     		b	.L290
 5487              	.LVL363:
 5488              	.L284:
 246:../../libdaisy/src/dev/oled_ssd130x.h ****     }
 5489              		.loc 6 246 42 view .LVU1458
 5490              	.LBE1434:
 5491              	.LBE1433:
 5492              	.LBE1435:
 5493              	.LBE1436:
 5494              	.LBE1448:
ARM GAS  C:\Users\VINCIU~1\AppData\Local\Temp\ccF8ydZb.s 			page 146


 5495              	.LBE1449:
 5496              	.LBE1451:
 5497              	.LBB1452:
 5498              	.LBB1427:
 5499              	.LBB1426:
 5500              	.LBB1408:
 5501              	.LBB1407:
 5502              	.LBB1405:
 5503              	.LBI1405:
 239:../../libdaisy/src/dev/oled_ssd130x.h ****     {
 5504              		.loc 6 239 10 is_stmt 1 view .LVU1459
 5505              	.LBB1406:
 246:../../libdaisy/src/dev/oled_ssd130x.h ****     }
 5506              		.loc 6 246 42 is_stmt 0 view .LVU1460
 5507 06c2 02F0DF02 		and	r2, r2, #223
 5508 06c6 ECE6     		b	.L285
 5509              	.LVL364:
 5510              	.L279:
 246:../../libdaisy/src/dev/oled_ssd130x.h ****     }
 5511              		.loc 6 246 42 view .LVU1461
 5512              	.LBE1406:
 5513              	.LBE1405:
 5514              	.LBE1407:
 5515              	.LBE1408:
 5516              	.LBE1426:
 5517              	.LBE1427:
 5518              	.LBE1452:
 5519              	.LBB1453:
 5520              	.LBB1398:
 5521              	.LBB1396:
 5522              	.LBB1368:
 5523              	.LBB1367:
 5524              	.LBB1365:
 5525              	.LBI1365:
 239:../../libdaisy/src/dev/oled_ssd130x.h ****     {
 5526              		.loc 6 239 10 is_stmt 1 view .LVU1462
 5527              	.LBB1366:
 246:../../libdaisy/src/dev/oled_ssd130x.h ****     }
 5528              		.loc 6 246 42 is_stmt 0 view .LVU1463
 5529 06c8 02F0DF02 		and	r2, r2, #223
 5530 06cc C5E6     		b	.L280
 5531              	.LVL365:
 5532              	.L368:
 246:../../libdaisy/src/dev/oled_ssd130x.h ****     }
 5533              		.loc 6 246 42 view .LVU1464
 5534              	.LBE1366:
 5535              	.LBE1365:
 5536              	.LBE1367:
 5537              	.LBE1368:
 5538              	.LBE1396:
 5539              	.LBE1398:
 5540              	.LBE1453:
 5541              	.LBE1462:
 5542              	.LBB1463:
 216:Menus.cpp     ****         if(this->OscSelector == true)
 5543              		.loc 2 216 9 is_stmt 1 view .LVU1465
 5544 06ce 95F87420 		ldrb	r2, [r5, #116]	@ zero_extendqisi2
ARM GAS  C:\Users\VINCIU~1\AppData\Local\Temp\ccF8ydZb.s 			page 147


 5545 06d2 FAB1     		cbz	r2, .L295
 219:Menus.cpp     ****             if(this->encoderRight.Increment() == 1)
 5546              		.loc 2 219 13 view .LVU1466
 5547              	.LVL366:
 5548              	.LBB1324:
 5549              	.LBI1324:
  41:../../libdaisy/src/hid/encoder.h ****     /** Returns true if the encoder was just pressed.
 5550              		.loc 3 41 20 view .LVU1467
 5551              	.LBB1325:
  41:../../libdaisy/src/hid/encoder.h ****     /** Returns true if the encoder was just pressed.
 5552              		.loc 3 41 40 view .LVU1468
  41:../../libdaisy/src/hid/encoder.h ****     /** Returns true if the encoder was just pressed.
 5553              		.loc 3 41 47 is_stmt 0 view .LVU1469
 5554 06d4 AA6C     		ldr	r2, [r5, #72]
 5555              	.LVL367:
  41:../../libdaisy/src/hid/encoder.h ****     /** Returns true if the encoder was just pressed.
 5556              		.loc 3 41 47 view .LVU1470
 5557              	.LBE1325:
 5558              	.LBE1324:
 219:Menus.cpp     ****             if(this->encoderRight.Increment() == 1)
 5559              		.loc 2 219 13 view .LVU1471
 5560 06d6 012A     		cmp	r2, #1
 5561 06d8 30D0     		beq	.L382
 224:Menus.cpp     ****             if(this->encoderRight.Increment() == -1)
 5562              		.loc 2 224 13 is_stmt 1 view .LVU1472
 5563              	.LVL368:
 224:Menus.cpp     ****             if(this->encoderRight.Increment() == -1)
 5564              		.loc 2 224 13 is_stmt 0 view .LVU1473
 5565              	.LBE1463:
 5566              	.LBE1486:
 5567              	.LBE1542:
  41:../../libdaisy/src/hid/encoder.h ****     /** Returns true if the encoder was just pressed.
 5568              		.loc 3 41 40 is_stmt 1 view .LVU1474
 5569              	.LBB1543:
 5570              	.LBB1487:
 5571              	.LBB1464:
 224:Menus.cpp     ****             if(this->encoderRight.Increment() == -1)
 5572              		.loc 2 224 13 is_stmt 0 view .LVU1475
 5573 06da 0132     		adds	r2, r2, #1
 5574 06dc 23D1     		bne	.L297
 226:Menus.cpp     ****                 synthOn         = 0;
 5575              		.loc 2 226 17 is_stmt 1 view .LVU1476
 227:Menus.cpp     ****                 this->toggleOsc = true;
 5576              		.loc 2 227 33 is_stmt 0 view .LVU1477
 5577 06de 85F89830 		strb	r3, [r5, #152]
 226:Menus.cpp     ****                 synthOn         = 0;
 5578              		.loc 2 226 33 view .LVU1478
 5579 06e2 0023     		movs	r3, #0
 5580 06e4 C5F83C31 		str	r3, [r5, #316]
 227:Menus.cpp     ****                 this->toggleOsc = true;
 5581              		.loc 2 227 17 is_stmt 1 view .LVU1479
 5582 06e8 1DE0     		b	.L297
 5583              	.L332:
 227:Menus.cpp     ****                 this->toggleOsc = true;
 5584              		.loc 2 227 17 is_stmt 0 view .LVU1480
 5585              	.LBE1464:
 5586 06ea B0EE667A 		vmov.f32	s14, s13
ARM GAS  C:\Users\VINCIU~1\AppData\Local\Temp\ccF8ydZb.s 			page 148


 5587 06ee 73E6     		b	.L273
 5588              	.L330:
 227:Menus.cpp     ****                 this->toggleOsc = true;
 5589              		.loc 2 227 17 view .LVU1481
 5590 06f0 DFED057A 		vldr.32	s15, .L388+12
 5591 06f4 5FE6     		b	.L272
 5592              	.L328:
 227:Menus.cpp     ****                 this->toggleOsc = true;
 5593              		.loc 2 227 17 view .LVU1482
 5594 06f6 F0EE477A 		vmov.f32	s15, s14
 5595 06fa 81E7     		b	.L270
 5596              	.L389:
 5597              		.align	2
 5598              	.L388:
 5599 06fc 08000000 		.word	.LC5
 5600 0700 00002042 		.word	1109393408
 5601 0704 00000000 		.word	0
 5602 0708 00000042 		.word	1107296256
 5603 070c 0000003D 		.word	1023410176
 5604 0710 0000C842 		.word	1120403456
 5605              	.L295:
 5606              	.LBB1465:
 232:Menus.cpp     ****             if(this->encoderRight.Increment() == 1)
 5607              		.loc 2 232 13 is_stmt 1 view .LVU1483
 5608              	.LVL369:
 5609              	.LBB1326:
 5610              	.LBI1326:
  41:../../libdaisy/src/hid/encoder.h ****     /** Returns true if the encoder was just pressed.
 5611              		.loc 3 41 20 view .LVU1484
 5612              	.LBB1327:
  41:../../libdaisy/src/hid/encoder.h ****     /** Returns true if the encoder was just pressed.
 5613              		.loc 3 41 40 view .LVU1485
  41:../../libdaisy/src/hid/encoder.h ****     /** Returns true if the encoder was just pressed.
 5614              		.loc 3 41 47 is_stmt 0 view .LVU1486
 5615 0714 A96C     		ldr	r1, [r5, #72]
 5616              	.LVL370:
  41:../../libdaisy/src/hid/encoder.h ****     /** Returns true if the encoder was just pressed.
 5617              		.loc 3 41 47 view .LVU1487
 5618              	.LBE1327:
 5619              	.LBE1326:
 232:Menus.cpp     ****             if(this->encoderRight.Increment() == 1)
 5620              		.loc 2 232 13 view .LVU1488
 5621 0716 0129     		cmp	r1, #1
 5622 0718 16D0     		beq	.L383
 237:Menus.cpp     ****             if(this->encoderRight.Increment() == -1)
 5623              		.loc 2 237 13 is_stmt 1 view .LVU1489
 5624              	.LVL371:
 237:Menus.cpp     ****             if(this->encoderRight.Increment() == -1)
 5625              		.loc 2 237 13 is_stmt 0 view .LVU1490
 5626              	.LBE1465:
 5627              	.LBE1487:
 5628              	.LBE1543:
  41:../../libdaisy/src/hid/encoder.h ****     /** Returns true if the encoder was just pressed.
 5629              		.loc 3 41 40 is_stmt 1 view .LVU1491
 5630              	.LBB1544:
 5631              	.LBB1488:
 5632              	.LBB1466:
ARM GAS  C:\Users\VINCIU~1\AppData\Local\Temp\ccF8ydZb.s 			page 149


 237:Menus.cpp     ****             if(this->encoderRight.Increment() == -1)
 5633              		.loc 2 237 13 is_stmt 0 view .LVU1492
 5634 071a 0131     		adds	r1, r1, #1
 5635 071c 03D1     		bne	.L297
 239:Menus.cpp     ****                 synthOn2         = 0;
 5636              		.loc 2 239 17 is_stmt 1 view .LVU1493
 239:Menus.cpp     ****                 synthOn2         = 0;
 5637              		.loc 2 239 34 is_stmt 0 view .LVU1494
 5638 071e C5F84021 		str	r2, [r5, #320]
 240:Menus.cpp     ****                 this->toggleOsc2 = true;
 5639              		.loc 2 240 17 is_stmt 1 view .LVU1495
 240:Menus.cpp     ****                 this->toggleOsc2 = true;
 5640              		.loc 2 240 34 is_stmt 0 view .LVU1496
 5641 0722 85F89930 		strb	r3, [r5, #153]
 5642              	.L297:
 244:Menus.cpp     ****         screen.DrawRect(
 5643              		.loc 2 244 9 is_stmt 1 view .LVU1497
 244:Menus.cpp     ****         screen.DrawRect(
 5644              		.loc 2 244 24 is_stmt 0 view .LVU1498
 5645 0726 3F23     		movs	r3, #63
 5646 0728 0021     		movs	r1, #0
 5647 072a 0093     		str	r3, [sp]
 5648 072c 1D23     		movs	r3, #29
 5649 072e CDE90101 		strd	r0, r1, [sp, #4]
 5650 0732 1A46     		mov	r2, r3
 5651 0734 2046     		mov	r0, r4
 5652 0736 FFF7FEFF 		bl	_ZN5daisy25OneBitGraphicsDisplayImplINS_11OledDisplayINS_13SSD130xDriverILj128ELj64ENS_24SSD130
 5653              	.LVL372:
 5654 073a F5E6     		b	.L267
 5655              	.L382:
 221:Menus.cpp     ****                 synthOn         = 1;
 5656              		.loc 2 221 17 is_stmt 1 view .LVU1499
 222:Menus.cpp     ****                 this->toggleOsc = false;
 5657              		.loc 2 222 33 is_stmt 0 view .LVU1500
 5658 073c 0023     		movs	r3, #0
 221:Menus.cpp     ****                 synthOn         = 1;
 5659              		.loc 2 221 33 view .LVU1501
 5660 073e C5F83C21 		str	r2, [r5, #316]
 222:Menus.cpp     ****                 this->toggleOsc = false;
 5661              		.loc 2 222 17 is_stmt 1 view .LVU1502
 222:Menus.cpp     ****                 this->toggleOsc = false;
 5662              		.loc 2 222 33 is_stmt 0 view .LVU1503
 5663 0742 85F89830 		strb	r3, [r5, #152]
 224:Menus.cpp     ****             if(this->encoderRight.Increment() == -1)
 5664              		.loc 2 224 13 is_stmt 1 view .LVU1504
 5665              	.LVL373:
 224:Menus.cpp     ****             if(this->encoderRight.Increment() == -1)
 5666              		.loc 2 224 13 is_stmt 0 view .LVU1505
 5667              	.LBE1466:
 5668              	.LBE1488:
 5669              	.LBE1544:
  41:../../libdaisy/src/hid/encoder.h ****     /** Returns true if the encoder was just pressed.
 5670              		.loc 3 41 40 is_stmt 1 view .LVU1506
  41:../../libdaisy/src/hid/encoder.h ****     /** Returns true if the encoder was just pressed.
 5671              		.loc 3 41 40 is_stmt 0 view .LVU1507
 5672 0746 EEE7     		b	.L297
 5673              	.L383:
ARM GAS  C:\Users\VINCIU~1\AppData\Local\Temp\ccF8ydZb.s 			page 150


 5674              	.LBB1545:
 5675              	.LBB1489:
 5676              	.LBB1467:
 234:Menus.cpp     ****                 synthOn2         = 1;
 5677              		.loc 2 234 17 is_stmt 1 view .LVU1508
 234:Menus.cpp     ****                 synthOn2         = 1;
 5678              		.loc 2 234 34 is_stmt 0 view .LVU1509
 5679 0748 C5F84011 		str	r1, [r5, #320]
 235:Menus.cpp     ****                 this->toggleOsc2 = false;
 5680              		.loc 2 235 17 is_stmt 1 view .LVU1510
 235:Menus.cpp     ****                 this->toggleOsc2 = false;
 5681              		.loc 2 235 34 is_stmt 0 view .LVU1511
 5682 074c 85F89920 		strb	r2, [r5, #153]
 237:Menus.cpp     ****             if(this->encoderRight.Increment() == -1)
 5683              		.loc 2 237 13 is_stmt 1 view .LVU1512
 5684              	.LVL374:
 237:Menus.cpp     ****             if(this->encoderRight.Increment() == -1)
 5685              		.loc 2 237 13 is_stmt 0 view .LVU1513
 5686              	.LBE1467:
 5687              	.LBE1489:
 5688              	.LBE1545:
  41:../../libdaisy/src/hid/encoder.h ****     /** Returns true if the encoder was just pressed.
 5689              		.loc 3 41 40 is_stmt 1 view .LVU1514
  41:../../libdaisy/src/hid/encoder.h ****     /** Returns true if the encoder was just pressed.
 5690              		.loc 3 41 40 is_stmt 0 view .LVU1515
 5691 0750 E9E7     		b	.L297
 5692              	.L301:
 5693              	.LBB1546:
 5694              	.LBB1490:
 5695              	.LBB1468:
 5696              	.LBB1328:
 5697              	.LBB1309:
 5698              	.LBB1267:
 256:Menus.cpp     ****             if(this->setWave < 0)
 5699              		.loc 2 256 13 is_stmt 1 view .LVU1516
 5700 0752 002B     		cmp	r3, #0
 5701 0754 68DA     		bge	.L303
 258:Menus.cpp     ****                 this->setWave = 0;
 5702              		.loc 2 258 17 view .LVU1517
 258:Menus.cpp     ****                 this->setWave = 0;
 5703              		.loc 2 258 31 is_stmt 0 view .LVU1518
 5704 0756 0023     		movs	r3, #0
 5705 0758 C5F86031 		str	r3, [r5, #352]
 260:Menus.cpp     ****             if(this->setWave == 0)
 5706              		.loc 2 260 13 is_stmt 1 view .LVU1519
 5707              	.L304:
 5708              	.LVL375:
 5709              	.LBB1262:
 5710              	.LBB1255:
 262:Menus.cpp     ****                 for(int i = 0; i < 2; i++)
 5711              		.loc 2 262 34 view .LVU1520
 264:Menus.cpp     ****                     selectedWave = setWave;
 5712              		.loc 2 264 21 view .LVU1521
 265:Menus.cpp     ****                     osc[0].SetWaveform(osc[0].WAVE_SIN);
 5713              		.loc 2 265 21 view .LVU1522
 5714              	.LBB1256:
 5715              	.LBI1256:
ARM GAS  C:\Users\VINCIU~1\AppData\Local\Temp\ccF8ydZb.s 			page 151


  70:../../DaisySP/Source/Synthesis/oscillator.h ****     {
 5716              		.loc 8 70 17 view .LVU1523
 5717              	.LBB1257:
 5718              		.loc 8 72 9 view .LVU1524
 5719              		.loc 8 72 19 is_stmt 0 view .LVU1525
 5720 075c 0023     		movs	r3, #0
 5721 075e 3B70     		strb	r3, [r7]
 5722              	.LVL376:
 5723              		.loc 8 72 19 view .LVU1526
 5724              	.LBE1257:
 5725              	.LBE1256:
 262:Menus.cpp     ****                 for(int i = 0; i < 2; i++)
 5726              		.loc 2 262 17 is_stmt 1 view .LVU1527
 262:Menus.cpp     ****                 for(int i = 0; i < 2; i++)
 5727              		.loc 2 262 34 view .LVU1528
 264:Menus.cpp     ****                     selectedWave = setWave;
 5728              		.loc 2 264 21 view .LVU1529
 264:Menus.cpp     ****                     selectedWave = setWave;
 5729              		.loc 2 264 34 is_stmt 0 view .LVU1530
 5730 0760 D5F86021 		ldr	r2, [r5, #352]
 5731 0764 C5F89C20 		str	r2, [r5, #156]
 265:Menus.cpp     ****                     osc[0].SetWaveform(osc[0].WAVE_SIN);
 5732              		.loc 2 265 21 is_stmt 1 view .LVU1531
 5733              	.LVL377:
 5734              	.LBB1259:
  70:../../DaisySP/Source/Synthesis/oscillator.h ****     {
 5735              		.loc 8 70 17 view .LVU1532
 5736              	.LBB1258:
 5737              		.loc 8 72 9 view .LVU1533
 5738              		.loc 8 72 19 is_stmt 0 view .LVU1534
 5739 0768 3B70     		strb	r3, [r7]
 5740              	.LVL378:
 5741              		.loc 8 72 19 view .LVU1535
 5742              	.LBE1258:
 5743              	.LBE1259:
 262:Menus.cpp     ****                 for(int i = 0; i < 2; i++)
 5744              		.loc 2 262 17 is_stmt 1 view .LVU1536
 262:Menus.cpp     ****                 for(int i = 0; i < 2; i++)
 5745              		.loc 2 262 34 view .LVU1537
 5746 076a 7AE7     		b	.L306
 5747              	.LVL379:
 5748              	.L309:
 262:Menus.cpp     ****                 for(int i = 0; i < 2; i++)
 5749              		.loc 2 262 34 is_stmt 0 view .LVU1538
 5750              	.LBE1255:
 5751              	.LBE1262:
 5752              	.LBE1267:
 5753              	.LBE1309:
 5754              	.LBB1310:
 5755              	.LBB1304:
 5756              	.LBB1299:
 309:Menus.cpp     ****                 if(this->setWave2 < 0)
 5757              		.loc 2 309 17 is_stmt 1 view .LVU1539
 5758 076c 002B     		cmp	r3, #0
 5759 076e 6CDA     		bge	.L311
 311:Menus.cpp     ****                     this->setWave2 = 0;
 5760              		.loc 2 311 21 view .LVU1540
ARM GAS  C:\Users\VINCIU~1\AppData\Local\Temp\ccF8ydZb.s 			page 152


 311:Menus.cpp     ****                     this->setWave2 = 0;
 5761              		.loc 2 311 36 is_stmt 0 view .LVU1541
 5762 0770 0023     		movs	r3, #0
 5763 0772 C5F86431 		str	r3, [r5, #356]
 313:Menus.cpp     ****                 if(this->setWave2 == 0)
 5764              		.loc 2 313 17 is_stmt 1 view .LVU1542
 5765              	.L312:
 5766              	.LVL380:
 5767              	.LBB1294:
 5768              	.LBB1289:
 315:Menus.cpp     ****                     for(int i = 0; i < 2; i++)
 5769              		.loc 2 315 38 view .LVU1543
 317:Menus.cpp     ****                         selectedWave2 = setWave2;
 5770              		.loc 2 317 25 view .LVU1544
 318:Menus.cpp     ****                         osc[1].SetWaveform(osc[1].WAVE_SIN);
 5771              		.loc 2 318 25 view .LVU1545
 5772              	.LBB1290:
 5773              	.LBI1290:
  70:../../DaisySP/Source/Synthesis/oscillator.h ****     {
 5774              		.loc 8 70 17 view .LVU1546
 5775              	.LBB1291:
 5776              		.loc 8 72 9 view .LVU1547
 5777              		.loc 8 72 19 is_stmt 0 view .LVU1548
 5778 0776 0023     		movs	r3, #0
 5779 0778 82E7     		b	.L359
 5780              	.LVL381:
 5781              	.L316:
 5782              		.loc 8 72 19 view .LVU1549
 5783              	.LBE1291:
 5784              	.LBE1290:
 5785              	.LBE1289:
 5786              	.LBE1294:
 5787              	.LBE1299:
 5788              	.LBE1304:
 5789              	.LBE1310:
 389:Menus.cpp     ****             if(this->freqFine2 > 1)
 5790              		.loc 2 389 13 is_stmt 1 view .LVU1550
 389:Menus.cpp     ****             if(this->freqFine2 > 1)
 5791              		.loc 2 389 22 is_stmt 0 view .LVU1551
 5792 077a D5ED527A 		vldr.32	s15, [r5, #328]
 389:Menus.cpp     ****             if(this->freqFine2 > 1)
 5793              		.loc 2 389 13 view .LVU1552
 5794 077e F4EEC77A 		vcmpe.f32	s15, s14
 5795 0782 F1EE10FA 		vmrs	APSR_nzcv, FPSCR
 5796 0786 35DD     		ble	.L384
 5797 0788 F0EE477A 		vmov.f32	s15, s14
 5798              	.L320:
 397:Menus.cpp     ****             if(this->drawSliderFine2 >= 1)
 5799              		.loc 2 397 13 is_stmt 1 view .LVU1553
 5800 078c F7EE006A 		vmov.f32	s13, #1.0e+0
 397:Menus.cpp     ****             if(this->drawSliderFine2 >= 1)
 5801              		.loc 2 397 22 is_stmt 0 view .LVU1554
 5802 0790 95ED217A 		vldr.32	s14, [r5, #132]
 397:Menus.cpp     ****             if(this->drawSliderFine2 >= 1)
 5803              		.loc 2 397 13 view .LVU1555
 5804 0794 B4EEE67A 		vcmpe.f32	s14, s13
 5805 0798 F1EE10FA 		vmrs	APSR_nzcv, FPSCR
ARM GAS  C:\Users\VINCIU~1\AppData\Local\Temp\ccF8ydZb.s 			page 153


 5806 079c 22DB     		blt	.L385
 5807 079e B0EE667A 		vmov.f32	s14, s13
 5808              	.L321:
 406:Menus.cpp     ****              this->freqFine2 += (((float)this->encoderRight.Increment()) / 32);
 5809              		.loc 2 406 14 is_stmt 1 view .LVU1556
 5810              	.LVL382:
 5811              	.LBB1311:
 5812              	.LBI1311:
  41:../../libdaisy/src/hid/encoder.h ****     /** Returns true if the encoder was just pressed.
 5813              		.loc 3 41 20 view .LVU1557
 5814              	.LBB1312:
  41:../../libdaisy/src/hid/encoder.h ****     /** Returns true if the encoder was just pressed.
 5815              		.loc 3 41 40 view .LVU1558
  41:../../libdaisy/src/hid/encoder.h ****     /** Returns true if the encoder was just pressed.
 5816              		.loc 3 41 40 is_stmt 0 view .LVU1559
 5817              	.LBE1312:
 5818              	.LBE1311:
 406:Menus.cpp     ****              this->freqFine2 += (((float)this->encoderRight.Increment()) / 32);
 5819              		.loc 2 406 35 view .LVU1560
 5820 07a2 D5ED126A 		vldr.32	s13, [r5, #72]	@ int
 408:Menus.cpp     ****             sprintf(this->buffFine2, "Fine_%d%%", (int)(freqFine2 * 100));
 5821              		.loc 2 408 20 view .LVU1561
 5822 07a6 05F1EC00 		add	r0, r5, #236
 406:Menus.cpp     ****              this->freqFine2 += (((float)this->encoderRight.Increment()) / 32);
 5823              		.loc 2 406 30 view .LVU1562
 5824 07aa 5FED285A 		vldr.32	s11, .L388+16
 406:Menus.cpp     ****              this->freqFine2 += (((float)this->encoderRight.Increment()) / 32);
 5825              		.loc 2 406 35 view .LVU1563
 5826 07ae F8EEE66A 		vcvt.f32.s32	s13, s13
 408:Menus.cpp     ****             sprintf(this->buffFine2, "Fine_%d%%", (int)(freqFine2 * 100));
 5827              		.loc 2 408 67 view .LVU1564
 5828 07b2 1FED296A 		vldr.32	s12, .L388+20
 408:Menus.cpp     ****             sprintf(this->buffFine2, "Fine_%d%%", (int)(freqFine2 * 100));
 5829              		.loc 2 408 20 view .LVU1565
 5830 07b6 2A49     		ldr	r1, .L390
 406:Menus.cpp     ****              this->freqFine2 += (((float)this->encoderRight.Increment()) / 32);
 5831              		.loc 2 406 30 view .LVU1566
 5832 07b8 E6EEA57A 		vfma.f32	s15, s13, s11
 407:Menus.cpp     ****             this->drawSliderFine2 += (((float)this->encoderRight.Increment()) / 32);
 5833              		.loc 2 407 35 view .LVU1567
 5834 07bc A6EEA57A 		vfma.f32	s14, s13, s11
 408:Menus.cpp     ****             sprintf(this->buffFine2, "Fine_%d%%", (int)(freqFine2 * 100));
 5835              		.loc 2 408 67 view .LVU1568
 5836 07c0 67EE866A 		vmul.f32	s13, s15, s12
 406:Menus.cpp     ****              this->freqFine2 += (((float)this->encoderRight.Increment()) / 32);
 5837              		.loc 2 406 30 view .LVU1569
 5838 07c4 C5ED527A 		vstr.32	s15, [r5, #328]
 407:Menus.cpp     ****             this->drawSliderFine2 += (((float)this->encoderRight.Increment()) / 32);
 5839              		.loc 2 407 13 is_stmt 1 view .LVU1570
 5840              	.LVL383:
 407:Menus.cpp     ****             this->drawSliderFine2 += (((float)this->encoderRight.Increment()) / 32);
 5841              		.loc 2 407 13 is_stmt 0 view .LVU1571
 5842              	.LBE1328:
 5843              	.LBE1468:
 5844              	.LBE1490:
 5845              	.LBE1546:
  41:../../libdaisy/src/hid/encoder.h ****     /** Returns true if the encoder was just pressed.
ARM GAS  C:\Users\VINCIU~1\AppData\Local\Temp\ccF8ydZb.s 			page 154


 5846              		.loc 3 41 40 is_stmt 1 view .LVU1572
 5847              	.LBB1547:
 5848              	.LBB1491:
 5849              	.LBB1469:
 5850              	.LBB1329:
 407:Menus.cpp     ****             this->drawSliderFine2 += (((float)this->encoderRight.Increment()) / 32);
 5851              		.loc 2 407 35 is_stmt 0 view .LVU1573
 5852 07c8 85ED217A 		vstr.32	s14, [r5, #132]
 408:Menus.cpp     ****             sprintf(this->buffFine2, "Fine_%d%%", (int)(freqFine2 * 100));
 5853              		.loc 2 408 13 is_stmt 1 view .LVU1574
 408:Menus.cpp     ****             sprintf(this->buffFine2, "Fine_%d%%", (int)(freqFine2 * 100));
 5854              		.loc 2 408 20 is_stmt 0 view .LVU1575
 5855 07cc FDEEE67A 		vcvt.s32.f32	s15, s13
 5856 07d0 17EE902A 		vmov	r2, s15	@ int
 5857 07d4 FFF7FEFF 		bl	sprintf
 5858              	.LVL384:
 5859 07d8 45E5     		b	.L319
 5860              	.L373:
 408:Menus.cpp     ****             sprintf(this->buffFine2, "Fine_%d%%", (int)(freqFine2 * 100));
 5861              		.loc 2 408 20 view .LVU1576
 5862              	.LBE1329:
 5863              	.LBE1469:
 204:Menus.cpp     ****             this->noteSemiAdd2 += (float)this->encoderRight.Increment();
 5864              		.loc 2 204 32 view .LVU1577
 5865 07da 07EE903A 		vmov	s15, r3	@ int
 5866 07de F8EEE77A 		vcvt.f32.s32	s15, s15
 5867 07e2 E8E5     		b	.L272
 5868              	.L385:
 5869              	.LBB1470:
 5870              	.LBB1330:
 401:Menus.cpp     ****             if(this->drawSliderFine2 < 0)
 5871              		.loc 2 401 13 is_stmt 1 view .LVU1578
 5872 07e4 B5EEC07A 		vcmpe.f32	s14, #0
 5873 07e8 F1EE10FA 		vmrs	APSR_nzcv, FPSCR
 5874 07ec D9D5     		bpl	.L321
 5875 07ee 9FED1D7A 		vldr.32	s14, .L390+4
 5876 07f2 D6E7     		b	.L321
 5877              	.L384:
 393:Menus.cpp     ****             if(this->freqFine2 < 0)
 5878              		.loc 2 393 13 view .LVU1579
 5879 07f4 F5EEC07A 		vcmpe.f32	s15, #0
 5880 07f8 F1EE10FA 		vmrs	APSR_nzcv, FPSCR
 5881 07fc C6D5     		bpl	.L320
 5882 07fe DFED197A 		vldr.32	s15, .L390+4
 5883 0802 C3E7     		b	.L320
 5884              	.L371:
 378:Menus.cpp     ****             if(this->drawSliderFine < 0)
 5885              		.loc 2 378 13 view .LVU1580
 5886 0804 B5EEC07A 		vcmpe.f32	s14, #0
 5887 0808 F1EE10FA 		vmrs	APSR_nzcv, FPSCR
 5888 080c 7FF510AD 		bpl	.L318
 5889 0810 9FED147A 		vldr.32	s14, .L390+4
 5890 0814 0CE5     		b	.L318
 5891              	.L370:
 370:Menus.cpp     ****             if(this->freqFine < 0)
 5892              		.loc 2 370 13 view .LVU1581
 5893 0816 F5EEC07A 		vcmpe.f32	s15, #0
ARM GAS  C:\Users\VINCIU~1\AppData\Local\Temp\ccF8ydZb.s 			page 155


 5894 081a F1EE10FA 		vmrs	APSR_nzcv, FPSCR
 5895 081e 7FF5FBAC 		bpl	.L317
 5896 0822 DFED107A 		vldr.32	s15, .L390+4
 5897 0826 F7E4     		b	.L317
 5898              	.L303:
 5899              	.LBB1313:
 5900              	.LBB1268:
 251:Menus.cpp     ****             this->setWave += this->encoderRight.Increment();
 5901              		.loc 2 251 27 is_stmt 0 view .LVU1582
 5902 0828 C5F86031 		str	r3, [r5, #352]
 260:Menus.cpp     ****             if(this->setWave == 0)
 5903              		.loc 2 260 13 is_stmt 1 view .LVU1583
 5904              	.LBB1263:
 5905 082c 96D0     		beq	.L304
 5906              	.LBE1263:
 5907              	.LBE1268:
 5908              	.LBE1313:
 5909              	.LBE1330:
 5910              	.LBE1470:
 5911              	.LBE1491:
 5912              	.LBE1547:
 268:Menus.cpp     ****             else if(setWave == 1)
 5913              		.loc 2 268 18 view .LVU1584
 5914              	.LBB1548:
 5915              	.LBB1492:
 5916              	.LBB1471:
 5917              	.LBB1331:
 5918              	.LBB1314:
 5919              	.LBB1269:
 5920              	.LBB1264:
 5921              	.LBB1260:
 5922 082e 012B     		cmp	r3, #1
 5923 0830 3FF411AF 		beq	.L358
 5924              	.LBE1260:
 5925              	.LBE1264:
 5926              	.LBE1269:
 5927              	.LBE1314:
 5928              	.LBE1331:
 5929              	.LBE1471:
 5930              	.LBE1492:
 5931              	.LBE1548:
 276:Menus.cpp     ****             else if(setWave == 2)
 5932              		.loc 2 276 18 view .LVU1585
 5933              	.LBB1549:
 5934              	.LBB1493:
 5935              	.LBB1472:
 5936              	.LBB1332:
 5937              	.LBB1315:
 5938              	.LBB1270:
 5939              	.LBB1265:
 5940              	.LBB1261:
 5941              	.LBB1254:
 5942 0834 022B     		cmp	r3, #2
 5943 0836 7FF40DAF 		bne	.L302
 5944              	.LVL385:
 5945              	.LBB1249:
 278:Menus.cpp     ****                 for(int i = 0; i < 2; i++)
ARM GAS  C:\Users\VINCIU~1\AppData\Local\Temp\ccF8ydZb.s 			page 156


 5946              		.loc 2 278 34 view .LVU1586
 280:Menus.cpp     ****                     selectedWave = setWave;
 5947              		.loc 2 280 21 view .LVU1587
 281:Menus.cpp     ****                     osc[0].SetWaveform(osc[0].WAVE_SQUARE);
 5948              		.loc 2 281 21 view .LVU1588
 5949              	.LBB1250:
 5950              	.LBI1250:
  70:../../DaisySP/Source/Synthesis/oscillator.h ****     {
 5951              		.loc 8 70 17 view .LVU1589
 5952              	.LBB1251:
 5953              		.loc 8 72 9 view .LVU1590
 5954              		.loc 8 72 19 is_stmt 0 view .LVU1591
 5955 083a 0423     		movs	r3, #4
 5956 083c 3B70     		strb	r3, [r7]
 5957              	.LVL386:
 5958              		.loc 8 72 19 view .LVU1592
 5959              	.LBE1251:
 5960              	.LBE1250:
 278:Menus.cpp     ****                 for(int i = 0; i < 2; i++)
 5961              		.loc 2 278 17 is_stmt 1 view .LVU1593
 278:Menus.cpp     ****                 for(int i = 0; i < 2; i++)
 5962              		.loc 2 278 34 view .LVU1594
 280:Menus.cpp     ****                     selectedWave = setWave;
 5963              		.loc 2 280 21 view .LVU1595
 280:Menus.cpp     ****                     selectedWave = setWave;
 5964              		.loc 2 280 34 is_stmt 0 view .LVU1596
 5965 083e D5F86021 		ldr	r2, [r5, #352]
 5966 0842 C5F89C20 		str	r2, [r5, #156]
 281:Menus.cpp     ****                     osc[0].SetWaveform(osc[0].WAVE_SQUARE);
 5967              		.loc 2 281 21 is_stmt 1 view .LVU1597
 5968              	.LVL387:
 5969              	.LBB1253:
  70:../../DaisySP/Source/Synthesis/oscillator.h ****     {
 5970              		.loc 8 70 17 view .LVU1598
 5971              	.LBB1252:
 5972              		.loc 8 72 9 view .LVU1599
 5973              		.loc 8 72 19 is_stmt 0 view .LVU1600
 5974 0846 3B70     		strb	r3, [r7]
 5975              	.LVL388:
 5976              		.loc 8 72 19 view .LVU1601
 5977              	.LBE1252:
 5978              	.LBE1253:
 278:Menus.cpp     ****                 for(int i = 0; i < 2; i++)
 5979              		.loc 2 278 17 is_stmt 1 view .LVU1602
 278:Menus.cpp     ****                 for(int i = 0; i < 2; i++)
 5980              		.loc 2 278 34 view .LVU1603
 5981 0848 0BE7     		b	.L306
 5982              	.LVL389:
 5983              	.L311:
 278:Menus.cpp     ****                 for(int i = 0; i < 2; i++)
 5984              		.loc 2 278 34 is_stmt 0 view .LVU1604
 5985              	.LBE1249:
 5986              	.LBE1254:
 5987              	.LBE1261:
 5988              	.LBE1265:
 5989              	.LBE1270:
 5990              	.LBE1315:
ARM GAS  C:\Users\VINCIU~1\AppData\Local\Temp\ccF8ydZb.s 			page 157


 5991              	.LBB1316:
 5992              	.LBB1305:
 5993              	.LBB1300:
 304:Menus.cpp     ****                 this->setWave2 += this->encoderRight.Increment();
 5994              		.loc 2 304 32 view .LVU1605
 5995 084a C5F86431 		str	r3, [r5, #356]
 313:Menus.cpp     ****                 if(this->setWave2 == 0)
 5996              		.loc 2 313 17 is_stmt 1 view .LVU1606
 5997              	.LBB1295:
 5998 084e 92D0     		beq	.L312
 5999              	.LBE1295:
 6000              	.LBE1300:
 6001              	.LBE1305:
 6002              	.LBE1316:
 6003              	.LBE1332:
 6004              	.LBE1472:
 6005              	.LBE1493:
 6006              	.LBE1549:
 321:Menus.cpp     ****                 else if(setWave2 == 1)
 6007              		.loc 2 321 22 view .LVU1607
 6008              	.LBB1550:
 6009              	.LBB1494:
 6010              	.LBB1473:
 6011              	.LBB1333:
 6012              	.LBB1317:
 6013              	.LBB1306:
 6014              	.LBB1301:
 6015              	.LBB1296:
 6016              	.LBB1292:
 6017 0850 012B     		cmp	r3, #1
 6018 0852 3FF415AF 		beq	.L359
 6019              	.LBE1292:
 6020              	.LBE1296:
 6021              	.LBE1301:
 6022              	.LBE1306:
 6023              	.LBE1317:
 6024              	.LBE1333:
 6025              	.LBE1473:
 6026              	.LBE1494:
 6027              	.LBE1550:
 329:Menus.cpp     ****                 else if(setWave2 == 2)
 6028              		.loc 2 329 22 view .LVU1608
 6029              	.LBB1551:
 6030              	.LBB1495:
 6031              	.LBB1474:
 6032              	.LBB1334:
 6033              	.LBB1318:
 6034              	.LBB1307:
 6035              	.LBB1302:
 6036              	.LBB1297:
 6037              	.LBB1293:
 6038              	.LBB1288:
 6039 0856 022B     		cmp	r3, #2
 6040 0858 7FF411AF 		bne	.L310
 6041              	.LVL390:
 6042              	.LBB1285:
 331:Menus.cpp     ****                     for(int i = 0; i < 2; i++)
ARM GAS  C:\Users\VINCIU~1\AppData\Local\Temp\ccF8ydZb.s 			page 158


 6043              		.loc 2 331 38 view .LVU1609
 333:Menus.cpp     ****                         selectedWave2 = setWave2;
 6044              		.loc 2 333 25 view .LVU1610
 334:Menus.cpp     ****                         osc[1].SetWaveform(osc[1].WAVE_SQUARE);
 6045              		.loc 2 334 25 view .LVU1611
 6046              	.LBB1286:
 6047              	.LBI1286:
  70:../../DaisySP/Source/Synthesis/oscillator.h ****     {
 6048              		.loc 8 70 17 view .LVU1612
 6049              	.LBB1287:
 6050              		.loc 8 72 9 view .LVU1613
 6051              		.loc 8 72 19 is_stmt 0 view .LVU1614
 6052 085c 0423     		movs	r3, #4
 6053 085e 0FE7     		b	.L359
 6054              	.L391:
 6055              		.align	2
 6056              	.L390:
 6057 0860 14000000 		.word	.LC6
 6058 0864 00000000 		.word	0
 6059              	.LBE1287:
 6060              	.LBE1286:
 6061              	.LBE1285:
 6062              	.LBE1288:
 6063              	.LBE1293:
 6064              	.LBE1297:
 6065              	.LBE1302:
 6066              	.LBE1307:
 6067              	.LBE1318:
 6068              	.LBE1334:
 6069              	.LBE1474:
 6070              	.LBE1495:
 6071              	.LBE1551:
 6072              		.cfi_endproc
 6073              	.LFE4039:
 6075              		.text
 6076              	.Letext0:
 6077              		.file 9 "c:\\users\\vin\355cius\\documents\\daisytoolchain-0.3.1\\windows\\arm-none-eabi\\include\
 6078              		.file 10 "c:\\users\\vin\355cius\\documents\\daisytoolchain-0.3.1\\windows\\arm-none-eabi\\include
 6079              		.file 11 "c:\\users\\vin\355cius\\documents\\daisytoolchain-0.3.1\\windows\\arm-none-eabi\\include
 6080              		.file 12 "c:\\users\\vin\355cius\\documents\\daisytoolchain-0.3.1\\windows\\lib\\gcc\\arm-none-eab
 6081              		.file 13 "c:\\users\\vin\355cius\\documents\\daisytoolchain-0.3.1\\windows\\arm-none-eabi\\include
 6082              		.file 14 "c:\\users\\vin\355cius\\documents\\daisytoolchain-0.3.1\\windows\\arm-none-eabi\\include
 6083              		.file 15 "c:\\users\\vin\355cius\\documents\\daisytoolchain-0.3.1\\windows\\arm-none-eabi\\include
 6084              		.file 16 "c:\\users\\vin\355cius\\documents\\daisytoolchain-0.3.1\\windows\\arm-none-eabi\\include
 6085              		.file 17 "c:\\users\\vin\355cius\\documents\\daisytoolchain-0.3.1\\windows\\arm-none-eabi\\include
 6086              		.file 18 "c:\\users\\vin\355cius\\documents\\daisytoolchain-0.3.1\\windows\\arm-none-eabi\\include
 6087              		.file 19 "c:\\users\\vin\355cius\\documents\\daisytoolchain-0.3.1\\windows\\arm-none-eabi\\include
 6088              		.file 20 "c:\\users\\vin\355cius\\documents\\daisytoolchain-0.3.1\\windows\\arm-none-eabi\\include
 6089              		.file 21 "c:\\users\\vin\355cius\\documents\\daisytoolchain-0.3.1\\windows\\arm-none-eabi\\include
 6090              		.file 22 "c:\\users\\vin\355cius\\documents\\daisytoolchain-0.3.1\\windows\\arm-none-eabi\\include
 6091              		.file 23 "c:\\users\\vin\355cius\\documents\\daisytoolchain-0.3.1\\windows\\arm-none-eabi\\include
 6092              		.file 24 "c:\\users\\vin\355cius\\documents\\daisytoolchain-0.3.1\\windows\\arm-none-eabi\\include
 6093              		.file 25 "c:\\users\\vin\355cius\\documents\\daisytoolchain-0.3.1\\windows\\arm-none-eabi\\include
 6094              		.file 26 "c:\\users\\vin\355cius\\documents\\daisytoolchain-0.3.1\\windows\\arm-none-eabi\\include
 6095              		.file 27 "c:\\users\\vin\355cius\\documents\\daisytoolchain-0.3.1\\windows\\arm-none-eabi\\include
 6096              		.file 28 "c:\\users\\vin\355cius\\documents\\daisytoolchain-0.3.1\\windows\\arm-none-eabi\\include
 6097              		.file 29 "c:\\users\\vin\355cius\\documents\\daisytoolchain-0.3.1\\windows\\arm-none-eabi\\include
ARM GAS  C:\Users\VINCIU~1\AppData\Local\Temp\ccF8ydZb.s 			page 159


 6098              		.file 30 "c:\\users\\vin\355cius\\documents\\daisytoolchain-0.3.1\\windows\\arm-none-eabi\\include
 6099              		.file 31 "c:\\users\\vin\355cius\\documents\\daisytoolchain-0.3.1\\windows\\arm-none-eabi\\include
 6100              		.file 32 "c:\\users\\vin\355cius\\documents\\daisytoolchain-0.3.1\\windows\\arm-none-eabi\\include
 6101              		.file 33 "c:\\users\\vin\355cius\\documents\\daisytoolchain-0.3.1\\windows\\arm-none-eabi\\include
 6102              		.file 34 "c:\\users\\vin\355cius\\documents\\daisytoolchain-0.3.1\\windows\\arm-none-eabi\\include
 6103              		.file 35 "c:\\users\\vin\355cius\\documents\\daisytoolchain-0.3.1\\windows\\arm-none-eabi\\include
 6104              		.file 36 "c:\\users\\vin\355cius\\documents\\daisytoolchain-0.3.1\\windows\\arm-none-eabi\\include
 6105              		.file 37 "../../libdaisy/src/daisy_core.h"
 6106              		.file 38 "../../libdaisy/src/per/tim.h"
 6107              		.file 39 "../../libdaisy/src/per/spi.h"
 6108              		.file 40 "../../libdaisy/src/util/wav_format.h"
 6109              		.file 41 "../../libdaisy/src/per/gpio.h"
 6110              		.file 42 "c:\\users\\vin\355cius\\documents\\daisytoolchain-0.3.1\\windows\\lib\\gcc\\arm-none-eab
 6111              		.file 43 "c:\\users\\vin\355cius\\documents\\daisytoolchain-0.3.1\\windows\\arm-none-eabi\\include
 6112              		.file 44 "../../libdaisy/src/util/oled_fonts.h"
 6113              		.file 45 "../../DaisySP/Source/Control/adenv.h"
 6114              		.file 46 "../../DaisySP/Source/Utility/dsp.h"
 6115              		.file 47 "c:\\users\\vin\355cius\\documents\\daisytoolchain-0.3.1\\windows\\arm-none-eabi\\include
 6116              		.file 48 "c:\\users\\vin\355cius\\documents\\daisytoolchain-0.3.1\\windows\\arm-none-eabi\\include
 6117              		.file 49 "c:\\users\\vin\355cius\\documents\\daisytoolchain-0.3.1\\windows\\arm-none-eabi\\include
 6118              		.file 50 "Menus.h"
 6119              		.file 51 "OledDisplayExtravaganza.h"
 6120              		.file 52 "../../libdaisy/src/dev/sr_595.h"
 6121              		.file 53 "<built-in>"
ARM GAS  C:\Users\VINCIU~1\AppData\Local\Temp\ccF8ydZb.s 			page 160


DEFINED SYMBOLS
                            *ABS*:00000000 Menus.cpp
C:\Users\VINCIU~1\AppData\Local\Temp\ccF8ydZb.s:17     .text._ZNK5daisy11OledDisplayINS_13SSD130xDriverILj128ELj64ENS_24SSD130x4WireSpiTransportEEEE5WidthEv:00000000 $t
C:\Users\VINCIU~1\AppData\Local\Temp\ccF8ydZb.s:26     .text._ZNK5daisy11OledDisplayINS_13SSD130xDriverILj128ELj64ENS_24SSD130x4WireSpiTransportEEEE5WidthEv:00000000 _ZNK5daisy11OledDisplayINS_13SSD130xDriverILj128ELj64ENS_24SSD130x4WireSpiTransportEEEE5WidthEv
C:\Users\VINCIU~1\AppData\Local\Temp\ccF8ydZb.s:44     .text._ZNK5daisy11OledDisplayINS_13SSD130xDriverILj128ELj64ENS_24SSD130x4WireSpiTransportEEEE6HeightEv:00000000 $t
C:\Users\VINCIU~1\AppData\Local\Temp\ccF8ydZb.s:52     .text._ZNK5daisy11OledDisplayINS_13SSD130xDriverILj128ELj64ENS_24SSD130x4WireSpiTransportEEEE6HeightEv:00000000 _ZNK5daisy11OledDisplayINS_13SSD130xDriverILj128ELj64ENS_24SSD130x4WireSpiTransportEEEE6HeightEv
C:\Users\VINCIU~1\AppData\Local\Temp\ccF8ydZb.s:69     .rodata._ZN5MenusC2Ev.str1.4:00000000 $d
C:\Users\VINCIU~1\AppData\Local\Temp\ccF8ydZb.s:73     .text._ZN5MenusC2Ev:00000000 $t
C:\Users\VINCIU~1\AppData\Local\Temp\ccF8ydZb.s:81     .text._ZN5MenusC2Ev:00000000 _ZN5MenusC2Ev
C:\Users\VINCIU~1\AppData\Local\Temp\ccF8ydZb.s:204    .text._ZN5MenusC2Ev:00000058 $d
C:\Users\VINCIU~1\AppData\Local\Temp\ccF8ydZb.s:81     .text._ZN5MenusC2Ev:00000000 _ZN5MenusC1Ev
C:\Users\VINCIU~1\AppData\Local\Temp\ccF8ydZb.s:211    .text._ZN5Menus10WaveSelectEf:00000000 $t
C:\Users\VINCIU~1\AppData\Local\Temp\ccF8ydZb.s:219    .text._ZN5Menus10WaveSelectEf:00000000 _ZN5Menus10WaveSelectEf
C:\Users\VINCIU~1\AppData\Local\Temp\ccF8ydZb.s:294    .text._ZN5Menus9OscSelectEf:00000000 $t
C:\Users\VINCIU~1\AppData\Local\Temp\ccF8ydZb.s:302    .text._ZN5Menus9OscSelectEf:00000000 _ZN5Menus9OscSelectEf
C:\Users\VINCIU~1\AppData\Local\Temp\ccF8ydZb.s:368    .text._ZN5daisy25OneBitGraphicsDisplayImplINS_11OledDisplayINS_13SSD130xDriverILj128ELj64ENS_24SSD130x4WireSpiTransportEEEEEE11WriteStringEPKc7FontDefb:00000000 $t
C:\Users\VINCIU~1\AppData\Local\Temp\ccF8ydZb.s:376    .text._ZN5daisy25OneBitGraphicsDisplayImplINS_11OledDisplayINS_13SSD130xDriverILj128ELj64ENS_24SSD130x4WireSpiTransportEEEEEE11WriteStringEPKc7FontDefb:00000000 _ZN5daisy25OneBitGraphicsDisplayImplINS_11OledDisplayINS_13SSD130xDriverILj128ELj64ENS_24SSD130x4WireSpiTransportEEEEEE11WriteStringEPKc7FontDefb
C:\Users\VINCIU~1\AppData\Local\Temp\ccF8ydZb.s:835    .text._ZN5daisy25OneBitGraphicsDisplayImplINS_11OledDisplayINS_13SSD130xDriverILj128ELj64ENS_24SSD130x4WireSpiTransportEEEEEE11WriteStringEPKc7FontDefb:000001b8 $d
C:\Users\VINCIU~1\AppData\Local\Temp\ccF8ydZb.s:845    .rodata._ZN5Menus5Menu2E23OledDisplayExtravaganzaPN7daisysp10OscillatorE.str1.4:00000000 $d
C:\Users\VINCIU~1\AppData\Local\Temp\ccF8ydZb.s:852    .text._ZN5Menus5Menu2E23OledDisplayExtravaganzaPN7daisysp10OscillatorE:00000000 $t
C:\Users\VINCIU~1\AppData\Local\Temp\ccF8ydZb.s:860    .text._ZN5Menus5Menu2E23OledDisplayExtravaganzaPN7daisysp10OscillatorE:00000000 _ZN5Menus5Menu2E23OledDisplayExtravaganzaPN7daisysp10OscillatorE
C:\Users\VINCIU~1\AppData\Local\Temp\ccF8ydZb.s:1927   .text._ZN5Menus5Menu2E23OledDisplayExtravaganzaPN7daisysp10OscillatorE:00000360 $d
C:\Users\VINCIU~1\AppData\Local\Temp\ccF8ydZb.s:1947   .text._ZN5Menus5Menu2E23OledDisplayExtravaganzaPN7daisysp10OscillatorE:00000384 $t
C:\Users\VINCIU~1\AppData\Local\Temp\ccF8ydZb.s:2390   .text._ZN5Menus5Menu2E23OledDisplayExtravaganzaPN7daisysp10OscillatorE:00000518 $d
C:\Users\VINCIU~1\AppData\Local\Temp\ccF8ydZb.s:2403   .text._ZN5daisy25OneBitGraphicsDisplayImplINS_11OledDisplayINS_13SSD130xDriverILj128ELj64ENS_24SSD130x4WireSpiTransportEEEEEE8DrawRectEjjjjbb:00000000 $t
C:\Users\VINCIU~1\AppData\Local\Temp\ccF8ydZb.s:2411   .text._ZN5daisy25OneBitGraphicsDisplayImplINS_11OledDisplayINS_13SSD130xDriverILj128ELj64ENS_24SSD130x4WireSpiTransportEEEEEE8DrawRectEjjjjbb:00000000 _ZN5daisy25OneBitGraphicsDisplayImplINS_11OledDisplayINS_13SSD130xDriverILj128ELj64ENS_24SSD130x4WireSpiTransportEEEEEE8DrawRectEjjjjbb
C:\Users\VINCIU~1\AppData\Local\Temp\ccF8ydZb.s:3521   .rodata._ZN5Menus5Menu1E23OledDisplayExtravaganzaPN7daisysp10OscillatorE.str1.4:00000000 $d
C:\Users\VINCIU~1\AppData\Local\Temp\ccF8ydZb.s:3534   .text._ZN5Menus5Menu1E23OledDisplayExtravaganzaPN7daisysp10OscillatorE:00000000 $t
C:\Users\VINCIU~1\AppData\Local\Temp\ccF8ydZb.s:3542   .text._ZN5Menus5Menu1E23OledDisplayExtravaganzaPN7daisysp10OscillatorE:00000000 _ZN5Menus5Menu1E23OledDisplayExtravaganzaPN7daisysp10OscillatorE
C:\Users\VINCIU~1\AppData\Local\Temp\ccF8ydZb.s:4353   .text._ZN5Menus5Menu1E23OledDisplayExtravaganzaPN7daisysp10OscillatorE:00000358 $d
C:\Users\VINCIU~1\AppData\Local\Temp\ccF8ydZb.s:4373   .text._ZN5Menus5Menu1E23OledDisplayExtravaganzaPN7daisysp10OscillatorE:00000398 $t
C:\Users\VINCIU~1\AppData\Local\Temp\ccF8ydZb.s:5599   .text._ZN5Menus5Menu1E23OledDisplayExtravaganzaPN7daisysp10OscillatorE:000006fc $d
C:\Users\VINCIU~1\AppData\Local\Temp\ccF8ydZb.s:5615   .text._ZN5Menus5Menu1E23OledDisplayExtravaganzaPN7daisysp10OscillatorE:00000714 $t
C:\Users\VINCIU~1\AppData\Local\Temp\ccF8ydZb.s:6057   .text._ZN5Menus5Menu1E23OledDisplayExtravaganzaPN7daisysp10OscillatorE:00000860 $d

UNDEFINED SYMBOLS
sprintf
memset
dsy_gpio_write
_ZN5daisy9SpiHandle16BlockingTransmitEPhjm
Font_6x8
_ZN23OledDisplayExtravaganza20drawHorizontalToggleEfffbbPKc
_ZN23OledDisplayExtravaganza10drawSliderEffffff
_ZN23OledDisplayExtravaganza18drawVerticalToggleEfffbbPKc
_ZN23OledDisplayExtravaganza9WaveIconsEiiiib
Font_7x10
