ARM GAS  C:\Users\VINCIU~1\AppData\Local\Temp\cc6DIkXk.s 			page 1


   1              		.cpu cortex-m7
   2              		.eabi_attribute 28, 1
   3              		.eabi_attribute 20, 1
   4              		.eabi_attribute 21, 1
   5              		.eabi_attribute 23, 3
   6              		.eabi_attribute 24, 1
   7              		.eabi_attribute 25, 1
   8              		.eabi_attribute 26, 1
   9              		.eabi_attribute 30, 2
  10              		.eabi_attribute 34, 1
  11              		.eabi_attribute 18, 4
  12              		.file	"OledDisplayExtravaganza.cpp"
  13              		.text
  14              	.Ltext0:
  15              		.cfi_sections	.debug_frame
  16              		.section	.text._ZN23OledDisplayExtravaganzaD2Ev,"axG",%progbits,_ZN23OledDisplayExtravaganzaD5Ev,c
  17              		.align	1
  18              		.p2align 2,,3
  19              		.weak	_ZN23OledDisplayExtravaganzaD2Ev
  20              		.arch armv7e-m
  21              		.syntax unified
  22              		.thumb
  23              		.thumb_func
  24              		.fpu fpv5-d16
  26              	_ZN23OledDisplayExtravaganzaD2Ev:
  27              	.LVL0:
  28              	.LFB1852:
  29              		.file 1 "OledDisplayExtravaganza.h"
   1:OledDisplayExtravaganza.h **** #ifndef OledDisplayExtravaganza_H
   2:OledDisplayExtravaganza.h **** #define OledDisplayExtravaganza_H
   3:OledDisplayExtravaganza.h **** #include "daisy_seed.h"
   4:OledDisplayExtravaganza.h **** #include "dev/oled_ssd130x.h"
   5:OledDisplayExtravaganza.h **** #include <stdio.h>
   6:OledDisplayExtravaganza.h **** #include <math.h>
   7:OledDisplayExtravaganza.h **** 
   8:OledDisplayExtravaganza.h **** 
   9:OledDisplayExtravaganza.h **** class OledDisplayExtravaganza
  30              		.loc 1 9 7 view -0
  31              		.cfi_startproc
  32              		@ args = 0, pretend = 0, frame = 0
  33              		@ frame_needed = 0, uses_anonymous_args = 0
  34              		@ link register save eliminated.
  35              	.LBB145:
  36              	.LBI145:
  37              		.file 2 "../../libdaisy/src/hid/disp/oled_display.h"
   1:../../libdaisy/src/hid/disp/oled_display.h **** #pragma once
   2:../../libdaisy/src/hid/disp/oled_display.h **** #ifndef DSY_OLED_DISPLAY_H
   3:../../libdaisy/src/hid/disp/oled_display.h **** #define DSY_OLED_DISPLAY_H /**< Macro */
   4:../../libdaisy/src/hid/disp/oled_display.h **** 
   5:../../libdaisy/src/hid/disp/oled_display.h **** #include "display.h"
   6:../../libdaisy/src/hid/disp/oled_display.h **** 
   7:../../libdaisy/src/hid/disp/oled_display.h **** namespace daisy
   8:../../libdaisy/src/hid/disp/oled_display.h **** {
   9:../../libdaisy/src/hid/disp/oled_display.h **** /** 
  10:../../libdaisy/src/hid/disp/oled_display.h ****  * This class is for drawing to a monochrome OLED display. 
  11:../../libdaisy/src/hid/disp/oled_display.h **** */
  12:../../libdaisy/src/hid/disp/oled_display.h **** template <typename DisplayDriver>
ARM GAS  C:\Users\VINCIU~1\AppData\Local\Temp\cc6DIkXk.s 			page 2


  13:../../libdaisy/src/hid/disp/oled_display.h **** class OledDisplay : public OneBitGraphicsDisplayImpl<OledDisplay<DisplayDriver>>
  14:../../libdaisy/src/hid/disp/oled_display.h **** {
  15:../../libdaisy/src/hid/disp/oled_display.h ****   public:
  16:../../libdaisy/src/hid/disp/oled_display.h ****     OledDisplay() {}
  17:../../libdaisy/src/hid/disp/oled_display.h ****     virtual ~OledDisplay() {}
  38              		.loc 2 17 13 view .LVU1
  39              	.LBB146:
  40              	.LBI146:
  41              		.file 3 "../../libdaisy/src/hid/disp/display.h"
   1:../../libdaisy/src/hid/disp/display.h **** #pragma once
   2:../../libdaisy/src/hid/disp/display.h **** #ifndef DSY_DISPLAY_H
   3:../../libdaisy/src/hid/disp/display.h **** #define DSY_DISPLAY_H /**< Macro */
   4:../../libdaisy/src/hid/disp/display.h **** #include <cmath>
   5:../../libdaisy/src/hid/disp/display.h **** #include "util/oled_fonts.h"
   6:../../libdaisy/src/hid/disp/display.h **** #include "daisy_core.h"
   7:../../libdaisy/src/hid/disp/display.h **** 
   8:../../libdaisy/src/hid/disp/display.h **** #ifndef deg2rad
   9:../../libdaisy/src/hid/disp/display.h **** #define deg2rad(deg) ((deg)*3.141592 / 180.0)
  10:../../libdaisy/src/hid/disp/display.h **** #endif
  11:../../libdaisy/src/hid/disp/display.h **** 
  12:../../libdaisy/src/hid/disp/display.h **** namespace daisy
  13:../../libdaisy/src/hid/disp/display.h **** {
  14:../../libdaisy/src/hid/disp/display.h **** /** 
  15:../../libdaisy/src/hid/disp/display.h ****  * This interface is used as a base class for all types of 1bit-per-pixel
  16:../../libdaisy/src/hid/disp/display.h ****  * graphics displays.
  17:../../libdaisy/src/hid/disp/display.h **** */
  18:../../libdaisy/src/hid/disp/display.h **** class OneBitGraphicsDisplay
  19:../../libdaisy/src/hid/disp/display.h **** {
  20:../../libdaisy/src/hid/disp/display.h ****   public:
  21:../../libdaisy/src/hid/disp/display.h ****     OneBitGraphicsDisplay() {}
  22:../../libdaisy/src/hid/disp/display.h ****     virtual ~OneBitGraphicsDisplay() {}
  23:../../libdaisy/src/hid/disp/display.h **** 
  24:../../libdaisy/src/hid/disp/display.h ****     virtual uint16_t Height() const = 0;
  25:../../libdaisy/src/hid/disp/display.h ****     virtual uint16_t Width() const  = 0;
  26:../../libdaisy/src/hid/disp/display.h **** 
  27:../../libdaisy/src/hid/disp/display.h ****     size_t CurrentX() { return currentX_; };
  28:../../libdaisy/src/hid/disp/display.h ****     size_t CurrentY() { return currentY_; };
  29:../../libdaisy/src/hid/disp/display.h **** 
  30:../../libdaisy/src/hid/disp/display.h ****     /** 
  31:../../libdaisy/src/hid/disp/display.h ****     Fills the entire display with either on/off.
  32:../../libdaisy/src/hid/disp/display.h ****     \param on Sets on or off.
  33:../../libdaisy/src/hid/disp/display.h ****     */
  34:../../libdaisy/src/hid/disp/display.h ****     virtual void Fill(bool on) = 0;
  35:../../libdaisy/src/hid/disp/display.h **** 
  36:../../libdaisy/src/hid/disp/display.h ****     /**
  37:../../libdaisy/src/hid/disp/display.h ****     Sets the pixel at the specified coordinate to be on/off.
  38:../../libdaisy/src/hid/disp/display.h ****     \param x   x Coordinate
  39:../../libdaisy/src/hid/disp/display.h ****     \param y   y coordinate
  40:../../libdaisy/src/hid/disp/display.h ****     \param on  on or off
  41:../../libdaisy/src/hid/disp/display.h ****     */
  42:../../libdaisy/src/hid/disp/display.h ****     virtual void DrawPixel(uint_fast8_t x, uint_fast8_t y, bool on) = 0;
  43:../../libdaisy/src/hid/disp/display.h **** 
  44:../../libdaisy/src/hid/disp/display.h ****     /**
  45:../../libdaisy/src/hid/disp/display.h ****     Draws a line from (x1, y1) to (y1, y2)
  46:../../libdaisy/src/hid/disp/display.h ****     \param x1  x Coordinate of the starting point
  47:../../libdaisy/src/hid/disp/display.h ****     \param y1  y Coordinate of the starting point
  48:../../libdaisy/src/hid/disp/display.h ****     \param x2  x Coordinate of the ending point
ARM GAS  C:\Users\VINCIU~1\AppData\Local\Temp\cc6DIkXk.s 			page 3


  49:../../libdaisy/src/hid/disp/display.h ****     \param y2  y Coordinate of the ending point
  50:../../libdaisy/src/hid/disp/display.h ****     \param on  on or off
  51:../../libdaisy/src/hid/disp/display.h ****     */
  52:../../libdaisy/src/hid/disp/display.h ****     virtual void DrawLine(uint_fast8_t x1,
  53:../../libdaisy/src/hid/disp/display.h ****                           uint_fast8_t y1,
  54:../../libdaisy/src/hid/disp/display.h ****                           uint_fast8_t x2,
  55:../../libdaisy/src/hid/disp/display.h ****                           uint_fast8_t y2,
  56:../../libdaisy/src/hid/disp/display.h ****                           bool         on)
  57:../../libdaisy/src/hid/disp/display.h ****         = 0;
  58:../../libdaisy/src/hid/disp/display.h **** 
  59:../../libdaisy/src/hid/disp/display.h ****     /**
  60:../../libdaisy/src/hid/disp/display.h ****     Draws a rectangle based on two coordinates.
  61:../../libdaisy/src/hid/disp/display.h ****     \param x1 x Coordinate of the first point
  62:../../libdaisy/src/hid/disp/display.h ****     \param y1 y Coordinate of the first point
  63:../../libdaisy/src/hid/disp/display.h ****     \param x2 x Coordinate of the second point
  64:../../libdaisy/src/hid/disp/display.h ****     \param y2 y Coordinate of the second point
  65:../../libdaisy/src/hid/disp/display.h ****     \param on on or off
  66:../../libdaisy/src/hid/disp/display.h ****     */
  67:../../libdaisy/src/hid/disp/display.h ****     virtual void DrawRect(uint_fast8_t x1,
  68:../../libdaisy/src/hid/disp/display.h ****                           uint_fast8_t y1,
  69:../../libdaisy/src/hid/disp/display.h ****                           uint_fast8_t x2,
  70:../../libdaisy/src/hid/disp/display.h ****                           uint_fast8_t y2,
  71:../../libdaisy/src/hid/disp/display.h ****                           bool         on,
  72:../../libdaisy/src/hid/disp/display.h ****                           bool         fill = false)
  73:../../libdaisy/src/hid/disp/display.h ****         = 0;
  74:../../libdaisy/src/hid/disp/display.h **** 
  75:../../libdaisy/src/hid/disp/display.h ****     /**
  76:../../libdaisy/src/hid/disp/display.h ****     Draws an arc around the specified coordinate
  77:../../libdaisy/src/hid/disp/display.h ****     \param x           x Coordinate of the center of the arc
  78:../../libdaisy/src/hid/disp/display.h ****     \param y           y Coordinate of the center of the arc
  79:../../libdaisy/src/hid/disp/display.h ****     \param radius      radius of the arc
  80:../../libdaisy/src/hid/disp/display.h ****     \param start_angle angle where to start the arc
  81:../../libdaisy/src/hid/disp/display.h ****     \param sweep       total angle of the arc
  82:../../libdaisy/src/hid/disp/display.h ****     \param on  on or off
  83:../../libdaisy/src/hid/disp/display.h ****     */
  84:../../libdaisy/src/hid/disp/display.h ****     virtual void DrawArc(uint_fast8_t x,
  85:../../libdaisy/src/hid/disp/display.h ****                          uint_fast8_t y,
  86:../../libdaisy/src/hid/disp/display.h ****                          uint_fast8_t radius,
  87:../../libdaisy/src/hid/disp/display.h ****                          int_fast16_t start_angle,
  88:../../libdaisy/src/hid/disp/display.h ****                          int_fast16_t sweep,
  89:../../libdaisy/src/hid/disp/display.h ****                          bool         on)
  90:../../libdaisy/src/hid/disp/display.h ****         = 0;
  91:../../libdaisy/src/hid/disp/display.h **** 
  92:../../libdaisy/src/hid/disp/display.h ****     /**
  93:../../libdaisy/src/hid/disp/display.h ****     Draws a circle around the specified coordinate
  94:../../libdaisy/src/hid/disp/display.h ****     \param x           x Coordinate of the center of the circle
  95:../../libdaisy/src/hid/disp/display.h ****     \param y           y Coordinate of the center of the circle
  96:../../libdaisy/src/hid/disp/display.h ****     \param radius      radius of the circle
  97:../../libdaisy/src/hid/disp/display.h ****     \param on  on or off
  98:../../libdaisy/src/hid/disp/display.h ****     */
  99:../../libdaisy/src/hid/disp/display.h ****     void
 100:../../libdaisy/src/hid/disp/display.h ****     DrawCircle(uint_fast8_t x, uint_fast8_t y, uint_fast8_t radius, bool on)
 101:../../libdaisy/src/hid/disp/display.h ****     {
 102:../../libdaisy/src/hid/disp/display.h ****         DrawArc(x, y, radius, 0, 360, on);
 103:../../libdaisy/src/hid/disp/display.h ****     };
 104:../../libdaisy/src/hid/disp/display.h **** 
 105:../../libdaisy/src/hid/disp/display.h ****     /** 
ARM GAS  C:\Users\VINCIU~1\AppData\Local\Temp\cc6DIkXk.s 			page 4


 106:../../libdaisy/src/hid/disp/display.h ****     Writes the character with the specific FontDef
 107:../../libdaisy/src/hid/disp/display.h ****     to the display buffer at the current Cursor position.
 108:../../libdaisy/src/hid/disp/display.h ****     \param ch character to be written
 109:../../libdaisy/src/hid/disp/display.h ****     \param font font to be written in
 110:../../libdaisy/src/hid/disp/display.h ****     \param on    on or off
 111:../../libdaisy/src/hid/disp/display.h ****     \return &
 112:../../libdaisy/src/hid/disp/display.h ****     */
 113:../../libdaisy/src/hid/disp/display.h ****     virtual char WriteChar(char ch, FontDef font, bool on) = 0;
 114:../../libdaisy/src/hid/disp/display.h **** 
 115:../../libdaisy/src/hid/disp/display.h ****     /** 
 116:../../libdaisy/src/hid/disp/display.h ****     Similar to WriteChar, except it will handle an entire String.
 117:../../libdaisy/src/hid/disp/display.h ****     Wrapping does not happen automatically, so the width
 118:../../libdaisy/src/hid/disp/display.h ****     of the string must be kept within the dimensions of the screen.
 119:../../libdaisy/src/hid/disp/display.h ****     \param str string to be written
 120:../../libdaisy/src/hid/disp/display.h ****     \param font font to use
 121:../../libdaisy/src/hid/disp/display.h ****     \param on  on or off
 122:../../libdaisy/src/hid/disp/display.h ****     \return &
 123:../../libdaisy/src/hid/disp/display.h ****     */
 124:../../libdaisy/src/hid/disp/display.h ****     virtual char WriteString(const char* str, FontDef font, bool on) = 0;
 125:../../libdaisy/src/hid/disp/display.h **** 
 126:../../libdaisy/src/hid/disp/display.h ****     /** 
 127:../../libdaisy/src/hid/disp/display.h ****     Moves the 'Cursor' position used for WriteChar, and WriteStr to the specified coordinate.
 128:../../libdaisy/src/hid/disp/display.h ****     \param x x pos
 129:../../libdaisy/src/hid/disp/display.h ****     \param y y pos
 130:../../libdaisy/src/hid/disp/display.h ****     */
 131:../../libdaisy/src/hid/disp/display.h ****     void SetCursor(uint16_t x, uint16_t y)
 132:../../libdaisy/src/hid/disp/display.h ****     {
 133:../../libdaisy/src/hid/disp/display.h ****         currentX_ = (x >= Width()) ? Width() - 1 : x;
 134:../../libdaisy/src/hid/disp/display.h ****         currentY_ = (y >= Height()) ? Height() - 1 : y;
 135:../../libdaisy/src/hid/disp/display.h ****     }
 136:../../libdaisy/src/hid/disp/display.h **** 
 137:../../libdaisy/src/hid/disp/display.h ****     /** 
 138:../../libdaisy/src/hid/disp/display.h ****     Writes the current display buffer to the OLED device using SPI or I2C depending on 
 139:../../libdaisy/src/hid/disp/display.h ****     how the object was initialized.
 140:../../libdaisy/src/hid/disp/display.h ****     */
 141:../../libdaisy/src/hid/disp/display.h ****     virtual void Update() = 0;
 142:../../libdaisy/src/hid/disp/display.h **** 
 143:../../libdaisy/src/hid/disp/display.h ****   protected:
 144:../../libdaisy/src/hid/disp/display.h ****     uint16_t currentX_;
 145:../../libdaisy/src/hid/disp/display.h ****     uint16_t currentY_;
 146:../../libdaisy/src/hid/disp/display.h **** };
 147:../../libdaisy/src/hid/disp/display.h **** 
 148:../../libdaisy/src/hid/disp/display.h **** /** This class is intended as a intermediary class for your actual implementation of the OneBitGrap
 149:../../libdaisy/src/hid/disp/display.h ****  *  interface. It uses the CRTP design pattern where the template argument is the child class. It p
 150:../../libdaisy/src/hid/disp/display.h ****  *  implementations for most of the functions, except DrawPixel(), Update() and Fill(), which you'l
 151:../../libdaisy/src/hid/disp/display.h ****  *  to provide in your child class.
 152:../../libdaisy/src/hid/disp/display.h ****  *  The main goal of this class is to provide common drawing functions without relying on massive a
 153:../../libdaisy/src/hid/disp/display.h ****  *  virtual function calls that would result in a performance loss. To achieve this, any drawing fu
 154:../../libdaisy/src/hid/disp/display.h ****  *  is implemented here and internally calls other drawing functions (e.g. DrawRect() which interna
 155:../../libdaisy/src/hid/disp/display.h ****  *  DrawPixel() and DrawLine()) makes these calls via the qualified name of these functions to expl
 156:../../libdaisy/src/hid/disp/display.h ****  *  suppress the virtual dispatch mechanism like this:
 157:../../libdaisy/src/hid/disp/display.h ****  * 
 158:../../libdaisy/src/hid/disp/display.h ****  *      ChildType::DrawPixel(...); // no virtual function call; direct call into the child class fu
 159:../../libdaisy/src/hid/disp/display.h ****  *  
 160:../../libdaisy/src/hid/disp/display.h ****  *  To create a custom OneBitGraphicsDisplay implementation, you can 
 161:../../libdaisy/src/hid/disp/display.h ****  *  A) inherit from OneBitGraphicsDisplay directly and provide all the drawing functions yourself
 162:../../libdaisy/src/hid/disp/display.h ****  *  B) Inherit from OneBitGraphicsDisplayImpl and only provide DrawPixel(), Fill() and Update()
ARM GAS  C:\Users\VINCIU~1\AppData\Local\Temp\cc6DIkXk.s 			page 5


 163:../../libdaisy/src/hid/disp/display.h ****  *     like this:
 164:../../libdaisy/src/hid/disp/display.h ****  *  
 165:../../libdaisy/src/hid/disp/display.h ****  *      class MyDisplayClass : public OneBitGraphicsDisplayImpl<MyDisplayClass> 
 166:../../libdaisy/src/hid/disp/display.h ****  *      {
 167:../../libdaisy/src/hid/disp/display.h ****  *      public:
 168:../../libdaisy/src/hid/disp/display.h ****  *          void Fill() override { ... };
 169:../../libdaisy/src/hid/disp/display.h ****  *          void DrawPixel(uint_fast8_t x, uint_fast8_t y, bool on) override { ... };
 170:../../libdaisy/src/hid/disp/display.h ****  *          void Update() override { ... }
 171:../../libdaisy/src/hid/disp/display.h ****  *      };
 172:../../libdaisy/src/hid/disp/display.h ****  *  
 173:../../libdaisy/src/hid/disp/display.h ****  */
 174:../../libdaisy/src/hid/disp/display.h **** template <class ChildType>
 175:../../libdaisy/src/hid/disp/display.h **** class OneBitGraphicsDisplayImpl : public OneBitGraphicsDisplay
 176:../../libdaisy/src/hid/disp/display.h **** {
 177:../../libdaisy/src/hid/disp/display.h ****   public:
 178:../../libdaisy/src/hid/disp/display.h ****     OneBitGraphicsDisplayImpl() {}
 179:../../libdaisy/src/hid/disp/display.h ****     virtual ~OneBitGraphicsDisplayImpl() {}
  42              		.loc 3 179 13 view .LVU2
  43              	.LBB147:
  44              	.LBI147:
  22:../../libdaisy/src/hid/disp/display.h **** 
  45              		.loc 3 22 13 view .LVU3
  22:../../libdaisy/src/hid/disp/display.h **** 
  46              		.loc 3 22 13 is_stmt 0 view .LVU4
  47              	.LBE147:
  48              	.LBE146:
  49              	.LBE145:
  50              		.loc 1 9 7 view .LVU5
  51 0000 7047     		bx	lr
  52              		.cfi_endproc
  53              	.LFE1852:
  55              		.weak	_ZN23OledDisplayExtravaganzaD1Ev
  56              		.thumb_set _ZN23OledDisplayExtravaganzaD1Ev,_ZN23OledDisplayExtravaganzaD2Ev
  57 0002 00BF     		.section	.text._ZNK5daisy11OledDisplayINS_13SSD130xDriverILj128ELj64ENS_24SSD130x4WireSpiTransport
  58              		.align	1
  59              		.p2align 2,,3
  60              		.weak	_ZNK5daisy11OledDisplayINS_13SSD130xDriverILj128ELj64ENS_24SSD130x4WireSpiTransportEEEE6Heig
  61              		.syntax unified
  62              		.thumb
  63              		.thumb_func
  64              		.fpu fpv5-d16
  66              	_ZNK5daisy11OledDisplayINS_13SSD130xDriverILj128ELj64ENS_24SSD130x4WireSpiTransportEEEE6HeightEv:
  67              	.LVL1:
  68              	.LFB1855:
  18:../../libdaisy/src/hid/disp/oled_display.h **** 
  19:../../libdaisy/src/hid/disp/oled_display.h ****     struct Config
  20:../../libdaisy/src/hid/disp/oled_display.h ****     {
  21:../../libdaisy/src/hid/disp/oled_display.h ****         typename DisplayDriver::Config driver_config;
  22:../../libdaisy/src/hid/disp/oled_display.h ****     };
  23:../../libdaisy/src/hid/disp/oled_display.h **** 
  24:../../libdaisy/src/hid/disp/oled_display.h ****     void Init(Config config) { driver_.Init(config.driver_config); }
  25:../../libdaisy/src/hid/disp/oled_display.h **** 
  26:../../libdaisy/src/hid/disp/oled_display.h ****     uint16_t Height() const override { return driver_.Height(); }
  69              		.loc 2 26 14 is_stmt 1 view -0
  70              		.cfi_startproc
  71              		@ args = 0, pretend = 0, frame = 0
  72              		@ frame_needed = 0, uses_anonymous_args = 0
ARM GAS  C:\Users\VINCIU~1\AppData\Local\Temp\cc6DIkXk.s 			page 6


  73              		@ link register save eliminated.
  74              		.loc 2 26 65 is_stmt 0 view .LVU7
  75 0000 4020     		movs	r0, #64
  76              	.LVL2:
  77              		.loc 2 26 65 view .LVU8
  78 0002 7047     		bx	lr
  79              		.cfi_endproc
  80              	.LFE1855:
  82              		.section	.text._ZNK5daisy11OledDisplayINS_13SSD130xDriverILj128ELj64ENS_24SSD130x4WireSpiTransport
  83              		.align	1
  84              		.p2align 2,,3
  85              		.weak	_ZNK5daisy11OledDisplayINS_13SSD130xDriverILj128ELj64ENS_24SSD130x4WireSpiTransportEEEE5Widt
  86              		.syntax unified
  87              		.thumb
  88              		.thumb_func
  89              		.fpu fpv5-d16
  91              	_ZNK5daisy11OledDisplayINS_13SSD130xDriverILj128ELj64ENS_24SSD130x4WireSpiTransportEEEE5WidthEv:
  92              	.LVL3:
  93              	.LFB1856:
  27:../../libdaisy/src/hid/disp/oled_display.h ****     uint16_t Width() const override { return driver_.Width(); }
  94              		.loc 2 27 14 is_stmt 1 view -0
  95              		.cfi_startproc
  96              		@ args = 0, pretend = 0, frame = 0
  97              		@ frame_needed = 0, uses_anonymous_args = 0
  98              		@ link register save eliminated.
  99              		.loc 2 27 63 is_stmt 0 view .LVU10
 100 0000 8020     		movs	r0, #128
 101              	.LVL4:
 102              		.loc 2 27 63 view .LVU11
 103 0002 7047     		bx	lr
 104              		.cfi_endproc
 105              	.LFE1856:
 107              		.section	.text._ZN5daisy11OledDisplayINS_13SSD130xDriverILj128ELj64ENS_24SSD130x4WireSpiTransportE
 108              		.align	1
 109              		.p2align 2,,3
 110              		.weak	_ZN5daisy11OledDisplayINS_13SSD130xDriverILj128ELj64ENS_24SSD130x4WireSpiTransportEEEE4FillE
 111              		.syntax unified
 112              		.thumb
 113              		.thumb_func
 114              		.fpu fpv5-d16
 116              	_ZN5daisy11OledDisplayINS_13SSD130xDriverILj128ELj64ENS_24SSD130x4WireSpiTransportEEEE4FillEb:
 117              	.LVL5:
 118              	.LFB1857:
  28:../../libdaisy/src/hid/disp/oled_display.h **** 
  29:../../libdaisy/src/hid/disp/oled_display.h ****     /** 
  30:../../libdaisy/src/hid/disp/oled_display.h ****     Fills the entire display with either on/off.
  31:../../libdaisy/src/hid/disp/oled_display.h ****     \param on Sets on or off.
  32:../../libdaisy/src/hid/disp/oled_display.h ****     */
  33:../../libdaisy/src/hid/disp/oled_display.h ****     void Fill(bool on) override { driver_.Fill(on); }
 119              		.loc 2 33 10 is_stmt 1 view -0
 120              		.cfi_startproc
 121              		@ args = 0, pretend = 0, frame = 0
 122              		@ frame_needed = 0, uses_anonymous_args = 0
 123              		@ link register save eliminated.
 124              	.LBB148:
 125              	.LBI148:
 126              		.file 4 "../../libdaisy/src/dev/oled_ssd130x.h"
ARM GAS  C:\Users\VINCIU~1\AppData\Local\Temp\cc6DIkXk.s 			page 7


   1:../../libdaisy/src/dev/oled_ssd130x.h **** #pragma once
   2:../../libdaisy/src/dev/oled_ssd130x.h **** #ifndef SA_OLED_SSD130X_H
   3:../../libdaisy/src/dev/oled_ssd130x.h **** #define SA_OLED_SSD130X_H /**< & */
   4:../../libdaisy/src/dev/oled_ssd130x.h **** 
   5:../../libdaisy/src/dev/oled_ssd130x.h **** #include "per/i2c.h"
   6:../../libdaisy/src/dev/oled_ssd130x.h **** #include "per/spi.h"
   7:../../libdaisy/src/dev/oled_ssd130x.h **** #include "per/gpio.h"
   8:../../libdaisy/src/dev/oled_ssd130x.h **** #include "sys/system.h"
   9:../../libdaisy/src/dev/oled_ssd130x.h **** 
  10:../../libdaisy/src/dev/oled_ssd130x.h **** namespace daisy
  11:../../libdaisy/src/dev/oled_ssd130x.h **** {
  12:../../libdaisy/src/dev/oled_ssd130x.h **** /**
  13:../../libdaisy/src/dev/oled_ssd130x.h ****  * I2C Transport for SSD1306 / SSD1309 OLED display devices
  14:../../libdaisy/src/dev/oled_ssd130x.h ****  */
  15:../../libdaisy/src/dev/oled_ssd130x.h **** class SSD130xI2CTransport
  16:../../libdaisy/src/dev/oled_ssd130x.h **** {
  17:../../libdaisy/src/dev/oled_ssd130x.h ****   public:
  18:../../libdaisy/src/dev/oled_ssd130x.h ****     struct Config
  19:../../libdaisy/src/dev/oled_ssd130x.h ****     {
  20:../../libdaisy/src/dev/oled_ssd130x.h ****         I2CHandle::Config i2c_config;
  21:../../libdaisy/src/dev/oled_ssd130x.h ****         uint8_t           i2c_address;
  22:../../libdaisy/src/dev/oled_ssd130x.h ****         void              Defaults()
  23:../../libdaisy/src/dev/oled_ssd130x.h ****         {
  24:../../libdaisy/src/dev/oled_ssd130x.h ****             i2c_config.periph         = I2CHandle::Config::Peripheral::I2C_1;
  25:../../libdaisy/src/dev/oled_ssd130x.h ****             i2c_config.speed          = I2CHandle::Config::Speed::I2C_1MHZ;
  26:../../libdaisy/src/dev/oled_ssd130x.h ****             i2c_config.mode           = I2CHandle::Config::Mode::I2C_MASTER;
  27:../../libdaisy/src/dev/oled_ssd130x.h ****             i2c_config.pin_config.scl = {DSY_GPIOB, 8};
  28:../../libdaisy/src/dev/oled_ssd130x.h ****             i2c_config.pin_config.sda = {DSY_GPIOB, 9};
  29:../../libdaisy/src/dev/oled_ssd130x.h ****             i2c_address               = 0x3C;
  30:../../libdaisy/src/dev/oled_ssd130x.h ****         }
  31:../../libdaisy/src/dev/oled_ssd130x.h ****     };
  32:../../libdaisy/src/dev/oled_ssd130x.h ****     void Init(const Config& config)
  33:../../libdaisy/src/dev/oled_ssd130x.h ****     {
  34:../../libdaisy/src/dev/oled_ssd130x.h ****         i2c_address_ = config.i2c_address;
  35:../../libdaisy/src/dev/oled_ssd130x.h ****         i2c_.Init(config.i2c_config);
  36:../../libdaisy/src/dev/oled_ssd130x.h ****     };
  37:../../libdaisy/src/dev/oled_ssd130x.h ****     void SendCommand(uint8_t cmd)
  38:../../libdaisy/src/dev/oled_ssd130x.h ****     {
  39:../../libdaisy/src/dev/oled_ssd130x.h ****         uint8_t buf[2] = {0X00, cmd};
  40:../../libdaisy/src/dev/oled_ssd130x.h ****         i2c_.TransmitBlocking(i2c_address_, buf, 2, 1000);
  41:../../libdaisy/src/dev/oled_ssd130x.h ****     };
  42:../../libdaisy/src/dev/oled_ssd130x.h **** 
  43:../../libdaisy/src/dev/oled_ssd130x.h ****     void SendData(uint8_t* buff, size_t size)
  44:../../libdaisy/src/dev/oled_ssd130x.h ****     {
  45:../../libdaisy/src/dev/oled_ssd130x.h ****         for(size_t i = 0; i < size; i++)
  46:../../libdaisy/src/dev/oled_ssd130x.h ****         {
  47:../../libdaisy/src/dev/oled_ssd130x.h ****             uint8_t buf[2] = {0X40, buff[i]};
  48:../../libdaisy/src/dev/oled_ssd130x.h ****             i2c_.TransmitBlocking(i2c_address_, buf, 2, 1000);
  49:../../libdaisy/src/dev/oled_ssd130x.h ****         }
  50:../../libdaisy/src/dev/oled_ssd130x.h ****     };
  51:../../libdaisy/src/dev/oled_ssd130x.h **** 
  52:../../libdaisy/src/dev/oled_ssd130x.h ****   private:
  53:../../libdaisy/src/dev/oled_ssd130x.h ****     daisy::I2CHandle i2c_;
  54:../../libdaisy/src/dev/oled_ssd130x.h ****     uint8_t          i2c_address_;
  55:../../libdaisy/src/dev/oled_ssd130x.h **** };
  56:../../libdaisy/src/dev/oled_ssd130x.h **** 
  57:../../libdaisy/src/dev/oled_ssd130x.h **** /**
ARM GAS  C:\Users\VINCIU~1\AppData\Local\Temp\cc6DIkXk.s 			page 8


  58:../../libdaisy/src/dev/oled_ssd130x.h ****  * 4 Wire SPI Transport for SSD1306 / SSD1309 OLED display devices
  59:../../libdaisy/src/dev/oled_ssd130x.h ****  */
  60:../../libdaisy/src/dev/oled_ssd130x.h **** class SSD130x4WireSpiTransport
  61:../../libdaisy/src/dev/oled_ssd130x.h **** {
  62:../../libdaisy/src/dev/oled_ssd130x.h ****   public:
  63:../../libdaisy/src/dev/oled_ssd130x.h ****     struct Config
  64:../../libdaisy/src/dev/oled_ssd130x.h ****     {
  65:../../libdaisy/src/dev/oled_ssd130x.h ****         struct
  66:../../libdaisy/src/dev/oled_ssd130x.h ****         {
  67:../../libdaisy/src/dev/oled_ssd130x.h ****             dsy_gpio_pin dc;    /**< & */
  68:../../libdaisy/src/dev/oled_ssd130x.h ****             dsy_gpio_pin reset; /**< & */
  69:../../libdaisy/src/dev/oled_ssd130x.h ****         } pin_config;
  70:../../libdaisy/src/dev/oled_ssd130x.h ****         void Defaults()
  71:../../libdaisy/src/dev/oled_ssd130x.h ****         {
  72:../../libdaisy/src/dev/oled_ssd130x.h ****             pin_config.dc    = {DSY_GPIOB, 4};
  73:../../libdaisy/src/dev/oled_ssd130x.h ****             pin_config.reset = {DSY_GPIOB, 15};
  74:../../libdaisy/src/dev/oled_ssd130x.h ****         }
  75:../../libdaisy/src/dev/oled_ssd130x.h ****     };
  76:../../libdaisy/src/dev/oled_ssd130x.h ****     void Init(const Config& config)
  77:../../libdaisy/src/dev/oled_ssd130x.h ****     {
  78:../../libdaisy/src/dev/oled_ssd130x.h ****         // Initialize both GPIO
  79:../../libdaisy/src/dev/oled_ssd130x.h ****         pin_dc_.mode = DSY_GPIO_MODE_OUTPUT_PP;
  80:../../libdaisy/src/dev/oled_ssd130x.h ****         pin_dc_.pin  = config.pin_config.dc;
  81:../../libdaisy/src/dev/oled_ssd130x.h ****         dsy_gpio_init(&pin_dc_);
  82:../../libdaisy/src/dev/oled_ssd130x.h ****         pin_reset_.mode = DSY_GPIO_MODE_OUTPUT_PP;
  83:../../libdaisy/src/dev/oled_ssd130x.h ****         pin_reset_.pin  = config.pin_config.reset;
  84:../../libdaisy/src/dev/oled_ssd130x.h ****         dsy_gpio_init(&pin_reset_);
  85:../../libdaisy/src/dev/oled_ssd130x.h ****         // Initialize SPI
  86:../../libdaisy/src/dev/oled_ssd130x.h ****         SpiHandle::Config spi_config;
  87:../../libdaisy/src/dev/oled_ssd130x.h ****         spi_config.periph    = SpiHandle::Config::Peripheral::SPI_1;
  88:../../libdaisy/src/dev/oled_ssd130x.h ****         spi_config.mode      = SpiHandle::Config::Mode::MASTER;
  89:../../libdaisy/src/dev/oled_ssd130x.h ****         spi_config.direction = SpiHandle::Config::Direction::TWO_LINES_TX_ONLY;
  90:../../libdaisy/src/dev/oled_ssd130x.h ****         spi_config.datasize  = 8;
  91:../../libdaisy/src/dev/oled_ssd130x.h ****         spi_config.clock_polarity = SpiHandle::Config::ClockPolarity::LOW;
  92:../../libdaisy/src/dev/oled_ssd130x.h ****         spi_config.clock_phase    = SpiHandle::Config::ClockPhase::ONE_EDGE;
  93:../../libdaisy/src/dev/oled_ssd130x.h ****         spi_config.nss            = SpiHandle::Config::NSS::HARD_OUTPUT;
  94:../../libdaisy/src/dev/oled_ssd130x.h ****         spi_config.baud_prescaler = SpiHandle::Config::BaudPrescaler::PS_8;
  95:../../libdaisy/src/dev/oled_ssd130x.h **** 
  96:../../libdaisy/src/dev/oled_ssd130x.h ****         spi_config.pin_config.sclk = {DSY_GPIOG, 11};
  97:../../libdaisy/src/dev/oled_ssd130x.h ****         spi_config.pin_config.miso = {DSY_GPIOX, 0};
  98:../../libdaisy/src/dev/oled_ssd130x.h ****         spi_config.pin_config.mosi = {DSY_GPIOB, 5};
  99:../../libdaisy/src/dev/oled_ssd130x.h ****         spi_config.pin_config.nss  = {DSY_GPIOG, 10};
 100:../../libdaisy/src/dev/oled_ssd130x.h **** 
 101:../../libdaisy/src/dev/oled_ssd130x.h ****         spi_.Init(spi_config);
 102:../../libdaisy/src/dev/oled_ssd130x.h **** 
 103:../../libdaisy/src/dev/oled_ssd130x.h ****         // Reset and Configure OLED.
 104:../../libdaisy/src/dev/oled_ssd130x.h ****         dsy_gpio_write(&pin_reset_, 0);
 105:../../libdaisy/src/dev/oled_ssd130x.h ****         System::Delay(10);
 106:../../libdaisy/src/dev/oled_ssd130x.h ****         dsy_gpio_write(&pin_reset_, 1);
 107:../../libdaisy/src/dev/oled_ssd130x.h ****         System::Delay(10);
 108:../../libdaisy/src/dev/oled_ssd130x.h ****     };
 109:../../libdaisy/src/dev/oled_ssd130x.h ****     void SendCommand(uint8_t cmd)
 110:../../libdaisy/src/dev/oled_ssd130x.h ****     {
 111:../../libdaisy/src/dev/oled_ssd130x.h ****         dsy_gpio_write(&pin_dc_, 0);
 112:../../libdaisy/src/dev/oled_ssd130x.h ****         spi_.BlockingTransmit(&cmd, 1);
 113:../../libdaisy/src/dev/oled_ssd130x.h ****     };
 114:../../libdaisy/src/dev/oled_ssd130x.h **** 
ARM GAS  C:\Users\VINCIU~1\AppData\Local\Temp\cc6DIkXk.s 			page 9


 115:../../libdaisy/src/dev/oled_ssd130x.h ****     void SendData(uint8_t* buff, size_t size)
 116:../../libdaisy/src/dev/oled_ssd130x.h ****     {
 117:../../libdaisy/src/dev/oled_ssd130x.h ****         dsy_gpio_write(&pin_dc_, 1);
 118:../../libdaisy/src/dev/oled_ssd130x.h ****         spi_.BlockingTransmit(buff, size);
 119:../../libdaisy/src/dev/oled_ssd130x.h ****     };
 120:../../libdaisy/src/dev/oled_ssd130x.h **** 
 121:../../libdaisy/src/dev/oled_ssd130x.h ****   private:
 122:../../libdaisy/src/dev/oled_ssd130x.h ****     SpiHandle spi_;
 123:../../libdaisy/src/dev/oled_ssd130x.h ****     dsy_gpio  pin_reset_;
 124:../../libdaisy/src/dev/oled_ssd130x.h ****     dsy_gpio  pin_dc_;
 125:../../libdaisy/src/dev/oled_ssd130x.h **** };
 126:../../libdaisy/src/dev/oled_ssd130x.h **** 
 127:../../libdaisy/src/dev/oled_ssd130x.h **** 
 128:../../libdaisy/src/dev/oled_ssd130x.h **** /**
 129:../../libdaisy/src/dev/oled_ssd130x.h ****  * A driver implementation for the SSD1306/SSD1309
 130:../../libdaisy/src/dev/oled_ssd130x.h ****  */
 131:../../libdaisy/src/dev/oled_ssd130x.h **** template <size_t width, size_t height, typename Transport>
 132:../../libdaisy/src/dev/oled_ssd130x.h **** class SSD130xDriver
 133:../../libdaisy/src/dev/oled_ssd130x.h **** {
 134:../../libdaisy/src/dev/oled_ssd130x.h ****   public:
 135:../../libdaisy/src/dev/oled_ssd130x.h ****     struct Config
 136:../../libdaisy/src/dev/oled_ssd130x.h ****     {
 137:../../libdaisy/src/dev/oled_ssd130x.h ****         typename Transport::Config transport_config;
 138:../../libdaisy/src/dev/oled_ssd130x.h ****     };
 139:../../libdaisy/src/dev/oled_ssd130x.h **** 
 140:../../libdaisy/src/dev/oled_ssd130x.h ****     void Init(Config config)
 141:../../libdaisy/src/dev/oled_ssd130x.h ****     {
 142:../../libdaisy/src/dev/oled_ssd130x.h ****         transport_.Init(config.transport_config);
 143:../../libdaisy/src/dev/oled_ssd130x.h **** 
 144:../../libdaisy/src/dev/oled_ssd130x.h ****         // Init routine...
 145:../../libdaisy/src/dev/oled_ssd130x.h **** 
 146:../../libdaisy/src/dev/oled_ssd130x.h ****         // Display Off
 147:../../libdaisy/src/dev/oled_ssd130x.h ****         transport_.SendCommand(0xaE);
 148:../../libdaisy/src/dev/oled_ssd130x.h ****         // Dimension dependent commands...
 149:../../libdaisy/src/dev/oled_ssd130x.h ****         switch(height)
 150:../../libdaisy/src/dev/oled_ssd130x.h ****         {
 151:../../libdaisy/src/dev/oled_ssd130x.h ****             case 16:
 152:../../libdaisy/src/dev/oled_ssd130x.h ****                 // Display Clock Divide Ratio
 153:../../libdaisy/src/dev/oled_ssd130x.h ****                 transport_.SendCommand(0xD5);
 154:../../libdaisy/src/dev/oled_ssd130x.h ****                 transport_.SendCommand(0x60);
 155:../../libdaisy/src/dev/oled_ssd130x.h ****                 // Multiplex Ratio
 156:../../libdaisy/src/dev/oled_ssd130x.h ****                 transport_.SendCommand(0xA8);
 157:../../libdaisy/src/dev/oled_ssd130x.h ****                 transport_.SendCommand(0x0F);
 158:../../libdaisy/src/dev/oled_ssd130x.h ****                 // COM Pins
 159:../../libdaisy/src/dev/oled_ssd130x.h ****                 transport_.SendCommand(0xDA);
 160:../../libdaisy/src/dev/oled_ssd130x.h ****                 transport_.SendCommand(0x02);
 161:../../libdaisy/src/dev/oled_ssd130x.h ****                 break;
 162:../../libdaisy/src/dev/oled_ssd130x.h ****             case 32:
 163:../../libdaisy/src/dev/oled_ssd130x.h ****                 // Display Clock Divide Ratio
 164:../../libdaisy/src/dev/oled_ssd130x.h ****                 transport_.SendCommand(0xD5);
 165:../../libdaisy/src/dev/oled_ssd130x.h ****                 transport_.SendCommand(0x80);
 166:../../libdaisy/src/dev/oled_ssd130x.h ****                 // Multiplex Ratio
 167:../../libdaisy/src/dev/oled_ssd130x.h ****                 transport_.SendCommand(0xA8);
 168:../../libdaisy/src/dev/oled_ssd130x.h ****                 transport_.SendCommand(0x1F);
 169:../../libdaisy/src/dev/oled_ssd130x.h ****                 // COM Pins
 170:../../libdaisy/src/dev/oled_ssd130x.h ****                 transport_.SendCommand(0xDA);
 171:../../libdaisy/src/dev/oled_ssd130x.h ****                 if(width == 64)
ARM GAS  C:\Users\VINCIU~1\AppData\Local\Temp\cc6DIkXk.s 			page 10


 172:../../libdaisy/src/dev/oled_ssd130x.h ****                 {
 173:../../libdaisy/src/dev/oled_ssd130x.h ****                     transport_.SendCommand(0x12);
 174:../../libdaisy/src/dev/oled_ssd130x.h ****                 }
 175:../../libdaisy/src/dev/oled_ssd130x.h ****                 else
 176:../../libdaisy/src/dev/oled_ssd130x.h ****                 {
 177:../../libdaisy/src/dev/oled_ssd130x.h ****                     transport_.SendCommand(0x02);
 178:../../libdaisy/src/dev/oled_ssd130x.h ****                 }
 179:../../libdaisy/src/dev/oled_ssd130x.h **** 
 180:../../libdaisy/src/dev/oled_ssd130x.h ****                 break;
 181:../../libdaisy/src/dev/oled_ssd130x.h ****             case 48:
 182:../../libdaisy/src/dev/oled_ssd130x.h ****                 // Display Clock Divide Ratio
 183:../../libdaisy/src/dev/oled_ssd130x.h ****                 transport_.SendCommand(0xD5);
 184:../../libdaisy/src/dev/oled_ssd130x.h ****                 transport_.SendCommand(0x80);
 185:../../libdaisy/src/dev/oled_ssd130x.h ****                 // Multiplex Ratio
 186:../../libdaisy/src/dev/oled_ssd130x.h ****                 transport_.SendCommand(0xA8);
 187:../../libdaisy/src/dev/oled_ssd130x.h ****                 transport_.SendCommand(0x2F);
 188:../../libdaisy/src/dev/oled_ssd130x.h ****                 // COM Pins
 189:../../libdaisy/src/dev/oled_ssd130x.h ****                 transport_.SendCommand(0xDA);
 190:../../libdaisy/src/dev/oled_ssd130x.h ****                 transport_.SendCommand(0x12);
 191:../../libdaisy/src/dev/oled_ssd130x.h ****                 break;
 192:../../libdaisy/src/dev/oled_ssd130x.h ****             default: // 128
 193:../../libdaisy/src/dev/oled_ssd130x.h ****                 // Display Clock Divide Ratio
 194:../../libdaisy/src/dev/oled_ssd130x.h ****                 transport_.SendCommand(0xD5);
 195:../../libdaisy/src/dev/oled_ssd130x.h ****                 transport_.SendCommand(0x80);
 196:../../libdaisy/src/dev/oled_ssd130x.h ****                 // Multiplex Ratio
 197:../../libdaisy/src/dev/oled_ssd130x.h ****                 transport_.SendCommand(0xA8);
 198:../../libdaisy/src/dev/oled_ssd130x.h ****                 transport_.SendCommand(0x3F);
 199:../../libdaisy/src/dev/oled_ssd130x.h ****                 // COM Pins
 200:../../libdaisy/src/dev/oled_ssd130x.h ****                 transport_.SendCommand(0xDA);
 201:../../libdaisy/src/dev/oled_ssd130x.h ****                 transport_.SendCommand(0x12);
 202:../../libdaisy/src/dev/oled_ssd130x.h ****                 break;
 203:../../libdaisy/src/dev/oled_ssd130x.h ****         }
 204:../../libdaisy/src/dev/oled_ssd130x.h **** 
 205:../../libdaisy/src/dev/oled_ssd130x.h ****         // Display Offset
 206:../../libdaisy/src/dev/oled_ssd130x.h ****         transport_.SendCommand(0xD3);
 207:../../libdaisy/src/dev/oled_ssd130x.h ****         transport_.SendCommand(0x00);
 208:../../libdaisy/src/dev/oled_ssd130x.h ****         // Start Line Address
 209:../../libdaisy/src/dev/oled_ssd130x.h ****         transport_.SendCommand(0x40);
 210:../../libdaisy/src/dev/oled_ssd130x.h ****         // Normal Display
 211:../../libdaisy/src/dev/oled_ssd130x.h ****         transport_.SendCommand(0xA6);
 212:../../libdaisy/src/dev/oled_ssd130x.h ****         // All On Resume
 213:../../libdaisy/src/dev/oled_ssd130x.h ****         transport_.SendCommand(0xA4);
 214:../../libdaisy/src/dev/oled_ssd130x.h ****         // Charge Pump
 215:../../libdaisy/src/dev/oled_ssd130x.h ****         transport_.SendCommand(0x8D);
 216:../../libdaisy/src/dev/oled_ssd130x.h ****         transport_.SendCommand(0x14);
 217:../../libdaisy/src/dev/oled_ssd130x.h ****         // Set Segment Remap
 218:../../libdaisy/src/dev/oled_ssd130x.h ****         transport_.SendCommand(0xA1);
 219:../../libdaisy/src/dev/oled_ssd130x.h ****         // COM Output Scan Direction
 220:../../libdaisy/src/dev/oled_ssd130x.h ****         transport_.SendCommand(0xC8);
 221:../../libdaisy/src/dev/oled_ssd130x.h ****         // Contrast Control
 222:../../libdaisy/src/dev/oled_ssd130x.h ****         transport_.SendCommand(0x81);
 223:../../libdaisy/src/dev/oled_ssd130x.h ****         transport_.SendCommand(0x8F);
 224:../../libdaisy/src/dev/oled_ssd130x.h ****         // Pre Charge
 225:../../libdaisy/src/dev/oled_ssd130x.h ****         transport_.SendCommand(0xD9);
 226:../../libdaisy/src/dev/oled_ssd130x.h ****         transport_.SendCommand(0x25);
 227:../../libdaisy/src/dev/oled_ssd130x.h ****         // VCOM Detect
 228:../../libdaisy/src/dev/oled_ssd130x.h ****         transport_.SendCommand(0xDB);
ARM GAS  C:\Users\VINCIU~1\AppData\Local\Temp\cc6DIkXk.s 			page 11


 229:../../libdaisy/src/dev/oled_ssd130x.h ****         transport_.SendCommand(0x34);
 230:../../libdaisy/src/dev/oled_ssd130x.h **** 
 231:../../libdaisy/src/dev/oled_ssd130x.h **** 
 232:../../libdaisy/src/dev/oled_ssd130x.h ****         // Display On
 233:../../libdaisy/src/dev/oled_ssd130x.h ****         transport_.SendCommand(0xAF); //--turn on oled panel
 234:../../libdaisy/src/dev/oled_ssd130x.h ****     };
 235:../../libdaisy/src/dev/oled_ssd130x.h **** 
 236:../../libdaisy/src/dev/oled_ssd130x.h ****     size_t Width() const { return width; };
 237:../../libdaisy/src/dev/oled_ssd130x.h ****     size_t Height() const { return height; };
 238:../../libdaisy/src/dev/oled_ssd130x.h **** 
 239:../../libdaisy/src/dev/oled_ssd130x.h ****     void DrawPixel(uint_fast8_t x, uint_fast8_t y, bool on)
 240:../../libdaisy/src/dev/oled_ssd130x.h ****     {
 241:../../libdaisy/src/dev/oled_ssd130x.h ****         if(x >= width || y >= height)
 242:../../libdaisy/src/dev/oled_ssd130x.h ****             return;
 243:../../libdaisy/src/dev/oled_ssd130x.h ****         if(on)
 244:../../libdaisy/src/dev/oled_ssd130x.h ****             buffer_[x + (y / 8) * width] |= (1 << (y % 8));
 245:../../libdaisy/src/dev/oled_ssd130x.h ****         else
 246:../../libdaisy/src/dev/oled_ssd130x.h ****             buffer_[x + (y / 8) * width] &= ~(1 << (y % 8));
 247:../../libdaisy/src/dev/oled_ssd130x.h ****     }
 248:../../libdaisy/src/dev/oled_ssd130x.h **** 
 249:../../libdaisy/src/dev/oled_ssd130x.h ****     void Fill(bool on)
 127              		.loc 4 249 10 view .LVU13
 128              	.LBB149:
 250:../../libdaisy/src/dev/oled_ssd130x.h ****     {
 251:../../libdaisy/src/dev/oled_ssd130x.h ****         for(size_t i = 0; i < sizeof(buffer_); i++)
 129              		.loc 4 251 29 view .LVU14
 252:../../libdaisy/src/dev/oled_ssd130x.h ****         {
 253:../../libdaisy/src/dev/oled_ssd130x.h ****             buffer_[i] = on ? 0xff : 0x00;
 130              		.loc 4 253 24 is_stmt 0 view .LVU15
 131 0000 4942     		rsbs	r1, r1, #0
 132              	.LVL6:
 133              		.loc 4 253 24 view .LVU16
 134 0002 4FF48062 		mov	r2, #1024
 135 0006 1430     		adds	r0, r0, #20
 136              	.LVL7:
 137              		.loc 4 253 24 view .LVU17
 138 0008 C9B2     		uxtb	r1, r1
 139 000a FFF7FEBF 		b	memset
 140              	.LVL8:
 141              		.loc 4 253 24 view .LVU18
 142              	.LBE149:
 143              	.LBE148:
 144              		.cfi_endproc
 145              	.LFE1857:
 147 000e 00BF     		.section	.text._ZN23OledDisplayExtravaganzaD0Ev,"axG",%progbits,_ZN23OledDisplayExtravaganzaD5Ev,c
 148              		.align	1
 149              		.p2align 2,,3
 150              		.weak	_ZN23OledDisplayExtravaganzaD0Ev
 151              		.syntax unified
 152              		.thumb
 153              		.thumb_func
 154              		.fpu fpv5-d16
 156              	_ZN23OledDisplayExtravaganzaD0Ev:
 157              	.LVL9:
 158              	.LFB1854:
 159              		.loc 1 9 7 is_stmt 1 view -0
 160              		.cfi_startproc
ARM GAS  C:\Users\VINCIU~1\AppData\Local\Temp\cc6DIkXk.s 			page 12


 161              		@ args = 0, pretend = 0, frame = 0
 162              		@ frame_needed = 0, uses_anonymous_args = 0
 163              		.loc 1 9 7 is_stmt 0 view .LVU20
 164 0000 10B5     		push	{r4, lr}
 165              		.cfi_def_cfa_offset 8
 166              		.cfi_offset 4, -8
 167              		.cfi_offset 14, -4
 168              		.loc 1 9 7 view .LVU21
 169 0002 0446     		mov	r4, r0
 170              	.LVL10:
 171              	.LBB150:
 172              	.LBI150:
 173              		.loc 1 9 7 is_stmt 1 view .LVU22
 174              	.LBB151:
 175              	.LBI151:
  17:../../libdaisy/src/hid/disp/oled_display.h **** 
 176              		.loc 2 17 13 view .LVU23
 177              	.LBB152:
 178              	.LBI152:
 179              		.loc 3 179 13 view .LVU24
 180              	.LBB153:
 181              	.LBI153:
  22:../../libdaisy/src/hid/disp/display.h **** 
 182              		.loc 3 22 13 view .LVU25
  22:../../libdaisy/src/hid/disp/display.h **** 
 183              		.loc 3 22 13 is_stmt 0 view .LVU26
 184              	.LBE153:
 185              	.LBE152:
 186              	.LBE151:
 187              	.LBE150:
 188              		.loc 1 9 7 view .LVU27
 189 0004 40F21441 		movw	r1, #1044
 190 0008 FFF7FEFF 		bl	_ZdlPvj
 191              	.LVL11:
 192              		.loc 1 9 7 view .LVU28
 193 000c 2046     		mov	r0, r4
 194 000e 10BD     		pop	{r4, pc}
 195              		.loc 1 9 7 view .LVU29
 196              		.cfi_endproc
 197              	.LFE1854:
 199              		.section	.text._ZN5daisy11OledDisplayINS_13SSD130xDriverILj128ELj64ENS_24SSD130x4WireSpiTransportE
 200              		.align	1
 201              		.p2align 2,,3
 202              		.weak	_ZN5daisy11OledDisplayINS_13SSD130xDriverILj128ELj64ENS_24SSD130x4WireSpiTransportEEEE6Updat
 203              		.syntax unified
 204              		.thumb
 205              		.thumb_func
 206              		.fpu fpv5-d16
 208              	_ZN5daisy11OledDisplayINS_13SSD130xDriverILj128ELj64ENS_24SSD130x4WireSpiTransportEEEE6UpdateEv:
 209              	.LVL12:
 210              	.LFB1858:
  34:../../libdaisy/src/hid/disp/oled_display.h **** 
  35:../../libdaisy/src/hid/disp/oled_display.h ****     /**
  36:../../libdaisy/src/hid/disp/oled_display.h ****     Sets the pixel at the specified coordinate to be on/off.
  37:../../libdaisy/src/hid/disp/oled_display.h ****     \param x   x Coordinate
  38:../../libdaisy/src/hid/disp/oled_display.h ****     \param y   y coordinate
  39:../../libdaisy/src/hid/disp/oled_display.h ****     \param on  on or off
ARM GAS  C:\Users\VINCIU~1\AppData\Local\Temp\cc6DIkXk.s 			page 13


  40:../../libdaisy/src/hid/disp/oled_display.h ****     */
  41:../../libdaisy/src/hid/disp/oled_display.h ****     void DrawPixel(uint_fast8_t x, uint_fast8_t y, bool on) override
  42:../../libdaisy/src/hid/disp/oled_display.h ****     {
  43:../../libdaisy/src/hid/disp/oled_display.h ****         driver_.DrawPixel(x, y, on);
  44:../../libdaisy/src/hid/disp/oled_display.h ****     }
  45:../../libdaisy/src/hid/disp/oled_display.h **** 
  46:../../libdaisy/src/hid/disp/oled_display.h ****     /** 
  47:../../libdaisy/src/hid/disp/oled_display.h ****     Writes the current display buffer to the OLED device using SPI or I2C depending on 
  48:../../libdaisy/src/hid/disp/oled_display.h ****     how the object was initialized.
  49:../../libdaisy/src/hid/disp/oled_display.h ****     */
  50:../../libdaisy/src/hid/disp/oled_display.h ****     void Update() override { driver_.Update(); }
 211              		.loc 2 50 10 is_stmt 1 view -0
 212              		.cfi_startproc
 213              		@ args = 0, pretend = 0, frame = 8
 214              		@ frame_needed = 0, uses_anonymous_args = 0
 215              	.LBB164:
 216              	.LBI164:
 254:../../libdaisy/src/dev/oled_ssd130x.h ****         }
 255:../../libdaisy/src/dev/oled_ssd130x.h ****     };
 256:../../libdaisy/src/dev/oled_ssd130x.h **** 
 257:../../libdaisy/src/dev/oled_ssd130x.h ****     /**
 258:../../libdaisy/src/dev/oled_ssd130x.h ****      * Update the display 
 259:../../libdaisy/src/dev/oled_ssd130x.h ****     */
 260:../../libdaisy/src/dev/oled_ssd130x.h ****     void Update()
 217              		.loc 4 260 10 view .LVU31
 218              	.LBB165:
 261:../../libdaisy/src/dev/oled_ssd130x.h ****     {
 262:../../libdaisy/src/dev/oled_ssd130x.h ****         uint8_t i;
 263:../../libdaisy/src/dev/oled_ssd130x.h ****         uint8_t high_column_addr;
 264:../../libdaisy/src/dev/oled_ssd130x.h ****         switch(height)
 265:../../libdaisy/src/dev/oled_ssd130x.h ****         {
 266:../../libdaisy/src/dev/oled_ssd130x.h ****             case 32: high_column_addr = 0x12; break;
 267:../../libdaisy/src/dev/oled_ssd130x.h **** 
 268:../../libdaisy/src/dev/oled_ssd130x.h ****             default: high_column_addr = 0x10; break;
 269:../../libdaisy/src/dev/oled_ssd130x.h ****         }
 270:../../libdaisy/src/dev/oled_ssd130x.h ****         for(i = 0; i < (height / 8); i++)
 219              		.loc 4 270 22 view .LVU32
 220              	.LBE165:
 221              	.LBE164:
 222              		.loc 2 50 10 is_stmt 0 view .LVU33
 223 0000 2DE9F041 		push	{r4, r5, r6, r7, r8, lr}
 224              		.cfi_def_cfa_offset 24
 225              		.cfi_offset 4, -24
 226              		.cfi_offset 5, -20
 227              		.cfi_offset 6, -16
 228              		.cfi_offset 7, -12
 229              		.cfi_offset 8, -8
 230              		.cfi_offset 14, -4
 231              	.LBB187:
 232              	.LBB185:
 233              	.LBB166:
 234              	.LBB167:
 112:../../libdaisy/src/dev/oled_ssd130x.h ****     };
 235              		.loc 4 112 30 view .LVU34
 236 0004 B024     		movs	r4, #176
 237              	.LBE167:
 238              	.LBE166:
ARM GAS  C:\Users\VINCIU~1\AppData\Local\Temp\cc6DIkXk.s 			page 14


 239              	.LBE185:
 240              	.LBE187:
 241              		.loc 2 50 10 view .LVU35
 242 0006 82B0     		sub	sp, sp, #8
 243              		.cfi_def_cfa_offset 32
 244              	.LBB188:
 245              	.LBB186:
 246              	.LBB172:
 247              	.LBB168:
 111:../../libdaisy/src/dev/oled_ssd130x.h ****         spi_.BlockingTransmit(&cmd, 1);
 248              		.loc 4 111 24 view .LVU36
 249 0008 00F10806 		add	r6, r0, #8
 250 000c 00F11005 		add	r5, r0, #16
 251 0010 00F11408 		add	r8, r0, #20
 252              	.LVL13:
 253              	.L9:
 111:../../libdaisy/src/dev/oled_ssd130x.h ****         spi_.BlockingTransmit(&cmd, 1);
 254              		.loc 4 111 24 view .LVU37
 255 0014 0027     		movs	r7, #0
 111:../../libdaisy/src/dev/oled_ssd130x.h ****         spi_.BlockingTransmit(&cmd, 1);
 256              		.loc 4 111 23 view .LVU38
 257 0016 2846     		mov	r0, r5
 258 0018 8DF80740 		strb	r4, [sp, #7]
 259              	.LVL14:
 111:../../libdaisy/src/dev/oled_ssd130x.h ****         spi_.BlockingTransmit(&cmd, 1);
 260              		.loc 4 111 23 view .LVU39
 261              	.LBE168:
 262              	.LBI166:
 109:../../libdaisy/src/dev/oled_ssd130x.h ****     {
 263              		.loc 4 109 10 is_stmt 1 view .LVU40
 264              	.LBB169:
 111:../../libdaisy/src/dev/oled_ssd130x.h ****         spi_.BlockingTransmit(&cmd, 1);
 265              		.loc 4 111 9 view .LVU41
 266              	.LBE169:
 267              	.LBE172:
 268              		.loc 4 270 22 is_stmt 0 view .LVU42
 269 001c 0134     		adds	r4, r4, #1
 270              	.LVL15:
 271              	.LBB173:
 272              	.LBB170:
 111:../../libdaisy/src/dev/oled_ssd130x.h ****         spi_.BlockingTransmit(&cmd, 1);
 273              		.loc 4 111 23 view .LVU43
 274 001e 3946     		mov	r1, r7
 275 0020 FFF7FEFF 		bl	dsy_gpio_write
 276              	.LVL16:
 112:../../libdaisy/src/dev/oled_ssd130x.h ****     };
 277              		.loc 4 112 9 is_stmt 1 view .LVU44
 112:../../libdaisy/src/dev/oled_ssd130x.h ****     };
 278              		.loc 4 112 30 is_stmt 0 view .LVU45
 279 0024 6423     		movs	r3, #100
 280 0026 0122     		movs	r2, #1
 281 0028 0DF10701 		add	r1, sp, #7
 282 002c 3046     		mov	r0, r6
 283              	.LBE170:
 284              	.LBE173:
 285              		.loc 4 270 22 view .LVU46
 286 002e E4B2     		uxtb	r4, r4
ARM GAS  C:\Users\VINCIU~1\AppData\Local\Temp\cc6DIkXk.s 			page 15


 287              	.LBB174:
 288              	.LBB171:
 112:../../libdaisy/src/dev/oled_ssd130x.h ****     };
 289              		.loc 4 112 30 view .LVU47
 290 0030 FFF7FEFF 		bl	_ZN5daisy9SpiHandle16BlockingTransmitEPhjm
 291              	.LVL17:
 112:../../libdaisy/src/dev/oled_ssd130x.h ****     };
 292              		.loc 4 112 30 view .LVU48
 293              	.LBE171:
 294              	.LBE174:
 295              	.LBB175:
 296              	.LBB176:
 111:../../libdaisy/src/dev/oled_ssd130x.h ****         spi_.BlockingTransmit(&cmd, 1);
 297              		.loc 4 111 23 view .LVU49
 298 0034 3946     		mov	r1, r7
 299 0036 2846     		mov	r0, r5
 300 0038 8DF80770 		strb	r7, [sp, #7]
 301              	.LVL18:
 111:../../libdaisy/src/dev/oled_ssd130x.h ****         spi_.BlockingTransmit(&cmd, 1);
 302              		.loc 4 111 23 view .LVU50
 303              	.LBE176:
 304              	.LBI175:
 109:../../libdaisy/src/dev/oled_ssd130x.h ****     {
 305              		.loc 4 109 10 is_stmt 1 view .LVU51
 306              	.LBB177:
 111:../../libdaisy/src/dev/oled_ssd130x.h ****         spi_.BlockingTransmit(&cmd, 1);
 307              		.loc 4 111 9 view .LVU52
 111:../../libdaisy/src/dev/oled_ssd130x.h ****         spi_.BlockingTransmit(&cmd, 1);
 308              		.loc 4 111 23 is_stmt 0 view .LVU53
 309 003c FFF7FEFF 		bl	dsy_gpio_write
 310              	.LVL19:
 112:../../libdaisy/src/dev/oled_ssd130x.h ****     };
 311              		.loc 4 112 9 is_stmt 1 view .LVU54
 112:../../libdaisy/src/dev/oled_ssd130x.h ****     };
 312              		.loc 4 112 30 is_stmt 0 view .LVU55
 313 0040 0122     		movs	r2, #1
 314 0042 6423     		movs	r3, #100
 315 0044 0DF10701 		add	r1, sp, #7
 316 0048 3046     		mov	r0, r6
 317 004a FFF7FEFF 		bl	_ZN5daisy9SpiHandle16BlockingTransmitEPhjm
 318              	.LVL20:
 112:../../libdaisy/src/dev/oled_ssd130x.h ****     };
 319              		.loc 4 112 30 view .LVU56
 320 004e 1023     		movs	r3, #16
 321              	.LBE177:
 322              	.LBE175:
 323              	.LBB178:
 324              	.LBB179:
 111:../../libdaisy/src/dev/oled_ssd130x.h ****         spi_.BlockingTransmit(&cmd, 1);
 325              		.loc 4 111 23 view .LVU57
 326 0050 3946     		mov	r1, r7
 327 0052 2846     		mov	r0, r5
 328 0054 8DF80730 		strb	r3, [sp, #7]
 329              	.LVL21:
 111:../../libdaisy/src/dev/oled_ssd130x.h ****         spi_.BlockingTransmit(&cmd, 1);
 330              		.loc 4 111 23 view .LVU58
 331              	.LBE179:
ARM GAS  C:\Users\VINCIU~1\AppData\Local\Temp\cc6DIkXk.s 			page 16


 332              	.LBI178:
 109:../../libdaisy/src/dev/oled_ssd130x.h ****     {
 333              		.loc 4 109 10 is_stmt 1 view .LVU59
 334              	.LBB180:
 111:../../libdaisy/src/dev/oled_ssd130x.h ****         spi_.BlockingTransmit(&cmd, 1);
 335              		.loc 4 111 9 view .LVU60
 111:../../libdaisy/src/dev/oled_ssd130x.h ****         spi_.BlockingTransmit(&cmd, 1);
 336              		.loc 4 111 23 is_stmt 0 view .LVU61
 337 0058 FFF7FEFF 		bl	dsy_gpio_write
 338              	.LVL22:
 112:../../libdaisy/src/dev/oled_ssd130x.h ****     };
 339              		.loc 4 112 9 is_stmt 1 view .LVU62
 112:../../libdaisy/src/dev/oled_ssd130x.h ****     };
 340              		.loc 4 112 30 is_stmt 0 view .LVU63
 341 005c 6423     		movs	r3, #100
 342 005e 0122     		movs	r2, #1
 343 0060 0DF10701 		add	r1, sp, #7
 344 0064 3046     		mov	r0, r6
 345 0066 FFF7FEFF 		bl	_ZN5daisy9SpiHandle16BlockingTransmitEPhjm
 346              	.LVL23:
 112:../../libdaisy/src/dev/oled_ssd130x.h ****     };
 347              		.loc 4 112 30 view .LVU64
 348              	.LBE180:
 349              	.LBE178:
 350              	.LBB181:
 351              	.LBI181:
 115:../../libdaisy/src/dev/oled_ssd130x.h ****     {
 352              		.loc 4 115 10 is_stmt 1 view .LVU65
 353              	.LBB182:
 117:../../libdaisy/src/dev/oled_ssd130x.h ****         spi_.BlockingTransmit(buff, size);
 354              		.loc 4 117 9 view .LVU66
 117:../../libdaisy/src/dev/oled_ssd130x.h ****         spi_.BlockingTransmit(buff, size);
 355              		.loc 4 117 23 is_stmt 0 view .LVU67
 356 006a 0121     		movs	r1, #1
 357 006c 2846     		mov	r0, r5
 358 006e FFF7FEFF 		bl	dsy_gpio_write
 359              	.LVL24:
 118:../../libdaisy/src/dev/oled_ssd130x.h ****     };
 360              		.loc 4 118 9 is_stmt 1 view .LVU68
 118:../../libdaisy/src/dev/oled_ssd130x.h ****     };
 361              		.loc 4 118 30 is_stmt 0 view .LVU69
 362 0072 8022     		movs	r2, #128
 363 0074 4146     		mov	r1, r8
 364 0076 6423     		movs	r3, #100
 365 0078 3046     		mov	r0, r6
 366              	.LBE182:
 367              	.LBE181:
 368              		.loc 4 270 22 view .LVU70
 369 007a 9044     		add	r8, r8, r2
 370              	.LVL25:
 371              	.LBB184:
 372              	.LBB183:
 118:../../libdaisy/src/dev/oled_ssd130x.h ****     };
 373              		.loc 4 118 30 view .LVU71
 374 007c FFF7FEFF 		bl	_ZN5daisy9SpiHandle16BlockingTransmitEPhjm
 375              	.LVL26:
 118:../../libdaisy/src/dev/oled_ssd130x.h ****     };
ARM GAS  C:\Users\VINCIU~1\AppData\Local\Temp\cc6DIkXk.s 			page 17


 376              		.loc 4 118 30 view .LVU72
 377              	.LBE183:
 378              	.LBE184:
 379              		.loc 4 270 9 is_stmt 1 view .LVU73
 380              		.loc 4 270 22 view .LVU74
 381 0080 B82C     		cmp	r4, #184
 382 0082 C7D1     		bne	.L9
 383              	.LBE186:
 384              	.LBE188:
 385              		.loc 2 50 48 is_stmt 0 view .LVU75
 386 0084 02B0     		add	sp, sp, #8
 387              		.cfi_def_cfa_offset 24
 388              		@ sp needed
 389 0086 BDE8F081 		pop	{r4, r5, r6, r7, r8, pc}
 390              		.loc 2 50 48 view .LVU76
 391              		.cfi_endproc
 392              	.LFE1858:
 394 008a 00BF     		.section	.text._ZN5daisy11OledDisplayINS_13SSD130xDriverILj128ELj64ENS_24SSD130x4WireSpiTransportE
 395              		.align	1
 396              		.p2align 2,,3
 397              		.weak	_ZN5daisy11OledDisplayINS_13SSD130xDriverILj128ELj64ENS_24SSD130x4WireSpiTransportEEEE9DrawP
 398              		.syntax unified
 399              		.thumb
 400              		.thumb_func
 401              		.fpu fpv5-d16
 403              	_ZN5daisy11OledDisplayINS_13SSD130xDriverILj128ELj64ENS_24SSD130x4WireSpiTransportEEEE9DrawPixelEjj
 404              	.LVL27:
 405              	.LFB1848:
  41:../../libdaisy/src/hid/disp/oled_display.h ****     {
 406              		.loc 2 41 10 is_stmt 1 view -0
 407              		.cfi_startproc
 408              		@ args = 0, pretend = 0, frame = 0
 409              		@ frame_needed = 0, uses_anonymous_args = 0
 410              		@ link register save eliminated.
 411              	.LBB193:
 412              	.LBI193:
 239:../../libdaisy/src/dev/oled_ssd130x.h ****     {
 413              		.loc 4 239 10 view .LVU78
 414              	.LBB194:
 241:../../libdaisy/src/dev/oled_ssd130x.h ****             return;
 415              		.loc 4 241 9 is_stmt 0 view .LVU79
 416 0000 7F29     		cmp	r1, #127
 417 0002 1ED8     		bhi	.L12
 418 0004 3F2A     		cmp	r2, #63
 419 0006 1CD8     		bhi	.L12
 243:../../libdaisy/src/dev/oled_ssd130x.h ****             buffer_[x + (y / 8) * width] |= (1 << (y % 8));
 420              		.loc 4 243 9 view .LVU80
 421 0008 6BB1     		cbz	r3, .L14
 244:../../libdaisy/src/dev/oled_ssd130x.h ****         else
 422              		.loc 4 244 28 view .LVU81
 423 000a D308     		lsrs	r3, r2, #3
 424              	.LVL28:
 244:../../libdaisy/src/dev/oled_ssd130x.h ****         else
 425              		.loc 4 244 48 view .LVU82
 426 000c 4FF0010C 		mov	ip, #1
 244:../../libdaisy/src/dev/oled_ssd130x.h ****         else
 427              		.loc 4 244 54 view .LVU83
ARM GAS  C:\Users\VINCIU~1\AppData\Local\Temp\cc6DIkXk.s 			page 18


 428 0010 02F00702 		and	r2, r2, #7
 429              	.LVL29:
 244:../../libdaisy/src/dev/oled_ssd130x.h ****         else
 430              		.loc 4 244 42 view .LVU84
 431 0014 01EBC313 		add	r3, r1, r3, lsl #7
 244:../../libdaisy/src/dev/oled_ssd130x.h ****         else
 432              		.loc 4 244 48 view .LVU85
 433 0018 0CFA02F2 		lsl	r2, ip, r2
 244:../../libdaisy/src/dev/oled_ssd130x.h ****         else
 434              		.loc 4 244 42 view .LVU86
 435 001c C118     		adds	r1, r0, r3
 436              	.LVL30:
 244:../../libdaisy/src/dev/oled_ssd130x.h ****         else
 437              		.loc 4 244 42 view .LVU87
 438 001e 0B7D     		ldrb	r3, [r1, #20]	@ zero_extendqisi2
 439 0020 1A43     		orrs	r2, r2, r3
 440 0022 0A75     		strb	r2, [r1, #20]
 441 0024 7047     		bx	lr
 442              	.LVL31:
 443              	.L14:
 444              	.LBB195:
 445              	.LBI195:
 239:../../libdaisy/src/dev/oled_ssd130x.h ****     {
 446              		.loc 4 239 10 is_stmt 1 view .LVU88
 447              	.LBB196:
 246:../../libdaisy/src/dev/oled_ssd130x.h ****     }
 448              		.loc 4 246 28 is_stmt 0 view .LVU89
 449 0026 D308     		lsrs	r3, r2, #3
 450              	.LVL32:
 246:../../libdaisy/src/dev/oled_ssd130x.h ****     }
 451              		.loc 4 246 49 view .LVU90
 452 0028 4FF0010C 		mov	ip, #1
 246:../../libdaisy/src/dev/oled_ssd130x.h ****     }
 453              		.loc 4 246 55 view .LVU91
 454 002c 02F00702 		and	r2, r2, #7
 455              	.LVL33:
 246:../../libdaisy/src/dev/oled_ssd130x.h ****     }
 456              		.loc 4 246 42 view .LVU92
 457 0030 01EBC313 		add	r3, r1, r3, lsl #7
 246:../../libdaisy/src/dev/oled_ssd130x.h ****     }
 458              		.loc 4 246 49 view .LVU93
 459 0034 0CFA02FC 		lsl	ip, ip, r2
 246:../../libdaisy/src/dev/oled_ssd130x.h ****     }
 460              		.loc 4 246 42 view .LVU94
 461 0038 C118     		adds	r1, r0, r3
 462              	.LVL34:
 246:../../libdaisy/src/dev/oled_ssd130x.h ****     }
 463              		.loc 4 246 42 view .LVU95
 464 003a 0A7D     		ldrb	r2, [r1, #20]	@ zero_extendqisi2
 465 003c 22EA0C02 		bic	r2, r2, ip
 466 0040 0A75     		strb	r2, [r1, #20]
 467              	.LVL35:
 468              	.L12:
 246:../../libdaisy/src/dev/oled_ssd130x.h ****     }
 469              		.loc 4 246 42 view .LVU96
 470              	.LBE196:
 471              	.LBE195:
ARM GAS  C:\Users\VINCIU~1\AppData\Local\Temp\cc6DIkXk.s 			page 19


 472              	.LBE194:
 473              	.LBE193:
  44:../../libdaisy/src/hid/disp/oled_display.h **** 
 474              		.loc 2 44 5 view .LVU97
 475 0042 7047     		bx	lr
 476              		.cfi_endproc
 477              	.LFE1848:
 479              		.section	.text._ZN5daisy25OneBitGraphicsDisplayImplINS_11OledDisplayINS_13SSD130xDriverILj128ELj64
 480              		.align	1
 481              		.p2align 2,,3
 482              		.weak	_ZN5daisy25OneBitGraphicsDisplayImplINS_11OledDisplayINS_13SSD130xDriverILj128ELj64ENS_24SSD
 483              		.syntax unified
 484              		.thumb
 485              		.thumb_func
 486              		.fpu fpv5-d16
 488              	_ZN5daisy25OneBitGraphicsDisplayImplINS_11OledDisplayINS_13SSD130xDriverILj128ELj64ENS_24SSD130x4Wi
 489              	.LVL36:
 490              	.LFB1838:
 180:../../libdaisy/src/hid/disp/display.h **** 
 181:../../libdaisy/src/hid/disp/display.h ****     void DrawLine(uint_fast8_t x1,
 491              		.loc 3 181 10 is_stmt 1 view -0
 492              		.cfi_startproc
 493              		@ args = 8, pretend = 0, frame = 8
 494              		@ frame_needed = 0, uses_anonymous_args = 0
 495              		.loc 3 181 10 is_stmt 0 view .LVU99
 496 0000 2DE9F04F 		push	{r4, r5, r6, r7, r8, r9, r10, fp, lr}
 497              		.cfi_def_cfa_offset 36
 498              		.cfi_offset 4, -36
 499              		.cfi_offset 5, -32
 500              		.cfi_offset 6, -28
 501              		.cfi_offset 7, -24
 502              		.cfi_offset 8, -20
 503              		.cfi_offset 9, -16
 504              		.cfi_offset 10, -12
 505              		.cfi_offset 11, -8
 506              		.cfi_offset 14, -4
 507 0004 83B0     		sub	sp, sp, #12
 508              		.cfi_def_cfa_offset 48
 182:../../libdaisy/src/hid/disp/display.h ****                   uint_fast8_t y1,
 183:../../libdaisy/src/hid/disp/display.h ****                   uint_fast8_t x2,
 184:../../libdaisy/src/hid/disp/display.h ****                   uint_fast8_t y2,
 185:../../libdaisy/src/hid/disp/display.h ****                   bool         on) override
 186:../../libdaisy/src/hid/disp/display.h ****     {
 187:../../libdaisy/src/hid/disp/display.h ****         int_fast16_t deltaX = abs((int_fast16_t)x2 - (int_fast16_t)x1);
 509              		.loc 3 187 52 view .LVU100
 510 0006 5C1A     		subs	r4, r3, r1
 181:../../libdaisy/src/hid/disp/display.h ****                   uint_fast8_t y1,
 511              		.loc 3 181 10 view .LVU101
 512 0008 0C9E     		ldr	r6, [sp, #48]
 513              		.loc 3 187 22 view .LVU102
 514 000a 002C     		cmp	r4, #0
 181:../../libdaisy/src/hid/disp/display.h ****                   uint_fast8_t y1,
 515              		.loc 3 181 10 view .LVU103
 516 000c 9DF83490 		ldrb	r9, [sp, #52]	@ zero_extendqisi2
 188:../../libdaisy/src/hid/disp/display.h ****         int_fast16_t deltaY = abs((int_fast16_t)y2 - (int_fast16_t)y1);
 517              		.loc 3 188 52 view .LVU104
 518 0010 A6EB0208 		sub	r8, r6, r2
ARM GAS  C:\Users\VINCIU~1\AppData\Local\Temp\cc6DIkXk.s 			page 20


 187:../../libdaisy/src/hid/disp/display.h ****         int_fast16_t deltaY = abs((int_fast16_t)y2 - (int_fast16_t)y1);
 519              		.loc 3 187 22 view .LVU105
 520 0014 B8BF     		it	lt
 521 0016 6442     		rsblt	r4, r4, #0
 522              	.LVL37:
 523              		.loc 3 188 22 view .LVU106
 524 0018 B8F1000F 		cmp	r8, #0
 525 001c B8BF     		it	lt
 526 001e C8F10008 		rsblt	r8, r8, #0
 527              	.LVL38:
 189:../../libdaisy/src/hid/disp/display.h ****         int_fast16_t signX  = ((x1 < x2) ? 1 : -1);
 528              		.loc 3 189 42 view .LVU107
 529 0022 8B42     		cmp	r3, r1
 530 0024 8CBF     		ite	hi
 531 0026 4FF0010A 		movhi	r10, #1
 532 002a 4FF0FF3A 		movls	r10, #-1
 533              	.LVL39:
 190:../../libdaisy/src/hid/disp/display.h ****         int_fast16_t signY  = ((y1 < y2) ? 1 : -1);
 534              		.loc 3 190 42 view .LVU108
 535 002e 9642     		cmp	r6, r2
 191:../../libdaisy/src/hid/disp/display.h ****         int_fast16_t error  = deltaX - deltaY;
 536              		.loc 3 191 22 view .LVU109
 537 0030 A4EB080C 		sub	ip, r4, r8
 190:../../libdaisy/src/hid/disp/display.h ****         int_fast16_t signY  = ((y1 < y2) ? 1 : -1);
 538              		.loc 3 190 42 view .LVU110
 539 0034 51D8     		bhi	.L17
 540              	.LVL40:
 541              	.LBB213:
 542              	.LBI213:
  41:../../libdaisy/src/hid/disp/oled_display.h ****     {
 543              		.loc 2 41 10 is_stmt 1 discriminator 4 view .LVU111
 544              	.LBB214:
 545              	.LBI214:
 239:../../libdaisy/src/dev/oled_ssd130x.h ****     {
 546              		.loc 4 239 10 discriminator 4 view .LVU112
 547              	.LBE214:
 548              	.LBE213:
 190:../../libdaisy/src/hid/disp/display.h ****         int_fast16_t error  = deltaX - deltaY;
 549              		.loc 3 190 42 is_stmt 0 discriminator 4 view .LVU113
 550 0036 4FF0FF35 		mov	r5, #-1
 551              	.LBB230:
 552              	.LBB224:
 553              	.LBB215:
 241:../../libdaisy/src/dev/oled_ssd130x.h ****             return;
 554              		.loc 4 241 9 discriminator 4 view .LVU114
 555 003a 7F2B     		cmp	r3, #127
 556              	.LBE215:
 557              	.LBE224:
 558              	.LBE230:
 190:../../libdaisy/src/hid/disp/display.h ****         int_fast16_t error  = deltaX - deltaY;
 559              		.loc 3 190 42 discriminator 4 view .LVU115
 560 003c 0195     		str	r5, [sp, #4]
 561              	.LBB231:
 562              	.LBB225:
 563              	.LBB220:
 241:../../libdaisy/src/dev/oled_ssd130x.h ****             return;
 564              		.loc 4 241 9 discriminator 4 view .LVU116
ARM GAS  C:\Users\VINCIU~1\AppData\Local\Temp\cc6DIkXk.s 			page 21


 565 003e 12D8     		bhi	.L18
 566 0040 3F2E     		cmp	r6, #63
 567 0042 10D8     		bhi	.L18
 568              	.LVL41:
 569              	.L29:
 244:../../libdaisy/src/dev/oled_ssd130x.h ****         else
 570              		.loc 4 244 28 view .LVU117
 571 0044 F508     		lsrs	r5, r6, #3
 244:../../libdaisy/src/dev/oled_ssd130x.h ****         else
 572              		.loc 4 244 54 view .LVU118
 573 0046 06F0070E 		and	lr, r6, #7
 244:../../libdaisy/src/dev/oled_ssd130x.h ****         else
 574              		.loc 4 244 48 view .LVU119
 575 004a 0127     		movs	r7, #1
 244:../../libdaisy/src/dev/oled_ssd130x.h ****         else
 576              		.loc 4 244 42 view .LVU120
 577 004c 03EBC515 		add	r5, r3, r5, lsl #7
 578 0050 0544     		add	r5, r5, r0
 243:../../libdaisy/src/dev/oled_ssd130x.h ****             buffer_[x + (y / 8) * width] |= (1 << (y % 8));
 579              		.loc 4 243 9 view .LVU121
 580 0052 B9F1000F 		cmp	r9, #0
 581 0056 47D0     		beq	.L19
 244:../../libdaisy/src/dev/oled_ssd130x.h ****         else
 582              		.loc 4 244 48 view .LVU122
 583 0058 07FA0EF7 		lsl	r7, r7, lr
 244:../../libdaisy/src/dev/oled_ssd130x.h ****         else
 584              		.loc 4 244 42 view .LVU123
 585 005c 95F814E0 		ldrb	lr, [r5, #20]	@ zero_extendqisi2
 586 0060 47EA0E07 		orr	r7, r7, lr
 587 0064 2F75     		strb	r7, [r5, #20]
 588              	.LVL42:
 589              	.L18:
 244:../../libdaisy/src/dev/oled_ssd130x.h ****         else
 590              		.loc 4 244 42 view .LVU124
 591              	.LBE220:
 592              	.LBE225:
 593              	.LBE231:
 192:../../libdaisy/src/hid/disp/display.h ****         int_fast16_t error2;
 193:../../libdaisy/src/hid/disp/display.h **** 
 194:../../libdaisy/src/hid/disp/display.h ****         // If we write "ChildType::DrawPixel(x2, y2, on);", we end up with
 195:../../libdaisy/src/hid/disp/display.h ****         // all sorts of weird compiler errors when the Child class is a template
 196:../../libdaisy/src/hid/disp/display.h ****         // class. The only way around this is to use this very verbose syntax:
 197:../../libdaisy/src/hid/disp/display.h ****         ((ChildType*)(this))->ChildType::DrawPixel(x2, y2, on);
 198:../../libdaisy/src/hid/disp/display.h **** 
 199:../../libdaisy/src/hid/disp/display.h ****         while((x1 != x2) || (y1 != y2))
 594              		.loc 3 199 26 is_stmt 1 view .LVU125
 595 0066 9642     		cmp	r6, r2
 596 0068 01D1     		bne	.L22
 597              	.L41:
 598              		.loc 3 199 26 is_stmt 0 view .LVU126
 599 006a 8B42     		cmp	r3, r1
 600 006c 29D0     		beq	.L15
 601              	.L22:
 602              	.LVL43:
 200:../../libdaisy/src/hid/disp/display.h ****         {
 201:../../libdaisy/src/hid/disp/display.h ****             ((ChildType*)(this))->ChildType::DrawPixel(x1, y1, on);
 202:../../libdaisy/src/hid/disp/display.h ****             error2 = error * 2;
ARM GAS  C:\Users\VINCIU~1\AppData\Local\Temp\cc6DIkXk.s 			page 22


 203:../../libdaisy/src/hid/disp/display.h ****             if(error2 > -deltaY)
 603              		.loc 3 203 23 view .LVU127
 604 006e C8F10007 		rsb	r7, r8, #0
 605              	.L24:
 606              	.LVL44:
 607              	.LBB232:
 608              	.LBI232:
  41:../../libdaisy/src/hid/disp/oled_display.h ****     {
 609              		.loc 2 41 10 is_stmt 1 view .LVU128
 610              	.LBB233:
 611              	.LBI233:
 239:../../libdaisy/src/dev/oled_ssd130x.h ****     {
 612              		.loc 4 239 10 view .LVU129
 613              	.LBB234:
 241:../../libdaisy/src/dev/oled_ssd130x.h ****             return;
 614              		.loc 4 241 9 is_stmt 0 view .LVU130
 615 0072 7F29     		cmp	r1, #127
 616 0074 14D8     		bhi	.L25
 617 0076 3F2A     		cmp	r2, #63
 618 0078 12D8     		bhi	.L25
 244:../../libdaisy/src/dev/oled_ssd130x.h ****         else
 619              		.loc 4 244 28 view .LVU131
 620 007a D508     		lsrs	r5, r2, #3
 244:../../libdaisy/src/dev/oled_ssd130x.h ****         else
 621              		.loc 4 244 54 view .LVU132
 622 007c 02F0070B 		and	fp, r2, #7
 244:../../libdaisy/src/dev/oled_ssd130x.h ****         else
 623              		.loc 4 244 48 view .LVU133
 624 0080 4FF0010E 		mov	lr, #1
 244:../../libdaisy/src/dev/oled_ssd130x.h ****         else
 625              		.loc 4 244 42 view .LVU134
 626 0084 01EBC515 		add	r5, r1, r5, lsl #7
 627 0088 0544     		add	r5, r5, r0
 243:../../libdaisy/src/dev/oled_ssd130x.h ****             buffer_[x + (y / 8) * width] |= (1 << (y % 8));
 628              		.loc 4 243 9 view .LVU135
 629 008a B9F1000F 		cmp	r9, #0
 630 008e 1BD0     		beq	.L26
 244:../../libdaisy/src/dev/oled_ssd130x.h ****         else
 631              		.loc 4 244 48 view .LVU136
 632 0090 0EFA0BFE 		lsl	lr, lr, fp
 244:../../libdaisy/src/dev/oled_ssd130x.h ****         else
 633              		.loc 4 244 42 view .LVU137
 634 0094 95F814B0 		ldrb	fp, [r5, #20]	@ zero_extendqisi2
 635 0098 4EEA0B0E 		orr	lr, lr, fp
 636 009c 85F814E0 		strb	lr, [r5, #20]
 637              	.L25:
 638              	.LVL45:
 244:../../libdaisy/src/dev/oled_ssd130x.h ****         else
 639              		.loc 4 244 42 view .LVU138
 640              	.LBE234:
 641              	.LBE233:
 642              	.LBE232:
 643              		.loc 3 203 13 view .LVU139
 644 00a0 B7EB4C0F 		cmp	r7, ip, lsl #1
 202:../../libdaisy/src/hid/disp/display.h ****             if(error2 > -deltaY)
 645              		.loc 3 202 20 view .LVU140
 646 00a4 4FEA4C05 		lsl	r5, ip, #1
ARM GAS  C:\Users\VINCIU~1\AppData\Local\Temp\cc6DIkXk.s 			page 23


 647              	.LVL46:
 648              		.loc 3 203 13 view .LVU141
 649 00a8 02DA     		bge	.L27
 204:../../libdaisy/src/hid/disp/display.h ****             {
 205:../../libdaisy/src/hid/disp/display.h ****                 error -= deltaY;
 650              		.loc 3 205 23 view .LVU142
 651 00aa ACEB080C 		sub	ip, ip, r8
 652              	.LVL47:
 206:../../libdaisy/src/hid/disp/display.h ****                 x1 += signX;
 653              		.loc 3 206 20 view .LVU143
 654 00ae 5144     		add	r1, r1, r10
 655              	.LVL48:
 656              	.L27:
 207:../../libdaisy/src/hid/disp/display.h ****             }
 208:../../libdaisy/src/hid/disp/display.h **** 
 209:../../libdaisy/src/hid/disp/display.h ****             if(error2 < deltaX)
 657              		.loc 3 209 13 view .LVU144
 658 00b0 AC42     		cmp	r4, r5
 659 00b2 02DD     		ble	.L28
 210:../../libdaisy/src/hid/disp/display.h ****             {
 211:../../libdaisy/src/hid/disp/display.h ****                 error += deltaX;
 212:../../libdaisy/src/hid/disp/display.h ****                 y1 += signY;
 660              		.loc 3 212 20 view .LVU145
 661 00b4 019D     		ldr	r5, [sp, #4]
 662              	.LVL49:
 211:../../libdaisy/src/hid/disp/display.h ****                 y1 += signY;
 663              		.loc 3 211 23 view .LVU146
 664 00b6 A444     		add	ip, ip, r4
 665              	.LVL50:
 666              		.loc 3 212 20 view .LVU147
 667 00b8 2A44     		add	r2, r2, r5
 668              	.LVL51:
 669              	.L28:
 199:../../libdaisy/src/hid/disp/display.h ****         {
 670              		.loc 3 199 26 is_stmt 1 view .LVU148
 671 00ba 9942     		cmp	r1, r3
 672 00bc D9D1     		bne	.L24
 199:../../libdaisy/src/hid/disp/display.h ****         {
 673              		.loc 3 199 26 is_stmt 0 view .LVU149
 674 00be 9642     		cmp	r6, r2
 675 00c0 D7D1     		bne	.L24
 676              	.L15:
 213:../../libdaisy/src/hid/disp/display.h ****             }
 214:../../libdaisy/src/hid/disp/display.h ****         }
 215:../../libdaisy/src/hid/disp/display.h ****     }
 677              		.loc 3 215 5 view .LVU150
 678 00c2 03B0     		add	sp, sp, #12
 679              		.cfi_remember_state
 680              		.cfi_def_cfa_offset 36
 681              		@ sp needed
 682 00c4 BDE8F08F 		pop	{r4, r5, r6, r7, r8, r9, r10, fp, pc}
 683              	.LVL52:
 684              	.L26:
 685              		.cfi_restore_state
 686              	.LBB239:
 687              	.LBB238:
 688              	.LBB237:
ARM GAS  C:\Users\VINCIU~1\AppData\Local\Temp\cc6DIkXk.s 			page 24


 689              	.LBB235:
 690              	.LBI235:
 239:../../libdaisy/src/dev/oled_ssd130x.h ****     {
 691              		.loc 4 239 10 is_stmt 1 view .LVU151
 692              	.LBB236:
 246:../../libdaisy/src/dev/oled_ssd130x.h ****     }
 693              		.loc 4 246 49 is_stmt 0 view .LVU152
 694 00c8 0EFA0BFB 		lsl	fp, lr, fp
 246:../../libdaisy/src/dev/oled_ssd130x.h ****     }
 695              		.loc 4 246 42 view .LVU153
 696 00cc 95F814E0 		ldrb	lr, [r5, #20]	@ zero_extendqisi2
 697 00d0 2EEA0B0E 		bic	lr, lr, fp
 698 00d4 85F814E0 		strb	lr, [r5, #20]
 699 00d8 E2E7     		b	.L25
 700              	.LVL53:
 701              	.L17:
 246:../../libdaisy/src/dev/oled_ssd130x.h ****     }
 702              		.loc 4 246 42 view .LVU154
 703              	.LBE236:
 704              	.LBE235:
 705              	.LBE237:
 706              	.LBE238:
 707              	.LBE239:
 708              	.LBB240:
  41:../../libdaisy/src/hid/disp/oled_display.h ****     {
 709              		.loc 2 41 10 is_stmt 1 view .LVU155
 710              	.LBB226:
 239:../../libdaisy/src/dev/oled_ssd130x.h ****     {
 711              		.loc 4 239 10 view .LVU156
 712              	.LBE226:
 713              	.LBE240:
 190:../../libdaisy/src/hid/disp/display.h ****         int_fast16_t error  = deltaX - deltaY;
 714              		.loc 3 190 42 is_stmt 0 view .LVU157
 715 00da 0125     		movs	r5, #1
 716              	.LBB241:
 717              	.LBB227:
 718              	.LBB221:
 241:../../libdaisy/src/dev/oled_ssd130x.h ****             return;
 719              		.loc 4 241 9 view .LVU158
 720 00dc 7F2B     		cmp	r3, #127
 721              	.LBE221:
 722              	.LBE227:
 723              	.LBE241:
 190:../../libdaisy/src/hid/disp/display.h ****         int_fast16_t error  = deltaX - deltaY;
 724              		.loc 3 190 42 view .LVU159
 725 00de 0195     		str	r5, [sp, #4]
 726              	.LBB242:
 727              	.LBB228:
 728              	.LBB222:
 241:../../libdaisy/src/dev/oled_ssd130x.h ****             return;
 729              		.loc 4 241 9 view .LVU160
 730 00e0 C5D8     		bhi	.L22
 731 00e2 3F2E     		cmp	r6, #63
 732 00e4 AED9     		bls	.L29
 733 00e6 C2E7     		b	.L22
 734              	.LVL54:
 735              	.L19:
ARM GAS  C:\Users\VINCIU~1\AppData\Local\Temp\cc6DIkXk.s 			page 25


 736              	.LBB216:
 737              	.LBI216:
 239:../../libdaisy/src/dev/oled_ssd130x.h ****     {
 738              		.loc 4 239 10 is_stmt 1 view .LVU161
 739              	.LBB217:
 246:../../libdaisy/src/dev/oled_ssd130x.h ****     }
 740              		.loc 4 246 49 is_stmt 0 view .LVU162
 741 00e8 07FA0EFE 		lsl	lr, r7, lr
 246:../../libdaisy/src/dev/oled_ssd130x.h ****     }
 742              		.loc 4 246 42 view .LVU163
 743 00ec 2F7D     		ldrb	r7, [r5, #20]	@ zero_extendqisi2
 744              	.LBE217:
 745              	.LBE216:
 746              	.LBE222:
 747              	.LBE228:
 748              	.LBE242:
 199:../../libdaisy/src/hid/disp/display.h ****         {
 749              		.loc 3 199 26 view .LVU164
 750 00ee 9642     		cmp	r6, r2
 751              	.LBB243:
 752              	.LBB229:
 753              	.LBB223:
 754              	.LBB219:
 755              	.LBB218:
 246:../../libdaisy/src/dev/oled_ssd130x.h ****     }
 756              		.loc 4 246 42 view .LVU165
 757 00f0 27EA0E07 		bic	r7, r7, lr
 758 00f4 2F75     		strb	r7, [r5, #20]
 759              	.LVL55:
 246:../../libdaisy/src/dev/oled_ssd130x.h ****     }
 760              		.loc 4 246 42 view .LVU166
 761              	.LBE218:
 762              	.LBE219:
 763              	.LBE223:
 764              	.LBE229:
 765              	.LBE243:
 199:../../libdaisy/src/hid/disp/display.h ****         {
 766              		.loc 3 199 26 is_stmt 1 view .LVU167
 767 00f6 B8D0     		beq	.L41
 768 00f8 B9E7     		b	.L22
 769              		.cfi_endproc
 770              	.LFE1838:
 772 00fa 00BF     		.section	.text._ZN5daisy25OneBitGraphicsDisplayImplINS_11OledDisplayINS_13SSD130xDriverILj128ELj64
 773              		.align	1
 774              		.p2align 2,,3
 775              		.weak	_ZN5daisy25OneBitGraphicsDisplayImplINS_11OledDisplayINS_13SSD130xDriverILj128ELj64ENS_24SSD
 776              		.syntax unified
 777              		.thumb
 778              		.thumb_func
 779              		.fpu fpv5-d16
 781              	_ZN5daisy25OneBitGraphicsDisplayImplINS_11OledDisplayINS_13SSD130xDriverILj128ELj64ENS_24SSD130x4Wi
 782              	.LVL56:
 783              	.LFB1840:
 216:../../libdaisy/src/hid/disp/display.h **** 
 217:../../libdaisy/src/hid/disp/display.h ****     void DrawRect(uint_fast8_t x1,
 218:../../libdaisy/src/hid/disp/display.h ****                   uint_fast8_t y1,
 219:../../libdaisy/src/hid/disp/display.h ****                   uint_fast8_t x2,
ARM GAS  C:\Users\VINCIU~1\AppData\Local\Temp\cc6DIkXk.s 			page 26


 220:../../libdaisy/src/hid/disp/display.h ****                   uint_fast8_t y2,
 221:../../libdaisy/src/hid/disp/display.h ****                   bool         on,
 222:../../libdaisy/src/hid/disp/display.h ****                   bool         fill = false) override
 223:../../libdaisy/src/hid/disp/display.h ****     {
 224:../../libdaisy/src/hid/disp/display.h ****         if(fill)
 225:../../libdaisy/src/hid/disp/display.h ****         {
 226:../../libdaisy/src/hid/disp/display.h ****             for(uint_fast8_t x = x1; x <= x2; x++)
 227:../../libdaisy/src/hid/disp/display.h ****             {
 228:../../libdaisy/src/hid/disp/display.h ****                 for(uint_fast8_t y = y1; y <= y2; y++)
 229:../../libdaisy/src/hid/disp/display.h ****                 {
 230:../../libdaisy/src/hid/disp/display.h ****                     ((ChildType*)(this))->ChildType::DrawPixel(x, y, on);
 231:../../libdaisy/src/hid/disp/display.h ****                 }
 232:../../libdaisy/src/hid/disp/display.h ****             }
 233:../../libdaisy/src/hid/disp/display.h ****         }
 234:../../libdaisy/src/hid/disp/display.h ****         else
 235:../../libdaisy/src/hid/disp/display.h ****         {
 236:../../libdaisy/src/hid/disp/display.h ****             ((ChildType*)(this))->ChildType::DrawLine(x1, y1, x2, y1, on);
 237:../../libdaisy/src/hid/disp/display.h ****             ((ChildType*)(this))->ChildType::DrawLine(x2, y1, x2, y2, on);
 238:../../libdaisy/src/hid/disp/display.h ****             ((ChildType*)(this))->ChildType::DrawLine(x2, y2, x1, y2, on);
 239:../../libdaisy/src/hid/disp/display.h ****             ((ChildType*)(this))->ChildType::DrawLine(x1, y2, x1, y1, on);
 240:../../libdaisy/src/hid/disp/display.h ****         }
 241:../../libdaisy/src/hid/disp/display.h ****     }
 242:../../libdaisy/src/hid/disp/display.h **** 
 243:../../libdaisy/src/hid/disp/display.h ****     void DrawArc(uint_fast8_t x,
 784              		.loc 3 243 10 view -0
 785              		.cfi_startproc
 786              		@ args = 12, pretend = 0, frame = 8
 787              		@ frame_needed = 0, uses_anonymous_args = 0
 788              		.loc 3 243 10 is_stmt 0 view .LVU169
 789 0000 2DE9F04F 		push	{r4, r5, r6, r7, r8, r9, r10, fp, lr}
 790              		.cfi_def_cfa_offset 36
 791              		.cfi_offset 4, -36
 792              		.cfi_offset 5, -32
 793              		.cfi_offset 6, -28
 794              		.cfi_offset 7, -24
 795              		.cfi_offset 8, -20
 796              		.cfi_offset 9, -16
 797              		.cfi_offset 10, -12
 798              		.cfi_offset 11, -8
 799              		.cfi_offset 14, -4
 800 0004 2DED068B 		vpush.64	{d8, d9, d10}
 801              		.cfi_def_cfa_offset 60
 802              		.cfi_offset 80, -60
 803              		.cfi_offset 81, -56
 804              		.cfi_offset 82, -52
 805              		.cfi_offset 83, -48
 806              		.cfi_offset 84, -44
 807              		.cfi_offset 85, -40
 808 0008 83B0     		sub	sp, sp, #12
 809              		.cfi_def_cfa_offset 72
 810              		.loc 3 243 10 view .LVU170
 811 000a 1F46     		mov	r7, r3
 812 000c 8046     		mov	r8, r0
 813 000e 0D46     		mov	r5, r1
 814 0010 9DF85030 		ldrb	r3, [sp, #80]	@ zero_extendqisi2
 815              	.LVL57:
 816              		.loc 3 243 10 view .LVU171
ARM GAS  C:\Users\VINCIU~1\AppData\Local\Temp\cc6DIkXk.s 			page 27


 817 0014 1646     		mov	r6, r2
 818 0016 0193     		str	r3, [sp, #4]
 244:../../libdaisy/src/hid/disp/display.h ****                  uint_fast8_t y,
 245:../../libdaisy/src/hid/disp/display.h ****                  uint_fast8_t radius,
 246:../../libdaisy/src/hid/disp/display.h ****                  int_fast16_t start_angle,
 247:../../libdaisy/src/hid/disp/display.h ****                  int_fast16_t sweep,
 248:../../libdaisy/src/hid/disp/display.h ****                  bool         on) override
 249:../../libdaisy/src/hid/disp/display.h ****     {
 250:../../libdaisy/src/hid/disp/display.h ****         // Values to calculate the circle
 251:../../libdaisy/src/hid/disp/display.h ****         int_fast16_t t_x, t_y, err, e2;
 252:../../libdaisy/src/hid/disp/display.h **** 
 253:../../libdaisy/src/hid/disp/display.h ****         // Temporary values to speed up comparisons
 254:../../libdaisy/src/hid/disp/display.h ****         float t_sxy, t_syx, t_sxny, t_synx;
 255:../../libdaisy/src/hid/disp/display.h ****         float t_exy, t_eyx, t_exny, t_eynx;
 256:../../libdaisy/src/hid/disp/display.h **** 
 257:../../libdaisy/src/hid/disp/display.h ****         float start_angle_rad, end_angle_rad;
 258:../../libdaisy/src/hid/disp/display.h ****         float start_x, start_y, end_x, end_y;
 259:../../libdaisy/src/hid/disp/display.h **** 
 260:../../libdaisy/src/hid/disp/display.h ****         bool d1, d2, d3, d4;
 261:../../libdaisy/src/hid/disp/display.h **** 
 262:../../libdaisy/src/hid/disp/display.h ****         d1 = d2 = d3 = d4 = true;
 263:../../libdaisy/src/hid/disp/display.h **** 
 264:../../libdaisy/src/hid/disp/display.h ****         bool circle = false;
 265:../../libdaisy/src/hid/disp/display.h **** 
 266:../../libdaisy/src/hid/disp/display.h ****         if(sweep < 0)
 819              		.loc 3 266 9 view .LVU172
 820 0018 139B     		ldr	r3, [sp, #76]
 821 001a 002B     		cmp	r3, #0
 822 001c C0F22182 		blt	.L43
 267:../../libdaisy/src/hid/disp/display.h ****         {
 268:../../libdaisy/src/hid/disp/display.h ****             start_angle += sweep;
 269:../../libdaisy/src/hid/disp/display.h ****             sweep = -sweep;
 270:../../libdaisy/src/hid/disp/display.h ****         }
 271:../../libdaisy/src/hid/disp/display.h **** 
 272:../../libdaisy/src/hid/disp/display.h ****         start_angle_rad = deg2rad(start_angle);
 273:../../libdaisy/src/hid/disp/display.h ****         end_angle_rad   = deg2rad(start_angle + sweep);
 823              		.loc 3 273 27 view .LVU173
 824 0020 129A     		ldr	r2, [sp, #72]
 825              	.LVL58:
 826              		.loc 3 273 27 view .LVU174
 827 0022 1344     		add	r3, r3, r2
 828 0024 06EE103A 		vmov	s12, r3	@ int
 829              	.LVL59:
 830              	.L44:
 272:../../libdaisy/src/hid/disp/display.h ****         end_angle_rad   = deg2rad(start_angle + sweep);
 831              		.loc 3 272 27 view .LVU175
 832 0028 DDED127A 		vldr.32	s15, [sp, #72]	@ int
 833              		.loc 3 273 27 view .LVU176
 834 002c B8EEC66B 		vcvt.f64.s32	d6, s12
 272:../../libdaisy/src/hid/disp/display.h ****         end_angle_rad   = deg2rad(start_angle + sweep);
 835              		.loc 3 272 27 view .LVU177
 836 0030 9FEDCD4B 		vldr.64	d4, .L119
 837 0034 B8EEE77B 		vcvt.f64.s32	d7, s15
 838 0038 9FEDCD5B 		vldr.64	d5, .L119+8
 839 003c 27EE047B 		vmul.f64	d7, d7, d4
 840              		.loc 3 273 27 view .LVU178
 841 0040 26EE046B 		vmul.f64	d6, d6, d4
ARM GAS  C:\Users\VINCIU~1\AppData\Local\Temp\cc6DIkXk.s 			page 28


 272:../../libdaisy/src/hid/disp/display.h ****         end_angle_rad   = deg2rad(start_angle + sweep);
 842              		.loc 3 272 27 view .LVU179
 843 0044 87EE050B 		vdiv.f64	d0, d7, d5
 844              		.loc 3 273 27 view .LVU180
 845 0048 86EE05AB 		vdiv.f64	d10, d6, d5
 272:../../libdaisy/src/hid/disp/display.h ****         end_angle_rad   = deg2rad(start_angle + sweep);
 846              		.loc 3 272 25 view .LVU181
 847 004c F7EEC08B 		vcvt.f32.f64	s17, d0
 848              	.LVL60:
 849              	.LBB276:
 850              	.LBB277:
 851              		.file 5 "c:\\users\\vin\355cius\\documents\\daisytoolchain-0.3.1\\windows\\arm-none-eabi\\include\
   1:c:\users\vincius\documents\daisytoolchain-0.3.1\windows\arm-none-eabi\include\c++\10.2.1\cmath **** // -*- C++ -*- C forwarding header.
   2:c:\users\vincius\documents\daisytoolchain-0.3.1\windows\arm-none-eabi\include\c++\10.2.1\cmath **** 
   3:c:\users\vincius\documents\daisytoolchain-0.3.1\windows\arm-none-eabi\include\c++\10.2.1\cmath **** // Copyright (C) 1997-2020 Free Software Foundation, Inc.
   4:c:\users\vincius\documents\daisytoolchain-0.3.1\windows\arm-none-eabi\include\c++\10.2.1\cmath **** //
   5:c:\users\vincius\documents\daisytoolchain-0.3.1\windows\arm-none-eabi\include\c++\10.2.1\cmath **** // This file is part of the GNU ISO C++ Library.  This library is free
   6:c:\users\vincius\documents\daisytoolchain-0.3.1\windows\arm-none-eabi\include\c++\10.2.1\cmath **** // software; you can redistribute it and/or modify it under the
   7:c:\users\vincius\documents\daisytoolchain-0.3.1\windows\arm-none-eabi\include\c++\10.2.1\cmath **** // terms of the GNU General Public License as published by the
   8:c:\users\vincius\documents\daisytoolchain-0.3.1\windows\arm-none-eabi\include\c++\10.2.1\cmath **** // Free Software Foundation; either version 3, or (at your option)
   9:c:\users\vincius\documents\daisytoolchain-0.3.1\windows\arm-none-eabi\include\c++\10.2.1\cmath **** // any later version.
  10:c:\users\vincius\documents\daisytoolchain-0.3.1\windows\arm-none-eabi\include\c++\10.2.1\cmath **** 
  11:c:\users\vincius\documents\daisytoolchain-0.3.1\windows\arm-none-eabi\include\c++\10.2.1\cmath **** // This library is distributed in the hope that it will be useful,
  12:c:\users\vincius\documents\daisytoolchain-0.3.1\windows\arm-none-eabi\include\c++\10.2.1\cmath **** // but WITHOUT ANY WARRANTY; without even the implied warranty of
  13:c:\users\vincius\documents\daisytoolchain-0.3.1\windows\arm-none-eabi\include\c++\10.2.1\cmath **** // MERCHANTABILITY or FITNESS FOR A PARTICULAR PURPOSE.  See the
  14:c:\users\vincius\documents\daisytoolchain-0.3.1\windows\arm-none-eabi\include\c++\10.2.1\cmath **** // GNU General Public License for more details.
  15:c:\users\vincius\documents\daisytoolchain-0.3.1\windows\arm-none-eabi\include\c++\10.2.1\cmath **** 
  16:c:\users\vincius\documents\daisytoolchain-0.3.1\windows\arm-none-eabi\include\c++\10.2.1\cmath **** // Under Section 7 of GPL version 3, you are granted additional
  17:c:\users\vincius\documents\daisytoolchain-0.3.1\windows\arm-none-eabi\include\c++\10.2.1\cmath **** // permissions described in the GCC Runtime Library Exception, version
  18:c:\users\vincius\documents\daisytoolchain-0.3.1\windows\arm-none-eabi\include\c++\10.2.1\cmath **** // 3.1, as published by the Free Software Foundation.
  19:c:\users\vincius\documents\daisytoolchain-0.3.1\windows\arm-none-eabi\include\c++\10.2.1\cmath **** 
  20:c:\users\vincius\documents\daisytoolchain-0.3.1\windows\arm-none-eabi\include\c++\10.2.1\cmath **** // You should have received a copy of the GNU General Public License and
  21:c:\users\vincius\documents\daisytoolchain-0.3.1\windows\arm-none-eabi\include\c++\10.2.1\cmath **** // a copy of the GCC Runtime Library Exception along with this program;
  22:c:\users\vincius\documents\daisytoolchain-0.3.1\windows\arm-none-eabi\include\c++\10.2.1\cmath **** // see the files COPYING3 and COPYING.RUNTIME respectively.  If not, see
  23:c:\users\vincius\documents\daisytoolchain-0.3.1\windows\arm-none-eabi\include\c++\10.2.1\cmath **** // <http://www.gnu.org/licenses/>.
  24:c:\users\vincius\documents\daisytoolchain-0.3.1\windows\arm-none-eabi\include\c++\10.2.1\cmath **** 
  25:c:\users\vincius\documents\daisytoolchain-0.3.1\windows\arm-none-eabi\include\c++\10.2.1\cmath **** /** @file include/cmath
  26:c:\users\vincius\documents\daisytoolchain-0.3.1\windows\arm-none-eabi\include\c++\10.2.1\cmath ****  *  This is a Standard C++ Library file.  You should @c \#include this file
  27:c:\users\vincius\documents\daisytoolchain-0.3.1\windows\arm-none-eabi\include\c++\10.2.1\cmath ****  *  in your programs, rather than any of the @a *.h implementation files.
  28:c:\users\vincius\documents\daisytoolchain-0.3.1\windows\arm-none-eabi\include\c++\10.2.1\cmath ****  *
  29:c:\users\vincius\documents\daisytoolchain-0.3.1\windows\arm-none-eabi\include\c++\10.2.1\cmath ****  *  This is the C++ version of the Standard C Library header @c math.h,
  30:c:\users\vincius\documents\daisytoolchain-0.3.1\windows\arm-none-eabi\include\c++\10.2.1\cmath ****  *  and its contents are (mostly) the same as that header, but are all
  31:c:\users\vincius\documents\daisytoolchain-0.3.1\windows\arm-none-eabi\include\c++\10.2.1\cmath ****  *  contained in the namespace @c std (except for names which are defined
  32:c:\users\vincius\documents\daisytoolchain-0.3.1\windows\arm-none-eabi\include\c++\10.2.1\cmath ****  *  as macros in C).
  33:c:\users\vincius\documents\daisytoolchain-0.3.1\windows\arm-none-eabi\include\c++\10.2.1\cmath ****  */
  34:c:\users\vincius\documents\daisytoolchain-0.3.1\windows\arm-none-eabi\include\c++\10.2.1\cmath **** 
  35:c:\users\vincius\documents\daisytoolchain-0.3.1\windows\arm-none-eabi\include\c++\10.2.1\cmath **** //
  36:c:\users\vincius\documents\daisytoolchain-0.3.1\windows\arm-none-eabi\include\c++\10.2.1\cmath **** // ISO C++ 14882: 26.5  C library
  37:c:\users\vincius\documents\daisytoolchain-0.3.1\windows\arm-none-eabi\include\c++\10.2.1\cmath **** //
  38:c:\users\vincius\documents\daisytoolchain-0.3.1\windows\arm-none-eabi\include\c++\10.2.1\cmath **** 
  39:c:\users\vincius\documents\daisytoolchain-0.3.1\windows\arm-none-eabi\include\c++\10.2.1\cmath **** #pragma GCC system_header
  40:c:\users\vincius\documents\daisytoolchain-0.3.1\windows\arm-none-eabi\include\c++\10.2.1\cmath **** 
  41:c:\users\vincius\documents\daisytoolchain-0.3.1\windows\arm-none-eabi\include\c++\10.2.1\cmath **** #include <bits/c++config.h>
  42:c:\users\vincius\documents\daisytoolchain-0.3.1\windows\arm-none-eabi\include\c++\10.2.1\cmath **** #include <bits/cpp_type_traits.h>
  43:c:\users\vincius\documents\daisytoolchain-0.3.1\windows\arm-none-eabi\include\c++\10.2.1\cmath **** #include <ext/type_traits.h>
  44:c:\users\vincius\documents\daisytoolchain-0.3.1\windows\arm-none-eabi\include\c++\10.2.1\cmath **** #define _GLIBCXX_INCLUDE_NEXT_C_HEADERS
  45:c:\users\vincius\documents\daisytoolchain-0.3.1\windows\arm-none-eabi\include\c++\10.2.1\cmath **** #include_next <math.h>
ARM GAS  C:\Users\VINCIU~1\AppData\Local\Temp\cc6DIkXk.s 			page 29


  46:c:\users\vincius\documents\daisytoolchain-0.3.1\windows\arm-none-eabi\include\c++\10.2.1\cmath **** #undef _GLIBCXX_INCLUDE_NEXT_C_HEADERS
  47:c:\users\vincius\documents\daisytoolchain-0.3.1\windows\arm-none-eabi\include\c++\10.2.1\cmath **** #include <bits/std_abs.h>
  48:c:\users\vincius\documents\daisytoolchain-0.3.1\windows\arm-none-eabi\include\c++\10.2.1\cmath **** 
  49:c:\users\vincius\documents\daisytoolchain-0.3.1\windows\arm-none-eabi\include\c++\10.2.1\cmath **** #ifndef _GLIBCXX_CMATH
  50:c:\users\vincius\documents\daisytoolchain-0.3.1\windows\arm-none-eabi\include\c++\10.2.1\cmath **** #define _GLIBCXX_CMATH 1
  51:c:\users\vincius\documents\daisytoolchain-0.3.1\windows\arm-none-eabi\include\c++\10.2.1\cmath **** 
  52:c:\users\vincius\documents\daisytoolchain-0.3.1\windows\arm-none-eabi\include\c++\10.2.1\cmath **** // Get rid of those macros defined in <math.h> in lieu of real functions.
  53:c:\users\vincius\documents\daisytoolchain-0.3.1\windows\arm-none-eabi\include\c++\10.2.1\cmath **** #undef div
  54:c:\users\vincius\documents\daisytoolchain-0.3.1\windows\arm-none-eabi\include\c++\10.2.1\cmath **** #undef acos
  55:c:\users\vincius\documents\daisytoolchain-0.3.1\windows\arm-none-eabi\include\c++\10.2.1\cmath **** #undef asin
  56:c:\users\vincius\documents\daisytoolchain-0.3.1\windows\arm-none-eabi\include\c++\10.2.1\cmath **** #undef atan
  57:c:\users\vincius\documents\daisytoolchain-0.3.1\windows\arm-none-eabi\include\c++\10.2.1\cmath **** #undef atan2
  58:c:\users\vincius\documents\daisytoolchain-0.3.1\windows\arm-none-eabi\include\c++\10.2.1\cmath **** #undef ceil
  59:c:\users\vincius\documents\daisytoolchain-0.3.1\windows\arm-none-eabi\include\c++\10.2.1\cmath **** #undef cos
  60:c:\users\vincius\documents\daisytoolchain-0.3.1\windows\arm-none-eabi\include\c++\10.2.1\cmath **** #undef cosh
  61:c:\users\vincius\documents\daisytoolchain-0.3.1\windows\arm-none-eabi\include\c++\10.2.1\cmath **** #undef exp
  62:c:\users\vincius\documents\daisytoolchain-0.3.1\windows\arm-none-eabi\include\c++\10.2.1\cmath **** #undef fabs
  63:c:\users\vincius\documents\daisytoolchain-0.3.1\windows\arm-none-eabi\include\c++\10.2.1\cmath **** #undef floor
  64:c:\users\vincius\documents\daisytoolchain-0.3.1\windows\arm-none-eabi\include\c++\10.2.1\cmath **** #undef fmod
  65:c:\users\vincius\documents\daisytoolchain-0.3.1\windows\arm-none-eabi\include\c++\10.2.1\cmath **** #undef frexp
  66:c:\users\vincius\documents\daisytoolchain-0.3.1\windows\arm-none-eabi\include\c++\10.2.1\cmath **** #undef ldexp
  67:c:\users\vincius\documents\daisytoolchain-0.3.1\windows\arm-none-eabi\include\c++\10.2.1\cmath **** #undef log
  68:c:\users\vincius\documents\daisytoolchain-0.3.1\windows\arm-none-eabi\include\c++\10.2.1\cmath **** #undef log10
  69:c:\users\vincius\documents\daisytoolchain-0.3.1\windows\arm-none-eabi\include\c++\10.2.1\cmath **** #undef modf
  70:c:\users\vincius\documents\daisytoolchain-0.3.1\windows\arm-none-eabi\include\c++\10.2.1\cmath **** #undef pow
  71:c:\users\vincius\documents\daisytoolchain-0.3.1\windows\arm-none-eabi\include\c++\10.2.1\cmath **** #undef sin
  72:c:\users\vincius\documents\daisytoolchain-0.3.1\windows\arm-none-eabi\include\c++\10.2.1\cmath **** #undef sinh
  73:c:\users\vincius\documents\daisytoolchain-0.3.1\windows\arm-none-eabi\include\c++\10.2.1\cmath **** #undef sqrt
  74:c:\users\vincius\documents\daisytoolchain-0.3.1\windows\arm-none-eabi\include\c++\10.2.1\cmath **** #undef tan
  75:c:\users\vincius\documents\daisytoolchain-0.3.1\windows\arm-none-eabi\include\c++\10.2.1\cmath **** #undef tanh
  76:c:\users\vincius\documents\daisytoolchain-0.3.1\windows\arm-none-eabi\include\c++\10.2.1\cmath **** 
  77:c:\users\vincius\documents\daisytoolchain-0.3.1\windows\arm-none-eabi\include\c++\10.2.1\cmath **** extern "C++"
  78:c:\users\vincius\documents\daisytoolchain-0.3.1\windows\arm-none-eabi\include\c++\10.2.1\cmath **** {
  79:c:\users\vincius\documents\daisytoolchain-0.3.1\windows\arm-none-eabi\include\c++\10.2.1\cmath **** namespace std _GLIBCXX_VISIBILITY(default)
  80:c:\users\vincius\documents\daisytoolchain-0.3.1\windows\arm-none-eabi\include\c++\10.2.1\cmath **** {
  81:c:\users\vincius\documents\daisytoolchain-0.3.1\windows\arm-none-eabi\include\c++\10.2.1\cmath **** _GLIBCXX_BEGIN_NAMESPACE_VERSION
  82:c:\users\vincius\documents\daisytoolchain-0.3.1\windows\arm-none-eabi\include\c++\10.2.1\cmath **** 
  83:c:\users\vincius\documents\daisytoolchain-0.3.1\windows\arm-none-eabi\include\c++\10.2.1\cmath ****   using ::acos;
  84:c:\users\vincius\documents\daisytoolchain-0.3.1\windows\arm-none-eabi\include\c++\10.2.1\cmath **** 
  85:c:\users\vincius\documents\daisytoolchain-0.3.1\windows\arm-none-eabi\include\c++\10.2.1\cmath **** #ifndef __CORRECT_ISO_CPP_MATH_H_PROTO
  86:c:\users\vincius\documents\daisytoolchain-0.3.1\windows\arm-none-eabi\include\c++\10.2.1\cmath ****   inline _GLIBCXX_CONSTEXPR float
  87:c:\users\vincius\documents\daisytoolchain-0.3.1\windows\arm-none-eabi\include\c++\10.2.1\cmath ****   acos(float __x)
  88:c:\users\vincius\documents\daisytoolchain-0.3.1\windows\arm-none-eabi\include\c++\10.2.1\cmath ****   { return __builtin_acosf(__x); }
  89:c:\users\vincius\documents\daisytoolchain-0.3.1\windows\arm-none-eabi\include\c++\10.2.1\cmath **** 
  90:c:\users\vincius\documents\daisytoolchain-0.3.1\windows\arm-none-eabi\include\c++\10.2.1\cmath ****   inline _GLIBCXX_CONSTEXPR long double
  91:c:\users\vincius\documents\daisytoolchain-0.3.1\windows\arm-none-eabi\include\c++\10.2.1\cmath ****   acos(long double __x)
  92:c:\users\vincius\documents\daisytoolchain-0.3.1\windows\arm-none-eabi\include\c++\10.2.1\cmath ****   { return __builtin_acosl(__x); }
  93:c:\users\vincius\documents\daisytoolchain-0.3.1\windows\arm-none-eabi\include\c++\10.2.1\cmath **** #endif
  94:c:\users\vincius\documents\daisytoolchain-0.3.1\windows\arm-none-eabi\include\c++\10.2.1\cmath **** 
  95:c:\users\vincius\documents\daisytoolchain-0.3.1\windows\arm-none-eabi\include\c++\10.2.1\cmath ****   template<typename _Tp>
  96:c:\users\vincius\documents\daisytoolchain-0.3.1\windows\arm-none-eabi\include\c++\10.2.1\cmath ****     inline _GLIBCXX_CONSTEXPR
  97:c:\users\vincius\documents\daisytoolchain-0.3.1\windows\arm-none-eabi\include\c++\10.2.1\cmath ****     typename __gnu_cxx::__enable_if<__is_integer<_Tp>::__value, 
  98:c:\users\vincius\documents\daisytoolchain-0.3.1\windows\arm-none-eabi\include\c++\10.2.1\cmath ****                                     double>::__type
  99:c:\users\vincius\documents\daisytoolchain-0.3.1\windows\arm-none-eabi\include\c++\10.2.1\cmath ****     acos(_Tp __x)
 100:c:\users\vincius\documents\daisytoolchain-0.3.1\windows\arm-none-eabi\include\c++\10.2.1\cmath ****     { return __builtin_acos(__x); }
 101:c:\users\vincius\documents\daisytoolchain-0.3.1\windows\arm-none-eabi\include\c++\10.2.1\cmath **** 
 102:c:\users\vincius\documents\daisytoolchain-0.3.1\windows\arm-none-eabi\include\c++\10.2.1\cmath ****   using ::asin;
ARM GAS  C:\Users\VINCIU~1\AppData\Local\Temp\cc6DIkXk.s 			page 30


 103:c:\users\vincius\documents\daisytoolchain-0.3.1\windows\arm-none-eabi\include\c++\10.2.1\cmath **** 
 104:c:\users\vincius\documents\daisytoolchain-0.3.1\windows\arm-none-eabi\include\c++\10.2.1\cmath **** #ifndef __CORRECT_ISO_CPP_MATH_H_PROTO
 105:c:\users\vincius\documents\daisytoolchain-0.3.1\windows\arm-none-eabi\include\c++\10.2.1\cmath ****   inline _GLIBCXX_CONSTEXPR float
 106:c:\users\vincius\documents\daisytoolchain-0.3.1\windows\arm-none-eabi\include\c++\10.2.1\cmath ****   asin(float __x)
 107:c:\users\vincius\documents\daisytoolchain-0.3.1\windows\arm-none-eabi\include\c++\10.2.1\cmath ****   { return __builtin_asinf(__x); }
 108:c:\users\vincius\documents\daisytoolchain-0.3.1\windows\arm-none-eabi\include\c++\10.2.1\cmath **** 
 109:c:\users\vincius\documents\daisytoolchain-0.3.1\windows\arm-none-eabi\include\c++\10.2.1\cmath ****   inline _GLIBCXX_CONSTEXPR long double
 110:c:\users\vincius\documents\daisytoolchain-0.3.1\windows\arm-none-eabi\include\c++\10.2.1\cmath ****   asin(long double __x)
 111:c:\users\vincius\documents\daisytoolchain-0.3.1\windows\arm-none-eabi\include\c++\10.2.1\cmath ****   { return __builtin_asinl(__x); }
 112:c:\users\vincius\documents\daisytoolchain-0.3.1\windows\arm-none-eabi\include\c++\10.2.1\cmath **** #endif
 113:c:\users\vincius\documents\daisytoolchain-0.3.1\windows\arm-none-eabi\include\c++\10.2.1\cmath **** 
 114:c:\users\vincius\documents\daisytoolchain-0.3.1\windows\arm-none-eabi\include\c++\10.2.1\cmath ****   template<typename _Tp>
 115:c:\users\vincius\documents\daisytoolchain-0.3.1\windows\arm-none-eabi\include\c++\10.2.1\cmath ****     inline _GLIBCXX_CONSTEXPR
 116:c:\users\vincius\documents\daisytoolchain-0.3.1\windows\arm-none-eabi\include\c++\10.2.1\cmath ****     typename __gnu_cxx::__enable_if<__is_integer<_Tp>::__value,
 117:c:\users\vincius\documents\daisytoolchain-0.3.1\windows\arm-none-eabi\include\c++\10.2.1\cmath ****                                     double>::__type
 118:c:\users\vincius\documents\daisytoolchain-0.3.1\windows\arm-none-eabi\include\c++\10.2.1\cmath ****     asin(_Tp __x)
 119:c:\users\vincius\documents\daisytoolchain-0.3.1\windows\arm-none-eabi\include\c++\10.2.1\cmath ****     { return __builtin_asin(__x); }
 120:c:\users\vincius\documents\daisytoolchain-0.3.1\windows\arm-none-eabi\include\c++\10.2.1\cmath **** 
 121:c:\users\vincius\documents\daisytoolchain-0.3.1\windows\arm-none-eabi\include\c++\10.2.1\cmath ****   using ::atan;
 122:c:\users\vincius\documents\daisytoolchain-0.3.1\windows\arm-none-eabi\include\c++\10.2.1\cmath **** 
 123:c:\users\vincius\documents\daisytoolchain-0.3.1\windows\arm-none-eabi\include\c++\10.2.1\cmath **** #ifndef __CORRECT_ISO_CPP_MATH_H_PROTO
 124:c:\users\vincius\documents\daisytoolchain-0.3.1\windows\arm-none-eabi\include\c++\10.2.1\cmath ****   inline _GLIBCXX_CONSTEXPR float
 125:c:\users\vincius\documents\daisytoolchain-0.3.1\windows\arm-none-eabi\include\c++\10.2.1\cmath ****   atan(float __x)
 126:c:\users\vincius\documents\daisytoolchain-0.3.1\windows\arm-none-eabi\include\c++\10.2.1\cmath ****   { return __builtin_atanf(__x); }
 127:c:\users\vincius\documents\daisytoolchain-0.3.1\windows\arm-none-eabi\include\c++\10.2.1\cmath **** 
 128:c:\users\vincius\documents\daisytoolchain-0.3.1\windows\arm-none-eabi\include\c++\10.2.1\cmath ****   inline _GLIBCXX_CONSTEXPR long double
 129:c:\users\vincius\documents\daisytoolchain-0.3.1\windows\arm-none-eabi\include\c++\10.2.1\cmath ****   atan(long double __x)
 130:c:\users\vincius\documents\daisytoolchain-0.3.1\windows\arm-none-eabi\include\c++\10.2.1\cmath ****   { return __builtin_atanl(__x); }
 131:c:\users\vincius\documents\daisytoolchain-0.3.1\windows\arm-none-eabi\include\c++\10.2.1\cmath **** #endif
 132:c:\users\vincius\documents\daisytoolchain-0.3.1\windows\arm-none-eabi\include\c++\10.2.1\cmath **** 
 133:c:\users\vincius\documents\daisytoolchain-0.3.1\windows\arm-none-eabi\include\c++\10.2.1\cmath ****   template<typename _Tp>
 134:c:\users\vincius\documents\daisytoolchain-0.3.1\windows\arm-none-eabi\include\c++\10.2.1\cmath ****     inline _GLIBCXX_CONSTEXPR
 135:c:\users\vincius\documents\daisytoolchain-0.3.1\windows\arm-none-eabi\include\c++\10.2.1\cmath ****     typename __gnu_cxx::__enable_if<__is_integer<_Tp>::__value,
 136:c:\users\vincius\documents\daisytoolchain-0.3.1\windows\arm-none-eabi\include\c++\10.2.1\cmath ****                                     double>::__type
 137:c:\users\vincius\documents\daisytoolchain-0.3.1\windows\arm-none-eabi\include\c++\10.2.1\cmath ****     atan(_Tp __x)
 138:c:\users\vincius\documents\daisytoolchain-0.3.1\windows\arm-none-eabi\include\c++\10.2.1\cmath ****     { return __builtin_atan(__x); }
 139:c:\users\vincius\documents\daisytoolchain-0.3.1\windows\arm-none-eabi\include\c++\10.2.1\cmath **** 
 140:c:\users\vincius\documents\daisytoolchain-0.3.1\windows\arm-none-eabi\include\c++\10.2.1\cmath ****   using ::atan2;
 141:c:\users\vincius\documents\daisytoolchain-0.3.1\windows\arm-none-eabi\include\c++\10.2.1\cmath **** 
 142:c:\users\vincius\documents\daisytoolchain-0.3.1\windows\arm-none-eabi\include\c++\10.2.1\cmath **** #ifndef __CORRECT_ISO_CPP_MATH_H_PROTO
 143:c:\users\vincius\documents\daisytoolchain-0.3.1\windows\arm-none-eabi\include\c++\10.2.1\cmath ****   inline _GLIBCXX_CONSTEXPR float
 144:c:\users\vincius\documents\daisytoolchain-0.3.1\windows\arm-none-eabi\include\c++\10.2.1\cmath ****   atan2(float __y, float __x)
 145:c:\users\vincius\documents\daisytoolchain-0.3.1\windows\arm-none-eabi\include\c++\10.2.1\cmath ****   { return __builtin_atan2f(__y, __x); }
 146:c:\users\vincius\documents\daisytoolchain-0.3.1\windows\arm-none-eabi\include\c++\10.2.1\cmath **** 
 147:c:\users\vincius\documents\daisytoolchain-0.3.1\windows\arm-none-eabi\include\c++\10.2.1\cmath ****   inline _GLIBCXX_CONSTEXPR long double
 148:c:\users\vincius\documents\daisytoolchain-0.3.1\windows\arm-none-eabi\include\c++\10.2.1\cmath ****   atan2(long double __y, long double __x)
 149:c:\users\vincius\documents\daisytoolchain-0.3.1\windows\arm-none-eabi\include\c++\10.2.1\cmath ****   { return __builtin_atan2l(__y, __x); }
 150:c:\users\vincius\documents\daisytoolchain-0.3.1\windows\arm-none-eabi\include\c++\10.2.1\cmath **** #endif
 151:c:\users\vincius\documents\daisytoolchain-0.3.1\windows\arm-none-eabi\include\c++\10.2.1\cmath **** 
 152:c:\users\vincius\documents\daisytoolchain-0.3.1\windows\arm-none-eabi\include\c++\10.2.1\cmath ****   template<typename _Tp, typename _Up>
 153:c:\users\vincius\documents\daisytoolchain-0.3.1\windows\arm-none-eabi\include\c++\10.2.1\cmath ****     inline _GLIBCXX_CONSTEXPR
 154:c:\users\vincius\documents\daisytoolchain-0.3.1\windows\arm-none-eabi\include\c++\10.2.1\cmath ****     typename __gnu_cxx::__promote_2<_Tp, _Up>::__type
 155:c:\users\vincius\documents\daisytoolchain-0.3.1\windows\arm-none-eabi\include\c++\10.2.1\cmath ****     atan2(_Tp __y, _Up __x)
 156:c:\users\vincius\documents\daisytoolchain-0.3.1\windows\arm-none-eabi\include\c++\10.2.1\cmath ****     {
 157:c:\users\vincius\documents\daisytoolchain-0.3.1\windows\arm-none-eabi\include\c++\10.2.1\cmath ****       typedef typename __gnu_cxx::__promote_2<_Tp, _Up>::__type __type;
 158:c:\users\vincius\documents\daisytoolchain-0.3.1\windows\arm-none-eabi\include\c++\10.2.1\cmath ****       return atan2(__type(__y), __type(__x));
 159:c:\users\vincius\documents\daisytoolchain-0.3.1\windows\arm-none-eabi\include\c++\10.2.1\cmath ****     }
ARM GAS  C:\Users\VINCIU~1\AppData\Local\Temp\cc6DIkXk.s 			page 31


 160:c:\users\vincius\documents\daisytoolchain-0.3.1\windows\arm-none-eabi\include\c++\10.2.1\cmath **** 
 161:c:\users\vincius\documents\daisytoolchain-0.3.1\windows\arm-none-eabi\include\c++\10.2.1\cmath ****   using ::ceil;
 162:c:\users\vincius\documents\daisytoolchain-0.3.1\windows\arm-none-eabi\include\c++\10.2.1\cmath **** 
 163:c:\users\vincius\documents\daisytoolchain-0.3.1\windows\arm-none-eabi\include\c++\10.2.1\cmath **** #ifndef __CORRECT_ISO_CPP_MATH_H_PROTO
 164:c:\users\vincius\documents\daisytoolchain-0.3.1\windows\arm-none-eabi\include\c++\10.2.1\cmath ****   inline _GLIBCXX_CONSTEXPR float
 165:c:\users\vincius\documents\daisytoolchain-0.3.1\windows\arm-none-eabi\include\c++\10.2.1\cmath ****   ceil(float __x)
 166:c:\users\vincius\documents\daisytoolchain-0.3.1\windows\arm-none-eabi\include\c++\10.2.1\cmath ****   { return __builtin_ceilf(__x); }
 167:c:\users\vincius\documents\daisytoolchain-0.3.1\windows\arm-none-eabi\include\c++\10.2.1\cmath **** 
 168:c:\users\vincius\documents\daisytoolchain-0.3.1\windows\arm-none-eabi\include\c++\10.2.1\cmath ****   inline _GLIBCXX_CONSTEXPR long double
 169:c:\users\vincius\documents\daisytoolchain-0.3.1\windows\arm-none-eabi\include\c++\10.2.1\cmath ****   ceil(long double __x)
 170:c:\users\vincius\documents\daisytoolchain-0.3.1\windows\arm-none-eabi\include\c++\10.2.1\cmath ****   { return __builtin_ceill(__x); }
 171:c:\users\vincius\documents\daisytoolchain-0.3.1\windows\arm-none-eabi\include\c++\10.2.1\cmath **** #endif
 172:c:\users\vincius\documents\daisytoolchain-0.3.1\windows\arm-none-eabi\include\c++\10.2.1\cmath **** 
 173:c:\users\vincius\documents\daisytoolchain-0.3.1\windows\arm-none-eabi\include\c++\10.2.1\cmath ****   template<typename _Tp>
 174:c:\users\vincius\documents\daisytoolchain-0.3.1\windows\arm-none-eabi\include\c++\10.2.1\cmath ****     inline _GLIBCXX_CONSTEXPR
 175:c:\users\vincius\documents\daisytoolchain-0.3.1\windows\arm-none-eabi\include\c++\10.2.1\cmath ****     typename __gnu_cxx::__enable_if<__is_integer<_Tp>::__value, 
 176:c:\users\vincius\documents\daisytoolchain-0.3.1\windows\arm-none-eabi\include\c++\10.2.1\cmath ****                                     double>::__type
 177:c:\users\vincius\documents\daisytoolchain-0.3.1\windows\arm-none-eabi\include\c++\10.2.1\cmath ****     ceil(_Tp __x)
 178:c:\users\vincius\documents\daisytoolchain-0.3.1\windows\arm-none-eabi\include\c++\10.2.1\cmath ****     { return __builtin_ceil(__x); }
 179:c:\users\vincius\documents\daisytoolchain-0.3.1\windows\arm-none-eabi\include\c++\10.2.1\cmath **** 
 180:c:\users\vincius\documents\daisytoolchain-0.3.1\windows\arm-none-eabi\include\c++\10.2.1\cmath ****   using ::cos;
 181:c:\users\vincius\documents\daisytoolchain-0.3.1\windows\arm-none-eabi\include\c++\10.2.1\cmath **** 
 182:c:\users\vincius\documents\daisytoolchain-0.3.1\windows\arm-none-eabi\include\c++\10.2.1\cmath **** #ifndef __CORRECT_ISO_CPP_MATH_H_PROTO
 183:c:\users\vincius\documents\daisytoolchain-0.3.1\windows\arm-none-eabi\include\c++\10.2.1\cmath ****   inline _GLIBCXX_CONSTEXPR float
 184:c:\users\vincius\documents\daisytoolchain-0.3.1\windows\arm-none-eabi\include\c++\10.2.1\cmath ****   cos(float __x)
 185:c:\users\vincius\documents\daisytoolchain-0.3.1\windows\arm-none-eabi\include\c++\10.2.1\cmath ****   { return __builtin_cosf(__x); }
 852              		.loc 5 185 26 view .LVU182
 853 0050 B0EE680A 		vmov.f32	s0, s17
 854 0054 FFF7FEFF 		bl	cosf
 855              	.LVL61:
 856              		.loc 5 185 26 view .LVU183
 857              	.LBE277:
 858              	.LBE276:
 274:../../libdaisy/src/hid/disp/display.h **** 
 275:../../libdaisy/src/hid/disp/display.h ****         start_x = cos(start_angle_rad) * radius;
 859              		.loc 3 275 17 view .LVU184
 860 0058 07EE907A 		vmov	s15, r7	@ int
 273:../../libdaisy/src/hid/disp/display.h **** 
 861              		.loc 3 273 25 view .LVU185
 862 005c B7EECAAB 		vcvt.f32.f64	s20, d10
 863              	.LVL62:
 864              	.LBB280:
 865              	.LBI276:
 184:c:\users\vincius\documents\daisytoolchain-0.3.1\windows\arm-none-eabi\include\c++\10.2.1\cmath ****   { return __builtin_cosf(__x); }
 866              		.loc 5 184 3 is_stmt 1 view .LVU186
 867              	.LBB278:
 868              		.loc 5 185 5 view .LVU187
 869              		.loc 5 185 5 is_stmt 0 view .LVU188
 870              	.LBE278:
 871              	.LBE280:
 872              		.loc 3 275 17 view .LVU189
 873 0060 F8EE679A 		vcvt.f32.u32	s19, s15
 874              	.LBB281:
 875              	.LBB279:
 876              		.loc 5 185 26 view .LVU190
 877 0064 B0EE408A 		vmov.f32	s16, s0
 878              	.LBE279:
ARM GAS  C:\Users\VINCIU~1\AppData\Local\Temp\cc6DIkXk.s 			page 32


 879              	.LBE281:
 880              	.LBB282:
 881              	.LBB283:
 186:c:\users\vincius\documents\daisytoolchain-0.3.1\windows\arm-none-eabi\include\c++\10.2.1\cmath **** 
 187:c:\users\vincius\documents\daisytoolchain-0.3.1\windows\arm-none-eabi\include\c++\10.2.1\cmath ****   inline _GLIBCXX_CONSTEXPR long double
 188:c:\users\vincius\documents\daisytoolchain-0.3.1\windows\arm-none-eabi\include\c++\10.2.1\cmath ****   cos(long double __x)
 189:c:\users\vincius\documents\daisytoolchain-0.3.1\windows\arm-none-eabi\include\c++\10.2.1\cmath ****   { return __builtin_cosl(__x); }
 190:c:\users\vincius\documents\daisytoolchain-0.3.1\windows\arm-none-eabi\include\c++\10.2.1\cmath **** #endif
 191:c:\users\vincius\documents\daisytoolchain-0.3.1\windows\arm-none-eabi\include\c++\10.2.1\cmath **** 
 192:c:\users\vincius\documents\daisytoolchain-0.3.1\windows\arm-none-eabi\include\c++\10.2.1\cmath ****   template<typename _Tp>
 193:c:\users\vincius\documents\daisytoolchain-0.3.1\windows\arm-none-eabi\include\c++\10.2.1\cmath ****     inline _GLIBCXX_CONSTEXPR
 194:c:\users\vincius\documents\daisytoolchain-0.3.1\windows\arm-none-eabi\include\c++\10.2.1\cmath ****     typename __gnu_cxx::__enable_if<__is_integer<_Tp>::__value,
 195:c:\users\vincius\documents\daisytoolchain-0.3.1\windows\arm-none-eabi\include\c++\10.2.1\cmath ****                                     double>::__type
 196:c:\users\vincius\documents\daisytoolchain-0.3.1\windows\arm-none-eabi\include\c++\10.2.1\cmath ****     cos(_Tp __x)
 197:c:\users\vincius\documents\daisytoolchain-0.3.1\windows\arm-none-eabi\include\c++\10.2.1\cmath ****     { return __builtin_cos(__x); }
 198:c:\users\vincius\documents\daisytoolchain-0.3.1\windows\arm-none-eabi\include\c++\10.2.1\cmath **** 
 199:c:\users\vincius\documents\daisytoolchain-0.3.1\windows\arm-none-eabi\include\c++\10.2.1\cmath ****   using ::cosh;
 200:c:\users\vincius\documents\daisytoolchain-0.3.1\windows\arm-none-eabi\include\c++\10.2.1\cmath **** 
 201:c:\users\vincius\documents\daisytoolchain-0.3.1\windows\arm-none-eabi\include\c++\10.2.1\cmath **** #ifndef __CORRECT_ISO_CPP_MATH_H_PROTO
 202:c:\users\vincius\documents\daisytoolchain-0.3.1\windows\arm-none-eabi\include\c++\10.2.1\cmath ****   inline _GLIBCXX_CONSTEXPR float
 203:c:\users\vincius\documents\daisytoolchain-0.3.1\windows\arm-none-eabi\include\c++\10.2.1\cmath ****   cosh(float __x)
 204:c:\users\vincius\documents\daisytoolchain-0.3.1\windows\arm-none-eabi\include\c++\10.2.1\cmath ****   { return __builtin_coshf(__x); }
 205:c:\users\vincius\documents\daisytoolchain-0.3.1\windows\arm-none-eabi\include\c++\10.2.1\cmath **** 
 206:c:\users\vincius\documents\daisytoolchain-0.3.1\windows\arm-none-eabi\include\c++\10.2.1\cmath ****   inline _GLIBCXX_CONSTEXPR long double
 207:c:\users\vincius\documents\daisytoolchain-0.3.1\windows\arm-none-eabi\include\c++\10.2.1\cmath ****   cosh(long double __x)
 208:c:\users\vincius\documents\daisytoolchain-0.3.1\windows\arm-none-eabi\include\c++\10.2.1\cmath ****   { return __builtin_coshl(__x); }
 209:c:\users\vincius\documents\daisytoolchain-0.3.1\windows\arm-none-eabi\include\c++\10.2.1\cmath **** #endif
 210:c:\users\vincius\documents\daisytoolchain-0.3.1\windows\arm-none-eabi\include\c++\10.2.1\cmath **** 
 211:c:\users\vincius\documents\daisytoolchain-0.3.1\windows\arm-none-eabi\include\c++\10.2.1\cmath ****   template<typename _Tp>
 212:c:\users\vincius\documents\daisytoolchain-0.3.1\windows\arm-none-eabi\include\c++\10.2.1\cmath ****     inline _GLIBCXX_CONSTEXPR
 213:c:\users\vincius\documents\daisytoolchain-0.3.1\windows\arm-none-eabi\include\c++\10.2.1\cmath ****     typename __gnu_cxx::__enable_if<__is_integer<_Tp>::__value,
 214:c:\users\vincius\documents\daisytoolchain-0.3.1\windows\arm-none-eabi\include\c++\10.2.1\cmath ****                                     double>::__type
 215:c:\users\vincius\documents\daisytoolchain-0.3.1\windows\arm-none-eabi\include\c++\10.2.1\cmath ****     cosh(_Tp __x)
 216:c:\users\vincius\documents\daisytoolchain-0.3.1\windows\arm-none-eabi\include\c++\10.2.1\cmath ****     { return __builtin_cosh(__x); }
 217:c:\users\vincius\documents\daisytoolchain-0.3.1\windows\arm-none-eabi\include\c++\10.2.1\cmath **** 
 218:c:\users\vincius\documents\daisytoolchain-0.3.1\windows\arm-none-eabi\include\c++\10.2.1\cmath ****   using ::exp;
 219:c:\users\vincius\documents\daisytoolchain-0.3.1\windows\arm-none-eabi\include\c++\10.2.1\cmath **** 
 220:c:\users\vincius\documents\daisytoolchain-0.3.1\windows\arm-none-eabi\include\c++\10.2.1\cmath **** #ifndef __CORRECT_ISO_CPP_MATH_H_PROTO
 221:c:\users\vincius\documents\daisytoolchain-0.3.1\windows\arm-none-eabi\include\c++\10.2.1\cmath ****   inline _GLIBCXX_CONSTEXPR float
 222:c:\users\vincius\documents\daisytoolchain-0.3.1\windows\arm-none-eabi\include\c++\10.2.1\cmath ****   exp(float __x)
 223:c:\users\vincius\documents\daisytoolchain-0.3.1\windows\arm-none-eabi\include\c++\10.2.1\cmath ****   { return __builtin_expf(__x); }
 224:c:\users\vincius\documents\daisytoolchain-0.3.1\windows\arm-none-eabi\include\c++\10.2.1\cmath **** 
 225:c:\users\vincius\documents\daisytoolchain-0.3.1\windows\arm-none-eabi\include\c++\10.2.1\cmath ****   inline _GLIBCXX_CONSTEXPR long double
 226:c:\users\vincius\documents\daisytoolchain-0.3.1\windows\arm-none-eabi\include\c++\10.2.1\cmath ****   exp(long double __x)
 227:c:\users\vincius\documents\daisytoolchain-0.3.1\windows\arm-none-eabi\include\c++\10.2.1\cmath ****   { return __builtin_expl(__x); }
 228:c:\users\vincius\documents\daisytoolchain-0.3.1\windows\arm-none-eabi\include\c++\10.2.1\cmath **** #endif
 229:c:\users\vincius\documents\daisytoolchain-0.3.1\windows\arm-none-eabi\include\c++\10.2.1\cmath **** 
 230:c:\users\vincius\documents\daisytoolchain-0.3.1\windows\arm-none-eabi\include\c++\10.2.1\cmath ****   template<typename _Tp>
 231:c:\users\vincius\documents\daisytoolchain-0.3.1\windows\arm-none-eabi\include\c++\10.2.1\cmath ****     inline _GLIBCXX_CONSTEXPR
 232:c:\users\vincius\documents\daisytoolchain-0.3.1\windows\arm-none-eabi\include\c++\10.2.1\cmath ****     typename __gnu_cxx::__enable_if<__is_integer<_Tp>::__value,
 233:c:\users\vincius\documents\daisytoolchain-0.3.1\windows\arm-none-eabi\include\c++\10.2.1\cmath ****                                     double>::__type
 234:c:\users\vincius\documents\daisytoolchain-0.3.1\windows\arm-none-eabi\include\c++\10.2.1\cmath ****     exp(_Tp __x)
 235:c:\users\vincius\documents\daisytoolchain-0.3.1\windows\arm-none-eabi\include\c++\10.2.1\cmath ****     { return __builtin_exp(__x); }
 236:c:\users\vincius\documents\daisytoolchain-0.3.1\windows\arm-none-eabi\include\c++\10.2.1\cmath **** 
 237:c:\users\vincius\documents\daisytoolchain-0.3.1\windows\arm-none-eabi\include\c++\10.2.1\cmath ****   using ::fabs;
 238:c:\users\vincius\documents\daisytoolchain-0.3.1\windows\arm-none-eabi\include\c++\10.2.1\cmath **** 
 239:c:\users\vincius\documents\daisytoolchain-0.3.1\windows\arm-none-eabi\include\c++\10.2.1\cmath **** #ifndef __CORRECT_ISO_CPP_MATH_H_PROTO
ARM GAS  C:\Users\VINCIU~1\AppData\Local\Temp\cc6DIkXk.s 			page 33


 240:c:\users\vincius\documents\daisytoolchain-0.3.1\windows\arm-none-eabi\include\c++\10.2.1\cmath ****   inline _GLIBCXX_CONSTEXPR float
 241:c:\users\vincius\documents\daisytoolchain-0.3.1\windows\arm-none-eabi\include\c++\10.2.1\cmath ****   fabs(float __x)
 242:c:\users\vincius\documents\daisytoolchain-0.3.1\windows\arm-none-eabi\include\c++\10.2.1\cmath ****   { return __builtin_fabsf(__x); }
 243:c:\users\vincius\documents\daisytoolchain-0.3.1\windows\arm-none-eabi\include\c++\10.2.1\cmath **** 
 244:c:\users\vincius\documents\daisytoolchain-0.3.1\windows\arm-none-eabi\include\c++\10.2.1\cmath ****   inline _GLIBCXX_CONSTEXPR long double
 245:c:\users\vincius\documents\daisytoolchain-0.3.1\windows\arm-none-eabi\include\c++\10.2.1\cmath ****   fabs(long double __x)
 246:c:\users\vincius\documents\daisytoolchain-0.3.1\windows\arm-none-eabi\include\c++\10.2.1\cmath ****   { return __builtin_fabsl(__x); }
 247:c:\users\vincius\documents\daisytoolchain-0.3.1\windows\arm-none-eabi\include\c++\10.2.1\cmath **** #endif
 248:c:\users\vincius\documents\daisytoolchain-0.3.1\windows\arm-none-eabi\include\c++\10.2.1\cmath **** 
 249:c:\users\vincius\documents\daisytoolchain-0.3.1\windows\arm-none-eabi\include\c++\10.2.1\cmath ****   template<typename _Tp>
 250:c:\users\vincius\documents\daisytoolchain-0.3.1\windows\arm-none-eabi\include\c++\10.2.1\cmath ****     inline _GLIBCXX_CONSTEXPR
 251:c:\users\vincius\documents\daisytoolchain-0.3.1\windows\arm-none-eabi\include\c++\10.2.1\cmath ****     typename __gnu_cxx::__enable_if<__is_integer<_Tp>::__value,
 252:c:\users\vincius\documents\daisytoolchain-0.3.1\windows\arm-none-eabi\include\c++\10.2.1\cmath ****                                     double>::__type
 253:c:\users\vincius\documents\daisytoolchain-0.3.1\windows\arm-none-eabi\include\c++\10.2.1\cmath ****     fabs(_Tp __x)
 254:c:\users\vincius\documents\daisytoolchain-0.3.1\windows\arm-none-eabi\include\c++\10.2.1\cmath ****     { return __builtin_fabs(__x); }
 255:c:\users\vincius\documents\daisytoolchain-0.3.1\windows\arm-none-eabi\include\c++\10.2.1\cmath **** 
 256:c:\users\vincius\documents\daisytoolchain-0.3.1\windows\arm-none-eabi\include\c++\10.2.1\cmath ****   using ::floor;
 257:c:\users\vincius\documents\daisytoolchain-0.3.1\windows\arm-none-eabi\include\c++\10.2.1\cmath **** 
 258:c:\users\vincius\documents\daisytoolchain-0.3.1\windows\arm-none-eabi\include\c++\10.2.1\cmath **** #ifndef __CORRECT_ISO_CPP_MATH_H_PROTO
 259:c:\users\vincius\documents\daisytoolchain-0.3.1\windows\arm-none-eabi\include\c++\10.2.1\cmath ****   inline _GLIBCXX_CONSTEXPR float
 260:c:\users\vincius\documents\daisytoolchain-0.3.1\windows\arm-none-eabi\include\c++\10.2.1\cmath ****   floor(float __x)
 261:c:\users\vincius\documents\daisytoolchain-0.3.1\windows\arm-none-eabi\include\c++\10.2.1\cmath ****   { return __builtin_floorf(__x); }
 262:c:\users\vincius\documents\daisytoolchain-0.3.1\windows\arm-none-eabi\include\c++\10.2.1\cmath **** 
 263:c:\users\vincius\documents\daisytoolchain-0.3.1\windows\arm-none-eabi\include\c++\10.2.1\cmath ****   inline _GLIBCXX_CONSTEXPR long double
 264:c:\users\vincius\documents\daisytoolchain-0.3.1\windows\arm-none-eabi\include\c++\10.2.1\cmath ****   floor(long double __x)
 265:c:\users\vincius\documents\daisytoolchain-0.3.1\windows\arm-none-eabi\include\c++\10.2.1\cmath ****   { return __builtin_floorl(__x); }
 266:c:\users\vincius\documents\daisytoolchain-0.3.1\windows\arm-none-eabi\include\c++\10.2.1\cmath **** #endif
 267:c:\users\vincius\documents\daisytoolchain-0.3.1\windows\arm-none-eabi\include\c++\10.2.1\cmath **** 
 268:c:\users\vincius\documents\daisytoolchain-0.3.1\windows\arm-none-eabi\include\c++\10.2.1\cmath ****   template<typename _Tp>
 269:c:\users\vincius\documents\daisytoolchain-0.3.1\windows\arm-none-eabi\include\c++\10.2.1\cmath ****     inline _GLIBCXX_CONSTEXPR
 270:c:\users\vincius\documents\daisytoolchain-0.3.1\windows\arm-none-eabi\include\c++\10.2.1\cmath ****     typename __gnu_cxx::__enable_if<__is_integer<_Tp>::__value,
 271:c:\users\vincius\documents\daisytoolchain-0.3.1\windows\arm-none-eabi\include\c++\10.2.1\cmath ****                                     double>::__type
 272:c:\users\vincius\documents\daisytoolchain-0.3.1\windows\arm-none-eabi\include\c++\10.2.1\cmath ****     floor(_Tp __x)
 273:c:\users\vincius\documents\daisytoolchain-0.3.1\windows\arm-none-eabi\include\c++\10.2.1\cmath ****     { return __builtin_floor(__x); }
 274:c:\users\vincius\documents\daisytoolchain-0.3.1\windows\arm-none-eabi\include\c++\10.2.1\cmath **** 
 275:c:\users\vincius\documents\daisytoolchain-0.3.1\windows\arm-none-eabi\include\c++\10.2.1\cmath ****   using ::fmod;
 276:c:\users\vincius\documents\daisytoolchain-0.3.1\windows\arm-none-eabi\include\c++\10.2.1\cmath **** 
 277:c:\users\vincius\documents\daisytoolchain-0.3.1\windows\arm-none-eabi\include\c++\10.2.1\cmath **** #ifndef __CORRECT_ISO_CPP_MATH_H_PROTO
 278:c:\users\vincius\documents\daisytoolchain-0.3.1\windows\arm-none-eabi\include\c++\10.2.1\cmath ****   inline _GLIBCXX_CONSTEXPR float
 279:c:\users\vincius\documents\daisytoolchain-0.3.1\windows\arm-none-eabi\include\c++\10.2.1\cmath ****   fmod(float __x, float __y)
 280:c:\users\vincius\documents\daisytoolchain-0.3.1\windows\arm-none-eabi\include\c++\10.2.1\cmath ****   { return __builtin_fmodf(__x, __y); }
 281:c:\users\vincius\documents\daisytoolchain-0.3.1\windows\arm-none-eabi\include\c++\10.2.1\cmath **** 
 282:c:\users\vincius\documents\daisytoolchain-0.3.1\windows\arm-none-eabi\include\c++\10.2.1\cmath ****   inline _GLIBCXX_CONSTEXPR long double
 283:c:\users\vincius\documents\daisytoolchain-0.3.1\windows\arm-none-eabi\include\c++\10.2.1\cmath ****   fmod(long double __x, long double __y)
 284:c:\users\vincius\documents\daisytoolchain-0.3.1\windows\arm-none-eabi\include\c++\10.2.1\cmath ****   { return __builtin_fmodl(__x, __y); }
 285:c:\users\vincius\documents\daisytoolchain-0.3.1\windows\arm-none-eabi\include\c++\10.2.1\cmath **** #endif
 286:c:\users\vincius\documents\daisytoolchain-0.3.1\windows\arm-none-eabi\include\c++\10.2.1\cmath **** 
 287:c:\users\vincius\documents\daisytoolchain-0.3.1\windows\arm-none-eabi\include\c++\10.2.1\cmath ****   template<typename _Tp, typename _Up>
 288:c:\users\vincius\documents\daisytoolchain-0.3.1\windows\arm-none-eabi\include\c++\10.2.1\cmath ****     inline _GLIBCXX_CONSTEXPR
 289:c:\users\vincius\documents\daisytoolchain-0.3.1\windows\arm-none-eabi\include\c++\10.2.1\cmath ****     typename __gnu_cxx::__promote_2<_Tp, _Up>::__type
 290:c:\users\vincius\documents\daisytoolchain-0.3.1\windows\arm-none-eabi\include\c++\10.2.1\cmath ****     fmod(_Tp __x, _Up __y)
 291:c:\users\vincius\documents\daisytoolchain-0.3.1\windows\arm-none-eabi\include\c++\10.2.1\cmath ****     {
 292:c:\users\vincius\documents\daisytoolchain-0.3.1\windows\arm-none-eabi\include\c++\10.2.1\cmath ****       typedef typename __gnu_cxx::__promote_2<_Tp, _Up>::__type __type;
 293:c:\users\vincius\documents\daisytoolchain-0.3.1\windows\arm-none-eabi\include\c++\10.2.1\cmath ****       return fmod(__type(__x), __type(__y));
 294:c:\users\vincius\documents\daisytoolchain-0.3.1\windows\arm-none-eabi\include\c++\10.2.1\cmath ****     }
 295:c:\users\vincius\documents\daisytoolchain-0.3.1\windows\arm-none-eabi\include\c++\10.2.1\cmath **** 
 296:c:\users\vincius\documents\daisytoolchain-0.3.1\windows\arm-none-eabi\include\c++\10.2.1\cmath ****   using ::frexp;
ARM GAS  C:\Users\VINCIU~1\AppData\Local\Temp\cc6DIkXk.s 			page 34


 297:c:\users\vincius\documents\daisytoolchain-0.3.1\windows\arm-none-eabi\include\c++\10.2.1\cmath **** 
 298:c:\users\vincius\documents\daisytoolchain-0.3.1\windows\arm-none-eabi\include\c++\10.2.1\cmath **** #ifndef __CORRECT_ISO_CPP_MATH_H_PROTO
 299:c:\users\vincius\documents\daisytoolchain-0.3.1\windows\arm-none-eabi\include\c++\10.2.1\cmath ****   inline float
 300:c:\users\vincius\documents\daisytoolchain-0.3.1\windows\arm-none-eabi\include\c++\10.2.1\cmath ****   frexp(float __x, int* __exp)
 301:c:\users\vincius\documents\daisytoolchain-0.3.1\windows\arm-none-eabi\include\c++\10.2.1\cmath ****   { return __builtin_frexpf(__x, __exp); }
 302:c:\users\vincius\documents\daisytoolchain-0.3.1\windows\arm-none-eabi\include\c++\10.2.1\cmath **** 
 303:c:\users\vincius\documents\daisytoolchain-0.3.1\windows\arm-none-eabi\include\c++\10.2.1\cmath ****   inline long double
 304:c:\users\vincius\documents\daisytoolchain-0.3.1\windows\arm-none-eabi\include\c++\10.2.1\cmath ****   frexp(long double __x, int* __exp)
 305:c:\users\vincius\documents\daisytoolchain-0.3.1\windows\arm-none-eabi\include\c++\10.2.1\cmath ****   { return __builtin_frexpl(__x, __exp); }
 306:c:\users\vincius\documents\daisytoolchain-0.3.1\windows\arm-none-eabi\include\c++\10.2.1\cmath **** #endif
 307:c:\users\vincius\documents\daisytoolchain-0.3.1\windows\arm-none-eabi\include\c++\10.2.1\cmath **** 
 308:c:\users\vincius\documents\daisytoolchain-0.3.1\windows\arm-none-eabi\include\c++\10.2.1\cmath ****   template<typename _Tp>
 309:c:\users\vincius\documents\daisytoolchain-0.3.1\windows\arm-none-eabi\include\c++\10.2.1\cmath ****     inline _GLIBCXX_CONSTEXPR
 310:c:\users\vincius\documents\daisytoolchain-0.3.1\windows\arm-none-eabi\include\c++\10.2.1\cmath ****     typename __gnu_cxx::__enable_if<__is_integer<_Tp>::__value, 
 311:c:\users\vincius\documents\daisytoolchain-0.3.1\windows\arm-none-eabi\include\c++\10.2.1\cmath ****                                     double>::__type
 312:c:\users\vincius\documents\daisytoolchain-0.3.1\windows\arm-none-eabi\include\c++\10.2.1\cmath ****     frexp(_Tp __x, int* __exp)
 313:c:\users\vincius\documents\daisytoolchain-0.3.1\windows\arm-none-eabi\include\c++\10.2.1\cmath ****     { return __builtin_frexp(__x, __exp); }
 314:c:\users\vincius\documents\daisytoolchain-0.3.1\windows\arm-none-eabi\include\c++\10.2.1\cmath **** 
 315:c:\users\vincius\documents\daisytoolchain-0.3.1\windows\arm-none-eabi\include\c++\10.2.1\cmath ****   using ::ldexp;
 316:c:\users\vincius\documents\daisytoolchain-0.3.1\windows\arm-none-eabi\include\c++\10.2.1\cmath **** 
 317:c:\users\vincius\documents\daisytoolchain-0.3.1\windows\arm-none-eabi\include\c++\10.2.1\cmath **** #ifndef __CORRECT_ISO_CPP_MATH_H_PROTO
 318:c:\users\vincius\documents\daisytoolchain-0.3.1\windows\arm-none-eabi\include\c++\10.2.1\cmath ****   inline _GLIBCXX_CONSTEXPR float
 319:c:\users\vincius\documents\daisytoolchain-0.3.1\windows\arm-none-eabi\include\c++\10.2.1\cmath ****   ldexp(float __x, int __exp)
 320:c:\users\vincius\documents\daisytoolchain-0.3.1\windows\arm-none-eabi\include\c++\10.2.1\cmath ****   { return __builtin_ldexpf(__x, __exp); }
 321:c:\users\vincius\documents\daisytoolchain-0.3.1\windows\arm-none-eabi\include\c++\10.2.1\cmath **** 
 322:c:\users\vincius\documents\daisytoolchain-0.3.1\windows\arm-none-eabi\include\c++\10.2.1\cmath ****   inline _GLIBCXX_CONSTEXPR long double
 323:c:\users\vincius\documents\daisytoolchain-0.3.1\windows\arm-none-eabi\include\c++\10.2.1\cmath ****   ldexp(long double __x, int __exp)
 324:c:\users\vincius\documents\daisytoolchain-0.3.1\windows\arm-none-eabi\include\c++\10.2.1\cmath ****   { return __builtin_ldexpl(__x, __exp); }
 325:c:\users\vincius\documents\daisytoolchain-0.3.1\windows\arm-none-eabi\include\c++\10.2.1\cmath **** #endif
 326:c:\users\vincius\documents\daisytoolchain-0.3.1\windows\arm-none-eabi\include\c++\10.2.1\cmath **** 
 327:c:\users\vincius\documents\daisytoolchain-0.3.1\windows\arm-none-eabi\include\c++\10.2.1\cmath ****   template<typename _Tp>
 328:c:\users\vincius\documents\daisytoolchain-0.3.1\windows\arm-none-eabi\include\c++\10.2.1\cmath ****     inline _GLIBCXX_CONSTEXPR
 329:c:\users\vincius\documents\daisytoolchain-0.3.1\windows\arm-none-eabi\include\c++\10.2.1\cmath ****     typename __gnu_cxx::__enable_if<__is_integer<_Tp>::__value, 
 330:c:\users\vincius\documents\daisytoolchain-0.3.1\windows\arm-none-eabi\include\c++\10.2.1\cmath ****                                     double>::__type
 331:c:\users\vincius\documents\daisytoolchain-0.3.1\windows\arm-none-eabi\include\c++\10.2.1\cmath ****     ldexp(_Tp __x, int __exp)
 332:c:\users\vincius\documents\daisytoolchain-0.3.1\windows\arm-none-eabi\include\c++\10.2.1\cmath ****     { return __builtin_ldexp(__x, __exp); }
 333:c:\users\vincius\documents\daisytoolchain-0.3.1\windows\arm-none-eabi\include\c++\10.2.1\cmath **** 
 334:c:\users\vincius\documents\daisytoolchain-0.3.1\windows\arm-none-eabi\include\c++\10.2.1\cmath ****   using ::log;
 335:c:\users\vincius\documents\daisytoolchain-0.3.1\windows\arm-none-eabi\include\c++\10.2.1\cmath **** 
 336:c:\users\vincius\documents\daisytoolchain-0.3.1\windows\arm-none-eabi\include\c++\10.2.1\cmath **** #ifndef __CORRECT_ISO_CPP_MATH_H_PROTO
 337:c:\users\vincius\documents\daisytoolchain-0.3.1\windows\arm-none-eabi\include\c++\10.2.1\cmath ****   inline _GLIBCXX_CONSTEXPR float
 338:c:\users\vincius\documents\daisytoolchain-0.3.1\windows\arm-none-eabi\include\c++\10.2.1\cmath ****   log(float __x)
 339:c:\users\vincius\documents\daisytoolchain-0.3.1\windows\arm-none-eabi\include\c++\10.2.1\cmath ****   { return __builtin_logf(__x); }
 340:c:\users\vincius\documents\daisytoolchain-0.3.1\windows\arm-none-eabi\include\c++\10.2.1\cmath **** 
 341:c:\users\vincius\documents\daisytoolchain-0.3.1\windows\arm-none-eabi\include\c++\10.2.1\cmath ****   inline _GLIBCXX_CONSTEXPR long double
 342:c:\users\vincius\documents\daisytoolchain-0.3.1\windows\arm-none-eabi\include\c++\10.2.1\cmath ****   log(long double __x)
 343:c:\users\vincius\documents\daisytoolchain-0.3.1\windows\arm-none-eabi\include\c++\10.2.1\cmath ****   { return __builtin_logl(__x); }
 344:c:\users\vincius\documents\daisytoolchain-0.3.1\windows\arm-none-eabi\include\c++\10.2.1\cmath **** #endif
 345:c:\users\vincius\documents\daisytoolchain-0.3.1\windows\arm-none-eabi\include\c++\10.2.1\cmath **** 
 346:c:\users\vincius\documents\daisytoolchain-0.3.1\windows\arm-none-eabi\include\c++\10.2.1\cmath ****   template<typename _Tp>
 347:c:\users\vincius\documents\daisytoolchain-0.3.1\windows\arm-none-eabi\include\c++\10.2.1\cmath ****     inline _GLIBCXX_CONSTEXPR
 348:c:\users\vincius\documents\daisytoolchain-0.3.1\windows\arm-none-eabi\include\c++\10.2.1\cmath ****     typename __gnu_cxx::__enable_if<__is_integer<_Tp>::__value, 
 349:c:\users\vincius\documents\daisytoolchain-0.3.1\windows\arm-none-eabi\include\c++\10.2.1\cmath ****                                     double>::__type
 350:c:\users\vincius\documents\daisytoolchain-0.3.1\windows\arm-none-eabi\include\c++\10.2.1\cmath ****     log(_Tp __x)
 351:c:\users\vincius\documents\daisytoolchain-0.3.1\windows\arm-none-eabi\include\c++\10.2.1\cmath ****     { return __builtin_log(__x); }
 352:c:\users\vincius\documents\daisytoolchain-0.3.1\windows\arm-none-eabi\include\c++\10.2.1\cmath **** 
 353:c:\users\vincius\documents\daisytoolchain-0.3.1\windows\arm-none-eabi\include\c++\10.2.1\cmath ****   using ::log10;
ARM GAS  C:\Users\VINCIU~1\AppData\Local\Temp\cc6DIkXk.s 			page 35


 354:c:\users\vincius\documents\daisytoolchain-0.3.1\windows\arm-none-eabi\include\c++\10.2.1\cmath **** 
 355:c:\users\vincius\documents\daisytoolchain-0.3.1\windows\arm-none-eabi\include\c++\10.2.1\cmath **** #ifndef __CORRECT_ISO_CPP_MATH_H_PROTO
 356:c:\users\vincius\documents\daisytoolchain-0.3.1\windows\arm-none-eabi\include\c++\10.2.1\cmath ****   inline _GLIBCXX_CONSTEXPR float
 357:c:\users\vincius\documents\daisytoolchain-0.3.1\windows\arm-none-eabi\include\c++\10.2.1\cmath ****   log10(float __x)
 358:c:\users\vincius\documents\daisytoolchain-0.3.1\windows\arm-none-eabi\include\c++\10.2.1\cmath ****   { return __builtin_log10f(__x); }
 359:c:\users\vincius\documents\daisytoolchain-0.3.1\windows\arm-none-eabi\include\c++\10.2.1\cmath **** 
 360:c:\users\vincius\documents\daisytoolchain-0.3.1\windows\arm-none-eabi\include\c++\10.2.1\cmath ****   inline _GLIBCXX_CONSTEXPR long double
 361:c:\users\vincius\documents\daisytoolchain-0.3.1\windows\arm-none-eabi\include\c++\10.2.1\cmath ****   log10(long double __x)
 362:c:\users\vincius\documents\daisytoolchain-0.3.1\windows\arm-none-eabi\include\c++\10.2.1\cmath ****   { return __builtin_log10l(__x); }
 363:c:\users\vincius\documents\daisytoolchain-0.3.1\windows\arm-none-eabi\include\c++\10.2.1\cmath **** #endif
 364:c:\users\vincius\documents\daisytoolchain-0.3.1\windows\arm-none-eabi\include\c++\10.2.1\cmath **** 
 365:c:\users\vincius\documents\daisytoolchain-0.3.1\windows\arm-none-eabi\include\c++\10.2.1\cmath ****   template<typename _Tp>
 366:c:\users\vincius\documents\daisytoolchain-0.3.1\windows\arm-none-eabi\include\c++\10.2.1\cmath ****     inline _GLIBCXX_CONSTEXPR
 367:c:\users\vincius\documents\daisytoolchain-0.3.1\windows\arm-none-eabi\include\c++\10.2.1\cmath ****     typename __gnu_cxx::__enable_if<__is_integer<_Tp>::__value,
 368:c:\users\vincius\documents\daisytoolchain-0.3.1\windows\arm-none-eabi\include\c++\10.2.1\cmath ****                                     double>::__type
 369:c:\users\vincius\documents\daisytoolchain-0.3.1\windows\arm-none-eabi\include\c++\10.2.1\cmath ****     log10(_Tp __x)
 370:c:\users\vincius\documents\daisytoolchain-0.3.1\windows\arm-none-eabi\include\c++\10.2.1\cmath ****     { return __builtin_log10(__x); }
 371:c:\users\vincius\documents\daisytoolchain-0.3.1\windows\arm-none-eabi\include\c++\10.2.1\cmath **** 
 372:c:\users\vincius\documents\daisytoolchain-0.3.1\windows\arm-none-eabi\include\c++\10.2.1\cmath ****   using ::modf;
 373:c:\users\vincius\documents\daisytoolchain-0.3.1\windows\arm-none-eabi\include\c++\10.2.1\cmath **** 
 374:c:\users\vincius\documents\daisytoolchain-0.3.1\windows\arm-none-eabi\include\c++\10.2.1\cmath **** #ifndef __CORRECT_ISO_CPP_MATH_H_PROTO
 375:c:\users\vincius\documents\daisytoolchain-0.3.1\windows\arm-none-eabi\include\c++\10.2.1\cmath ****   inline float
 376:c:\users\vincius\documents\daisytoolchain-0.3.1\windows\arm-none-eabi\include\c++\10.2.1\cmath ****   modf(float __x, float* __iptr)
 377:c:\users\vincius\documents\daisytoolchain-0.3.1\windows\arm-none-eabi\include\c++\10.2.1\cmath ****   { return __builtin_modff(__x, __iptr); }
 378:c:\users\vincius\documents\daisytoolchain-0.3.1\windows\arm-none-eabi\include\c++\10.2.1\cmath **** 
 379:c:\users\vincius\documents\daisytoolchain-0.3.1\windows\arm-none-eabi\include\c++\10.2.1\cmath ****   inline long double
 380:c:\users\vincius\documents\daisytoolchain-0.3.1\windows\arm-none-eabi\include\c++\10.2.1\cmath ****   modf(long double __x, long double* __iptr)
 381:c:\users\vincius\documents\daisytoolchain-0.3.1\windows\arm-none-eabi\include\c++\10.2.1\cmath ****   { return __builtin_modfl(__x, __iptr); }
 382:c:\users\vincius\documents\daisytoolchain-0.3.1\windows\arm-none-eabi\include\c++\10.2.1\cmath **** #endif
 383:c:\users\vincius\documents\daisytoolchain-0.3.1\windows\arm-none-eabi\include\c++\10.2.1\cmath **** 
 384:c:\users\vincius\documents\daisytoolchain-0.3.1\windows\arm-none-eabi\include\c++\10.2.1\cmath ****   using ::pow;
 385:c:\users\vincius\documents\daisytoolchain-0.3.1\windows\arm-none-eabi\include\c++\10.2.1\cmath **** 
 386:c:\users\vincius\documents\daisytoolchain-0.3.1\windows\arm-none-eabi\include\c++\10.2.1\cmath **** #ifndef __CORRECT_ISO_CPP_MATH_H_PROTO
 387:c:\users\vincius\documents\daisytoolchain-0.3.1\windows\arm-none-eabi\include\c++\10.2.1\cmath ****   inline _GLIBCXX_CONSTEXPR float
 388:c:\users\vincius\documents\daisytoolchain-0.3.1\windows\arm-none-eabi\include\c++\10.2.1\cmath ****   pow(float __x, float __y)
 389:c:\users\vincius\documents\daisytoolchain-0.3.1\windows\arm-none-eabi\include\c++\10.2.1\cmath ****   { return __builtin_powf(__x, __y); }
 390:c:\users\vincius\documents\daisytoolchain-0.3.1\windows\arm-none-eabi\include\c++\10.2.1\cmath **** 
 391:c:\users\vincius\documents\daisytoolchain-0.3.1\windows\arm-none-eabi\include\c++\10.2.1\cmath ****   inline _GLIBCXX_CONSTEXPR long double
 392:c:\users\vincius\documents\daisytoolchain-0.3.1\windows\arm-none-eabi\include\c++\10.2.1\cmath ****   pow(long double __x, long double __y)
 393:c:\users\vincius\documents\daisytoolchain-0.3.1\windows\arm-none-eabi\include\c++\10.2.1\cmath ****   { return __builtin_powl(__x, __y); }
 394:c:\users\vincius\documents\daisytoolchain-0.3.1\windows\arm-none-eabi\include\c++\10.2.1\cmath **** 
 395:c:\users\vincius\documents\daisytoolchain-0.3.1\windows\arm-none-eabi\include\c++\10.2.1\cmath **** #if __cplusplus < 201103L
 396:c:\users\vincius\documents\daisytoolchain-0.3.1\windows\arm-none-eabi\include\c++\10.2.1\cmath ****   // _GLIBCXX_RESOLVE_LIB_DEFECTS
 397:c:\users\vincius\documents\daisytoolchain-0.3.1\windows\arm-none-eabi\include\c++\10.2.1\cmath ****   // DR 550. What should the return type of pow(float,int) be?
 398:c:\users\vincius\documents\daisytoolchain-0.3.1\windows\arm-none-eabi\include\c++\10.2.1\cmath ****   inline double
 399:c:\users\vincius\documents\daisytoolchain-0.3.1\windows\arm-none-eabi\include\c++\10.2.1\cmath ****   pow(double __x, int __i)
 400:c:\users\vincius\documents\daisytoolchain-0.3.1\windows\arm-none-eabi\include\c++\10.2.1\cmath ****   { return __builtin_powi(__x, __i); }
 401:c:\users\vincius\documents\daisytoolchain-0.3.1\windows\arm-none-eabi\include\c++\10.2.1\cmath **** 
 402:c:\users\vincius\documents\daisytoolchain-0.3.1\windows\arm-none-eabi\include\c++\10.2.1\cmath ****   inline float
 403:c:\users\vincius\documents\daisytoolchain-0.3.1\windows\arm-none-eabi\include\c++\10.2.1\cmath ****   pow(float __x, int __n)
 404:c:\users\vincius\documents\daisytoolchain-0.3.1\windows\arm-none-eabi\include\c++\10.2.1\cmath ****   { return __builtin_powif(__x, __n); }
 405:c:\users\vincius\documents\daisytoolchain-0.3.1\windows\arm-none-eabi\include\c++\10.2.1\cmath **** 
 406:c:\users\vincius\documents\daisytoolchain-0.3.1\windows\arm-none-eabi\include\c++\10.2.1\cmath ****   inline long double
 407:c:\users\vincius\documents\daisytoolchain-0.3.1\windows\arm-none-eabi\include\c++\10.2.1\cmath ****   pow(long double __x, int __n)
 408:c:\users\vincius\documents\daisytoolchain-0.3.1\windows\arm-none-eabi\include\c++\10.2.1\cmath ****   { return __builtin_powil(__x, __n); }
 409:c:\users\vincius\documents\daisytoolchain-0.3.1\windows\arm-none-eabi\include\c++\10.2.1\cmath **** #endif
 410:c:\users\vincius\documents\daisytoolchain-0.3.1\windows\arm-none-eabi\include\c++\10.2.1\cmath **** #endif
ARM GAS  C:\Users\VINCIU~1\AppData\Local\Temp\cc6DIkXk.s 			page 36


 411:c:\users\vincius\documents\daisytoolchain-0.3.1\windows\arm-none-eabi\include\c++\10.2.1\cmath **** 
 412:c:\users\vincius\documents\daisytoolchain-0.3.1\windows\arm-none-eabi\include\c++\10.2.1\cmath ****   template<typename _Tp, typename _Up>
 413:c:\users\vincius\documents\daisytoolchain-0.3.1\windows\arm-none-eabi\include\c++\10.2.1\cmath ****     inline _GLIBCXX_CONSTEXPR
 414:c:\users\vincius\documents\daisytoolchain-0.3.1\windows\arm-none-eabi\include\c++\10.2.1\cmath ****     typename __gnu_cxx::__promote_2<_Tp, _Up>::__type
 415:c:\users\vincius\documents\daisytoolchain-0.3.1\windows\arm-none-eabi\include\c++\10.2.1\cmath ****     pow(_Tp __x, _Up __y)
 416:c:\users\vincius\documents\daisytoolchain-0.3.1\windows\arm-none-eabi\include\c++\10.2.1\cmath ****     {
 417:c:\users\vincius\documents\daisytoolchain-0.3.1\windows\arm-none-eabi\include\c++\10.2.1\cmath ****       typedef typename __gnu_cxx::__promote_2<_Tp, _Up>::__type __type;
 418:c:\users\vincius\documents\daisytoolchain-0.3.1\windows\arm-none-eabi\include\c++\10.2.1\cmath ****       return pow(__type(__x), __type(__y));
 419:c:\users\vincius\documents\daisytoolchain-0.3.1\windows\arm-none-eabi\include\c++\10.2.1\cmath ****     }
 420:c:\users\vincius\documents\daisytoolchain-0.3.1\windows\arm-none-eabi\include\c++\10.2.1\cmath **** 
 421:c:\users\vincius\documents\daisytoolchain-0.3.1\windows\arm-none-eabi\include\c++\10.2.1\cmath ****   using ::sin;
 422:c:\users\vincius\documents\daisytoolchain-0.3.1\windows\arm-none-eabi\include\c++\10.2.1\cmath **** 
 423:c:\users\vincius\documents\daisytoolchain-0.3.1\windows\arm-none-eabi\include\c++\10.2.1\cmath **** #ifndef __CORRECT_ISO_CPP_MATH_H_PROTO
 424:c:\users\vincius\documents\daisytoolchain-0.3.1\windows\arm-none-eabi\include\c++\10.2.1\cmath ****   inline _GLIBCXX_CONSTEXPR float
 425:c:\users\vincius\documents\daisytoolchain-0.3.1\windows\arm-none-eabi\include\c++\10.2.1\cmath ****   sin(float __x)
 426:c:\users\vincius\documents\daisytoolchain-0.3.1\windows\arm-none-eabi\include\c++\10.2.1\cmath ****   { return __builtin_sinf(__x); }
 882              		.loc 5 426 26 view .LVU191
 883 0068 B0EE680A 		vmov.f32	s0, s17
 884 006c FFF7FEFF 		bl	sinf
 885              	.LVL63:
 886              	.LBE283:
 887              	.LBE282:
 276:../../libdaisy/src/hid/disp/display.h ****         start_y = -sin(start_angle_rad) * radius;
 888              		.loc 3 276 17 view .LVU192
 889 0070 60EE698A 		vnmul.f32	s17, s0, s19
 890              	.LVL64:
 891              	.LBB285:
 892              	.LBB286:
 185:c:\users\vincius\documents\daisytoolchain-0.3.1\windows\arm-none-eabi\include\c++\10.2.1\cmath **** 
 893              		.loc 5 185 26 view .LVU193
 894 0074 B0EE4A0A 		vmov.f32	s0, s20
 895 0078 FFF7FEFF 		bl	cosf
 896              	.LVL65:
 897 007c B0EE409A 		vmov.f32	s18, s0
 898              	.LBE286:
 899              	.LBE285:
 900              	.LBB288:
 901              	.LBB289:
 902              		.loc 5 426 26 view .LVU194
 903 0080 B0EE4A0A 		vmov.f32	s0, s20
 904 0084 FFF7FEFF 		bl	sinf
 905              	.LVL66:
 906              	.LBE289:
 907              	.LBE288:
 277:../../libdaisy/src/hid/disp/display.h ****         end_x   = cos(end_angle_rad) * radius;
 278:../../libdaisy/src/hid/disp/display.h ****         end_y   = -sin(end_angle_rad) * radius;
 908              		.loc 3 278 17 view .LVU195
 909 0088 20EE690A 		vnmul.f32	s0, s0, s19
 275:../../libdaisy/src/hid/disp/display.h ****         start_y = -sin(start_angle_rad) * radius;
 910              		.loc 3 275 17 view .LVU196
 911 008c 29EE888A 		vmul.f32	s16, s19, s16
 912              	.LVL67:
 913              	.LBB291:
 914              	.LBI282:
 425:c:\users\vincius\documents\daisytoolchain-0.3.1\windows\arm-none-eabi\include\c++\10.2.1\cmath ****   { return __builtin_sinf(__x); }
 915              		.loc 5 425 3 is_stmt 1 view .LVU197
 916              	.LBB284:
ARM GAS  C:\Users\VINCIU~1\AppData\Local\Temp\cc6DIkXk.s 			page 37


 917              		.loc 5 426 5 view .LVU198
 918              		.loc 5 426 5 is_stmt 0 view .LVU199
 919              	.LBE284:
 920              	.LBE291:
 921              	.LBB292:
 922              	.LBI285:
 184:c:\users\vincius\documents\daisytoolchain-0.3.1\windows\arm-none-eabi\include\c++\10.2.1\cmath ****   { return __builtin_cosf(__x); }
 923              		.loc 5 184 3 is_stmt 1 view .LVU200
 924              	.LBB287:
 185:c:\users\vincius\documents\daisytoolchain-0.3.1\windows\arm-none-eabi\include\c++\10.2.1\cmath **** 
 925              		.loc 5 185 5 view .LVU201
 185:c:\users\vincius\documents\daisytoolchain-0.3.1\windows\arm-none-eabi\include\c++\10.2.1\cmath **** 
 926              		.loc 5 185 5 is_stmt 0 view .LVU202
 927              	.LBE287:
 928              	.LBE292:
 277:../../libdaisy/src/hid/disp/display.h ****         end_y   = -sin(end_angle_rad) * radius;
 929              		.loc 3 277 17 view .LVU203
 930 0090 29EE899A 		vmul.f32	s18, s19, s18
 931              	.LVL68:
 932              	.LBB293:
 933              	.LBI288:
 425:c:\users\vincius\documents\daisytoolchain-0.3.1\windows\arm-none-eabi\include\c++\10.2.1\cmath ****   { return __builtin_sinf(__x); }
 934              		.loc 5 425 3 is_stmt 1 view .LVU204
 935              	.LBB290:
 936              		.loc 5 426 5 view .LVU205
 937              		.loc 5 426 5 is_stmt 0 view .LVU206
 938              	.LBE290:
 939              	.LBE293:
 279:../../libdaisy/src/hid/disp/display.h **** 
 280:../../libdaisy/src/hid/disp/display.h ****         // Check if start and endpoint are very near
 281:../../libdaisy/src/hid/disp/display.h ****         if((end_x - start_x) * (end_x - start_x)
 282:../../libdaisy/src/hid/disp/display.h ****                + (end_y - start_y) * (end_y - start_y)
 940              		.loc 3 282 25 view .LVU207
 941 0094 70EE687A 		vsub.f32	s15, s0, s17
 281:../../libdaisy/src/hid/disp/display.h ****                + (end_y - start_y) * (end_y - start_y)
 942              		.loc 3 281 9 view .LVU208
 943 0098 F0EE006A 		vmov.f32	s13, #2.0e+0
 281:../../libdaisy/src/hid/disp/display.h ****                + (end_y - start_y) * (end_y - start_y)
 944              		.loc 3 281 19 view .LVU209
 945 009c 39EE487A 		vsub.f32	s14, s18, s16
 946              		.loc 3 282 36 view .LVU210
 947 00a0 67EEA77A 		vmul.f32	s15, s15, s15
 948              		.loc 3 282 16 view .LVU211
 949 00a4 E7EE077A 		vfma.f32	s15, s14, s14
 281:../../libdaisy/src/hid/disp/display.h ****                + (end_y - start_y) * (end_y - start_y)
 950              		.loc 3 281 9 view .LVU212
 951 00a8 F4EEE67A 		vcmpe.f32	s15, s13
 952 00ac F1EE10FA 		vmrs	APSR_nzcv, FPSCR
 953 00b0 06D5     		bpl	.L101
 283:../../libdaisy/src/hid/disp/display.h ****            < 2.0f)
 284:../../libdaisy/src/hid/disp/display.h ****         {
 285:../../libdaisy/src/hid/disp/display.h ****             if(sweep > 180)
 954              		.loc 3 285 13 view .LVU213
 955 00b2 139B     		ldr	r3, [sp, #76]
 956 00b4 B42B     		cmp	r3, #180
 957 00b6 40F39680 		ble	.L42
 286:../../libdaisy/src/hid/disp/display.h ****                 circle = true;
ARM GAS  C:\Users\VINCIU~1\AppData\Local\Temp\cc6DIkXk.s 			page 38


 958              		.loc 3 286 24 view .LVU214
 959 00ba 4FF00109 		mov	r9, #1
 960 00be 01E0     		b	.L45
 961              	.L101:
 264:../../libdaisy/src/hid/disp/display.h **** 
 962              		.loc 3 264 14 view .LVU215
 963 00c0 4FF00009 		mov	r9, #0
 964              	.L45:
 965              	.LVL69:
 262:../../libdaisy/src/hid/disp/display.h **** 
 966              		.loc 3 262 27 view .LVU216
 967 00c4 0124     		movs	r4, #1
 287:../../libdaisy/src/hid/disp/display.h ****             else
 288:../../libdaisy/src/hid/disp/display.h ****                 // Nothing to draw
 289:../../libdaisy/src/hid/disp/display.h ****                 return;
 290:../../libdaisy/src/hid/disp/display.h ****         }
 291:../../libdaisy/src/hid/disp/display.h **** 
 292:../../libdaisy/src/hid/disp/display.h ****         t_x = -radius;
 968              		.loc 3 292 13 view .LVU217
 969 00c6 7842     		rsbs	r0, r7, #0
 970              	.LVL70:
 293:../../libdaisy/src/hid/disp/display.h ****         t_y = 0;
 971              		.loc 3 293 13 view .LVU218
 972 00c8 4FF0000C 		mov	ip, #0
 973 00cc 0095     		str	r5, [sp]
 294:../../libdaisy/src/hid/disp/display.h ****         err = 2 - 2 * radius;
 974              		.loc 3 294 17 view .LVU219
 975 00ce E31B     		subs	r3, r4, r7
 262:../../libdaisy/src/hid/disp/display.h **** 
 976              		.loc 3 262 17 view .LVU220
 977 00d0 2146     		mov	r1, r4
 262:../../libdaisy/src/hid/disp/display.h **** 
 978              		.loc 3 262 22 view .LVU221
 979 00d2 2746     		mov	r7, r4
 980              	.LVL71:
 262:../../libdaisy/src/hid/disp/display.h **** 
 981              		.loc 3 262 12 view .LVU222
 982 00d4 2246     		mov	r2, r4
 983              		.loc 3 294 17 view .LVU223
 984 00d6 A340     		lsls	r3, r3, r4
 985              	.LVL72:
 986              	.L71:
 295:../../libdaisy/src/hid/disp/display.h **** 
 296:../../libdaisy/src/hid/disp/display.h ****         do
 297:../../libdaisy/src/hid/disp/display.h ****         {
 298:../../libdaisy/src/hid/disp/display.h ****             if(!circle)
 987              		.loc 3 298 13 view .LVU224
 988 00d8 B9F1000F 		cmp	r9, #0
 989 00dc 6AD1     		bne	.L47
 299:../../libdaisy/src/hid/disp/display.h ****             {
 300:../../libdaisy/src/hid/disp/display.h ****                 t_sxy  = start_x * t_y;
 301:../../libdaisy/src/hid/disp/display.h ****                 t_syx  = start_y * t_x;
 302:../../libdaisy/src/hid/disp/display.h ****                 t_sxny = start_x * -t_y;
 303:../../libdaisy/src/hid/disp/display.h ****                 t_synx = start_y * -t_x;
 990              		.loc 3 303 34 view .LVU225
 991 00de 4242     		rsbs	r2, r0, #0
 992              	.LVL73:
ARM GAS  C:\Users\VINCIU~1\AppData\Local\Temp\cc6DIkXk.s 			page 39


 300:../../libdaisy/src/hid/disp/display.h ****                 t_syx  = start_y * t_x;
 993              		.loc 3 300 24 view .LVU226
 994 00e0 06EE90CA 		vmov	s13, ip	@ int
 302:../../libdaisy/src/hid/disp/display.h ****                 t_synx = start_y * -t_x;
 995              		.loc 3 302 34 view .LVU227
 996 00e4 CCF10001 		rsb	r1, ip, #0
 997              	.LVL74:
 998              		.loc 3 303 34 view .LVU228
 999 00e8 07EE102A 		vmov	s14, r2	@ int
 300:../../libdaisy/src/hid/disp/display.h ****                 t_syx  = start_y * t_x;
 1000              		.loc 3 300 24 view .LVU229
 1001 00ec B8EEE66A 		vcvt.f32.s32	s12, s13
 302:../../libdaisy/src/hid/disp/display.h ****                 t_synx = start_y * -t_x;
 1002              		.loc 3 302 34 view .LVU230
 1003 00f0 07EE901A 		vmov	s15, r1	@ int
 301:../../libdaisy/src/hid/disp/display.h ****                 t_sxny = start_x * -t_y;
 1004              		.loc 3 301 24 view .LVU231
 1005 00f4 06EE900A 		vmov	s13, r0	@ int
 1006              		.loc 3 303 34 view .LVU232
 1007 00f8 B8EEC77A 		vcvt.f32.s32	s14, s14
 304:../../libdaisy/src/hid/disp/display.h ****                 t_exy  = end_x * t_y;
 305:../../libdaisy/src/hid/disp/display.h ****                 t_eyx  = end_y * t_x;
 306:../../libdaisy/src/hid/disp/display.h ****                 t_exny = end_x * -t_y;
 307:../../libdaisy/src/hid/disp/display.h ****                 t_eynx = end_y * -t_x;
 308:../../libdaisy/src/hid/disp/display.h **** 
 309:../../libdaisy/src/hid/disp/display.h ****                 if(sweep > 180)
 1008              		.loc 3 309 17 view .LVU233
 1009 00fc 139A     		ldr	r2, [sp, #76]
 300:../../libdaisy/src/hid/disp/display.h ****                 t_syx  = start_y * t_x;
 1010              		.loc 3 300 24 view .LVU234
 1011 00fe 66EE084A 		vmul.f32	s9, s12, s16
 1012              	.LVL75:
 302:../../libdaisy/src/hid/disp/display.h ****                 t_synx = start_y * -t_x;
 1013              		.loc 3 302 34 view .LVU235
 1014 0102 F8EEE77A 		vcvt.f32.s32	s15, s15
 1015              		.loc 3 309 17 view .LVU236
 1016 0106 B42A     		cmp	r2, #180
 303:../../libdaisy/src/hid/disp/display.h ****                 t_exy  = end_x * t_y;
 1017              		.loc 3 303 24 view .LVU237
 1018 0108 27EE284A 		vmul.f32	s8, s14, s17
 301:../../libdaisy/src/hid/disp/display.h ****                 t_sxny = start_x * -t_y;
 1019              		.loc 3 301 24 view .LVU238
 1020 010c F8EEE66A 		vcvt.f32.s32	s13, s13
 302:../../libdaisy/src/hid/disp/display.h ****                 t_synx = start_y * -t_x;
 1021              		.loc 3 302 24 view .LVU239
 1022 0110 67EE885A 		vmul.f32	s11, s15, s16
 310:../../libdaisy/src/hid/disp/display.h ****                 {
 311:../../libdaisy/src/hid/disp/display.h ****                     d1 = (t_sxy - t_synx < 0 || t_exy - t_eynx > 0);
 1023              		.loc 3 311 33 view .LVU240
 1024 0114 74EEC43A 		vsub.f32	s7, s9, s8
 301:../../libdaisy/src/hid/disp/display.h ****                 t_sxny = start_x * -t_y;
 1025              		.loc 3 301 24 view .LVU241
 1026 0118 26EEA85A 		vmul.f32	s10, s13, s17
 1027              	.LVL76:
 304:../../libdaisy/src/hid/disp/display.h ****                 t_eyx  = end_y * t_x;
 1028              		.loc 3 304 24 view .LVU242
 1029 011c 26EE096A 		vmul.f32	s12, s12, s18
ARM GAS  C:\Users\VINCIU~1\AppData\Local\Temp\cc6DIkXk.s 			page 40


 1030              	.LVL77:
 305:../../libdaisy/src/hid/disp/display.h ****                 t_exny = end_x * -t_y;
 1031              		.loc 3 305 24 view .LVU243
 1032 0120 66EE806A 		vmul.f32	s13, s13, s0
 1033              	.LVL78:
 306:../../libdaisy/src/hid/disp/display.h ****                 t_eynx = end_y * -t_x;
 1034              		.loc 3 306 24 view .LVU244
 1035 0124 67EE897A 		vmul.f32	s15, s15, s18
 1036              	.LVL79:
 307:../../libdaisy/src/hid/disp/display.h **** 
 1037              		.loc 3 307 24 view .LVU245
 1038 0128 27EE007A 		vmul.f32	s14, s14, s0
 1039              	.LVL80:
 1040              		.loc 3 311 46 view .LVU246
 1041 012c F5EEC03A 		vcmpe.f32	s7, #0
 309:../../libdaisy/src/hid/disp/display.h ****                 {
 1042              		.loc 3 309 17 view .LVU247
 1043 0130 40F3F280 		ble	.L48
 1044              		.loc 3 311 46 view .LVU248
 1045 0134 F1EE10FA 		vmrs	APSR_nzcv, FPSCR
 1046 0138 00F17F81 		bmi	.L74
 1047              		.loc 3 311 55 discriminator 2 view .LVU249
 1048 013c 76EE473A 		vsub.f32	s7, s12, s14
 312:../../libdaisy/src/hid/disp/display.h ****                     d2 = (t_sxy - t_syx < 0 || t_exy - t_eyx > 0);
 1049              		.loc 3 312 33 discriminator 2 view .LVU250
 1050 0140 74EEC54A 		vsub.f32	s9, s9, s10
 1051              	.LVL81:
 311:../../libdaisy/src/hid/disp/display.h ****                     d2 = (t_sxy - t_syx < 0 || t_exy - t_eyx > 0);
 1052              		.loc 3 311 46 discriminator 2 view .LVU251
 1053 0144 F5EEC03A 		vcmpe.f32	s7, #0
 1054 0148 F1EE10FA 		vmrs	APSR_nzcv, FPSCR
 1055              		.loc 3 312 45 discriminator 2 view .LVU252
 1056 014c F5EEC04A 		vcmpe.f32	s9, #0
 311:../../libdaisy/src/hid/disp/display.h ****                     d2 = (t_sxy - t_syx < 0 || t_exy - t_eyx > 0);
 1057              		.loc 3 311 46 discriminator 2 view .LVU253
 1058 0150 CCBF     		ite	gt
 1059 0152 0122     		movgt	r2, #1
 1060 0154 0022     		movle	r2, #0
 1061              	.LVL82:
 1062              		.loc 3 312 45 discriminator 2 view .LVU254
 1063 0156 F1EE10FA 		vmrs	APSR_nzcv, FPSCR
 1064 015a 00F17781 		bmi	.L75
 1065              	.L117:
 1066              		.loc 3 312 54 discriminator 2 view .LVU255
 1067 015e 36EE666A 		vsub.f32	s12, s12, s13
 1068              	.LVL83:
 313:../../libdaisy/src/hid/disp/display.h ****                     d3 = (t_sxny - t_syx < 0 || t_exny - t_eyx > 0);
 1069              		.loc 3 313 34 discriminator 2 view .LVU256
 1070 0162 35EEC55A 		vsub.f32	s10, s11, s10
 1071              	.LVL84:
 312:../../libdaisy/src/hid/disp/display.h ****                     d2 = (t_sxy - t_syx < 0 || t_exy - t_eyx > 0);
 1072              		.loc 3 312 45 discriminator 2 view .LVU257
 1073 0166 B5EEC06A 		vcmpe.f32	s12, #0
 1074 016a F1EE10FA 		vmrs	APSR_nzcv, FPSCR
 1075              		.loc 3 313 46 discriminator 2 view .LVU258
 1076 016e B5EEC05A 		vcmpe.f32	s10, #0
 312:../../libdaisy/src/hid/disp/display.h ****                     d2 = (t_sxy - t_syx < 0 || t_exy - t_eyx > 0);
ARM GAS  C:\Users\VINCIU~1\AppData\Local\Temp\cc6DIkXk.s 			page 41


 1077              		.loc 3 312 45 discriminator 2 view .LVU259
 1078 0172 CCBF     		ite	gt
 1079 0174 0121     		movgt	r1, #1
 1080 0176 0021     		movle	r1, #0
 1081              	.LVL85:
 1082              		.loc 3 313 46 discriminator 2 view .LVU260
 1083 0178 F1EE10FA 		vmrs	APSR_nzcv, FPSCR
 1084 017c 00F16F81 		bmi	.L76
 1085              	.L118:
 1086              		.loc 3 313 56 discriminator 2 view .LVU261
 1087 0180 77EEE66A 		vsub.f32	s13, s15, s13
 1088              	.LVL86:
 1089              		.loc 3 313 46 discriminator 2 view .LVU262
 1090 0184 F5EEC06A 		vcmpe.f32	s13, #0
 1091 0188 F1EE10FA 		vmrs	APSR_nzcv, FPSCR
 1092 018c CCBF     		ite	gt
 1093 018e 0127     		movgt	r7, #1
 1094              	.LVL87:
 1095              		.loc 3 313 46 discriminator 2 view .LVU263
 1096 0190 0027     		movle	r7, #0
 1097              	.L51:
 1098              	.LVL88:
 314:../../libdaisy/src/hid/disp/display.h ****                     d4 = (t_sxny - t_synx < 0 || t_exny - t_eynx > 0);
 1099              		.loc 3 314 34 discriminator 6 view .LVU264
 1100 0192 75EEC45A 		vsub.f32	s11, s11, s8
 1101              	.LVL89:
 1102              		.loc 3 314 47 discriminator 6 view .LVU265
 1103 0196 F5EEC05A 		vcmpe.f32	s11, #0
 1104 019a F1EE10FA 		vmrs	APSR_nzcv, FPSCR
 1105 019e 00F14781 		bmi	.L77
 1106              	.L107:
 315:../../libdaisy/src/hid/disp/display.h ****                 }
 316:../../libdaisy/src/hid/disp/display.h ****                 else
 317:../../libdaisy/src/hid/disp/display.h ****                 {
 318:../../libdaisy/src/hid/disp/display.h ****                     d1 = (t_sxy - t_synx < 0 && t_exy - t_eynx > 0);
 319:../../libdaisy/src/hid/disp/display.h ****                     d2 = (t_sxy - t_syx < 0 && t_exy - t_eyx > 0);
 320:../../libdaisy/src/hid/disp/display.h ****                     d3 = (t_sxny - t_syx < 0 && t_exny - t_eyx > 0);
 321:../../libdaisy/src/hid/disp/display.h ****                     d4 = (t_sxny - t_synx < 0 && t_exny - t_eynx > 0);
 1107              		.loc 3 321 57 discriminator 1 view .LVU266
 1108 01a2 77EEC77A 		vsub.f32	s15, s15, s14
 1109              	.LVL90:
 1110              		.loc 3 321 47 discriminator 1 view .LVU267
 1111 01a6 F5EEC07A 		vcmpe.f32	s15, #0
 1112 01aa F1EE10FA 		vmrs	APSR_nzcv, FPSCR
 1113 01ae CCBF     		ite	gt
 1114 01b0 0124     		movgt	r4, #1
 1115              	.LVL91:
 1116              		.loc 3 321 47 discriminator 1 view .LVU268
 1117 01b2 0024     		movle	r4, #0
 1118              	.LVL92:
 1119              	.L47:
 322:../../libdaisy/src/hid/disp/display.h ****                 }
 323:../../libdaisy/src/hid/disp/display.h ****             }
 324:../../libdaisy/src/hid/disp/display.h **** 
 325:../../libdaisy/src/hid/disp/display.h ****             if(d1)
 1120              		.loc 3 325 13 view .LVU269
 1121 01b4 002A     		cmp	r2, #0
ARM GAS  C:\Users\VINCIU~1\AppData\Local\Temp\cc6DIkXk.s 			page 42


 1122 01b6 40F08A80 		bne	.L108
 1123              	.L59:
 326:../../libdaisy/src/hid/disp/display.h ****                 ((ChildType*)(this))
 327:../../libdaisy/src/hid/disp/display.h ****                     ->ChildType::DrawPixel(x - t_x, y + t_y, on);
 328:../../libdaisy/src/hid/disp/display.h ****             if(d2)
 1124              		.loc 3 328 13 view .LVU270
 1125 01ba 0029     		cmp	r1, #0
 1126 01bc 64D1     		bne	.L109
 1127              	.L61:
 329:../../libdaisy/src/hid/disp/display.h ****                 ((ChildType*)(this))
 330:../../libdaisy/src/hid/disp/display.h ****                     ->ChildType::DrawPixel(x + t_x, y + t_y, on);
 331:../../libdaisy/src/hid/disp/display.h ****             if(d3)
 1128              		.loc 3 331 13 view .LVU271
 1129 01be BFB9     		cbnz	r7, .L110
 1130              	.L63:
 332:../../libdaisy/src/hid/disp/display.h ****                 ((ChildType*)(this))
 333:../../libdaisy/src/hid/disp/display.h ****                     ->ChildType::DrawPixel(x + t_x, y - t_y, on);
 334:../../libdaisy/src/hid/disp/display.h ****             if(d4)
 1131              		.loc 3 334 13 view .LVU272
 1132 01c0 C4BB     		cbnz	r4, .L111
 1133              	.L65:
 1134              	.LVL93:
 335:../../libdaisy/src/hid/disp/display.h ****                 ((ChildType*)(this))
 336:../../libdaisy/src/hid/disp/display.h ****                     ->ChildType::DrawPixel(x - t_x, y - t_y, on);
 337:../../libdaisy/src/hid/disp/display.h **** 
 338:../../libdaisy/src/hid/disp/display.h ****             e2 = err;
 339:../../libdaisy/src/hid/disp/display.h ****             if(e2 <= t_y)
 1135              		.loc 3 339 13 view .LVU273
 1136 01c2 9C45     		cmp	ip, r3
 1137 01c4 58DB     		blt	.L82
 1138              	.L113:
 340:../../libdaisy/src/hid/disp/display.h ****             {
 341:../../libdaisy/src/hid/disp/display.h ****                 t_y++;
 1139              		.loc 3 341 17 view .LVU274
 1140 01c6 0CF1010C 		add	ip, ip, #1
 1141              	.LVL94:
 342:../../libdaisy/src/hid/disp/display.h ****                 err = err + (t_y * 2 + 1);
 1142              		.loc 3 342 38 view .LVU275
 1143 01ca 03EB4C0E 		add	lr, r3, ip, lsl #1
 343:../../libdaisy/src/hid/disp/display.h ****                 if(-t_x == t_y && e2 <= t_x)
 1144              		.loc 3 343 17 view .LVU276
 1145 01ce 1CEB000F 		cmn	ip, r0
 342:../../libdaisy/src/hid/disp/display.h ****                 err = err + (t_y * 2 + 1);
 1146              		.loc 3 342 21 view .LVU277
 1147 01d2 0EF1010E 		add	lr, lr, #1
 1148              	.LVL95:
 1149              		.loc 3 343 17 view .LVU278
 1150 01d6 00F0C080 		beq	.L112
 1151              	.LVL96:
 1152              	.L67:
 344:../../libdaisy/src/hid/disp/display.h ****                 {
 345:../../libdaisy/src/hid/disp/display.h ****                     e2 = 0;
 346:../../libdaisy/src/hid/disp/display.h ****                 }
 347:../../libdaisy/src/hid/disp/display.h ****             }
 348:../../libdaisy/src/hid/disp/display.h ****             if(e2 > t_x)
 1153              		.loc 3 348 13 view .LVU279
 1154 01da 9842     		cmp	r0, r3
ARM GAS  C:\Users\VINCIU~1\AppData\Local\Temp\cc6DIkXk.s 			page 43


 1155 01dc 4FDB     		blt	.L68
 1156              	.L83:
 1157              		.loc 3 348 13 view .LVU280
 1158 01de 7346     		mov	r3, lr
 1159              	.LVL97:
 1160              	.L69:
 349:../../libdaisy/src/hid/disp/display.h ****             {
 350:../../libdaisy/src/hid/disp/display.h ****                 t_x++;
 351:../../libdaisy/src/hid/disp/display.h ****                 err = err + (t_x * 2 + 1);
 352:../../libdaisy/src/hid/disp/display.h ****             }
 353:../../libdaisy/src/hid/disp/display.h ****         } while(t_x <= 0);
 1161              		.loc 3 353 21 is_stmt 1 view .LVU281
 1162 01e0 0028     		cmp	r0, #0
 1163 01e2 7FF779AF 		ble	.L71
 1164              	.LVL98:
 1165              	.L42:
 354:../../libdaisy/src/hid/disp/display.h ****     }
 1166              		.loc 3 354 5 is_stmt 0 view .LVU282
 1167 01e6 03B0     		add	sp, sp, #12
 1168              		.cfi_remember_state
 1169              		.cfi_def_cfa_offset 60
 1170              		@ sp needed
 1171 01e8 BDEC068B 		vldm	sp!, {d8-d10}
 1172              		.cfi_restore 84
 1173              		.cfi_restore 85
 1174              		.cfi_restore 82
 1175              		.cfi_restore 83
 1176              		.cfi_restore 80
 1177              		.cfi_restore 81
 1178              		.cfi_def_cfa_offset 36
 1179              	.LVL99:
 1180              		.loc 3 354 5 view .LVU283
 1181 01ec BDE8F08F 		pop	{r4, r5, r6, r7, r8, r9, r10, fp, pc}
 1182              	.LVL100:
 1183              	.L110:
 1184              		.cfi_restore_state
 333:../../libdaisy/src/hid/disp/display.h ****             if(d4)
 1185              		.loc 3 333 43 view .LVU284
 1186 01f0 009D     		ldr	r5, [sp]
 1187 01f2 A6EB0C0E 		sub	lr, r6, ip
 1188 01f6 00EB050A 		add	r10, r0, r5
 1189              	.LVL101:
 1190              	.LBB294:
 1191              	.LBI294:
  41:../../libdaisy/src/hid/disp/oled_display.h ****     {
 1192              		.loc 2 41 10 is_stmt 1 view .LVU285
 1193              	.LBB295:
 1194              	.LBI295:
 239:../../libdaisy/src/dev/oled_ssd130x.h ****     {
 1195              		.loc 4 239 10 view .LVU286
 1196              	.LBB296:
 241:../../libdaisy/src/dev/oled_ssd130x.h ****             return;
 1197              		.loc 4 241 9 is_stmt 0 view .LVU287
 1198 01fa BAF17F0F 		cmp	r10, #127
 1199 01fe DFD8     		bhi	.L63
 1200 0200 BEF13F0F 		cmp	lr, #63
 1201 0204 DCD8     		bhi	.L63
ARM GAS  C:\Users\VINCIU~1\AppData\Local\Temp\cc6DIkXk.s 			page 44


 244:../../libdaisy/src/dev/oled_ssd130x.h ****         else
 1202              		.loc 4 244 28 view .LVU288
 1203 0206 4FEADE0B 		lsr	fp, lr, #3
 243:../../libdaisy/src/dev/oled_ssd130x.h ****             buffer_[x + (y / 8) * width] |= (1 << (y % 8));
 1204              		.loc 4 243 9 view .LVU289
 1205 020a 019D     		ldr	r5, [sp, #4]
 244:../../libdaisy/src/dev/oled_ssd130x.h ****         else
 1206              		.loc 4 244 42 view .LVU290
 1207 020c 0AEBCB1A 		add	r10, r10, fp, lsl #7
 1208              	.LVL102:
 243:../../libdaisy/src/dev/oled_ssd130x.h ****             buffer_[x + (y / 8) * width] |= (1 << (y % 8));
 1209              		.loc 4 243 9 view .LVU291
 1210 0210 002D     		cmp	r5, #0
 1211 0212 00F0B180 		beq	.L64
 244:../../libdaisy/src/dev/oled_ssd130x.h ****         else
 1212              		.loc 4 244 54 view .LVU292
 1213 0216 0EF0070B 		and	fp, lr, #7
 244:../../libdaisy/src/dev/oled_ssd130x.h ****         else
 1214              		.loc 4 244 42 view .LVU293
 1215 021a C244     		add	r10, r10, r8
 244:../../libdaisy/src/dev/oled_ssd130x.h ****         else
 1216              		.loc 4 244 48 view .LVU294
 1217 021c 4FF0010E 		mov	lr, #1
 1218              	.LVL103:
 244:../../libdaisy/src/dev/oled_ssd130x.h ****         else
 1219              		.loc 4 244 48 view .LVU295
 1220 0220 0EFA0BFE 		lsl	lr, lr, fp
 244:../../libdaisy/src/dev/oled_ssd130x.h ****         else
 1221              		.loc 4 244 42 view .LVU296
 1222 0224 9AF814B0 		ldrb	fp, [r10, #20]	@ zero_extendqisi2
 1223 0228 4EEA0B0E 		orr	lr, lr, fp
 1224 022c 8AF814E0 		strb	lr, [r10, #20]
 1225              	.LVL104:
 244:../../libdaisy/src/dev/oled_ssd130x.h ****         else
 1226              		.loc 4 244 42 view .LVU297
 1227              	.LBE296:
 1228              	.LBE295:
 1229              	.LBE294:
 334:../../libdaisy/src/hid/disp/display.h ****                 ((ChildType*)(this))
 1230              		.loc 3 334 13 view .LVU298
 1231 0230 002C     		cmp	r4, #0
 1232 0232 C6D0     		beq	.L65
 1233              	.L111:
 336:../../libdaisy/src/hid/disp/display.h **** 
 1234              		.loc 3 336 43 view .LVU299
 1235 0234 009D     		ldr	r5, [sp]
 1236 0236 A6EB0C0E 		sub	lr, r6, ip
 1237 023a A5EB000A 		sub	r10, r5, r0
 1238              	.LVL105:
 1239              	.LBB301:
 1240              	.LBI301:
  41:../../libdaisy/src/hid/disp/oled_display.h ****     {
 1241              		.loc 2 41 10 is_stmt 1 view .LVU300
 1242              	.LBB302:
 1243              	.LBI302:
 239:../../libdaisy/src/dev/oled_ssd130x.h ****     {
 1244              		.loc 4 239 10 view .LVU301
ARM GAS  C:\Users\VINCIU~1\AppData\Local\Temp\cc6DIkXk.s 			page 45


 1245              	.LBB303:
 241:../../libdaisy/src/dev/oled_ssd130x.h ****             return;
 1246              		.loc 4 241 9 is_stmt 0 view .LVU302
 1247 023e BAF17F0F 		cmp	r10, #127
 1248 0242 BED8     		bhi	.L65
 1249 0244 BEF13F0F 		cmp	lr, #63
 1250 0248 BBD8     		bhi	.L65
 244:../../libdaisy/src/dev/oled_ssd130x.h ****         else
 1251              		.loc 4 244 28 view .LVU303
 1252 024a 4FEADE0B 		lsr	fp, lr, #3
 243:../../libdaisy/src/dev/oled_ssd130x.h ****             buffer_[x + (y / 8) * width] |= (1 << (y % 8));
 1253              		.loc 4 243 9 view .LVU304
 1254 024e 019D     		ldr	r5, [sp, #4]
 244:../../libdaisy/src/dev/oled_ssd130x.h ****         else
 1255              		.loc 4 244 42 view .LVU305
 1256 0250 0AEBCB1A 		add	r10, r10, fp, lsl #7
 1257              	.LVL106:
 243:../../libdaisy/src/dev/oled_ssd130x.h ****             buffer_[x + (y / 8) * width] |= (1 << (y % 8));
 1258              		.loc 4 243 9 view .LVU306
 1259 0254 002D     		cmp	r5, #0
 1260 0256 00F0AE80 		beq	.L66
 244:../../libdaisy/src/dev/oled_ssd130x.h ****         else
 1261              		.loc 4 244 54 view .LVU307
 1262 025a 0EF0070B 		and	fp, lr, #7
 244:../../libdaisy/src/dev/oled_ssd130x.h ****         else
 1263              		.loc 4 244 42 view .LVU308
 1264 025e C244     		add	r10, r10, r8
 244:../../libdaisy/src/dev/oled_ssd130x.h ****         else
 1265              		.loc 4 244 48 view .LVU309
 1266 0260 4FF0010E 		mov	lr, #1
 1267              	.LVL107:
 244:../../libdaisy/src/dev/oled_ssd130x.h ****         else
 1268              		.loc 4 244 48 view .LVU310
 1269              	.LBE303:
 1270              	.LBE302:
 1271              	.LBE301:
 339:../../libdaisy/src/hid/disp/display.h ****             {
 1272              		.loc 3 339 13 view .LVU311
 1273 0264 9C45     		cmp	ip, r3
 1274              	.LBB310:
 1275              	.LBB308:
 1276              	.LBB306:
 244:../../libdaisy/src/dev/oled_ssd130x.h ****         else
 1277              		.loc 4 244 48 view .LVU312
 1278 0266 0EFA0BFE 		lsl	lr, lr, fp
 244:../../libdaisy/src/dev/oled_ssd130x.h ****         else
 1279              		.loc 4 244 42 view .LVU313
 1280 026a 9AF814B0 		ldrb	fp, [r10, #20]	@ zero_extendqisi2
 1281 026e 4EEA0B0E 		orr	lr, lr, fp
 1282 0272 8AF814E0 		strb	lr, [r10, #20]
 1283              	.LVL108:
 244:../../libdaisy/src/dev/oled_ssd130x.h ****         else
 1284              		.loc 4 244 42 view .LVU314
 1285              	.LBE306:
 1286              	.LBE308:
 1287              	.LBE310:
 339:../../libdaisy/src/hid/disp/display.h ****             {
ARM GAS  C:\Users\VINCIU~1\AppData\Local\Temp\cc6DIkXk.s 			page 46


 1288              		.loc 3 339 13 view .LVU315
 1289 0276 A6DA     		bge	.L113
 1290              	.L82:
 348:../../libdaisy/src/hid/disp/display.h ****             {
 1291              		.loc 3 348 13 view .LVU316
 1292 0278 9842     		cmp	r0, r3
 1293 027a 9E46     		mov	lr, r3
 1294              	.LVL109:
 348:../../libdaisy/src/hid/disp/display.h ****             {
 1295              		.loc 3 348 13 view .LVU317
 1296 027c AFDA     		bge	.L83
 1297              	.LVL110:
 1298              	.L68:
 350:../../libdaisy/src/hid/disp/display.h ****                 err = err + (t_x * 2 + 1);
 1299              		.loc 3 350 17 view .LVU318
 1300 027e 0130     		adds	r0, r0, #1
 1301              	.LVL111:
 351:../../libdaisy/src/hid/disp/display.h ****             }
 1302              		.loc 3 351 38 view .LVU319
 1303 0280 0EEB4003 		add	r3, lr, r0, lsl #1
 351:../../libdaisy/src/hid/disp/display.h ****             }
 1304              		.loc 3 351 21 view .LVU320
 1305 0284 0133     		adds	r3, r3, #1
 1306              	.LVL112:
 351:../../libdaisy/src/hid/disp/display.h ****             }
 1307              		.loc 3 351 21 view .LVU321
 1308 0286 ABE7     		b	.L69
 1309              	.L109:
 330:../../libdaisy/src/hid/disp/display.h ****             if(d3)
 1310              		.loc 3 330 43 view .LVU322
 1311 0288 009D     		ldr	r5, [sp]
 1312 028a 0CEB060E 		add	lr, ip, r6
 1313 028e 00EB050A 		add	r10, r0, r5
 1314              	.LVL113:
 1315              	.LBB311:
 1316              	.LBI311:
  41:../../libdaisy/src/hid/disp/oled_display.h ****     {
 1317              		.loc 2 41 10 is_stmt 1 view .LVU323
 1318              	.LBB312:
 1319              	.LBI312:
 239:../../libdaisy/src/dev/oled_ssd130x.h ****     {
 1320              		.loc 4 239 10 view .LVU324
 1321              	.LBB313:
 241:../../libdaisy/src/dev/oled_ssd130x.h ****             return;
 1322              		.loc 4 241 9 is_stmt 0 view .LVU325
 1323 0292 BAF17F0F 		cmp	r10, #127
 1324 0296 92D8     		bhi	.L61
 1325 0298 BEF13F0F 		cmp	lr, #63
 1326 029c 8FD8     		bhi	.L61
 244:../../libdaisy/src/dev/oled_ssd130x.h ****         else
 1327              		.loc 4 244 28 view .LVU326
 1328 029e 4FEADE0B 		lsr	fp, lr, #3
 243:../../libdaisy/src/dev/oled_ssd130x.h ****             buffer_[x + (y / 8) * width] |= (1 << (y % 8));
 1329              		.loc 4 243 9 view .LVU327
 1330 02a2 019D     		ldr	r5, [sp, #4]
 244:../../libdaisy/src/dev/oled_ssd130x.h ****         else
 1331              		.loc 4 244 42 view .LVU328
ARM GAS  C:\Users\VINCIU~1\AppData\Local\Temp\cc6DIkXk.s 			page 47


 1332 02a4 0AEBCB1A 		add	r10, r10, fp, lsl #7
 1333              	.LVL114:
 243:../../libdaisy/src/dev/oled_ssd130x.h ****             buffer_[x + (y / 8) * width] |= (1 << (y % 8));
 1334              		.loc 4 243 9 view .LVU329
 1335 02a8 002D     		cmp	r5, #0
 1336 02aa 73D0     		beq	.L62
 244:../../libdaisy/src/dev/oled_ssd130x.h ****         else
 1337              		.loc 4 244 54 view .LVU330
 1338 02ac 0EF0070B 		and	fp, lr, #7
 244:../../libdaisy/src/dev/oled_ssd130x.h ****         else
 1339              		.loc 4 244 42 view .LVU331
 1340 02b0 C244     		add	r10, r10, r8
 244:../../libdaisy/src/dev/oled_ssd130x.h ****         else
 1341              		.loc 4 244 48 view .LVU332
 1342 02b2 4FF0010E 		mov	lr, #1
 1343              	.LVL115:
 244:../../libdaisy/src/dev/oled_ssd130x.h ****         else
 1344              		.loc 4 244 48 view .LVU333
 1345 02b6 0EFA0BFE 		lsl	lr, lr, fp
 244:../../libdaisy/src/dev/oled_ssd130x.h ****         else
 1346              		.loc 4 244 42 view .LVU334
 1347 02ba 9AF814B0 		ldrb	fp, [r10, #20]	@ zero_extendqisi2
 1348 02be 4EEA0B0E 		orr	lr, lr, fp
 1349 02c2 8AF814E0 		strb	lr, [r10, #20]
 1350              	.LVL116:
 244:../../libdaisy/src/dev/oled_ssd130x.h ****         else
 1351              		.loc 4 244 42 view .LVU335
 1352              	.LBE313:
 1353              	.LBE312:
 1354              	.LBE311:
 331:../../libdaisy/src/hid/disp/display.h ****                 ((ChildType*)(this))
 1355              		.loc 3 331 13 view .LVU336
 1356 02c6 002F     		cmp	r7, #0
 1357 02c8 3FF47AAF 		beq	.L63
 1358 02cc 90E7     		b	.L110
 1359              	.L108:
 327:../../libdaisy/src/hid/disp/display.h ****             if(d2)
 1360              		.loc 3 327 43 view .LVU337
 1361 02ce 009D     		ldr	r5, [sp]
 1362 02d0 0CEB060E 		add	lr, ip, r6
 1363 02d4 A5EB000A 		sub	r10, r5, r0
 1364              	.LVL117:
 1365              	.LBB318:
 1366              	.LBI318:
  41:../../libdaisy/src/hid/disp/oled_display.h ****     {
 1367              		.loc 2 41 10 is_stmt 1 view .LVU338
 1368              	.LBB319:
 1369              	.LBI319:
 239:../../libdaisy/src/dev/oled_ssd130x.h ****     {
 1370              		.loc 4 239 10 view .LVU339
 1371              	.LBB320:
 241:../../libdaisy/src/dev/oled_ssd130x.h ****             return;
 1372              		.loc 4 241 9 is_stmt 0 view .LVU340
 1373 02d8 BAF17F0F 		cmp	r10, #127
 1374 02dc 3FF66DAF 		bhi	.L59
 1375 02e0 BEF13F0F 		cmp	lr, #63
 1376 02e4 3FF669AF 		bhi	.L59
ARM GAS  C:\Users\VINCIU~1\AppData\Local\Temp\cc6DIkXk.s 			page 48


 244:../../libdaisy/src/dev/oled_ssd130x.h ****         else
 1377              		.loc 4 244 28 view .LVU341
 1378 02e8 4FEADE0B 		lsr	fp, lr, #3
 243:../../libdaisy/src/dev/oled_ssd130x.h ****             buffer_[x + (y / 8) * width] |= (1 << (y % 8));
 1379              		.loc 4 243 9 view .LVU342
 1380 02ec 019D     		ldr	r5, [sp, #4]
 244:../../libdaisy/src/dev/oled_ssd130x.h ****         else
 1381              		.loc 4 244 42 view .LVU343
 1382 02ee 0AEBCB1A 		add	r10, r10, fp, lsl #7
 1383              	.LVL118:
 243:../../libdaisy/src/dev/oled_ssd130x.h ****             buffer_[x + (y / 8) * width] |= (1 << (y % 8));
 1384              		.loc 4 243 9 view .LVU344
 1385 02f2 002D     		cmp	r5, #0
 1386 02f4 6DD0     		beq	.L60
 244:../../libdaisy/src/dev/oled_ssd130x.h ****         else
 1387              		.loc 4 244 54 view .LVU345
 1388 02f6 0EF0070B 		and	fp, lr, #7
 244:../../libdaisy/src/dev/oled_ssd130x.h ****         else
 1389              		.loc 4 244 42 view .LVU346
 1390 02fa C244     		add	r10, r10, r8
 244:../../libdaisy/src/dev/oled_ssd130x.h ****         else
 1391              		.loc 4 244 48 view .LVU347
 1392 02fc 4FF0010E 		mov	lr, #1
 1393              	.LVL119:
 244:../../libdaisy/src/dev/oled_ssd130x.h ****         else
 1394              		.loc 4 244 48 view .LVU348
 1395 0300 0EFA0BFE 		lsl	lr, lr, fp
 244:../../libdaisy/src/dev/oled_ssd130x.h ****         else
 1396              		.loc 4 244 42 view .LVU349
 1397 0304 9AF814B0 		ldrb	fp, [r10, #20]	@ zero_extendqisi2
 1398 0308 4EEA0B0E 		orr	lr, lr, fp
 1399 030c 8AF814E0 		strb	lr, [r10, #20]
 1400              	.LVL120:
 244:../../libdaisy/src/dev/oled_ssd130x.h ****         else
 1401              		.loc 4 244 42 view .LVU350
 1402              	.LBE320:
 1403              	.LBE319:
 1404              	.LBE318:
 328:../../libdaisy/src/hid/disp/display.h ****                 ((ChildType*)(this))
 1405              		.loc 3 328 13 view .LVU351
 1406 0310 0029     		cmp	r1, #0
 1407 0312 3FF454AF 		beq	.L61
 1408 0316 B7E7     		b	.L109
 1409              	.LVL121:
 1410              	.L48:
 318:../../libdaisy/src/hid/disp/display.h ****                     d2 = (t_sxy - t_syx < 0 && t_exy - t_eyx > 0);
 1411              		.loc 3 318 46 view .LVU352
 1412 0318 F1EE10FA 		vmrs	APSR_nzcv, FPSCR
 1413 031c 7ED4     		bmi	.L114
 1414 031e 4A46     		mov	r2, r9
 1415              	.L52:
 1416              	.LVL122:
 319:../../libdaisy/src/hid/disp/display.h ****                     d3 = (t_sxny - t_syx < 0 && t_exny - t_eyx > 0);
 1417              		.loc 3 319 33 discriminator 6 view .LVU353
 1418 0320 74EEC54A 		vsub.f32	s9, s9, s10
 1419              	.LVL123:
 319:../../libdaisy/src/hid/disp/display.h ****                     d3 = (t_sxny - t_syx < 0 && t_exny - t_eyx > 0);
ARM GAS  C:\Users\VINCIU~1\AppData\Local\Temp\cc6DIkXk.s 			page 49


 1420              		.loc 3 319 45 discriminator 6 view .LVU354
 1421 0324 F5EEC04A 		vcmpe.f32	s9, #0
 1422 0328 F1EE10FA 		vmrs	APSR_nzcv, FPSCR
 1423 032c 6CD4     		bmi	.L115
 319:../../libdaisy/src/hid/disp/display.h ****                     d3 = (t_sxny - t_syx < 0 && t_exny - t_eyx > 0);
 1424              		.loc 3 319 45 view .LVU355
 1425 032e 0021     		movs	r1, #0
 1426              	.LVL124:
 1427              	.L54:
 320:../../libdaisy/src/hid/disp/display.h ****                     d4 = (t_sxny - t_synx < 0 && t_exny - t_eynx > 0);
 1428              		.loc 3 320 34 discriminator 6 view .LVU356
 1429 0330 35EEC55A 		vsub.f32	s10, s11, s10
 1430              	.LVL125:
 320:../../libdaisy/src/hid/disp/display.h ****                     d4 = (t_sxny - t_synx < 0 && t_exny - t_eynx > 0);
 1431              		.loc 3 320 46 discriminator 6 view .LVU357
 1432 0334 B5EEC05A 		vcmpe.f32	s10, #0
 1433 0338 F1EE10FA 		vmrs	APSR_nzcv, FPSCR
 1434 033c 5AD4     		bmi	.L116
 320:../../libdaisy/src/hid/disp/display.h ****                     d4 = (t_sxny - t_synx < 0 && t_exny - t_eynx > 0);
 1435              		.loc 3 320 46 view .LVU358
 1436 033e 0027     		movs	r7, #0
 1437              	.LVL126:
 1438              	.L56:
 321:../../libdaisy/src/hid/disp/display.h ****                 }
 1439              		.loc 3 321 34 discriminator 6 view .LVU359
 1440 0340 75EEC45A 		vsub.f32	s11, s11, s8
 1441              	.LVL127:
 321:../../libdaisy/src/hid/disp/display.h ****                 }
 1442              		.loc 3 321 47 discriminator 6 view .LVU360
 1443 0344 F5EEC05A 		vcmpe.f32	s11, #0
 1444 0348 F1EE10FA 		vmrs	APSR_nzcv, FPSCR
 1445 034c 3FF529AF 		bmi	.L107
 321:../../libdaisy/src/hid/disp/display.h ****                 }
 1446              		.loc 3 321 47 view .LVU361
 1447 0350 0024     		movs	r4, #0
 1448              	.LVL128:
 325:../../libdaisy/src/hid/disp/display.h ****                 ((ChildType*)(this))
 1449              		.loc 3 325 13 view .LVU362
 1450 0352 002A     		cmp	r2, #0
 1451 0354 3FF431AF 		beq	.L59
 1452 0358 B9E7     		b	.L108
 1453              	.LVL129:
 1454              	.L112:
 343:../../libdaisy/src/hid/disp/display.h ****                 {
 1455              		.loc 3 343 32 discriminator 1 view .LVU363
 1456 035a 9842     		cmp	r0, r3
 1457 035c 8FDB     		blt	.L68
 345:../../libdaisy/src/hid/disp/display.h ****                 }
 1458              		.loc 3 345 24 view .LVU364
 1459 035e 0023     		movs	r3, #0
 1460              	.LVL130:
 345:../../libdaisy/src/hid/disp/display.h ****                 }
 1461              		.loc 3 345 24 view .LVU365
 1462 0360 3BE7     		b	.L67
 1463              	.L120:
 1464 0362 00BFAFF3 		.align	3
 1464      0080
ARM GAS  C:\Users\VINCIU~1\AppData\Local\Temp\cc6DIkXk.s 			page 50


 1465              	.L119:
 1466 0368 7A008BFC 		.word	-57999238
 1467 036c FA210940 		.word	1074340346
 1468 0370 00000000 		.word	0
 1469 0374 00806640 		.word	1080459264
 1470              	.LVL131:
 1471              	.L64:
 1472              	.LBB325:
 1473              	.LBB300:
 1474              	.LBB299:
 1475              	.LBB297:
 1476              	.LBI297:
 239:../../libdaisy/src/dev/oled_ssd130x.h ****     {
 1477              		.loc 4 239 10 is_stmt 1 view .LVU366
 1478              	.LBB298:
 246:../../libdaisy/src/dev/oled_ssd130x.h ****     }
 1479              		.loc 4 246 42 is_stmt 0 view .LVU367
 1480 0378 C244     		add	r10, r10, r8
 1481              	.LVL132:
 246:../../libdaisy/src/dev/oled_ssd130x.h ****     }
 1482              		.loc 4 246 49 view .LVU368
 1483 037a 4FF0010B 		mov	fp, #1
 1484              	.LVL133:
 246:../../libdaisy/src/dev/oled_ssd130x.h ****     }
 1485              		.loc 4 246 55 view .LVU369
 1486 037e 0EF0070E 		and	lr, lr, #7
 1487              	.LVL134:
 246:../../libdaisy/src/dev/oled_ssd130x.h ****     }
 1488              		.loc 4 246 49 view .LVU370
 1489 0382 0BFA0EFE 		lsl	lr, fp, lr
 246:../../libdaisy/src/dev/oled_ssd130x.h ****     }
 1490              		.loc 4 246 42 view .LVU371
 1491 0386 9AF814B0 		ldrb	fp, [r10, #20]	@ zero_extendqisi2
 1492 038a 2BEA0E0E 		bic	lr, fp, lr
 1493 038e 8AF814E0 		strb	lr, [r10, #20]
 1494              	.LVL135:
 246:../../libdaisy/src/dev/oled_ssd130x.h ****     }
 1495              		.loc 4 246 42 view .LVU372
 1496 0392 15E7     		b	.L63
 1497              	.LVL136:
 1498              	.L62:
 246:../../libdaisy/src/dev/oled_ssd130x.h ****     }
 1499              		.loc 4 246 42 view .LVU373
 1500              	.LBE298:
 1501              	.LBE297:
 1502              	.LBE299:
 1503              	.LBE300:
 1504              	.LBE325:
 1505              	.LBB326:
 1506              	.LBB317:
 1507              	.LBB316:
 1508              	.LBB314:
 1509              	.LBI314:
 239:../../libdaisy/src/dev/oled_ssd130x.h ****     {
 1510              		.loc 4 239 10 is_stmt 1 view .LVU374
 1511              	.LBB315:
 246:../../libdaisy/src/dev/oled_ssd130x.h ****     }
ARM GAS  C:\Users\VINCIU~1\AppData\Local\Temp\cc6DIkXk.s 			page 51


 1512              		.loc 4 246 42 is_stmt 0 view .LVU375
 1513 0394 C244     		add	r10, r10, r8
 1514              	.LVL137:
 246:../../libdaisy/src/dev/oled_ssd130x.h ****     }
 1515              		.loc 4 246 49 view .LVU376
 1516 0396 4FF0010B 		mov	fp, #1
 1517              	.LVL138:
 246:../../libdaisy/src/dev/oled_ssd130x.h ****     }
 1518              		.loc 4 246 55 view .LVU377
 1519 039a 0EF0070E 		and	lr, lr, #7
 1520              	.LVL139:
 246:../../libdaisy/src/dev/oled_ssd130x.h ****     }
 1521              		.loc 4 246 49 view .LVU378
 1522 039e 0BFA0EFE 		lsl	lr, fp, lr
 246:../../libdaisy/src/dev/oled_ssd130x.h ****     }
 1523              		.loc 4 246 42 view .LVU379
 1524 03a2 9AF814B0 		ldrb	fp, [r10, #20]	@ zero_extendqisi2
 1525 03a6 2BEA0E0E 		bic	lr, fp, lr
 1526 03aa 8AF814E0 		strb	lr, [r10, #20]
 1527              	.LVL140:
 246:../../libdaisy/src/dev/oled_ssd130x.h ****     }
 1528              		.loc 4 246 42 view .LVU380
 1529              	.LBE315:
 1530              	.LBE314:
 1531              	.LBE316:
 1532              	.LBE317:
 1533              	.LBE326:
 331:../../libdaisy/src/hid/disp/display.h ****                 ((ChildType*)(this))
 1534              		.loc 3 331 13 view .LVU381
 1535 03ae 002F     		cmp	r7, #0
 1536 03b0 3FF406AF 		beq	.L63
 1537 03b4 1CE7     		b	.L110
 1538              	.LVL141:
 1539              	.L66:
 1540              	.LBB327:
 1541              	.LBB309:
 1542              	.LBB307:
 1543              	.LBB304:
 1544              	.LBI304:
 239:../../libdaisy/src/dev/oled_ssd130x.h ****     {
 1545              		.loc 4 239 10 is_stmt 1 view .LVU382
 1546              	.LBB305:
 246:../../libdaisy/src/dev/oled_ssd130x.h ****     }
 1547              		.loc 4 246 42 is_stmt 0 view .LVU383
 1548 03b6 C244     		add	r10, r10, r8
 1549              	.LVL142:
 246:../../libdaisy/src/dev/oled_ssd130x.h ****     }
 1550              		.loc 4 246 49 view .LVU384
 1551 03b8 4FF0010B 		mov	fp, #1
 1552              	.LVL143:
 246:../../libdaisy/src/dev/oled_ssd130x.h ****     }
 1553              		.loc 4 246 55 view .LVU385
 1554 03bc 0EF0070E 		and	lr, lr, #7
 1555              	.LVL144:
 246:../../libdaisy/src/dev/oled_ssd130x.h ****     }
 1556              		.loc 4 246 49 view .LVU386
 1557 03c0 0BFA0EFE 		lsl	lr, fp, lr
ARM GAS  C:\Users\VINCIU~1\AppData\Local\Temp\cc6DIkXk.s 			page 52


 246:../../libdaisy/src/dev/oled_ssd130x.h ****     }
 1558              		.loc 4 246 42 view .LVU387
 1559 03c4 9AF814B0 		ldrb	fp, [r10, #20]	@ zero_extendqisi2
 1560 03c8 2BEA0E0E 		bic	lr, fp, lr
 1561 03cc 8AF814E0 		strb	lr, [r10, #20]
 1562              	.LVL145:
 246:../../libdaisy/src/dev/oled_ssd130x.h ****     }
 1563              		.loc 4 246 42 view .LVU388
 1564 03d0 F7E6     		b	.L65
 1565              	.LVL146:
 1566              	.L60:
 246:../../libdaisy/src/dev/oled_ssd130x.h ****     }
 1567              		.loc 4 246 42 view .LVU389
 1568              	.LBE305:
 1569              	.LBE304:
 1570              	.LBE307:
 1571              	.LBE309:
 1572              	.LBE327:
 1573              	.LBB328:
 1574              	.LBB324:
 1575              	.LBB323:
 1576              	.LBB321:
 1577              	.LBI321:
 239:../../libdaisy/src/dev/oled_ssd130x.h ****     {
 1578              		.loc 4 239 10 is_stmt 1 view .LVU390
 1579              	.LBB322:
 246:../../libdaisy/src/dev/oled_ssd130x.h ****     }
 1580              		.loc 4 246 42 is_stmt 0 view .LVU391
 1581 03d2 C244     		add	r10, r10, r8
 1582              	.LVL147:
 246:../../libdaisy/src/dev/oled_ssd130x.h ****     }
 1583              		.loc 4 246 49 view .LVU392
 1584 03d4 4FF0010B 		mov	fp, #1
 1585              	.LVL148:
 246:../../libdaisy/src/dev/oled_ssd130x.h ****     }
 1586              		.loc 4 246 55 view .LVU393
 1587 03d8 0EF0070E 		and	lr, lr, #7
 1588              	.LVL149:
 246:../../libdaisy/src/dev/oled_ssd130x.h ****     }
 1589              		.loc 4 246 49 view .LVU394
 1590 03dc 0BFA0EFE 		lsl	lr, fp, lr
 246:../../libdaisy/src/dev/oled_ssd130x.h ****     }
 1591              		.loc 4 246 42 view .LVU395
 1592 03e0 9AF814B0 		ldrb	fp, [r10, #20]	@ zero_extendqisi2
 1593 03e4 2BEA0E0E 		bic	lr, fp, lr
 1594 03e8 8AF814E0 		strb	lr, [r10, #20]
 1595              	.LVL150:
 246:../../libdaisy/src/dev/oled_ssd130x.h ****     }
 1596              		.loc 4 246 42 view .LVU396
 1597              	.LBE322:
 1598              	.LBE321:
 1599              	.LBE323:
 1600              	.LBE324:
 1601              	.LBE328:
 328:../../libdaisy/src/hid/disp/display.h ****                 ((ChildType*)(this))
 1602              		.loc 3 328 13 view .LVU397
 1603 03ec 0029     		cmp	r1, #0
ARM GAS  C:\Users\VINCIU~1\AppData\Local\Temp\cc6DIkXk.s 			page 53


 1604 03ee 3FF4E6AE 		beq	.L61
 1605 03f2 49E7     		b	.L109
 1606              	.LVL151:
 1607              	.L116:
 320:../../libdaisy/src/hid/disp/display.h ****                     d4 = (t_sxny - t_synx < 0 && t_exny - t_eynx > 0);
 1608              		.loc 3 320 56 discriminator 1 view .LVU398
 1609 03f4 77EEE66A 		vsub.f32	s13, s15, s13
 1610              	.LVL152:
 320:../../libdaisy/src/hid/disp/display.h ****                     d4 = (t_sxny - t_synx < 0 && t_exny - t_eynx > 0);
 1611              		.loc 3 320 46 discriminator 1 view .LVU399
 1612 03f8 F5EEC06A 		vcmpe.f32	s13, #0
 1613 03fc F1EE10FA 		vmrs	APSR_nzcv, FPSCR
 1614 0400 CCBF     		ite	gt
 1615 0402 0127     		movgt	r7, #1
 1616              	.LVL153:
 320:../../libdaisy/src/hid/disp/display.h ****                     d4 = (t_sxny - t_synx < 0 && t_exny - t_eynx > 0);
 1617              		.loc 3 320 46 discriminator 1 view .LVU400
 1618 0404 0027     		movle	r7, #0
 1619 0406 9BE7     		b	.L56
 1620              	.LVL154:
 1621              	.L115:
 319:../../libdaisy/src/hid/disp/display.h ****                     d3 = (t_sxny - t_syx < 0 && t_exny - t_eyx > 0);
 1622              		.loc 3 319 54 discriminator 1 view .LVU401
 1623 0408 36EE666A 		vsub.f32	s12, s12, s13
 1624              	.LVL155:
 319:../../libdaisy/src/hid/disp/display.h ****                     d3 = (t_sxny - t_syx < 0 && t_exny - t_eyx > 0);
 1625              		.loc 3 319 45 discriminator 1 view .LVU402
 1626 040c B5EEC06A 		vcmpe.f32	s12, #0
 1627 0410 F1EE10FA 		vmrs	APSR_nzcv, FPSCR
 1628 0414 CCBF     		ite	gt
 1629 0416 0121     		movgt	r1, #1
 1630 0418 0021     		movle	r1, #0
 1631 041a 89E7     		b	.L54
 1632              	.LVL156:
 1633              	.L114:
 318:../../libdaisy/src/hid/disp/display.h ****                     d2 = (t_sxy - t_syx < 0 && t_exy - t_eyx > 0);
 1634              		.loc 3 318 55 discriminator 1 view .LVU403
 1635 041c 76EE473A 		vsub.f32	s7, s12, s14
 318:../../libdaisy/src/hid/disp/display.h ****                     d2 = (t_sxy - t_syx < 0 && t_exy - t_eyx > 0);
 1636              		.loc 3 318 46 discriminator 1 view .LVU404
 1637 0420 F5EEC03A 		vcmpe.f32	s7, #0
 1638 0424 F1EE10FA 		vmrs	APSR_nzcv, FPSCR
 1639 0428 CCBF     		ite	gt
 1640 042a 0122     		movgt	r2, #1
 1641 042c 0022     		movle	r2, #0
 1642 042e 77E7     		b	.L52
 1643              	.LVL157:
 1644              	.L77:
 314:../../libdaisy/src/hid/disp/display.h ****                 }
 1645              		.loc 3 314 47 view .LVU405
 1646 0430 0124     		movs	r4, #1
 1647              	.LVL158:
 325:../../libdaisy/src/hid/disp/display.h ****                 ((ChildType*)(this))
 1648              		.loc 3 325 13 view .LVU406
 1649 0432 002A     		cmp	r2, #0
 1650 0434 3FF4C1AE 		beq	.L59
 325:../../libdaisy/src/hid/disp/display.h ****                 ((ChildType*)(this))
ARM GAS  C:\Users\VINCIU~1\AppData\Local\Temp\cc6DIkXk.s 			page 54


 1651              		.loc 3 325 13 view .LVU407
 1652 0438 49E7     		b	.L108
 1653              	.LVL159:
 1654              	.L74:
 312:../../libdaisy/src/hid/disp/display.h ****                     d3 = (t_sxny - t_syx < 0 || t_exny - t_eyx > 0);
 1655              		.loc 3 312 33 view .LVU408
 1656 043a 74EEC54A 		vsub.f32	s9, s9, s10
 1657              	.LVL160:
 311:../../libdaisy/src/hid/disp/display.h ****                     d2 = (t_sxy - t_syx < 0 || t_exy - t_eyx > 0);
 1658              		.loc 3 311 46 view .LVU409
 1659 043e 0122     		movs	r2, #1
 1660              	.LVL161:
 312:../../libdaisy/src/hid/disp/display.h ****                     d3 = (t_sxny - t_syx < 0 || t_exny - t_eyx > 0);
 1661              		.loc 3 312 45 view .LVU410
 1662 0440 F5EEC04A 		vcmpe.f32	s9, #0
 1663 0444 F1EE10FA 		vmrs	APSR_nzcv, FPSCR
 1664 0448 7FF589AE 		bpl	.L117
 1665              	.L75:
 313:../../libdaisy/src/hid/disp/display.h ****                     d4 = (t_sxny - t_synx < 0 || t_exny - t_eynx > 0);
 1666              		.loc 3 313 34 view .LVU411
 1667 044c 35EEC55A 		vsub.f32	s10, s11, s10
 1668              	.LVL162:
 312:../../libdaisy/src/hid/disp/display.h ****                     d3 = (t_sxny - t_syx < 0 || t_exny - t_eyx > 0);
 1669              		.loc 3 312 45 view .LVU412
 1670 0450 0121     		movs	r1, #1
 1671              	.LVL163:
 313:../../libdaisy/src/hid/disp/display.h ****                     d4 = (t_sxny - t_synx < 0 || t_exny - t_eynx > 0);
 1672              		.loc 3 313 46 view .LVU413
 1673 0452 B5EEC05A 		vcmpe.f32	s10, #0
 1674 0456 F1EE10FA 		vmrs	APSR_nzcv, FPSCR
 1675 045a 7FF591AE 		bpl	.L118
 1676              	.LVL164:
 1677              	.L76:
 313:../../libdaisy/src/hid/disp/display.h ****                     d4 = (t_sxny - t_synx < 0 || t_exny - t_eynx > 0);
 1678              		.loc 3 313 46 view .LVU414
 1679 045e 0127     		movs	r7, #1
 1680              	.LVL165:
 313:../../libdaisy/src/hid/disp/display.h ****                     d4 = (t_sxny - t_synx < 0 || t_exny - t_eynx > 0);
 1681              		.loc 3 313 46 view .LVU415
 1682 0460 97E6     		b	.L51
 1683              	.LVL166:
 1684              	.L43:
 268:../../libdaisy/src/hid/disp/display.h ****             sweep = -sweep;
 1685              		.loc 3 268 25 view .LVU416
 1686 0462 DDE91223 		ldrd	r2, r3, [sp, #72]
 1687              	.LVL167:
 268:../../libdaisy/src/hid/disp/display.h ****             sweep = -sweep;
 1688              		.loc 3 268 25 view .LVU417
 1689 0466 1344     		add	r3, r3, r2
 1690              	.LVL168:
 268:../../libdaisy/src/hid/disp/display.h ****             sweep = -sweep;
 1691              		.loc 3 268 25 view .LVU418
 1692 0468 06EE102A 		vmov	s12, r2	@ int
 1693 046c 1293     		str	r3, [sp, #72]
 1694 046e 139B     		ldr	r3, [sp, #76]
 1695              	.LVL169:
 268:../../libdaisy/src/hid/disp/display.h ****             sweep = -sweep;
ARM GAS  C:\Users\VINCIU~1\AppData\Local\Temp\cc6DIkXk.s 			page 55


 1696              		.loc 3 268 25 view .LVU419
 1697 0470 5B42     		rsbs	r3, r3, #0
 1698 0472 1393     		str	r3, [sp, #76]
 1699              	.LVL170:
 268:../../libdaisy/src/hid/disp/display.h ****             sweep = -sweep;
 1700              		.loc 3 268 25 view .LVU420
 1701 0474 D8E5     		b	.L44
 1702              		.cfi_endproc
 1703              	.LFE1840:
 1705 0476 00BF     		.section	.text._ZN5daisy25OneBitGraphicsDisplayImplINS_11OledDisplayINS_13SSD130xDriverILj128ELj64
 1706              		.align	1
 1707              		.p2align 2,,3
 1708              		.weak	_ZN5daisy25OneBitGraphicsDisplayImplINS_11OledDisplayINS_13SSD130xDriverILj128ELj64ENS_24SSD
 1709              		.syntax unified
 1710              		.thumb
 1711              		.thumb_func
 1712              		.fpu fpv5-d16
 1714              	_ZN5daisy25OneBitGraphicsDisplayImplINS_11OledDisplayINS_13SSD130xDriverILj128ELj64ENS_24SSD130x4Wi
 1715              	.LVL171:
 1716              	.LFB1839:
 355:../../libdaisy/src/hid/disp/display.h **** 
 356:../../libdaisy/src/hid/disp/display.h ****     char WriteChar(char ch, FontDef font, bool on) override
 357:../../libdaisy/src/hid/disp/display.h ****     {
 358:../../libdaisy/src/hid/disp/display.h ****         uint32_t i, b, j;
 359:../../libdaisy/src/hid/disp/display.h **** 
 360:../../libdaisy/src/hid/disp/display.h ****         // Check if character is valid
 361:../../libdaisy/src/hid/disp/display.h ****         if(ch < 32 || ch > 126)
 362:../../libdaisy/src/hid/disp/display.h ****             return 0;
 363:../../libdaisy/src/hid/disp/display.h **** 
 364:../../libdaisy/src/hid/disp/display.h ****         // Check remaining space on current line
 365:../../libdaisy/src/hid/disp/display.h ****         if(Width() < (currentX_ + font.FontWidth)
 366:../../libdaisy/src/hid/disp/display.h ****            || Height() < (currentY_ + font.FontHeight))
 367:../../libdaisy/src/hid/disp/display.h ****         {
 368:../../libdaisy/src/hid/disp/display.h ****             // Not enough space on current line
 369:../../libdaisy/src/hid/disp/display.h ****             return 0;
 370:../../libdaisy/src/hid/disp/display.h ****         }
 371:../../libdaisy/src/hid/disp/display.h **** 
 372:../../libdaisy/src/hid/disp/display.h ****         // Use the font to write
 373:../../libdaisy/src/hid/disp/display.h ****         for(i = 0; i < font.FontHeight; i++)
 374:../../libdaisy/src/hid/disp/display.h ****         {
 375:../../libdaisy/src/hid/disp/display.h ****             b = font.data[(ch - 32) * font.FontHeight + i];
 376:../../libdaisy/src/hid/disp/display.h ****             for(j = 0; j < font.FontWidth; j++)
 377:../../libdaisy/src/hid/disp/display.h ****             {
 378:../../libdaisy/src/hid/disp/display.h ****                 if((b << j) & 0x8000)
 379:../../libdaisy/src/hid/disp/display.h ****                 {
 380:../../libdaisy/src/hid/disp/display.h ****                     ((ChildType*)(this))
 381:../../libdaisy/src/hid/disp/display.h ****                         ->ChildType::DrawPixel(
 382:../../libdaisy/src/hid/disp/display.h ****                             currentX_ + j, (currentY_ + i), on);
 383:../../libdaisy/src/hid/disp/display.h ****                 }
 384:../../libdaisy/src/hid/disp/display.h ****                 else
 385:../../libdaisy/src/hid/disp/display.h ****                 {
 386:../../libdaisy/src/hid/disp/display.h ****                     ((ChildType*)(this))
 387:../../libdaisy/src/hid/disp/display.h ****                         ->ChildType::DrawPixel(
 388:../../libdaisy/src/hid/disp/display.h ****                             currentX_ + j, (currentY_ + i), !on);
 389:../../libdaisy/src/hid/disp/display.h ****                 }
 390:../../libdaisy/src/hid/disp/display.h ****             }
 391:../../libdaisy/src/hid/disp/display.h ****         }
ARM GAS  C:\Users\VINCIU~1\AppData\Local\Temp\cc6DIkXk.s 			page 56


 392:../../libdaisy/src/hid/disp/display.h **** 
 393:../../libdaisy/src/hid/disp/display.h ****         // The current space is now taken
 394:../../libdaisy/src/hid/disp/display.h ****         SetCursor(currentX_ + font.FontWidth, currentY_);
 395:../../libdaisy/src/hid/disp/display.h **** 
 396:../../libdaisy/src/hid/disp/display.h ****         // Return written char for validation
 397:../../libdaisy/src/hid/disp/display.h ****         return ch;
 398:../../libdaisy/src/hid/disp/display.h ****     }
 399:../../libdaisy/src/hid/disp/display.h **** 
 400:../../libdaisy/src/hid/disp/display.h ****     char WriteString(const char* str, FontDef font, bool on) override
 1717              		.loc 3 400 10 is_stmt 1 view -0
 1718              		.cfi_startproc
 1719              		@ args = 4, pretend = 0, frame = 32
 1720              		@ frame_needed = 0, uses_anonymous_args = 0
 1721              		.loc 3 400 10 is_stmt 0 view .LVU422
 1722 0000 2DE9F04F 		push	{r4, r5, r6, r7, r8, r9, r10, fp, lr}
 1723              		.cfi_def_cfa_offset 36
 1724              		.cfi_offset 4, -36
 1725              		.cfi_offset 5, -32
 1726              		.cfi_offset 6, -28
 1727              		.cfi_offset 7, -24
 1728              		.cfi_offset 8, -20
 1729              		.cfi_offset 9, -16
 1730              		.cfi_offset 10, -12
 1731              		.cfi_offset 11, -8
 1732              		.cfi_offset 14, -4
 1733 0004 89B0     		sub	sp, sp, #36
 1734              		.cfi_def_cfa_offset 72
 1735              		.loc 3 400 10 view .LVU423
 1736 0006 08AC     		add	r4, sp, #32
 1737 0008 9DF84870 		ldrb	r7, [sp, #72]	@ zero_extendqisi2
 1738 000c 0191     		str	r1, [sp, #4]
 1739 000e 04E90C00 		stmdb	r4, {r2, r3}
 401:../../libdaisy/src/hid/disp/display.h ****     {
 402:../../libdaisy/src/hid/disp/display.h ****         // Write until null-byte
 403:../../libdaisy/src/hid/disp/display.h ****         while(*str)
 1740              		.loc 3 403 9 is_stmt 1 view .LVU424
 1741 0012 0B78     		ldrb	r3, [r1]	@ zero_extendqisi2
 1742 0014 002B     		cmp	r3, #0
 1743 0016 00F0AB80 		beq	.L145
 1744 001a 1A46     		mov	r2, r3
 1745 001c 9DF81880 		ldrb	r8, [sp, #24]	@ zero_extendqisi2
 1746 0020 9DF81930 		ldrb	r3, [sp, #25]	@ zero_extendqisi2
 1747 0024 0646     		mov	r6, r0
 1748 0026 4546     		mov	r5, r8
 1749 0028 9046     		mov	r8, r2
 1750 002a 0393     		str	r3, [sp, #12]
 1751 002c 079B     		ldr	r3, [sp, #28]
 1752 002e 0593     		str	r3, [sp, #20]
 1753              	.LVL172:
 1754              	.L146:
 1755              	.LBB357:
 1756              	.LBI357:
 356:../../libdaisy/src/hid/disp/display.h ****     {
 1757              		.loc 3 356 10 view .LVU425
 1758              	.LBB358:
 361:../../libdaisy/src/hid/disp/display.h ****             return 0;
 1759              		.loc 3 361 20 is_stmt 0 view .LVU426
ARM GAS  C:\Users\VINCIU~1\AppData\Local\Temp\cc6DIkXk.s 			page 57


 1760 0030 A8F12004 		sub	r4, r8, #32
 361:../../libdaisy/src/hid/disp/display.h ****             return 0;
 1761              		.loc 3 361 9 view .LVU427
 1762 0034 E3B2     		uxtb	r3, r4
 1763 0036 5E2B     		cmp	r3, #94
 1764 0038 00F29E80 		bhi	.L127
 365:../../libdaisy/src/hid/disp/display.h ****            || Height() < (currentY_ + font.FontHeight))
 1765              		.loc 3 365 17 view .LVU428
 1766 003c 3368     		ldr	r3, [r6]
 1767 003e 5E4A     		ldr	r2, .L167
 1768 0040 DB68     		ldr	r3, [r3, #12]
 1769 0042 9342     		cmp	r3, r2
 1770 0044 40F09B80 		bne	.L160
 1771 0048 8020     		movs	r0, #128
 1772              	.L126:
 365:../../libdaisy/src/hid/disp/display.h ****            || Height() < (currentY_ + font.FontHeight))
 1773              		.loc 3 365 23 view .LVU429
 1774 004a B388     		ldrh	r3, [r6, #4]
 365:../../libdaisy/src/hid/disp/display.h ****            || Height() < (currentY_ + font.FontHeight))
 1775              		.loc 3 365 33 view .LVU430
 1776 004c 2B44     		add	r3, r3, r5
 366:../../libdaisy/src/hid/disp/display.h ****         {
 1777              		.loc 3 366 12 view .LVU431
 1778 004e 8342     		cmp	r3, r0
 1779 0050 00F39280 		bgt	.L127
 366:../../libdaisy/src/hid/disp/display.h ****         {
 1780              		.loc 3 366 21 view .LVU432
 1781 0054 3368     		ldr	r3, [r6]
 1782 0056 594A     		ldr	r2, .L167+4
 1783 0058 9B68     		ldr	r3, [r3, #8]
 1784 005a 9342     		cmp	r3, r2
 1785 005c 40F09280 		bne	.L161
 1786 0060 4020     		movs	r0, #64
 1787              	.L128:
 366:../../libdaisy/src/hid/disp/display.h ****         {
 1788              		.loc 3 366 27 view .LVU433
 1789 0062 F188     		ldrh	r1, [r6, #6]
 366:../../libdaisy/src/hid/disp/display.h ****         {
 1790              		.loc 3 366 37 view .LVU434
 1791 0064 039A     		ldr	r2, [sp, #12]
 366:../../libdaisy/src/hid/disp/display.h ****         {
 1792              		.loc 3 366 27 view .LVU435
 1793 0066 0291     		str	r1, [sp, #8]
 366:../../libdaisy/src/hid/disp/display.h ****         {
 1794              		.loc 3 366 37 view .LVU436
 1795 0068 8B18     		adds	r3, r1, r2
 366:../../libdaisy/src/hid/disp/display.h ****         {
 1796              		.loc 3 366 12 view .LVU437
 1797 006a 8342     		cmp	r3, r0
 1798 006c 00F38480 		bgt	.L127
 1799              	.LVL173:
 373:../../libdaisy/src/hid/disp/display.h ****         {
 1800              		.loc 3 373 22 is_stmt 1 view .LVU438
 1801 0070 002A     		cmp	r2, #0
 1802 0072 00F09180 		beq	.L129
 375:../../libdaisy/src/hid/disp/display.h ****             for(j = 0; j < font.FontWidth; j++)
 1803              		.loc 3 375 37 is_stmt 0 view .LVU439
ARM GAS  C:\Users\VINCIU~1\AppData\Local\Temp\cc6DIkXk.s 			page 58


 1804 0076 02FB04F4 		mul	r4, r2, r4
 1805 007a 6FF00049 		mvn	r9, #-2147483648
 1806 007e 059B     		ldr	r3, [sp, #20]
 1807 0080 A144     		add	r9, r9, r4
 1808 0082 1444     		add	r4, r4, r2
 394:../../libdaisy/src/hid/disp/display.h **** 
 1809              		.loc 3 394 19 view .LVU440
 1810 0084 B6F804B0 		ldrh	fp, [r6, #4]
 1811 0088 03EB4909 		add	r9, r3, r9, lsl #1
 1812 008c 023B     		subs	r3, r3, #2
 1813 008e CDF81080 		str	r8, [sp, #16]
 1814 0092 03EB4403 		add	r3, r3, r4, lsl #1
 1815 0096 0C46     		mov	r4, r1
 1816 0098 9A46     		mov	r10, r3
 1817              	.LVL174:
 1818              	.L132:
 375:../../libdaisy/src/hid/disp/display.h ****             for(j = 0; j < font.FontWidth; j++)
 1819              		.loc 3 375 15 view .LVU441
 1820 009a 39F802CF 		ldrh	ip, [r9, #2]!
 1821              	.LVL175:
 376:../../libdaisy/src/hid/disp/display.h ****             {
 1822              		.loc 3 376 26 is_stmt 1 view .LVU442
 1823 009e A5B3     		cbz	r5, .L137
 1824              	.LBB359:
 1825              	.LBB360:
 1826              	.LBB361:
 1827              	.LBB362:
 1828              	.LBB363:
 246:../../libdaisy/src/dev/oled_ssd130x.h ****     }
 1829              		.loc 4 246 55 is_stmt 0 view .LVU443
 1830 00a0 04F00703 		and	r3, r4, #7
 246:../../libdaisy/src/dev/oled_ssd130x.h ****     }
 1831              		.loc 4 246 49 view .LVU444
 1832 00a4 4FF0010E 		mov	lr, #1
 246:../../libdaisy/src/dev/oled_ssd130x.h ****     }
 1833              		.loc 4 246 28 view .LVU445
 1834 00a8 E208     		lsrs	r2, r4, #3
 1835 00aa 5946     		mov	r1, fp
 246:../../libdaisy/src/dev/oled_ssd130x.h ****     }
 1836              		.loc 4 246 49 view .LVU446
 1837 00ac 0EFA03FE 		lsl	lr, lr, r3
 1838 00b0 0BF11403 		add	r3, fp, #20
 246:../../libdaisy/src/dev/oled_ssd130x.h ****     }
 1839              		.loc 4 246 42 view .LVU447
 1840 00b4 4FFA8EFE 		sxtb	lr, lr
 1841 00b8 03EBC212 		add	r2, r3, r2, lsl #7
 1842              	.LBE363:
 1843              	.LBE362:
 1844              	.LBE361:
 1845              	.LBE360:
 1846              	.LBE359:
 376:../../libdaisy/src/hid/disp/display.h ****             {
 1847              		.loc 3 376 19 view .LVU448
 1848 00bc 0023     		movs	r3, #0
 1849              	.LBB381:
 1850              	.LBB376:
 1851              	.LBB371:
ARM GAS  C:\Users\VINCIU~1\AppData\Local\Temp\cc6DIkXk.s 			page 59


 1852              	.LBB367:
 1853              	.LBB364:
 246:../../libdaisy/src/dev/oled_ssd130x.h ****     }
 1854              		.loc 4 246 42 view .LVU449
 1855 00be 6FEA0E08 		mvn	r8, lr
 1856 00c2 3244     		add	r2, r2, r6
 1857 00c4 0DE0     		b	.L138
 1858              	.LVL176:
 1859              	.L162:
 246:../../libdaisy/src/dev/oled_ssd130x.h ****     }
 1860              		.loc 4 246 42 view .LVU450
 1861              	.LBE364:
 1862              	.LBE367:
 1863              	.LBE371:
 1864              	.LBE376:
 1865              	.LBE381:
 1866              	.LBB382:
 1867              	.LBI382:
  41:../../libdaisy/src/hid/disp/oled_display.h ****     {
 1868              		.loc 2 41 10 is_stmt 1 view .LVU451
 1869              	.LBB383:
 1870              	.LBI383:
 239:../../libdaisy/src/dev/oled_ssd130x.h ****     {
 1871              		.loc 4 239 10 view .LVU452
 1872              	.LBB384:
 241:../../libdaisy/src/dev/oled_ssd130x.h ****             return;
 1873              		.loc 4 241 9 is_stmt 0 view .LVU453
 1874 00c6 7F29     		cmp	r1, #127
 1875 00c8 06D8     		bhi	.L134
 1876 00ca 3F2C     		cmp	r4, #63
 1877 00cc 04D8     		bhi	.L134
 244:../../libdaisy/src/dev/oled_ssd130x.h ****         else
 1878              		.loc 4 244 42 view .LVU454
 1879 00ce 1078     		ldrb	r0, [r2]	@ zero_extendqisi2
 243:../../libdaisy/src/dev/oled_ssd130x.h ****             buffer_[x + (y / 8) * width] |= (1 << (y % 8));
 1880              		.loc 4 243 9 view .LVU455
 1881 00d0 97B1     		cbz	r7, .L136
 1882              	.L159:
 243:../../libdaisy/src/dev/oled_ssd130x.h ****             buffer_[x + (y / 8) * width] |= (1 << (y % 8));
 1883              		.loc 4 243 9 view .LVU456
 1884              	.LBE384:
 1885              	.LBE383:
 1886              	.LBE382:
 1887              	.LBB385:
 1888              	.LBB377:
 1889              	.LBB372:
 244:../../libdaisy/src/dev/oled_ssd130x.h ****         else
 1890              		.loc 4 244 42 view .LVU457
 1891 00d2 4EEA0000 		orr	r0, lr, r0
 1892 00d6 1070     		strb	r0, [r2]
 1893              	.L134:
 1894              	.LBE372:
 1895              	.LBE377:
 1896              	.LBE385:
 376:../../libdaisy/src/hid/disp/display.h ****             {
 1897              		.loc 3 376 13 is_stmt 1 view .LVU458
 1898 00d8 0133     		adds	r3, r3, #1
ARM GAS  C:\Users\VINCIU~1\AppData\Local\Temp\cc6DIkXk.s 			page 60


 1899              	.LVL177:
 376:../../libdaisy/src/hid/disp/display.h ****             {
 1900              		.loc 3 376 26 view .LVU459
 1901 00da 0132     		adds	r2, r2, #1
 1902 00dc 0131     		adds	r1, r1, #1
 1903 00de AB42     		cmp	r3, r5
 1904 00e0 13D0     		beq	.L137
 1905              	.LVL178:
 1906              	.L138:
 378:../../libdaisy/src/hid/disp/display.h ****                 {
 1907              		.loc 3 378 23 is_stmt 0 view .LVU460
 1908 00e2 0CFA03F0 		lsl	r0, ip, r3
 378:../../libdaisy/src/hid/disp/display.h ****                 {
 1909              		.loc 3 378 17 view .LVU461
 1910 00e6 0004     		lsls	r0, r0, #16
 1911 00e8 EDD4     		bmi	.L162
 1912              	.LVL179:
 1913              	.LBB386:
 1914              	.LBI359:
  41:../../libdaisy/src/hid/disp/oled_display.h ****     {
 1915              		.loc 2 41 10 is_stmt 1 view .LVU462
 1916              	.LBB378:
 1917              	.LBI360:
 239:../../libdaisy/src/dev/oled_ssd130x.h ****     {
 1918              		.loc 4 239 10 view .LVU463
 1919              	.LBB373:
 241:../../libdaisy/src/dev/oled_ssd130x.h ****             return;
 1920              		.loc 4 241 9 is_stmt 0 view .LVU464
 1921 00ea 7F29     		cmp	r1, #127
 1922 00ec F4D8     		bhi	.L134
 1923 00ee 3F2C     		cmp	r4, #63
 1924 00f0 F2D8     		bhi	.L134
 244:../../libdaisy/src/dev/oled_ssd130x.h ****         else
 1925              		.loc 4 244 42 view .LVU465
 1926 00f2 1078     		ldrb	r0, [r2]	@ zero_extendqisi2
 243:../../libdaisy/src/dev/oled_ssd130x.h ****             buffer_[x + (y / 8) * width] |= (1 << (y % 8));
 1927              		.loc 4 243 9 view .LVU466
 1928 00f4 002F     		cmp	r7, #0
 1929 00f6 ECD0     		beq	.L159
 1930              	.L136:
 1931              	.LVL180:
 1932              	.LBB368:
 1933              	.LBI362:
 239:../../libdaisy/src/dev/oled_ssd130x.h ****     {
 1934              		.loc 4 239 10 is_stmt 1 view .LVU467
 239:../../libdaisy/src/dev/oled_ssd130x.h ****     {
 1935              		.loc 4 239 10 is_stmt 0 view .LVU468
 1936              	.LBE368:
 1937              	.LBE373:
 1938              	.LBE378:
 1939              	.LBE386:
 376:../../libdaisy/src/hid/disp/display.h ****             {
 1940              		.loc 3 376 13 view .LVU469
 1941 00f8 0133     		adds	r3, r3, #1
 1942              	.LVL181:
 1943              	.LBB387:
 1944              	.LBB379:
ARM GAS  C:\Users\VINCIU~1\AppData\Local\Temp\cc6DIkXk.s 			page 61


 1945              	.LBB374:
 1946              	.LBB369:
 1947              	.LBB365:
 246:../../libdaisy/src/dev/oled_ssd130x.h ****     }
 1948              		.loc 4 246 42 view .LVU470
 1949 00fa 08EA0000 		and	r0, r8, r0
 1950              	.LBE365:
 1951              	.LBE369:
 1952              	.LBE374:
 1953              	.LBE379:
 1954              	.LBE387:
 376:../../libdaisy/src/hid/disp/display.h ****             {
 1955              		.loc 3 376 26 view .LVU471
 1956 00fe 0132     		adds	r2, r2, #1
 1957 0100 0131     		adds	r1, r1, #1
 1958 0102 AB42     		cmp	r3, r5
 1959              	.LBB388:
 1960              	.LBB380:
 1961              	.LBB375:
 1962              	.LBB370:
 1963              	.LBB366:
 246:../../libdaisy/src/dev/oled_ssd130x.h ****     }
 1964              		.loc 4 246 42 view .LVU472
 1965 0104 02F8010C 		strb	r0, [r2, #-1]
 246:../../libdaisy/src/dev/oled_ssd130x.h ****     }
 1966              		.loc 4 246 42 view .LVU473
 1967              	.LBE366:
 1968              	.LBE370:
 1969              	.LBE375:
 1970              	.LBE380:
 1971              	.LBE388:
 376:../../libdaisy/src/hid/disp/display.h ****             {
 1972              		.loc 3 376 13 is_stmt 1 view .LVU474
 1973              	.LVL182:
 376:../../libdaisy/src/hid/disp/display.h ****             {
 1974              		.loc 3 376 26 view .LVU475
 1975 0108 EBD1     		bne	.L138
 1976              	.LVL183:
 1977              	.L137:
 373:../../libdaisy/src/hid/disp/display.h ****         {
 1978              		.loc 3 373 9 view .LVU476
 373:../../libdaisy/src/hid/disp/display.h ****         {
 1979              		.loc 3 373 22 view .LVU477
 1980 010a D145     		cmp	r9, r10
 1981 010c 04F10104 		add	r4, r4, #1
 1982 0110 C3D1     		bne	.L132
 1983 0112 DDF81080 		ldr	r8, [sp, #16]
 1984              	.LVL184:
 1985              	.L131:
 1986              	.LBB389:
 1987              	.LBB390:
 133:../../libdaisy/src/hid/disp/display.h ****         currentY_ = (y >= Height()) ? Height() - 1 : y;
 1988              		.loc 3 133 33 is_stmt 0 view .LVU478
 1989 0116 3268     		ldr	r2, [r6]
 1990              	.LBE390:
 1991              	.LBE389:
 394:../../libdaisy/src/hid/disp/display.h **** 
ARM GAS  C:\Users\VINCIU~1\AppData\Local\Temp\cc6DIkXk.s 			page 62


 1992              		.loc 3 394 18 view .LVU479
 1993 0118 0BEB0504 		add	r4, fp, r5
 1994 011c 2649     		ldr	r1, .L167
 1995              	.LBB395:
 1996              	.LBB391:
 133:../../libdaisy/src/hid/disp/display.h ****         currentY_ = (y >= Height()) ? Height() - 1 : y;
 1997              		.loc 3 133 33 view .LVU480
 1998 011e D368     		ldr	r3, [r2, #12]
 1999              	.LBE391:
 2000              	.LBE395:
 394:../../libdaisy/src/hid/disp/display.h **** 
 2001              		.loc 3 394 18 view .LVU481
 2002 0120 A4B2     		uxth	r4, r4
 2003              	.LVL185:
 2004              	.LBB396:
 2005              	.LBI389:
 131:../../libdaisy/src/hid/disp/display.h ****     {
 2006              		.loc 3 131 10 is_stmt 1 view .LVU482
 2007              	.LBB392:
 133:../../libdaisy/src/hid/disp/display.h ****         currentY_ = (y >= Height()) ? Height() - 1 : y;
 2008              		.loc 3 133 9 view .LVU483
 2009 0122 8B42     		cmp	r3, r1
 2010 0124 34D1     		bne	.L163
 133:../../libdaisy/src/hid/disp/display.h ****         currentY_ = (y >= Height()) ? Height() - 1 : y;
 2011              		.loc 3 133 33 is_stmt 0 view .LVU484
 2012 0126 8020     		movs	r0, #128
 2013              	.L139:
 133:../../libdaisy/src/hid/disp/display.h ****         currentY_ = (y >= Height()) ? Height() - 1 : y;
 2014              		.loc 3 133 19 view .LVU485
 2015 0128 8442     		cmp	r4, r0
 2016 012a 04D3     		bcc	.L140
 133:../../libdaisy/src/hid/disp/display.h ****         currentY_ = (y >= Height()) ? Height() - 1 : y;
 2017              		.loc 3 133 44 view .LVU486
 2018 012c D368     		ldr	r3, [r2, #12]
 2019 012e 2249     		ldr	r1, .L167
 2020 0130 8B42     		cmp	r3, r1
 2021 0132 3AD1     		bne	.L164
 2022 0134 7F24     		movs	r4, #127
 2023              	.LVL186:
 2024              	.L140:
 134:../../libdaisy/src/hid/disp/display.h ****     }
 2025              		.loc 3 134 34 view .LVU487
 2026 0136 9368     		ldr	r3, [r2, #8]
 2027 0138 204A     		ldr	r2, .L167+4
 133:../../libdaisy/src/hid/disp/display.h ****         currentY_ = (y >= Height()) ? Height() - 1 : y;
 2028              		.loc 3 133 19 view .LVU488
 2029 013a B480     		strh	r4, [r6, #4]	@ movhi
 134:../../libdaisy/src/hid/disp/display.h ****     }
 2030              		.loc 3 134 9 is_stmt 1 view .LVU489
 2031 013c 9342     		cmp	r3, r2
 2032 013e 24D1     		bne	.L165
 134:../../libdaisy/src/hid/disp/display.h ****     }
 2033              		.loc 3 134 34 is_stmt 0 view .LVU490
 2034 0140 4020     		movs	r0, #64
 2035              	.L142:
 134:../../libdaisy/src/hid/disp/display.h ****     }
 2036              		.loc 3 134 19 view .LVU491
ARM GAS  C:\Users\VINCIU~1\AppData\Local\Temp\cc6DIkXk.s 			page 63


 2037 0142 029B     		ldr	r3, [sp, #8]
 2038 0144 8342     		cmp	r3, r0
 2039 0146 06D3     		bcc	.L143
 134:../../libdaisy/src/hid/disp/display.h ****     }
 2040              		.loc 3 134 46 view .LVU492
 2041 0148 3368     		ldr	r3, [r6]
 2042 014a 1C4A     		ldr	r2, .L167+4
 2043 014c 9B68     		ldr	r3, [r3, #8]
 2044 014e 9342     		cmp	r3, r2
 2045 0150 25D1     		bne	.L166
 2046 0152 3F23     		movs	r3, #63
 2047 0154 0293     		str	r3, [sp, #8]
 2048              	.LVL187:
 2049              	.L143:
 134:../../libdaisy/src/hid/disp/display.h ****     }
 2050              		.loc 3 134 19 view .LVU493
 2051 0156 029B     		ldr	r3, [sp, #8]
 2052 0158 F380     		strh	r3, [r6, #6]	@ movhi
 2053              	.LVL188:
 2054              	.L125:
 134:../../libdaisy/src/hid/disp/display.h ****     }
 2055              		.loc 3 134 19 view .LVU494
 2056              	.LBE392:
 2057              	.LBE396:
 2058              	.LBE358:
 2059              	.LBE357:
 404:../../libdaisy/src/hid/disp/display.h ****         {
 405:../../libdaisy/src/hid/disp/display.h ****             if(((ChildType*)(this))->ChildType::WriteChar(*str, font, on)
 406:../../libdaisy/src/hid/disp/display.h ****                != *str)
 2060              		.loc 3 406 16 view .LVU495
 2061 015a 019B     		ldr	r3, [sp, #4]
 2062 015c 1878     		ldrb	r0, [r3]	@ zero_extendqisi2
 405:../../libdaisy/src/hid/disp/display.h ****                != *str)
 2063              		.loc 3 405 13 view .LVU496
 2064 015e 4045     		cmp	r0, r8
 2065 0160 07D1     		bne	.L123
 2066              	.LVL189:
 403:../../libdaisy/src/hid/disp/display.h ****         {
 2067              		.loc 3 403 9 is_stmt 1 view .LVU497
 2068 0162 13F8018F 		ldrb	r8, [r3, #1]!	@ zero_extendqisi2
 2069              	.LVL190:
 403:../../libdaisy/src/hid/disp/display.h ****         {
 2070              		.loc 3 403 9 is_stmt 0 view .LVU498
 2071 0166 0193     		str	r3, [sp, #4]
 2072 0168 B8F1000F 		cmp	r8, #0
 2073 016c 7FF460AF 		bne	.L146
 2074              	.LVL191:
 2075              	.L145:
 2076              	.LBB401:
 2077              	.LBB399:
 362:../../libdaisy/src/hid/disp/display.h **** 
 2078              		.loc 3 362 20 view .LVU499
 2079 0170 0020     		movs	r0, #0
 2080              	.L123:
 2081              	.LBE399:
 2082              	.LBE401:
 407:../../libdaisy/src/hid/disp/display.h ****             {
ARM GAS  C:\Users\VINCIU~1\AppData\Local\Temp\cc6DIkXk.s 			page 64


 408:../../libdaisy/src/hid/disp/display.h ****                 // Char could not be written
 409:../../libdaisy/src/hid/disp/display.h ****                 return *str;
 410:../../libdaisy/src/hid/disp/display.h ****             }
 411:../../libdaisy/src/hid/disp/display.h **** 
 412:../../libdaisy/src/hid/disp/display.h ****             // Next char
 413:../../libdaisy/src/hid/disp/display.h ****             str++;
 414:../../libdaisy/src/hid/disp/display.h ****         }
 415:../../libdaisy/src/hid/disp/display.h **** 
 416:../../libdaisy/src/hid/disp/display.h ****         // Everything ok
 417:../../libdaisy/src/hid/disp/display.h ****         return *str;
 418:../../libdaisy/src/hid/disp/display.h ****     }
 2083              		.loc 3 418 5 view .LVU500
 2084 0172 09B0     		add	sp, sp, #36
 2085              		.cfi_remember_state
 2086              		.cfi_def_cfa_offset 36
 2087              		@ sp needed
 2088 0174 BDE8F08F 		pop	{r4, r5, r6, r7, r8, r9, r10, fp, pc}
 2089              	.LVL192:
 2090              	.L127:
 2091              		.cfi_restore_state
 2092              	.LBB402:
 2093              	.LBB400:
 362:../../libdaisy/src/hid/disp/display.h **** 
 2094              		.loc 3 362 20 view .LVU501
 2095 0178 4FF00008 		mov	r8, #0
 2096              	.LVL193:
 362:../../libdaisy/src/hid/disp/display.h **** 
 2097              		.loc 3 362 20 view .LVU502
 2098 017c EDE7     		b	.L125
 2099              	.LVL194:
 2100              	.L160:
 365:../../libdaisy/src/hid/disp/display.h ****            || Height() < (currentY_ + font.FontHeight))
 2101              		.loc 3 365 17 view .LVU503
 2102 017e 3046     		mov	r0, r6
 2103 0180 9847     		blx	r3
 2104              	.LVL195:
 2105 0182 62E7     		b	.L126
 2106              	.L161:
 366:../../libdaisy/src/hid/disp/display.h ****         {
 2107              		.loc 3 366 21 view .LVU504
 2108 0184 3046     		mov	r0, r6
 2109 0186 9847     		blx	r3
 2110              	.LVL196:
 2111 0188 6BE7     		b	.L128
 2112              	.LVL197:
 2113              	.L165:
 2114              	.LBB397:
 2115              	.LBB393:
 134:../../libdaisy/src/hid/disp/display.h ****     }
 2116              		.loc 3 134 33 view .LVU505
 2117 018a 3046     		mov	r0, r6
 2118 018c 9847     		blx	r3
 2119              	.LVL198:
 2120 018e D8E7     		b	.L142
 2121              	.LVL199:
 2122              	.L163:
 133:../../libdaisy/src/hid/disp/display.h ****         currentY_ = (y >= Height()) ? Height() - 1 : y;
ARM GAS  C:\Users\VINCIU~1\AppData\Local\Temp\cc6DIkXk.s 			page 65


 2123              		.loc 3 133 32 view .LVU506
 2124 0190 3046     		mov	r0, r6
 2125 0192 9847     		blx	r3
 2126              	.LVL200:
 133:../../libdaisy/src/hid/disp/display.h ****         currentY_ = (y >= Height()) ? Height() - 1 : y;
 2127              		.loc 3 133 44 view .LVU507
 2128 0194 3268     		ldr	r2, [r6]
 2129 0196 C7E7     		b	.L139
 2130              	.LVL201:
 2131              	.L129:
 133:../../libdaisy/src/hid/disp/display.h ****         currentY_ = (y >= Height()) ? Height() - 1 : y;
 2132              		.loc 3 133 44 view .LVU508
 2133              	.LBE393:
 2134              	.LBE397:
 394:../../libdaisy/src/hid/disp/display.h **** 
 2135              		.loc 3 394 19 view .LVU509
 2136 0198 B6F804B0 		ldrh	fp, [r6, #4]
 2137 019c BBE7     		b	.L131
 2138              	.LVL202:
 2139              	.L166:
 2140              	.LBB398:
 2141              	.LBB394:
 134:../../libdaisy/src/hid/disp/display.h ****     }
 2142              		.loc 3 134 45 view .LVU510
 2143 019e 3046     		mov	r0, r6
 2144 01a0 9847     		blx	r3
 2145              	.LVL203:
 134:../../libdaisy/src/hid/disp/display.h ****     }
 2146              		.loc 3 134 19 view .LVU511
 2147 01a2 0138     		subs	r0, r0, #1
 2148 01a4 83B2     		uxth	r3, r0
 2149 01a6 0293     		str	r3, [sp, #8]
 2150              	.LVL204:
 134:../../libdaisy/src/hid/disp/display.h ****     }
 2151              		.loc 3 134 19 view .LVU512
 2152 01a8 D5E7     		b	.L143
 2153              	.LVL205:
 2154              	.L164:
 133:../../libdaisy/src/hid/disp/display.h ****         currentY_ = (y >= Height()) ? Height() - 1 : y;
 2155              		.loc 3 133 43 view .LVU513
 2156 01aa 3046     		mov	r0, r6
 2157 01ac 9847     		blx	r3
 2158              	.LVL206:
 133:../../libdaisy/src/hid/disp/display.h ****         currentY_ = (y >= Height()) ? Height() - 1 : y;
 2159              		.loc 3 133 19 view .LVU514
 2160 01ae 0138     		subs	r0, r0, #1
 134:../../libdaisy/src/hid/disp/display.h ****     }
 2161              		.loc 3 134 34 view .LVU515
 2162 01b0 3268     		ldr	r2, [r6]
 133:../../libdaisy/src/hid/disp/display.h ****         currentY_ = (y >= Height()) ? Height() - 1 : y;
 2163              		.loc 3 133 19 view .LVU516
 2164 01b2 84B2     		uxth	r4, r0
 2165              	.LVL207:
 133:../../libdaisy/src/hid/disp/display.h ****         currentY_ = (y >= Height()) ? Height() - 1 : y;
 2166              		.loc 3 133 19 view .LVU517
 2167 01b4 BFE7     		b	.L140
 2168              	.L168:
ARM GAS  C:\Users\VINCIU~1\AppData\Local\Temp\cc6DIkXk.s 			page 66


 2169 01b6 00BF     		.align	2
 2170              	.L167:
 2171 01b8 00000000 		.word	_ZNK5daisy11OledDisplayINS_13SSD130xDriverILj128ELj64ENS_24SSD130x4WireSpiTransportEEEE5Widt
 2172 01bc 00000000 		.word	_ZNK5daisy11OledDisplayINS_13SSD130xDriverILj128ELj64ENS_24SSD130x4WireSpiTransportEEEE6Heig
 2173              	.LBE394:
 2174              	.LBE398:
 2175              	.LBE400:
 2176              	.LBE402:
 2177              		.cfi_endproc
 2178              	.LFE1839:
 2180              		.section	.text._ZN5daisy25OneBitGraphicsDisplayImplINS_11OledDisplayINS_13SSD130xDriverILj128ELj64
 2181              		.align	1
 2182              		.p2align 2,,3
 2183              		.weak	_ZN5daisy25OneBitGraphicsDisplayImplINS_11OledDisplayINS_13SSD130xDriverILj128ELj64ENS_24SSD
 2184              		.syntax unified
 2185              		.thumb
 2186              		.thumb_func
 2187              		.fpu fpv5-d16
 2189              	_ZN5daisy25OneBitGraphicsDisplayImplINS_11OledDisplayINS_13SSD130xDriverILj128ELj64ENS_24SSD130x4Wi
 2190              	.LVL208:
 2191              	.LFB1849:
 356:../../libdaisy/src/hid/disp/display.h ****     {
 2192              		.loc 3 356 10 is_stmt 1 view -0
 2193              		.cfi_startproc
 2194              		@ args = 4, pretend = 0, frame = 16
 2195              		@ frame_needed = 0, uses_anonymous_args = 0
 356:../../libdaisy/src/hid/disp/display.h ****     {
 2196              		.loc 3 356 10 is_stmt 0 view .LVU519
 2197 0000 2DE9F04F 		push	{r4, r5, r6, r7, r8, r9, r10, fp, lr}
 2198              		.cfi_def_cfa_offset 36
 2199              		.cfi_offset 4, -36
 2200              		.cfi_offset 5, -32
 2201              		.cfi_offset 6, -28
 2202              		.cfi_offset 7, -24
 2203              		.cfi_offset 8, -20
 2204              		.cfi_offset 9, -16
 2205              		.cfi_offset 10, -12
 2206              		.cfi_offset 11, -8
 2207              		.cfi_offset 14, -4
 2208 0004 85B0     		sub	sp, sp, #20
 2209              		.cfi_def_cfa_offset 56
 2210              	.LVL209:
 361:../../libdaisy/src/hid/disp/display.h ****             return 0;
 2211              		.loc 3 361 20 view .LVU520
 2212 0006 A1F12005 		sub	r5, r1, #32
 356:../../libdaisy/src/hid/disp/display.h ****     {
 2213              		.loc 3 356 10 view .LVU521
 2214 000a 04AC     		add	r4, sp, #16
 2215 000c 9DF83870 		ldrb	r7, [sp, #56]	@ zero_extendqisi2
 2216 0010 0091     		str	r1, [sp]
 2217 0012 04E90C00 		stmdb	r4, {r2, r3}
 2218              	.LVL210:
 361:../../libdaisy/src/hid/disp/display.h ****             return 0;
 2219              		.loc 3 361 9 view .LVU522
 2220 0016 EBB2     		uxtb	r3, r5
 2221 0018 5E2B     		cmp	r3, #94
 2222 001a 00F29580 		bhi	.L173
ARM GAS  C:\Users\VINCIU~1\AppData\Local\Temp\cc6DIkXk.s 			page 67


 365:../../libdaisy/src/hid/disp/display.h ****            || Height() < (currentY_ + font.FontHeight))
 2223              		.loc 3 365 17 view .LVU523
 2224 001e 0368     		ldr	r3, [r0]
 2225 0020 8046     		mov	r8, r0
 2226 0022 5D4A     		ldr	r2, .L208
 2227 0024 DB68     		ldr	r3, [r3, #12]
 2228 0026 9DF80840 		ldrb	r4, [sp, #8]	@ zero_extendqisi2
 2229 002a 9342     		cmp	r3, r2
 2230 002c 9DF80960 		ldrb	r6, [sp, #9]	@ zero_extendqisi2
 2231 0030 40F09480 		bne	.L200
 2232 0034 8020     		movs	r0, #128
 2233              	.LVL211:
 2234              	.L172:
 365:../../libdaisy/src/hid/disp/display.h ****            || Height() < (currentY_ + font.FontHeight))
 2235              		.loc 3 365 23 view .LVU524
 2236 0036 B8F80430 		ldrh	r3, [r8, #4]
 365:../../libdaisy/src/hid/disp/display.h ****            || Height() < (currentY_ + font.FontHeight))
 2237              		.loc 3 365 33 view .LVU525
 2238 003a 2344     		add	r3, r3, r4
 366:../../libdaisy/src/hid/disp/display.h ****         {
 2239              		.loc 3 366 12 view .LVU526
 2240 003c 8342     		cmp	r3, r0
 2241 003e 00F38380 		bgt	.L173
 366:../../libdaisy/src/hid/disp/display.h ****         {
 2242              		.loc 3 366 21 discriminator 2 view .LVU527
 2243 0042 D8F80030 		ldr	r3, [r8]
 2244 0046 554A     		ldr	r2, .L208+4
 2245 0048 9B68     		ldr	r3, [r3, #8]
 2246 004a 9342     		cmp	r3, r2
 2247 004c 40F08880 		bne	.L201
 366:../../libdaisy/src/hid/disp/display.h ****         {
 2248              		.loc 3 366 21 view .LVU528
 2249 0050 4020     		movs	r0, #64
 2250              	.L174:
 366:../../libdaisy/src/hid/disp/display.h ****         {
 2251              		.loc 3 366 27 discriminator 2 view .LVU529
 2252 0052 B8F80620 		ldrh	r2, [r8, #6]
 366:../../libdaisy/src/hid/disp/display.h ****         {
 2253              		.loc 3 366 37 discriminator 2 view .LVU530
 2254 0056 9319     		adds	r3, r2, r6
 366:../../libdaisy/src/hid/disp/display.h ****         {
 2255              		.loc 3 366 27 discriminator 2 view .LVU531
 2256 0058 0192     		str	r2, [sp, #4]
 366:../../libdaisy/src/hid/disp/display.h ****         {
 2257              		.loc 3 366 12 discriminator 2 view .LVU532
 2258 005a 8342     		cmp	r3, r0
 2259 005c 74DC     		bgt	.L173
 2260              	.LVL212:
 373:../../libdaisy/src/hid/disp/display.h ****         {
 2261              		.loc 3 373 22 is_stmt 1 view .LVU533
 2262 005e 002E     		cmp	r6, #0
 2263 0060 00F08980 		beq	.L175
 375:../../libdaisy/src/hid/disp/display.h ****             for(j = 0; j < font.FontWidth; j++)
 2264              		.loc 3 375 37 is_stmt 0 view .LVU534
 2265 0064 06FB05F5 		mul	r5, r6, r5
 2266 0068 6FF00040 		mvn	r0, #-2147483648
 375:../../libdaisy/src/hid/disp/display.h ****             for(j = 0; j < font.FontWidth; j++)
ARM GAS  C:\Users\VINCIU~1\AppData\Local\Temp\cc6DIkXk.s 			page 68


 2267              		.loc 3 375 22 view .LVU535
 2268 006c 039B     		ldr	r3, [sp, #12]
 2269 006e 9646     		mov	lr, r2
 2270 0070 2844     		add	r0, r0, r5
 2271 0072 2E44     		add	r6, r6, r5
 394:../../libdaisy/src/hid/disp/display.h **** 
 2272              		.loc 3 394 19 view .LVU536
 2273 0074 B8F804A0 		ldrh	r10, [r8, #4]
 2274 0078 03EB4000 		add	r0, r3, r0, lsl #1
 2275 007c 023B     		subs	r3, r3, #2
 2276 007e 03EB460B 		add	fp, r3, r6, lsl #1
 2277              	.LVL213:
 2278              	.L178:
 375:../../libdaisy/src/hid/disp/display.h ****             for(j = 0; j < font.FontWidth; j++)
 2279              		.loc 3 375 15 view .LVU537
 2280 0082 30F8026F 		ldrh	r6, [r0, #2]!
 2281              	.LVL214:
 376:../../libdaisy/src/hid/disp/display.h ****             {
 2282              		.loc 3 376 26 is_stmt 1 view .LVU538
 2283 0086 BCB3     		cbz	r4, .L183
 2284              	.LBB429:
 2285              	.LBB430:
 2286              	.LBB431:
 2287              	.LBB432:
 2288              	.LBB433:
 246:../../libdaisy/src/dev/oled_ssd130x.h ****     }
 2289              		.loc 4 246 55 is_stmt 0 view .LVU539
 2290 0088 0EF00703 		and	r3, lr, #7
 246:../../libdaisy/src/dev/oled_ssd130x.h ****     }
 2291              		.loc 4 246 49 view .LVU540
 2292 008c 4FF0010C 		mov	ip, #1
 246:../../libdaisy/src/dev/oled_ssd130x.h ****     }
 2293              		.loc 4 246 28 view .LVU541
 2294 0090 4FEADE02 		lsr	r2, lr, #3
 2295 0094 5146     		mov	r1, r10
 246:../../libdaisy/src/dev/oled_ssd130x.h ****     }
 2296              		.loc 4 246 49 view .LVU542
 2297 0096 0CFA03FC 		lsl	ip, ip, r3
 2298 009a 0AF11403 		add	r3, r10, #20
 246:../../libdaisy/src/dev/oled_ssd130x.h ****     }
 2299              		.loc 4 246 42 view .LVU543
 2300 009e 4FFA8CFC 		sxtb	ip, ip
 2301 00a2 03EBC212 		add	r2, r3, r2, lsl #7
 2302              	.LBE433:
 2303              	.LBE432:
 2304              	.LBE431:
 2305              	.LBE430:
 2306              	.LBE429:
 376:../../libdaisy/src/hid/disp/display.h ****             {
 2307              		.loc 3 376 19 view .LVU544
 2308 00a6 0023     		movs	r3, #0
 2309              	.LBB451:
 2310              	.LBB446:
 2311              	.LBB441:
 2312              	.LBB437:
 2313              	.LBB434:
 246:../../libdaisy/src/dev/oled_ssd130x.h ****     }
ARM GAS  C:\Users\VINCIU~1\AppData\Local\Temp\cc6DIkXk.s 			page 69


 2314              		.loc 4 246 42 view .LVU545
 2315 00a8 6FEA0C09 		mvn	r9, ip
 2316 00ac 4244     		add	r2, r2, r8
 2317 00ae 0EE0     		b	.L184
 2318              	.LVL215:
 2319              	.L202:
 246:../../libdaisy/src/dev/oled_ssd130x.h ****     }
 2320              		.loc 4 246 42 view .LVU546
 2321              	.LBE434:
 2322              	.LBE437:
 2323              	.LBE441:
 2324              	.LBE446:
 2325              	.LBE451:
 2326              	.LBB452:
 2327              	.LBI452:
  41:../../libdaisy/src/hid/disp/oled_display.h ****     {
 2328              		.loc 2 41 10 is_stmt 1 view .LVU547
 2329              	.LBB453:
 2330              	.LBI453:
 239:../../libdaisy/src/dev/oled_ssd130x.h ****     {
 2331              		.loc 4 239 10 view .LVU548
 2332              	.LBB454:
 241:../../libdaisy/src/dev/oled_ssd130x.h ****             return;
 2333              		.loc 4 241 9 is_stmt 0 view .LVU549
 2334 00b0 7F29     		cmp	r1, #127
 2335 00b2 07D8     		bhi	.L180
 2336 00b4 BEF13F0F 		cmp	lr, #63
 2337 00b8 04D8     		bhi	.L180
 244:../../libdaisy/src/dev/oled_ssd130x.h ****         else
 2338              		.loc 4 244 42 view .LVU550
 2339 00ba 1578     		ldrb	r5, [r2]	@ zero_extendqisi2
 243:../../libdaisy/src/dev/oled_ssd130x.h ****             buffer_[x + (y / 8) * width] |= (1 << (y % 8));
 2340              		.loc 4 243 9 view .LVU551
 2341 00bc 9FB1     		cbz	r7, .L182
 2342              	.L199:
 243:../../libdaisy/src/dev/oled_ssd130x.h ****             buffer_[x + (y / 8) * width] |= (1 << (y % 8));
 2343              		.loc 4 243 9 view .LVU552
 2344              	.LBE454:
 2345              	.LBE453:
 2346              	.LBE452:
 2347              	.LBB455:
 2348              	.LBB447:
 2349              	.LBB442:
 244:../../libdaisy/src/dev/oled_ssd130x.h ****         else
 2350              		.loc 4 244 42 view .LVU553
 2351 00be 4CEA0505 		orr	r5, ip, r5
 2352 00c2 1570     		strb	r5, [r2]
 2353              	.L180:
 2354              	.LBE442:
 2355              	.LBE447:
 2356              	.LBE455:
 376:../../libdaisy/src/hid/disp/display.h ****             {
 2357              		.loc 3 376 13 is_stmt 1 discriminator 2 view .LVU554
 2358 00c4 0133     		adds	r3, r3, #1
 2359              	.LVL216:
 376:../../libdaisy/src/hid/disp/display.h ****             {
 2360              		.loc 3 376 26 discriminator 2 view .LVU555
ARM GAS  C:\Users\VINCIU~1\AppData\Local\Temp\cc6DIkXk.s 			page 70


 2361 00c6 0132     		adds	r2, r2, #1
 2362 00c8 0131     		adds	r1, r1, #1
 2363 00ca 9C42     		cmp	r4, r3
 2364 00cc 14D0     		beq	.L183
 2365              	.LVL217:
 2366              	.L184:
 378:../../libdaisy/src/hid/disp/display.h ****                 {
 2367              		.loc 3 378 23 is_stmt 0 view .LVU556
 2368 00ce 06FA03F5 		lsl	r5, r6, r3
 378:../../libdaisy/src/hid/disp/display.h ****                 {
 2369              		.loc 3 378 17 view .LVU557
 2370 00d2 2D04     		lsls	r5, r5, #16
 2371 00d4 ECD4     		bmi	.L202
 2372              	.LVL218:
 2373              	.LBB456:
 2374              	.LBI429:
  41:../../libdaisy/src/hid/disp/oled_display.h ****     {
 2375              		.loc 2 41 10 is_stmt 1 view .LVU558
 2376              	.LBB448:
 2377              	.LBI430:
 239:../../libdaisy/src/dev/oled_ssd130x.h ****     {
 2378              		.loc 4 239 10 view .LVU559
 2379              	.LBB443:
 241:../../libdaisy/src/dev/oled_ssd130x.h ****             return;
 2380              		.loc 4 241 9 is_stmt 0 view .LVU560
 2381 00d6 7F29     		cmp	r1, #127
 2382 00d8 F4D8     		bhi	.L180
 2383 00da BEF13F0F 		cmp	lr, #63
 2384 00de F1D8     		bhi	.L180
 244:../../libdaisy/src/dev/oled_ssd130x.h ****         else
 2385              		.loc 4 244 42 view .LVU561
 2386 00e0 1578     		ldrb	r5, [r2]	@ zero_extendqisi2
 243:../../libdaisy/src/dev/oled_ssd130x.h ****             buffer_[x + (y / 8) * width] |= (1 << (y % 8));
 2387              		.loc 4 243 9 view .LVU562
 2388 00e2 002F     		cmp	r7, #0
 2389 00e4 EBD0     		beq	.L199
 2390              	.L182:
 2391              	.LVL219:
 2392              	.LBB438:
 2393              	.LBI432:
 239:../../libdaisy/src/dev/oled_ssd130x.h ****     {
 2394              		.loc 4 239 10 is_stmt 1 view .LVU563
 239:../../libdaisy/src/dev/oled_ssd130x.h ****     {
 2395              		.loc 4 239 10 is_stmt 0 view .LVU564
 2396              	.LBE438:
 2397              	.LBE443:
 2398              	.LBE448:
 2399              	.LBE456:
 376:../../libdaisy/src/hid/disp/display.h ****             {
 2400              		.loc 3 376 13 view .LVU565
 2401 00e6 0133     		adds	r3, r3, #1
 2402              	.LVL220:
 2403              	.LBB457:
 2404              	.LBB449:
 2405              	.LBB444:
 2406              	.LBB439:
 2407              	.LBB435:
ARM GAS  C:\Users\VINCIU~1\AppData\Local\Temp\cc6DIkXk.s 			page 71


 246:../../libdaisy/src/dev/oled_ssd130x.h ****     }
 2408              		.loc 4 246 42 view .LVU566
 2409 00e8 09EA0505 		and	r5, r9, r5
 2410              	.LBE435:
 2411              	.LBE439:
 2412              	.LBE444:
 2413              	.LBE449:
 2414              	.LBE457:
 376:../../libdaisy/src/hid/disp/display.h ****             {
 2415              		.loc 3 376 26 view .LVU567
 2416 00ec 0132     		adds	r2, r2, #1
 2417 00ee 0131     		adds	r1, r1, #1
 2418 00f0 9C42     		cmp	r4, r3
 2419              	.LBB458:
 2420              	.LBB450:
 2421              	.LBB445:
 2422              	.LBB440:
 2423              	.LBB436:
 246:../../libdaisy/src/dev/oled_ssd130x.h ****     }
 2424              		.loc 4 246 42 view .LVU568
 2425 00f2 02F8015C 		strb	r5, [r2, #-1]
 246:../../libdaisy/src/dev/oled_ssd130x.h ****     }
 2426              		.loc 4 246 42 view .LVU569
 2427              	.LBE436:
 2428              	.LBE440:
 2429              	.LBE445:
 2430              	.LBE450:
 2431              	.LBE458:
 376:../../libdaisy/src/hid/disp/display.h ****             {
 2432              		.loc 3 376 13 is_stmt 1 view .LVU570
 2433              	.LVL221:
 376:../../libdaisy/src/hid/disp/display.h ****             {
 2434              		.loc 3 376 26 view .LVU571
 2435 00f6 EAD1     		bne	.L184
 2436              	.LVL222:
 2437              	.L183:
 373:../../libdaisy/src/hid/disp/display.h ****         {
 2438              		.loc 3 373 9 view .LVU572
 373:../../libdaisy/src/hid/disp/display.h ****         {
 2439              		.loc 3 373 22 view .LVU573
 2440 00f8 5845     		cmp	r0, fp
 2441 00fa 0EF1010E 		add	lr, lr, #1
 2442 00fe C0D1     		bne	.L178
 2443              	.LVL223:
 2444              	.L177:
 2445              	.LBB459:
 2446              	.LBB460:
 133:../../libdaisy/src/hid/disp/display.h ****         currentY_ = (y >= Height()) ? Height() - 1 : y;
 2447              		.loc 3 133 33 is_stmt 0 view .LVU574
 2448 0100 D8F80030 		ldr	r3, [r8]
 2449              	.LBE460:
 2450              	.LBE459:
 394:../../libdaisy/src/hid/disp/display.h **** 
 2451              		.loc 3 394 18 view .LVU575
 2452 0104 5444     		add	r4, r4, r10
 2453 0106 2449     		ldr	r1, .L208
 2454              	.LBB466:
ARM GAS  C:\Users\VINCIU~1\AppData\Local\Temp\cc6DIkXk.s 			page 72


 2455              	.LBB461:
 133:../../libdaisy/src/hid/disp/display.h ****         currentY_ = (y >= Height()) ? Height() - 1 : y;
 2456              		.loc 3 133 33 view .LVU576
 2457 0108 DA68     		ldr	r2, [r3, #12]
 2458              	.LBE461:
 2459              	.LBE466:
 394:../../libdaisy/src/hid/disp/display.h **** 
 2460              		.loc 3 394 18 view .LVU577
 2461 010a A4B2     		uxth	r4, r4
 2462              	.LVL224:
 2463              	.LBB467:
 2464              	.LBI459:
 131:../../libdaisy/src/hid/disp/display.h ****     {
 2465              		.loc 3 131 10 is_stmt 1 view .LVU578
 2466              	.LBB462:
 133:../../libdaisy/src/hid/disp/display.h ****         currentY_ = (y >= Height()) ? Height() - 1 : y;
 2467              		.loc 3 133 9 view .LVU579
 2468 010c 8A42     		cmp	r2, r1
 2469 010e 2DD1     		bne	.L203
 133:../../libdaisy/src/hid/disp/display.h ****         currentY_ = (y >= Height()) ? Height() - 1 : y;
 2470              		.loc 3 133 33 is_stmt 0 view .LVU580
 2471 0110 8020     		movs	r0, #128
 2472              	.L185:
 133:../../libdaisy/src/hid/disp/display.h ****         currentY_ = (y >= Height()) ? Height() - 1 : y;
 2473              		.loc 3 133 19 view .LVU581
 2474 0112 8442     		cmp	r4, r0
 2475 0114 1CD2     		bcs	.L204
 2476              	.LVL225:
 2477              	.L186:
 134:../../libdaisy/src/hid/disp/display.h ****     }
 2478              		.loc 3 134 34 view .LVU582
 2479 0116 9B68     		ldr	r3, [r3, #8]
 2480 0118 204A     		ldr	r2, .L208+4
 133:../../libdaisy/src/hid/disp/display.h ****         currentY_ = (y >= Height()) ? Height() - 1 : y;
 2481              		.loc 3 133 19 view .LVU583
 2482 011a A8F80440 		strh	r4, [r8, #4]	@ movhi
 134:../../libdaisy/src/hid/disp/display.h ****     }
 2483              		.loc 3 134 9 is_stmt 1 view .LVU584
 2484 011e 9342     		cmp	r3, r2
 2485 0120 21D1     		bne	.L205
 134:../../libdaisy/src/hid/disp/display.h ****     }
 2486              		.loc 3 134 34 is_stmt 0 view .LVU585
 2487 0122 4020     		movs	r0, #64
 2488              	.L188:
 134:../../libdaisy/src/hid/disp/display.h ****     }
 2489              		.loc 3 134 19 view .LVU586
 2490 0124 019B     		ldr	r3, [sp, #4]
 2491 0126 8342     		cmp	r3, r0
 2492 0128 07D3     		bcc	.L189
 134:../../libdaisy/src/hid/disp/display.h ****     }
 2493              		.loc 3 134 46 view .LVU587
 2494 012a D8F80030 		ldr	r3, [r8]
 2495 012e 1B4A     		ldr	r2, .L208+4
 2496 0130 9B68     		ldr	r3, [r3, #8]
 2497 0132 9342     		cmp	r3, r2
 2498 0134 29D1     		bne	.L206
 2499 0136 3F23     		movs	r3, #63
ARM GAS  C:\Users\VINCIU~1\AppData\Local\Temp\cc6DIkXk.s 			page 73


 2500 0138 0193     		str	r3, [sp, #4]
 2501              	.LVL226:
 2502              	.L189:
 134:../../libdaisy/src/hid/disp/display.h ****     }
 2503              		.loc 3 134 19 view .LVU588
 2504 013a DDE90003 		ldrd	r0, r3, [sp]
 2505 013e A8F80630 		strh	r3, [r8, #6]	@ movhi
 2506              	.LVL227:
 134:../../libdaisy/src/hid/disp/display.h ****     }
 2507              		.loc 3 134 19 view .LVU589
 2508              	.LBE462:
 2509              	.LBE467:
 398:../../libdaisy/src/hid/disp/display.h **** 
 2510              		.loc 3 398 5 view .LVU590
 2511 0142 05B0     		add	sp, sp, #20
 2512              		.cfi_remember_state
 2513              		.cfi_def_cfa_offset 36
 2514              		@ sp needed
 2515 0144 BDE8F08F 		pop	{r4, r5, r6, r7, r8, r9, r10, fp, pc}
 2516              	.LVL228:
 2517              	.L173:
 2518              		.cfi_restore_state
 362:../../libdaisy/src/hid/disp/display.h **** 
 2519              		.loc 3 362 20 view .LVU591
 2520 0148 0020     		movs	r0, #0
 398:../../libdaisy/src/hid/disp/display.h **** 
 2521              		.loc 3 398 5 view .LVU592
 2522 014a 05B0     		add	sp, sp, #20
 2523              		.cfi_remember_state
 2524              		.cfi_def_cfa_offset 36
 2525              		@ sp needed
 2526 014c BDE8F08F 		pop	{r4, r5, r6, r7, r8, r9, r10, fp, pc}
 2527              	.LVL229:
 2528              	.L204:
 2529              		.cfi_restore_state
 2530              	.LBB468:
 2531              	.LBB463:
 133:../../libdaisy/src/hid/disp/display.h ****         currentY_ = (y >= Height()) ? Height() - 1 : y;
 2532              		.loc 3 133 44 view .LVU593
 2533 0150 DA68     		ldr	r2, [r3, #12]
 2534 0152 1149     		ldr	r1, .L208
 2535 0154 8A42     		cmp	r2, r1
 2536 0156 11D1     		bne	.L207
 2537 0158 7F24     		movs	r4, #127
 2538              	.LVL230:
 133:../../libdaisy/src/hid/disp/display.h ****         currentY_ = (y >= Height()) ? Height() - 1 : y;
 2539              		.loc 3 133 44 view .LVU594
 2540 015a DCE7     		b	.L186
 2541              	.LVL231:
 2542              	.L200:
 133:../../libdaisy/src/hid/disp/display.h ****         currentY_ = (y >= Height()) ? Height() - 1 : y;
 2543              		.loc 3 133 44 view .LVU595
 2544              	.LBE463:
 2545              	.LBE468:
 365:../../libdaisy/src/hid/disp/display.h ****            || Height() < (currentY_ + font.FontHeight))
 2546              		.loc 3 365 17 view .LVU596
 2547 015c 9847     		blx	r3
ARM GAS  C:\Users\VINCIU~1\AppData\Local\Temp\cc6DIkXk.s 			page 74


 2548              	.LVL232:
 365:../../libdaisy/src/hid/disp/display.h ****            || Height() < (currentY_ + font.FontHeight))
 2549              		.loc 3 365 17 view .LVU597
 2550 015e 6AE7     		b	.L172
 2551              	.L201:
 366:../../libdaisy/src/hid/disp/display.h ****         {
 2552              		.loc 3 366 21 discriminator 2 view .LVU598
 2553 0160 4046     		mov	r0, r8
 2554 0162 9847     		blx	r3
 2555              	.LVL233:
 2556 0164 75E7     		b	.L174
 2557              	.LVL234:
 2558              	.L205:
 2559              	.LBB469:
 2560              	.LBB464:
 134:../../libdaisy/src/hid/disp/display.h ****     }
 2561              		.loc 3 134 33 view .LVU599
 2562 0166 4046     		mov	r0, r8
 2563 0168 9847     		blx	r3
 2564              	.LVL235:
 2565 016a DBE7     		b	.L188
 2566              	.LVL236:
 2567              	.L203:
 133:../../libdaisy/src/hid/disp/display.h ****         currentY_ = (y >= Height()) ? Height() - 1 : y;
 2568              		.loc 3 133 32 view .LVU600
 2569 016c 4046     		mov	r0, r8
 2570 016e 9047     		blx	r2
 2571              	.LVL237:
 133:../../libdaisy/src/hid/disp/display.h ****         currentY_ = (y >= Height()) ? Height() - 1 : y;
 2572              		.loc 3 133 44 view .LVU601
 2573 0170 D8F80030 		ldr	r3, [r8]
 2574 0174 CDE7     		b	.L185
 2575              	.LVL238:
 2576              	.L175:
 133:../../libdaisy/src/hid/disp/display.h ****         currentY_ = (y >= Height()) ? Height() - 1 : y;
 2577              		.loc 3 133 44 view .LVU602
 2578              	.LBE464:
 2579              	.LBE469:
 394:../../libdaisy/src/hid/disp/display.h **** 
 2580              		.loc 3 394 19 view .LVU603
 2581 0176 B8F804A0 		ldrh	r10, [r8, #4]
 2582 017a C1E7     		b	.L177
 2583              	.LVL239:
 2584              	.L207:
 2585              	.LBB470:
 2586              	.LBB465:
 133:../../libdaisy/src/hid/disp/display.h ****         currentY_ = (y >= Height()) ? Height() - 1 : y;
 2587              		.loc 3 133 43 view .LVU604
 2588 017c 4046     		mov	r0, r8
 2589 017e 9047     		blx	r2
 2590              	.LVL240:
 133:../../libdaisy/src/hid/disp/display.h ****         currentY_ = (y >= Height()) ? Height() - 1 : y;
 2591              		.loc 3 133 19 view .LVU605
 2592 0180 0138     		subs	r0, r0, #1
 134:../../libdaisy/src/hid/disp/display.h ****     }
 2593              		.loc 3 134 34 view .LVU606
 2594 0182 D8F80030 		ldr	r3, [r8]
ARM GAS  C:\Users\VINCIU~1\AppData\Local\Temp\cc6DIkXk.s 			page 75


 133:../../libdaisy/src/hid/disp/display.h ****         currentY_ = (y >= Height()) ? Height() - 1 : y;
 2595              		.loc 3 133 19 view .LVU607
 2596 0186 84B2     		uxth	r4, r0
 2597              	.LVL241:
 133:../../libdaisy/src/hid/disp/display.h ****         currentY_ = (y >= Height()) ? Height() - 1 : y;
 2598              		.loc 3 133 19 view .LVU608
 2599 0188 C5E7     		b	.L186
 2600              	.L206:
 134:../../libdaisy/src/hid/disp/display.h ****     }
 2601              		.loc 3 134 45 view .LVU609
 2602 018a 4046     		mov	r0, r8
 2603 018c 9847     		blx	r3
 2604              	.LVL242:
 134:../../libdaisy/src/hid/disp/display.h ****     }
 2605              		.loc 3 134 19 view .LVU610
 2606 018e 0138     		subs	r0, r0, #1
 2607 0190 83B2     		uxth	r3, r0
 2608 0192 0193     		str	r3, [sp, #4]
 2609              	.LVL243:
 134:../../libdaisy/src/hid/disp/display.h ****     }
 2610              		.loc 3 134 19 view .LVU611
 2611 0194 D1E7     		b	.L189
 2612              	.L209:
 2613 0196 00BF     		.align	2
 2614              	.L208:
 2615 0198 00000000 		.word	_ZNK5daisy11OledDisplayINS_13SSD130xDriverILj128ELj64ENS_24SSD130x4WireSpiTransportEEEE5Widt
 2616 019c 00000000 		.word	_ZNK5daisy11OledDisplayINS_13SSD130xDriverILj128ELj64ENS_24SSD130x4WireSpiTransportEEEE6Heig
 2617              	.LBE465:
 2618              	.LBE470:
 2619              		.cfi_endproc
 2620              	.LFE1849:
 2622              		.section	.text._ZN5daisy25OneBitGraphicsDisplayImplINS_11OledDisplayINS_13SSD130xDriverILj128ELj64
 2623              		.align	1
 2624              		.p2align 2,,3
 2625              		.weak	_ZN5daisy25OneBitGraphicsDisplayImplINS_11OledDisplayINS_13SSD130xDriverILj128ELj64ENS_24SSD
 2626              		.syntax unified
 2627              		.thumb
 2628              		.thumb_func
 2629              		.fpu fpv5-d16
 2631              	_ZN5daisy25OneBitGraphicsDisplayImplINS_11OledDisplayINS_13SSD130xDriverILj128ELj64ENS_24SSD130x4Wi
 2632              	.LVL244:
 2633              	.LFB1837:
 217:../../libdaisy/src/hid/disp/display.h ****                   uint_fast8_t y1,
 2634              		.loc 3 217 10 is_stmt 1 view -0
 2635              		.cfi_startproc
 2636              		@ args = 12, pretend = 0, frame = 24
 2637              		@ frame_needed = 0, uses_anonymous_args = 0
 217:../../libdaisy/src/hid/disp/display.h ****                   uint_fast8_t y1,
 2638              		.loc 3 217 10 is_stmt 0 view .LVU613
 2639 0000 2DE9F04F 		push	{r4, r5, r6, r7, r8, r9, r10, fp, lr}
 2640              		.cfi_def_cfa_offset 36
 2641              		.cfi_offset 4, -36
 2642              		.cfi_offset 5, -32
 2643              		.cfi_offset 6, -28
 2644              		.cfi_offset 7, -24
 2645              		.cfi_offset 8, -20
 2646              		.cfi_offset 9, -16
ARM GAS  C:\Users\VINCIU~1\AppData\Local\Temp\cc6DIkXk.s 			page 76


 2647              		.cfi_offset 10, -12
 2648              		.cfi_offset 11, -8
 2649              		.cfi_offset 14, -4
 2650 0004 87B0     		sub	sp, sp, #28
 2651              		.cfi_def_cfa_offset 64
 217:../../libdaisy/src/hid/disp/display.h ****                   uint_fast8_t y1,
 2652              		.loc 3 217 10 view .LVU614
 2653 0006 9DF84850 		ldrb	r5, [sp, #72]	@ zero_extendqisi2
 2654 000a 109C     		ldr	r4, [sp, #64]
 2655 000c 2E46     		mov	r6, r5
 2656 000e 0195     		str	r5, [sp, #4]
 2657 0010 9DF84450 		ldrb	r5, [sp, #68]	@ zero_extendqisi2
 2658              	.LBB540:
 224:../../libdaisy/src/hid/disp/display.h ****         {
 2659              		.loc 3 224 9 view .LVU615
 2660 0014 9EB3     		cbz	r6, .L211
 2661              	.LVL245:
 224:../../libdaisy/src/hid/disp/display.h ****         {
 2662              		.loc 3 224 9 view .LVU616
 2663              	.LBE540:
 2664              	.LBB662:
 2665              	.LBB663:
 226:../../libdaisy/src/hid/disp/display.h ****             {
 2666              		.loc 3 226 40 is_stmt 1 view .LVU617
 2667 0016 9942     		cmp	r1, r3
 2668 0018 2ED8     		bhi	.L210
 2669 001a 9946     		mov	r9, r3
 2670              	.LVL246:
 2671              	.L214:
 2672              	.LBB664:
 228:../../libdaisy/src/hid/disp/display.h ****                 {
 2673              		.loc 3 228 44 view .LVU618
 2674 001c A242     		cmp	r2, r4
 2675 001e 28D8     		bhi	.L217
 2676              	.LBB665:
 2677              	.LBB666:
 2678              	.LBB667:
 241:../../libdaisy/src/dev/oled_ssd130x.h ****             return;
 2679              		.loc 4 241 14 is_stmt 0 view .LVU619
 2680 0020 7F29     		cmp	r1, #127
 2681 0022 1646     		mov	r6, r2
 2682 0024 94BF     		ite	ls
 2683 0026 0023     		movls	r3, #0
 2684 0028 0123     		movhi	r3, #1
 2685 002a 08E0     		b	.L218
 2686              	.LVL247:
 2687              	.L301:
 244:../../libdaisy/src/dev/oled_ssd130x.h ****         else
 2688              		.loc 4 244 42 view .LVU620
 2689 002c 9CF81480 		ldrb	r8, [ip, #20]	@ zero_extendqisi2
 2690 0030 4EEA080E 		orr	lr, lr, r8
 2691 0034 8CF814E0 		strb	lr, [ip, #20]
 2692              	.LVL248:
 2693              	.L215:
 244:../../libdaisy/src/dev/oled_ssd130x.h ****         else
 2694              		.loc 4 244 42 view .LVU621
 2695              	.LBE667:
ARM GAS  C:\Users\VINCIU~1\AppData\Local\Temp\cc6DIkXk.s 			page 77


 2696              	.LBE666:
 2697              	.LBE665:
 228:../../libdaisy/src/hid/disp/display.h ****                 {
 2698              		.loc 3 228 17 is_stmt 1 view .LVU622
 2699 0038 0136     		adds	r6, r6, #1
 2700              	.LVL249:
 228:../../libdaisy/src/hid/disp/display.h ****                 {
 2701              		.loc 3 228 44 view .LVU623
 2702 003a B442     		cmp	r4, r6
 2703 003c 19D3     		bcc	.L217
 2704              	.L218:
 2705              	.LVL250:
 2706              	.LBB681:
 2707              	.LBI665:
  41:../../libdaisy/src/hid/disp/oled_display.h ****     {
 2708              		.loc 2 41 10 view .LVU624
 2709              	.LBB678:
 2710              	.LBI666:
 239:../../libdaisy/src/dev/oled_ssd130x.h ****     {
 2711              		.loc 4 239 10 view .LVU625
 2712              	.LBB675:
 241:../../libdaisy/src/dev/oled_ssd130x.h ****             return;
 2713              		.loc 4 241 9 is_stmt 0 view .LVU626
 2714 003e 3F2E     		cmp	r6, #63
 2715 0040 FAD8     		bhi	.L215
 241:../../libdaisy/src/dev/oled_ssd130x.h ****             return;
 2716              		.loc 4 241 9 view .LVU627
 2717 0042 002B     		cmp	r3, #0
 2718 0044 F8D1     		bne	.L215
 2719              	.LVL251:
 2720              	.LBB668:
 2721              	.LBI668:
 239:../../libdaisy/src/dev/oled_ssd130x.h ****     {
 2722              		.loc 4 239 10 is_stmt 1 view .LVU628
 239:../../libdaisy/src/dev/oled_ssd130x.h ****     {
 2723              		.loc 4 239 10 is_stmt 0 view .LVU629
 2724              	.LBE668:
 244:../../libdaisy/src/dev/oled_ssd130x.h ****         else
 2725              		.loc 4 244 28 view .LVU630
 2726 0046 4FEAD60C 		lsr	ip, r6, #3
 244:../../libdaisy/src/dev/oled_ssd130x.h ****         else
 2727              		.loc 4 244 54 view .LVU631
 2728 004a 06F0070E 		and	lr, r6, #7
 244:../../libdaisy/src/dev/oled_ssd130x.h ****         else
 2729              		.loc 4 244 48 view .LVU632
 2730 004e 4FF00108 		mov	r8, #1
 244:../../libdaisy/src/dev/oled_ssd130x.h ****         else
 2731              		.loc 4 244 42 view .LVU633
 2732 0052 01EBCC1C 		add	ip, r1, ip, lsl #7
 244:../../libdaisy/src/dev/oled_ssd130x.h ****         else
 2733              		.loc 4 244 48 view .LVU634
 2734 0056 08FA0EFE 		lsl	lr, r8, lr
 244:../../libdaisy/src/dev/oled_ssd130x.h ****         else
 2735              		.loc 4 244 42 view .LVU635
 2736 005a 8444     		add	ip, ip, r0
 243:../../libdaisy/src/dev/oled_ssd130x.h ****             buffer_[x + (y / 8) * width] |= (1 << (y % 8));
 2737              		.loc 4 243 9 view .LVU636
ARM GAS  C:\Users\VINCIU~1\AppData\Local\Temp\cc6DIkXk.s 			page 78


 2738 005c 002D     		cmp	r5, #0
 2739 005e E5D1     		bne	.L301
 2740              	.LBB672:
 2741              	.LBB669:
 246:../../libdaisy/src/dev/oled_ssd130x.h ****     }
 2742              		.loc 4 246 42 view .LVU637
 2743 0060 9CF814B0 		ldrb	fp, [ip, #20]	@ zero_extendqisi2
 2744              	.LBE669:
 2745              	.LBE672:
 2746              	.LBE675:
 2747              	.LBE678:
 2748              	.LBE681:
 228:../../libdaisy/src/hid/disp/display.h ****                 {
 2749              		.loc 3 228 17 view .LVU638
 2750 0064 0136     		adds	r6, r6, #1
 2751              	.LVL252:
 2752              	.LBB682:
 2753              	.LBB679:
 2754              	.LBB676:
 2755              	.LBB673:
 2756              	.LBB670:
 246:../../libdaisy/src/dev/oled_ssd130x.h ****     }
 2757              		.loc 4 246 42 view .LVU639
 2758 0066 2BEA0E0A 		bic	r10, fp, lr
 2759              	.LBE670:
 2760              	.LBE673:
 2761              	.LBE676:
 2762              	.LBE679:
 2763              	.LBE682:
 228:../../libdaisy/src/hid/disp/display.h ****                 {
 2764              		.loc 3 228 44 view .LVU640
 2765 006a B442     		cmp	r4, r6
 2766              	.LBB683:
 2767              	.LBB680:
 2768              	.LBB677:
 2769              	.LBB674:
 2770              	.LBB671:
 246:../../libdaisy/src/dev/oled_ssd130x.h ****     }
 2771              		.loc 4 246 42 view .LVU641
 2772 006c 8CF814A0 		strb	r10, [ip, #20]
 2773              	.LVL253:
 246:../../libdaisy/src/dev/oled_ssd130x.h ****     }
 2774              		.loc 4 246 42 view .LVU642
 2775              	.LBE671:
 2776              	.LBE674:
 2777              	.LBE677:
 2778              	.LBE680:
 2779              	.LBE683:
 228:../../libdaisy/src/hid/disp/display.h ****                 {
 2780              		.loc 3 228 17 is_stmt 1 view .LVU643
 228:../../libdaisy/src/hid/disp/display.h ****                 {
 2781              		.loc 3 228 44 view .LVU644
 2782 0070 E5D2     		bcs	.L218
 2783              	.LVL254:
 2784              	.L217:
 228:../../libdaisy/src/hid/disp/display.h ****                 {
 2785              		.loc 3 228 44 is_stmt 0 view .LVU645
ARM GAS  C:\Users\VINCIU~1\AppData\Local\Temp\cc6DIkXk.s 			page 79


 2786              	.LBE664:
 226:../../libdaisy/src/hid/disp/display.h ****             {
 2787              		.loc 3 226 13 is_stmt 1 view .LVU646
 2788 0072 0131     		adds	r1, r1, #1
 2789              	.LVL255:
 226:../../libdaisy/src/hid/disp/display.h ****             {
 2790              		.loc 3 226 40 view .LVU647
 2791 0074 8945     		cmp	r9, r1
 2792 0076 D1D2     		bcs	.L214
 2793              	.LVL256:
 2794              	.L210:
 226:../../libdaisy/src/hid/disp/display.h ****             {
 2795              		.loc 3 226 40 is_stmt 0 view .LVU648
 2796              	.LBE663:
 2797              	.LBE662:
 241:../../libdaisy/src/hid/disp/display.h **** 
 2798              		.loc 3 241 5 view .LVU649
 2799 0078 07B0     		add	sp, sp, #28
 2800              		.cfi_remember_state
 2801              		.cfi_def_cfa_offset 36
 2802              		@ sp needed
 2803 007a BDE8F08F 		pop	{r4, r5, r6, r7, r8, r9, r10, fp, pc}
 2804              	.LVL257:
 2805              	.L211:
 2806              		.cfi_restore_state
 2807              	.LBB684:
 2808              	.LBB541:
 2809              	.LBI541:
 181:../../libdaisy/src/hid/disp/display.h ****                   uint_fast8_t y1,
 2810              		.loc 3 181 10 is_stmt 1 view .LVU650
 2811              	.LBB542:
 187:../../libdaisy/src/hid/disp/display.h ****         int_fast16_t deltaY = abs((int_fast16_t)y2 - (int_fast16_t)y1);
 2812              		.loc 3 187 52 is_stmt 0 view .LVU651
 2813 007e A3EB0108 		sub	r8, r3, r1
 187:../../libdaisy/src/hid/disp/display.h ****         int_fast16_t deltaY = abs((int_fast16_t)y2 - (int_fast16_t)y1);
 2814              		.loc 3 187 22 view .LVU652
 2815 0082 B8F1000F 		cmp	r8, #0
 2816 0086 B8BF     		it	lt
 2817 0088 C8F10008 		rsblt	r8, r8, #0
 2818              	.LVL258:
 189:../../libdaisy/src/hid/disp/display.h ****         int_fast16_t signY  = ((y1 < y2) ? 1 : -1);
 2819              		.loc 3 189 42 view .LVU653
 2820 008c 9942     		cmp	r1, r3
 2821 008e C0F04E81 		bcc	.L219
 2822              	.LVL259:
 2823              	.LBB543:
 2824              	.LBI543:
  41:../../libdaisy/src/hid/disp/oled_display.h ****     {
 2825              		.loc 2 41 10 is_stmt 1 view .LVU654
 2826              	.LBB544:
 2827              	.LBI544:
 239:../../libdaisy/src/dev/oled_ssd130x.h ****     {
 2828              		.loc 4 239 10 view .LVU655
 2829              	.LBB545:
 241:../../libdaisy/src/dev/oled_ssd130x.h ****             return;
 2830              		.loc 4 241 14 is_stmt 0 view .LVU656
 2831 0092 7F2B     		cmp	r3, #127
ARM GAS  C:\Users\VINCIU~1\AppData\Local\Temp\cc6DIkXk.s 			page 80


 2832              	.LBE545:
 2833              	.LBE544:
 2834              	.LBE543:
 189:../../libdaisy/src/hid/disp/display.h ****         int_fast16_t signY  = ((y1 < y2) ? 1 : -1);
 2835              		.loc 3 189 42 view .LVU657
 2836 0094 4FF0FF3A 		mov	r10, #-1
 2837              	.LBB556:
 2838              	.LBB552:
 2839              	.LBB548:
 241:../../libdaisy/src/dev/oled_ssd130x.h ****             return;
 2840              		.loc 4 241 14 view .LVU658
 2841 0098 94BF     		ite	ls
 2842 009a 0026     		movls	r6, #0
 2843 009c 0126     		movhi	r6, #1
 241:../../libdaisy/src/dev/oled_ssd130x.h ****             return;
 2844              		.loc 4 241 28 view .LVU659
 2845 009e 3F2A     		cmp	r2, #63
 241:../../libdaisy/src/dev/oled_ssd130x.h ****             return;
 2846              		.loc 4 241 14 view .LVU660
 2847 00a0 0096     		str	r6, [sp]
 241:../../libdaisy/src/dev/oled_ssd130x.h ****             return;
 2848              		.loc 4 241 28 view .LVU661
 2849 00a2 94BF     		ite	ls
 2850 00a4 0027     		movls	r7, #0
 2851 00a6 0127     		movhi	r7, #1
 2852 00a8 0297     		str	r7, [sp, #8]
 241:../../libdaisy/src/dev/oled_ssd130x.h ****             return;
 2853              		.loc 4 241 9 view .LVU662
 2854 00aa A6B9     		cbnz	r6, .L220
 2855 00ac 9FB9     		cbnz	r7, .L220
 2856              	.LVL260:
 2857              	.L261:
 244:../../libdaisy/src/dev/oled_ssd130x.h ****         else
 2858              		.loc 4 244 28 view .LVU663
 2859 00ae D608     		lsrs	r6, r2, #3
 244:../../libdaisy/src/dev/oled_ssd130x.h ****         else
 2860              		.loc 4 244 54 view .LVU664
 2861 00b0 02F0070C 		and	ip, r2, #7
 244:../../libdaisy/src/dev/oled_ssd130x.h ****         else
 2862              		.loc 4 244 48 view .LVU665
 2863 00b4 0127     		movs	r7, #1
 244:../../libdaisy/src/dev/oled_ssd130x.h ****         else
 2864              		.loc 4 244 42 view .LVU666
 2865 00b6 03EBC616 		add	r6, r3, r6, lsl #7
 2866 00ba 0644     		add	r6, r6, r0
 243:../../libdaisy/src/dev/oled_ssd130x.h ****             buffer_[x + (y / 8) * width] |= (1 << (y % 8));
 2867              		.loc 4 243 9 view .LVU667
 2868 00bc 002D     		cmp	r5, #0
 2869 00be 00F09481 		beq	.L221
 244:../../libdaisy/src/dev/oled_ssd130x.h ****         else
 2870              		.loc 4 244 48 view .LVU668
 2871 00c2 07FA0CF7 		lsl	r7, r7, ip
 244:../../libdaisy/src/dev/oled_ssd130x.h ****         else
 2872              		.loc 4 244 42 view .LVU669
 2873 00c6 96F814C0 		ldrb	ip, [r6, #20]	@ zero_extendqisi2
 2874 00ca 47EA0C07 		orr	r7, r7, ip
 2875 00ce 3775     		strb	r7, [r6, #20]
ARM GAS  C:\Users\VINCIU~1\AppData\Local\Temp\cc6DIkXk.s 			page 81


 2876 00d0 0026     		movs	r6, #0
 2877 00d2 0296     		str	r6, [sp, #8]
 2878 00d4 0096     		str	r6, [sp]
 2879              	.L220:
 2880              	.LVL261:
 244:../../libdaisy/src/dev/oled_ssd130x.h ****         else
 2881              		.loc 4 244 42 view .LVU670
 2882              	.LBE548:
 2883              	.LBE552:
 2884              	.LBE556:
 199:../../libdaisy/src/hid/disp/display.h ****         {
 2885              		.loc 3 199 26 is_stmt 1 view .LVU671
 2886 00d6 9942     		cmp	r1, r3
 2887 00d8 00F09781 		beq	.L302
 2888              	.L223:
 2889              	.LVL262:
 187:../../libdaisy/src/hid/disp/display.h ****         int_fast16_t deltaY = abs((int_fast16_t)y2 - (int_fast16_t)y1);
 2890              		.loc 3 187 22 is_stmt 0 view .LVU672
 2891 00dc 4646     		mov	r6, r8
 2892 00de 9446     		mov	ip, r2
 2893 00e0 8E46     		mov	lr, r1
 2894              	.LVL263:
 2895              	.L225:
 2896              	.LBB557:
 2897              	.LBI557:
  41:../../libdaisy/src/hid/disp/oled_display.h ****     {
 2898              		.loc 2 41 10 is_stmt 1 view .LVU673
 2899              	.LBB558:
 2900              	.LBI558:
 239:../../libdaisy/src/dev/oled_ssd130x.h ****     {
 2901              		.loc 4 239 10 view .LVU674
 2902              	.LBB559:
 241:../../libdaisy/src/dev/oled_ssd130x.h ****             return;
 2903              		.loc 4 241 9 is_stmt 0 view .LVU675
 2904 00e2 BEF17F0F 		cmp	lr, #127
 2905 00e6 16D8     		bhi	.L226
 2906 00e8 BCF13F0F 		cmp	ip, #63
 2907 00ec 13D8     		bhi	.L226
 244:../../libdaisy/src/dev/oled_ssd130x.h ****         else
 2908              		.loc 4 244 28 view .LVU676
 2909 00ee 4FEADC07 		lsr	r7, ip, #3
 244:../../libdaisy/src/dev/oled_ssd130x.h ****         else
 2910              		.loc 4 244 54 view .LVU677
 2911 00f2 0CF0070B 		and	fp, ip, #7
 244:../../libdaisy/src/dev/oled_ssd130x.h ****         else
 2912              		.loc 4 244 48 view .LVU678
 2913 00f6 4FF00109 		mov	r9, #1
 244:../../libdaisy/src/dev/oled_ssd130x.h ****         else
 2914              		.loc 4 244 42 view .LVU679
 2915 00fa 0EEBC717 		add	r7, lr, r7, lsl #7
 2916 00fe 0744     		add	r7, r7, r0
 243:../../libdaisy/src/dev/oled_ssd130x.h ****             buffer_[x + (y / 8) * width] |= (1 << (y % 8));
 2917              		.loc 4 243 9 view .LVU680
 2918 0100 002D     		cmp	r5, #0
 2919 0102 00F03981 		beq	.L227
 244:../../libdaisy/src/dev/oled_ssd130x.h ****         else
 2920              		.loc 4 244 48 view .LVU681
ARM GAS  C:\Users\VINCIU~1\AppData\Local\Temp\cc6DIkXk.s 			page 82


 2921 0106 09FA0BF9 		lsl	r9, r9, fp
 244:../../libdaisy/src/dev/oled_ssd130x.h ****         else
 2922              		.loc 4 244 42 view .LVU682
 2923 010a 97F814B0 		ldrb	fp, [r7, #20]	@ zero_extendqisi2
 2924 010e 49EA0B09 		orr	r9, r9, fp
 2925 0112 87F81490 		strb	r9, [r7, #20]
 2926              	.L226:
 2927              	.LVL264:
 244:../../libdaisy/src/dev/oled_ssd130x.h ****         else
 2928              		.loc 4 244 42 view .LVU683
 2929              	.LBE559:
 2930              	.LBE558:
 2931              	.LBE557:
 203:../../libdaisy/src/hid/disp/display.h ****             {
 2932              		.loc 3 203 13 view .LVU684
 2933 0116 7700     		lsls	r7, r6, #1
 2934              	.LVL265:
 206:../../libdaisy/src/hid/disp/display.h ****             }
 2935              		.loc 3 206 20 view .LVU685
 2936 0118 18BF     		it	ne
 2937 011a D644     		addne	lr, lr, r10
 2938              	.LVL266:
 209:../../libdaisy/src/hid/disp/display.h ****             {
 2939              		.loc 3 209 13 view .LVU686
 2940 011c B845     		cmp	r8, r7
 2941 011e 02DD     		ble	.L229
 211:../../libdaisy/src/hid/disp/display.h ****                 y1 += signY;
 2942              		.loc 3 211 23 view .LVU687
 2943 0120 4644     		add	r6, r6, r8
 2944              	.LVL267:
 212:../../libdaisy/src/hid/disp/display.h ****             }
 2945              		.loc 3 212 20 view .LVU688
 2946 0122 0CF1FF3C 		add	ip, ip, #-1
 2947              	.LVL268:
 2948              	.L229:
 199:../../libdaisy/src/hid/disp/display.h ****         {
 2949              		.loc 3 199 26 is_stmt 1 view .LVU689
 2950 0126 7345     		cmp	r3, lr
 2951 0128 DBD1     		bne	.L225
 199:../../libdaisy/src/hid/disp/display.h ****         {
 2952              		.loc 3 199 26 is_stmt 0 view .LVU690
 2953 012a 6245     		cmp	r2, ip
 2954 012c D9D1     		bne	.L225
 2955 012e 0026     		movs	r6, #0
 2956              	.LVL269:
 199:../../libdaisy/src/hid/disp/display.h ****         {
 2957              		.loc 3 199 26 view .LVU691
 2958 0130 0496     		str	r6, [sp, #16]
 2959              	.LVL270:
 2960              	.L222:
 199:../../libdaisy/src/hid/disp/display.h ****         {
 2961              		.loc 3 199 26 view .LVU692
 2962              	.LBE542:
 2963              	.LBE541:
 2964              	.LBB572:
 2965              	.LBI572:
 181:../../libdaisy/src/hid/disp/display.h ****                   uint_fast8_t y1,
ARM GAS  C:\Users\VINCIU~1\AppData\Local\Temp\cc6DIkXk.s 			page 83


 2966              		.loc 3 181 10 is_stmt 1 view .LVU693
 2967              	.LBB573:
 188:../../libdaisy/src/hid/disp/display.h ****         int_fast16_t signX  = ((x1 < x2) ? 1 : -1);
 2968              		.loc 3 188 52 is_stmt 0 view .LVU694
 2969 0132 A4EB0209 		sub	r9, r4, r2
 2970              	.LBB574:
 2971              	.LBB575:
 2972              	.LBB576:
 241:../../libdaisy/src/dev/oled_ssd130x.h ****             return;
 2973              		.loc 4 241 9 view .LVU695
 2974 0136 009F     		ldr	r7, [sp]
 2975              	.LBE576:
 2976              	.LBE575:
 2977              	.LBE574:
 188:../../libdaisy/src/hid/disp/display.h ****         int_fast16_t signX  = ((x1 < x2) ? 1 : -1);
 2978              		.loc 3 188 22 view .LVU696
 2979 0138 B9F1000F 		cmp	r9, #0
 2980 013c B8BF     		it	lt
 2981 013e C9F10009 		rsblt	r9, r9, #0
 2982              	.LVL271:
 2983              	.LBB591:
 2984              	.LBB585:
 2985              	.LBB579:
 241:../../libdaisy/src/dev/oled_ssd130x.h ****             return;
 2986              		.loc 4 241 28 view .LVU697
 2987 0142 3F2C     		cmp	r4, #63
 2988 0144 94BF     		ite	ls
 2989 0146 0026     		movls	r6, #0
 2990 0148 0126     		movhi	r6, #1
 2991              	.LBE579:
 2992              	.LBE585:
 2993              	.LBE591:
 190:../../libdaisy/src/hid/disp/display.h ****         int_fast16_t error  = deltaX - deltaY;
 2994              		.loc 3 190 42 view .LVU698
 2995 014a A242     		cmp	r2, r4
 191:../../libdaisy/src/hid/disp/display.h ****         int_fast16_t error2;
 2996              		.loc 3 191 22 view .LVU699
 2997 014c C9F10008 		rsb	r8, r9, #0
 2998              	.LVL272:
 2999              	.LBB592:
 3000              	.LBI574:
  41:../../libdaisy/src/hid/disp/oled_display.h ****     {
 3001              		.loc 2 41 10 is_stmt 1 view .LVU700
 3002              	.LBB586:
 3003              	.LBI575:
 239:../../libdaisy/src/dev/oled_ssd130x.h ****     {
 3004              		.loc 4 239 10 view .LVU701
 3005              	.LBB580:
 241:../../libdaisy/src/dev/oled_ssd130x.h ****             return;
 3006              		.loc 4 241 28 is_stmt 0 view .LVU702
 3007 0150 0396     		str	r6, [sp, #12]
 3008              	.LBE580:
 3009              	.LBE586:
 3010              	.LBE592:
 190:../../libdaisy/src/hid/disp/display.h ****         int_fast16_t error  = deltaX - deltaY;
 3011              		.loc 3 190 42 view .LVU703
 3012 0152 C0F02381 		bcc	.L230
ARM GAS  C:\Users\VINCIU~1\AppData\Local\Temp\cc6DIkXk.s 			page 84


 3013              	.LVL273:
 3014              	.LBB593:
 3015              	.LBB587:
 3016              	.LBB581:
 241:../../libdaisy/src/dev/oled_ssd130x.h ****             return;
 3017              		.loc 4 241 9 view .LVU704
 3018 0156 002F     		cmp	r7, #0
 3019 0158 40F05081 		bne	.L265
 3020 015c 002E     		cmp	r6, #0
 3021 015e 40F04D81 		bne	.L265
 3022              	.LBE581:
 3023              	.LBE587:
 3024              	.LBE593:
 190:../../libdaisy/src/hid/disp/display.h ****         int_fast16_t error  = deltaX - deltaY;
 3025              		.loc 3 190 42 view .LVU705
 3026 0162 4FF0FF36 		mov	r6, #-1
 3027 0166 0096     		str	r6, [sp]
 3028              	.LBB594:
 3029              	.LBB588:
 3030              	.LBB582:
 244:../../libdaisy/src/dev/oled_ssd130x.h ****         else
 3031              		.loc 4 244 28 view .LVU706
 3032 0168 E608     		lsrs	r6, r4, #3
 244:../../libdaisy/src/dev/oled_ssd130x.h ****         else
 3033              		.loc 4 244 42 view .LVU707
 3034 016a 03EBC616 		add	r6, r3, r6, lsl #7
 3035 016e 0644     		add	r6, r6, r0
 243:../../libdaisy/src/dev/oled_ssd130x.h ****             buffer_[x + (y / 8) * width] |= (1 << (y % 8));
 3036              		.loc 4 243 9 view .LVU708
 3037 0170 002D     		cmp	r5, #0
 3038 0172 00F01E81 		beq	.L232
 3039              	.LVL274:
 3040              	.L304:
 244:../../libdaisy/src/dev/oled_ssd130x.h ****         else
 3041              		.loc 4 244 48 view .LVU709
 3042 0176 4FF0010C 		mov	ip, #1
 244:../../libdaisy/src/dev/oled_ssd130x.h ****         else
 3043              		.loc 4 244 54 view .LVU710
 3044 017a 04F00707 		and	r7, r4, #7
 244:../../libdaisy/src/dev/oled_ssd130x.h ****         else
 3045              		.loc 4 244 48 view .LVU711
 3046 017e 0CFA07F7 		lsl	r7, ip, r7
 244:../../libdaisy/src/dev/oled_ssd130x.h ****         else
 3047              		.loc 4 244 42 view .LVU712
 3048 0182 96F814C0 		ldrb	ip, [r6, #20]	@ zero_extendqisi2
 3049 0186 47EA0C07 		orr	r7, r7, ip
 3050 018a 3775     		strb	r7, [r6, #20]
 3051 018c 0026     		movs	r6, #0
 3052 018e 0396     		str	r6, [sp, #12]
 3053              	.L231:
 3054              	.LVL275:
 244:../../libdaisy/src/dev/oled_ssd130x.h ****         else
 3055              		.loc 4 244 42 view .LVU713
 3056              	.LBE582:
 3057              	.LBE588:
 3058              	.LBE594:
 199:../../libdaisy/src/hid/disp/display.h ****         {
ARM GAS  C:\Users\VINCIU~1\AppData\Local\Temp\cc6DIkXk.s 			page 85


 3059              		.loc 3 199 26 is_stmt 1 view .LVU714
 3060 0190 A242     		cmp	r2, r4
 3061 0192 00F03D81 		beq	.L303
 3062              	.L234:
 3063              	.LVL276:
 190:../../libdaisy/src/hid/disp/display.h ****         int_fast16_t error  = deltaX - deltaY;
 3064              		.loc 3 190 42 is_stmt 0 view .LVU715
 3065 0196 C446     		mov	ip, r8
 3066 0198 1646     		mov	r6, r2
 3067 019a 1F46     		mov	r7, r3
 3068 019c 0592     		str	r2, [sp, #20]
 3069              	.LVL277:
 3070              	.L236:
 3071              	.LBB595:
 3072              	.LBI595:
  41:../../libdaisy/src/hid/disp/oled_display.h ****     {
 3073              		.loc 2 41 10 is_stmt 1 view .LVU716
 3074              	.LBB596:
 3075              	.LBI596:
 239:../../libdaisy/src/dev/oled_ssd130x.h ****     {
 3076              		.loc 4 239 10 view .LVU717
 3077              	.LBB597:
 241:../../libdaisy/src/dev/oled_ssd130x.h ****             return;
 3078              		.loc 4 241 9 is_stmt 0 view .LVU718
 3079 019e 7F2F     		cmp	r7, #127
 3080 01a0 15D8     		bhi	.L237
 3081 01a2 3F2E     		cmp	r6, #63
 3082 01a4 13D8     		bhi	.L237
 244:../../libdaisy/src/dev/oled_ssd130x.h ****         else
 3083              		.loc 4 244 28 view .LVU719
 3084 01a6 4FEAD60E 		lsr	lr, r6, #3
 244:../../libdaisy/src/dev/oled_ssd130x.h ****         else
 3085              		.loc 4 244 54 view .LVU720
 3086 01aa 06F0070B 		and	fp, r6, #7
 244:../../libdaisy/src/dev/oled_ssd130x.h ****         else
 3087              		.loc 4 244 48 view .LVU721
 3088 01ae 4FF0010A 		mov	r10, #1
 244:../../libdaisy/src/dev/oled_ssd130x.h ****         else
 3089              		.loc 4 244 42 view .LVU722
 3090 01b2 07EBCE1E 		add	lr, r7, lr, lsl #7
 3091 01b6 8644     		add	lr, lr, r0
 243:../../libdaisy/src/dev/oled_ssd130x.h ****             buffer_[x + (y / 8) * width] |= (1 << (y % 8));
 3092              		.loc 4 243 9 view .LVU723
 3093 01b8 002D     		cmp	r5, #0
 3094 01ba 00F0E680 		beq	.L238
 244:../../libdaisy/src/dev/oled_ssd130x.h ****         else
 3095              		.loc 4 244 48 view .LVU724
 3096 01be 0AFA0BFA 		lsl	r10, r10, fp
 244:../../libdaisy/src/dev/oled_ssd130x.h ****         else
 3097              		.loc 4 244 42 view .LVU725
 3098 01c2 9EF814B0 		ldrb	fp, [lr, #20]	@ zero_extendqisi2
 3099 01c6 4AEA0B0A 		orr	r10, r10, fp
 3100 01ca 8EF814A0 		strb	r10, [lr, #20]
 3101              	.L237:
 3102              	.LVL278:
 244:../../libdaisy/src/dev/oled_ssd130x.h ****         else
 3103              		.loc 4 244 42 view .LVU726
ARM GAS  C:\Users\VINCIU~1\AppData\Local\Temp\cc6DIkXk.s 			page 86


 3104              	.LBE597:
 3105              	.LBE596:
 3106              	.LBE595:
 203:../../libdaisy/src/hid/disp/display.h ****             {
 3107              		.loc 3 203 13 view .LVU727
 3108 01ce B8EB4C0F 		cmp	r8, ip, lsl #1
 202:../../libdaisy/src/hid/disp/display.h ****             if(error2 > -deltaY)
 3109              		.loc 3 202 20 view .LVU728
 3110 01d2 4FEA4C0E 		lsl	lr, ip, #1
 3111              	.LVL279:
 203:../../libdaisy/src/hid/disp/display.h ****             {
 3112              		.loc 3 203 13 view .LVU729
 3113 01d6 02DA     		bge	.L239
 205:../../libdaisy/src/hid/disp/display.h ****                 x1 += signX;
 3114              		.loc 3 205 23 view .LVU730
 3115 01d8 ACEB090C 		sub	ip, ip, r9
 3116              	.LVL280:
 206:../../libdaisy/src/hid/disp/display.h ****             }
 3117              		.loc 3 206 20 view .LVU731
 3118 01dc 013F     		subs	r7, r7, #1
 3119              	.LVL281:
 3120              	.L239:
 209:../../libdaisy/src/hid/disp/display.h ****             {
 3121              		.loc 3 209 13 view .LVU732
 3122 01de BEF1000F 		cmp	lr, #0
 3123 01e2 01D0     		beq	.L240
 212:../../libdaisy/src/hid/disp/display.h ****             }
 3124              		.loc 3 212 20 view .LVU733
 3125 01e4 009A     		ldr	r2, [sp]
 3126 01e6 1644     		add	r6, r6, r2
 3127              	.LVL282:
 3128              	.L240:
 199:../../libdaisy/src/hid/disp/display.h ****         {
 3129              		.loc 3 199 26 is_stmt 1 view .LVU734
 3130 01e8 BB42     		cmp	r3, r7
 3131 01ea D8D1     		bne	.L236
 199:../../libdaisy/src/hid/disp/display.h ****         {
 3132              		.loc 3 199 26 is_stmt 0 view .LVU735
 3133 01ec B442     		cmp	r4, r6
 3134 01ee D6D1     		bne	.L236
 3135 01f0 059A     		ldr	r2, [sp, #20]
 3136              	.LVL283:
 3137              	.L233:
 199:../../libdaisy/src/hid/disp/display.h ****         {
 3138              		.loc 3 199 26 view .LVU736
 3139              	.LBE573:
 3140              	.LBE572:
 3141              	.LBB608:
 3142              	.LBI608:
 181:../../libdaisy/src/hid/disp/display.h ****                   uint_fast8_t y1,
 3143              		.loc 3 181 10 is_stmt 1 view .LVU737
 3144              	.LBB609:
 187:../../libdaisy/src/hid/disp/display.h ****         int_fast16_t deltaY = abs((int_fast16_t)y2 - (int_fast16_t)y1);
 3145              		.loc 3 187 52 is_stmt 0 view .LVU738
 3146 01f2 A1EB030E 		sub	lr, r1, r3
 187:../../libdaisy/src/hid/disp/display.h ****         int_fast16_t deltaY = abs((int_fast16_t)y2 - (int_fast16_t)y1);
 3147              		.loc 3 187 22 view .LVU739
ARM GAS  C:\Users\VINCIU~1\AppData\Local\Temp\cc6DIkXk.s 			page 87


 3148 01f6 BEF1000F 		cmp	lr, #0
 3149 01fa B8BF     		it	lt
 3150 01fc CEF1000E 		rsblt	lr, lr, #0
 3151              	.LVL284:
 3152              	.LBB610:
 3153              	.LBB611:
 3154              	.LBB612:
 241:../../libdaisy/src/dev/oled_ssd130x.h ****             return;
 3155              		.loc 4 241 14 view .LVU740
 3156 0200 7F29     		cmp	r1, #127
 3157 0202 94BF     		ite	ls
 3158 0204 4FF0000A 		movls	r10, #0
 3159 0208 4FF0010A 		movhi	r10, #1
 3160              	.LBE612:
 3161              	.LBE611:
 3162              	.LBE610:
 189:../../libdaisy/src/hid/disp/display.h ****         int_fast16_t signY  = ((y1 < y2) ? 1 : -1);
 3163              		.loc 3 189 42 view .LVU741
 3164 020c 9942     		cmp	r1, r3
 3165 020e 8CBF     		ite	hi
 3166 0210 4FF00109 		movhi	r9, #1
 3167 0214 4FF0FF39 		movls	r9, #-1
 3168              	.LVL285:
 3169              	.LBB619:
 3170              	.LBI610:
  41:../../libdaisy/src/hid/disp/oled_display.h ****     {
 3171              		.loc 2 41 10 is_stmt 1 view .LVU742
 3172              	.LBB617:
 3173              	.LBI611:
 239:../../libdaisy/src/dev/oled_ssd130x.h ****     {
 3174              		.loc 4 239 10 view .LVU743
 3175              	.LBB615:
 241:../../libdaisy/src/dev/oled_ssd130x.h ****             return;
 3176              		.loc 4 241 9 is_stmt 0 view .LVU744
 3177 0218 BAF1000F 		cmp	r10, #0
 3178 021c 13D1     		bne	.L242
 3179 021e 039E     		ldr	r6, [sp, #12]
 3180 0220 8EB9     		cbnz	r6, .L242
 244:../../libdaisy/src/dev/oled_ssd130x.h ****         else
 3181              		.loc 4 244 28 view .LVU745
 3182 0222 E608     		lsrs	r6, r4, #3
 244:../../libdaisy/src/dev/oled_ssd130x.h ****         else
 3183              		.loc 4 244 42 view .LVU746
 3184 0224 01EBC616 		add	r6, r1, r6, lsl #7
 3185 0228 0644     		add	r6, r6, r0
 243:../../libdaisy/src/dev/oled_ssd130x.h ****             buffer_[x + (y / 8) * width] |= (1 << (y % 8));
 3186              		.loc 4 243 9 view .LVU747
 3187 022a 002D     		cmp	r5, #0
 3188 022c 00F0D380 		beq	.L243
 244:../../libdaisy/src/dev/oled_ssd130x.h ****         else
 3189              		.loc 4 244 48 view .LVU748
 3190 0230 4FF0010C 		mov	ip, #1
 244:../../libdaisy/src/dev/oled_ssd130x.h ****         else
 3191              		.loc 4 244 54 view .LVU749
 3192 0234 04F00707 		and	r7, r4, #7
 244:../../libdaisy/src/dev/oled_ssd130x.h ****         else
 3193              		.loc 4 244 48 view .LVU750
ARM GAS  C:\Users\VINCIU~1\AppData\Local\Temp\cc6DIkXk.s 			page 88


 3194 0238 0CFA07F7 		lsl	r7, ip, r7
 244:../../libdaisy/src/dev/oled_ssd130x.h ****         else
 3195              		.loc 4 244 42 view .LVU751
 3196 023c 96F814C0 		ldrb	ip, [r6, #20]	@ zero_extendqisi2
 3197 0240 47EA0C07 		orr	r7, r7, ip
 3198 0244 3775     		strb	r7, [r6, #20]
 3199              	.L242:
 3200              	.LVL286:
 244:../../libdaisy/src/dev/oled_ssd130x.h ****         else
 3201              		.loc 4 244 42 view .LVU752
 3202              	.LBE615:
 3203              	.LBE617:
 3204              	.LBE619:
 199:../../libdaisy/src/hid/disp/display.h ****         {
 3205              		.loc 3 199 26 is_stmt 1 view .LVU753
 3206 0246 049E     		ldr	r6, [sp, #16]
 3207 0248 26BB     		cbnz	r6, .L244
 187:../../libdaisy/src/hid/disp/display.h ****         int_fast16_t deltaY = abs((int_fast16_t)y2 - (int_fast16_t)y1);
 3208              		.loc 3 187 22 is_stmt 0 view .LVU754
 3209 024a 7746     		mov	r7, lr
 199:../../libdaisy/src/hid/disp/display.h ****         {
 3210              		.loc 3 199 26 view .LVU755
 3211 024c 2646     		mov	r6, r4
 3212              	.LVL287:
 3213              	.L245:
 3214              	.LBB620:
 3215              	.LBI620:
  41:../../libdaisy/src/hid/disp/oled_display.h ****     {
 3216              		.loc 2 41 10 is_stmt 1 view .LVU756
 3217              	.LBB621:
 3218              	.LBI621:
 239:../../libdaisy/src/dev/oled_ssd130x.h ****     {
 3219              		.loc 4 239 10 view .LVU757
 3220              	.LBB622:
 241:../../libdaisy/src/dev/oled_ssd130x.h ****             return;
 3221              		.loc 4 241 9 is_stmt 0 view .LVU758
 3222 024e 7F2B     		cmp	r3, #127
 3223 0250 14D8     		bhi	.L247
 241:../../libdaisy/src/dev/oled_ssd130x.h ****             return;
 3224              		.loc 4 241 9 view .LVU759
 3225 0252 3F2E     		cmp	r6, #63
 3226 0254 12D8     		bhi	.L247
 244:../../libdaisy/src/dev/oled_ssd130x.h ****         else
 3227              		.loc 4 244 28 view .LVU760
 3228 0256 4FEAD60C 		lsr	ip, r6, #3
 244:../../libdaisy/src/dev/oled_ssd130x.h ****         else
 3229              		.loc 4 244 54 view .LVU761
 3230 025a 06F0070B 		and	fp, r6, #7
 244:../../libdaisy/src/dev/oled_ssd130x.h ****         else
 3231              		.loc 4 244 48 view .LVU762
 3232 025e 4FF00108 		mov	r8, #1
 244:../../libdaisy/src/dev/oled_ssd130x.h ****         else
 3233              		.loc 4 244 42 view .LVU763
 3234 0262 03EBCC1C 		add	ip, r3, ip, lsl #7
 3235 0266 8444     		add	ip, ip, r0
 243:../../libdaisy/src/dev/oled_ssd130x.h ****             buffer_[x + (y / 8) * width] |= (1 << (y % 8));
 3236              		.loc 4 243 9 view .LVU764
ARM GAS  C:\Users\VINCIU~1\AppData\Local\Temp\cc6DIkXk.s 			page 89


 3237 0268 002D     		cmp	r5, #0
 3238 026a 73D0     		beq	.L248
 244:../../libdaisy/src/dev/oled_ssd130x.h ****         else
 3239              		.loc 4 244 48 view .LVU765
 3240 026c 08FA0BF8 		lsl	r8, r8, fp
 244:../../libdaisy/src/dev/oled_ssd130x.h ****         else
 3241              		.loc 4 244 42 view .LVU766
 3242 0270 9CF814B0 		ldrb	fp, [ip, #20]	@ zero_extendqisi2
 3243 0274 48EA0B08 		orr	r8, r8, fp
 3244 0278 8CF81480 		strb	r8, [ip, #20]
 3245              	.L247:
 3246              	.LVL288:
 244:../../libdaisy/src/dev/oled_ssd130x.h ****         else
 3247              		.loc 4 244 42 view .LVU767
 3248              	.LBE622:
 3249              	.LBE621:
 3250              	.LBE620:
 203:../../libdaisy/src/hid/disp/display.h ****             {
 3251              		.loc 3 203 13 view .LVU768
 3252 027c 5FEA470C 		lsls	ip, r7, #1
 3253              	.LVL289:
 206:../../libdaisy/src/hid/disp/display.h ****             }
 3254              		.loc 3 206 20 view .LVU769
 3255 0280 18BF     		it	ne
 3256 0282 4B44     		addne	r3, r3, r9
 3257              	.LVL290:
 209:../../libdaisy/src/hid/disp/display.h ****             {
 3258              		.loc 3 209 13 view .LVU770
 3259 0284 E645     		cmp	lr, ip
 3260 0286 01DD     		ble	.L250
 211:../../libdaisy/src/hid/disp/display.h ****                 y1 += signY;
 3261              		.loc 3 211 23 view .LVU771
 3262 0288 7744     		add	r7, r7, lr
 3263              	.LVL291:
 212:../../libdaisy/src/hid/disp/display.h ****             }
 3264              		.loc 3 212 20 view .LVU772
 3265 028a 013E     		subs	r6, r6, #1
 3266              	.LVL292:
 3267              	.L250:
 199:../../libdaisy/src/hid/disp/display.h ****         {
 3268              		.loc 3 199 26 is_stmt 1 view .LVU773
 3269 028c 9942     		cmp	r1, r3
 3270 028e DED1     		bne	.L245
 199:../../libdaisy/src/hid/disp/display.h ****         {
 3271              		.loc 3 199 26 is_stmt 0 view .LVU774
 3272 0290 B442     		cmp	r4, r6
 3273 0292 DCD1     		bne	.L245
 3274              	.LVL293:
 3275              	.L244:
 199:../../libdaisy/src/hid/disp/display.h ****         {
 3276              		.loc 3 199 26 view .LVU775
 3277              	.LBE609:
 3278              	.LBE608:
 3279              	.LBB631:
 3280              	.LBI631:
 181:../../libdaisy/src/hid/disp/display.h ****                   uint_fast8_t y1,
 3281              		.loc 3 181 10 is_stmt 1 view .LVU776
ARM GAS  C:\Users\VINCIU~1\AppData\Local\Temp\cc6DIkXk.s 			page 90


 3282              	.LBB632:
 188:../../libdaisy/src/hid/disp/display.h ****         int_fast16_t signX  = ((x1 < x2) ? 1 : -1);
 3283              		.loc 3 188 52 is_stmt 0 view .LVU777
 3284 0294 A2EB040E 		sub	lr, r2, r4
 188:../../libdaisy/src/hid/disp/display.h ****         int_fast16_t signX  = ((x1 < x2) ? 1 : -1);
 3285              		.loc 3 188 22 view .LVU778
 3286 0298 BEF1000F 		cmp	lr, #0
 3287 029c B8BF     		it	lt
 3288 029e CEF1000E 		rsblt	lr, lr, #0
 3289              	.LVL294:
 190:../../libdaisy/src/hid/disp/display.h ****         int_fast16_t error  = deltaX - deltaY;
 3290              		.loc 3 190 42 view .LVU779
 3291 02a2 A242     		cmp	r2, r4
 3292 02a4 8CBF     		ite	hi
 3293 02a6 4FF00108 		movhi	r8, #1
 3294 02aa 4FF0FF38 		movls	r8, #-1
 3295              	.LVL295:
 191:../../libdaisy/src/hid/disp/display.h ****         int_fast16_t error2;
 3296              		.loc 3 191 22 view .LVU780
 3297 02ae CEF1000C 		rsb	ip, lr, #0
 3298              	.LVL296:
 3299              	.LBB633:
 3300              	.LBI633:
  41:../../libdaisy/src/hid/disp/oled_display.h ****     {
 3301              		.loc 2 41 10 is_stmt 1 view .LVU781
 3302              	.LBB634:
 3303              	.LBI634:
 239:../../libdaisy/src/dev/oled_ssd130x.h ****     {
 3304              		.loc 4 239 10 view .LVU782
 3305              	.LBB635:
 241:../../libdaisy/src/dev/oled_ssd130x.h ****             return;
 3306              		.loc 4 241 9 is_stmt 0 view .LVU783
 3307 02b2 BAF1000F 		cmp	r10, #0
 3308 02b6 0ED1     		bne	.L252
 3309 02b8 029B     		ldr	r3, [sp, #8]
 3310 02ba 63B9     		cbnz	r3, .L252
 244:../../libdaisy/src/dev/oled_ssd130x.h ****         else
 3311              		.loc 4 244 28 view .LVU784
 3312 02bc D308     		lsrs	r3, r2, #3
 244:../../libdaisy/src/dev/oled_ssd130x.h ****         else
 3313              		.loc 4 244 54 view .LVU785
 3314 02be 02F00707 		and	r7, r2, #7
 244:../../libdaisy/src/dev/oled_ssd130x.h ****         else
 3315              		.loc 4 244 48 view .LVU786
 3316 02c2 0126     		movs	r6, #1
 244:../../libdaisy/src/dev/oled_ssd130x.h ****         else
 3317              		.loc 4 244 42 view .LVU787
 3318 02c4 01EBC313 		add	r3, r1, r3, lsl #7
 3319 02c8 0344     		add	r3, r3, r0
 243:../../libdaisy/src/dev/oled_ssd130x.h ****             buffer_[x + (y / 8) * width] |= (1 << (y % 8));
 3320              		.loc 4 243 9 view .LVU788
 3321 02ca 002D     		cmp	r5, #0
 3322 02cc 7CD0     		beq	.L253
 244:../../libdaisy/src/dev/oled_ssd130x.h ****         else
 3323              		.loc 4 244 48 view .LVU789
 3324 02ce BE40     		lsls	r6, r6, r7
 244:../../libdaisy/src/dev/oled_ssd130x.h ****         else
ARM GAS  C:\Users\VINCIU~1\AppData\Local\Temp\cc6DIkXk.s 			page 91


 3325              		.loc 4 244 42 view .LVU790
 3326 02d0 1F7D     		ldrb	r7, [r3, #20]	@ zero_extendqisi2
 3327 02d2 3E43     		orrs	r6, r6, r7
 3328 02d4 1E75     		strb	r6, [r3, #20]
 3329              	.L252:
 3330              	.LVL297:
 244:../../libdaisy/src/dev/oled_ssd130x.h ****         else
 3331              		.loc 4 244 42 view .LVU791
 3332              	.LBE635:
 3333              	.LBE634:
 3334              	.LBE633:
 199:../../libdaisy/src/hid/disp/display.h ****         {
 3335              		.loc 3 199 26 is_stmt 1 view .LVU792
 3336 02d6 019B     		ldr	r3, [sp, #4]
 3337 02d8 002B     		cmp	r3, #0
 3338 02da 7FF4CDAE 		bne	.L210
 3339 02de 6646     		mov	r6, ip
 3340 02e0 0B46     		mov	r3, r1
 3341              	.LVL298:
 3342              	.L254:
 3343              	.LBB640:
 3344              	.LBI640:
  41:../../libdaisy/src/hid/disp/oled_display.h ****     {
 3345              		.loc 2 41 10 view .LVU793
 3346              	.LBB641:
 3347              	.LBI641:
 239:../../libdaisy/src/dev/oled_ssd130x.h ****     {
 3348              		.loc 4 239 10 view .LVU794
 3349              	.LBB642:
 241:../../libdaisy/src/dev/oled_ssd130x.h ****             return;
 3350              		.loc 4 241 9 is_stmt 0 view .LVU795
 3351 02e2 7F2B     		cmp	r3, #127
 3352 02e4 12D8     		bhi	.L256
 241:../../libdaisy/src/dev/oled_ssd130x.h ****             return;
 3353              		.loc 4 241 9 view .LVU796
 3354 02e6 3F2C     		cmp	r4, #63
 3355 02e8 10D8     		bhi	.L256
 244:../../libdaisy/src/dev/oled_ssd130x.h ****         else
 3356              		.loc 4 244 28 view .LVU797
 3357 02ea E708     		lsrs	r7, r4, #3
 244:../../libdaisy/src/dev/oled_ssd130x.h ****         else
 3358              		.loc 4 244 54 view .LVU798
 3359 02ec 04F0070A 		and	r10, r4, #7
 244:../../libdaisy/src/dev/oled_ssd130x.h ****         else
 3360              		.loc 4 244 48 view .LVU799
 3361 02f0 4FF00109 		mov	r9, #1
 244:../../libdaisy/src/dev/oled_ssd130x.h ****         else
 3362              		.loc 4 244 42 view .LVU800
 3363 02f4 03EBC717 		add	r7, r3, r7, lsl #7
 3364 02f8 0744     		add	r7, r7, r0
 243:../../libdaisy/src/dev/oled_ssd130x.h ****             buffer_[x + (y / 8) * width] |= (1 << (y % 8));
 3365              		.loc 4 243 9 view .LVU801
 3366 02fa A5B3     		cbz	r5, .L257
 244:../../libdaisy/src/dev/oled_ssd130x.h ****         else
 3367              		.loc 4 244 48 view .LVU802
 3368 02fc 09FA0AF9 		lsl	r9, r9, r10
 244:../../libdaisy/src/dev/oled_ssd130x.h ****         else
ARM GAS  C:\Users\VINCIU~1\AppData\Local\Temp\cc6DIkXk.s 			page 92


 3369              		.loc 4 244 42 view .LVU803
 3370 0300 97F814A0 		ldrb	r10, [r7, #20]	@ zero_extendqisi2
 3371 0304 49EA0A09 		orr	r9, r9, r10
 3372 0308 87F81490 		strb	r9, [r7, #20]
 3373              	.L256:
 3374              	.LVL299:
 244:../../libdaisy/src/dev/oled_ssd130x.h ****         else
 3375              		.loc 4 244 42 view .LVU804
 3376              	.LBE642:
 3377              	.LBE641:
 3378              	.LBE640:
 203:../../libdaisy/src/hid/disp/display.h ****             {
 3379              		.loc 3 203 13 view .LVU805
 3380 030c BCEB460F 		cmp	ip, r6, lsl #1
 202:../../libdaisy/src/hid/disp/display.h ****             if(error2 > -deltaY)
 3381              		.loc 3 202 20 view .LVU806
 3382 0310 4FEA4607 		lsl	r7, r6, #1
 3383              	.LVL300:
 203:../../libdaisy/src/hid/disp/display.h ****             {
 3384              		.loc 3 203 13 view .LVU807
 3385 0314 02DA     		bge	.L258
 205:../../libdaisy/src/hid/disp/display.h ****                 x1 += signX;
 3386              		.loc 3 205 23 view .LVU808
 3387 0316 A6EB0E06 		sub	r6, r6, lr
 3388              	.LVL301:
 206:../../libdaisy/src/hid/disp/display.h ****             }
 3389              		.loc 3 206 20 view .LVU809
 3390 031a 013B     		subs	r3, r3, #1
 3391              	.LVL302:
 3392              	.L258:
 209:../../libdaisy/src/hid/disp/display.h ****             {
 3393              		.loc 3 209 13 view .LVU810
 3394 031c 07B1     		cbz	r7, .L259
 212:../../libdaisy/src/hid/disp/display.h ****             }
 3395              		.loc 3 212 20 view .LVU811
 3396 031e 4444     		add	r4, r4, r8
 3397              	.LVL303:
 3398              	.L259:
 199:../../libdaisy/src/hid/disp/display.h ****         {
 3399              		.loc 3 199 26 is_stmt 1 view .LVU812
 3400 0320 9942     		cmp	r1, r3
 3401 0322 DED1     		bne	.L254
 199:../../libdaisy/src/hid/disp/display.h ****         {
 3402              		.loc 3 199 26 is_stmt 0 view .LVU813
 3403 0324 A242     		cmp	r2, r4
 3404 0326 DCD1     		bne	.L254
 3405              	.LBE632:
 3406              	.LBE631:
 3407              	.LBE684:
 241:../../libdaisy/src/hid/disp/display.h **** 
 3408              		.loc 3 241 5 view .LVU814
 3409 0328 07B0     		add	sp, sp, #28
 3410              		.cfi_remember_state
 3411              		.cfi_def_cfa_offset 36
 3412              		@ sp needed
 3413 032a BDE8F08F 		pop	{r4, r5, r6, r7, r8, r9, r10, fp, pc}
 3414              	.LVL304:
ARM GAS  C:\Users\VINCIU~1\AppData\Local\Temp\cc6DIkXk.s 			page 93


 3415              	.L219:
 3416              		.cfi_restore_state
 3417              	.LBB685:
 3418              	.LBB651:
 3419              	.LBB568:
 3420              	.LBB564:
  41:../../libdaisy/src/hid/disp/oled_display.h ****     {
 3421              		.loc 2 41 10 is_stmt 1 view .LVU815
 3422              	.LBB553:
 239:../../libdaisy/src/dev/oled_ssd130x.h ****     {
 3423              		.loc 4 239 10 view .LVU816
 3424              	.LBB549:
 241:../../libdaisy/src/dev/oled_ssd130x.h ****             return;
 3425              		.loc 4 241 28 is_stmt 0 view .LVU817
 3426 032e 3F2A     		cmp	r2, #63
 3427              	.LBE549:
 3428              	.LBE553:
 3429              	.LBE564:
 189:../../libdaisy/src/hid/disp/display.h ****         int_fast16_t signY  = ((y1 < y2) ? 1 : -1);
 3430              		.loc 3 189 42 view .LVU818
 3431 0330 4FF0010A 		mov	r10, #1
 3432              	.LBB565:
 3433              	.LBB554:
 3434              	.LBB550:
 241:../../libdaisy/src/dev/oled_ssd130x.h ****             return;
 3435              		.loc 4 241 28 view .LVU819
 3436 0334 94BF     		ite	ls
 3437 0336 0026     		movls	r6, #0
 3438 0338 0126     		movhi	r6, #1
 241:../../libdaisy/src/dev/oled_ssd130x.h ****             return;
 3439              		.loc 4 241 14 view .LVU820
 3440 033a 7F2B     		cmp	r3, #127
 241:../../libdaisy/src/dev/oled_ssd130x.h ****             return;
 3441              		.loc 4 241 28 view .LVU821
 3442 033c 0296     		str	r6, [sp, #8]
 241:../../libdaisy/src/dev/oled_ssd130x.h ****             return;
 3443              		.loc 4 241 14 view .LVU822
 3444 033e 94BF     		ite	ls
 3445 0340 0027     		movls	r7, #0
 3446 0342 0127     		movhi	r7, #1
 3447 0344 0097     		str	r7, [sp]
 241:../../libdaisy/src/dev/oled_ssd130x.h ****             return;
 3448              		.loc 4 241 9 view .LVU823
 3449 0346 002E     		cmp	r6, #0
 3450 0348 7FF4C8AE 		bne	.L223
 3451 034c 002F     		cmp	r7, #0
 3452 034e 3FF4AEAE 		beq	.L261
 3453 0352 C3E6     		b	.L223
 3454              	.LVL305:
 3455              	.L248:
 241:../../libdaisy/src/dev/oled_ssd130x.h ****             return;
 3456              		.loc 4 241 9 view .LVU824
 3457              	.LBE550:
 3458              	.LBE554:
 3459              	.LBE565:
 3460              	.LBE568:
 3461              	.LBE651:
ARM GAS  C:\Users\VINCIU~1\AppData\Local\Temp\cc6DIkXk.s 			page 94


 3462              	.LBB652:
 3463              	.LBB629:
 3464              	.LBB627:
 3465              	.LBB626:
 3466              	.LBB625:
 3467              	.LBB623:
 3468              	.LBI623:
 239:../../libdaisy/src/dev/oled_ssd130x.h ****     {
 3469              		.loc 4 239 10 is_stmt 1 view .LVU825
 3470              	.LBB624:
 246:../../libdaisy/src/dev/oled_ssd130x.h ****     }
 3471              		.loc 4 246 49 is_stmt 0 view .LVU826
 3472 0354 08FA0BFB 		lsl	fp, r8, fp
 246:../../libdaisy/src/dev/oled_ssd130x.h ****     }
 3473              		.loc 4 246 42 view .LVU827
 3474 0358 9CF81480 		ldrb	r8, [ip, #20]	@ zero_extendqisi2
 3475 035c 28EA0B08 		bic	r8, r8, fp
 3476 0360 8CF81480 		strb	r8, [ip, #20]
 3477 0364 8AE7     		b	.L247
 3478              	.LVL306:
 3479              	.L257:
 246:../../libdaisy/src/dev/oled_ssd130x.h ****     }
 3480              		.loc 4 246 42 view .LVU828
 3481              	.LBE624:
 3482              	.LBE623:
 3483              	.LBE625:
 3484              	.LBE626:
 3485              	.LBE627:
 3486              	.LBE629:
 3487              	.LBE652:
 3488              	.LBB653:
 3489              	.LBB649:
 3490              	.LBB647:
 3491              	.LBB646:
 3492              	.LBB645:
 3493              	.LBB643:
 3494              	.LBI643:
 239:../../libdaisy/src/dev/oled_ssd130x.h ****     {
 3495              		.loc 4 239 10 is_stmt 1 view .LVU829
 3496              	.LBB644:
 246:../../libdaisy/src/dev/oled_ssd130x.h ****     }
 3497              		.loc 4 246 49 is_stmt 0 view .LVU830
 3498 0366 09FA0AFA 		lsl	r10, r9, r10
 246:../../libdaisy/src/dev/oled_ssd130x.h ****     }
 3499              		.loc 4 246 42 view .LVU831
 3500 036a 97F81490 		ldrb	r9, [r7, #20]	@ zero_extendqisi2
 3501 036e 29EA0A09 		bic	r9, r9, r10
 3502 0372 87F81490 		strb	r9, [r7, #20]
 3503 0376 C9E7     		b	.L256
 3504              	.LVL307:
 3505              	.L227:
 246:../../libdaisy/src/dev/oled_ssd130x.h ****     }
 3506              		.loc 4 246 42 view .LVU832
 3507              	.LBE644:
 3508              	.LBE643:
 3509              	.LBE645:
 3510              	.LBE646:
ARM GAS  C:\Users\VINCIU~1\AppData\Local\Temp\cc6DIkXk.s 			page 95


 3511              	.LBE647:
 3512              	.LBE649:
 3513              	.LBE653:
 3514              	.LBB654:
 3515              	.LBB569:
 3516              	.LBB566:
 3517              	.LBB563:
 3518              	.LBB562:
 3519              	.LBB560:
 3520              	.LBI560:
 239:../../libdaisy/src/dev/oled_ssd130x.h ****     {
 3521              		.loc 4 239 10 is_stmt 1 view .LVU833
 3522              	.LBB561:
 246:../../libdaisy/src/dev/oled_ssd130x.h ****     }
 3523              		.loc 4 246 49 is_stmt 0 view .LVU834
 3524 0378 09FA0BFB 		lsl	fp, r9, fp
 246:../../libdaisy/src/dev/oled_ssd130x.h ****     }
 3525              		.loc 4 246 42 view .LVU835
 3526 037c 97F81490 		ldrb	r9, [r7, #20]	@ zero_extendqisi2
 3527 0380 29EA0B09 		bic	r9, r9, fp
 3528 0384 87F81490 		strb	r9, [r7, #20]
 3529 0388 C5E6     		b	.L226
 3530              	.LVL308:
 3531              	.L238:
 246:../../libdaisy/src/dev/oled_ssd130x.h ****     }
 3532              		.loc 4 246 42 view .LVU836
 3533              	.LBE561:
 3534              	.LBE560:
 3535              	.LBE562:
 3536              	.LBE563:
 3537              	.LBE566:
 3538              	.LBE569:
 3539              	.LBE654:
 3540              	.LBB655:
 3541              	.LBB605:
 3542              	.LBB602:
 3543              	.LBB601:
 3544              	.LBB600:
 3545              	.LBB598:
 3546              	.LBI598:
 239:../../libdaisy/src/dev/oled_ssd130x.h ****     {
 3547              		.loc 4 239 10 is_stmt 1 view .LVU837
 3548              	.LBB599:
 246:../../libdaisy/src/dev/oled_ssd130x.h ****     }
 3549              		.loc 4 246 49 is_stmt 0 view .LVU838
 3550 038a 0AFA0BFB 		lsl	fp, r10, fp
 246:../../libdaisy/src/dev/oled_ssd130x.h ****     }
 3551              		.loc 4 246 42 view .LVU839
 3552 038e 9EF814A0 		ldrb	r10, [lr, #20]	@ zero_extendqisi2
 3553 0392 2AEA0B0A 		bic	r10, r10, fp
 3554 0396 8EF814A0 		strb	r10, [lr, #20]
 3555 039a 18E7     		b	.L237
 3556              	.LVL309:
 3557              	.L230:
 246:../../libdaisy/src/dev/oled_ssd130x.h ****     }
 3558              		.loc 4 246 42 view .LVU840
 3559              	.LBE599:
ARM GAS  C:\Users\VINCIU~1\AppData\Local\Temp\cc6DIkXk.s 			page 96


 3560              	.LBE598:
 3561              	.LBE600:
 3562              	.LBE601:
 3563              	.LBE602:
 3564              	.LBB603:
 3565              	.LBB589:
 3566              	.LBB583:
 241:../../libdaisy/src/dev/oled_ssd130x.h ****             return;
 3567              		.loc 4 241 9 view .LVU841
 3568 039c 97BB     		cbnz	r7, .L269
 3569 039e 8EBB     		cbnz	r6, .L269
 3570              	.LBE583:
 3571              	.LBE589:
 3572              	.LBE603:
 190:../../libdaisy/src/hid/disp/display.h ****         int_fast16_t error  = deltaX - deltaY;
 3573              		.loc 3 190 42 view .LVU842
 3574 03a0 0126     		movs	r6, #1
 3575 03a2 0096     		str	r6, [sp]
 3576              	.LBB604:
 3577              	.LBB590:
 3578              	.LBB584:
 244:../../libdaisy/src/dev/oled_ssd130x.h ****         else
 3579              		.loc 4 244 28 view .LVU843
 3580 03a4 E608     		lsrs	r6, r4, #3
 244:../../libdaisy/src/dev/oled_ssd130x.h ****         else
 3581              		.loc 4 244 42 view .LVU844
 3582 03a6 03EBC616 		add	r6, r3, r6, lsl #7
 3583 03aa 0644     		add	r6, r6, r0
 243:../../libdaisy/src/dev/oled_ssd130x.h ****             buffer_[x + (y / 8) * width] |= (1 << (y % 8));
 3584              		.loc 4 243 9 view .LVU845
 3585 03ac 002D     		cmp	r5, #0
 3586 03ae 7FF4E2AE 		bne	.L304
 3587              	.LVL310:
 3588              	.L232:
 3589              	.LBB577:
 3590              	.LBI577:
 239:../../libdaisy/src/dev/oled_ssd130x.h ****     {
 3591              		.loc 4 239 10 is_stmt 1 view .LVU846
 3592              	.LBB578:
 246:../../libdaisy/src/dev/oled_ssd130x.h ****     }
 3593              		.loc 4 246 49 is_stmt 0 view .LVU847
 3594 03b2 0127     		movs	r7, #1
 246:../../libdaisy/src/dev/oled_ssd130x.h ****     }
 3595              		.loc 4 246 55 view .LVU848
 3596 03b4 04F0070C 		and	ip, r4, #7
 246:../../libdaisy/src/dev/oled_ssd130x.h ****     }
 3597              		.loc 4 246 42 view .LVU849
 3598 03b8 0395     		str	r5, [sp, #12]
 246:../../libdaisy/src/dev/oled_ssd130x.h ****     }
 3599              		.loc 4 246 49 view .LVU850
 3600 03ba 07FA0CFC 		lsl	ip, r7, ip
 246:../../libdaisy/src/dev/oled_ssd130x.h ****     }
 3601              		.loc 4 246 42 view .LVU851
 3602 03be 377D     		ldrb	r7, [r6, #20]	@ zero_extendqisi2
 3603 03c0 27EA0C07 		bic	r7, r7, ip
 3604 03c4 3775     		strb	r7, [r6, #20]
 3605 03c6 E3E6     		b	.L231
ARM GAS  C:\Users\VINCIU~1\AppData\Local\Temp\cc6DIkXk.s 			page 97


 3606              	.LVL311:
 3607              	.L253:
 246:../../libdaisy/src/dev/oled_ssd130x.h ****     }
 3608              		.loc 4 246 42 view .LVU852
 3609              	.LBE578:
 3610              	.LBE577:
 3611              	.LBE584:
 3612              	.LBE590:
 3613              	.LBE604:
 3614              	.LBE605:
 3615              	.LBE655:
 3616              	.LBB656:
 3617              	.LBB650:
 3618              	.LBB648:
 3619              	.LBB639:
 3620              	.LBB638:
 3621              	.LBB636:
 3622              	.LBI636:
 239:../../libdaisy/src/dev/oled_ssd130x.h ****     {
 3623              		.loc 4 239 10 is_stmt 1 view .LVU853
 3624              	.LBB637:
 246:../../libdaisy/src/dev/oled_ssd130x.h ****     }
 3625              		.loc 4 246 49 is_stmt 0 view .LVU854
 3626 03c8 06FA07F7 		lsl	r7, r6, r7
 246:../../libdaisy/src/dev/oled_ssd130x.h ****     }
 3627              		.loc 4 246 42 view .LVU855
 3628 03cc 1E7D     		ldrb	r6, [r3, #20]	@ zero_extendqisi2
 3629 03ce 26EA0706 		bic	r6, r6, r7
 3630 03d2 1E75     		strb	r6, [r3, #20]
 3631 03d4 7FE7     		b	.L252
 3632              	.LVL312:
 3633              	.L243:
 246:../../libdaisy/src/dev/oled_ssd130x.h ****     }
 3634              		.loc 4 246 42 view .LVU856
 3635              	.LBE637:
 3636              	.LBE636:
 3637              	.LBE638:
 3638              	.LBE639:
 3639              	.LBE648:
 3640              	.LBE650:
 3641              	.LBE656:
 3642              	.LBB657:
 3643              	.LBB630:
 3644              	.LBB628:
 3645              	.LBB618:
 3646              	.LBB616:
 3647              	.LBB613:
 3648              	.LBI613:
 239:../../libdaisy/src/dev/oled_ssd130x.h ****     {
 3649              		.loc 4 239 10 is_stmt 1 view .LVU857
 3650              	.LBB614:
 246:../../libdaisy/src/dev/oled_ssd130x.h ****     }
 3651              		.loc 4 246 49 is_stmt 0 view .LVU858
 3652 03d6 0127     		movs	r7, #1
 246:../../libdaisy/src/dev/oled_ssd130x.h ****     }
 3653              		.loc 4 246 55 view .LVU859
 3654 03d8 04F0070C 		and	ip, r4, #7
ARM GAS  C:\Users\VINCIU~1\AppData\Local\Temp\cc6DIkXk.s 			page 98


 246:../../libdaisy/src/dev/oled_ssd130x.h ****     }
 3655              		.loc 4 246 49 view .LVU860
 3656 03dc 07FA0CFC 		lsl	ip, r7, ip
 246:../../libdaisy/src/dev/oled_ssd130x.h ****     }
 3657              		.loc 4 246 42 view .LVU861
 3658 03e0 377D     		ldrb	r7, [r6, #20]	@ zero_extendqisi2
 3659 03e2 27EA0C07 		bic	r7, r7, ip
 3660 03e6 3775     		strb	r7, [r6, #20]
 3661 03e8 2DE7     		b	.L242
 3662              	.LVL313:
 3663              	.L221:
 246:../../libdaisy/src/dev/oled_ssd130x.h ****     }
 3664              		.loc 4 246 42 view .LVU862
 3665              	.LBE614:
 3666              	.LBE613:
 3667              	.LBE616:
 3668              	.LBE618:
 3669              	.LBE628:
 3670              	.LBE630:
 3671              	.LBE657:
 3672              	.LBB658:
 3673              	.LBB570:
 3674              	.LBB567:
 3675              	.LBB555:
 3676              	.LBB551:
 3677              	.LBB546:
 3678              	.LBI546:
 239:../../libdaisy/src/dev/oled_ssd130x.h ****     {
 3679              		.loc 4 239 10 is_stmt 1 view .LVU863
 3680              	.LBB547:
 246:../../libdaisy/src/dev/oled_ssd130x.h ****     }
 3681              		.loc 4 246 49 is_stmt 0 view .LVU864
 3682 03ea 07FA0CFC 		lsl	ip, r7, ip
 246:../../libdaisy/src/dev/oled_ssd130x.h ****     }
 3683              		.loc 4 246 42 view .LVU865
 3684 03ee 377D     		ldrb	r7, [r6, #20]	@ zero_extendqisi2
 3685 03f0 0295     		str	r5, [sp, #8]
 3686 03f2 27EA0C07 		bic	r7, r7, ip
 3687 03f6 0095     		str	r5, [sp]
 3688 03f8 3775     		strb	r7, [r6, #20]
 3689 03fa 6CE6     		b	.L220
 3690              	.LVL314:
 3691              	.L265:
 246:../../libdaisy/src/dev/oled_ssd130x.h ****     }
 3692              		.loc 4 246 42 view .LVU866
 3693              	.LBE547:
 3694              	.LBE546:
 3695              	.LBE551:
 3696              	.LBE555:
 3697              	.LBE567:
 3698              	.LBE570:
 3699              	.LBE658:
 3700              	.LBB659:
 3701              	.LBB606:
 190:../../libdaisy/src/hid/disp/display.h ****         int_fast16_t error  = deltaX - deltaY;
 3702              		.loc 3 190 42 view .LVU867
 3703 03fc 4FF0FF36 		mov	r6, #-1
ARM GAS  C:\Users\VINCIU~1\AppData\Local\Temp\cc6DIkXk.s 			page 99


 3704 0400 0096     		str	r6, [sp]
 3705 0402 C5E6     		b	.L231
 3706              	.LVL315:
 3707              	.L269:
 190:../../libdaisy/src/hid/disp/display.h ****         int_fast16_t error  = deltaX - deltaY;
 3708              		.loc 3 190 42 view .LVU868
 3709 0404 0126     		movs	r6, #1
 3710 0406 0096     		str	r6, [sp]
 3711 0408 C5E6     		b	.L234
 3712              	.LVL316:
 3713              	.L302:
 190:../../libdaisy/src/hid/disp/display.h ****         int_fast16_t error  = deltaX - deltaY;
 3714              		.loc 3 190 42 view .LVU869
 3715              	.LBE606:
 3716              	.LBE659:
 3717              	.LBB660:
 3718              	.LBB571:
 199:../../libdaisy/src/hid/disp/display.h ****         {
 3719              		.loc 3 199 19 view .LVU870
 3720 040a 0126     		movs	r6, #1
 3721 040c 0496     		str	r6, [sp, #16]
 3722 040e 90E6     		b	.L222
 3723              	.LVL317:
 3724              	.L303:
 199:../../libdaisy/src/hid/disp/display.h ****         {
 3725              		.loc 3 199 19 view .LVU871
 3726              	.LBE571:
 3727              	.LBE660:
 3728              	.LBB661:
 3729              	.LBB607:
 199:../../libdaisy/src/hid/disp/display.h ****         {
 3730              		.loc 3 199 33 view .LVU872
 3731 0410 0126     		movs	r6, #1
 3732 0412 0196     		str	r6, [sp, #4]
 3733 0414 EDE6     		b	.L233
 3734              	.LBE607:
 3735              	.LBE661:
 3736              	.LBE685:
 3737              		.cfi_endproc
 3738              	.LFE1837:
 3740 0416 00BF     		.section	.text._ZN23OledDisplayExtravaganzaC2Ev,"ax",%progbits
 3741              		.align	1
 3742              		.p2align 2,,3
 3743              		.global	_ZN23OledDisplayExtravaganzaC2Ev
 3744              		.syntax unified
 3745              		.thumb
 3746              		.thumb_func
 3747              		.fpu fpv5-d16
 3749              	_ZN23OledDisplayExtravaganzaC2Ev:
 3750              	.LVL318:
 3751              	.LFB1813:
 3752              		.file 6 "OledDisplayExtravaganza.cpp"
   1:OledDisplayExtravaganza.cpp **** #include "OledDisplayExtravaganza.h"
   2:OledDisplayExtravaganza.cpp **** 
   3:OledDisplayExtravaganza.cpp **** OledDisplayExtravaganza::OledDisplayExtravaganza() {}
 3753              		.loc 6 3 1 is_stmt 1 view -0
 3754              		.cfi_startproc
ARM GAS  C:\Users\VINCIU~1\AppData\Local\Temp\cc6DIkXk.s 			page 100


 3755              		@ args = 0, pretend = 0, frame = 0
 3756              		@ frame_needed = 0, uses_anonymous_args = 0
 3757              		@ link register save eliminated.
 3758              	.LBB686:
 3759              	.LBB687:
 3760              	.LBB688:
 3761              	.LBB689:
 3762              	.LBB690:
 3763              	.LBB691:
 3764              		.file 7 "../../libdaisy/src/per/spi.h"
   1:../../libdaisy/src/per/spi.h **** #pragma once
   2:../../libdaisy/src/per/spi.h **** #ifndef DSY_SPI_H
   3:../../libdaisy/src/per/spi.h **** #define DSY_SPI_H
   4:../../libdaisy/src/per/spi.h **** 
   5:../../libdaisy/src/per/spi.h **** #include "daisy_core.h"
   6:../../libdaisy/src/per/spi.h **** 
   7:../../libdaisy/src/per/spi.h **** /* TODO:
   8:../../libdaisy/src/per/spi.h **** - Add documentation
   9:../../libdaisy/src/per/spi.h **** - Add reception
  10:../../libdaisy/src/per/spi.h **** - Add IT
  11:../../libdaisy/src/per/spi.h **** - Add DMA
  12:../../libdaisy/src/per/spi.h **** */
  13:../../libdaisy/src/per/spi.h **** 
  14:../../libdaisy/src/per/spi.h **** namespace daisy
  15:../../libdaisy/src/per/spi.h **** {
  16:../../libdaisy/src/per/spi.h **** /** @addtogroup serial
  17:../../libdaisy/src/per/spi.h **** @{
  18:../../libdaisy/src/per/spi.h **** */
  19:../../libdaisy/src/per/spi.h **** 
  20:../../libdaisy/src/per/spi.h **** /**  Handler for serial peripheral interface */
  21:../../libdaisy/src/per/spi.h **** class SpiHandle
  22:../../libdaisy/src/per/spi.h **** {
  23:../../libdaisy/src/per/spi.h ****   public:
  24:../../libdaisy/src/per/spi.h ****     struct Config
  25:../../libdaisy/src/per/spi.h ****     {
  26:../../libdaisy/src/per/spi.h ****         enum class Peripheral
  27:../../libdaisy/src/per/spi.h ****         {
  28:../../libdaisy/src/per/spi.h ****             SPI_1,
  29:../../libdaisy/src/per/spi.h ****             SPI_2,
  30:../../libdaisy/src/per/spi.h ****             SPI_3,
  31:../../libdaisy/src/per/spi.h ****             SPI_4,
  32:../../libdaisy/src/per/spi.h ****             SPI_5,
  33:../../libdaisy/src/per/spi.h ****             SPI_6,
  34:../../libdaisy/src/per/spi.h ****         };
  35:../../libdaisy/src/per/spi.h **** 
  36:../../libdaisy/src/per/spi.h ****         enum class Mode
  37:../../libdaisy/src/per/spi.h ****         {
  38:../../libdaisy/src/per/spi.h ****             MASTER,
  39:../../libdaisy/src/per/spi.h ****             SLAVE,
  40:../../libdaisy/src/per/spi.h ****         };
  41:../../libdaisy/src/per/spi.h **** 
  42:../../libdaisy/src/per/spi.h ****         enum class Direction
  43:../../libdaisy/src/per/spi.h ****         {
  44:../../libdaisy/src/per/spi.h ****             TWO_LINES,
  45:../../libdaisy/src/per/spi.h ****             TWO_LINES_TX_ONLY,
  46:../../libdaisy/src/per/spi.h ****             TWO_LINES_RX_ONLY,
  47:../../libdaisy/src/per/spi.h ****             ONE_LINE,
ARM GAS  C:\Users\VINCIU~1\AppData\Local\Temp\cc6DIkXk.s 			page 101


  48:../../libdaisy/src/per/spi.h ****         };
  49:../../libdaisy/src/per/spi.h **** 
  50:../../libdaisy/src/per/spi.h ****         enum class ClockPolarity
  51:../../libdaisy/src/per/spi.h ****         {
  52:../../libdaisy/src/per/spi.h ****             LOW,
  53:../../libdaisy/src/per/spi.h ****             HIGH,
  54:../../libdaisy/src/per/spi.h ****         };
  55:../../libdaisy/src/per/spi.h **** 
  56:../../libdaisy/src/per/spi.h ****         enum class ClockPhase
  57:../../libdaisy/src/per/spi.h ****         {
  58:../../libdaisy/src/per/spi.h ****             ONE_EDGE,
  59:../../libdaisy/src/per/spi.h ****             TWO_EDGE,
  60:../../libdaisy/src/per/spi.h ****         };
  61:../../libdaisy/src/per/spi.h **** 
  62:../../libdaisy/src/per/spi.h ****         enum class NSS
  63:../../libdaisy/src/per/spi.h ****         {
  64:../../libdaisy/src/per/spi.h ****             SOFT,
  65:../../libdaisy/src/per/spi.h ****             HARD_INPUT,
  66:../../libdaisy/src/per/spi.h ****             HARD_OUTPUT,
  67:../../libdaisy/src/per/spi.h ****         };
  68:../../libdaisy/src/per/spi.h **** 
  69:../../libdaisy/src/per/spi.h ****         enum class BaudPrescaler
  70:../../libdaisy/src/per/spi.h ****         {
  71:../../libdaisy/src/per/spi.h ****             PS_2,
  72:../../libdaisy/src/per/spi.h ****             PS_4,
  73:../../libdaisy/src/per/spi.h ****             PS_8,
  74:../../libdaisy/src/per/spi.h ****             PS_16,
  75:../../libdaisy/src/per/spi.h ****             PS_32,
  76:../../libdaisy/src/per/spi.h ****             PS_64,
  77:../../libdaisy/src/per/spi.h ****             PS_128,
  78:../../libdaisy/src/per/spi.h ****             PS_256,
  79:../../libdaisy/src/per/spi.h ****         };
  80:../../libdaisy/src/per/spi.h **** 
  81:../../libdaisy/src/per/spi.h ****         struct
  82:../../libdaisy/src/per/spi.h ****         {
  83:../../libdaisy/src/per/spi.h ****             dsy_gpio_pin sclk; /**< & */
  84:../../libdaisy/src/per/spi.h ****             dsy_gpio_pin miso; /**< & */
  85:../../libdaisy/src/per/spi.h ****             dsy_gpio_pin mosi; /**< & */
  86:../../libdaisy/src/per/spi.h ****             dsy_gpio_pin nss;  /**< & */
  87:../../libdaisy/src/per/spi.h ****         } pin_config;
  88:../../libdaisy/src/per/spi.h **** 
  89:../../libdaisy/src/per/spi.h ****         Peripheral    periph;
  90:../../libdaisy/src/per/spi.h ****         Mode          mode;
  91:../../libdaisy/src/per/spi.h ****         Direction     direction;
  92:../../libdaisy/src/per/spi.h ****         unsigned long datasize;
  93:../../libdaisy/src/per/spi.h ****         ClockPolarity clock_polarity;
  94:../../libdaisy/src/per/spi.h ****         ClockPhase    clock_phase;
  95:../../libdaisy/src/per/spi.h ****         NSS           nss;
  96:../../libdaisy/src/per/spi.h ****         BaudPrescaler baud_prescaler;
  97:../../libdaisy/src/per/spi.h ****     };
  98:../../libdaisy/src/per/spi.h **** 
  99:../../libdaisy/src/per/spi.h ****     SpiHandle() : pimpl_(nullptr) {}
 3765              		.loc 7 99 33 is_stmt 0 view .LVU874
 3766 0000 0021     		movs	r1, #0
 3767              	.LBE691:
 3768              	.LBE690:
 3769              	.LBE689:
ARM GAS  C:\Users\VINCIU~1\AppData\Local\Temp\cc6DIkXk.s 			page 102


 3770              	.LBE688:
 3771              	.LBE687:
 3772              		.loc 6 3 50 view .LVU875
 3773 0002 024A     		ldr	r2, .L306
 3774              	.LVL319:
 3775              	.LBB698:
 3776              	.LBI687:
  16:../../libdaisy/src/hid/disp/oled_display.h ****     virtual ~OledDisplay() {}
 3777              		.loc 2 16 5 is_stmt 1 view .LVU876
 3778              	.LBB695:
 3779              	.LBI695:
 178:../../libdaisy/src/hid/disp/display.h ****     virtual ~OneBitGraphicsDisplayImpl() {}
 3780              		.loc 3 178 5 view .LVU877
 3781              	.LBB696:
 3782              	.LBI696:
  21:../../libdaisy/src/hid/disp/display.h ****     virtual ~OneBitGraphicsDisplay() {}
 3783              		.loc 3 21 5 view .LVU878
  21:../../libdaisy/src/hid/disp/display.h ****     virtual ~OneBitGraphicsDisplay() {}
 3784              		.loc 3 21 5 is_stmt 0 view .LVU879
 3785              	.LBE696:
 3786              	.LBE695:
 3787              	.LBB697:
 3788              	.LBI688:
 132:../../libdaisy/src/dev/oled_ssd130x.h **** {
 3789              		.loc 4 132 7 is_stmt 1 view .LVU880
 3790              	.LBB694:
 3791              	.LBI689:
  60:../../libdaisy/src/dev/oled_ssd130x.h **** {
 3792              		.loc 4 60 7 view .LVU881
 3793              	.LBB693:
 3794              	.LBI690:
 3795              		.loc 7 99 5 view .LVU882
 3796              	.LBB692:
 3797              		.loc 7 99 33 is_stmt 0 view .LVU883
 3798 0004 8160     		str	r1, [r0, #8]
 3799              	.LVL320:
 3800              		.loc 7 99 33 view .LVU884
 3801              	.LBE692:
 3802              	.LBE693:
 3803              	.LBE694:
 3804              	.LBE697:
 3805              	.LBE698:
 3806              		.loc 6 3 50 view .LVU885
 3807 0006 0260     		str	r2, [r0]
 3808              	.LBE686:
 3809              		.loc 6 3 53 view .LVU886
 3810 0008 7047     		bx	lr
 3811              	.L307:
 3812 000a 00BF     		.align	2
 3813              	.L306:
 3814 000c 08000000 		.word	_ZTV23OledDisplayExtravaganza+8
 3815              		.cfi_endproc
 3816              	.LFE1813:
 3818              		.global	_ZN23OledDisplayExtravaganzaC1Ev
 3819              		.thumb_set _ZN23OledDisplayExtravaganzaC1Ev,_ZN23OledDisplayExtravaganzaC2Ev
 3820              		.section	.text._ZN23OledDisplayExtravaganza10drawSliderEffffff,"ax",%progbits
 3821              		.align	1
ARM GAS  C:\Users\VINCIU~1\AppData\Local\Temp\cc6DIkXk.s 			page 103


 3822              		.p2align 2,,3
 3823              		.global	_ZN23OledDisplayExtravaganza10drawSliderEffffff
 3824              		.syntax unified
 3825              		.thumb
 3826              		.thumb_func
 3827              		.fpu fpv5-d16
 3829              	_ZN23OledDisplayExtravaganza10drawSliderEffffff:
 3830              	.LVL321:
 3831              	.LFB1815:
   4:OledDisplayExtravaganza.cpp **** 
   5:OledDisplayExtravaganza.cpp **** void OledDisplayExtravaganza::drawSlider(float x,
   6:OledDisplayExtravaganza.cpp ****                                          float y,
   7:OledDisplayExtravaganza.cpp ****                                          float width,
   8:OledDisplayExtravaganza.cpp ****                                          float height,
   9:OledDisplayExtravaganza.cpp ****                                          float on,
  10:OledDisplayExtravaganza.cpp ****                                          float amount)
  11:OledDisplayExtravaganza.cpp **** {
 3832              		.loc 6 11 1 is_stmt 1 view -0
 3833              		.cfi_startproc
 3834              		@ args = 0, pretend = 0, frame = 0
 3835              		@ frame_needed = 0, uses_anonymous_args = 0
  12:OledDisplayExtravaganza.cpp ****     OledDisplay::DrawRect(x, y, x + width * amount, y + height, on, true);
 3836              		.loc 6 12 5 view .LVU888
 3837              		.loc 6 12 26 is_stmt 0 view .LVU889
 3838 0000 FCEEC07A 		vcvt.u32.f32	s15, s0
 3839              		.loc 6 12 55 view .LVU890
 3840 0004 70EEA11A 		vadd.f32	s3, s1, s3
 3841              	.LVL322:
 3842              		.loc 6 12 35 view .LVU891
 3843 0008 A1EE220A 		vfma.f32	s0, s2, s5
 3844              	.LVL323:
 3845              		.loc 6 12 26 view .LVU892
 3846 000c 17EE90CA 		vmov	ip, s15	@ int
 3847 0010 FCEEE17A 		vcvt.u32.f32	s15, s3
  11:OledDisplayExtravaganza.cpp ****     OledDisplay::DrawRect(x, y, x + width * amount, y + height, on, true);
 3848              		.loc 6 11 1 view .LVU893
 3849 0014 2DE9F047 		push	{r4, r5, r6, r7, r8, r9, r10, lr}
 3850              		.cfi_def_cfa_offset 32
 3851              		.cfi_offset 4, -32
 3852              		.cfi_offset 5, -28
 3853              		.cfi_offset 6, -24
 3854              		.cfi_offset 7, -20
 3855              		.cfi_offset 8, -16
 3856              		.cfi_offset 9, -12
 3857              		.cfi_offset 10, -8
 3858              		.cfi_offset 14, -4
 3859              		.loc 6 12 26 view .LVU894
 3860 0018 17EE904A 		vmov	r4, s15	@ int
 3861              	.LVL324:
 3862              		.loc 6 12 26 view .LVU895
 3863 001c FCEEE07A 		vcvt.u32.f32	s15, s1
 3864 0020 17EE906A 		vmov	r6, s15	@ int
 3865              	.LVL325:
 3866              		.loc 6 12 26 view .LVU896
 3867 0024 FCEEC07A 		vcvt.u32.f32	s15, s0
 3868 0028 17EE907A 		vmov	r7, s15	@ int
 3869              	.LVL326:
ARM GAS  C:\Users\VINCIU~1\AppData\Local\Temp\cc6DIkXk.s 			page 104


 3870              	.LBB712:
 3871              	.LBI712:
 217:../../libdaisy/src/hid/disp/display.h ****                   uint_fast8_t y1,
 3872              		.loc 3 217 10 is_stmt 1 view .LVU897
 3873              	.LBB713:
 3874              	.LBI713:
 217:../../libdaisy/src/hid/disp/display.h ****                   uint_fast8_t y1,
 3875              		.loc 3 217 10 view .LVU898
 3876              	.LBB714:
 226:../../libdaisy/src/hid/disp/display.h ****             {
 3877              		.loc 3 226 40 view .LVU899
 3878 002c BC45     		cmp	ip, r7
 3879 002e 31D8     		bhi	.L308
 3880              	.LVL327:
 3881              	.L309:
 3882              	.LBB715:
 228:../../libdaisy/src/hid/disp/display.h ****                 {
 3883              		.loc 3 228 44 view .LVU900
 3884 0030 A642     		cmp	r6, r4
 3885 0032 2BD8     		bhi	.L314
 3886              	.LBB716:
 3887              	.LBB717:
 3888              	.LBB718:
 241:../../libdaisy/src/dev/oled_ssd130x.h ****             return;
 3889              		.loc 4 241 14 is_stmt 0 view .LVU901
 3890 0034 BCF17F0F 		cmp	ip, #127
 3891 0038 3346     		mov	r3, r6
 3892 003a 94BF     		ite	ls
 3893 003c 0025     		movls	r5, #0
 3894 003e 0125     		movhi	r5, #1
 3895 0040 08E0     		b	.L315
 3896              	.LVL328:
 3897              	.L319:
 244:../../libdaisy/src/dev/oled_ssd130x.h ****         else
 3898              		.loc 4 244 42 view .LVU902
 3899 0042 91F81480 		ldrb	r8, [r1, #20]	@ zero_extendqisi2
 3900 0046 4EEA080E 		orr	lr, lr, r8
 3901 004a 81F814E0 		strb	lr, [r1, #20]
 3902              	.LVL329:
 3903              	.L312:
 244:../../libdaisy/src/dev/oled_ssd130x.h ****         else
 3904              		.loc 4 244 42 view .LVU903
 3905              	.LBE718:
 3906              	.LBE717:
 3907              	.LBE716:
 228:../../libdaisy/src/hid/disp/display.h ****                 {
 3908              		.loc 3 228 17 is_stmt 1 view .LVU904
 3909 004e 0133     		adds	r3, r3, #1
 3910              	.LVL330:
 228:../../libdaisy/src/hid/disp/display.h ****                 {
 3911              		.loc 3 228 44 view .LVU905
 3912 0050 9C42     		cmp	r4, r3
 3913 0052 1BD3     		bcc	.L314
 3914              	.L315:
 3915              	.LVL331:
 3916              	.LBB732:
 3917              	.LBI716:
ARM GAS  C:\Users\VINCIU~1\AppData\Local\Temp\cc6DIkXk.s 			page 105


  41:../../libdaisy/src/hid/disp/oled_display.h ****     {
 3918              		.loc 2 41 10 view .LVU906
 3919              	.LBB729:
 3920              	.LBI717:
 239:../../libdaisy/src/dev/oled_ssd130x.h ****     {
 3921              		.loc 4 239 10 view .LVU907
 3922              	.LBB726:
 241:../../libdaisy/src/dev/oled_ssd130x.h ****             return;
 3923              		.loc 4 241 9 is_stmt 0 view .LVU908
 3924 0054 3F2B     		cmp	r3, #63
 3925 0056 FAD8     		bhi	.L312
 241:../../libdaisy/src/dev/oled_ssd130x.h ****             return;
 3926              		.loc 4 241 9 view .LVU909
 3927 0058 002D     		cmp	r5, #0
 3928 005a F8D1     		bne	.L312
 3929              	.LVL332:
 3930              	.LBB719:
 3931              	.LBI719:
 239:../../libdaisy/src/dev/oled_ssd130x.h ****     {
 3932              		.loc 4 239 10 is_stmt 1 view .LVU910
 239:../../libdaisy/src/dev/oled_ssd130x.h ****     {
 3933              		.loc 4 239 10 is_stmt 0 view .LVU911
 3934              	.LBE719:
 243:../../libdaisy/src/dev/oled_ssd130x.h ****             buffer_[x + (y / 8) * width] |= (1 << (y % 8));
 3935              		.loc 4 243 9 view .LVU912
 3936 005c B5EE402A 		vcmp.f32	s4, #0
 244:../../libdaisy/src/dev/oled_ssd130x.h ****         else
 3937              		.loc 4 244 28 view .LVU913
 3938 0060 D908     		lsrs	r1, r3, #3
 244:../../libdaisy/src/dev/oled_ssd130x.h ****         else
 3939              		.loc 4 244 54 view .LVU914
 3940 0062 03F0070E 		and	lr, r3, #7
 244:../../libdaisy/src/dev/oled_ssd130x.h ****         else
 3941              		.loc 4 244 48 view .LVU915
 3942 0066 4FF00108 		mov	r8, #1
 244:../../libdaisy/src/dev/oled_ssd130x.h ****         else
 3943              		.loc 4 244 42 view .LVU916
 3944 006a 0CEBC111 		add	r1, ip, r1, lsl #7
 243:../../libdaisy/src/dev/oled_ssd130x.h ****             buffer_[x + (y / 8) * width] |= (1 << (y % 8));
 3945              		.loc 4 243 9 view .LVU917
 3946 006e F1EE10FA 		vmrs	APSR_nzcv, FPSCR
 244:../../libdaisy/src/dev/oled_ssd130x.h ****         else
 3947              		.loc 4 244 48 view .LVU918
 3948 0072 08FA0EFE 		lsl	lr, r8, lr
 244:../../libdaisy/src/dev/oled_ssd130x.h ****         else
 3949              		.loc 4 244 42 view .LVU919
 3950 0076 0144     		add	r1, r1, r0
 243:../../libdaisy/src/dev/oled_ssd130x.h ****             buffer_[x + (y / 8) * width] |= (1 << (y % 8));
 3951              		.loc 4 243 9 view .LVU920
 3952 0078 E3D1     		bne	.L319
 3953              	.LBB723:
 3954              	.LBB720:
 246:../../libdaisy/src/dev/oled_ssd130x.h ****     }
 3955              		.loc 4 246 42 view .LVU921
 3956 007a 91F814A0 		ldrb	r10, [r1, #20]	@ zero_extendqisi2
 3957              	.LBE720:
 3958              	.LBE723:
ARM GAS  C:\Users\VINCIU~1\AppData\Local\Temp\cc6DIkXk.s 			page 106


 3959              	.LBE726:
 3960              	.LBE729:
 3961              	.LBE732:
 228:../../libdaisy/src/hid/disp/display.h ****                 {
 3962              		.loc 3 228 17 view .LVU922
 3963 007e 0133     		adds	r3, r3, #1
 3964              	.LVL333:
 3965              	.LBB733:
 3966              	.LBB730:
 3967              	.LBB727:
 3968              	.LBB724:
 3969              	.LBB721:
 246:../../libdaisy/src/dev/oled_ssd130x.h ****     }
 3970              		.loc 4 246 42 view .LVU923
 3971 0080 2AEA0E09 		bic	r9, r10, lr
 3972              	.LBE721:
 3973              	.LBE724:
 3974              	.LBE727:
 3975              	.LBE730:
 3976              	.LBE733:
 228:../../libdaisy/src/hid/disp/display.h ****                 {
 3977              		.loc 3 228 44 view .LVU924
 3978 0084 9C42     		cmp	r4, r3
 3979              	.LBB734:
 3980              	.LBB731:
 3981              	.LBB728:
 3982              	.LBB725:
 3983              	.LBB722:
 246:../../libdaisy/src/dev/oled_ssd130x.h ****     }
 3984              		.loc 4 246 42 view .LVU925
 3985 0086 81F81490 		strb	r9, [r1, #20]
 3986              	.LVL334:
 246:../../libdaisy/src/dev/oled_ssd130x.h ****     }
 3987              		.loc 4 246 42 view .LVU926
 3988              	.LBE722:
 3989              	.LBE725:
 3990              	.LBE728:
 3991              	.LBE731:
 3992              	.LBE734:
 228:../../libdaisy/src/hid/disp/display.h ****                 {
 3993              		.loc 3 228 17 is_stmt 1 view .LVU927
 228:../../libdaisy/src/hid/disp/display.h ****                 {
 3994              		.loc 3 228 44 view .LVU928
 3995 008a E3D2     		bcs	.L315
 3996              	.LVL335:
 3997              	.L314:
 228:../../libdaisy/src/hid/disp/display.h ****                 {
 3998              		.loc 3 228 44 is_stmt 0 view .LVU929
 3999              	.LBE715:
 226:../../libdaisy/src/hid/disp/display.h ****             {
 4000              		.loc 3 226 13 is_stmt 1 view .LVU930
 4001 008c 0CF1010C 		add	ip, ip, #1
 4002              	.LVL336:
 226:../../libdaisy/src/hid/disp/display.h ****             {
 4003              		.loc 3 226 40 view .LVU931
 4004 0090 6745     		cmp	r7, ip
 4005 0092 CDD2     		bcs	.L309
ARM GAS  C:\Users\VINCIU~1\AppData\Local\Temp\cc6DIkXk.s 			page 107


 4006              	.L308:
 226:../../libdaisy/src/hid/disp/display.h ****             {
 4007              		.loc 3 226 40 is_stmt 0 view .LVU932
 4008              	.LBE714:
 4009              	.LBE713:
 4010              	.LBE712:
  13:OledDisplayExtravaganza.cpp **** }
 4011              		.loc 6 13 1 view .LVU933
 4012 0094 BDE8F087 		pop	{r4, r5, r6, r7, r8, r9, r10, pc}
 4013              		.loc 6 13 1 view .LVU934
 4014              		.cfi_endproc
 4015              	.LFE1815:
 4017              		.section	.text._ZN23OledDisplayExtravaganza8drawSineEfffb,"ax",%progbits
 4018              		.align	1
 4019              		.p2align 2,,3
 4020              		.global	_ZN23OledDisplayExtravaganza8drawSineEfffb
 4021              		.syntax unified
 4022              		.thumb
 4023              		.thumb_func
 4024              		.fpu fpv5-d16
 4026              	_ZN23OledDisplayExtravaganza8drawSineEfffb:
 4027              	.LVL337:
 4028              	.LFB1816:
  14:OledDisplayExtravaganza.cpp **** 
  15:OledDisplayExtravaganza.cpp **** 
  16:OledDisplayExtravaganza.cpp **** void OledDisplayExtravaganza::drawSine(float x, float y, float points, bool on)
  17:OledDisplayExtravaganza.cpp **** {
 4029              		.loc 6 17 1 is_stmt 1 view -0
 4030              		.cfi_startproc
 4031              		@ args = 0, pretend = 0, frame = 8
 4032              		@ frame_needed = 0, uses_anonymous_args = 0
  18:OledDisplayExtravaganza.cpp ****     float ang = 0;
 4033              		.loc 6 18 5 view .LVU936
  19:OledDisplayExtravaganza.cpp ****     for(int i = x; i < points; i++)
 4034              		.loc 6 19 5 view .LVU937
 4035              	.LBB750:
 4036              		.loc 6 19 13 is_stmt 0 view .LVU938
 4037 0000 FDEEC07A 		vcvt.s32.f32	s15, s0
 4038              	.LBE750:
  17:OledDisplayExtravaganza.cpp ****     float ang = 0;
 4039              		.loc 6 17 1 view .LVU939
 4040 0004 2DE9F04F 		push	{r4, r5, r6, r7, r8, r9, r10, fp, lr}
 4041              		.cfi_def_cfa_offset 36
 4042              		.cfi_offset 4, -36
 4043              		.cfi_offset 5, -32
 4044              		.cfi_offset 6, -28
 4045              		.cfi_offset 7, -24
 4046              		.cfi_offset 8, -20
 4047              		.cfi_offset 9, -16
 4048              		.cfi_offset 10, -12
 4049              		.cfi_offset 11, -8
 4050              		.cfi_offset 14, -4
 4051              	.LBB783:
 4052              		.loc 6 19 13 view .LVU940
 4053 0008 17EE90BA 		vmov	fp, s15	@ int
 4054              	.LVL338:
 4055              		.loc 6 19 22 is_stmt 1 view .LVU941
ARM GAS  C:\Users\VINCIU~1\AppData\Local\Temp\cc6DIkXk.s 			page 108


 4056 000c F8EEE77A 		vcvt.f32.s32	s15, s15
 4057              	.LBE783:
  17:OledDisplayExtravaganza.cpp ****     float ang = 0;
 4058              		.loc 6 17 1 is_stmt 0 view .LVU942
 4059 0010 2DED0A8B 		vpush.64	{d8, d9, d10, d11, d12}
 4060              		.cfi_def_cfa_offset 76
 4061              		.cfi_offset 80, -76
 4062              		.cfi_offset 81, -72
 4063              		.cfi_offset 82, -68
 4064              		.cfi_offset 83, -64
 4065              		.cfi_offset 84, -60
 4066              		.cfi_offset 85, -56
 4067              		.cfi_offset 86, -52
 4068              		.cfi_offset 87, -48
 4069              		.cfi_offset 88, -44
 4070              		.cfi_offset 89, -40
 4071              	.LBB784:
 4072              		.loc 6 19 22 view .LVU943
 4073 0014 B4EEE71A 		vcmpe.f32	s2, s15
 4074              	.LBE784:
  17:OledDisplayExtravaganza.cpp ****     float ang = 0;
 4075              		.loc 6 17 1 view .LVU944
 4076 0018 85B0     		sub	sp, sp, #20
 4077              		.cfi_def_cfa_offset 96
 4078              	.LBB785:
 4079              		.loc 6 19 22 view .LVU945
 4080 001a F1EE10FA 		vmrs	APSR_nzcv, FPSCR
 4081 001e 40F3BE80 		ble	.L320
  20:OledDisplayExtravaganza.cpp ****     {
  21:OledDisplayExtravaganza.cpp ****         DrawLine(
  22:OledDisplayExtravaganza.cpp ****             i, y + sin(ang * 3.3) * 8, i - 1, y + sin((ang - 0.1) * 3) * 8, on);
 4082              		.loc 6 22 16 view .LVU946
 4083 0022 B7EEE0BA 		vcvt.f64.f32	d11, s1
 4084 0026 8A46     		mov	r10, r1
 4085 0028 B0EE41CA 		vmov.f32	s24, s2
 4086 002c 0BF1FF35 		add	r5, fp, #-1
 4087 0030 8046     		mov	r8, r0
 4088 0032 CDF80CB0 		str	fp, [sp, #12]
 4089 0036 9FED5CAB 		vldr.64	d10, .L349
 4090 003a 9FED5D0B 		vldr.64	d0, .L349+8
 4091              	.LVL339:
 4092              		.loc 6 22 16 view .LVU947
 4093 003e B0EE4A8B 		vmov.f64	d8, d10
 4094              	.LVL340:
 4095              	.L337:
  21:OledDisplayExtravaganza.cpp ****             i, y + sin(ang * 3.3) * 8, i - 1, y + sin((ang - 0.1) * 3) * 8, on);
 4096              		.loc 6 21 9 is_stmt 1 discriminator 2 view .LVU948
 4097              		.loc 6 22 18 is_stmt 0 discriminator 2 view .LVU949
 4098 0042 B2EE007B 		vmov.f64	d7, #8.0e+0
 4099              		.loc 6 22 79 discriminator 2 view .LVU950
 4100 0046 D8F80030 		ldr	r3, [r8]
 4101              		.loc 6 22 18 discriminator 2 view .LVU951
 4102 004a B0EE4B5B 		vmov.f64	d5, d11
 4103 004e 0399     		ldr	r1, [sp, #12]
 4104              		.loc 6 22 49 discriminator 2 view .LVU952
 4105 0050 B0EE4B6B 		vmov.f64	d6, d11
 4106              		.loc 6 22 79 discriminator 2 view .LVU953
ARM GAS  C:\Users\VINCIU~1\AppData\Local\Temp\cc6DIkXk.s 			page 109


 4107 0054 9C69     		ldr	r4, [r3, #24]
 4108 0056 5C4B     		ldr	r3, .L349+32
 4109 0058 0E46     		mov	r6, r1
 4110              		.loc 6 22 18 discriminator 2 view .LVU954
 4111 005a AAEE075B 		vfma.f64	d5, d10, d7
 4112 005e 9C42     		cmp	r4, r3
 4113              		.loc 6 22 49 discriminator 2 view .LVU955
 4114 0060 A0EE076B 		vfma.f64	d6, d0, d7
  21:OledDisplayExtravaganza.cpp ****             i, y + sin(ang * 3.3) * 8, i - 1, y + sin((ang - 0.1) * 3) * 8, on);
 4115              		.loc 6 21 17 discriminator 2 view .LVU956
 4116 0064 FCEEC57B 		vcvt.u32.f64	s15, d5
 4117 0068 17EE902A 		vmov	r2, s15	@ int
 4118 006c FCEEC67B 		vcvt.u32.f64	s15, d6
 4119 0070 17EE907A 		vmov	r7, s15	@ int
 4120 0074 40F08C80 		bne	.L323
 4121              	.LVL341:
 4122              	.LBB751:
 4123              	.LBI751:
 181:../../libdaisy/src/hid/disp/display.h ****                   uint_fast8_t y1,
 4124              		.loc 3 181 10 is_stmt 1 view .LVU957
 4125              	.LBB752:
 188:../../libdaisy/src/hid/disp/display.h ****         int_fast16_t signX  = ((x1 < x2) ? 1 : -1);
 4126              		.loc 3 188 52 is_stmt 0 view .LVU958
 4127 0078 BB1A     		subs	r3, r7, r2
 189:../../libdaisy/src/hid/disp/display.h ****         int_fast16_t signY  = ((y1 < y2) ? 1 : -1);
 4128              		.loc 3 189 42 view .LVU959
 4129 007a A942     		cmp	r1, r5
 4130 007c 34BF     		ite	cc
 4131 007e 4FF0010B 		movcc	fp, #1
 4132 0082 4FF0FF3B 		movcs	fp, #-1
 188:../../libdaisy/src/hid/disp/display.h ****         int_fast16_t signX  = ((x1 < x2) ? 1 : -1);
 4133              		.loc 3 188 22 view .LVU960
 4134 0086 002B     		cmp	r3, #0
 4135 0088 B8BF     		it	lt
 4136 008a 5B42     		rsblt	r3, r3, #0
 4137              	.LVL342:
 190:../../libdaisy/src/hid/disp/display.h ****         int_fast16_t error  = deltaX - deltaY;
 4138              		.loc 3 190 42 view .LVU961
 4139 008c BA42     		cmp	r2, r7
 191:../../libdaisy/src/hid/disp/display.h ****         int_fast16_t error2;
 4140              		.loc 3 191 22 view .LVU962
 4141 008e C3F1010C 		rsb	ip, r3, #1
 190:../../libdaisy/src/hid/disp/display.h ****         int_fast16_t error  = deltaX - deltaY;
 4142              		.loc 3 190 42 view .LVU963
 4143 0092 6FD3     		bcc	.L325
 4144              	.LVL343:
 4145              	.LBB753:
 4146              	.LBI753:
  41:../../libdaisy/src/hid/disp/oled_display.h ****     {
 4147              		.loc 2 41 10 is_stmt 1 view .LVU964
 4148              	.LBB754:
 4149              	.LBI754:
 239:../../libdaisy/src/dev/oled_ssd130x.h ****     {
 4150              		.loc 4 239 10 view .LVU965
 4151              	.LBE754:
 4152              	.LBE753:
 190:../../libdaisy/src/hid/disp/display.h ****         int_fast16_t error  = deltaX - deltaY;
ARM GAS  C:\Users\VINCIU~1\AppData\Local\Temp\cc6DIkXk.s 			page 110


 4153              		.loc 3 190 42 is_stmt 0 view .LVU966
 4154 0094 4FF0FF31 		mov	r1, #-1
 4155              	.LBB766:
 4156              	.LBB761:
 4157              	.LBB755:
 241:../../libdaisy/src/dev/oled_ssd130x.h ****             return;
 4158              		.loc 4 241 9 view .LVU967
 4159 0098 7F2D     		cmp	r5, #127
 4160              	.LBE755:
 4161              	.LBE761:
 4162              	.LBE766:
 190:../../libdaisy/src/hid/disp/display.h ****         int_fast16_t error  = deltaX - deltaY;
 4163              		.loc 3 190 42 view .LVU968
 4164 009a 0291     		str	r1, [sp, #8]
 4165              	.LBB767:
 4166              	.LBB762:
 4167              	.LBB758:
 241:../../libdaisy/src/dev/oled_ssd130x.h ****             return;
 4168              		.loc 4 241 9 view .LVU969
 4169 009c 0FD8     		bhi	.L328
 4170 009e 3F2F     		cmp	r7, #63
 4171 00a0 0DD8     		bhi	.L328
 4172              	.LVL344:
 4173              	.L338:
 244:../../libdaisy/src/dev/oled_ssd130x.h ****         else
 4174              		.loc 4 244 28 view .LVU970
 4175 00a2 F908     		lsrs	r1, r7, #3
 244:../../libdaisy/src/dev/oled_ssd130x.h ****         else
 4176              		.loc 4 244 54 view .LVU971
 4177 00a4 07F00704 		and	r4, r7, #7
 244:../../libdaisy/src/dev/oled_ssd130x.h ****         else
 4178              		.loc 4 244 48 view .LVU972
 4179 00a8 0120     		movs	r0, #1
 244:../../libdaisy/src/dev/oled_ssd130x.h ****         else
 4180              		.loc 4 244 42 view .LVU973
 4181 00aa 05EBC111 		add	r1, r5, r1, lsl #7
 4182 00ae 4144     		add	r1, r1, r8
 243:../../libdaisy/src/dev/oled_ssd130x.h ****             buffer_[x + (y / 8) * width] |= (1 << (y % 8));
 4183              		.loc 4 243 9 view .LVU974
 4184 00b0 BAF1000F 		cmp	r10, #0
 4185 00b4 65D0     		beq	.L327
 244:../../libdaisy/src/dev/oled_ssd130x.h ****         else
 4186              		.loc 4 244 48 view .LVU975
 4187 00b6 A040     		lsls	r0, r0, r4
 244:../../libdaisy/src/dev/oled_ssd130x.h ****         else
 4188              		.loc 4 244 42 view .LVU976
 4189 00b8 0C7D     		ldrb	r4, [r1, #20]	@ zero_extendqisi2
 4190 00ba 2043     		orrs	r0, r0, r4
 4191 00bc 0875     		strb	r0, [r1, #20]
 4192              	.LVL345:
 4193              	.L328:
 244:../../libdaisy/src/dev/oled_ssd130x.h ****         else
 4194              		.loc 4 244 42 view .LVU977
 4195              	.LBE758:
 4196              	.LBE762:
 4197              	.LBE767:
 203:../../libdaisy/src/hid/disp/display.h ****             {
ARM GAS  C:\Users\VINCIU~1\AppData\Local\Temp\cc6DIkXk.s 			page 111


 4198              		.loc 3 203 23 view .LVU978
 4199 00be 5842     		rsbs	r0, r3, #0
 4200              	.LVL346:
 4201              	.L331:
 4202              	.LBB768:
 4203              	.LBI768:
  41:../../libdaisy/src/hid/disp/oled_display.h ****     {
 4204              		.loc 2 41 10 is_stmt 1 view .LVU979
 4205              	.LBB769:
 4206              	.LBI769:
 239:../../libdaisy/src/dev/oled_ssd130x.h ****     {
 4207              		.loc 4 239 10 view .LVU980
 4208              	.LBB770:
 241:../../libdaisy/src/dev/oled_ssd130x.h ****             return;
 4209              		.loc 4 241 9 is_stmt 0 view .LVU981
 4210 00c0 7F2E     		cmp	r6, #127
 4211 00c2 13D8     		bhi	.L332
 4212 00c4 3F2A     		cmp	r2, #63
 4213 00c6 11D8     		bhi	.L332
 4214              	.LVL347:
 4215              	.LBB771:
 4216              	.LBI771:
 239:../../libdaisy/src/dev/oled_ssd130x.h ****     {
 4217              		.loc 4 239 10 is_stmt 1 view .LVU982
 4218              	.LBB772:
 246:../../libdaisy/src/dev/oled_ssd130x.h ****     }
 4219              		.loc 4 246 28 is_stmt 0 view .LVU983
 4220 00c8 D108     		lsrs	r1, r2, #3
 246:../../libdaisy/src/dev/oled_ssd130x.h ****     }
 4221              		.loc 4 246 55 view .LVU984
 4222 00ca 02F0070E 		and	lr, r2, #7
 246:../../libdaisy/src/dev/oled_ssd130x.h ****     }
 4223              		.loc 4 246 42 view .LVU985
 4224 00ce 06EBC111 		add	r1, r6, r1, lsl #7
 4225              	.LBE772:
 4226              	.LBE771:
 244:../../libdaisy/src/dev/oled_ssd130x.h ****         else
 4227              		.loc 4 244 42 view .LVU986
 4228 00d2 0C46     		mov	r4, r1
 243:../../libdaisy/src/dev/oled_ssd130x.h ****             buffer_[x + (y / 8) * width] |= (1 << (y % 8));
 4229              		.loc 4 243 9 view .LVU987
 4230 00d4 BAF1000F 		cmp	r10, #0
 4231 00d8 41D0     		beq	.L333
 244:../../libdaisy/src/dev/oled_ssd130x.h ****         else
 4232              		.loc 4 244 42 view .LVU988
 4233 00da 4444     		add	r4, r4, r8
 244:../../libdaisy/src/dev/oled_ssd130x.h ****         else
 4234              		.loc 4 244 48 view .LVU989
 4235 00dc 0121     		movs	r1, #1
 4236 00de 01FA0EF9 		lsl	r9, r1, lr
 244:../../libdaisy/src/dev/oled_ssd130x.h ****         else
 4237              		.loc 4 244 42 view .LVU990
 4238 00e2 217D     		ldrb	r1, [r4, #20]	@ zero_extendqisi2
 4239 00e4 49EA0109 		orr	r9, r9, r1
 4240 00e8 84F81490 		strb	r9, [r4, #20]
 4241              	.LVL348:
 4242              	.L332:
ARM GAS  C:\Users\VINCIU~1\AppData\Local\Temp\cc6DIkXk.s 			page 112


 244:../../libdaisy/src/dev/oled_ssd130x.h ****         else
 4243              		.loc 4 244 42 view .LVU991
 4244              	.LBE770:
 4245              	.LBE769:
 4246              	.LBE768:
 203:../../libdaisy/src/hid/disp/display.h ****             {
 4247              		.loc 3 203 13 view .LVU992
 4248 00ec B0EB4C0F 		cmp	r0, ip, lsl #1
 202:../../libdaisy/src/hid/disp/display.h ****             if(error2 > -deltaY)
 4249              		.loc 3 202 20 view .LVU993
 4250 00f0 4FEA4C01 		lsl	r1, ip, #1
 4251              	.LVL349:
 203:../../libdaisy/src/hid/disp/display.h ****             {
 4252              		.loc 3 203 13 view .LVU994
 4253 00f4 2EDA     		bge	.L334
 209:../../libdaisy/src/hid/disp/display.h ****             {
 4254              		.loc 3 209 13 view .LVU995
 4255 00f6 0029     		cmp	r1, #0
 205:../../libdaisy/src/hid/disp/display.h ****                 x1 += signX;
 4256              		.loc 3 205 23 view .LVU996
 4257 00f8 ACEB030C 		sub	ip, ip, r3
 4258              	.LVL350:
 206:../../libdaisy/src/hid/disp/display.h ****             }
 4259              		.loc 3 206 20 view .LVU997
 4260 00fc 5E44     		add	r6, r6, fp
 4261              	.LVL351:
 209:../../libdaisy/src/hid/disp/display.h ****             {
 4262              		.loc 3 209 13 view .LVU998
 4263 00fe 29DD     		ble	.L334
 4264              	.LVL352:
 4265              	.L335:
 199:../../libdaisy/src/hid/disp/display.h ****         {
 4266              		.loc 3 199 26 is_stmt 1 view .LVU999
 4267 0100 AE42     		cmp	r6, r5
 4268 0102 DDD1     		bne	.L331
 199:../../libdaisy/src/hid/disp/display.h ****         {
 4269              		.loc 3 199 26 is_stmt 0 view .LVU1000
 4270 0104 9742     		cmp	r7, r2
 4271 0106 DBD1     		bne	.L331
 4272              	.LVL353:
 4273              	.L329:
 199:../../libdaisy/src/hid/disp/display.h ****         {
 4274              		.loc 3 199 26 view .LVU1001
 4275              	.LBE752:
 4276              	.LBE751:
  23:OledDisplayExtravaganza.cpp **** 
  24:OledDisplayExtravaganza.cpp ****         ang = ang + 0.1;
 4277              		.loc 6 24 9 is_stmt 1 discriminator 2 view .LVU1002
  19:OledDisplayExtravaganza.cpp ****     {
 4278              		.loc 6 19 5 is_stmt 0 discriminator 2 view .LVU1003
 4279 0108 039B     		ldr	r3, [sp, #12]
  19:OledDisplayExtravaganza.cpp ****     {
 4280              		.loc 6 19 22 discriminator 2 view .LVU1004
 4281 010a 0135     		adds	r5, r5, #1
  19:OledDisplayExtravaganza.cpp ****     {
 4282              		.loc 6 19 5 discriminator 2 view .LVU1005
 4283 010c 0133     		adds	r3, r3, #1
ARM GAS  C:\Users\VINCIU~1\AppData\Local\Temp\cc6DIkXk.s 			page 113


  19:OledDisplayExtravaganza.cpp ****     {
 4284              		.loc 6 19 22 discriminator 2 view .LVU1006
 4285 010e 07EE903A 		vmov	s15, r3	@ int
  19:OledDisplayExtravaganza.cpp ****     {
 4286              		.loc 6 19 5 discriminator 2 view .LVU1007
 4287 0112 0393     		str	r3, [sp, #12]
  19:OledDisplayExtravaganza.cpp ****     {
 4288              		.loc 6 19 22 discriminator 2 view .LVU1008
 4289 0114 F8EEE77A 		vcvt.f32.s32	s15, s15
 4290              		.loc 6 24 19 discriminator 2 view .LVU1009
 4291 0118 9FED279B 		vldr.64	d9, .L349+16
  19:OledDisplayExtravaganza.cpp ****     {
 4292              		.loc 6 19 22 discriminator 2 view .LVU1010
 4293 011c F4EECC7A 		vcmpe.f32	s15, s24
 4294              		.loc 6 24 19 discriminator 2 view .LVU1011
 4295 0120 38EE098B 		vadd.f64	d8, d8, d9
 4296              	.LVL354:
  19:OledDisplayExtravaganza.cpp ****     {
 4297              		.loc 6 19 22 discriminator 2 view .LVU1012
 4298 0124 F1EE10FA 		vmrs	APSR_nzcv, FPSCR
 4299              		.loc 6 24 13 discriminator 2 view .LVU1013
 4300 0128 B7EEC88B 		vcvt.f32.f64	s16, d8
 4301              	.LVL355:
  19:OledDisplayExtravaganza.cpp ****     {
 4302              		.loc 6 19 5 is_stmt 1 discriminator 2 view .LVU1014
  19:OledDisplayExtravaganza.cpp ****     {
 4303              		.loc 6 19 22 discriminator 2 view .LVU1015
 4304 012c 37D5     		bpl	.L320
  22:OledDisplayExtravaganza.cpp **** 
 4305              		.loc 6 22 24 is_stmt 0 view .LVU1016
 4306 012e B7EEC88A 		vcvt.f64.f32	d8, s16
 4307              	.LVL356:
  22:OledDisplayExtravaganza.cpp **** 
 4308              		.loc 6 22 23 view .LVU1017
 4309 0132 9FED230B 		vldr.64	d0, .L349+24
  22:OledDisplayExtravaganza.cpp **** 
 4310              		.loc 6 22 60 view .LVU1018
 4311 0136 38EE499B 		vsub.f64	d9, d8, d9
  22:OledDisplayExtravaganza.cpp **** 
 4312              		.loc 6 22 23 view .LVU1019
 4313 013a 28EE000B 		vmul.f64	d0, d8, d0
 4314 013e FFF7FEFF 		bl	sin
 4315              	.LVL357:
  22:OledDisplayExtravaganza.cpp **** 
 4316              		.loc 6 22 54 view .LVU1020
 4317 0142 B0EE087B 		vmov.f64	d7, #3.0e+0
  22:OledDisplayExtravaganza.cpp **** 
 4318              		.loc 6 22 23 view .LVU1021
 4319 0146 B0EE40AB 		vmov.f64	d10, d0
  22:OledDisplayExtravaganza.cpp **** 
 4320              		.loc 6 22 54 view .LVU1022
 4321 014a 29EE070B 		vmul.f64	d0, d9, d7
 4322 014e FFF7FEFF 		bl	sin
 4323              	.LVL358:
 4324 0152 76E7     		b	.L337
 4325              	.LVL359:
 4326              	.L334:
ARM GAS  C:\Users\VINCIU~1\AppData\Local\Temp\cc6DIkXk.s 			page 114


 4327              	.LBB782:
 4328              	.LBB781:
 212:../../libdaisy/src/hid/disp/display.h ****             }
 4329              		.loc 3 212 20 view .LVU1023
 4330 0154 0299     		ldr	r1, [sp, #8]
 4331              	.LVL360:
 211:../../libdaisy/src/hid/disp/display.h ****                 y1 += signY;
 4332              		.loc 3 211 23 view .LVU1024
 4333 0156 0CF1010C 		add	ip, ip, #1
 4334              	.LVL361:
 212:../../libdaisy/src/hid/disp/display.h ****             }
 4335              		.loc 3 212 20 view .LVU1025
 4336 015a 0A44     		add	r2, r2, r1
 4337              	.LVL362:
 212:../../libdaisy/src/hid/disp/display.h ****             }
 4338              		.loc 3 212 20 view .LVU1026
 4339 015c D0E7     		b	.L335
 4340              	.LVL363:
 4341              	.L333:
 4342              	.LBB777:
 4343              	.LBB776:
 4344              	.LBB775:
 4345              	.LBB774:
 4346              	.LBB773:
 246:../../libdaisy/src/dev/oled_ssd130x.h ****     }
 4347              		.loc 4 246 42 view .LVU1027
 4348 015e 4144     		add	r1, r1, r8
 246:../../libdaisy/src/dev/oled_ssd130x.h ****     }
 4349              		.loc 4 246 49 view .LVU1028
 4350 0160 0124     		movs	r4, #1
 4351 0162 04FA0EF4 		lsl	r4, r4, lr
 246:../../libdaisy/src/dev/oled_ssd130x.h ****     }
 4352              		.loc 4 246 42 view .LVU1029
 4353 0166 91F814E0 		ldrb	lr, [r1, #20]	@ zero_extendqisi2
 4354 016a 2EEA040E 		bic	lr, lr, r4
 4355 016e 81F814E0 		strb	lr, [r1, #20]
 4356 0172 BBE7     		b	.L332
 4357              	.LVL364:
 4358              	.L325:
 246:../../libdaisy/src/dev/oled_ssd130x.h ****     }
 4359              		.loc 4 246 42 view .LVU1030
 4360              	.LBE773:
 4361              	.LBE774:
 4362              	.LBE775:
 4363              	.LBE776:
 4364              	.LBE777:
 4365              	.LBB778:
  41:../../libdaisy/src/hid/disp/oled_display.h ****     {
 4366              		.loc 2 41 10 is_stmt 1 view .LVU1031
 4367              	.LBB763:
 239:../../libdaisy/src/dev/oled_ssd130x.h ****     {
 4368              		.loc 4 239 10 view .LVU1032
 4369              	.LBE763:
 4370              	.LBE778:
 190:../../libdaisy/src/hid/disp/display.h ****         int_fast16_t error  = deltaX - deltaY;
 4371              		.loc 3 190 42 is_stmt 0 view .LVU1033
 4372 0174 0121     		movs	r1, #1
ARM GAS  C:\Users\VINCIU~1\AppData\Local\Temp\cc6DIkXk.s 			page 115


 4373              	.LVL365:
 4374              	.LBB779:
 4375              	.LBB764:
 4376              	.LBB759:
 241:../../libdaisy/src/dev/oled_ssd130x.h ****             return;
 4377              		.loc 4 241 9 view .LVU1034
 4378 0176 3F2F     		cmp	r7, #63
 4379              	.LBE759:
 4380              	.LBE764:
 4381              	.LBE779:
 190:../../libdaisy/src/hid/disp/display.h ****         int_fast16_t error  = deltaX - deltaY;
 4382              		.loc 3 190 42 view .LVU1035
 4383 0178 0291     		str	r1, [sp, #8]
 4384              	.LBB780:
 4385              	.LBB765:
 4386              	.LBB760:
 241:../../libdaisy/src/dev/oled_ssd130x.h ****             return;
 4387              		.loc 4 241 9 view .LVU1036
 4388 017a A0D8     		bhi	.L328
 4389 017c 7F2D     		cmp	r5, #127
 4390 017e 90D9     		bls	.L338
 4391 0180 9DE7     		b	.L328
 4392              	.LVL366:
 4393              	.L327:
 4394              	.LBB756:
 4395              	.LBI756:
 239:../../libdaisy/src/dev/oled_ssd130x.h ****     {
 4396              		.loc 4 239 10 is_stmt 1 view .LVU1037
 4397              	.LBB757:
 246:../../libdaisy/src/dev/oled_ssd130x.h ****     }
 4398              		.loc 4 246 49 is_stmt 0 view .LVU1038
 4399 0182 00FA04F4 		lsl	r4, r0, r4
 246:../../libdaisy/src/dev/oled_ssd130x.h ****     }
 4400              		.loc 4 246 42 view .LVU1039
 4401 0186 087D     		ldrb	r0, [r1, #20]	@ zero_extendqisi2
 4402 0188 20EA0400 		bic	r0, r0, r4
 4403 018c 0875     		strb	r0, [r1, #20]
 4404 018e 96E7     		b	.L328
 4405              	.LVL367:
 4406              	.L323:
 246:../../libdaisy/src/dev/oled_ssd130x.h ****     }
 4407              		.loc 4 246 42 view .LVU1040
 4408              	.LBE757:
 4409              	.LBE756:
 4410              	.LBE760:
 4411              	.LBE765:
 4412              	.LBE780:
 4413              	.LBE781:
 4414              	.LBE782:
  21:OledDisplayExtravaganza.cpp ****             i, y + sin(ang * 3.3) * 8, i - 1, y + sin((ang - 0.1) * 3) * 8, on);
 4415              		.loc 6 21 17 discriminator 2 view .LVU1041
 4416 0190 2B46     		mov	r3, r5
 4417 0192 0399     		ldr	r1, [sp, #12]
 4418              	.LVL368:
  21:OledDisplayExtravaganza.cpp ****             i, y + sin(ang * 3.3) * 8, i - 1, y + sin((ang - 0.1) * 3) * 8, on);
 4419              		.loc 6 21 17 discriminator 2 view .LVU1042
 4420 0194 4046     		mov	r0, r8
ARM GAS  C:\Users\VINCIU~1\AppData\Local\Temp\cc6DIkXk.s 			page 116


 4421 0196 CDE9007A 		strd	r7, r10, [sp]
 4422 019a A047     		blx	r4
 4423              	.LVL369:
 4424 019c B4E7     		b	.L329
 4425              	.LVL370:
 4426              	.L320:
  21:OledDisplayExtravaganza.cpp ****             i, y + sin(ang * 3.3) * 8, i - 1, y + sin((ang - 0.1) * 3) * 8, on);
 4427              		.loc 6 21 17 discriminator 2 view .LVU1043
 4428              	.LBE785:
  25:OledDisplayExtravaganza.cpp ****     }
  26:OledDisplayExtravaganza.cpp **** }
 4429              		.loc 6 26 1 view .LVU1044
 4430 019e 05B0     		add	sp, sp, #20
 4431              		.cfi_def_cfa_offset 76
 4432              		@ sp needed
 4433 01a0 BDEC0A8B 		vldm	sp!, {d8-d12}
 4434              		.cfi_restore 88
 4435              		.cfi_restore 89
 4436              		.cfi_restore 86
 4437              		.cfi_restore 87
 4438              		.cfi_restore 84
 4439              		.cfi_restore 85
 4440              		.cfi_restore 82
 4441              		.cfi_restore 83
 4442              		.cfi_restore 80
 4443              		.cfi_restore 81
 4444              		.cfi_def_cfa_offset 36
 4445 01a4 BDE8F08F 		pop	{r4, r5, r6, r7, r8, r9, r10, fp, pc}
 4446              	.L350:
 4447              		.align	3
 4448              	.L349:
 4449 01a8 00000000 		.word	0
 4450 01ac 00000000 		.word	0
 4451 01b0 34BABA95 		.word	-1782924748
 4452 01b4 CDE9D2BF 		.word	-1076696627
 4453 01b8 9A999999 		.word	-1717986918
 4454 01bc 9999B93F 		.word	1069128089
 4455 01c0 66666666 		.word	1717986918
 4456 01c4 66660A40 		.word	1074423398
 4457 01c8 00000000 		.word	_ZN5daisy25OneBitGraphicsDisplayImplINS_11OledDisplayINS_13SSD130xDriverILj128ELj64ENS_24SSD
 4458              		.cfi_endproc
 4459              	.LFE1816:
 4461              		.section	.text._ZN23OledDisplayExtravaganza7drawTriEfffb,"ax",%progbits
 4462              		.align	1
 4463              		.p2align 2,,3
 4464              		.global	_ZN23OledDisplayExtravaganza7drawTriEfffb
 4465              		.syntax unified
 4466              		.thumb
 4467              		.thumb_func
 4468              		.fpu fpv5-d16
 4470              	_ZN23OledDisplayExtravaganza7drawTriEfffb:
 4471              	.LVL371:
 4472              	.LFB1817:
  27:OledDisplayExtravaganza.cpp **** 
  28:OledDisplayExtravaganza.cpp **** void OledDisplayExtravaganza::drawTri(float xinit,
  29:OledDisplayExtravaganza.cpp ****                                       float yinit,
  30:OledDisplayExtravaganza.cpp ****                                       float points,
ARM GAS  C:\Users\VINCIU~1\AppData\Local\Temp\cc6DIkXk.s 			page 117


  31:OledDisplayExtravaganza.cpp ****                                       bool  on)
  32:OledDisplayExtravaganza.cpp **** {
 4473              		.loc 6 32 1 is_stmt 1 view -0
 4474              		.cfi_startproc
 4475              		@ args = 0, pretend = 0, frame = 16
 4476              		@ frame_needed = 0, uses_anonymous_args = 0
  33:OledDisplayExtravaganza.cpp ****     DrawLine(xinit, yinit + 6, xinit + 9, yinit - 8, on);
 4477              		.loc 6 33 5 view .LVU1046
 4478              		.loc 6 33 49 is_stmt 0 view .LVU1047
 4479 0000 F2EE006A 		vmov.f32	s13, #8.0e+0
 4480              		.loc 6 33 56 view .LVU1048
 4481 0004 0368     		ldr	r3, [r0]
 4482              		.loc 6 33 27 view .LVU1049
 4483 0006 B1EE087A 		vmov.f32	s14, #6.0e+0
 4484              		.loc 6 33 38 view .LVU1050
 4485 000a F2EE027A 		vmov.f32	s15, #9.0e+0
 4486              		.loc 6 33 27 view .LVU1051
 4487 000e 30EE877A 		vadd.f32	s14, s1, s14
 4488              		.loc 6 33 49 view .LVU1052
 4489 0012 70EEE60A 		vsub.f32	s1, s1, s13
 4490              	.LVL372:
 4491              		.loc 6 33 38 view .LVU1053
 4492 0016 70EE277A 		vadd.f32	s15, s0, s15
 4493              		.loc 6 33 13 view .LVU1054
 4494 001a BCEEC77A 		vcvt.u32.f32	s14, s14
 4495 001e FCEEE06A 		vcvt.u32.f32	s13, s1
 4496 0022 FCEEE77A 		vcvt.u32.f32	s15, s15
  32:OledDisplayExtravaganza.cpp ****     DrawLine(xinit, yinit + 6, xinit + 9, yinit - 8, on);
 4497              		.loc 6 32 1 view .LVU1055
 4498 0026 2DE9F04F 		push	{r4, r5, r6, r7, r8, r9, r10, fp, lr}
 4499              		.cfi_def_cfa_offset 36
 4500              		.cfi_offset 4, -36
 4501              		.cfi_offset 5, -32
 4502              		.cfi_offset 6, -28
 4503              		.cfi_offset 7, -24
 4504              		.cfi_offset 8, -20
 4505              		.cfi_offset 9, -16
 4506              		.cfi_offset 10, -12
 4507              		.cfi_offset 11, -8
 4508              		.cfi_offset 14, -4
 4509 002a 2DED028B 		vpush.64	{d8}
 4510              		.cfi_def_cfa_offset 44
 4511              		.cfi_offset 80, -44
 4512              		.cfi_offset 81, -40
 4513 002e 87B0     		sub	sp, sp, #28
 4514              		.cfi_def_cfa_offset 72
 4515              		.loc 6 33 56 view .LVU1056
 4516 0030 D3F81880 		ldr	r8, [r3, #24]
 4517              		.loc 6 33 13 view .LVU1057
 4518 0034 16EE906A 		vmov	r6, s13	@ int
 4519 0038 FCEEC06A 		vcvt.u32.f32	s13, s0
 4520              		.loc 6 33 56 view .LVU1058
 4521 003c 0593     		str	r3, [sp, #20]
  32:OledDisplayExtravaganza.cpp ****     DrawLine(xinit, yinit + 6, xinit + 9, yinit - 8, on);
 4522              		.loc 6 32 1 view .LVU1059
 4523 003e B0EE408A 		vmov.f32	s16, s0
 4524 0042 A74B     		ldr	r3, .L408
ARM GAS  C:\Users\VINCIU~1\AppData\Local\Temp\cc6DIkXk.s 			page 118


 4525 0044 0746     		mov	r7, r0
 4526 0046 0391     		str	r1, [sp, #12]
 4527              		.loc 6 33 13 view .LVU1060
 4528 0048 17EE104A 		vmov	r4, s14	@ int
 4529 004c 9845     		cmp	r8, r3
 4530 004e 16EE901A 		vmov	r1, s13	@ int
 4531              	.LVL373:
 4532              		.loc 6 33 13 view .LVU1061
 4533 0052 17EE905A 		vmov	r5, s15	@ int
 4534 0056 40F02B81 		bne	.L352
 4535              	.LVL374:
 4536              	.LBB814:
 4537              	.LBI814:
 181:../../libdaisy/src/hid/disp/display.h ****                   uint_fast8_t y1,
 4538              		.loc 3 181 10 is_stmt 1 view .LVU1062
 4539              	.LBB815:
 187:../../libdaisy/src/hid/disp/display.h ****         int_fast16_t deltaY = abs((int_fast16_t)y2 - (int_fast16_t)y1);
 4540              		.loc 3 187 52 is_stmt 0 view .LVU1063
 4541 005a A5EB010C 		sub	ip, r5, r1
 188:../../libdaisy/src/hid/disp/display.h ****         int_fast16_t signX  = ((x1 < x2) ? 1 : -1);
 4542              		.loc 3 188 52 view .LVU1064
 4543 005e A6EB0409 		sub	r9, r6, r4
 187:../../libdaisy/src/hid/disp/display.h ****         int_fast16_t deltaY = abs((int_fast16_t)y2 - (int_fast16_t)y1);
 4544              		.loc 3 187 22 view .LVU1065
 4545 0062 BCF1000F 		cmp	ip, #0
 4546 0066 B8BF     		it	lt
 4547 0068 CCF1000C 		rsblt	ip, ip, #0
 4548              	.LVL375:
 188:../../libdaisy/src/hid/disp/display.h ****         int_fast16_t signX  = ((x1 < x2) ? 1 : -1);
 4549              		.loc 3 188 22 view .LVU1066
 4550 006c B9F1000F 		cmp	r9, #0
 4551 0070 B8BF     		it	lt
 4552 0072 C9F10009 		rsblt	r9, r9, #0
 4553              	.LVL376:
 189:../../libdaisy/src/hid/disp/display.h ****         int_fast16_t signY  = ((y1 < y2) ? 1 : -1);
 4554              		.loc 3 189 42 view .LVU1067
 4555 0076 A942     		cmp	r1, r5
 4556 0078 34BF     		ite	cc
 4557 007a 4FF0010B 		movcc	fp, #1
 4558 007e 4FF0FF3B 		movcs	fp, #-1
 4559              	.LVL377:
 190:../../libdaisy/src/hid/disp/display.h ****         int_fast16_t error  = deltaX - deltaY;
 4560              		.loc 3 190 42 view .LVU1068
 4561 0082 B442     		cmp	r4, r6
 191:../../libdaisy/src/hid/disp/display.h ****         int_fast16_t error2;
 4562              		.loc 3 191 22 view .LVU1069
 4563 0084 ACEB0903 		sub	r3, ip, r9
 190:../../libdaisy/src/hid/disp/display.h ****         int_fast16_t error  = deltaX - deltaY;
 4564              		.loc 3 190 42 view .LVU1070
 4565 0088 C0F0BB80 		bcc	.L354
 4566              	.LVL378:
 4567              	.LBB816:
 4568              	.LBI816:
  41:../../libdaisy/src/hid/disp/oled_display.h ****     {
 4569              		.loc 2 41 10 is_stmt 1 view .LVU1071
 4570              	.LBB817:
 4571              	.LBI817:
ARM GAS  C:\Users\VINCIU~1\AppData\Local\Temp\cc6DIkXk.s 			page 119


 239:../../libdaisy/src/dev/oled_ssd130x.h ****     {
 4572              		.loc 4 239 10 view .LVU1072
 4573              	.LBE817:
 4574              	.LBE816:
 190:../../libdaisy/src/hid/disp/display.h ****         int_fast16_t error  = deltaX - deltaY;
 4575              		.loc 3 190 42 is_stmt 0 view .LVU1073
 4576 008c 4FF0FF32 		mov	r2, #-1
 4577              	.LBB829:
 4578              	.LBB824:
 4579              	.LBB818:
 241:../../libdaisy/src/dev/oled_ssd130x.h ****             return;
 4580              		.loc 4 241 9 view .LVU1074
 4581 0090 7F2D     		cmp	r5, #127
 4582              	.LBE818:
 4583              	.LBE824:
 4584              	.LBE829:
 190:../../libdaisy/src/hid/disp/display.h ****         int_fast16_t error  = deltaX - deltaY;
 4585              		.loc 3 190 42 view .LVU1075
 4586 0092 0492     		str	r2, [sp, #16]
 4587              	.LBB830:
 4588              	.LBB825:
 4589              	.LBB821:
 241:../../libdaisy/src/dev/oled_ssd130x.h ****             return;
 4590              		.loc 4 241 9 view .LVU1076
 4591 0094 14D8     		bhi	.L355
 4592 0096 3F2E     		cmp	r6, #63
 4593 0098 12D8     		bhi	.L355
 243:../../libdaisy/src/dev/oled_ssd130x.h ****             buffer_[x + (y / 8) * width] |= (1 << (y % 8));
 4594              		.loc 4 243 9 view .LVU1077
 4595 009a 039A     		ldr	r2, [sp, #12]
 4596 009c 002A     		cmp	r2, #0
 4597 009e 00F0BC80 		beq	.L356
 4598              	.LVL379:
 4599              	.L406:
 244:../../libdaisy/src/dev/oled_ssd130x.h ****         else
 4600              		.loc 4 244 28 view .LVU1078
 4601 00a2 F208     		lsrs	r2, r6, #3
 244:../../libdaisy/src/dev/oled_ssd130x.h ****         else
 4602              		.loc 4 244 48 view .LVU1079
 4603 00a4 4FF0010E 		mov	lr, #1
 244:../../libdaisy/src/dev/oled_ssd130x.h ****         else
 4604              		.loc 4 244 54 view .LVU1080
 4605 00a8 06F00700 		and	r0, r6, #7
 4606              	.LVL380:
 244:../../libdaisy/src/dev/oled_ssd130x.h ****         else
 4607              		.loc 4 244 42 view .LVU1081
 4608 00ac 05EBC212 		add	r2, r5, r2, lsl #7
 244:../../libdaisy/src/dev/oled_ssd130x.h ****         else
 4609              		.loc 4 244 48 view .LVU1082
 4610 00b0 0EFA00F0 		lsl	r0, lr, r0
 244:../../libdaisy/src/dev/oled_ssd130x.h ****         else
 4611              		.loc 4 244 42 view .LVU1083
 4612 00b4 3A44     		add	r2, r2, r7
 4613 00b6 92F814E0 		ldrb	lr, [r2, #20]	@ zero_extendqisi2
 4614 00ba 40EA0E00 		orr	r0, r0, lr
 4615 00be 1075     		strb	r0, [r2, #20]
 4616              	.LVL381:
ARM GAS  C:\Users\VINCIU~1\AppData\Local\Temp\cc6DIkXk.s 			page 120


 4617              	.L355:
 244:../../libdaisy/src/dev/oled_ssd130x.h ****         else
 4618              		.loc 4 244 42 view .LVU1084
 4619              	.LBE821:
 4620              	.LBE825:
 4621              	.LBE830:
 199:../../libdaisy/src/hid/disp/display.h ****         {
 4622              		.loc 3 199 26 is_stmt 1 view .LVU1085
 4623 00c0 B442     		cmp	r4, r6
 4624 00c2 01D1     		bne	.L359
 4625 00c4 A942     		cmp	r1, r5
 4626 00c6 2BD0     		beq	.L357
 4627              	.L359:
 4628              	.LVL382:
 203:../../libdaisy/src/hid/disp/display.h ****             {
 4629              		.loc 3 203 23 is_stmt 0 view .LVU1086
 4630 00c8 C9F10008 		rsb	r8, r9, #0
 4631              	.LBE815:
 4632              	.LBE814:
 4633              		.loc 6 33 13 view .LVU1087
 4634 00cc 2246     		mov	r2, r4
 4635              	.L361:
 4636              	.LVL383:
 4637              	.LBB845:
 4638              	.LBB842:
 4639              	.LBB831:
 4640              	.LBI831:
  41:../../libdaisy/src/hid/disp/oled_display.h ****     {
 4641              		.loc 2 41 10 is_stmt 1 view .LVU1088
 4642              	.LBB832:
 4643              	.LBI832:
 239:../../libdaisy/src/dev/oled_ssd130x.h ****     {
 4644              		.loc 4 239 10 view .LVU1089
 4645              	.LBB833:
 241:../../libdaisy/src/dev/oled_ssd130x.h ****             return;
 4646              		.loc 4 241 9 is_stmt 0 view .LVU1090
 4647 00ce 7F29     		cmp	r1, #127
 4648 00d0 15D8     		bhi	.L362
 4649 00d2 3F2A     		cmp	r2, #63
 4650 00d4 13D8     		bhi	.L362
 243:../../libdaisy/src/dev/oled_ssd130x.h ****             buffer_[x + (y / 8) * width] |= (1 << (y % 8));
 4651              		.loc 4 243 9 view .LVU1091
 4652 00d6 0398     		ldr	r0, [sp, #12]
 4653 00d8 0028     		cmp	r0, #0
 4654 00da 00F0AC80 		beq	.L363
 244:../../libdaisy/src/dev/oled_ssd130x.h ****         else
 4655              		.loc 4 244 28 view .LVU1092
 4656 00de D008     		lsrs	r0, r2, #3
 244:../../libdaisy/src/dev/oled_ssd130x.h ****         else
 4657              		.loc 4 244 54 view .LVU1093
 4658 00e0 02F0070A 		and	r10, r2, #7
 244:../../libdaisy/src/dev/oled_ssd130x.h ****         else
 4659              		.loc 4 244 48 view .LVU1094
 4660 00e4 4FF0010E 		mov	lr, #1
 244:../../libdaisy/src/dev/oled_ssd130x.h ****         else
 4661              		.loc 4 244 42 view .LVU1095
 4662 00e8 01EBC010 		add	r0, r1, r0, lsl #7
ARM GAS  C:\Users\VINCIU~1\AppData\Local\Temp\cc6DIkXk.s 			page 121


 244:../../libdaisy/src/dev/oled_ssd130x.h ****         else
 4663              		.loc 4 244 48 view .LVU1096
 4664 00ec 0EFA0AFE 		lsl	lr, lr, r10
 244:../../libdaisy/src/dev/oled_ssd130x.h ****         else
 4665              		.loc 4 244 42 view .LVU1097
 4666 00f0 3844     		add	r0, r0, r7
 4667 00f2 90F814A0 		ldrb	r10, [r0, #20]	@ zero_extendqisi2
 4668 00f6 4EEA0A0E 		orr	lr, lr, r10
 4669 00fa 80F814E0 		strb	lr, [r0, #20]
 4670              	.L362:
 4671              	.LVL384:
 244:../../libdaisy/src/dev/oled_ssd130x.h ****         else
 4672              		.loc 4 244 42 view .LVU1098
 4673              	.LBE833:
 4674              	.LBE832:
 4675              	.LBE831:
 203:../../libdaisy/src/hid/disp/display.h ****             {
 4676              		.loc 3 203 13 view .LVU1099
 4677 00fe B8EB430F 		cmp	r8, r3, lsl #1
 202:../../libdaisy/src/hid/disp/display.h ****             if(error2 > -deltaY)
 4678              		.loc 3 202 20 view .LVU1100
 4679 0102 4FEA4300 		lsl	r0, r3, #1
 4680              	.LVL385:
 203:../../libdaisy/src/hid/disp/display.h ****             {
 4681              		.loc 3 203 13 view .LVU1101
 4682 0106 02DA     		bge	.L364
 205:../../libdaisy/src/hid/disp/display.h ****                 x1 += signX;
 4683              		.loc 3 205 23 view .LVU1102
 4684 0108 A3EB0903 		sub	r3, r3, r9
 4685              	.LVL386:
 206:../../libdaisy/src/hid/disp/display.h ****             }
 4686              		.loc 3 206 20 view .LVU1103
 4687 010c 5944     		add	r1, r1, fp
 4688              	.LVL387:
 4689              	.L364:
 209:../../libdaisy/src/hid/disp/display.h ****             {
 4690              		.loc 3 209 13 view .LVU1104
 4691 010e 8445     		cmp	ip, r0
 4692 0110 02DD     		ble	.L365
 212:../../libdaisy/src/hid/disp/display.h ****             }
 4693              		.loc 3 212 20 view .LVU1105
 4694 0112 0498     		ldr	r0, [sp, #16]
 4695              	.LVL388:
 211:../../libdaisy/src/hid/disp/display.h ****                 y1 += signY;
 4696              		.loc 3 211 23 view .LVU1106
 4697 0114 6344     		add	r3, r3, ip
 4698              	.LVL389:
 212:../../libdaisy/src/hid/disp/display.h ****             }
 4699              		.loc 3 212 20 view .LVU1107
 4700 0116 0244     		add	r2, r2, r0
 4701              	.LVL390:
 4702              	.L365:
 199:../../libdaisy/src/hid/disp/display.h ****         {
 4703              		.loc 3 199 26 is_stmt 1 view .LVU1108
 4704 0118 8D42     		cmp	r5, r1
 4705 011a D8D1     		bne	.L361
 199:../../libdaisy/src/hid/disp/display.h ****         {
ARM GAS  C:\Users\VINCIU~1\AppData\Local\Temp\cc6DIkXk.s 			page 122


 4706              		.loc 3 199 26 is_stmt 0 view .LVU1109
 4707 011c 9642     		cmp	r6, r2
 4708 011e D6D1     		bne	.L361
 4709              	.LVL391:
 4710              	.L357:
 199:../../libdaisy/src/hid/disp/display.h ****         {
 4711              		.loc 3 199 26 view .LVU1110
 4712              	.LBE842:
 4713              	.LBE845:
  34:OledDisplayExtravaganza.cpp ****     DrawLine(xinit + 18, yinit + 6, xinit + 9, yinit - 8, on);
 4714              		.loc 6 34 5 is_stmt 1 view .LVU1111
 4715              		.loc 6 34 20 is_stmt 0 view .LVU1112
 4716 0120 F3EE027A 		vmov.f32	s15, #1.8e+1
 4717              		.loc 6 34 61 view .LVU1113
 4718 0124 059B     		ldr	r3, [sp, #20]
 4719 0126 D3F81880 		ldr	r8, [r3, #24]
 4720              		.loc 6 34 20 view .LVU1114
 4721 012a 38EE270A 		vadd.f32	s0, s16, s15
 4722 012e 6C4B     		ldr	r3, .L408
 4723 0130 9845     		cmp	r8, r3
 4724              		.loc 6 34 13 view .LVU1115
 4725 0132 FCEEC07A 		vcvt.u32.f32	s15, s0
 4726 0136 17EE901A 		vmov	r1, s15	@ int
 4727 013a 40F0C480 		bne	.L366
 4728              	.LVL392:
 4729              	.LBB846:
 4730              	.LBI846:
 181:../../libdaisy/src/hid/disp/display.h ****                   uint_fast8_t y1,
 4731              		.loc 3 181 10 is_stmt 1 view .LVU1116
 4732              	.LBB847:
 187:../../libdaisy/src/hid/disp/display.h ****         int_fast16_t deltaY = abs((int_fast16_t)y2 - (int_fast16_t)y1);
 4733              		.loc 3 187 52 is_stmt 0 view .LVU1117
 4734 013e 681A     		subs	r0, r5, r1
 188:../../libdaisy/src/hid/disp/display.h ****         int_fast16_t signX  = ((x1 < x2) ? 1 : -1);
 4735              		.loc 3 188 52 view .LVU1118
 4736 0140 A6EB0408 		sub	r8, r6, r4
 187:../../libdaisy/src/hid/disp/display.h ****         int_fast16_t deltaY = abs((int_fast16_t)y2 - (int_fast16_t)y1);
 4737              		.loc 3 187 22 view .LVU1119
 4738 0144 0028     		cmp	r0, #0
 4739 0146 B8BF     		it	lt
 4740 0148 4042     		rsblt	r0, r0, #0
 4741              	.LVL393:
 188:../../libdaisy/src/hid/disp/display.h ****         int_fast16_t signX  = ((x1 < x2) ? 1 : -1);
 4742              		.loc 3 188 22 view .LVU1120
 4743 014a B8F1000F 		cmp	r8, #0
 4744 014e B8BF     		it	lt
 4745 0150 C8F10008 		rsblt	r8, r8, #0
 4746              	.LVL394:
 189:../../libdaisy/src/hid/disp/display.h ****         int_fast16_t signY  = ((y1 < y2) ? 1 : -1);
 4747              		.loc 3 189 42 view .LVU1121
 4748 0154 8D42     		cmp	r5, r1
 4749 0156 8CBF     		ite	hi
 4750 0158 4FF00109 		movhi	r9, #1
 4751 015c 4FF0FF39 		movls	r9, #-1
 4752              	.LVL395:
 190:../../libdaisy/src/hid/disp/display.h ****         int_fast16_t error  = deltaX - deltaY;
 4753              		.loc 3 190 42 view .LVU1122
ARM GAS  C:\Users\VINCIU~1\AppData\Local\Temp\cc6DIkXk.s 			page 123


 4754 0160 B442     		cmp	r4, r6
 191:../../libdaisy/src/hid/disp/display.h ****         int_fast16_t error2;
 4755              		.loc 3 191 22 view .LVU1123
 4756 0162 A0EB0802 		sub	r2, r0, r8
 190:../../libdaisy/src/hid/disp/display.h ****         int_fast16_t error  = deltaX - deltaY;
 4757              		.loc 3 190 42 view .LVU1124
 4758 0166 C0F08880 		bcc	.L368
 4759              	.LVL396:
 4760              	.LBB848:
 4761              	.LBI848:
  41:../../libdaisy/src/hid/disp/oled_display.h ****     {
 4762              		.loc 2 41 10 is_stmt 1 view .LVU1125
 4763              	.LBB849:
 4764              	.LBI849:
 239:../../libdaisy/src/dev/oled_ssd130x.h ****     {
 4765              		.loc 4 239 10 view .LVU1126
 4766              	.LBB850:
 241:../../libdaisy/src/dev/oled_ssd130x.h ****             return;
 4767              		.loc 4 241 9 is_stmt 0 view .LVU1127
 4768 016a 7F2D     		cmp	r5, #127
 4769              	.LBE850:
 4770              	.LBE849:
 4771              	.LBE848:
 190:../../libdaisy/src/hid/disp/display.h ****         int_fast16_t error  = deltaX - deltaY;
 4772              		.loc 3 190 42 view .LVU1128
 4773 016c 4FF0FF3A 		mov	r10, #-1
 4774              	.LBB859:
 4775              	.LBB856:
 4776              	.LBB853:
 241:../../libdaisy/src/dev/oled_ssd130x.h ****             return;
 4777              		.loc 4 241 9 view .LVU1129
 4778 0170 15D8     		bhi	.L369
 4779 0172 3F2E     		cmp	r6, #63
 4780 0174 13D8     		bhi	.L369
 243:../../libdaisy/src/dev/oled_ssd130x.h ****             buffer_[x + (y / 8) * width] |= (1 << (y % 8));
 4781              		.loc 4 243 9 view .LVU1130
 4782 0176 039B     		ldr	r3, [sp, #12]
 4783 0178 002B     		cmp	r3, #0
 4784 017a 00F08880 		beq	.L370
 4785              	.LVL397:
 4786              	.L407:
 244:../../libdaisy/src/dev/oled_ssd130x.h ****         else
 4787              		.loc 4 244 28 view .LVU1131
 4788 017e F308     		lsrs	r3, r6, #3
 244:../../libdaisy/src/dev/oled_ssd130x.h ****         else
 4789              		.loc 4 244 54 view .LVU1132
 4790 0180 06F0070E 		and	lr, r6, #7
 244:../../libdaisy/src/dev/oled_ssd130x.h ****         else
 4791              		.loc 4 244 48 view .LVU1133
 4792 0184 4FF0010C 		mov	ip, #1
 244:../../libdaisy/src/dev/oled_ssd130x.h ****         else
 4793              		.loc 4 244 42 view .LVU1134
 4794 0188 05EBC313 		add	r3, r5, r3, lsl #7
 244:../../libdaisy/src/dev/oled_ssd130x.h ****         else
 4795              		.loc 4 244 48 view .LVU1135
 4796 018c 0CFA0EFC 		lsl	ip, ip, lr
 244:../../libdaisy/src/dev/oled_ssd130x.h ****         else
ARM GAS  C:\Users\VINCIU~1\AppData\Local\Temp\cc6DIkXk.s 			page 124


 4797              		.loc 4 244 42 view .LVU1136
 4798 0190 3B44     		add	r3, r3, r7
 4799 0192 93F814E0 		ldrb	lr, [r3, #20]	@ zero_extendqisi2
 4800 0196 4CEA0E0C 		orr	ip, ip, lr
 4801 019a 83F814C0 		strb	ip, [r3, #20]
 4802              	.LVL398:
 4803              	.L369:
 244:../../libdaisy/src/dev/oled_ssd130x.h ****         else
 4804              		.loc 4 244 42 view .LVU1137
 4805              	.LBE853:
 4806              	.LBE856:
 4807              	.LBE859:
 199:../../libdaisy/src/hid/disp/display.h ****         {
 4808              		.loc 3 199 26 is_stmt 1 view .LVU1138
 4809 019e B442     		cmp	r4, r6
 4810 01a0 01D1     		bne	.L371
 4811 01a2 8D42     		cmp	r5, r1
 4812 01a4 28D0     		beq	.L351
 4813              	.L371:
 4814              	.LVL399:
 199:../../libdaisy/src/hid/disp/display.h ****         {
 4815              		.loc 3 199 26 is_stmt 0 view .LVU1139
 4816              	.LBE847:
 4817              	.LBE846:
 4818              	.LBB872:
 4819              	.LBB843:
 203:../../libdaisy/src/hid/disp/display.h ****             {
 4820              		.loc 3 203 23 view .LVU1140
 4821 01a6 C8F1000E 		rsb	lr, r8, #0
 4822              	.L375:
 4823              	.LVL400:
 203:../../libdaisy/src/hid/disp/display.h ****             {
 4824              		.loc 3 203 23 view .LVU1141
 4825              	.LBE843:
 4826              	.LBE872:
 4827              	.LBB873:
 4828              	.LBB870:
 4829              	.LBB860:
 4830              	.LBI860:
  41:../../libdaisy/src/hid/disp/oled_display.h ****     {
 4831              		.loc 2 41 10 is_stmt 1 view .LVU1142
 4832              	.LBB861:
 4833              	.LBI861:
 239:../../libdaisy/src/dev/oled_ssd130x.h ****     {
 4834              		.loc 4 239 10 view .LVU1143
 4835              	.LBB862:
 241:../../libdaisy/src/dev/oled_ssd130x.h ****             return;
 4836              		.loc 4 241 9 is_stmt 0 view .LVU1144
 4837 01aa 7F29     		cmp	r1, #127
 4838 01ac 14D8     		bhi	.L376
 4839 01ae 3F2C     		cmp	r4, #63
 4840 01b0 12D8     		bhi	.L376
 243:../../libdaisy/src/dev/oled_ssd130x.h ****             buffer_[x + (y / 8) * width] |= (1 << (y % 8));
 4841              		.loc 4 243 9 view .LVU1145
 4842 01b2 039B     		ldr	r3, [sp, #12]
 4843 01b4 002B     		cmp	r3, #0
 4844 01b6 4FD0     		beq	.L377
ARM GAS  C:\Users\VINCIU~1\AppData\Local\Temp\cc6DIkXk.s 			page 125


 244:../../libdaisy/src/dev/oled_ssd130x.h ****         else
 4845              		.loc 4 244 28 view .LVU1146
 4846 01b8 E308     		lsrs	r3, r4, #3
 244:../../libdaisy/src/dev/oled_ssd130x.h ****         else
 4847              		.loc 4 244 54 view .LVU1147
 4848 01ba 04F0070B 		and	fp, r4, #7
 244:../../libdaisy/src/dev/oled_ssd130x.h ****         else
 4849              		.loc 4 244 48 view .LVU1148
 4850 01be 4FF0010C 		mov	ip, #1
 244:../../libdaisy/src/dev/oled_ssd130x.h ****         else
 4851              		.loc 4 244 42 view .LVU1149
 4852 01c2 01EBC313 		add	r3, r1, r3, lsl #7
 244:../../libdaisy/src/dev/oled_ssd130x.h ****         else
 4853              		.loc 4 244 48 view .LVU1150
 4854 01c6 0CFA0BFC 		lsl	ip, ip, fp
 244:../../libdaisy/src/dev/oled_ssd130x.h ****         else
 4855              		.loc 4 244 42 view .LVU1151
 4856 01ca 3B44     		add	r3, r3, r7
 4857 01cc 93F814B0 		ldrb	fp, [r3, #20]	@ zero_extendqisi2
 4858 01d0 4CEA0B0C 		orr	ip, ip, fp
 4859 01d4 83F814C0 		strb	ip, [r3, #20]
 4860              	.L376:
 4861              	.LVL401:
 244:../../libdaisy/src/dev/oled_ssd130x.h ****         else
 4862              		.loc 4 244 42 view .LVU1152
 4863              	.LBE862:
 4864              	.LBE861:
 4865              	.LBE860:
 203:../../libdaisy/src/hid/disp/display.h ****             {
 4866              		.loc 3 203 13 view .LVU1153
 4867 01d8 BEEB420F 		cmp	lr, r2, lsl #1
 202:../../libdaisy/src/hid/disp/display.h ****             if(error2 > -deltaY)
 4868              		.loc 3 202 20 view .LVU1154
 4869 01dc 4FEA4203 		lsl	r3, r2, #1
 4870              	.LVL402:
 203:../../libdaisy/src/hid/disp/display.h ****             {
 4871              		.loc 3 203 13 view .LVU1155
 4872 01e0 02DA     		bge	.L378
 205:../../libdaisy/src/hid/disp/display.h ****                 x1 += signX;
 4873              		.loc 3 205 23 view .LVU1156
 4874 01e2 A2EB0802 		sub	r2, r2, r8
 4875              	.LVL403:
 206:../../libdaisy/src/hid/disp/display.h ****             }
 4876              		.loc 3 206 20 view .LVU1157
 4877 01e6 4944     		add	r1, r1, r9
 4878              	.LVL404:
 4879              	.L378:
 209:../../libdaisy/src/hid/disp/display.h ****             {
 4880              		.loc 3 209 13 view .LVU1158
 4881 01e8 9842     		cmp	r0, r3
 4882 01ea 01DD     		ble	.L379
 211:../../libdaisy/src/hid/disp/display.h ****                 y1 += signY;
 4883              		.loc 3 211 23 view .LVU1159
 4884 01ec 0244     		add	r2, r2, r0
 4885              	.LVL405:
 212:../../libdaisy/src/hid/disp/display.h ****             }
 4886              		.loc 3 212 20 view .LVU1160
ARM GAS  C:\Users\VINCIU~1\AppData\Local\Temp\cc6DIkXk.s 			page 126


 4887 01ee 5444     		add	r4, r4, r10
 4888              	.LVL406:
 4889              	.L379:
 199:../../libdaisy/src/hid/disp/display.h ****         {
 4890              		.loc 3 199 26 is_stmt 1 view .LVU1161
 4891 01f0 8D42     		cmp	r5, r1
 4892 01f2 DAD1     		bne	.L375
 199:../../libdaisy/src/hid/disp/display.h ****         {
 4893              		.loc 3 199 26 is_stmt 0 view .LVU1162
 4894 01f4 A642     		cmp	r6, r4
 4895 01f6 D8D1     		bne	.L375
 4896              	.LVL407:
 4897              	.L351:
 199:../../libdaisy/src/hid/disp/display.h ****         {
 4898              		.loc 3 199 26 view .LVU1163
 4899              	.LBE870:
 4900              	.LBE873:
  35:OledDisplayExtravaganza.cpp **** }
 4901              		.loc 6 35 1 view .LVU1164
 4902 01f8 07B0     		add	sp, sp, #28
 4903              		.cfi_remember_state
 4904              		.cfi_def_cfa_offset 44
 4905              		@ sp needed
 4906 01fa BDEC028B 		vldm	sp!, {d8}
 4907              		.cfi_restore 80
 4908              		.cfi_restore 81
 4909              		.cfi_def_cfa_offset 36
 4910              	.LVL408:
 4911              		.loc 6 35 1 view .LVU1165
 4912 01fe BDE8F08F 		pop	{r4, r5, r6, r7, r8, r9, r10, fp, pc}
 4913              	.LVL409:
 4914              	.L354:
 4915              		.cfi_restore_state
 4916              	.LBB874:
 4917              	.LBB844:
 4918              	.LBB838:
  41:../../libdaisy/src/hid/disp/oled_display.h ****     {
 4919              		.loc 2 41 10 is_stmt 1 view .LVU1166
 4920              	.LBB826:
 239:../../libdaisy/src/dev/oled_ssd130x.h ****     {
 4921              		.loc 4 239 10 view .LVU1167
 4922              	.LBE826:
 4923              	.LBE838:
 190:../../libdaisy/src/hid/disp/display.h ****         int_fast16_t error  = deltaX - deltaY;
 4924              		.loc 3 190 42 is_stmt 0 view .LVU1168
 4925 0202 0122     		movs	r2, #1
 4926              	.LBB839:
 4927              	.LBB827:
 4928              	.LBB822:
 241:../../libdaisy/src/dev/oled_ssd130x.h ****             return;
 4929              		.loc 4 241 9 view .LVU1169
 4930 0204 3F2E     		cmp	r6, #63
 4931              	.LBE822:
 4932              	.LBE827:
 4933              	.LBE839:
 190:../../libdaisy/src/hid/disp/display.h ****         int_fast16_t error  = deltaX - deltaY;
 4934              		.loc 3 190 42 view .LVU1170
ARM GAS  C:\Users\VINCIU~1\AppData\Local\Temp\cc6DIkXk.s 			page 127


 4935 0206 0492     		str	r2, [sp, #16]
 4936              	.LBB840:
 4937              	.LBB828:
 4938              	.LBB823:
 241:../../libdaisy/src/dev/oled_ssd130x.h ****             return;
 4939              		.loc 4 241 9 view .LVU1171
 4940 0208 3FF65EAF 		bhi	.L359
 4941 020c 7F2D     		cmp	r5, #127
 4942 020e 3FF65BAF 		bhi	.L359
 243:../../libdaisy/src/dev/oled_ssd130x.h ****             buffer_[x + (y / 8) * width] |= (1 << (y % 8));
 4943              		.loc 4 243 9 view .LVU1172
 4944 0212 039A     		ldr	r2, [sp, #12]
 4945 0214 002A     		cmp	r2, #0
 4946 0216 7FF444AF 		bne	.L406
 4947              	.LVL410:
 4948              	.L356:
 4949              	.LBB819:
 4950              	.LBI819:
 239:../../libdaisy/src/dev/oled_ssd130x.h ****     {
 4951              		.loc 4 239 10 is_stmt 1 view .LVU1173
 4952              	.LBB820:
 246:../../libdaisy/src/dev/oled_ssd130x.h ****     }
 4953              		.loc 4 246 28 is_stmt 0 view .LVU1174
 4954 021a F208     		lsrs	r2, r6, #3
 246:../../libdaisy/src/dev/oled_ssd130x.h ****     }
 4955              		.loc 4 246 49 view .LVU1175
 4956 021c 0120     		movs	r0, #1
 4957              	.LVL411:
 246:../../libdaisy/src/dev/oled_ssd130x.h ****     }
 4958              		.loc 4 246 55 view .LVU1176
 4959 021e 06F0070E 		and	lr, r6, #7
 246:../../libdaisy/src/dev/oled_ssd130x.h ****     }
 4960              		.loc 4 246 42 view .LVU1177
 4961 0222 05EBC212 		add	r2, r5, r2, lsl #7
 246:../../libdaisy/src/dev/oled_ssd130x.h ****     }
 4962              		.loc 4 246 49 view .LVU1178
 4963 0226 00FA0EFE 		lsl	lr, r0, lr
 246:../../libdaisy/src/dev/oled_ssd130x.h ****     }
 4964              		.loc 4 246 42 view .LVU1179
 4965 022a 3A44     		add	r2, r2, r7
 4966 022c 107D     		ldrb	r0, [r2, #20]	@ zero_extendqisi2
 4967 022e 20EA0E00 		bic	r0, r0, lr
 4968 0232 1075     		strb	r0, [r2, #20]
 4969              	.LVL412:
 246:../../libdaisy/src/dev/oled_ssd130x.h ****     }
 4970              		.loc 4 246 42 view .LVU1180
 4971 0234 44E7     		b	.L355
 4972              	.LVL413:
 4973              	.L363:
 246:../../libdaisy/src/dev/oled_ssd130x.h ****     }
 4974              		.loc 4 246 42 view .LVU1181
 4975              	.LBE820:
 4976              	.LBE819:
 4977              	.LBE823:
 4978              	.LBE828:
 4979              	.LBE840:
 4980              	.LBB841:
ARM GAS  C:\Users\VINCIU~1\AppData\Local\Temp\cc6DIkXk.s 			page 128


 4981              	.LBB837:
 4982              	.LBB836:
 4983              	.LBB834:
 4984              	.LBI834:
 239:../../libdaisy/src/dev/oled_ssd130x.h ****     {
 4985              		.loc 4 239 10 is_stmt 1 view .LVU1182
 4986              	.LBB835:
 246:../../libdaisy/src/dev/oled_ssd130x.h ****     }
 4987              		.loc 4 246 28 is_stmt 0 view .LVU1183
 4988 0236 D008     		lsrs	r0, r2, #3
 246:../../libdaisy/src/dev/oled_ssd130x.h ****     }
 4989              		.loc 4 246 49 view .LVU1184
 4990 0238 4FF0010E 		mov	lr, #1
 246:../../libdaisy/src/dev/oled_ssd130x.h ****     }
 4991              		.loc 4 246 55 view .LVU1185
 4992 023c 02F0070A 		and	r10, r2, #7
 246:../../libdaisy/src/dev/oled_ssd130x.h ****     }
 4993              		.loc 4 246 42 view .LVU1186
 4994 0240 01EBC010 		add	r0, r1, r0, lsl #7
 246:../../libdaisy/src/dev/oled_ssd130x.h ****     }
 4995              		.loc 4 246 49 view .LVU1187
 4996 0244 0EFA0AFA 		lsl	r10, lr, r10
 246:../../libdaisy/src/dev/oled_ssd130x.h ****     }
 4997              		.loc 4 246 42 view .LVU1188
 4998 0248 3844     		add	r0, r0, r7
 4999 024a 90F814E0 		ldrb	lr, [r0, #20]	@ zero_extendqisi2
 5000 024e 2EEA0A0E 		bic	lr, lr, r10
 5001 0252 80F814E0 		strb	lr, [r0, #20]
 5002 0256 52E7     		b	.L362
 5003              	.LVL414:
 5004              	.L377:
 246:../../libdaisy/src/dev/oled_ssd130x.h ****     }
 5005              		.loc 4 246 42 view .LVU1189
 5006              	.LBE835:
 5007              	.LBE834:
 5008              	.LBE836:
 5009              	.LBE837:
 5010              	.LBE841:
 5011              	.LBE844:
 5012              	.LBE874:
 5013              	.LBB875:
 5014              	.LBB871:
 5015              	.LBB867:
 5016              	.LBB866:
 5017              	.LBB865:
 5018              	.LBB863:
 5019              	.LBI863:
 239:../../libdaisy/src/dev/oled_ssd130x.h ****     {
 5020              		.loc 4 239 10 is_stmt 1 view .LVU1190
 5021              	.LBB864:
 246:../../libdaisy/src/dev/oled_ssd130x.h ****     }
 5022              		.loc 4 246 28 is_stmt 0 view .LVU1191
 5023 0258 E308     		lsrs	r3, r4, #3
 246:../../libdaisy/src/dev/oled_ssd130x.h ****     }
 5024              		.loc 4 246 49 view .LVU1192
 5025 025a 4FF0010C 		mov	ip, #1
 246:../../libdaisy/src/dev/oled_ssd130x.h ****     }
ARM GAS  C:\Users\VINCIU~1\AppData\Local\Temp\cc6DIkXk.s 			page 129


 5026              		.loc 4 246 55 view .LVU1193
 5027 025e 04F0070B 		and	fp, r4, #7
 246:../../libdaisy/src/dev/oled_ssd130x.h ****     }
 5028              		.loc 4 246 42 view .LVU1194
 5029 0262 01EBC313 		add	r3, r1, r3, lsl #7
 246:../../libdaisy/src/dev/oled_ssd130x.h ****     }
 5030              		.loc 4 246 49 view .LVU1195
 5031 0266 0CFA0BFB 		lsl	fp, ip, fp
 246:../../libdaisy/src/dev/oled_ssd130x.h ****     }
 5032              		.loc 4 246 42 view .LVU1196
 5033 026a 3B44     		add	r3, r3, r7
 5034 026c 93F814C0 		ldrb	ip, [r3, #20]	@ zero_extendqisi2
 5035 0270 2CEA0B0C 		bic	ip, ip, fp
 5036 0274 83F814C0 		strb	ip, [r3, #20]
 5037 0278 AEE7     		b	.L376
 5038              	.LVL415:
 5039              	.L368:
 246:../../libdaisy/src/dev/oled_ssd130x.h ****     }
 5040              		.loc 4 246 42 view .LVU1197
 5041              	.LBE864:
 5042              	.LBE863:
 5043              	.LBE865:
 5044              	.LBE866:
 5045              	.LBE867:
 5046              	.LBB868:
  41:../../libdaisy/src/hid/disp/oled_display.h ****     {
 5047              		.loc 2 41 10 is_stmt 1 view .LVU1198
 5048              	.LBB857:
 239:../../libdaisy/src/dev/oled_ssd130x.h ****     {
 5049              		.loc 4 239 10 view .LVU1199
 5050              	.LBB854:
 241:../../libdaisy/src/dev/oled_ssd130x.h ****             return;
 5051              		.loc 4 241 9 is_stmt 0 view .LVU1200
 5052 027a 3F2E     		cmp	r6, #63
 5053              	.LBE854:
 5054              	.LBE857:
 5055              	.LBE868:
 190:../../libdaisy/src/hid/disp/display.h ****         int_fast16_t error  = deltaX - deltaY;
 5056              		.loc 3 190 42 view .LVU1201
 5057 027c 4FF0010A 		mov	r10, #1
 5058              	.LBB869:
 5059              	.LBB858:
 5060              	.LBB855:
 241:../../libdaisy/src/dev/oled_ssd130x.h ****             return;
 5061              		.loc 4 241 9 view .LVU1202
 5062 0280 91D8     		bhi	.L371
 5063 0282 7F2D     		cmp	r5, #127
 5064 0284 8FD8     		bhi	.L371
 243:../../libdaisy/src/dev/oled_ssd130x.h ****             buffer_[x + (y / 8) * width] |= (1 << (y % 8));
 5065              		.loc 4 243 9 view .LVU1203
 5066 0286 039B     		ldr	r3, [sp, #12]
 5067 0288 002B     		cmp	r3, #0
 5068 028a 7FF478AF 		bne	.L407
 5069              	.LVL416:
 5070              	.L370:
 5071              	.LBB851:
 5072              	.LBI851:
ARM GAS  C:\Users\VINCIU~1\AppData\Local\Temp\cc6DIkXk.s 			page 130


 239:../../libdaisy/src/dev/oled_ssd130x.h ****     {
 5073              		.loc 4 239 10 is_stmt 1 view .LVU1204
 5074              	.LBB852:
 246:../../libdaisy/src/dev/oled_ssd130x.h ****     }
 5075              		.loc 4 246 28 is_stmt 0 view .LVU1205
 5076 028e F308     		lsrs	r3, r6, #3
 246:../../libdaisy/src/dev/oled_ssd130x.h ****     }
 5077              		.loc 4 246 49 view .LVU1206
 5078 0290 4FF0010C 		mov	ip, #1
 246:../../libdaisy/src/dev/oled_ssd130x.h ****     }
 5079              		.loc 4 246 55 view .LVU1207
 5080 0294 06F0070E 		and	lr, r6, #7
 246:../../libdaisy/src/dev/oled_ssd130x.h ****     }
 5081              		.loc 4 246 42 view .LVU1208
 5082 0298 05EBC313 		add	r3, r5, r3, lsl #7
 246:../../libdaisy/src/dev/oled_ssd130x.h ****     }
 5083              		.loc 4 246 49 view .LVU1209
 5084 029c 0CFA0EFE 		lsl	lr, ip, lr
 246:../../libdaisy/src/dev/oled_ssd130x.h ****     }
 5085              		.loc 4 246 42 view .LVU1210
 5086 02a0 3B44     		add	r3, r3, r7
 5087 02a2 93F814C0 		ldrb	ip, [r3, #20]	@ zero_extendqisi2
 5088 02a6 2CEA0E0C 		bic	ip, ip, lr
 5089 02aa 83F814C0 		strb	ip, [r3, #20]
 5090              	.LVL417:
 246:../../libdaisy/src/dev/oled_ssd130x.h ****     }
 5091              		.loc 4 246 42 view .LVU1211
 5092 02ae 76E7     		b	.L369
 5093              	.LVL418:
 5094              	.L352:
 246:../../libdaisy/src/dev/oled_ssd130x.h ****     }
 5095              		.loc 4 246 42 view .LVU1212
 5096              	.LBE852:
 5097              	.LBE851:
 5098              	.LBE855:
 5099              	.LBE858:
 5100              	.LBE869:
 5101              	.LBE871:
 5102              	.LBE875:
  33:OledDisplayExtravaganza.cpp ****     DrawLine(xinit + 18, yinit + 6, xinit + 9, yinit - 8, on);
 5103              		.loc 6 33 13 view .LVU1213
 5104 02b0 039B     		ldr	r3, [sp, #12]
 5105 02b2 17EE102A 		vmov	r2, s14	@ int
 5106 02b6 CDE90063 		strd	r6, r3, [sp]
 5107 02ba 17EE903A 		vmov	r3, s15	@ int
 5108 02be C047     		blx	r8
 5109              	.LVL419:
  34:OledDisplayExtravaganza.cpp **** }
 5110              		.loc 6 34 61 view .LVU1214
 5111 02c0 3B68     		ldr	r3, [r7]
 5112 02c2 0593     		str	r3, [sp, #20]
 5113 02c4 2CE7     		b	.L357
 5114              	.L366:
  34:OledDisplayExtravaganza.cpp **** }
 5115              		.loc 6 34 13 view .LVU1215
 5116 02c6 039B     		ldr	r3, [sp, #12]
 5117 02c8 2246     		mov	r2, r4
ARM GAS  C:\Users\VINCIU~1\AppData\Local\Temp\cc6DIkXk.s 			page 131


 5118 02ca 3846     		mov	r0, r7
 5119 02cc CDE90063 		strd	r6, r3, [sp]
 5120 02d0 2B46     		mov	r3, r5
 5121 02d2 C047     		blx	r8
 5122              	.LVL420:
 5123              		.loc 6 35 1 view .LVU1216
 5124 02d4 07B0     		add	sp, sp, #28
 5125              		.cfi_def_cfa_offset 44
 5126              		@ sp needed
 5127 02d6 BDEC028B 		vldm	sp!, {d8}
 5128              		.cfi_restore 80
 5129              		.cfi_restore 81
 5130              		.cfi_def_cfa_offset 36
 5131              	.LVL421:
 5132              		.loc 6 35 1 view .LVU1217
 5133 02da BDE8F08F 		pop	{r4, r5, r6, r7, r8, r9, r10, fp, pc}
 5134              	.LVL422:
 5135              	.L409:
 5136              		.loc 6 35 1 view .LVU1218
 5137 02de 00BF     		.align	2
 5138              	.L408:
 5139 02e0 00000000 		.word	_ZN5daisy25OneBitGraphicsDisplayImplINS_11OledDisplayINS_13SSD130xDriverILj128ELj64ENS_24SSD
 5140              		.cfi_endproc
 5141              	.LFE1817:
 5143              		.section	.rodata._ZN23OledDisplayExtravaganza7drawSqrEfffb.str1.4,"aMS",%progbits,1
 5144              		.align	2
 5145              	.LC0:
 5146 0000 73717200 		.ascii	"sqr\000"
 5147              		.section	.text._ZN23OledDisplayExtravaganza7drawSqrEfffb,"ax",%progbits
 5148              		.align	1
 5149              		.p2align 2,,3
 5150              		.global	_ZN23OledDisplayExtravaganza7drawSqrEfffb
 5151              		.syntax unified
 5152              		.thumb
 5153              		.thumb_func
 5154              		.fpu fpv5-d16
 5156              	_ZN23OledDisplayExtravaganza7drawSqrEfffb:
 5157              	.LVL423:
 5158              	.LFB1818:
  36:OledDisplayExtravaganza.cpp **** 
  37:OledDisplayExtravaganza.cpp **** void OledDisplayExtravaganza::drawSqr(float xinit,
  38:OledDisplayExtravaganza.cpp ****                                       float yinit,
  39:OledDisplayExtravaganza.cpp ****                                       float points,
  40:OledDisplayExtravaganza.cpp ****                                       bool  on)
  41:OledDisplayExtravaganza.cpp **** {
 5159              		.loc 6 41 1 is_stmt 1 view -0
 5160              		.cfi_startproc
 5161              		@ args = 0, pretend = 0, frame = 8
 5162              		@ frame_needed = 0, uses_anonymous_args = 0
  42:OledDisplayExtravaganza.cpp ****     DrawLine(xinit, yinit - 4, xinit + 9, yinit - 4, on);
 5163              		.loc 6 42 5 view .LVU1220
 5164              		.loc 6 42 27 is_stmt 0 view .LVU1221
 5165 0000 B1EE007A 		vmov.f32	s14, #4.0e+0
 5166              		.loc 6 42 38 view .LVU1222
 5167 0004 F2EE027A 		vmov.f32	s15, #9.0e+0
 5168              		.loc 6 42 13 view .LVU1223
 5169 0008 FCEEC06A 		vcvt.u32.f32	s13, s0
ARM GAS  C:\Users\VINCIU~1\AppData\Local\Temp\cc6DIkXk.s 			page 132


 5170              		.loc 6 42 27 view .LVU1224
 5171 000c 30EEC77A 		vsub.f32	s14, s1, s14
 5172              		.loc 6 42 38 view .LVU1225
 5173 0010 70EE277A 		vadd.f32	s15, s0, s15
  41:OledDisplayExtravaganza.cpp ****     DrawLine(xinit, yinit - 4, xinit + 9, yinit - 4, on);
 5174              		.loc 6 41 1 view .LVU1226
 5175 0014 2DE9F04F 		push	{r4, r5, r6, r7, r8, r9, r10, fp, lr}
 5176              		.cfi_def_cfa_offset 36
 5177              		.cfi_offset 4, -36
 5178              		.cfi_offset 5, -32
 5179              		.cfi_offset 6, -28
 5180              		.cfi_offset 7, -24
 5181              		.cfi_offset 8, -20
 5182              		.cfi_offset 9, -16
 5183              		.cfi_offset 10, -12
 5184              		.cfi_offset 11, -8
 5185              		.cfi_offset 14, -4
 5186              		.loc 6 42 56 view .LVU1227
 5187 0018 D0F800E0 		ldr	lr, [r0]
  41:OledDisplayExtravaganza.cpp ****     DrawLine(xinit, yinit - 4, xinit + 9, yinit - 4, on);
 5188              		.loc 6 41 1 view .LVU1228
 5189 001c 8846     		mov	r8, r1
 5190 001e C449     		ldr	r1, .L493
 5191              	.LVL424:
 5192              		.loc 6 42 13 view .LVU1229
 5193 0020 BCEEC77A 		vcvt.u32.f32	s14, s14
 5194              		.loc 6 42 56 view .LVU1230
 5195 0024 DEF81870 		ldr	r7, [lr, #24]
 5196              		.loc 6 42 13 view .LVU1231
 5197 0028 FCEEE77A 		vcvt.u32.f32	s15, s15
  41:OledDisplayExtravaganza.cpp ****     DrawLine(xinit, yinit - 4, xinit + 9, yinit - 4, on);
 5198              		.loc 6 41 1 view .LVU1232
 5199 002c 0646     		mov	r6, r0
 5200 002e 8F42     		cmp	r7, r1
 5201              		.loc 6 42 13 view .LVU1233
 5202 0030 17EE105A 		vmov	r5, s14	@ int
 5203 0034 17EE904A 		vmov	r4, s15	@ int
  41:OledDisplayExtravaganza.cpp ****     DrawLine(xinit, yinit - 4, xinit + 9, yinit - 4, on);
 5204              		.loc 6 41 1 view .LVU1234
 5205 0038 2DED028B 		vpush.64	{d8}
 5206              		.cfi_def_cfa_offset 44
 5207              		.cfi_offset 80, -44
 5208              		.cfi_offset 81, -40
 5209 003c 85B0     		sub	sp, sp, #20
 5210              		.cfi_def_cfa_offset 64
  41:OledDisplayExtravaganza.cpp ****     DrawLine(xinit, yinit - 4, xinit + 9, yinit - 4, on);
 5211              		.loc 6 41 1 view .LVU1235
 5212 003e F0EE408A 		vmov.f32	s17, s0
 5213 0042 B0EE608A 		vmov.f32	s16, s1
 5214              		.loc 6 42 13 view .LVU1236
 5215 0046 CDED036A 		vstr.32	s13, [sp, #12]	@ int
 5216 004a 40F08581 		bne	.L411
 5217 004e 16EE902A 		vmov	r2, s13	@ int
 5218 0052 16EE903A 		vmov	r3, s13	@ int
 5219              	.LVL425:
 5220              	.LBB928:
 5221              	.LBI928:
ARM GAS  C:\Users\VINCIU~1\AppData\Local\Temp\cc6DIkXk.s 			page 133


 181:../../libdaisy/src/hid/disp/display.h ****                   uint_fast8_t y1,
 5222              		.loc 3 181 10 is_stmt 1 view .LVU1237
 5223              	.LBB929:
 187:../../libdaisy/src/hid/disp/display.h ****         int_fast16_t deltaY = abs((int_fast16_t)y2 - (int_fast16_t)y1);
 5224              		.loc 3 187 52 is_stmt 0 view .LVU1238
 5225 0056 A71A     		subs	r7, r4, r2
 187:../../libdaisy/src/hid/disp/display.h ****         int_fast16_t deltaY = abs((int_fast16_t)y2 - (int_fast16_t)y1);
 5226              		.loc 3 187 22 view .LVU1239
 5227 0058 002F     		cmp	r7, #0
 5228 005a B8BF     		it	lt
 5229 005c 7F42     		rsblt	r7, r7, #0
 5230              	.LVL426:
 189:../../libdaisy/src/hid/disp/display.h ****         int_fast16_t signY  = ((y1 < y2) ? 1 : -1);
 5231              		.loc 3 189 42 view .LVU1240
 5232 005e A242     		cmp	r2, r4
 5233 0060 C0F01C81 		bcc	.L412
 5234              	.LVL427:
 5235              	.LBB930:
 5236              	.LBI930:
  41:../../libdaisy/src/hid/disp/oled_display.h ****     {
 5237              		.loc 2 41 10 is_stmt 1 view .LVU1241
 5238              	.LBB931:
 5239              	.LBI931:
 239:../../libdaisy/src/dev/oled_ssd130x.h ****     {
 5240              		.loc 4 239 10 view .LVU1242
 5241              	.LBB932:
 241:../../libdaisy/src/dev/oled_ssd130x.h ****             return;
 5242              		.loc 4 241 9 is_stmt 0 view .LVU1243
 5243 0064 7F2C     		cmp	r4, #127
 5244              	.LBE932:
 5245              	.LBE931:
 5246              	.LBE930:
 189:../../libdaisy/src/hid/disp/display.h ****         int_fast16_t signY  = ((y1 < y2) ? 1 : -1);
 5247              		.loc 3 189 42 view .LVU1244
 5248 0066 4FF0FF39 		mov	r9, #-1
 5249              	.LBB943:
 5250              	.LBB939:
 5251              	.LBB935:
 241:../../libdaisy/src/dev/oled_ssd130x.h ****             return;
 5252              		.loc 4 241 9 view .LVU1245
 5253 006a 10D8     		bhi	.L413
 5254 006c 3F2D     		cmp	r5, #63
 5255 006e 0ED8     		bhi	.L413
 5256              	.LVL428:
 5257              	.L455:
 244:../../libdaisy/src/dev/oled_ssd130x.h ****         else
 5258              		.loc 4 244 28 view .LVU1246
 5259 0070 EA08     		lsrs	r2, r5, #3
 5260              	.LVL429:
 244:../../libdaisy/src/dev/oled_ssd130x.h ****         else
 5261              		.loc 4 244 54 view .LVU1247
 5262 0072 05F00700 		and	r0, r5, #7
 5263              	.LVL430:
 244:../../libdaisy/src/dev/oled_ssd130x.h ****         else
 5264              		.loc 4 244 48 view .LVU1248
 5265 0076 0121     		movs	r1, #1
 244:../../libdaisy/src/dev/oled_ssd130x.h ****         else
ARM GAS  C:\Users\VINCIU~1\AppData\Local\Temp\cc6DIkXk.s 			page 134


 5266              		.loc 4 244 42 view .LVU1249
 5267 0078 04EBC212 		add	r2, r4, r2, lsl #7
 5268 007c 3244     		add	r2, r2, r6
 243:../../libdaisy/src/dev/oled_ssd130x.h ****             buffer_[x + (y / 8) * width] |= (1 << (y % 8));
 5269              		.loc 4 243 9 view .LVU1250
 5270 007e B8F1000F 		cmp	r8, #0
 5271 0082 00F03F81 		beq	.L414
 244:../../libdaisy/src/dev/oled_ssd130x.h ****         else
 5272              		.loc 4 244 48 view .LVU1251
 5273 0086 8140     		lsls	r1, r1, r0
 244:../../libdaisy/src/dev/oled_ssd130x.h ****         else
 5274              		.loc 4 244 42 view .LVU1252
 5275 0088 107D     		ldrb	r0, [r2, #20]	@ zero_extendqisi2
 5276 008a 0143     		orrs	r1, r1, r0
 5277 008c 1175     		strb	r1, [r2, #20]
 5278              	.L413:
 5279              	.LVL431:
 244:../../libdaisy/src/dev/oled_ssd130x.h ****         else
 5280              		.loc 4 244 42 view .LVU1253
 5281              	.LBE935:
 5282              	.LBE939:
 5283              	.LBE943:
 199:../../libdaisy/src/hid/disp/display.h ****         {
 5284              		.loc 3 199 26 is_stmt 1 view .LVU1254
 5285 008e 039A     		ldr	r2, [sp, #12]
 5286 0090 A242     		cmp	r2, r4
 5287 0092 24D0     		beq	.L415
 5288              	.LVL432:
 5289              	.L416:
 187:../../libdaisy/src/hid/disp/display.h ****         int_fast16_t deltaY = abs((int_fast16_t)y2 - (int_fast16_t)y1);
 5290              		.loc 3 187 22 is_stmt 0 view .LVU1255
 5291 0094 3946     		mov	r1, r7
 5292              	.LBE929:
 5293              	.LBE928:
 5294              		.loc 6 42 13 view .LVU1256
 5295 0096 2A46     		mov	r2, r5
 5296              	.L418:
 5297              	.LVL433:
 5298              	.LBB959:
 5299              	.LBB955:
 5300              	.LBB944:
 5301              	.LBI944:
  41:../../libdaisy/src/hid/disp/oled_display.h ****     {
 5302              		.loc 2 41 10 is_stmt 1 view .LVU1257
 5303              	.LBB945:
 5304              	.LBI945:
 239:../../libdaisy/src/dev/oled_ssd130x.h ****     {
 5305              		.loc 4 239 10 view .LVU1258
 5306              	.LBB946:
 241:../../libdaisy/src/dev/oled_ssd130x.h ****             return;
 5307              		.loc 4 241 9 is_stmt 0 view .LVU1259
 5308 0098 7F2B     		cmp	r3, #127
 5309 009a 15D8     		bhi	.L419
 5310 009c 3F2A     		cmp	r2, #63
 5311 009e 13D8     		bhi	.L419
 244:../../libdaisy/src/dev/oled_ssd130x.h ****         else
 5312              		.loc 4 244 28 view .LVU1260
ARM GAS  C:\Users\VINCIU~1\AppData\Local\Temp\cc6DIkXk.s 			page 135


 5313 00a0 D008     		lsrs	r0, r2, #3
 244:../../libdaisy/src/dev/oled_ssd130x.h ****         else
 5314              		.loc 4 244 54 view .LVU1261
 5315 00a2 02F0070A 		and	r10, r2, #7
 244:../../libdaisy/src/dev/oled_ssd130x.h ****         else
 5316              		.loc 4 244 48 view .LVU1262
 5317 00a6 4FF0010C 		mov	ip, #1
 244:../../libdaisy/src/dev/oled_ssd130x.h ****         else
 5318              		.loc 4 244 42 view .LVU1263
 5319 00aa 03EBC010 		add	r0, r3, r0, lsl #7
 5320 00ae 3044     		add	r0, r0, r6
 243:../../libdaisy/src/dev/oled_ssd130x.h ****             buffer_[x + (y / 8) * width] |= (1 << (y % 8));
 5321              		.loc 4 243 9 view .LVU1264
 5322 00b0 B8F1000F 		cmp	r8, #0
 5323 00b4 00F00481 		beq	.L420
 244:../../libdaisy/src/dev/oled_ssd130x.h ****         else
 5324              		.loc 4 244 48 view .LVU1265
 5325 00b8 0CFA0AFC 		lsl	ip, ip, r10
 244:../../libdaisy/src/dev/oled_ssd130x.h ****         else
 5326              		.loc 4 244 42 view .LVU1266
 5327 00bc 90F814A0 		ldrb	r10, [r0, #20]	@ zero_extendqisi2
 5328 00c0 4CEA0A0C 		orr	ip, ip, r10
 5329 00c4 80F814C0 		strb	ip, [r0, #20]
 5330              	.L419:
 5331              	.LVL434:
 244:../../libdaisy/src/dev/oled_ssd130x.h ****         else
 5332              		.loc 4 244 42 view .LVU1267
 5333              	.LBE946:
 5334              	.LBE945:
 5335              	.LBE944:
 203:../../libdaisy/src/hid/disp/display.h ****             {
 5336              		.loc 3 203 13 view .LVU1268
 5337 00c8 4800     		lsls	r0, r1, #1
 5338              	.LVL435:
 206:../../libdaisy/src/hid/disp/display.h ****             }
 5339              		.loc 3 206 20 view .LVU1269
 5340 00ca 18BF     		it	ne
 5341 00cc 4B44     		addne	r3, r3, r9
 5342              	.LVL436:
 209:../../libdaisy/src/hid/disp/display.h ****             {
 5343              		.loc 3 209 13 view .LVU1270
 5344 00ce 8742     		cmp	r7, r0
 5345 00d0 01DD     		ble	.L422
 211:../../libdaisy/src/hid/disp/display.h ****                 y1 += signY;
 5346              		.loc 3 211 23 view .LVU1271
 5347 00d2 3944     		add	r1, r1, r7
 5348              	.LVL437:
 212:../../libdaisy/src/hid/disp/display.h ****             }
 5349              		.loc 3 212 20 view .LVU1272
 5350 00d4 013A     		subs	r2, r2, #1
 5351              	.LVL438:
 5352              	.L422:
 199:../../libdaisy/src/hid/disp/display.h ****         {
 5353              		.loc 3 199 26 is_stmt 1 view .LVU1273
 5354 00d6 9C42     		cmp	r4, r3
 5355 00d8 DED1     		bne	.L418
 199:../../libdaisy/src/hid/disp/display.h ****         {
ARM GAS  C:\Users\VINCIU~1\AppData\Local\Temp\cc6DIkXk.s 			page 136


 5356              		.loc 3 199 26 is_stmt 0 view .LVU1274
 5357 00da 9542     		cmp	r5, r2
 5358 00dc DCD1     		bne	.L418
 5359              	.LVL439:
 5360              	.L415:
 199:../../libdaisy/src/hid/disp/display.h ****         {
 5361              		.loc 3 199 26 view .LVU1275
 5362              	.LBE955:
 5363              	.LBE959:
  43:OledDisplayExtravaganza.cpp ****     DrawLine(xinit + 9, yinit - 4, xinit + 9, yinit + 7, on);
 5364              		.loc 6 43 5 is_stmt 1 view .LVU1276
 5365              		.loc 6 43 53 is_stmt 0 view .LVU1277
 5366 00de F1EE0C7A 		vmov.f32	s15, #7.0e+0
 5367              		.loc 6 43 60 view .LVU1278
 5368 00e2 DEF81890 		ldr	r9, [lr, #24]
 5369 00e6 924B     		ldr	r3, .L493
 5370              		.loc 6 43 53 view .LVU1279
 5371 00e8 78EE277A 		vadd.f32	s15, s16, s15
 5372 00ec 9945     		cmp	r9, r3
 5373              		.loc 6 43 13 view .LVU1280
 5374 00ee FCEEE77A 		vcvt.u32.f32	s15, s15
 5375 00f2 17EE907A 		vmov	r7, s15	@ int
 5376 00f6 40F02581 		bne	.L423
 5377              	.LVL440:
 5378              	.LBB960:
 5379              	.LBI960:
 181:../../libdaisy/src/hid/disp/display.h ****                   uint_fast8_t y1,
 5380              		.loc 3 181 10 is_stmt 1 view .LVU1281
 5381              	.LBB961:
 188:../../libdaisy/src/hid/disp/display.h ****         int_fast16_t signX  = ((x1 < x2) ? 1 : -1);
 5382              		.loc 3 188 52 is_stmt 0 view .LVU1282
 5383 00fa A7EB0509 		sub	r9, r7, r5
 188:../../libdaisy/src/hid/disp/display.h ****         int_fast16_t signX  = ((x1 < x2) ? 1 : -1);
 5384              		.loc 3 188 22 view .LVU1283
 5385 00fe B9F1000F 		cmp	r9, #0
 5386 0102 B8BF     		it	lt
 5387 0104 C9F10009 		rsblt	r9, r9, #0
 5388              	.LVL441:
 190:../../libdaisy/src/hid/disp/display.h ****         int_fast16_t error  = deltaX - deltaY;
 5389              		.loc 3 190 42 view .LVU1284
 5390 0108 BD42     		cmp	r5, r7
 191:../../libdaisy/src/hid/disp/display.h ****         int_fast16_t error2;
 5391              		.loc 3 191 22 view .LVU1285
 5392 010a C9F1000C 		rsb	ip, r9, #0
 190:../../libdaisy/src/hid/disp/display.h ****         int_fast16_t error  = deltaX - deltaY;
 5393              		.loc 3 190 42 view .LVU1286
 5394 010e C0F0E780 		bcc	.L424
 5395              	.LVL442:
 5396              	.LBB962:
 5397              	.LBI962:
  41:../../libdaisy/src/hid/disp/oled_display.h ****     {
 5398              		.loc 2 41 10 is_stmt 1 view .LVU1287
 5399              	.LBB963:
 5400              	.LBI963:
 239:../../libdaisy/src/dev/oled_ssd130x.h ****     {
 5401              		.loc 4 239 10 view .LVU1288
 5402              	.LBB964:
ARM GAS  C:\Users\VINCIU~1\AppData\Local\Temp\cc6DIkXk.s 			page 137


 241:../../libdaisy/src/dev/oled_ssd130x.h ****             return;
 5403              		.loc 4 241 9 is_stmt 0 view .LVU1289
 5404 0112 7F2C     		cmp	r4, #127
 5405              	.LBE964:
 5406              	.LBE963:
 5407              	.LBE962:
 190:../../libdaisy/src/hid/disp/display.h ****         int_fast16_t error  = deltaX - deltaY;
 5408              		.loc 3 190 42 view .LVU1290
 5409 0114 4FF0FF3A 		mov	r10, #-1
 5410              	.LBB975:
 5411              	.LBB971:
 5412              	.LBB967:
 241:../../libdaisy/src/dev/oled_ssd130x.h ****             return;
 5413              		.loc 4 241 9 view .LVU1291
 5414 0118 10D8     		bhi	.L425
 5415 011a 3F2F     		cmp	r7, #63
 5416 011c 0ED8     		bhi	.L425
 5417              	.LVL443:
 5418              	.L454:
 244:../../libdaisy/src/dev/oled_ssd130x.h ****         else
 5419              		.loc 4 244 28 view .LVU1292
 5420 011e FB08     		lsrs	r3, r7, #3
 244:../../libdaisy/src/dev/oled_ssd130x.h ****         else
 5421              		.loc 4 244 54 view .LVU1293
 5422 0120 07F00701 		and	r1, r7, #7
 244:../../libdaisy/src/dev/oled_ssd130x.h ****         else
 5423              		.loc 4 244 48 view .LVU1294
 5424 0124 0122     		movs	r2, #1
 244:../../libdaisy/src/dev/oled_ssd130x.h ****         else
 5425              		.loc 4 244 42 view .LVU1295
 5426 0126 04EBC313 		add	r3, r4, r3, lsl #7
 5427 012a 3344     		add	r3, r3, r6
 243:../../libdaisy/src/dev/oled_ssd130x.h ****             buffer_[x + (y / 8) * width] |= (1 << (y % 8));
 5428              		.loc 4 243 9 view .LVU1296
 5429 012c B8F1000F 		cmp	r8, #0
 5430 0130 00F0F680 		beq	.L426
 244:../../libdaisy/src/dev/oled_ssd130x.h ****         else
 5431              		.loc 4 244 48 view .LVU1297
 5432 0134 8A40     		lsls	r2, r2, r1
 244:../../libdaisy/src/dev/oled_ssd130x.h ****         else
 5433              		.loc 4 244 42 view .LVU1298
 5434 0136 197D     		ldrb	r1, [r3, #20]	@ zero_extendqisi2
 5435 0138 0A43     		orrs	r2, r2, r1
 5436 013a 1A75     		strb	r2, [r3, #20]
 5437              	.L425:
 5438              	.LVL444:
 244:../../libdaisy/src/dev/oled_ssd130x.h ****         else
 5439              		.loc 4 244 42 view .LVU1299
 5440              	.LBE967:
 5441              	.LBE971:
 5442              	.LBE975:
 199:../../libdaisy/src/hid/disp/display.h ****         {
 5443              		.loc 3 199 26 is_stmt 1 view .LVU1300
 5444 013c BD42     		cmp	r5, r7
 5445 013e 25D0     		beq	.L427
 5446              	.L428:
 5447              	.LVL445:
ARM GAS  C:\Users\VINCIU~1\AppData\Local\Temp\cc6DIkXk.s 			page 138


 190:../../libdaisy/src/hid/disp/display.h ****         int_fast16_t error  = deltaX - deltaY;
 5448              		.loc 3 190 42 is_stmt 0 view .LVU1301
 5449 0140 6246     		mov	r2, ip
 5450              	.LBE961:
 5451              	.LBE960:
  42:OledDisplayExtravaganza.cpp ****     DrawLine(xinit + 9, yinit - 4, xinit + 9, yinit + 7, on);
 5452              		.loc 6 42 13 view .LVU1302
 5453 0142 2346     		mov	r3, r4
 5454              	.L430:
 5455              	.LVL446:
 5456              	.LBB990:
 5457              	.LBB987:
 5458              	.LBB976:
 5459              	.LBI976:
  41:../../libdaisy/src/hid/disp/oled_display.h ****     {
 5460              		.loc 2 41 10 is_stmt 1 view .LVU1303
 5461              	.LBB977:
 5462              	.LBI977:
 239:../../libdaisy/src/dev/oled_ssd130x.h ****     {
 5463              		.loc 4 239 10 view .LVU1304
 5464              	.LBB978:
 241:../../libdaisy/src/dev/oled_ssd130x.h ****             return;
 5465              		.loc 4 241 9 is_stmt 0 view .LVU1305
 5466 0144 7F2B     		cmp	r3, #127
 5467 0146 13D8     		bhi	.L431
 5468 0148 3F2D     		cmp	r5, #63
 5469 014a 11D8     		bhi	.L431
 244:../../libdaisy/src/dev/oled_ssd130x.h ****         else
 5470              		.loc 4 244 28 view .LVU1306
 5471 014c E908     		lsrs	r1, r5, #3
 244:../../libdaisy/src/dev/oled_ssd130x.h ****         else
 5472              		.loc 4 244 54 view .LVU1307
 5473 014e 05F0070B 		and	fp, r5, #7
 244:../../libdaisy/src/dev/oled_ssd130x.h ****         else
 5474              		.loc 4 244 48 view .LVU1308
 5475 0152 0120     		movs	r0, #1
 244:../../libdaisy/src/dev/oled_ssd130x.h ****         else
 5476              		.loc 4 244 42 view .LVU1309
 5477 0154 03EBC111 		add	r1, r3, r1, lsl #7
 5478 0158 3144     		add	r1, r1, r6
 243:../../libdaisy/src/dev/oled_ssd130x.h ****             buffer_[x + (y / 8) * width] |= (1 << (y % 8));
 5479              		.loc 4 243 9 view .LVU1310
 5480 015a B8F1000F 		cmp	r8, #0
 5481 015e 00F0B880 		beq	.L432
 244:../../libdaisy/src/dev/oled_ssd130x.h ****         else
 5482              		.loc 4 244 48 view .LVU1311
 5483 0162 00FA0BF0 		lsl	r0, r0, fp
 244:../../libdaisy/src/dev/oled_ssd130x.h ****         else
 5484              		.loc 4 244 42 view .LVU1312
 5485 0166 91F814B0 		ldrb	fp, [r1, #20]	@ zero_extendqisi2
 5486 016a 40EA0B00 		orr	r0, r0, fp
 5487 016e 0875     		strb	r0, [r1, #20]
 5488              	.L431:
 5489              	.LVL447:
 244:../../libdaisy/src/dev/oled_ssd130x.h ****         else
 5490              		.loc 4 244 42 view .LVU1313
 5491              	.LBE978:
ARM GAS  C:\Users\VINCIU~1\AppData\Local\Temp\cc6DIkXk.s 			page 139


 5492              	.LBE977:
 5493              	.LBE976:
 203:../../libdaisy/src/hid/disp/display.h ****             {
 5494              		.loc 3 203 13 view .LVU1314
 5495 0170 BCEB420F 		cmp	ip, r2, lsl #1
 202:../../libdaisy/src/hid/disp/display.h ****             if(error2 > -deltaY)
 5496              		.loc 3 202 20 view .LVU1315
 5497 0174 4FEA4201 		lsl	r1, r2, #1
 5498              	.LVL448:
 203:../../libdaisy/src/hid/disp/display.h ****             {
 5499              		.loc 3 203 13 view .LVU1316
 5500 0178 02DA     		bge	.L433
 205:../../libdaisy/src/hid/disp/display.h ****                 x1 += signX;
 5501              		.loc 3 205 23 view .LVU1317
 5502 017a A2EB0902 		sub	r2, r2, r9
 5503              	.LVL449:
 206:../../libdaisy/src/hid/disp/display.h ****             }
 5504              		.loc 3 206 20 view .LVU1318
 5505 017e 013B     		subs	r3, r3, #1
 5506              	.LVL450:
 5507              	.L433:
 209:../../libdaisy/src/hid/disp/display.h ****             {
 5508              		.loc 3 209 13 view .LVU1319
 5509 0180 01B1     		cbz	r1, .L434
 212:../../libdaisy/src/hid/disp/display.h ****             }
 5510              		.loc 3 212 20 view .LVU1320
 5511 0182 5544     		add	r5, r5, r10
 5512              	.LVL451:
 5513              	.L434:
 199:../../libdaisy/src/hid/disp/display.h ****         {
 5514              		.loc 3 199 26 is_stmt 1 view .LVU1321
 5515 0184 9C42     		cmp	r4, r3
 5516 0186 DDD1     		bne	.L430
 199:../../libdaisy/src/hid/disp/display.h ****         {
 5517              		.loc 3 199 26 is_stmt 0 view .LVU1322
 5518 0188 AF42     		cmp	r7, r5
 5519 018a DBD1     		bne	.L430
 5520              	.LVL452:
 5521              	.L427:
 199:../../libdaisy/src/hid/disp/display.h ****         {
 5522              		.loc 3 199 26 view .LVU1323
 5523              	.LBE987:
 5524              	.LBE990:
  44:OledDisplayExtravaganza.cpp ****     DrawLine(xinit + 9, yinit + 7, xinit + 18, yinit + 7, on);
 5525              		.loc 6 44 5 is_stmt 1 view .LVU1324
 5526              		.loc 6 44 42 is_stmt 0 view .LVU1325
 5527 018c B3EE020A 		vmov.f32	s0, #1.8e+1
 5528              		.loc 6 44 61 view .LVU1326
 5529 0190 DEF81850 		ldr	r5, [lr, #24]
 5530 0194 664A     		ldr	r2, .L493
 5531              		.loc 6 44 42 view .LVU1327
 5532 0196 78EE808A 		vadd.f32	s17, s17, s0
 5533              	.LVL453:
 5534              		.loc 6 44 42 view .LVU1328
 5535 019a 9542     		cmp	r5, r2
 5536              		.loc 6 44 13 view .LVU1329
 5537 019c FCEEE87A 		vcvt.u32.f32	s15, s17
ARM GAS  C:\Users\VINCIU~1\AppData\Local\Temp\cc6DIkXk.s 			page 140


 5538 01a0 17EE903A 		vmov	r3, s15	@ int
 5539 01a4 40F0E380 		bne	.L435
 5540              	.LVL454:
 5541              	.LBB991:
 5542              	.LBI991:
 181:../../libdaisy/src/hid/disp/display.h ****                   uint_fast8_t y1,
 5543              		.loc 3 181 10 is_stmt 1 view .LVU1330
 5544              	.LBB992:
 187:../../libdaisy/src/hid/disp/display.h ****         int_fast16_t deltaY = abs((int_fast16_t)y2 - (int_fast16_t)y1);
 5545              		.loc 3 187 52 is_stmt 0 view .LVU1331
 5546 01a8 1D1B     		subs	r5, r3, r4
 187:../../libdaisy/src/hid/disp/display.h ****         int_fast16_t deltaY = abs((int_fast16_t)y2 - (int_fast16_t)y1);
 5547              		.loc 3 187 22 view .LVU1332
 5548 01aa 002D     		cmp	r5, #0
 5549 01ac B8BF     		it	lt
 5550 01ae 6D42     		rsblt	r5, r5, #0
 5551              	.LVL455:
 189:../../libdaisy/src/hid/disp/display.h ****         int_fast16_t signY  = ((y1 < y2) ? 1 : -1);
 5552              		.loc 3 189 42 view .LVU1333
 5553 01b0 9C42     		cmp	r4, r3
 5554 01b2 C0F09E80 		bcc	.L436
 5555              	.LVL456:
 5556              	.LBB993:
 5557              	.LBI993:
  41:../../libdaisy/src/hid/disp/oled_display.h ****     {
 5558              		.loc 2 41 10 is_stmt 1 view .LVU1334
 5559              	.LBB994:
 5560              	.LBI994:
 239:../../libdaisy/src/dev/oled_ssd130x.h ****     {
 5561              		.loc 4 239 10 view .LVU1335
 5562              	.LBB995:
 241:../../libdaisy/src/dev/oled_ssd130x.h ****             return;
 5563              		.loc 4 241 9 is_stmt 0 view .LVU1336
 5564 01b6 7F2B     		cmp	r3, #127
 5565              	.LBE995:
 5566              	.LBE994:
 5567              	.LBE993:
 189:../../libdaisy/src/hid/disp/display.h ****         int_fast16_t signY  = ((y1 < y2) ? 1 : -1);
 5568              		.loc 3 189 42 view .LVU1337
 5569 01b8 4FF0FF3C 		mov	ip, #-1
 5570              	.LBB1006:
 5571              	.LBB1002:
 5572              	.LBB998:
 241:../../libdaisy/src/dev/oled_ssd130x.h ****             return;
 5573              		.loc 4 241 9 view .LVU1338
 5574 01bc 10D8     		bhi	.L437
 5575 01be 3F2F     		cmp	r7, #63
 5576 01c0 0ED8     		bhi	.L437
 5577              	.LVL457:
 5578              	.L453:
 244:../../libdaisy/src/dev/oled_ssd130x.h ****         else
 5579              		.loc 4 244 28 view .LVU1339
 5580 01c2 FA08     		lsrs	r2, r7, #3
 244:../../libdaisy/src/dev/oled_ssd130x.h ****         else
 5581              		.loc 4 244 54 view .LVU1340
 5582 01c4 07F00700 		and	r0, r7, #7
 244:../../libdaisy/src/dev/oled_ssd130x.h ****         else
ARM GAS  C:\Users\VINCIU~1\AppData\Local\Temp\cc6DIkXk.s 			page 141


 5583              		.loc 4 244 48 view .LVU1341
 5584 01c8 0121     		movs	r1, #1
 244:../../libdaisy/src/dev/oled_ssd130x.h ****         else
 5585              		.loc 4 244 42 view .LVU1342
 5586 01ca 03EBC212 		add	r2, r3, r2, lsl #7
 5587 01ce 3244     		add	r2, r2, r6
 243:../../libdaisy/src/dev/oled_ssd130x.h ****             buffer_[x + (y / 8) * width] |= (1 << (y % 8));
 5588              		.loc 4 243 9 view .LVU1343
 5589 01d0 B8F1000F 		cmp	r8, #0
 5590 01d4 00F09D80 		beq	.L438
 244:../../libdaisy/src/dev/oled_ssd130x.h ****         else
 5591              		.loc 4 244 48 view .LVU1344
 5592 01d8 8140     		lsls	r1, r1, r0
 244:../../libdaisy/src/dev/oled_ssd130x.h ****         else
 5593              		.loc 4 244 42 view .LVU1345
 5594 01da 107D     		ldrb	r0, [r2, #20]	@ zero_extendqisi2
 5595 01dc 0143     		orrs	r1, r1, r0
 5596 01de 1175     		strb	r1, [r2, #20]
 5597              	.L437:
 5598              	.LVL458:
 244:../../libdaisy/src/dev/oled_ssd130x.h ****         else
 5599              		.loc 4 244 42 view .LVU1346
 5600              	.LBE998:
 5601              	.LBE1002:
 5602              	.LBE1006:
 199:../../libdaisy/src/hid/disp/display.h ****         {
 5603              		.loc 3 199 26 is_stmt 1 view .LVU1347
 5604 01e0 9C42     		cmp	r4, r3
 5605 01e2 23D0     		beq	.L439
 5606              	.L440:
 5607              	.LVL459:
 187:../../libdaisy/src/hid/disp/display.h ****         int_fast16_t deltaY = abs((int_fast16_t)y2 - (int_fast16_t)y1);
 5608              		.loc 3 187 22 is_stmt 0 view .LVU1348
 5609 01e4 2946     		mov	r1, r5
 5610              	.LBE992:
 5611              	.LBE991:
  43:OledDisplayExtravaganza.cpp ****     DrawLine(xinit + 9, yinit + 7, xinit + 18, yinit + 7, on);
 5612              		.loc 6 43 13 view .LVU1349
 5613 01e6 3A46     		mov	r2, r7
 5614              	.L442:
 5615              	.LVL460:
 5616              	.LBB1022:
 5617              	.LBB1018:
 5618              	.LBB1007:
 5619              	.LBI1007:
  41:../../libdaisy/src/hid/disp/oled_display.h ****     {
 5620              		.loc 2 41 10 is_stmt 1 view .LVU1350
 5621              	.LBB1008:
 5622              	.LBI1008:
 239:../../libdaisy/src/dev/oled_ssd130x.h ****     {
 5623              		.loc 4 239 10 view .LVU1351
 5624              	.LBB1009:
 241:../../libdaisy/src/dev/oled_ssd130x.h ****             return;
 5625              		.loc 4 241 9 is_stmt 0 view .LVU1352
 5626 01e8 7F2C     		cmp	r4, #127
 5627 01ea 14D8     		bhi	.L443
 5628 01ec 3F2A     		cmp	r2, #63
ARM GAS  C:\Users\VINCIU~1\AppData\Local\Temp\cc6DIkXk.s 			page 142


 5629 01ee 12D8     		bhi	.L443
 244:../../libdaisy/src/dev/oled_ssd130x.h ****         else
 5630              		.loc 4 244 28 view .LVU1353
 5631 01f0 D008     		lsrs	r0, r2, #3
 244:../../libdaisy/src/dev/oled_ssd130x.h ****         else
 5632              		.loc 4 244 54 view .LVU1354
 5633 01f2 02F0070A 		and	r10, r2, #7
 244:../../libdaisy/src/dev/oled_ssd130x.h ****         else
 5634              		.loc 4 244 48 view .LVU1355
 5635 01f6 4FF00109 		mov	r9, #1
 244:../../libdaisy/src/dev/oled_ssd130x.h ****         else
 5636              		.loc 4 244 42 view .LVU1356
 5637 01fa 04EBC010 		add	r0, r4, r0, lsl #7
 5638 01fe 3044     		add	r0, r0, r6
 243:../../libdaisy/src/dev/oled_ssd130x.h ****             buffer_[x + (y / 8) * width] |= (1 << (y % 8));
 5639              		.loc 4 243 9 view .LVU1357
 5640 0200 B8F1000F 		cmp	r8, #0
 5641 0204 53D0     		beq	.L444
 244:../../libdaisy/src/dev/oled_ssd130x.h ****         else
 5642              		.loc 4 244 48 view .LVU1358
 5643 0206 09FA0AF9 		lsl	r9, r9, r10
 244:../../libdaisy/src/dev/oled_ssd130x.h ****         else
 5644              		.loc 4 244 42 view .LVU1359
 5645 020a 90F814A0 		ldrb	r10, [r0, #20]	@ zero_extendqisi2
 5646 020e 49EA0A09 		orr	r9, r9, r10
 5647 0212 80F81490 		strb	r9, [r0, #20]
 5648              	.L443:
 5649              	.LVL461:
 244:../../libdaisy/src/dev/oled_ssd130x.h ****         else
 5650              		.loc 4 244 42 view .LVU1360
 5651              	.LBE1009:
 5652              	.LBE1008:
 5653              	.LBE1007:
 203:../../libdaisy/src/hid/disp/display.h ****             {
 5654              		.loc 3 203 13 view .LVU1361
 5655 0216 4800     		lsls	r0, r1, #1
 5656              	.LVL462:
 206:../../libdaisy/src/hid/disp/display.h ****             }
 5657              		.loc 3 206 20 view .LVU1362
 5658 0218 18BF     		it	ne
 5659 021a 6444     		addne	r4, r4, ip
 5660              	.LVL463:
 209:../../libdaisy/src/hid/disp/display.h ****             {
 5661              		.loc 3 209 13 view .LVU1363
 5662 021c 8542     		cmp	r5, r0
 5663 021e 01DD     		ble	.L446
 211:../../libdaisy/src/hid/disp/display.h ****                 y1 += signY;
 5664              		.loc 3 211 23 view .LVU1364
 5665 0220 2944     		add	r1, r1, r5
 5666              	.LVL464:
 212:../../libdaisy/src/hid/disp/display.h ****             }
 5667              		.loc 3 212 20 view .LVU1365
 5668 0222 013A     		subs	r2, r2, #1
 5669              	.LVL465:
 5670              	.L446:
 199:../../libdaisy/src/hid/disp/display.h ****         {
 5671              		.loc 3 199 26 is_stmt 1 view .LVU1366
ARM GAS  C:\Users\VINCIU~1\AppData\Local\Temp\cc6DIkXk.s 			page 143


 5672 0224 A342     		cmp	r3, r4
 5673 0226 DFD1     		bne	.L442
 199:../../libdaisy/src/hid/disp/display.h ****         {
 5674              		.loc 3 199 26 is_stmt 0 view .LVU1367
 5675 0228 9742     		cmp	r7, r2
 5676 022a DDD1     		bne	.L442
 5677              	.LVL466:
 5678              	.L439:
 199:../../libdaisy/src/hid/disp/display.h ****         {
 5679              		.loc 3 199 26 view .LVU1368
 5680              	.LBE1018:
 5681              	.LBE1022:
  45:OledDisplayExtravaganza.cpp ****     OledDisplay::SetCursor(xinit, yinit + 12);
 5682              		.loc 6 45 5 is_stmt 1 view .LVU1369
 5683              		.loc 6 45 41 is_stmt 0 view .LVU1370
 5684 022c F2EE080A 		vmov.f32	s1, #1.2e+1
 5685 0230 404F     		ldr	r7, .L493+4
 5686              		.loc 6 45 27 view .LVU1371
 5687 0232 BDF80C50 		ldrh	r5, [sp, #12]
 5688              		.loc 6 45 41 view .LVU1372
 5689 0236 38EE208A 		vadd.f32	s16, s16, s1
 5690              	.LVL467:
 5691              		.loc 6 45 27 view .LVU1373
 5692 023a BCEEC88A 		vcvt.u32.f32	s16, s16
 5693 023e 18EE103A 		vmov	r3, s16	@ int
 5694 0242 9CB2     		uxth	r4, r3
 5695              	.LVL468:
 5696              	.LBB1023:
 5697              	.LBI1023:
 131:../../libdaisy/src/hid/disp/display.h ****     {
 5698              		.loc 3 131 10 is_stmt 1 view .LVU1374
 5699              	.LBB1024:
 133:../../libdaisy/src/hid/disp/display.h ****         currentY_ = (y >= Height()) ? Height() - 1 : y;
 5700              		.loc 3 133 9 view .LVU1375
 133:../../libdaisy/src/hid/disp/display.h ****         currentY_ = (y >= Height()) ? Height() - 1 : y;
 5701              		.loc 3 133 33 is_stmt 0 view .LVU1376
 5702 0244 DEF80C30 		ldr	r3, [lr, #12]
 5703 0248 BB42     		cmp	r3, r7
 5704 024a 40F09C80 		bne	.L489
 5705 024e 8020     		movs	r0, #128
 5706              	.L447:
 133:../../libdaisy/src/hid/disp/display.h ****         currentY_ = (y >= Height()) ? Height() - 1 : y;
 5707              		.loc 3 133 19 view .LVU1377
 5708 0250 8542     		cmp	r5, r0
 5709 0252 05D3     		bcc	.L448
 133:../../libdaisy/src/hid/disp/display.h ****         currentY_ = (y >= Height()) ? Height() - 1 : y;
 5710              		.loc 3 133 44 view .LVU1378
 5711 0254 DEF80C30 		ldr	r3, [lr, #12]
 5712 0258 BB42     		cmp	r3, r7
 5713 025a 40F09980 		bne	.L490
 5714 025e 7F25     		movs	r5, #127
 5715              	.LVL469:
 5716              	.L448:
 134:../../libdaisy/src/hid/disp/display.h ****     }
 5717              		.loc 3 134 34 view .LVU1379
 5718 0260 DEF80830 		ldr	r3, [lr, #8]
 133:../../libdaisy/src/hid/disp/display.h ****         currentY_ = (y >= Height()) ? Height() - 1 : y;
ARM GAS  C:\Users\VINCIU~1\AppData\Local\Temp\cc6DIkXk.s 			page 144


 5719              		.loc 3 133 19 view .LVU1380
 5720 0264 B580     		strh	r5, [r6, #4]	@ movhi
 134:../../libdaisy/src/hid/disp/display.h ****     }
 5721              		.loc 3 134 9 is_stmt 1 view .LVU1381
 5722 0266 344D     		ldr	r5, .L493+8
 5723 0268 AB42     		cmp	r3, r5
 5724 026a 40F08980 		bne	.L491
 134:../../libdaisy/src/hid/disp/display.h ****     }
 5725              		.loc 3 134 34 is_stmt 0 view .LVU1382
 5726 026e 4020     		movs	r0, #64
 5727              	.L450:
 134:../../libdaisy/src/hid/disp/display.h ****     }
 5728              		.loc 3 134 19 view .LVU1383
 5729 0270 8442     		cmp	r4, r0
 5730 0272 05D3     		bcc	.L451
 134:../../libdaisy/src/hid/disp/display.h ****     }
 5731              		.loc 3 134 46 view .LVU1384
 5732 0274 3368     		ldr	r3, [r6]
 5733 0276 9B68     		ldr	r3, [r3, #8]
 5734 0278 AB42     		cmp	r3, r5
 5735 027a 40F09080 		bne	.L492
 5736 027e 3F24     		movs	r4, #63
 5737              	.LVL470:
 5738              	.L451:
 134:../../libdaisy/src/hid/disp/display.h ****     }
 5739              		.loc 3 134 46 view .LVU1385
 5740              	.LBE1024:
 5741              	.LBE1023:
  46:OledDisplayExtravaganza.cpp ****     OledDisplay::WriteString("sqr", Font_6x8, on);
 5742              		.loc 6 46 29 view .LVU1386
 5743 0280 2E4B     		ldr	r3, .L493+12
 5744 0282 3046     		mov	r0, r6
 5745 0284 2E49     		ldr	r1, .L493+16
 5746              	.LBB1027:
 5747              	.LBB1025:
 134:../../libdaisy/src/hid/disp/display.h ****     }
 5748              		.loc 3 134 19 view .LVU1387
 5749 0286 F480     		strh	r4, [r6, #6]	@ movhi
 5750              	.LVL471:
 134:../../libdaisy/src/hid/disp/display.h ****     }
 5751              		.loc 3 134 19 view .LVU1388
 5752              	.LBE1025:
 5753              	.LBE1027:
 5754              		.loc 6 46 5 is_stmt 1 view .LVU1389
 5755              		.loc 6 46 29 is_stmt 0 view .LVU1390
 5756 0288 0CCB     		ldm	r3, {r2, r3}
 5757 028a CDF80080 		str	r8, [sp]
 5758 028e FFF7FEFF 		bl	_ZN5daisy25OneBitGraphicsDisplayImplINS_11OledDisplayINS_13SSD130xDriverILj128ELj64ENS_24SSD130
 5759              	.LVL472:
  47:OledDisplayExtravaganza.cpp **** }
 5760              		.loc 6 47 1 view .LVU1391
 5761 0292 05B0     		add	sp, sp, #20
 5762              		.cfi_remember_state
 5763              		.cfi_def_cfa_offset 44
 5764              		@ sp needed
 5765 0294 BDEC028B 		vldm	sp!, {d8}
 5766              		.cfi_restore 80
ARM GAS  C:\Users\VINCIU~1\AppData\Local\Temp\cc6DIkXk.s 			page 145


 5767              		.cfi_restore 81
 5768              		.cfi_def_cfa_offset 36
 5769 0298 BDE8F08F 		pop	{r4, r5, r6, r7, r8, r9, r10, fp, pc}
 5770              	.LVL473:
 5771              	.L412:
 5772              		.cfi_restore_state
 5773              	.LBB1028:
 5774              	.LBB956:
 5775              	.LBB951:
  41:../../libdaisy/src/hid/disp/oled_display.h ****     {
 5776              		.loc 2 41 10 is_stmt 1 view .LVU1392
 5777              	.LBB940:
 239:../../libdaisy/src/dev/oled_ssd130x.h ****     {
 5778              		.loc 4 239 10 view .LVU1393
 5779              	.LBB936:
 241:../../libdaisy/src/dev/oled_ssd130x.h ****             return;
 5780              		.loc 4 241 9 is_stmt 0 view .LVU1394
 5781 029c 3F2D     		cmp	r5, #63
 5782              	.LBE936:
 5783              	.LBE940:
 5784              	.LBE951:
 189:../../libdaisy/src/hid/disp/display.h ****         int_fast16_t signY  = ((y1 < y2) ? 1 : -1);
 5785              		.loc 3 189 42 view .LVU1395
 5786 029e 4FF00109 		mov	r9, #1
 5787              	.LBB952:
 5788              	.LBB941:
 5789              	.LBB937:
 241:../../libdaisy/src/dev/oled_ssd130x.h ****             return;
 5790              		.loc 4 241 9 view .LVU1396
 5791 02a2 3FF6F7AE 		bhi	.L416
 5792 02a6 7F2C     		cmp	r4, #127
 5793 02a8 7FF6E2AE 		bls	.L455
 5794 02ac F2E6     		b	.L416
 5795              	.LVL474:
 5796              	.L444:
 241:../../libdaisy/src/dev/oled_ssd130x.h ****             return;
 5797              		.loc 4 241 9 view .LVU1397
 5798              	.LBE937:
 5799              	.LBE941:
 5800              	.LBE952:
 5801              	.LBE956:
 5802              	.LBE1028:
 5803              	.LBB1029:
 5804              	.LBB1019:
 5805              	.LBB1014:
 5806              	.LBB1013:
 5807              	.LBB1012:
 5808              	.LBB1010:
 5809              	.LBI1010:
 239:../../libdaisy/src/dev/oled_ssd130x.h ****     {
 5810              		.loc 4 239 10 is_stmt 1 view .LVU1398
 5811              	.LBB1011:
 246:../../libdaisy/src/dev/oled_ssd130x.h ****     }
 5812              		.loc 4 246 49 is_stmt 0 view .LVU1399
 5813 02ae 09FA0AFA 		lsl	r10, r9, r10
 246:../../libdaisy/src/dev/oled_ssd130x.h ****     }
 5814              		.loc 4 246 42 view .LVU1400
ARM GAS  C:\Users\VINCIU~1\AppData\Local\Temp\cc6DIkXk.s 			page 146


 5815 02b2 90F81490 		ldrb	r9, [r0, #20]	@ zero_extendqisi2
 5816 02b6 29EA0A09 		bic	r9, r9, r10
 5817 02ba 80F81490 		strb	r9, [r0, #20]
 5818 02be AAE7     		b	.L443
 5819              	.LVL475:
 5820              	.L420:
 246:../../libdaisy/src/dev/oled_ssd130x.h ****     }
 5821              		.loc 4 246 42 view .LVU1401
 5822              	.LBE1011:
 5823              	.LBE1010:
 5824              	.LBE1012:
 5825              	.LBE1013:
 5826              	.LBE1014:
 5827              	.LBE1019:
 5828              	.LBE1029:
 5829              	.LBB1030:
 5830              	.LBB957:
 5831              	.LBB953:
 5832              	.LBB950:
 5833              	.LBB949:
 5834              	.LBB947:
 5835              	.LBI947:
 239:../../libdaisy/src/dev/oled_ssd130x.h ****     {
 5836              		.loc 4 239 10 is_stmt 1 view .LVU1402
 5837              	.LBB948:
 246:../../libdaisy/src/dev/oled_ssd130x.h ****     }
 5838              		.loc 4 246 49 is_stmt 0 view .LVU1403
 5839 02c0 0CFA0AFA 		lsl	r10, ip, r10
 246:../../libdaisy/src/dev/oled_ssd130x.h ****     }
 5840              		.loc 4 246 42 view .LVU1404
 5841 02c4 90F814C0 		ldrb	ip, [r0, #20]	@ zero_extendqisi2
 5842 02c8 2CEA0A0C 		bic	ip, ip, r10
 5843 02cc 80F814C0 		strb	ip, [r0, #20]
 5844 02d0 FAE6     		b	.L419
 5845              	.LVL476:
 5846              	.L432:
 246:../../libdaisy/src/dev/oled_ssd130x.h ****     }
 5847              		.loc 4 246 42 view .LVU1405
 5848              	.LBE948:
 5849              	.LBE947:
 5850              	.LBE949:
 5851              	.LBE950:
 5852              	.LBE953:
 5853              	.LBE957:
 5854              	.LBE1030:
 5855              	.LBB1031:
 5856              	.LBB988:
 5857              	.LBB983:
 5858              	.LBB982:
 5859              	.LBB981:
 5860              	.LBB979:
 5861              	.LBI979:
 239:../../libdaisy/src/dev/oled_ssd130x.h ****     {
 5862              		.loc 4 239 10 is_stmt 1 view .LVU1406
 5863              	.LBB980:
 246:../../libdaisy/src/dev/oled_ssd130x.h ****     }
 5864              		.loc 4 246 49 is_stmt 0 view .LVU1407
ARM GAS  C:\Users\VINCIU~1\AppData\Local\Temp\cc6DIkXk.s 			page 147


 5865 02d2 00FA0BFB 		lsl	fp, r0, fp
 246:../../libdaisy/src/dev/oled_ssd130x.h ****     }
 5866              		.loc 4 246 42 view .LVU1408
 5867 02d6 087D     		ldrb	r0, [r1, #20]	@ zero_extendqisi2
 5868 02d8 20EA0B00 		bic	r0, r0, fp
 5869 02dc 0875     		strb	r0, [r1, #20]
 5870 02de 47E7     		b	.L431
 5871              	.LVL477:
 5872              	.L424:
 246:../../libdaisy/src/dev/oled_ssd130x.h ****     }
 5873              		.loc 4 246 42 view .LVU1409
 5874              	.LBE980:
 5875              	.LBE979:
 5876              	.LBE981:
 5877              	.LBE982:
 5878              	.LBE983:
 5879              	.LBB984:
  41:../../libdaisy/src/hid/disp/oled_display.h ****     {
 5880              		.loc 2 41 10 is_stmt 1 view .LVU1410
 5881              	.LBB972:
 239:../../libdaisy/src/dev/oled_ssd130x.h ****     {
 5882              		.loc 4 239 10 view .LVU1411
 5883              	.LBB968:
 241:../../libdaisy/src/dev/oled_ssd130x.h ****             return;
 5884              		.loc 4 241 9 is_stmt 0 view .LVU1412
 5885 02e0 3F2F     		cmp	r7, #63
 5886              	.LBE968:
 5887              	.LBE972:
 5888              	.LBE984:
 190:../../libdaisy/src/hid/disp/display.h ****         int_fast16_t error  = deltaX - deltaY;
 5889              		.loc 3 190 42 view .LVU1413
 5890 02e2 4FF0010A 		mov	r10, #1
 5891              	.LBB985:
 5892              	.LBB973:
 5893              	.LBB969:
 241:../../libdaisy/src/dev/oled_ssd130x.h ****             return;
 5894              		.loc 4 241 9 view .LVU1414
 5895 02e6 3FF62BAF 		bhi	.L428
 5896 02ea 7F2C     		cmp	r4, #127
 5897 02ec 7FF617AF 		bls	.L454
 5898 02f0 26E7     		b	.L428
 5899              	.LVL478:
 5900              	.L436:
 241:../../libdaisy/src/dev/oled_ssd130x.h ****             return;
 5901              		.loc 4 241 9 view .LVU1415
 5902              	.LBE969:
 5903              	.LBE973:
 5904              	.LBE985:
 5905              	.LBE988:
 5906              	.LBE1031:
 5907              	.LBB1032:
 5908              	.LBB1020:
 5909              	.LBB1015:
  41:../../libdaisy/src/hid/disp/oled_display.h ****     {
 5910              		.loc 2 41 10 is_stmt 1 view .LVU1416
 5911              	.LBB1003:
 239:../../libdaisy/src/dev/oled_ssd130x.h ****     {
ARM GAS  C:\Users\VINCIU~1\AppData\Local\Temp\cc6DIkXk.s 			page 148


 5912              		.loc 4 239 10 view .LVU1417
 5913              	.LBB999:
 241:../../libdaisy/src/dev/oled_ssd130x.h ****             return;
 5914              		.loc 4 241 9 is_stmt 0 view .LVU1418
 5915 02f2 7F2B     		cmp	r3, #127
 5916              	.LBE999:
 5917              	.LBE1003:
 5918              	.LBE1015:
 189:../../libdaisy/src/hid/disp/display.h ****         int_fast16_t signY  = ((y1 < y2) ? 1 : -1);
 5919              		.loc 3 189 42 view .LVU1419
 5920 02f4 4FF0010C 		mov	ip, #1
 5921              	.LBB1016:
 5922              	.LBB1004:
 5923              	.LBB1000:
 241:../../libdaisy/src/dev/oled_ssd130x.h ****             return;
 5924              		.loc 4 241 9 view .LVU1420
 5925 02f8 3FF674AF 		bhi	.L440
 5926 02fc 3F2F     		cmp	r7, #63
 5927 02fe 7FF660AF 		bls	.L453
 5928 0302 6FE7     		b	.L440
 5929              	.LVL479:
 5930              	.L414:
 241:../../libdaisy/src/dev/oled_ssd130x.h ****             return;
 5931              		.loc 4 241 9 view .LVU1421
 5932              	.LBE1000:
 5933              	.LBE1004:
 5934              	.LBE1016:
 5935              	.LBE1020:
 5936              	.LBE1032:
 5937              	.LBB1033:
 5938              	.LBB958:
 5939              	.LBB954:
 5940              	.LBB942:
 5941              	.LBB938:
 5942              	.LBB933:
 5943              	.LBI933:
 239:../../libdaisy/src/dev/oled_ssd130x.h ****     {
 5944              		.loc 4 239 10 is_stmt 1 view .LVU1422
 5945              	.LBB934:
 246:../../libdaisy/src/dev/oled_ssd130x.h ****     }
 5946              		.loc 4 246 49 is_stmt 0 view .LVU1423
 5947 0304 01FA00F0 		lsl	r0, r1, r0
 246:../../libdaisy/src/dev/oled_ssd130x.h ****     }
 5948              		.loc 4 246 42 view .LVU1424
 5949 0308 117D     		ldrb	r1, [r2, #20]	@ zero_extendqisi2
 5950 030a 21EA0001 		bic	r1, r1, r0
 5951 030e 1175     		strb	r1, [r2, #20]
 5952 0310 BDE6     		b	.L413
 5953              	.LVL480:
 5954              	.L438:
 246:../../libdaisy/src/dev/oled_ssd130x.h ****     }
 5955              		.loc 4 246 42 view .LVU1425
 5956              	.LBE934:
 5957              	.LBE933:
 5958              	.LBE938:
 5959              	.LBE942:
 5960              	.LBE954:
ARM GAS  C:\Users\VINCIU~1\AppData\Local\Temp\cc6DIkXk.s 			page 149


 5961              	.LBE958:
 5962              	.LBE1033:
 5963              	.LBB1034:
 5964              	.LBB1021:
 5965              	.LBB1017:
 5966              	.LBB1005:
 5967              	.LBB1001:
 5968              	.LBB996:
 5969              	.LBI996:
 239:../../libdaisy/src/dev/oled_ssd130x.h ****     {
 5970              		.loc 4 239 10 is_stmt 1 view .LVU1426
 5971              	.LBB997:
 246:../../libdaisy/src/dev/oled_ssd130x.h ****     }
 5972              		.loc 4 246 49 is_stmt 0 view .LVU1427
 5973 0312 01FA00F0 		lsl	r0, r1, r0
 246:../../libdaisy/src/dev/oled_ssd130x.h ****     }
 5974              		.loc 4 246 42 view .LVU1428
 5975 0316 117D     		ldrb	r1, [r2, #20]	@ zero_extendqisi2
 5976 0318 21EA0001 		bic	r1, r1, r0
 5977 031c 1175     		strb	r1, [r2, #20]
 5978 031e 5FE7     		b	.L437
 5979              	.LVL481:
 5980              	.L426:
 246:../../libdaisy/src/dev/oled_ssd130x.h ****     }
 5981              		.loc 4 246 42 view .LVU1429
 5982              	.LBE997:
 5983              	.LBE996:
 5984              	.LBE1001:
 5985              	.LBE1005:
 5986              	.LBE1017:
 5987              	.LBE1021:
 5988              	.LBE1034:
 5989              	.LBB1035:
 5990              	.LBB989:
 5991              	.LBB986:
 5992              	.LBB974:
 5993              	.LBB970:
 5994              	.LBB965:
 5995              	.LBI965:
 239:../../libdaisy/src/dev/oled_ssd130x.h ****     {
 5996              		.loc 4 239 10 is_stmt 1 view .LVU1430
 5997              	.LBB966:
 246:../../libdaisy/src/dev/oled_ssd130x.h ****     }
 5998              		.loc 4 246 49 is_stmt 0 view .LVU1431
 5999 0320 02FA01F1 		lsl	r1, r2, r1
 246:../../libdaisy/src/dev/oled_ssd130x.h ****     }
 6000              		.loc 4 246 42 view .LVU1432
 6001 0324 1A7D     		ldrb	r2, [r3, #20]	@ zero_extendqisi2
 6002 0326 22EA0102 		bic	r2, r2, r1
 6003 032a 1A75     		strb	r2, [r3, #20]
 6004 032c 06E7     		b	.L425
 6005              	.L494:
 6006 032e 00BF     		.align	2
 6007              	.L493:
 6008 0330 00000000 		.word	_ZN5daisy25OneBitGraphicsDisplayImplINS_11OledDisplayINS_13SSD130xDriverILj128ELj64ENS_24SSD
 6009 0334 00000000 		.word	_ZNK5daisy11OledDisplayINS_13SSD130xDriverILj128ELj64ENS_24SSD130x4WireSpiTransportEEEE5Widt
 6010 0338 00000000 		.word	_ZNK5daisy11OledDisplayINS_13SSD130xDriverILj128ELj64ENS_24SSD130x4WireSpiTransportEEEE6Heig
ARM GAS  C:\Users\VINCIU~1\AppData\Local\Temp\cc6DIkXk.s 			page 150


 6011 033c 00000000 		.word	Font_6x8
 6012 0340 00000000 		.word	.LC0
 6013              	.LVL482:
 6014              	.L423:
 246:../../libdaisy/src/dev/oled_ssd130x.h ****     }
 6015              		.loc 4 246 42 view .LVU1433
 6016              	.LBE966:
 6017              	.LBE965:
 6018              	.LBE970:
 6019              	.LBE974:
 6020              	.LBE986:
 6021              	.LBE989:
 6022              	.LBE1035:
  43:OledDisplayExtravaganza.cpp ****     DrawLine(xinit + 9, yinit + 7, xinit + 18, yinit + 7, on);
 6023              		.loc 6 43 13 view .LVU1434
 6024 0344 2A46     		mov	r2, r5
 6025 0346 2346     		mov	r3, r4
 6026 0348 2146     		mov	r1, r4
 6027 034a 3046     		mov	r0, r6
 6028 034c CDE90078 		strd	r7, r8, [sp]
 6029 0350 C847     		blx	r9
 6030              	.LVL483:
  44:OledDisplayExtravaganza.cpp ****     OledDisplay::SetCursor(xinit, yinit + 12);
 6031              		.loc 6 44 61 view .LVU1435
 6032 0352 D6F800E0 		ldr	lr, [r6]
 6033 0356 19E7     		b	.L427
 6034              	.LVL484:
 6035              	.L411:
  42:OledDisplayExtravaganza.cpp ****     DrawLine(xinit + 9, yinit - 4, xinit + 9, yinit + 7, on);
 6036              		.loc 6 42 13 view .LVU1436
 6037 0358 17EE903A 		vmov	r3, s15	@ int
 6038 035c 17EE102A 		vmov	r2, s14	@ int
 6039 0360 0399     		ldr	r1, [sp, #12]
 6040 0362 CDE90058 		strd	r5, r8, [sp]
 6041 0366 B847     		blx	r7
 6042              	.LVL485:
  43:OledDisplayExtravaganza.cpp ****     DrawLine(xinit + 9, yinit + 7, xinit + 18, yinit + 7, on);
 6043              		.loc 6 43 60 view .LVU1437
 6044 0368 D6F800E0 		ldr	lr, [r6]
 6045 036c B7E6     		b	.L415
 6046              	.LVL486:
 6047              	.L435:
  44:OledDisplayExtravaganza.cpp ****     OledDisplay::SetCursor(xinit, yinit + 12);
 6048              		.loc 6 44 13 view .LVU1438
 6049 036e 2146     		mov	r1, r4
 6050 0370 3A46     		mov	r2, r7
 6051 0372 3046     		mov	r0, r6
 6052 0374 CDE90078 		strd	r7, r8, [sp]
 6053 0378 A847     		blx	r5
 6054              	.LVL487:
 6055              	.LBB1036:
 6056              	.LBB1026:
 133:../../libdaisy/src/hid/disp/display.h ****         currentY_ = (y >= Height()) ? Height() - 1 : y;
 6057              		.loc 3 133 33 view .LVU1439
 6058 037a D6F800E0 		ldr	lr, [r6]
 6059 037e 55E7     		b	.L439
 6060              	.LVL488:
ARM GAS  C:\Users\VINCIU~1\AppData\Local\Temp\cc6DIkXk.s 			page 151


 6061              	.L491:
 134:../../libdaisy/src/hid/disp/display.h ****     }
 6062              		.loc 3 134 33 view .LVU1440
 6063 0380 3046     		mov	r0, r6
 6064 0382 9847     		blx	r3
 6065              	.LVL489:
 6066 0384 74E7     		b	.L450
 6067              	.LVL490:
 6068              	.L489:
 133:../../libdaisy/src/hid/disp/display.h ****         currentY_ = (y >= Height()) ? Height() - 1 : y;
 6069              		.loc 3 133 32 view .LVU1441
 6070 0386 3046     		mov	r0, r6
 6071 0388 9847     		blx	r3
 6072              	.LVL491:
 133:../../libdaisy/src/hid/disp/display.h ****         currentY_ = (y >= Height()) ? Height() - 1 : y;
 6073              		.loc 3 133 44 view .LVU1442
 6074 038a D6F800E0 		ldr	lr, [r6]
 6075 038e 5FE7     		b	.L447
 6076              	.L490:
 133:../../libdaisy/src/hid/disp/display.h ****         currentY_ = (y >= Height()) ? Height() - 1 : y;
 6077              		.loc 3 133 43 view .LVU1443
 6078 0390 3046     		mov	r0, r6
 6079 0392 9847     		blx	r3
 6080              	.LVL492:
 133:../../libdaisy/src/hid/disp/display.h ****         currentY_ = (y >= Height()) ? Height() - 1 : y;
 6081              		.loc 3 133 19 view .LVU1444
 6082 0394 0138     		subs	r0, r0, #1
 134:../../libdaisy/src/hid/disp/display.h ****     }
 6083              		.loc 3 134 34 view .LVU1445
 6084 0396 D6F800E0 		ldr	lr, [r6]
 133:../../libdaisy/src/hid/disp/display.h ****         currentY_ = (y >= Height()) ? Height() - 1 : y;
 6085              		.loc 3 133 19 view .LVU1446
 6086 039a 85B2     		uxth	r5, r0
 6087              	.LVL493:
 133:../../libdaisy/src/hid/disp/display.h ****         currentY_ = (y >= Height()) ? Height() - 1 : y;
 6088              		.loc 3 133 19 view .LVU1447
 6089 039c 60E7     		b	.L448
 6090              	.L492:
 134:../../libdaisy/src/hid/disp/display.h ****     }
 6091              		.loc 3 134 45 view .LVU1448
 6092 039e 3046     		mov	r0, r6
 6093 03a0 9847     		blx	r3
 6094              	.LVL494:
 134:../../libdaisy/src/hid/disp/display.h ****     }
 6095              		.loc 3 134 19 view .LVU1449
 6096 03a2 0138     		subs	r0, r0, #1
 6097 03a4 84B2     		uxth	r4, r0
 6098              	.LVL495:
 134:../../libdaisy/src/hid/disp/display.h ****     }
 6099              		.loc 3 134 19 view .LVU1450
 6100 03a6 6BE7     		b	.L451
 6101              	.LBE1026:
 6102              	.LBE1036:
 6103              		.cfi_endproc
 6104              	.LFE1818:
 6106              		.section	.rodata._ZN23OledDisplayExtravaganza7drawSawEfffb.str1.4,"aMS",%progbits,1
 6107              		.align	2
ARM GAS  C:\Users\VINCIU~1\AppData\Local\Temp\cc6DIkXk.s 			page 152


 6108              	.LC1:
 6109 0000 73617700 		.ascii	"saw\000"
 6110              		.section	.text._ZN23OledDisplayExtravaganza7drawSawEfffb,"ax",%progbits
 6111              		.align	1
 6112              		.p2align 2,,3
 6113              		.global	_ZN23OledDisplayExtravaganza7drawSawEfffb
 6114              		.syntax unified
 6115              		.thumb
 6116              		.thumb_func
 6117              		.fpu fpv5-d16
 6119              	_ZN23OledDisplayExtravaganza7drawSawEfffb:
 6120              	.LVL496:
 6121              	.LFB1819:
  48:OledDisplayExtravaganza.cpp **** 
  49:OledDisplayExtravaganza.cpp **** void OledDisplayExtravaganza::drawSaw(float xinit,
  50:OledDisplayExtravaganza.cpp ****                                       float yinit,
  51:OledDisplayExtravaganza.cpp ****                                       float points,
  52:OledDisplayExtravaganza.cpp ****                                       bool  on)
  53:OledDisplayExtravaganza.cpp **** {
 6122              		.loc 6 53 1 is_stmt 1 view -0
 6123              		.cfi_startproc
 6124              		@ args = 0, pretend = 0, frame = 8
 6125              		@ frame_needed = 0, uses_anonymous_args = 0
  54:OledDisplayExtravaganza.cpp ****     DrawLine(xinit, yinit + 6, xinit, yinit - 8, on);
 6126              		.loc 6 54 5 view .LVU1452
 6127              		.loc 6 54 27 is_stmt 0 view .LVU1453
 6128 0000 B1EE087A 		vmov.f32	s14, #6.0e+0
 6129              		.loc 6 54 52 view .LVU1454
 6130 0004 0368     		ldr	r3, [r0]
 6131              		.loc 6 54 45 view .LVU1455
 6132 0006 F2EE007A 		vmov.f32	s15, #8.0e+0
 6133              		.loc 6 54 13 view .LVU1456
 6134 000a FCEEC06A 		vcvt.u32.f32	s13, s0
 6135              		.loc 6 54 27 view .LVU1457
 6136 000e 30EE877A 		vadd.f32	s14, s1, s14
 6137              		.loc 6 54 45 view .LVU1458
 6138 0012 70EEE77A 		vsub.f32	s15, s1, s15
  53:OledDisplayExtravaganza.cpp ****     DrawLine(xinit, yinit + 6, xinit, yinit - 8, on);
 6139              		.loc 6 53 1 view .LVU1459
 6140 0016 2DE9F04F 		push	{r4, r5, r6, r7, r8, r9, r10, fp, lr}
 6141              		.cfi_def_cfa_offset 36
 6142              		.cfi_offset 4, -36
 6143              		.cfi_offset 5, -32
 6144              		.cfi_offset 6, -28
 6145              		.cfi_offset 7, -24
 6146              		.cfi_offset 8, -20
 6147              		.cfi_offset 9, -16
 6148              		.cfi_offset 10, -12
 6149              		.cfi_offset 11, -8
 6150              		.cfi_offset 14, -4
 6151 001a 2DED028B 		vpush.64	{d8}
 6152              		.cfi_def_cfa_offset 44
 6153              		.cfi_offset 80, -44
 6154              		.cfi_offset 81, -40
 6155 001e 85B0     		sub	sp, sp, #20
 6156              		.cfi_def_cfa_offset 64
 6157              		.loc 6 54 52 view .LVU1460
ARM GAS  C:\Users\VINCIU~1\AppData\Local\Temp\cc6DIkXk.s 			page 153


 6158 0020 D3F81890 		ldr	r9, [r3, #24]
 6159              		.loc 6 54 13 view .LVU1461
 6160 0024 BCEEC77A 		vcvt.u32.f32	s14, s14
  53:OledDisplayExtravaganza.cpp ****     DrawLine(xinit, yinit + 6, xinit, yinit - 8, on);
 6161              		.loc 6 53 1 view .LVU1462
 6162 0028 0746     		mov	r7, r0
 6163              		.loc 6 54 52 view .LVU1463
 6164 002a 0293     		str	r3, [sp, #8]
 6165              		.loc 6 54 13 view .LVU1464
 6166 002c FCEEE77A 		vcvt.u32.f32	s15, s15
 6167 0030 AF4B     		ldr	r3, .L560
  53:OledDisplayExtravaganza.cpp ****     DrawLine(xinit, yinit + 6, xinit, yinit - 8, on);
 6168              		.loc 6 53 1 view .LVU1465
 6169 0032 B0EE608A 		vmov.f32	s16, s1
 6170 0036 F0EE408A 		vmov.f32	s17, s0
 6171 003a 8846     		mov	r8, r1
 6172 003c 9945     		cmp	r9, r3
 6173              		.loc 6 54 13 view .LVU1466
 6174 003e 16EE905A 		vmov	r5, s13	@ int
 6175 0042 17EE104A 		vmov	r4, s14	@ int
 6176 0046 17EE906A 		vmov	r6, s15	@ int
 6177 004a 40F03081 		bne	.L496
 6178              	.LVL497:
 6179              	.LBB1075:
 6180              	.LBI1075:
 181:../../libdaisy/src/hid/disp/display.h ****                   uint_fast8_t y1,
 6181              		.loc 3 181 10 is_stmt 1 view .LVU1467
 6182              	.LBB1076:
 188:../../libdaisy/src/hid/disp/display.h ****         int_fast16_t signX  = ((x1 < x2) ? 1 : -1);
 6183              		.loc 3 188 52 is_stmt 0 view .LVU1468
 6184 004e A6EB0409 		sub	r9, r6, r4
 188:../../libdaisy/src/hid/disp/display.h ****         int_fast16_t signX  = ((x1 < x2) ? 1 : -1);
 6185              		.loc 3 188 22 view .LVU1469
 6186 0052 B9F1000F 		cmp	r9, #0
 6187 0056 B8BF     		it	lt
 6188 0058 C9F10009 		rsblt	r9, r9, #0
 6189              	.LVL498:
 190:../../libdaisy/src/hid/disp/display.h ****         int_fast16_t error  = deltaX - deltaY;
 6190              		.loc 3 190 42 view .LVU1470
 6191 005c B442     		cmp	r4, r6
 191:../../libdaisy/src/hid/disp/display.h ****         int_fast16_t error2;
 6192              		.loc 3 191 22 view .LVU1471
 6193 005e C9F1000E 		rsb	lr, r9, #0
 190:../../libdaisy/src/hid/disp/display.h ****         int_fast16_t error  = deltaX - deltaY;
 6194              		.loc 3 190 42 view .LVU1472
 6195 0062 C0F0DF80 		bcc	.L497
 6196              	.LVL499:
 6197              	.LBB1077:
 6198              	.LBI1077:
  41:../../libdaisy/src/hid/disp/oled_display.h ****     {
 6199              		.loc 2 41 10 is_stmt 1 view .LVU1473
 6200              	.LBB1078:
 6201              	.LBI1078:
 239:../../libdaisy/src/dev/oled_ssd130x.h ****     {
 6202              		.loc 4 239 10 view .LVU1474
 6203              	.LBB1079:
 241:../../libdaisy/src/dev/oled_ssd130x.h ****             return;
ARM GAS  C:\Users\VINCIU~1\AppData\Local\Temp\cc6DIkXk.s 			page 154


 6204              		.loc 4 241 9 is_stmt 0 view .LVU1475
 6205 0066 7F2D     		cmp	r5, #127
 6206              	.LBE1079:
 6207              	.LBE1078:
 6208              	.LBE1077:
 190:../../libdaisy/src/hid/disp/display.h ****         int_fast16_t error  = deltaX - deltaY;
 6209              		.loc 3 190 42 view .LVU1476
 6210 0068 4FF0FF3A 		mov	r10, #-1
 6211              	.LBB1090:
 6212              	.LBB1086:
 6213              	.LBB1082:
 241:../../libdaisy/src/dev/oled_ssd130x.h ****             return;
 6214              		.loc 4 241 9 view .LVU1477
 6215 006c 10D8     		bhi	.L498
 6216 006e 3F2E     		cmp	r6, #63
 6217 0070 0ED8     		bhi	.L498
 6218              	.LVL500:
 6219              	.L529:
 244:../../libdaisy/src/dev/oled_ssd130x.h ****         else
 6220              		.loc 4 244 28 view .LVU1478
 6221 0072 F308     		lsrs	r3, r6, #3
 244:../../libdaisy/src/dev/oled_ssd130x.h ****         else
 6222              		.loc 4 244 54 view .LVU1479
 6223 0074 06F00701 		and	r1, r6, #7
 6224              	.LVL501:
 244:../../libdaisy/src/dev/oled_ssd130x.h ****         else
 6225              		.loc 4 244 48 view .LVU1480
 6226 0078 0122     		movs	r2, #1
 244:../../libdaisy/src/dev/oled_ssd130x.h ****         else
 6227              		.loc 4 244 42 view .LVU1481
 6228 007a 05EBC313 		add	r3, r5, r3, lsl #7
 6229 007e 3B44     		add	r3, r3, r7
 243:../../libdaisy/src/dev/oled_ssd130x.h ****             buffer_[x + (y / 8) * width] |= (1 << (y % 8));
 6230              		.loc 4 243 9 view .LVU1482
 6231 0080 B8F1000F 		cmp	r8, #0
 6232 0084 00F00281 		beq	.L499
 244:../../libdaisy/src/dev/oled_ssd130x.h ****         else
 6233              		.loc 4 244 48 view .LVU1483
 6234 0088 8A40     		lsls	r2, r2, r1
 244:../../libdaisy/src/dev/oled_ssd130x.h ****         else
 6235              		.loc 4 244 42 view .LVU1484
 6236 008a 197D     		ldrb	r1, [r3, #20]	@ zero_extendqisi2
 6237 008c 0A43     		orrs	r2, r2, r1
 6238 008e 1A75     		strb	r2, [r3, #20]
 6239              	.L498:
 6240              	.LVL502:
 244:../../libdaisy/src/dev/oled_ssd130x.h ****         else
 6241              		.loc 4 244 42 view .LVU1485
 6242              	.LBE1082:
 6243              	.LBE1086:
 6244              	.LBE1090:
 199:../../libdaisy/src/hid/disp/display.h ****         {
 6245              		.loc 3 199 26 is_stmt 1 view .LVU1486
 6246 0090 B442     		cmp	r4, r6
 6247 0092 26D0     		beq	.L500
 6248              	.L501:
 6249              	.LVL503:
ARM GAS  C:\Users\VINCIU~1\AppData\Local\Temp\cc6DIkXk.s 			page 155


 190:../../libdaisy/src/hid/disp/display.h ****         int_fast16_t error  = deltaX - deltaY;
 6250              		.loc 3 190 42 is_stmt 0 view .LVU1487
 6251 0094 F446     		mov	ip, lr
 6252              	.LBE1076:
 6253              	.LBE1075:
 6254              		.loc 6 54 13 view .LVU1488
 6255 0096 2346     		mov	r3, r4
 6256 0098 2A46     		mov	r2, r5
 6257              	.LVL504:
 6258              	.L503:
 6259              	.LBB1106:
 6260              	.LBB1102:
 6261              	.LBB1091:
 6262              	.LBI1091:
  41:../../libdaisy/src/hid/disp/oled_display.h ****     {
 6263              		.loc 2 41 10 is_stmt 1 view .LVU1489
 6264              	.LBB1092:
 6265              	.LBI1092:
 239:../../libdaisy/src/dev/oled_ssd130x.h ****     {
 6266              		.loc 4 239 10 view .LVU1490
 6267              	.LBB1093:
 241:../../libdaisy/src/dev/oled_ssd130x.h ****             return;
 6268              		.loc 4 241 9 is_stmt 0 view .LVU1491
 6269 009a 7F2A     		cmp	r2, #127
 6270 009c 13D8     		bhi	.L504
 6271 009e 3F2B     		cmp	r3, #63
 6272 00a0 11D8     		bhi	.L504
 244:../../libdaisy/src/dev/oled_ssd130x.h ****         else
 6273              		.loc 4 244 28 view .LVU1492
 6274 00a2 D908     		lsrs	r1, r3, #3
 244:../../libdaisy/src/dev/oled_ssd130x.h ****         else
 6275              		.loc 4 244 54 view .LVU1493
 6276 00a4 03F0070B 		and	fp, r3, #7
 244:../../libdaisy/src/dev/oled_ssd130x.h ****         else
 6277              		.loc 4 244 48 view .LVU1494
 6278 00a8 0120     		movs	r0, #1
 244:../../libdaisy/src/dev/oled_ssd130x.h ****         else
 6279              		.loc 4 244 42 view .LVU1495
 6280 00aa 02EBC111 		add	r1, r2, r1, lsl #7
 6281 00ae 3944     		add	r1, r1, r7
 243:../../libdaisy/src/dev/oled_ssd130x.h ****             buffer_[x + (y / 8) * width] |= (1 << (y % 8));
 6282              		.loc 4 243 9 view .LVU1496
 6283 00b0 B8F1000F 		cmp	r8, #0
 6284 00b4 00F0BF80 		beq	.L505
 244:../../libdaisy/src/dev/oled_ssd130x.h ****         else
 6285              		.loc 4 244 48 view .LVU1497
 6286 00b8 00FA0BF0 		lsl	r0, r0, fp
 244:../../libdaisy/src/dev/oled_ssd130x.h ****         else
 6287              		.loc 4 244 42 view .LVU1498
 6288 00bc 91F814B0 		ldrb	fp, [r1, #20]	@ zero_extendqisi2
 6289 00c0 40EA0B00 		orr	r0, r0, fp
 6290 00c4 0875     		strb	r0, [r1, #20]
 6291              	.L504:
 6292              	.LVL505:
 244:../../libdaisy/src/dev/oled_ssd130x.h ****         else
 6293              		.loc 4 244 42 view .LVU1499
 6294              	.LBE1093:
ARM GAS  C:\Users\VINCIU~1\AppData\Local\Temp\cc6DIkXk.s 			page 156


 6295              	.LBE1092:
 6296              	.LBE1091:
 203:../../libdaisy/src/hid/disp/display.h ****             {
 6297              		.loc 3 203 13 view .LVU1500
 6298 00c6 BEEB4C0F 		cmp	lr, ip, lsl #1
 202:../../libdaisy/src/hid/disp/display.h ****             if(error2 > -deltaY)
 6299              		.loc 3 202 20 view .LVU1501
 6300 00ca 4FEA4C01 		lsl	r1, ip, #1
 6301              	.LVL506:
 203:../../libdaisy/src/hid/disp/display.h ****             {
 6302              		.loc 3 203 13 view .LVU1502
 6303 00ce 02DA     		bge	.L506
 205:../../libdaisy/src/hid/disp/display.h ****                 x1 += signX;
 6304              		.loc 3 205 23 view .LVU1503
 6305 00d0 ACEB090C 		sub	ip, ip, r9
 6306              	.LVL507:
 206:../../libdaisy/src/hid/disp/display.h ****             }
 6307              		.loc 3 206 20 view .LVU1504
 6308 00d4 013A     		subs	r2, r2, #1
 6309              	.LVL508:
 6310              	.L506:
 209:../../libdaisy/src/hid/disp/display.h ****             {
 6311              		.loc 3 209 13 view .LVU1505
 6312 00d6 01B1     		cbz	r1, .L507
 212:../../libdaisy/src/hid/disp/display.h ****             }
 6313              		.loc 3 212 20 view .LVU1506
 6314 00d8 5344     		add	r3, r3, r10
 6315              	.LVL509:
 6316              	.L507:
 199:../../libdaisy/src/hid/disp/display.h ****         {
 6317              		.loc 3 199 26 is_stmt 1 view .LVU1507
 6318 00da 9542     		cmp	r5, r2
 6319 00dc DDD1     		bne	.L503
 199:../../libdaisy/src/hid/disp/display.h ****         {
 6320              		.loc 3 199 26 is_stmt 0 view .LVU1508
 6321 00de 9E42     		cmp	r6, r3
 6322 00e0 DBD1     		bne	.L503
 6323              	.LVL510:
 6324              	.L500:
 199:../../libdaisy/src/hid/disp/display.h ****         {
 6325              		.loc 3 199 26 view .LVU1509
 6326              	.LBE1102:
 6327              	.LBE1106:
  55:OledDisplayExtravaganza.cpp ****     DrawLine(xinit + 18, yinit + 6, xinit, yinit - 8, on);
 6328              		.loc 6 55 5 is_stmt 1 view .LVU1510
 6329              		.loc 6 55 20 is_stmt 0 view .LVU1511
 6330 00e2 F3EE027A 		vmov.f32	s15, #1.8e+1
 6331              		.loc 6 55 57 view .LVU1512
 6332 00e6 029B     		ldr	r3, [sp, #8]
 6333 00e8 D3F81890 		ldr	r9, [r3, #24]
 6334              		.loc 6 55 20 view .LVU1513
 6335 00ec 38EEA70A 		vadd.f32	s0, s17, s15
 6336 00f0 7F4B     		ldr	r3, .L560
 6337 00f2 9945     		cmp	r9, r3
 6338              		.loc 6 55 13 view .LVU1514
 6339 00f4 FCEEC07A 		vcvt.u32.f32	s15, s0
 6340 00f8 17EE901A 		vmov	r1, s15	@ int
ARM GAS  C:\Users\VINCIU~1\AppData\Local\Temp\cc6DIkXk.s 			page 157


 6341 00fc 40F0CD80 		bne	.L508
 6342              	.LVL511:
 6343              	.LBB1107:
 6344              	.LBI1107:
 181:../../libdaisy/src/hid/disp/display.h ****                   uint_fast8_t y1,
 6345              		.loc 3 181 10 is_stmt 1 view .LVU1515
 6346              	.LBB1108:
 187:../../libdaisy/src/hid/disp/display.h ****         int_fast16_t deltaY = abs((int_fast16_t)y2 - (int_fast16_t)y1);
 6347              		.loc 3 187 52 is_stmt 0 view .LVU1516
 6348 0100 681A     		subs	r0, r5, r1
 188:../../libdaisy/src/hid/disp/display.h ****         int_fast16_t signX  = ((x1 < x2) ? 1 : -1);
 6349              		.loc 3 188 52 view .LVU1517
 6350 0102 A6EB0409 		sub	r9, r6, r4
 187:../../libdaisy/src/hid/disp/display.h ****         int_fast16_t deltaY = abs((int_fast16_t)y2 - (int_fast16_t)y1);
 6351              		.loc 3 187 22 view .LVU1518
 6352 0106 0028     		cmp	r0, #0
 6353 0108 B8BF     		it	lt
 6354 010a 4042     		rsblt	r0, r0, #0
 6355              	.LVL512:
 188:../../libdaisy/src/hid/disp/display.h ****         int_fast16_t signX  = ((x1 < x2) ? 1 : -1);
 6356              		.loc 3 188 22 view .LVU1519
 6357 010c B9F1000F 		cmp	r9, #0
 6358 0110 B8BF     		it	lt
 6359 0112 C9F10009 		rsblt	r9, r9, #0
 6360              	.LVL513:
 189:../../libdaisy/src/hid/disp/display.h ****         int_fast16_t signY  = ((y1 < y2) ? 1 : -1);
 6361              		.loc 3 189 42 view .LVU1520
 6362 0116 8D42     		cmp	r5, r1
 6363 0118 8CBF     		ite	hi
 6364 011a 4FF0010A 		movhi	r10, #1
 6365 011e 4FF0FF3A 		movls	r10, #-1
 6366              	.LVL514:
 190:../../libdaisy/src/hid/disp/display.h ****         int_fast16_t error  = deltaX - deltaY;
 6367              		.loc 3 190 42 view .LVU1521
 6368 0122 B442     		cmp	r4, r6
 191:../../libdaisy/src/hid/disp/display.h ****         int_fast16_t error2;
 6369              		.loc 3 191 22 view .LVU1522
 6370 0124 A0EB0903 		sub	r3, r0, r9
 190:../../libdaisy/src/hid/disp/display.h ****         int_fast16_t error  = deltaX - deltaY;
 6371              		.loc 3 190 42 view .LVU1523
 6372 0128 C0F09580 		bcc	.L510
 6373              	.LVL515:
 6374              	.LBB1109:
 6375              	.LBI1109:
  41:../../libdaisy/src/hid/disp/oled_display.h ****     {
 6376              		.loc 2 41 10 is_stmt 1 view .LVU1524
 6377              	.LBB1110:
 6378              	.LBI1110:
 239:../../libdaisy/src/dev/oled_ssd130x.h ****     {
 6379              		.loc 4 239 10 view .LVU1525
 6380              	.LBE1110:
 6381              	.LBE1109:
 190:../../libdaisy/src/hid/disp/display.h ****         int_fast16_t error  = deltaX - deltaY;
 6382              		.loc 3 190 42 is_stmt 0 view .LVU1526
 6383 012c 4FF0FF32 		mov	r2, #-1
 6384              	.LBB1122:
 6385              	.LBB1117:
ARM GAS  C:\Users\VINCIU~1\AppData\Local\Temp\cc6DIkXk.s 			page 158


 6386              	.LBB1111:
 241:../../libdaisy/src/dev/oled_ssd130x.h ****             return;
 6387              		.loc 4 241 9 view .LVU1527
 6388 0130 7F2D     		cmp	r5, #127
 6389              	.LBE1111:
 6390              	.LBE1117:
 6391              	.LBE1122:
 190:../../libdaisy/src/hid/disp/display.h ****         int_fast16_t error  = deltaX - deltaY;
 6392              		.loc 3 190 42 view .LVU1528
 6393 0132 0392     		str	r2, [sp, #12]
 6394              	.LBB1123:
 6395              	.LBB1118:
 6396              	.LBB1114:
 241:../../libdaisy/src/dev/oled_ssd130x.h ****             return;
 6397              		.loc 4 241 9 view .LVU1529
 6398 0134 15D8     		bhi	.L511
 6399 0136 3F2E     		cmp	r6, #63
 6400 0138 13D8     		bhi	.L511
 244:../../libdaisy/src/dev/oled_ssd130x.h ****         else
 6401              		.loc 4 244 28 view .LVU1530
 6402 013a F208     		lsrs	r2, r6, #3
 244:../../libdaisy/src/dev/oled_ssd130x.h ****         else
 6403              		.loc 4 244 42 view .LVU1531
 6404 013c 05EBC212 		add	r2, r5, r2, lsl #7
 6405 0140 3A44     		add	r2, r2, r7
 243:../../libdaisy/src/dev/oled_ssd130x.h ****             buffer_[x + (y / 8) * width] |= (1 << (y % 8));
 6406              		.loc 4 243 9 view .LVU1532
 6407 0142 B8F1000F 		cmp	r8, #0
 6408 0146 00F09480 		beq	.L512
 6409              	.LVL516:
 6410              	.L559:
 244:../../libdaisy/src/dev/oled_ssd130x.h ****         else
 6411              		.loc 4 244 48 view .LVU1533
 6412 014a 4FF0010E 		mov	lr, #1
 244:../../libdaisy/src/dev/oled_ssd130x.h ****         else
 6413              		.loc 4 244 54 view .LVU1534
 6414 014e 06F0070C 		and	ip, r6, #7
 244:../../libdaisy/src/dev/oled_ssd130x.h ****         else
 6415              		.loc 4 244 48 view .LVU1535
 6416 0152 0EFA0CFC 		lsl	ip, lr, ip
 244:../../libdaisy/src/dev/oled_ssd130x.h ****         else
 6417              		.loc 4 244 42 view .LVU1536
 6418 0156 92F814E0 		ldrb	lr, [r2, #20]	@ zero_extendqisi2
 6419 015a 4CEA0E0C 		orr	ip, ip, lr
 6420 015e 82F814C0 		strb	ip, [r2, #20]
 6421              	.L511:
 6422              	.LVL517:
 244:../../libdaisy/src/dev/oled_ssd130x.h ****         else
 6423              		.loc 4 244 42 view .LVU1537
 6424              	.LBE1114:
 6425              	.LBE1118:
 6426              	.LBE1123:
 199:../../libdaisy/src/hid/disp/display.h ****         {
 6427              		.loc 3 199 26 is_stmt 1 view .LVU1538
 6428 0162 8D42     		cmp	r5, r1
 6429 0164 01D1     		bne	.L515
 6430 0166 B442     		cmp	r4, r6
ARM GAS  C:\Users\VINCIU~1\AppData\Local\Temp\cc6DIkXk.s 			page 159


 6431 0168 29D0     		beq	.L513
 6432              	.L515:
 6433              	.LVL518:
 199:../../libdaisy/src/hid/disp/display.h ****         {
 6434              		.loc 3 199 26 is_stmt 0 view .LVU1539
 6435              	.LBE1108:
 6436              	.LBE1107:
 6437              	.LBB1137:
 6438              	.LBB1103:
 191:../../libdaisy/src/hid/disp/display.h ****         int_fast16_t error2;
 6439              		.loc 3 191 22 view .LVU1540
 6440 016a C9F1000E 		rsb	lr, r9, #0
 6441              	.L517:
 6442              	.LVL519:
 191:../../libdaisy/src/hid/disp/display.h ****         int_fast16_t error2;
 6443              		.loc 3 191 22 view .LVU1541
 6444              	.LBE1103:
 6445              	.LBE1137:
 6446              	.LBB1138:
 6447              	.LBB1135:
 6448              	.LBB1124:
 6449              	.LBI1124:
  41:../../libdaisy/src/hid/disp/oled_display.h ****     {
 6450              		.loc 2 41 10 is_stmt 1 view .LVU1542
 6451              	.LBB1125:
 6452              	.LBI1125:
 239:../../libdaisy/src/dev/oled_ssd130x.h ****     {
 6453              		.loc 4 239 10 view .LVU1543
 6454              	.LBB1126:
 241:../../libdaisy/src/dev/oled_ssd130x.h ****             return;
 6455              		.loc 4 241 9 is_stmt 0 view .LVU1544
 6456 016e 7F29     		cmp	r1, #127
 6457 0170 14D8     		bhi	.L518
 6458 0172 3F2C     		cmp	r4, #63
 6459 0174 12D8     		bhi	.L518
 244:../../libdaisy/src/dev/oled_ssd130x.h ****         else
 6460              		.loc 4 244 28 view .LVU1545
 6461 0176 E208     		lsrs	r2, r4, #3
 244:../../libdaisy/src/dev/oled_ssd130x.h ****         else
 6462              		.loc 4 244 54 view .LVU1546
 6463 0178 04F0070B 		and	fp, r4, #7
 244:../../libdaisy/src/dev/oled_ssd130x.h ****         else
 6464              		.loc 4 244 48 view .LVU1547
 6465 017c 4FF0010C 		mov	ip, #1
 244:../../libdaisy/src/dev/oled_ssd130x.h ****         else
 6466              		.loc 4 244 42 view .LVU1548
 6467 0180 01EBC212 		add	r2, r1, r2, lsl #7
 6468 0184 3A44     		add	r2, r2, r7
 243:../../libdaisy/src/dev/oled_ssd130x.h ****             buffer_[x + (y / 8) * width] |= (1 << (y % 8));
 6469              		.loc 4 243 9 view .LVU1549
 6470 0186 B8F1000F 		cmp	r8, #0
 6471 018a 5BD0     		beq	.L519
 244:../../libdaisy/src/dev/oled_ssd130x.h ****         else
 6472              		.loc 4 244 48 view .LVU1550
 6473 018c 0CFA0BFC 		lsl	ip, ip, fp
 244:../../libdaisy/src/dev/oled_ssd130x.h ****         else
 6474              		.loc 4 244 42 view .LVU1551
ARM GAS  C:\Users\VINCIU~1\AppData\Local\Temp\cc6DIkXk.s 			page 160


 6475 0190 92F814B0 		ldrb	fp, [r2, #20]	@ zero_extendqisi2
 6476 0194 4CEA0B0C 		orr	ip, ip, fp
 6477 0198 82F814C0 		strb	ip, [r2, #20]
 6478              	.L518:
 6479              	.LVL520:
 244:../../libdaisy/src/dev/oled_ssd130x.h ****         else
 6480              		.loc 4 244 42 view .LVU1552
 6481              	.LBE1126:
 6482              	.LBE1125:
 6483              	.LBE1124:
 203:../../libdaisy/src/hid/disp/display.h ****             {
 6484              		.loc 3 203 13 view .LVU1553
 6485 019c BEEB430F 		cmp	lr, r3, lsl #1
 202:../../libdaisy/src/hid/disp/display.h ****             if(error2 > -deltaY)
 6486              		.loc 3 202 20 view .LVU1554
 6487 01a0 4FEA4302 		lsl	r2, r3, #1
 6488              	.LVL521:
 203:../../libdaisy/src/hid/disp/display.h ****             {
 6489              		.loc 3 203 13 view .LVU1555
 6490 01a4 02DA     		bge	.L520
 205:../../libdaisy/src/hid/disp/display.h ****                 x1 += signX;
 6491              		.loc 3 205 23 view .LVU1556
 6492 01a6 A3EB0903 		sub	r3, r3, r9
 6493              	.LVL522:
 206:../../libdaisy/src/hid/disp/display.h ****             }
 6494              		.loc 3 206 20 view .LVU1557
 6495 01aa 5144     		add	r1, r1, r10
 6496              	.LVL523:
 6497              	.L520:
 209:../../libdaisy/src/hid/disp/display.h ****             {
 6498              		.loc 3 209 13 view .LVU1558
 6499 01ac 9042     		cmp	r0, r2
 6500 01ae 02DD     		ble	.L521
 212:../../libdaisy/src/hid/disp/display.h ****             }
 6501              		.loc 3 212 20 view .LVU1559
 6502 01b0 039A     		ldr	r2, [sp, #12]
 6503              	.LVL524:
 211:../../libdaisy/src/hid/disp/display.h ****                 y1 += signY;
 6504              		.loc 3 211 23 view .LVU1560
 6505 01b2 0344     		add	r3, r3, r0
 6506              	.LVL525:
 212:../../libdaisy/src/hid/disp/display.h ****             }
 6507              		.loc 3 212 20 view .LVU1561
 6508 01b4 1444     		add	r4, r4, r2
 6509              	.LVL526:
 6510              	.L521:
 199:../../libdaisy/src/hid/disp/display.h ****         {
 6511              		.loc 3 199 26 is_stmt 1 view .LVU1562
 6512 01b6 8D42     		cmp	r5, r1
 6513 01b8 D9D1     		bne	.L517
 199:../../libdaisy/src/hid/disp/display.h ****         {
 6514              		.loc 3 199 26 is_stmt 0 view .LVU1563
 6515 01ba A642     		cmp	r6, r4
 6516 01bc D7D1     		bne	.L517
 6517              	.LVL527:
 6518              	.L513:
 199:../../libdaisy/src/hid/disp/display.h ****         {
ARM GAS  C:\Users\VINCIU~1\AppData\Local\Temp\cc6DIkXk.s 			page 161


 6519              		.loc 3 199 26 view .LVU1564
 6520              	.LBE1135:
 6521              	.LBE1138:
  56:OledDisplayExtravaganza.cpp ****     OledDisplay::SetCursor(xinit, yinit + 12);
 6522              		.loc 6 56 5 is_stmt 1 view .LVU1565
 6523              		.loc 6 56 41 is_stmt 0 view .LVU1566
 6524 01be F2EE080A 		vmov.f32	s1, #1.2e+1
 6525 01c2 4C4E     		ldr	r6, .L560+4
 6526              		.loc 6 56 27 view .LVU1567
 6527 01c4 ADB2     		uxth	r5, r5
 6528              		.loc 6 56 41 view .LVU1568
 6529 01c6 38EE208A 		vadd.f32	s16, s16, s1
 6530              	.LVL528:
 6531              		.loc 6 56 27 view .LVU1569
 6532 01ca BCEEC88A 		vcvt.u32.f32	s16, s16
 6533 01ce 18EE103A 		vmov	r3, s16	@ int
 6534 01d2 9CB2     		uxth	r4, r3
 6535              	.LVL529:
 6536              	.LBB1139:
 6537              	.LBI1139:
 131:../../libdaisy/src/hid/disp/display.h ****     {
 6538              		.loc 3 131 10 is_stmt 1 view .LVU1570
 6539              	.LBB1140:
 133:../../libdaisy/src/hid/disp/display.h ****         currentY_ = (y >= Height()) ? Height() - 1 : y;
 6540              		.loc 3 133 9 view .LVU1571
 133:../../libdaisy/src/hid/disp/display.h ****         currentY_ = (y >= Height()) ? Height() - 1 : y;
 6541              		.loc 3 133 33 is_stmt 0 view .LVU1572
 6542 01d4 029B     		ldr	r3, [sp, #8]
 6543 01d6 DB68     		ldr	r3, [r3, #12]
 6544 01d8 B342     		cmp	r3, r6
 6545 01da 77D1     		bne	.L555
 6546 01dc 8020     		movs	r0, #128
 6547              	.L522:
 133:../../libdaisy/src/hid/disp/display.h ****         currentY_ = (y >= Height()) ? Height() - 1 : y;
 6548              		.loc 3 133 19 view .LVU1573
 6549 01de 8542     		cmp	r5, r0
 6550 01e0 04D3     		bcc	.L523
 133:../../libdaisy/src/hid/disp/display.h ****         currentY_ = (y >= Height()) ? Height() - 1 : y;
 6551              		.loc 3 133 44 view .LVU1574
 6552 01e2 029B     		ldr	r3, [sp, #8]
 6553 01e4 DB68     		ldr	r3, [r3, #12]
 6554 01e6 B342     		cmp	r3, r6
 6555 01e8 75D1     		bne	.L556
 6556 01ea 7F25     		movs	r5, #127
 6557              	.LVL530:
 6558              	.L523:
 134:../../libdaisy/src/hid/disp/display.h ****     }
 6559              		.loc 3 134 34 view .LVU1575
 6560 01ec 029B     		ldr	r3, [sp, #8]
 6561 01ee 9B68     		ldr	r3, [r3, #8]
 133:../../libdaisy/src/hid/disp/display.h ****         currentY_ = (y >= Height()) ? Height() - 1 : y;
 6562              		.loc 3 133 19 view .LVU1576
 6563 01f0 BD80     		strh	r5, [r7, #4]	@ movhi
 134:../../libdaisy/src/hid/disp/display.h ****     }
 6564              		.loc 3 134 9 is_stmt 1 view .LVU1577
 6565 01f2 414D     		ldr	r5, .L560+8
 6566 01f4 AB42     		cmp	r3, r5
ARM GAS  C:\Users\VINCIU~1\AppData\Local\Temp\cc6DIkXk.s 			page 162


 6567 01f6 66D1     		bne	.L557
 134:../../libdaisy/src/hid/disp/display.h ****     }
 6568              		.loc 3 134 34 is_stmt 0 view .LVU1578
 6569 01f8 4020     		movs	r0, #64
 6570              	.L525:
 134:../../libdaisy/src/hid/disp/display.h ****     }
 6571              		.loc 3 134 19 view .LVU1579
 6572 01fa 8442     		cmp	r4, r0
 6573 01fc 04D3     		bcc	.L526
 134:../../libdaisy/src/hid/disp/display.h ****     }
 6574              		.loc 3 134 46 view .LVU1580
 6575 01fe 3B68     		ldr	r3, [r7]
 6576 0200 9B68     		ldr	r3, [r3, #8]
 6577 0202 AB42     		cmp	r3, r5
 6578 0204 6ED1     		bne	.L558
 6579 0206 3F24     		movs	r4, #63
 6580              	.LVL531:
 6581              	.L526:
 134:../../libdaisy/src/hid/disp/display.h ****     }
 6582              		.loc 3 134 46 view .LVU1581
 6583              	.LBE1140:
 6584              	.LBE1139:
  57:OledDisplayExtravaganza.cpp ****     OledDisplay::WriteString("saw", Font_6x8, on);
 6585              		.loc 6 57 29 view .LVU1582
 6586 0208 3C4B     		ldr	r3, .L560+12
 6587 020a 3846     		mov	r0, r7
 6588 020c 3C49     		ldr	r1, .L560+16
 6589              	.LBB1144:
 6590              	.LBB1141:
 134:../../libdaisy/src/hid/disp/display.h ****     }
 6591              		.loc 3 134 19 view .LVU1583
 6592 020e FC80     		strh	r4, [r7, #6]	@ movhi
 6593              	.LVL532:
 134:../../libdaisy/src/hid/disp/display.h ****     }
 6594              		.loc 3 134 19 view .LVU1584
 6595              	.LBE1141:
 6596              	.LBE1144:
 6597              		.loc 6 57 5 is_stmt 1 view .LVU1585
 6598              		.loc 6 57 29 is_stmt 0 view .LVU1586
 6599 0210 0CCB     		ldm	r3, {r2, r3}
 6600 0212 CDF80080 		str	r8, [sp]
 6601 0216 FFF7FEFF 		bl	_ZN5daisy25OneBitGraphicsDisplayImplINS_11OledDisplayINS_13SSD130xDriverILj128ELj64ENS_24SSD130
 6602              	.LVL533:
  58:OledDisplayExtravaganza.cpp **** }
 6603              		.loc 6 58 1 view .LVU1587
 6604 021a 05B0     		add	sp, sp, #20
 6605              		.cfi_remember_state
 6606              		.cfi_def_cfa_offset 44
 6607              		@ sp needed
 6608 021c BDEC028B 		vldm	sp!, {d8}
 6609              		.cfi_restore 80
 6610              		.cfi_restore 81
 6611              		.cfi_def_cfa_offset 36
 6612 0220 BDE8F08F 		pop	{r4, r5, r6, r7, r8, r9, r10, fp, pc}
 6613              	.LVL534:
 6614              	.L497:
 6615              		.cfi_restore_state
ARM GAS  C:\Users\VINCIU~1\AppData\Local\Temp\cc6DIkXk.s 			page 163


 6616              	.LBB1145:
 6617              	.LBB1104:
 6618              	.LBB1098:
  41:../../libdaisy/src/hid/disp/oled_display.h ****     {
 6619              		.loc 2 41 10 is_stmt 1 view .LVU1588
 6620              	.LBB1087:
 239:../../libdaisy/src/dev/oled_ssd130x.h ****     {
 6621              		.loc 4 239 10 view .LVU1589
 6622              	.LBB1083:
 241:../../libdaisy/src/dev/oled_ssd130x.h ****             return;
 6623              		.loc 4 241 9 is_stmt 0 view .LVU1590
 6624 0224 3F2E     		cmp	r6, #63
 6625              	.LBE1083:
 6626              	.LBE1087:
 6627              	.LBE1098:
 190:../../libdaisy/src/hid/disp/display.h ****         int_fast16_t error  = deltaX - deltaY;
 6628              		.loc 3 190 42 view .LVU1591
 6629 0226 4FF0010A 		mov	r10, #1
 6630              	.LBB1099:
 6631              	.LBB1088:
 6632              	.LBB1084:
 241:../../libdaisy/src/dev/oled_ssd130x.h ****             return;
 6633              		.loc 4 241 9 view .LVU1592
 6634 022a 3FF633AF 		bhi	.L501
 6635 022e 7F2D     		cmp	r5, #127
 6636 0230 7FF61FAF 		bls	.L529
 6637 0234 2EE7     		b	.L501
 6638              	.LVL535:
 6639              	.L505:
 241:../../libdaisy/src/dev/oled_ssd130x.h ****             return;
 6640              		.loc 4 241 9 view .LVU1593
 6641              	.LBE1084:
 6642              	.LBE1088:
 6643              	.LBE1099:
 6644              	.LBB1100:
 6645              	.LBB1097:
 6646              	.LBB1096:
 6647              	.LBB1094:
 6648              	.LBI1094:
 239:../../libdaisy/src/dev/oled_ssd130x.h ****     {
 6649              		.loc 4 239 10 is_stmt 1 view .LVU1594
 6650              	.LBB1095:
 246:../../libdaisy/src/dev/oled_ssd130x.h ****     }
 6651              		.loc 4 246 49 is_stmt 0 view .LVU1595
 6652 0236 00FA0BFB 		lsl	fp, r0, fp
 246:../../libdaisy/src/dev/oled_ssd130x.h ****     }
 6653              		.loc 4 246 42 view .LVU1596
 6654 023a 087D     		ldrb	r0, [r1, #20]	@ zero_extendqisi2
 6655 023c 20EA0B00 		bic	r0, r0, fp
 6656 0240 0875     		strb	r0, [r1, #20]
 6657 0242 40E7     		b	.L504
 6658              	.LVL536:
 6659              	.L519:
 246:../../libdaisy/src/dev/oled_ssd130x.h ****     }
 6660              		.loc 4 246 42 view .LVU1597
 6661              	.LBE1095:
 6662              	.LBE1094:
ARM GAS  C:\Users\VINCIU~1\AppData\Local\Temp\cc6DIkXk.s 			page 164


 6663              	.LBE1096:
 6664              	.LBE1097:
 6665              	.LBE1100:
 6666              	.LBE1104:
 6667              	.LBE1145:
 6668              	.LBB1146:
 6669              	.LBB1136:
 6670              	.LBB1131:
 6671              	.LBB1130:
 6672              	.LBB1129:
 6673              	.LBB1127:
 6674              	.LBI1127:
 239:../../libdaisy/src/dev/oled_ssd130x.h ****     {
 6675              		.loc 4 239 10 is_stmt 1 view .LVU1598
 6676              	.LBB1128:
 246:../../libdaisy/src/dev/oled_ssd130x.h ****     }
 6677              		.loc 4 246 49 is_stmt 0 view .LVU1599
 6678 0244 0CFA0BFB 		lsl	fp, ip, fp
 246:../../libdaisy/src/dev/oled_ssd130x.h ****     }
 6679              		.loc 4 246 42 view .LVU1600
 6680 0248 92F814C0 		ldrb	ip, [r2, #20]	@ zero_extendqisi2
 6681 024c 2CEA0B0C 		bic	ip, ip, fp
 6682 0250 82F814C0 		strb	ip, [r2, #20]
 6683 0254 A2E7     		b	.L518
 6684              	.LVL537:
 6685              	.L510:
 246:../../libdaisy/src/dev/oled_ssd130x.h ****     }
 6686              		.loc 4 246 42 view .LVU1601
 6687              	.LBE1128:
 6688              	.LBE1127:
 6689              	.LBE1129:
 6690              	.LBE1130:
 6691              	.LBE1131:
 6692              	.LBB1132:
  41:../../libdaisy/src/hid/disp/oled_display.h ****     {
 6693              		.loc 2 41 10 is_stmt 1 view .LVU1602
 6694              	.LBB1119:
 239:../../libdaisy/src/dev/oled_ssd130x.h ****     {
 6695              		.loc 4 239 10 view .LVU1603
 6696              	.LBE1119:
 6697              	.LBE1132:
 190:../../libdaisy/src/hid/disp/display.h ****         int_fast16_t error  = deltaX - deltaY;
 6698              		.loc 3 190 42 is_stmt 0 view .LVU1604
 6699 0256 0122     		movs	r2, #1
 6700              	.LBB1133:
 6701              	.LBB1120:
 6702              	.LBB1115:
 241:../../libdaisy/src/dev/oled_ssd130x.h ****             return;
 6703              		.loc 4 241 9 view .LVU1605
 6704 0258 3F2E     		cmp	r6, #63
 6705              	.LBE1115:
 6706              	.LBE1120:
 6707              	.LBE1133:
 190:../../libdaisy/src/hid/disp/display.h ****         int_fast16_t error  = deltaX - deltaY;
 6708              		.loc 3 190 42 view .LVU1606
 6709 025a 0392     		str	r2, [sp, #12]
 6710              	.LBB1134:
ARM GAS  C:\Users\VINCIU~1\AppData\Local\Temp\cc6DIkXk.s 			page 165


 6711              	.LBB1121:
 6712              	.LBB1116:
 241:../../libdaisy/src/dev/oled_ssd130x.h ****             return;
 6713              		.loc 4 241 9 view .LVU1607
 6714 025c 85D8     		bhi	.L515
 6715 025e 7F2D     		cmp	r5, #127
 6716 0260 83D8     		bhi	.L515
 244:../../libdaisy/src/dev/oled_ssd130x.h ****         else
 6717              		.loc 4 244 28 view .LVU1608
 6718 0262 F208     		lsrs	r2, r6, #3
 244:../../libdaisy/src/dev/oled_ssd130x.h ****         else
 6719              		.loc 4 244 42 view .LVU1609
 6720 0264 05EBC212 		add	r2, r5, r2, lsl #7
 6721 0268 3A44     		add	r2, r2, r7
 243:../../libdaisy/src/dev/oled_ssd130x.h ****             buffer_[x + (y / 8) * width] |= (1 << (y % 8));
 6722              		.loc 4 243 9 view .LVU1610
 6723 026a B8F1000F 		cmp	r8, #0
 6724 026e 7FF46CAF 		bne	.L559
 6725              	.LVL538:
 6726              	.L512:
 6727              	.LBB1112:
 6728              	.LBI1112:
 239:../../libdaisy/src/dev/oled_ssd130x.h ****     {
 6729              		.loc 4 239 10 is_stmt 1 view .LVU1611
 6730              	.LBB1113:
 246:../../libdaisy/src/dev/oled_ssd130x.h ****     }
 6731              		.loc 4 246 49 is_stmt 0 view .LVU1612
 6732 0272 4FF0010C 		mov	ip, #1
 246:../../libdaisy/src/dev/oled_ssd130x.h ****     }
 6733              		.loc 4 246 55 view .LVU1613
 6734 0276 06F0070E 		and	lr, r6, #7
 246:../../libdaisy/src/dev/oled_ssd130x.h ****     }
 6735              		.loc 4 246 49 view .LVU1614
 6736 027a 0CFA0EFE 		lsl	lr, ip, lr
 246:../../libdaisy/src/dev/oled_ssd130x.h ****     }
 6737              		.loc 4 246 42 view .LVU1615
 6738 027e 92F814C0 		ldrb	ip, [r2, #20]	@ zero_extendqisi2
 6739 0282 2CEA0E0C 		bic	ip, ip, lr
 6740 0286 82F814C0 		strb	ip, [r2, #20]
 6741 028a 6AE7     		b	.L511
 6742              	.LVL539:
 6743              	.L499:
 246:../../libdaisy/src/dev/oled_ssd130x.h ****     }
 6744              		.loc 4 246 42 view .LVU1616
 6745              	.LBE1113:
 6746              	.LBE1112:
 6747              	.LBE1116:
 6748              	.LBE1121:
 6749              	.LBE1134:
 6750              	.LBE1136:
 6751              	.LBE1146:
 6752              	.LBB1147:
 6753              	.LBB1105:
 6754              	.LBB1101:
 6755              	.LBB1089:
 6756              	.LBB1085:
 6757              	.LBB1080:
ARM GAS  C:\Users\VINCIU~1\AppData\Local\Temp\cc6DIkXk.s 			page 166


 6758              	.LBI1080:
 239:../../libdaisy/src/dev/oled_ssd130x.h ****     {
 6759              		.loc 4 239 10 is_stmt 1 view .LVU1617
 6760              	.LBB1081:
 246:../../libdaisy/src/dev/oled_ssd130x.h ****     }
 6761              		.loc 4 246 49 is_stmt 0 view .LVU1618
 6762 028c 02FA01F1 		lsl	r1, r2, r1
 246:../../libdaisy/src/dev/oled_ssd130x.h ****     }
 6763              		.loc 4 246 42 view .LVU1619
 6764 0290 1A7D     		ldrb	r2, [r3, #20]	@ zero_extendqisi2
 6765 0292 22EA0102 		bic	r2, r2, r1
 6766 0296 1A75     		strb	r2, [r3, #20]
 6767 0298 FAE6     		b	.L498
 6768              	.LVL540:
 6769              	.L508:
 246:../../libdaisy/src/dev/oled_ssd130x.h ****     }
 6770              		.loc 4 246 42 view .LVU1620
 6771              	.LBE1081:
 6772              	.LBE1080:
 6773              	.LBE1085:
 6774              	.LBE1089:
 6775              	.LBE1101:
 6776              	.LBE1105:
 6777              	.LBE1147:
  55:OledDisplayExtravaganza.cpp ****     OledDisplay::SetCursor(xinit, yinit + 12);
 6778              		.loc 6 55 13 view .LVU1621
 6779 029a 2B46     		mov	r3, r5
 6780 029c 2246     		mov	r2, r4
 6781 029e 3846     		mov	r0, r7
 6782 02a0 0096     		str	r6, [sp]
 6783 02a2 CDF80480 		str	r8, [sp, #4]
 6784 02a6 C847     		blx	r9
 6785              	.LVL541:
 6786              	.LBB1148:
 6787              	.LBB1142:
 133:../../libdaisy/src/hid/disp/display.h ****         currentY_ = (y >= Height()) ? Height() - 1 : y;
 6788              		.loc 3 133 33 view .LVU1622
 6789 02a8 3B68     		ldr	r3, [r7]
 6790 02aa 0293     		str	r3, [sp, #8]
 6791 02ac 87E7     		b	.L513
 6792              	.LVL542:
 6793              	.L496:
 133:../../libdaisy/src/hid/disp/display.h ****         currentY_ = (y >= Height()) ? Height() - 1 : y;
 6794              		.loc 3 133 33 view .LVU1623
 6795              	.LBE1142:
 6796              	.LBE1148:
  54:OledDisplayExtravaganza.cpp ****     DrawLine(xinit + 18, yinit + 6, xinit, yinit - 8, on);
 6797              		.loc 6 54 13 view .LVU1624
 6798 02ae 16EE903A 		vmov	r3, s13	@ int
 6799 02b2 17EE102A 		vmov	r2, s14	@ int
 6800 02b6 CDE90061 		strd	r6, r1, [sp]
 6801 02ba 16EE901A 		vmov	r1, s13	@ int
 6802              	.LVL543:
  54:OledDisplayExtravaganza.cpp ****     DrawLine(xinit + 18, yinit + 6, xinit, yinit - 8, on);
 6803              		.loc 6 54 13 view .LVU1625
 6804 02be C847     		blx	r9
 6805              	.LVL544:
ARM GAS  C:\Users\VINCIU~1\AppData\Local\Temp\cc6DIkXk.s 			page 167


  55:OledDisplayExtravaganza.cpp ****     OledDisplay::SetCursor(xinit, yinit + 12);
 6806              		.loc 6 55 57 view .LVU1626
 6807 02c0 3B68     		ldr	r3, [r7]
 6808 02c2 0293     		str	r3, [sp, #8]
 6809 02c4 0DE7     		b	.L500
 6810              	.LVL545:
 6811              	.L557:
 6812              	.LBB1149:
 6813              	.LBB1143:
 134:../../libdaisy/src/hid/disp/display.h ****     }
 6814              		.loc 3 134 33 view .LVU1627
 6815 02c6 3846     		mov	r0, r7
 6816 02c8 9847     		blx	r3
 6817              	.LVL546:
 6818 02ca 96E7     		b	.L525
 6819              	.LVL547:
 6820              	.L555:
 133:../../libdaisy/src/hid/disp/display.h ****         currentY_ = (y >= Height()) ? Height() - 1 : y;
 6821              		.loc 3 133 32 view .LVU1628
 6822 02cc 3846     		mov	r0, r7
 6823 02ce 9847     		blx	r3
 6824              	.LVL548:
 133:../../libdaisy/src/hid/disp/display.h ****         currentY_ = (y >= Height()) ? Height() - 1 : y;
 6825              		.loc 3 133 44 view .LVU1629
 6826 02d0 3B68     		ldr	r3, [r7]
 6827 02d2 0293     		str	r3, [sp, #8]
 6828 02d4 83E7     		b	.L522
 6829              	.L556:
 133:../../libdaisy/src/hid/disp/display.h ****         currentY_ = (y >= Height()) ? Height() - 1 : y;
 6830              		.loc 3 133 43 view .LVU1630
 6831 02d6 3846     		mov	r0, r7
 6832 02d8 9847     		blx	r3
 6833              	.LVL549:
 134:../../libdaisy/src/hid/disp/display.h ****     }
 6834              		.loc 3 134 34 view .LVU1631
 6835 02da 3B68     		ldr	r3, [r7]
 133:../../libdaisy/src/hid/disp/display.h ****         currentY_ = (y >= Height()) ? Height() - 1 : y;
 6836              		.loc 3 133 19 view .LVU1632
 6837 02dc 451E     		subs	r5, r0, #1
 6838              	.LVL550:
 134:../../libdaisy/src/hid/disp/display.h ****     }
 6839              		.loc 3 134 34 view .LVU1633
 6840 02de 0293     		str	r3, [sp, #8]
 133:../../libdaisy/src/hid/disp/display.h ****         currentY_ = (y >= Height()) ? Height() - 1 : y;
 6841              		.loc 3 133 19 view .LVU1634
 6842 02e0 ADB2     		uxth	r5, r5
 6843 02e2 83E7     		b	.L523
 6844              	.L558:
 134:../../libdaisy/src/hid/disp/display.h ****     }
 6845              		.loc 3 134 45 view .LVU1635
 6846 02e4 3846     		mov	r0, r7
 6847 02e6 9847     		blx	r3
 6848              	.LVL551:
 134:../../libdaisy/src/hid/disp/display.h ****     }
 6849              		.loc 3 134 19 view .LVU1636
 6850 02e8 0138     		subs	r0, r0, #1
 6851 02ea 84B2     		uxth	r4, r0
ARM GAS  C:\Users\VINCIU~1\AppData\Local\Temp\cc6DIkXk.s 			page 168


 6852              	.LVL552:
 134:../../libdaisy/src/hid/disp/display.h ****     }
 6853              		.loc 3 134 19 view .LVU1637
 6854 02ec 8CE7     		b	.L526
 6855              	.L561:
 6856 02ee 00BF     		.align	2
 6857              	.L560:
 6858 02f0 00000000 		.word	_ZN5daisy25OneBitGraphicsDisplayImplINS_11OledDisplayINS_13SSD130xDriverILj128ELj64ENS_24SSD
 6859 02f4 00000000 		.word	_ZNK5daisy11OledDisplayINS_13SSD130xDriverILj128ELj64ENS_24SSD130x4WireSpiTransportEEEE5Widt
 6860 02f8 00000000 		.word	_ZNK5daisy11OledDisplayINS_13SSD130xDriverILj128ELj64ENS_24SSD130x4WireSpiTransportEEEE6Heig
 6861 02fc 00000000 		.word	Font_6x8
 6862 0300 00000000 		.word	.LC1
 6863              	.LBE1143:
 6864              	.LBE1149:
 6865              		.cfi_endproc
 6866              	.LFE1819:
 6868              		.section	.rodata._ZN23OledDisplayExtravaganza9WaveIconsEiiiib.str1.4,"aMS",%progbits,1
 6869              		.align	2
 6870              	.LC2:
 6871 0000 73696E00 		.ascii	"sin\000"
 6872              		.align	2
 6873              	.LC3:
 6874 0004 74726900 		.ascii	"tri\000"
 6875              		.section	.text._ZN23OledDisplayExtravaganza9WaveIconsEiiiib,"ax",%progbits
 6876              		.align	1
 6877              		.p2align 2,,3
 6878              		.global	_ZN23OledDisplayExtravaganza9WaveIconsEiiiib
 6879              		.syntax unified
 6880              		.thumb
 6881              		.thumb_func
 6882              		.fpu fpv5-d16
 6884              	_ZN23OledDisplayExtravaganza9WaveIconsEiiiib:
 6885              	.LVL553:
 6886              	.LFB1820:
  59:OledDisplayExtravaganza.cpp **** 
  60:OledDisplayExtravaganza.cpp **** void OledDisplayExtravaganza::WaveIcons(int  xinit,
  61:OledDisplayExtravaganza.cpp ****                                         int  yinit,
  62:OledDisplayExtravaganza.cpp ****                                         int  points,
  63:OledDisplayExtravaganza.cpp ****                                         int  selector,
  64:OledDisplayExtravaganza.cpp ****                                         bool on)
  65:OledDisplayExtravaganza.cpp **** {
 6887              		.loc 6 65 1 is_stmt 1 view -0
 6888              		.cfi_startproc
 6889              		@ args = 8, pretend = 0, frame = 8
 6890              		@ frame_needed = 0, uses_anonymous_args = 0
  66:OledDisplayExtravaganza.cpp ****     int selectorIndex = selector;
 6891              		.loc 6 66 5 view .LVU1639
  65:OledDisplayExtravaganza.cpp ****     int selectorIndex = selector;
 6892              		.loc 6 65 1 is_stmt 0 view .LVU1640
 6893 0000 2DE9F041 		push	{r4, r5, r6, r7, r8, lr}
 6894              		.cfi_def_cfa_offset 24
 6895              		.cfi_offset 4, -24
 6896              		.cfi_offset 5, -20
 6897              		.cfi_offset 6, -16
 6898              		.cfi_offset 7, -12
 6899              		.cfi_offset 8, -8
 6900              		.cfi_offset 14, -4
ARM GAS  C:\Users\VINCIU~1\AppData\Local\Temp\cc6DIkXk.s 			page 169


 6901 0004 84B0     		sub	sp, sp, #16
 6902              		.cfi_def_cfa_offset 40
  65:OledDisplayExtravaganza.cpp ****     int selectorIndex = selector;
 6903              		.loc 6 65 1 view .LVU1641
 6904 0006 0646     		mov	r6, r0
 6905 0008 1446     		mov	r4, r2
 6906 000a 0A9D     		ldr	r5, [sp, #40]
 6907              	.LVL554:
  67:OledDisplayExtravaganza.cpp ****     switch(selectorIndex)
 6908              		.loc 6 67 5 is_stmt 1 view .LVU1642
  65:OledDisplayExtravaganza.cpp ****     int selectorIndex = selector;
 6909              		.loc 6 65 1 is_stmt 0 view .LVU1643
 6910 000c 9DF82C70 		ldrb	r7, [sp, #44]	@ zero_extendqisi2
 6911 0010 0291     		str	r1, [sp, #8]
 6912 0012 0393     		str	r3, [sp, #12]
 6913 0014 032D     		cmp	r5, #3
 6914 0016 3CD8     		bhi	.L562
 6915 0018 DFE805F0 		tbb	[pc, r5]
 6916              	.LVL555:
 6917              	.L565:
 6918 001c 02       		.byte	(.L568-.L565)/2
 6919 001d A0       		.byte	(.L567-.L565)/2
 6920 001e 70       		.byte	(.L566-.L565)/2
 6921 001f 3E       		.byte	(.L564-.L565)/2
 6922              		.p2align 1
 6923              	.L568:
  68:OledDisplayExtravaganza.cpp ****     {
  69:OledDisplayExtravaganza.cpp ****         case 0:
 6924              		.loc 6 69 9 is_stmt 1 view .LVU1644
  70:OledDisplayExtravaganza.cpp ****             this->drawSine(xinit, yinit, points, on);
 6925              		.loc 6 70 13 view .LVU1645
 6926              		.loc 6 70 27 is_stmt 0 view .LVU1646
 6927 0020 DDED037A 		vldr.32	s15, [sp, #12]	@ int
 6928 0024 3946     		mov	r1, r7
 6929              	.LVL556:
 6930              		.loc 6 70 27 view .LVU1647
 6931 0026 DFF83C82 		ldr	r8, .L627+24
  71:OledDisplayExtravaganza.cpp ****             OledDisplay::SetCursor(xinit, yinit + 12);
 6932              		.loc 6 71 35 view .LVU1648
 6933 002a 0C34     		adds	r4, r4, #12
  70:OledDisplayExtravaganza.cpp ****             this->drawSine(xinit, yinit, points, on);
 6934              		.loc 6 70 27 view .LVU1649
 6935 002c B8EEE71A 		vcvt.f32.s32	s2, s15
 6936 0030 07EE902A 		vmov	s15, r2	@ int
 6937              		.loc 6 71 35 view .LVU1650
 6938 0034 A4B2     		uxth	r4, r4
  70:OledDisplayExtravaganza.cpp ****             this->drawSine(xinit, yinit, points, on);
 6939              		.loc 6 70 27 view .LVU1651
 6940 0036 F8EEE70A 		vcvt.f32.s32	s1, s15
 6941 003a DDED027A 		vldr.32	s15, [sp, #8]	@ int
 6942 003e B8EEE70A 		vcvt.f32.s32	s0, s15
 6943 0042 FFF7FEFF 		bl	_ZN23OledDisplayExtravaganza8drawSineEfffb
 6944              	.LVL557:
 6945              		.loc 6 71 13 is_stmt 1 view .LVU1652
 6946              	.LBB1190:
 6947              	.LBB1191:
 133:../../libdaisy/src/hid/disp/display.h ****         currentY_ = (y >= Height()) ? Height() - 1 : y;
ARM GAS  C:\Users\VINCIU~1\AppData\Local\Temp\cc6DIkXk.s 			page 170


 6948              		.loc 3 133 33 is_stmt 0 view .LVU1653
 6949 0046 3368     		ldr	r3, [r6]
 6950              	.LBE1191:
 6951              	.LBE1190:
 6952              		.loc 6 71 35 view .LVU1654
 6953 0048 BDF80850 		ldrh	r5, [sp, #8]
 6954              	.LVL558:
 6955              	.LBB1197:
 6956              	.LBI1190:
 131:../../libdaisy/src/hid/disp/display.h ****     {
 6957              		.loc 3 131 10 is_stmt 1 view .LVU1655
 6958              	.LBB1192:
 133:../../libdaisy/src/hid/disp/display.h ****         currentY_ = (y >= Height()) ? Height() - 1 : y;
 6959              		.loc 3 133 9 view .LVU1656
 133:../../libdaisy/src/hid/disp/display.h ****         currentY_ = (y >= Height()) ? Height() - 1 : y;
 6960              		.loc 3 133 33 is_stmt 0 view .LVU1657
 6961 004c DA68     		ldr	r2, [r3, #12]
 6962 004e 4245     		cmp	r2, r8
 6963 0050 40F0C080 		bne	.L611
 6964 0054 8020     		movs	r0, #128
 6965              	.L569:
 133:../../libdaisy/src/hid/disp/display.h ****         currentY_ = (y >= Height()) ? Height() - 1 : y;
 6966              		.loc 3 133 19 view .LVU1658
 6967 0056 8542     		cmp	r5, r0
 6968 0058 04D3     		bcc	.L570
 133:../../libdaisy/src/hid/disp/display.h ****         currentY_ = (y >= Height()) ? Height() - 1 : y;
 6969              		.loc 3 133 44 view .LVU1659
 6970 005a DA68     		ldr	r2, [r3, #12]
 6971 005c 4245     		cmp	r2, r8
 6972 005e 40F0EF80 		bne	.L612
 6973 0062 7F25     		movs	r5, #127
 6974              	.LVL559:
 6975              	.L570:
 134:../../libdaisy/src/hid/disp/display.h ****     }
 6976              		.loc 3 134 34 view .LVU1660
 6977 0064 9B68     		ldr	r3, [r3, #8]
 133:../../libdaisy/src/hid/disp/display.h ****         currentY_ = (y >= Height()) ? Height() - 1 : y;
 6978              		.loc 3 133 19 view .LVU1661
 6979 0066 B580     		strh	r5, [r6, #4]	@ movhi
 134:../../libdaisy/src/hid/disp/display.h ****     }
 6980              		.loc 3 134 9 is_stmt 1 view .LVU1662
 6981 0068 784D     		ldr	r5, .L627
 6982 006a AB42     		cmp	r3, r5
 6983 006c 40F0BF80 		bne	.L613
 134:../../libdaisy/src/hid/disp/display.h ****     }
 6984              		.loc 3 134 34 is_stmt 0 view .LVU1663
 6985 0070 4020     		movs	r0, #64
 6986              	.L572:
 134:../../libdaisy/src/hid/disp/display.h ****     }
 6987              		.loc 3 134 19 view .LVU1664
 6988 0072 8442     		cmp	r4, r0
 6989 0074 05D3     		bcc	.L573
 134:../../libdaisy/src/hid/disp/display.h ****     }
 6990              		.loc 3 134 46 view .LVU1665
 6991 0076 3368     		ldr	r3, [r6]
 6992 0078 9B68     		ldr	r3, [r3, #8]
 6993 007a AB42     		cmp	r3, r5
ARM GAS  C:\Users\VINCIU~1\AppData\Local\Temp\cc6DIkXk.s 			page 171


 6994 007c 40F0C080 		bne	.L614
 6995 0080 3F24     		movs	r4, #63
 6996              	.LVL560:
 6997              	.L573:
 134:../../libdaisy/src/hid/disp/display.h ****     }
 6998              		.loc 3 134 46 view .LVU1666
 6999              	.LBE1192:
 7000              	.LBE1197:
  72:OledDisplayExtravaganza.cpp ****             OledDisplay::WriteString("sin", Font_6x8, on);
 7001              		.loc 6 72 37 view .LVU1667
 7002 0082 734B     		ldr	r3, .L627+4
 7003 0084 7349     		ldr	r1, .L627+8
 7004              	.LVL561:
 7005              	.L610:
 7006              	.LBB1198:
 7007              	.LBB1199:
 134:../../libdaisy/src/hid/disp/display.h ****     }
 7008              		.loc 3 134 19 view .LVU1668
 7009 0086 F480     		strh	r4, [r6, #6]	@ movhi
 7010              	.LBE1199:
 7011              	.LBE1198:
  73:OledDisplayExtravaganza.cpp ****             break;
  74:OledDisplayExtravaganza.cpp ****         case 1:
  75:OledDisplayExtravaganza.cpp ****             this->drawTri(xinit, yinit, points, on);
  76:OledDisplayExtravaganza.cpp ****             OledDisplay::SetCursor(xinit, yinit + 12);
  77:OledDisplayExtravaganza.cpp ****             OledDisplay::WriteString("tri", Font_6x8, on);
  78:OledDisplayExtravaganza.cpp ****             break;
  79:OledDisplayExtravaganza.cpp **** 
  80:OledDisplayExtravaganza.cpp ****         case 2:
  81:OledDisplayExtravaganza.cpp ****             this->drawSqr(xinit, yinit, points, on);
  82:OledDisplayExtravaganza.cpp ****             OledDisplay::SetCursor(xinit, yinit + 12);
  83:OledDisplayExtravaganza.cpp ****             OledDisplay::WriteString("sqr", Font_6x8, on);
  84:OledDisplayExtravaganza.cpp ****             break;
  85:OledDisplayExtravaganza.cpp **** 
  86:OledDisplayExtravaganza.cpp ****         case 3:
  87:OledDisplayExtravaganza.cpp ****             this->drawSaw(xinit, yinit, points, on);
  88:OledDisplayExtravaganza.cpp ****             OledDisplay::SetCursor(xinit, yinit + 12);
  89:OledDisplayExtravaganza.cpp ****             OledDisplay::WriteString("saw", Font_6x8, on);
 7012              		.loc 6 89 13 is_stmt 1 view .LVU1669
 7013              		.loc 6 89 37 is_stmt 0 view .LVU1670
 7014 0088 3046     		mov	r0, r6
 7015 008a 0CCB     		ldm	r3, {r2, r3}
 7016 008c 0097     		str	r7, [sp]
 7017 008e FFF7FEFF 		bl	_ZN5daisy25OneBitGraphicsDisplayImplINS_11OledDisplayINS_13SSD130xDriverILj128ELj64ENS_24SSD130
 7018              	.LVL562:
 7019              	.L562:
  90:OledDisplayExtravaganza.cpp ****         default: break;
  91:OledDisplayExtravaganza.cpp ****     }
  92:OledDisplayExtravaganza.cpp **** }
 7020              		.loc 6 92 1 view .LVU1671
 7021 0092 04B0     		add	sp, sp, #16
 7022              		.cfi_remember_state
 7023              		.cfi_def_cfa_offset 24
 7024              		@ sp needed
 7025 0094 BDE8F081 		pop	{r4, r5, r6, r7, r8, pc}
 7026              	.LVL563:
 7027              	.L564:
ARM GAS  C:\Users\VINCIU~1\AppData\Local\Temp\cc6DIkXk.s 			page 172


 7028              		.cfi_restore_state
  86:OledDisplayExtravaganza.cpp ****             this->drawSaw(xinit, yinit, points, on);
 7029              		.loc 6 86 9 is_stmt 1 view .LVU1672
  87:OledDisplayExtravaganza.cpp ****             OledDisplay::SetCursor(xinit, yinit + 12);
 7030              		.loc 6 87 13 view .LVU1673
  87:OledDisplayExtravaganza.cpp ****             OledDisplay::SetCursor(xinit, yinit + 12);
 7031              		.loc 6 87 26 is_stmt 0 view .LVU1674
 7032 0098 DDED037A 		vldr.32	s15, [sp, #12]	@ int
 7033 009c 3946     		mov	r1, r7
 7034              	.LVL564:
  87:OledDisplayExtravaganza.cpp ****             OledDisplay::SetCursor(xinit, yinit + 12);
 7035              		.loc 6 87 26 view .LVU1675
 7036 009e DFF8C481 		ldr	r8, .L627+24
  88:OledDisplayExtravaganza.cpp ****             OledDisplay::WriteString("saw", Font_6x8, on);
 7037              		.loc 6 88 35 view .LVU1676
 7038 00a2 0C34     		adds	r4, r4, #12
  87:OledDisplayExtravaganza.cpp ****             OledDisplay::SetCursor(xinit, yinit + 12);
 7039              		.loc 6 87 26 view .LVU1677
 7040 00a4 B8EEE71A 		vcvt.f32.s32	s2, s15
 7041 00a8 07EE902A 		vmov	s15, r2	@ int
  88:OledDisplayExtravaganza.cpp ****             OledDisplay::WriteString("saw", Font_6x8, on);
 7042              		.loc 6 88 35 view .LVU1678
 7043 00ac A4B2     		uxth	r4, r4
  87:OledDisplayExtravaganza.cpp ****             OledDisplay::SetCursor(xinit, yinit + 12);
 7044              		.loc 6 87 26 view .LVU1679
 7045 00ae F8EEE70A 		vcvt.f32.s32	s1, s15
 7046 00b2 DDED027A 		vldr.32	s15, [sp, #8]	@ int
 7047 00b6 B8EEE70A 		vcvt.f32.s32	s0, s15
 7048 00ba FFF7FEFF 		bl	_ZN23OledDisplayExtravaganza7drawSawEfffb
 7049              	.LVL565:
  88:OledDisplayExtravaganza.cpp ****             OledDisplay::WriteString("saw", Font_6x8, on);
 7050              		.loc 6 88 13 is_stmt 1 view .LVU1680
 7051              	.LBB1205:
 7052              	.LBB1200:
 133:../../libdaisy/src/hid/disp/display.h ****         currentY_ = (y >= Height()) ? Height() - 1 : y;
 7053              		.loc 3 133 33 is_stmt 0 view .LVU1681
 7054 00be 3368     		ldr	r3, [r6]
 7055              	.LBE1200:
 7056              	.LBE1205:
  88:OledDisplayExtravaganza.cpp ****             OledDisplay::WriteString("saw", Font_6x8, on);
 7057              		.loc 6 88 35 view .LVU1682
 7058 00c0 BDF80850 		ldrh	r5, [sp, #8]
 7059              	.LVL566:
 7060              	.LBB1206:
 7061              	.LBI1198:
 131:../../libdaisy/src/hid/disp/display.h ****     {
 7062              		.loc 3 131 10 is_stmt 1 view .LVU1683
 7063              	.LBB1201:
 133:../../libdaisy/src/hid/disp/display.h ****         currentY_ = (y >= Height()) ? Height() - 1 : y;
 7064              		.loc 3 133 9 view .LVU1684
 133:../../libdaisy/src/hid/disp/display.h ****         currentY_ = (y >= Height()) ? Height() - 1 : y;
 7065              		.loc 3 133 33 is_stmt 0 view .LVU1685
 7066 00c4 DA68     		ldr	r2, [r3, #12]
 7067 00c6 4245     		cmp	r2, r8
 7068 00c8 78D1     		bne	.L615
 7069 00ca 8020     		movs	r0, #128
 7070              	.L587:
ARM GAS  C:\Users\VINCIU~1\AppData\Local\Temp\cc6DIkXk.s 			page 173


 133:../../libdaisy/src/hid/disp/display.h ****         currentY_ = (y >= Height()) ? Height() - 1 : y;
 7071              		.loc 3 133 19 view .LVU1686
 7072 00cc 8542     		cmp	r5, r0
 7073 00ce 04D3     		bcc	.L588
 133:../../libdaisy/src/hid/disp/display.h ****         currentY_ = (y >= Height()) ? Height() - 1 : y;
 7074              		.loc 3 133 44 view .LVU1687
 7075 00d0 DA68     		ldr	r2, [r3, #12]
 7076 00d2 4245     		cmp	r2, r8
 7077 00d4 40F0A980 		bne	.L616
 7078 00d8 7F25     		movs	r5, #127
 7079              	.LVL567:
 7080              	.L588:
 134:../../libdaisy/src/hid/disp/display.h ****     }
 7081              		.loc 3 134 34 view .LVU1688
 7082 00da 9B68     		ldr	r3, [r3, #8]
 133:../../libdaisy/src/hid/disp/display.h ****         currentY_ = (y >= Height()) ? Height() - 1 : y;
 7083              		.loc 3 133 19 view .LVU1689
 7084 00dc B580     		strh	r5, [r6, #4]	@ movhi
 134:../../libdaisy/src/hid/disp/display.h ****     }
 7085              		.loc 3 134 9 is_stmt 1 view .LVU1690
 7086 00de 5B4D     		ldr	r5, .L627
 7087 00e0 AB42     		cmp	r3, r5
 7088 00e2 7ED1     		bne	.L617
 134:../../libdaisy/src/hid/disp/display.h ****     }
 7089              		.loc 3 134 34 is_stmt 0 view .LVU1691
 7090 00e4 4020     		movs	r0, #64
 7091              	.L590:
 134:../../libdaisy/src/hid/disp/display.h ****     }
 7092              		.loc 3 134 19 view .LVU1692
 7093 00e6 8442     		cmp	r4, r0
 7094 00e8 05D3     		bcc	.L591
 134:../../libdaisy/src/hid/disp/display.h ****     }
 7095              		.loc 3 134 46 view .LVU1693
 7096 00ea 3368     		ldr	r3, [r6]
 7097 00ec 9B68     		ldr	r3, [r3, #8]
 7098 00ee AB42     		cmp	r3, r5
 7099 00f0 40F0A180 		bne	.L618
 7100 00f4 3F24     		movs	r4, #63
 7101              	.LVL568:
 7102              	.L591:
 134:../../libdaisy/src/hid/disp/display.h ****     }
 7103              		.loc 3 134 46 view .LVU1694
 7104              	.LBE1201:
 7105              	.LBE1206:
  89:OledDisplayExtravaganza.cpp ****         default: break;
 7106              		.loc 6 89 37 view .LVU1695
 7107 00f6 564B     		ldr	r3, .L627+4
 7108 00f8 5749     		ldr	r1, .L627+12
 7109 00fa C4E7     		b	.L610
 7110              	.LVL569:
 7111              	.L566:
  80:OledDisplayExtravaganza.cpp ****             this->drawSqr(xinit, yinit, points, on);
 7112              		.loc 6 80 9 is_stmt 1 view .LVU1696
  81:OledDisplayExtravaganza.cpp ****             OledDisplay::SetCursor(xinit, yinit + 12);
 7113              		.loc 6 81 13 view .LVU1697
  81:OledDisplayExtravaganza.cpp ****             OledDisplay::SetCursor(xinit, yinit + 12);
 7114              		.loc 6 81 26 is_stmt 0 view .LVU1698
ARM GAS  C:\Users\VINCIU~1\AppData\Local\Temp\cc6DIkXk.s 			page 174


 7115 00fc DDED037A 		vldr.32	s15, [sp, #12]	@ int
 7116 0100 3946     		mov	r1, r7
 7117              	.LVL570:
  81:OledDisplayExtravaganza.cpp ****             OledDisplay::SetCursor(xinit, yinit + 12);
 7118              		.loc 6 81 26 view .LVU1699
 7119 0102 DFF86081 		ldr	r8, .L627+24
  82:OledDisplayExtravaganza.cpp ****             OledDisplay::WriteString("sqr", Font_6x8, on);
 7120              		.loc 6 82 35 view .LVU1700
 7121 0106 0C34     		adds	r4, r4, #12
  81:OledDisplayExtravaganza.cpp ****             OledDisplay::SetCursor(xinit, yinit + 12);
 7122              		.loc 6 81 26 view .LVU1701
 7123 0108 B8EEE71A 		vcvt.f32.s32	s2, s15
 7124 010c 07EE902A 		vmov	s15, r2	@ int
  82:OledDisplayExtravaganza.cpp ****             OledDisplay::WriteString("sqr", Font_6x8, on);
 7125              		.loc 6 82 35 view .LVU1702
 7126 0110 A4B2     		uxth	r4, r4
  81:OledDisplayExtravaganza.cpp ****             OledDisplay::SetCursor(xinit, yinit + 12);
 7127              		.loc 6 81 26 view .LVU1703
 7128 0112 F8EEE70A 		vcvt.f32.s32	s1, s15
 7129 0116 DDED027A 		vldr.32	s15, [sp, #8]	@ int
 7130 011a B8EEE70A 		vcvt.f32.s32	s0, s15
 7131 011e FFF7FEFF 		bl	_ZN23OledDisplayExtravaganza7drawSqrEfffb
 7132              	.LVL571:
  82:OledDisplayExtravaganza.cpp ****             OledDisplay::WriteString("sqr", Font_6x8, on);
 7133              		.loc 6 82 13 is_stmt 1 view .LVU1704
 7134              	.LBB1207:
 7135              	.LBB1208:
 133:../../libdaisy/src/hid/disp/display.h ****         currentY_ = (y >= Height()) ? Height() - 1 : y;
 7136              		.loc 3 133 33 is_stmt 0 view .LVU1705
 7137 0122 3368     		ldr	r3, [r6]
 7138              	.LBE1208:
 7139              	.LBE1207:
  82:OledDisplayExtravaganza.cpp ****             OledDisplay::WriteString("sqr", Font_6x8, on);
 7140              		.loc 6 82 35 view .LVU1706
 7141 0124 BDF80850 		ldrh	r5, [sp, #8]
 7142              	.LVL572:
 7143              	.LBB1214:
 7144              	.LBI1207:
 131:../../libdaisy/src/hid/disp/display.h ****     {
 7145              		.loc 3 131 10 is_stmt 1 view .LVU1707
 7146              	.LBB1209:
 133:../../libdaisy/src/hid/disp/display.h ****         currentY_ = (y >= Height()) ? Height() - 1 : y;
 7147              		.loc 3 133 9 view .LVU1708
 133:../../libdaisy/src/hid/disp/display.h ****         currentY_ = (y >= Height()) ? Height() - 1 : y;
 7148              		.loc 3 133 33 is_stmt 0 view .LVU1709
 7149 0128 DA68     		ldr	r2, [r3, #12]
 7150 012a 4245     		cmp	r2, r8
 7151 012c 4AD1     		bne	.L619
 7152 012e 8020     		movs	r0, #128
 7153              	.L581:
 133:../../libdaisy/src/hid/disp/display.h ****         currentY_ = (y >= Height()) ? Height() - 1 : y;
 7154              		.loc 3 133 19 view .LVU1710
 7155 0130 8542     		cmp	r5, r0
 7156 0132 03D3     		bcc	.L582
 133:../../libdaisy/src/hid/disp/display.h ****         currentY_ = (y >= Height()) ? Height() - 1 : y;
 7157              		.loc 3 133 44 view .LVU1711
 7158 0134 DA68     		ldr	r2, [r3, #12]
ARM GAS  C:\Users\VINCIU~1\AppData\Local\Temp\cc6DIkXk.s 			page 175


 7159 0136 4245     		cmp	r2, r8
 7160 0138 67D1     		bne	.L620
 7161 013a 7F25     		movs	r5, #127
 7162              	.LVL573:
 7163              	.L582:
 134:../../libdaisy/src/hid/disp/display.h ****     }
 7164              		.loc 3 134 34 view .LVU1712
 7165 013c 9B68     		ldr	r3, [r3, #8]
 133:../../libdaisy/src/hid/disp/display.h ****         currentY_ = (y >= Height()) ? Height() - 1 : y;
 7166              		.loc 3 133 19 view .LVU1713
 7167 013e B580     		strh	r5, [r6, #4]	@ movhi
 134:../../libdaisy/src/hid/disp/display.h ****     }
 7168              		.loc 3 134 9 is_stmt 1 view .LVU1714
 7169 0140 424D     		ldr	r5, .L627
 7170 0142 AB42     		cmp	r3, r5
 7171 0144 4AD1     		bne	.L621
 134:../../libdaisy/src/hid/disp/display.h ****     }
 7172              		.loc 3 134 34 is_stmt 0 view .LVU1715
 7173 0146 4020     		movs	r0, #64
 7174              	.L584:
 134:../../libdaisy/src/hid/disp/display.h ****     }
 7175              		.loc 3 134 19 view .LVU1716
 7176 0148 8442     		cmp	r4, r0
 7177 014a 04D3     		bcc	.L585
 134:../../libdaisy/src/hid/disp/display.h ****     }
 7178              		.loc 3 134 46 view .LVU1717
 7179 014c 3368     		ldr	r3, [r6]
 7180 014e 9B68     		ldr	r3, [r3, #8]
 7181 0150 AB42     		cmp	r3, r5
 7182 0152 65D1     		bne	.L622
 7183 0154 3F24     		movs	r4, #63
 7184              	.LVL574:
 7185              	.L585:
 134:../../libdaisy/src/hid/disp/display.h ****     }
 7186              		.loc 3 134 46 view .LVU1718
 7187              	.LBE1209:
 7188              	.LBE1214:
  83:OledDisplayExtravaganza.cpp ****             break;
 7189              		.loc 6 83 37 view .LVU1719
 7190 0156 3E4B     		ldr	r3, .L627+4
 7191 0158 4049     		ldr	r1, .L627+16
 7192 015a 94E7     		b	.L610
 7193              	.LVL575:
 7194              	.L567:
  74:OledDisplayExtravaganza.cpp ****             this->drawTri(xinit, yinit, points, on);
 7195              		.loc 6 74 9 is_stmt 1 view .LVU1720
  75:OledDisplayExtravaganza.cpp ****             OledDisplay::SetCursor(xinit, yinit + 12);
 7196              		.loc 6 75 13 view .LVU1721
  75:OledDisplayExtravaganza.cpp ****             OledDisplay::SetCursor(xinit, yinit + 12);
 7197              		.loc 6 75 26 is_stmt 0 view .LVU1722
 7198 015c DDED037A 		vldr.32	s15, [sp, #12]	@ int
 7199 0160 3946     		mov	r1, r7
 7200              	.LVL576:
  75:OledDisplayExtravaganza.cpp ****             OledDisplay::SetCursor(xinit, yinit + 12);
 7201              		.loc 6 75 26 view .LVU1723
 7202 0162 DFF80081 		ldr	r8, .L627+24
  76:OledDisplayExtravaganza.cpp ****             OledDisplay::WriteString("tri", Font_6x8, on);
ARM GAS  C:\Users\VINCIU~1\AppData\Local\Temp\cc6DIkXk.s 			page 176


 7203              		.loc 6 76 35 view .LVU1724
 7204 0166 0C34     		adds	r4, r4, #12
  75:OledDisplayExtravaganza.cpp ****             OledDisplay::SetCursor(xinit, yinit + 12);
 7205              		.loc 6 75 26 view .LVU1725
 7206 0168 B8EEE71A 		vcvt.f32.s32	s2, s15
 7207 016c 07EE902A 		vmov	s15, r2	@ int
  76:OledDisplayExtravaganza.cpp ****             OledDisplay::WriteString("tri", Font_6x8, on);
 7208              		.loc 6 76 35 view .LVU1726
 7209 0170 A4B2     		uxth	r4, r4
  75:OledDisplayExtravaganza.cpp ****             OledDisplay::SetCursor(xinit, yinit + 12);
 7210              		.loc 6 75 26 view .LVU1727
 7211 0172 F8EEE70A 		vcvt.f32.s32	s1, s15
 7212 0176 DDED027A 		vldr.32	s15, [sp, #8]	@ int
 7213 017a B8EEE70A 		vcvt.f32.s32	s0, s15
 7214 017e FFF7FEFF 		bl	_ZN23OledDisplayExtravaganza7drawTriEfffb
 7215              	.LVL577:
  76:OledDisplayExtravaganza.cpp ****             OledDisplay::WriteString("tri", Font_6x8, on);
 7216              		.loc 6 76 13 is_stmt 1 view .LVU1728
 7217              	.LBB1215:
 7218              	.LBB1216:
 133:../../libdaisy/src/hid/disp/display.h ****         currentY_ = (y >= Height()) ? Height() - 1 : y;
 7219              		.loc 3 133 33 is_stmt 0 view .LVU1729
 7220 0182 3368     		ldr	r3, [r6]
 7221              	.LBE1216:
 7222              	.LBE1215:
  76:OledDisplayExtravaganza.cpp ****             OledDisplay::WriteString("tri", Font_6x8, on);
 7223              		.loc 6 76 35 view .LVU1730
 7224 0184 BDF80850 		ldrh	r5, [sp, #8]
 7225              	.LVL578:
 7226              	.LBB1222:
 7227              	.LBI1215:
 131:../../libdaisy/src/hid/disp/display.h ****     {
 7228              		.loc 3 131 10 is_stmt 1 view .LVU1731
 7229              	.LBB1217:
 133:../../libdaisy/src/hid/disp/display.h ****         currentY_ = (y >= Height()) ? Height() - 1 : y;
 7230              		.loc 3 133 9 view .LVU1732
 133:../../libdaisy/src/hid/disp/display.h ****         currentY_ = (y >= Height()) ? Height() - 1 : y;
 7231              		.loc 3 133 33 is_stmt 0 view .LVU1733
 7232 0188 DA68     		ldr	r2, [r3, #12]
 7233 018a 4245     		cmp	r2, r8
 7234 018c 1ED1     		bne	.L623
 7235 018e 8020     		movs	r0, #128
 7236              	.L575:
 133:../../libdaisy/src/hid/disp/display.h ****         currentY_ = (y >= Height()) ? Height() - 1 : y;
 7237              		.loc 3 133 19 view .LVU1734
 7238 0190 8542     		cmp	r5, r0
 7239 0192 03D3     		bcc	.L576
 133:../../libdaisy/src/hid/disp/display.h ****         currentY_ = (y >= Height()) ? Height() - 1 : y;
 7240              		.loc 3 133 44 view .LVU1735
 7241 0194 DA68     		ldr	r2, [r3, #12]
 7242 0196 4245     		cmp	r2, r8
 7243 0198 2CD1     		bne	.L624
 7244 019a 7F25     		movs	r5, #127
 7245              	.LVL579:
 7246              	.L576:
 134:../../libdaisy/src/hid/disp/display.h ****     }
 7247              		.loc 3 134 34 view .LVU1736
ARM GAS  C:\Users\VINCIU~1\AppData\Local\Temp\cc6DIkXk.s 			page 177


 7248 019c 9B68     		ldr	r3, [r3, #8]
 133:../../libdaisy/src/hid/disp/display.h ****         currentY_ = (y >= Height()) ? Height() - 1 : y;
 7249              		.loc 3 133 19 view .LVU1737
 7250 019e B580     		strh	r5, [r6, #4]	@ movhi
 134:../../libdaisy/src/hid/disp/display.h ****     }
 7251              		.loc 3 134 9 is_stmt 1 view .LVU1738
 7252 01a0 2A4D     		ldr	r5, .L627
 7253 01a2 AB42     		cmp	r3, r5
 7254 01a4 20D1     		bne	.L625
 134:../../libdaisy/src/hid/disp/display.h ****     }
 7255              		.loc 3 134 34 is_stmt 0 view .LVU1739
 7256 01a6 4020     		movs	r0, #64
 7257              	.L578:
 134:../../libdaisy/src/hid/disp/display.h ****     }
 7258              		.loc 3 134 19 view .LVU1740
 7259 01a8 8442     		cmp	r4, r0
 7260 01aa 04D3     		bcc	.L579
 134:../../libdaisy/src/hid/disp/display.h ****     }
 7261              		.loc 3 134 46 view .LVU1741
 7262 01ac 3368     		ldr	r3, [r6]
 7263 01ae 9B68     		ldr	r3, [r3, #8]
 7264 01b0 AB42     		cmp	r3, r5
 7265 01b2 30D1     		bne	.L626
 7266 01b4 3F24     		movs	r4, #63
 7267              	.LVL580:
 7268              	.L579:
 134:../../libdaisy/src/hid/disp/display.h ****     }
 7269              		.loc 3 134 46 view .LVU1742
 7270              	.LBE1217:
 7271              	.LBE1222:
  77:OledDisplayExtravaganza.cpp ****             break;
 7272              		.loc 6 77 37 view .LVU1743
 7273 01b6 264B     		ldr	r3, .L627+4
 7274 01b8 2949     		ldr	r1, .L627+20
 7275 01ba 64E7     		b	.L610
 7276              	.LVL581:
 7277              	.L615:
 7278              	.LBB1223:
 7279              	.LBB1202:
 133:../../libdaisy/src/hid/disp/display.h ****         currentY_ = (y >= Height()) ? Height() - 1 : y;
 7280              		.loc 3 133 32 view .LVU1744
 7281 01bc 3046     		mov	r0, r6
 7282 01be 9047     		blx	r2
 7283              	.LVL582:
 133:../../libdaisy/src/hid/disp/display.h ****         currentY_ = (y >= Height()) ? Height() - 1 : y;
 7284              		.loc 3 133 44 view .LVU1745
 7285 01c0 3368     		ldr	r3, [r6]
 7286 01c2 83E7     		b	.L587
 7287              	.LVL583:
 7288              	.L619:
 133:../../libdaisy/src/hid/disp/display.h ****         currentY_ = (y >= Height()) ? Height() - 1 : y;
 7289              		.loc 3 133 44 view .LVU1746
 7290              	.LBE1202:
 7291              	.LBE1223:
 7292              	.LBB1224:
 7293              	.LBB1210:
 133:../../libdaisy/src/hid/disp/display.h ****         currentY_ = (y >= Height()) ? Height() - 1 : y;
ARM GAS  C:\Users\VINCIU~1\AppData\Local\Temp\cc6DIkXk.s 			page 178


 7294              		.loc 3 133 32 view .LVU1747
 7295 01c4 3046     		mov	r0, r6
 7296 01c6 9047     		blx	r2
 7297              	.LVL584:
 133:../../libdaisy/src/hid/disp/display.h ****         currentY_ = (y >= Height()) ? Height() - 1 : y;
 7298              		.loc 3 133 44 view .LVU1748
 7299 01c8 3368     		ldr	r3, [r6]
 7300 01ca B1E7     		b	.L581
 7301              	.LVL585:
 7302              	.L623:
 133:../../libdaisy/src/hid/disp/display.h ****         currentY_ = (y >= Height()) ? Height() - 1 : y;
 7303              		.loc 3 133 44 view .LVU1749
 7304              	.LBE1210:
 7305              	.LBE1224:
 7306              	.LBB1225:
 7307              	.LBB1218:
 133:../../libdaisy/src/hid/disp/display.h ****         currentY_ = (y >= Height()) ? Height() - 1 : y;
 7308              		.loc 3 133 32 view .LVU1750
 7309 01cc 3046     		mov	r0, r6
 7310 01ce 9047     		blx	r2
 7311              	.LVL586:
 133:../../libdaisy/src/hid/disp/display.h ****         currentY_ = (y >= Height()) ? Height() - 1 : y;
 7312              		.loc 3 133 44 view .LVU1751
 7313 01d0 3368     		ldr	r3, [r6]
 7314 01d2 DDE7     		b	.L575
 7315              	.LVL587:
 7316              	.L611:
 133:../../libdaisy/src/hid/disp/display.h ****         currentY_ = (y >= Height()) ? Height() - 1 : y;
 7317              		.loc 3 133 44 view .LVU1752
 7318              	.LBE1218:
 7319              	.LBE1225:
 7320              	.LBB1226:
 7321              	.LBB1193:
 133:../../libdaisy/src/hid/disp/display.h ****         currentY_ = (y >= Height()) ? Height() - 1 : y;
 7322              		.loc 3 133 32 view .LVU1753
 7323 01d4 3046     		mov	r0, r6
 7324 01d6 9047     		blx	r2
 7325              	.LVL588:
 133:../../libdaisy/src/hid/disp/display.h ****         currentY_ = (y >= Height()) ? Height() - 1 : y;
 7326              		.loc 3 133 44 view .LVU1754
 7327 01d8 3368     		ldr	r3, [r6]
 7328 01da 3CE7     		b	.L569
 7329              	.LVL589:
 7330              	.L621:
 133:../../libdaisy/src/hid/disp/display.h ****         currentY_ = (y >= Height()) ? Height() - 1 : y;
 7331              		.loc 3 133 44 view .LVU1755
 7332              	.LBE1193:
 7333              	.LBE1226:
 7334              	.LBB1227:
 7335              	.LBB1211:
 134:../../libdaisy/src/hid/disp/display.h ****     }
 7336              		.loc 3 134 33 view .LVU1756
 7337 01dc 3046     		mov	r0, r6
 7338 01de 9847     		blx	r3
 7339              	.LVL590:
 7340 01e0 B2E7     		b	.L584
 7341              	.LVL591:
ARM GAS  C:\Users\VINCIU~1\AppData\Local\Temp\cc6DIkXk.s 			page 179


 7342              	.L617:
 134:../../libdaisy/src/hid/disp/display.h ****     }
 7343              		.loc 3 134 33 view .LVU1757
 7344              	.LBE1211:
 7345              	.LBE1227:
 7346              	.LBB1228:
 7347              	.LBB1203:
 7348 01e2 3046     		mov	r0, r6
 7349 01e4 9847     		blx	r3
 7350              	.LVL592:
 7351 01e6 7EE7     		b	.L590
 7352              	.LVL593:
 7353              	.L625:
 134:../../libdaisy/src/hid/disp/display.h ****     }
 7354              		.loc 3 134 33 view .LVU1758
 7355              	.LBE1203:
 7356              	.LBE1228:
 7357              	.LBB1229:
 7358              	.LBB1219:
 7359 01e8 3046     		mov	r0, r6
 7360 01ea 9847     		blx	r3
 7361              	.LVL594:
 7362 01ec DCE7     		b	.L578
 7363              	.LVL595:
 7364              	.L613:
 134:../../libdaisy/src/hid/disp/display.h ****     }
 7365              		.loc 3 134 33 view .LVU1759
 7366              	.LBE1219:
 7367              	.LBE1229:
 7368              	.LBB1230:
 7369              	.LBB1194:
 7370 01ee 3046     		mov	r0, r6
 7371 01f0 9847     		blx	r3
 7372              	.LVL596:
 7373 01f2 3EE7     		b	.L572
 7374              	.LVL597:
 7375              	.L624:
 134:../../libdaisy/src/hid/disp/display.h ****     }
 7376              		.loc 3 134 33 view .LVU1760
 7377              	.LBE1194:
 7378              	.LBE1230:
 7379              	.LBB1231:
 7380              	.LBB1220:
 133:../../libdaisy/src/hid/disp/display.h ****         currentY_ = (y >= Height()) ? Height() - 1 : y;
 7381              		.loc 3 133 43 view .LVU1761
 7382 01f4 3046     		mov	r0, r6
 7383 01f6 9047     		blx	r2
 7384              	.LVL598:
 133:../../libdaisy/src/hid/disp/display.h ****         currentY_ = (y >= Height()) ? Height() - 1 : y;
 7385              		.loc 3 133 19 view .LVU1762
 7386 01f8 0138     		subs	r0, r0, #1
 134:../../libdaisy/src/hid/disp/display.h ****     }
 7387              		.loc 3 134 34 view .LVU1763
 7388 01fa 3368     		ldr	r3, [r6]
 133:../../libdaisy/src/hid/disp/display.h ****         currentY_ = (y >= Height()) ? Height() - 1 : y;
 7389              		.loc 3 133 19 view .LVU1764
 7390 01fc 85B2     		uxth	r5, r0
ARM GAS  C:\Users\VINCIU~1\AppData\Local\Temp\cc6DIkXk.s 			page 180


 7391              	.LVL599:
 133:../../libdaisy/src/hid/disp/display.h ****         currentY_ = (y >= Height()) ? Height() - 1 : y;
 7392              		.loc 3 133 19 view .LVU1765
 7393 01fe CDE7     		b	.L576
 7394              	.LVL600:
 7395              	.L614:
 133:../../libdaisy/src/hid/disp/display.h ****         currentY_ = (y >= Height()) ? Height() - 1 : y;
 7396              		.loc 3 133 19 view .LVU1766
 7397              	.LBE1220:
 7398              	.LBE1231:
 7399              	.LBB1232:
 7400              	.LBB1195:
 134:../../libdaisy/src/hid/disp/display.h ****     }
 7401              		.loc 3 134 45 view .LVU1767
 7402 0200 3046     		mov	r0, r6
 7403 0202 9847     		blx	r3
 7404              	.LVL601:
 134:../../libdaisy/src/hid/disp/display.h ****     }
 7405              		.loc 3 134 19 view .LVU1768
 7406 0204 0138     		subs	r0, r0, #1
 7407 0206 84B2     		uxth	r4, r0
 7408              	.LVL602:
 134:../../libdaisy/src/hid/disp/display.h ****     }
 7409              		.loc 3 134 19 view .LVU1769
 7410 0208 3BE7     		b	.L573
 7411              	.LVL603:
 7412              	.L620:
 134:../../libdaisy/src/hid/disp/display.h ****     }
 7413              		.loc 3 134 19 view .LVU1770
 7414              	.LBE1195:
 7415              	.LBE1232:
 7416              	.LBB1233:
 7417              	.LBB1212:
 133:../../libdaisy/src/hid/disp/display.h ****         currentY_ = (y >= Height()) ? Height() - 1 : y;
 7418              		.loc 3 133 43 view .LVU1771
 7419 020a 3046     		mov	r0, r6
 7420 020c 9047     		blx	r2
 7421              	.LVL604:
 133:../../libdaisy/src/hid/disp/display.h ****         currentY_ = (y >= Height()) ? Height() - 1 : y;
 7422              		.loc 3 133 19 view .LVU1772
 7423 020e 0138     		subs	r0, r0, #1
 134:../../libdaisy/src/hid/disp/display.h ****     }
 7424              		.loc 3 134 34 view .LVU1773
 7425 0210 3368     		ldr	r3, [r6]
 133:../../libdaisy/src/hid/disp/display.h ****         currentY_ = (y >= Height()) ? Height() - 1 : y;
 7426              		.loc 3 133 19 view .LVU1774
 7427 0212 85B2     		uxth	r5, r0
 7428              	.LVL605:
 133:../../libdaisy/src/hid/disp/display.h ****         currentY_ = (y >= Height()) ? Height() - 1 : y;
 7429              		.loc 3 133 19 view .LVU1775
 7430 0214 92E7     		b	.L582
 7431              	.LVL606:
 7432              	.L626:
 133:../../libdaisy/src/hid/disp/display.h ****         currentY_ = (y >= Height()) ? Height() - 1 : y;
 7433              		.loc 3 133 19 view .LVU1776
 7434              	.LBE1212:
 7435              	.LBE1233:
ARM GAS  C:\Users\VINCIU~1\AppData\Local\Temp\cc6DIkXk.s 			page 181


 7436              	.LBB1234:
 7437              	.LBB1221:
 134:../../libdaisy/src/hid/disp/display.h ****     }
 7438              		.loc 3 134 45 view .LVU1777
 7439 0216 3046     		mov	r0, r6
 7440 0218 9847     		blx	r3
 7441              	.LVL607:
 134:../../libdaisy/src/hid/disp/display.h ****     }
 7442              		.loc 3 134 19 view .LVU1778
 7443 021a 0138     		subs	r0, r0, #1
 7444 021c 84B2     		uxth	r4, r0
 7445              	.LVL608:
 134:../../libdaisy/src/hid/disp/display.h ****     }
 7446              		.loc 3 134 19 view .LVU1779
 7447 021e CAE7     		b	.L579
 7448              	.LVL609:
 7449              	.L622:
 134:../../libdaisy/src/hid/disp/display.h ****     }
 7450              		.loc 3 134 19 view .LVU1780
 7451              	.LBE1221:
 7452              	.LBE1234:
 7453              	.LBB1235:
 7454              	.LBB1213:
 134:../../libdaisy/src/hid/disp/display.h ****     }
 7455              		.loc 3 134 45 view .LVU1781
 7456 0220 3046     		mov	r0, r6
 7457 0222 9847     		blx	r3
 7458              	.LVL610:
 134:../../libdaisy/src/hid/disp/display.h ****     }
 7459              		.loc 3 134 19 view .LVU1782
 7460 0224 0138     		subs	r0, r0, #1
 7461 0226 84B2     		uxth	r4, r0
 7462              	.LVL611:
 134:../../libdaisy/src/hid/disp/display.h ****     }
 7463              		.loc 3 134 19 view .LVU1783
 7464 0228 95E7     		b	.L585
 7465              	.LVL612:
 7466              	.L616:
 134:../../libdaisy/src/hid/disp/display.h ****     }
 7467              		.loc 3 134 19 view .LVU1784
 7468              	.LBE1213:
 7469              	.LBE1235:
 7470              	.LBB1236:
 7471              	.LBB1204:
 133:../../libdaisy/src/hid/disp/display.h ****         currentY_ = (y >= Height()) ? Height() - 1 : y;
 7472              		.loc 3 133 43 view .LVU1785
 7473 022a 3046     		mov	r0, r6
 7474 022c 9047     		blx	r2
 7475              	.LVL613:
 133:../../libdaisy/src/hid/disp/display.h ****         currentY_ = (y >= Height()) ? Height() - 1 : y;
 7476              		.loc 3 133 19 view .LVU1786
 7477 022e 451E     		subs	r5, r0, #1
 7478              	.LVL614:
 134:../../libdaisy/src/hid/disp/display.h ****     }
 7479              		.loc 3 134 34 view .LVU1787
 7480 0230 3368     		ldr	r3, [r6]
 133:../../libdaisy/src/hid/disp/display.h ****         currentY_ = (y >= Height()) ? Height() - 1 : y;
ARM GAS  C:\Users\VINCIU~1\AppData\Local\Temp\cc6DIkXk.s 			page 182


 7481              		.loc 3 133 19 view .LVU1788
 7482 0232 ADB2     		uxth	r5, r5
 7483 0234 51E7     		b	.L588
 7484              	.L618:
 134:../../libdaisy/src/hid/disp/display.h ****     }
 7485              		.loc 3 134 45 view .LVU1789
 7486 0236 3046     		mov	r0, r6
 7487 0238 9847     		blx	r3
 7488              	.LVL615:
 134:../../libdaisy/src/hid/disp/display.h ****     }
 7489              		.loc 3 134 19 view .LVU1790
 7490 023a 0138     		subs	r0, r0, #1
 7491 023c 84B2     		uxth	r4, r0
 7492              	.LVL616:
 134:../../libdaisy/src/hid/disp/display.h ****     }
 7493              		.loc 3 134 19 view .LVU1791
 7494 023e 5AE7     		b	.L591
 7495              	.LVL617:
 7496              	.L612:
 134:../../libdaisy/src/hid/disp/display.h ****     }
 7497              		.loc 3 134 19 view .LVU1792
 7498              	.LBE1204:
 7499              	.LBE1236:
 7500              	.LBB1237:
 7501              	.LBB1196:
 133:../../libdaisy/src/hid/disp/display.h ****         currentY_ = (y >= Height()) ? Height() - 1 : y;
 7502              		.loc 3 133 43 view .LVU1793
 7503 0240 3046     		mov	r0, r6
 7504 0242 9047     		blx	r2
 7505              	.LVL618:
 133:../../libdaisy/src/hid/disp/display.h ****         currentY_ = (y >= Height()) ? Height() - 1 : y;
 7506              		.loc 3 133 19 view .LVU1794
 7507 0244 0138     		subs	r0, r0, #1
 134:../../libdaisy/src/hid/disp/display.h ****     }
 7508              		.loc 3 134 34 view .LVU1795
 7509 0246 3368     		ldr	r3, [r6]
 133:../../libdaisy/src/hid/disp/display.h ****         currentY_ = (y >= Height()) ? Height() - 1 : y;
 7510              		.loc 3 133 19 view .LVU1796
 7511 0248 85B2     		uxth	r5, r0
 7512              	.LVL619:
 133:../../libdaisy/src/hid/disp/display.h ****         currentY_ = (y >= Height()) ? Height() - 1 : y;
 7513              		.loc 3 133 19 view .LVU1797
 7514 024a 0BE7     		b	.L570
 7515              	.L628:
 7516              		.align	2
 7517              	.L627:
 7518 024c 00000000 		.word	_ZNK5daisy11OledDisplayINS_13SSD130xDriverILj128ELj64ENS_24SSD130x4WireSpiTransportEEEE6Heig
 7519 0250 00000000 		.word	Font_6x8
 7520 0254 00000000 		.word	.LC2
 7521 0258 00000000 		.word	.LC1
 7522 025c 00000000 		.word	.LC0
 7523 0260 04000000 		.word	.LC3
 7524 0264 00000000 		.word	_ZNK5daisy11OledDisplayINS_13SSD130xDriverILj128ELj64ENS_24SSD130x4WireSpiTransportEEEE5Widt
 7525              	.LBE1196:
 7526              	.LBE1237:
 7527              		.cfi_endproc
 7528              	.LFE1820:
ARM GAS  C:\Users\VINCIU~1\AppData\Local\Temp\cc6DIkXk.s 			page 183


 7530              		.section	.text._ZN23OledDisplayExtravaganza8drawDialEffffbPKc,"ax",%progbits
 7531              		.align	1
 7532              		.p2align 2,,3
 7533              		.global	_ZN23OledDisplayExtravaganza8drawDialEffffbPKc
 7534              		.syntax unified
 7535              		.thumb
 7536              		.thumb_func
 7537              		.fpu fpv5-d16
 7539              	_ZN23OledDisplayExtravaganza8drawDialEffffbPKc:
 7540              	.LVL620:
 7541              	.LFB1821:
  93:OledDisplayExtravaganza.cpp **** 
  94:OledDisplayExtravaganza.cpp **** void OledDisplayExtravaganza::drawDial(float       x,
  95:OledDisplayExtravaganza.cpp ****                                        float       y,
  96:OledDisplayExtravaganza.cpp ****                                        float       radius,
  97:OledDisplayExtravaganza.cpp ****                                        float       amount,
  98:OledDisplayExtravaganza.cpp ****                                        bool        on,
  99:OledDisplayExtravaganza.cpp ****                                        const char* label)
 100:OledDisplayExtravaganza.cpp **** {
 7542              		.loc 6 100 1 is_stmt 1 view -0
 7543              		.cfi_startproc
 7544              		@ args = 0, pretend = 0, frame = 0
 7545              		@ frame_needed = 0, uses_anonymous_args = 0
 101:OledDisplayExtravaganza.cpp ****     float factor = 90;
 7546              		.loc 6 101 5 view .LVU1799
 102:OledDisplayExtravaganza.cpp ****     amount       = (amount * (360 - factor));
 7547              		.loc 6 102 5 view .LVU1800
 7548              		.loc 6 102 18 is_stmt 0 view .LVU1801
 7549 0000 DFED5D7A 		vldr.32	s15, .L656+8
 7550              	.LVL621:
 103:OledDisplayExtravaganza.cpp ****     for(int i = 0; i < 2; i++)
 7551              		.loc 6 103 5 is_stmt 1 view .LVU1802
 7552              	.LBB1262:
 7553              		.loc 6 103 22 view .LVU1803
 104:OledDisplayExtravaganza.cpp ****     {
 105:OledDisplayExtravaganza.cpp ****         OledDisplay::DrawArc(x, y, radius - (i * 1), 180 + factor, -amount, on);
 7554              		.loc 6 105 9 view .LVU1804
 7555              		.loc 6 105 68 is_stmt 0 view .LVU1805
 7556 0004 67EEE11A 		vnmul.f32	s3, s15, s3
 7557              	.LVL622:
 7558              		.loc 6 105 29 view .LVU1806
 7559 0008 FCEEC07A 		vcvt.u32.f32	s15, s0
 7560              	.LBE1262:
 100:OledDisplayExtravaganza.cpp ****     float factor = 90;
 7561              		.loc 6 100 1 view .LVU1807
 7562 000c 2DE9F047 		push	{r4, r5, r6, r7, r8, r9, r10, lr}
 7563              		.cfi_def_cfa_offset 32
 7564              		.cfi_offset 4, -32
 7565              		.cfi_offset 5, -28
 7566              		.cfi_offset 6, -24
 7567              		.cfi_offset 7, -20
 7568              		.cfi_offset 8, -16
 7569              		.cfi_offset 9, -12
 7570              		.cfi_offset 10, -8
 7571              		.cfi_offset 14, -4
 7572              	.LBB1263:
 7573              		.loc 6 105 29 view .LVU1808
ARM GAS  C:\Users\VINCIU~1\AppData\Local\Temp\cc6DIkXk.s 			page 184


 7574 0010 17EE905A 		vmov	r5, s15	@ int
 7575 0014 FDEEE17A 		vcvt.s32.f32	s15, s3
 7576 0018 4FF4877A 		mov	r10, #270
 7577              	.LBE1263:
 100:OledDisplayExtravaganza.cpp ****     float factor = 90;
 7578              		.loc 6 100 1 view .LVU1809
 7579 001c 8946     		mov	r9, r1
 7580 001e 1646     		mov	r6, r2
 7581 0020 0446     		mov	r4, r0
 7582              	.LBB1264:
 7583              		.loc 6 105 29 view .LVU1810
 7584 0022 17EE908A 		vmov	r8, s15	@ int
 7585              	.LBE1264:
 100:OledDisplayExtravaganza.cpp ****     float factor = 90;
 7586              		.loc 6 100 1 view .LVU1811
 7587 0026 2DED048B 		vpush.64	{d8, d9}
 7588              		.cfi_def_cfa_offset 48
 7589              		.cfi_offset 80, -48
 7590              		.cfi_offset 81, -44
 7591              		.cfi_offset 82, -40
 7592              		.cfi_offset 83, -36
 7593 002a 84B0     		sub	sp, sp, #16
 7594              		.cfi_def_cfa_offset 64
 100:OledDisplayExtravaganza.cpp ****     float factor = 90;
 7595              		.loc 6 100 1 view .LVU1812
 7596 002c F0EE418A 		vmov.f32	s17, s2
 7597 0030 B0EE608A 		vmov.f32	s16, s1
 7598              	.LBB1265:
 7599              		.loc 6 105 29 view .LVU1813
 7600 0034 CDED017A 		vstr.32	s15, [sp, #4]	@ int
 7601 0038 FCEEE07A 		vcvt.u32.f32	s15, s1
 7602 003c 0291     		str	r1, [sp, #8]
 7603 003e 2946     		mov	r1, r5
 7604              	.LVL623:
 7605              		.loc 6 105 29 view .LVU1814
 7606 0040 CDF800A0 		str	r10, [sp]
 7607              	.LBE1265:
 100:OledDisplayExtravaganza.cpp ****     float factor = 90;
 7608              		.loc 6 100 1 view .LVU1815
 7609 0044 B0EE409A 		vmov.f32	s18, s0
 7610              	.LBB1266:
 7611              		.loc 6 105 29 view .LVU1816
 7612 0048 17EE907A 		vmov	r7, s15	@ int
 7613 004c FCEEC17A 		vcvt.u32.f32	s15, s2
 7614 0050 3A46     		mov	r2, r7
 7615              	.LVL624:
 7616              		.loc 6 105 29 view .LVU1817
 7617 0052 17EE903A 		vmov	r3, s15	@ int
 7618 0056 FFF7FEFF 		bl	_ZN5daisy25OneBitGraphicsDisplayImplINS_11OledDisplayINS_13SSD130xDriverILj128ELj64ENS_24SSD130
 7619              	.LVL625:
 103:OledDisplayExtravaganza.cpp ****     for(int i = 0; i < 2; i++)
 7620              		.loc 6 103 5 is_stmt 1 view .LVU1818
 103:OledDisplayExtravaganza.cpp ****     for(int i = 0; i < 2; i++)
 7621              		.loc 6 103 22 view .LVU1819
 7622              		.loc 6 105 9 view .LVU1820
 7623              		.loc 6 105 43 is_stmt 0 view .LVU1821
 7624 005a F7EE007A 		vmov.f32	s15, #1.0e+0
ARM GAS  C:\Users\VINCIU~1\AppData\Local\Temp\cc6DIkXk.s 			page 185


 7625              		.loc 6 105 29 view .LVU1822
 7626 005e 3A46     		mov	r2, r7
 7627 0060 2946     		mov	r1, r5
 7628 0062 2046     		mov	r0, r4
 7629 0064 CDF800A0 		str	r10, [sp]
 7630              		.loc 6 105 43 view .LVU1823
 7631 0068 78EEE77A 		vsub.f32	s15, s17, s15
 7632              		.loc 6 105 29 view .LVU1824
 7633 006c CDE90189 		strd	r8, r9, [sp, #4]
 7634 0070 FCEEE77A 		vcvt.u32.f32	s15, s15
 7635 0074 17EE903A 		vmov	r3, s15	@ int
 7636 0078 FFF7FEFF 		bl	_ZN5daisy25OneBitGraphicsDisplayImplINS_11OledDisplayINS_13SSD130xDriverILj128ELj64ENS_24SSD130
 7637              	.LVL626:
 103:OledDisplayExtravaganza.cpp ****     for(int i = 0; i < 2; i++)
 7638              		.loc 6 103 5 is_stmt 1 view .LVU1825
 103:OledDisplayExtravaganza.cpp ****     for(int i = 0; i < 2; i++)
 7639              		.loc 6 103 22 view .LVU1826
 7640              	.LBE1266:
 106:OledDisplayExtravaganza.cpp ****     }
 107:OledDisplayExtravaganza.cpp ****     OledDisplay::DrawRect(
 7641              		.loc 6 107 5 view .LVU1827
 108:OledDisplayExtravaganza.cpp ****         x, y - radius * 0.1, x + radius, y + radius, false, true);
 7642              		.loc 6 108 12 is_stmt 0 view .LVU1828
 7643 007c B7EEC87A 		vcvt.f64.f32	d7, s16
 7644              		.loc 6 108 16 view .LVU1829
 7645 0080 B7EEE85A 		vcvt.f64.f32	d5, s17
 7646              		.loc 6 108 32 view .LVU1830
 7647 0084 39EE289A 		vadd.f32	s18, s18, s17
 7648              	.LVL627:
 7649              		.loc 6 108 44 view .LVU1831
 7650 0088 38EE288A 		vadd.f32	s16, s16, s17
 7651              	.LVL628:
 7652              		.loc 6 108 14 view .LVU1832
 7653 008c 9FED386B 		vldr.64	d6, .L656
 7654 0090 A5EE467B 		vfms.f64	d7, d5, d6
 107:OledDisplayExtravaganza.cpp ****         x, y - radius * 0.1, x + radius, y + radius, false, true);
 7655              		.loc 6 107 26 view .LVU1833
 7656 0094 FCEEC77B 		vcvt.u32.f64	s15, d7
 7657 0098 17EE908A 		vmov	r8, s15	@ int
 7658 009c FCEEC97A 		vcvt.u32.f32	s15, s18
 7659 00a0 17EE909A 		vmov	r9, s15	@ int
 7660              	.LVL629:
 7661              	.LBB1267:
 7662              	.LBI1267:
 217:../../libdaisy/src/hid/disp/display.h ****                   uint_fast8_t y1,
 7663              		.loc 3 217 10 is_stmt 1 view .LVU1834
 7664              	.LBB1268:
 7665              	.LBI1268:
 217:../../libdaisy/src/hid/disp/display.h ****                   uint_fast8_t y1,
 7666              		.loc 3 217 10 view .LVU1835
 7667              	.LBB1269:
 226:../../libdaisy/src/hid/disp/display.h ****             {
 7668              		.loc 3 226 40 view .LVU1836
 7669 00a4 A945     		cmp	r9, r5
 7670 00a6 25D3     		bcc	.L634
 7671 00a8 FCEEC87A 		vcvt.u32.f32	s15, s16
 7672              	.LVL630:
ARM GAS  C:\Users\VINCIU~1\AppData\Local\Temp\cc6DIkXk.s 			page 186


 226:../../libdaisy/src/hid/disp/display.h ****             {
 7673              		.loc 3 226 40 is_stmt 0 view .LVU1837
 7674 00ac 2A46     		mov	r2, r5
 7675 00ae 17EE901A 		vmov	r1, s15	@ int
 7676              	.LVL631:
 7677              	.L630:
 7678              	.LBB1270:
 228:../../libdaisy/src/hid/disp/display.h ****                 {
 7679              		.loc 3 228 44 is_stmt 1 view .LVU1838
 7680 00b2 8845     		cmp	r8, r1
 7681 00b4 1BD8     		bhi	.L636
 7682              	.LBB1271:
 7683              	.LBB1272:
 7684              	.LBB1273:
 241:../../libdaisy/src/dev/oled_ssd130x.h ****             return;
 7685              		.loc 4 241 14 is_stmt 0 view .LVU1839
 7686 00b6 7F2A     		cmp	r2, #127
 7687 00b8 4346     		mov	r3, r8
 7688 00ba 94BF     		ite	ls
 7689 00bc 0020     		movls	r0, #0
 7690 00be 0120     		movhi	r0, #1
 7691              	.LVL632:
 7692              	.L637:
 241:../../libdaisy/src/dev/oled_ssd130x.h ****             return;
 7693              		.loc 4 241 14 view .LVU1840
 7694              	.LBE1273:
 7695              	.LBE1272:
 7696              	.LBI1271:
  41:../../libdaisy/src/hid/disp/oled_display.h ****     {
 7697              		.loc 2 41 10 is_stmt 1 view .LVU1841
 7698              	.LBB1288:
 7699              	.LBI1272:
 239:../../libdaisy/src/dev/oled_ssd130x.h ****     {
 7700              		.loc 4 239 10 view .LVU1842
 7701              	.LBB1285:
 7702              	.LBB1274:
 7703              	.LBI1274:
 239:../../libdaisy/src/dev/oled_ssd130x.h ****     {
 7704              		.loc 4 239 10 view .LVU1843
 239:../../libdaisy/src/dev/oled_ssd130x.h ****     {
 7705              		.loc 4 239 10 is_stmt 0 view .LVU1844
 7706              	.LBE1274:
 7707              	.LBE1285:
 7708              	.LBE1288:
 7709              	.LBE1271:
 228:../../libdaisy/src/hid/disp/display.h ****                 {
 7710              		.loc 3 228 17 is_stmt 1 view .LVU1845
 7711              	.LBB1291:
 7712              	.LBB1289:
 7713              	.LBB1286:
 7714              	.LBB1280:
 7715              	.LBB1275:
 246:../../libdaisy/src/dev/oled_ssd130x.h ****     }
 7716              		.loc 4 246 28 is_stmt 0 view .LVU1846
 7717 00c0 4FEAD30C 		lsr	ip, r3, #3
 246:../../libdaisy/src/dev/oled_ssd130x.h ****     }
 7718              		.loc 4 246 55 view .LVU1847
ARM GAS  C:\Users\VINCIU~1\AppData\Local\Temp\cc6DIkXk.s 			page 187


 7719 00c4 03F0070A 		and	r10, r3, #7
 246:../../libdaisy/src/dev/oled_ssd130x.h ****     }
 7720              		.loc 4 246 49 view .LVU1848
 7721 00c8 4FF0010E 		mov	lr, #1
 7722              	.LBE1275:
 7723              	.LBE1280:
 241:../../libdaisy/src/dev/oled_ssd130x.h ****             return;
 7724              		.loc 4 241 9 view .LVU1849
 7725 00cc 3F2B     		cmp	r3, #63
 7726              	.LBB1281:
 7727              	.LBB1276:
 246:../../libdaisy/src/dev/oled_ssd130x.h ****     }
 7728              		.loc 4 246 42 view .LVU1850
 7729 00ce 02EBCC1C 		add	ip, r2, ip, lsl #7
 7730              	.LBE1276:
 7731              	.LBE1281:
 7732              	.LBE1286:
 7733              	.LBE1289:
 7734              	.LBE1291:
 228:../../libdaisy/src/hid/disp/display.h ****                 {
 7735              		.loc 3 228 17 view .LVU1851
 7736 00d2 7344     		add	r3, r3, lr
 7737              	.LVL633:
 228:../../libdaisy/src/hid/disp/display.h ****                 {
 7738              		.loc 3 228 44 is_stmt 1 view .LVU1852
 7739              	.LBB1292:
 7740              	.LBB1290:
 7741              	.LBB1287:
 7742              	.LBB1282:
 7743              	.LBB1277:
 246:../../libdaisy/src/dev/oled_ssd130x.h ****     }
 7744              		.loc 4 246 49 is_stmt 0 view .LVU1853
 7745 00d4 0EFA0AFE 		lsl	lr, lr, r10
 7746              	.LBE1277:
 7747              	.LBE1282:
 241:../../libdaisy/src/dev/oled_ssd130x.h ****             return;
 7748              		.loc 4 241 9 view .LVU1854
 7749 00d8 07D8     		bhi	.L635
 7750              	.LBB1283:
 7751              	.LBB1278:
 246:../../libdaisy/src/dev/oled_ssd130x.h ****     }
 7752              		.loc 4 246 42 view .LVU1855
 7753 00da A444     		add	ip, ip, r4
 7754              	.LBE1278:
 7755              	.LBE1283:
 241:../../libdaisy/src/dev/oled_ssd130x.h ****             return;
 7756              		.loc 4 241 9 view .LVU1856
 7757 00dc 28B9     		cbnz	r0, .L635
 7758              	.LBB1284:
 7759              	.LBB1279:
 246:../../libdaisy/src/dev/oled_ssd130x.h ****     }
 7760              		.loc 4 246 42 view .LVU1857
 7761 00de 9CF814A0 		ldrb	r10, [ip, #20]	@ zero_extendqisi2
 7762 00e2 2AEA0E0E 		bic	lr, r10, lr
 7763 00e6 8CF814E0 		strb	lr, [ip, #20]
 7764              	.L635:
 246:../../libdaisy/src/dev/oled_ssd130x.h ****     }
ARM GAS  C:\Users\VINCIU~1\AppData\Local\Temp\cc6DIkXk.s 			page 188


 7765              		.loc 4 246 42 view .LVU1858
 7766              	.LBE1279:
 7767              	.LBE1284:
 7768              	.LBE1287:
 7769              	.LBE1290:
 7770              	.LBE1292:
 228:../../libdaisy/src/hid/disp/display.h ****                 {
 7771              		.loc 3 228 44 view .LVU1859
 7772 00ea 9942     		cmp	r1, r3
 7773 00ec E8D2     		bcs	.L637
 7774              	.LVL634:
 7775              	.L636:
 228:../../libdaisy/src/hid/disp/display.h ****                 {
 7776              		.loc 3 228 44 view .LVU1860
 7777              	.LBE1270:
 226:../../libdaisy/src/hid/disp/display.h ****             {
 7778              		.loc 3 226 13 is_stmt 1 view .LVU1861
 7779 00ee 0132     		adds	r2, r2, #1
 7780              	.LVL635:
 226:../../libdaisy/src/hid/disp/display.h ****             {
 7781              		.loc 3 226 40 view .LVU1862
 7782 00f0 9145     		cmp	r9, r2
 7783 00f2 DED2     		bcs	.L630
 7784              	.LVL636:
 7785              	.L634:
 226:../../libdaisy/src/hid/disp/display.h ****             {
 7786              		.loc 3 226 40 is_stmt 0 view .LVU1863
 7787              	.LBE1269:
 7788              	.LBE1268:
 7789              	.LBE1267:
 109:OledDisplayExtravaganza.cpp ****     OledDisplay::SetCursor(x, y);
 7790              		.loc 6 109 5 is_stmt 1 view .LVU1864
 7791              	.LBB1293:
 7792              	.LBB1294:
 133:../../libdaisy/src/hid/disp/display.h ****         currentY_ = (y >= Height()) ? Height() - 1 : y;
 7793              		.loc 3 133 33 is_stmt 0 view .LVU1865
 7794 00f4 2368     		ldr	r3, [r4]
 7795              	.LBE1294:
 7796              	.LBE1293:
 7797              		.loc 6 109 27 view .LVU1866
 7798 00f6 ADB2     		uxth	r5, r5
 7799 00f8 DFF88880 		ldr	r8, .L656+20
 7800 00fc BFB2     		uxth	r7, r7
 7801              	.LVL637:
 7802              	.LBB1298:
 7803              	.LBI1293:
 131:../../libdaisy/src/hid/disp/display.h ****     {
 7804              		.loc 3 131 10 is_stmt 1 view .LVU1867
 7805              	.LBB1295:
 133:../../libdaisy/src/hid/disp/display.h ****         currentY_ = (y >= Height()) ? Height() - 1 : y;
 7806              		.loc 3 133 9 view .LVU1868
 133:../../libdaisy/src/hid/disp/display.h ****         currentY_ = (y >= Height()) ? Height() - 1 : y;
 7807              		.loc 3 133 33 is_stmt 0 view .LVU1869
 7808 00fe DA68     		ldr	r2, [r3, #12]
 7809 0100 4245     		cmp	r2, r8
 7810 0102 24D1     		bne	.L652
 7811 0104 8020     		movs	r0, #128
ARM GAS  C:\Users\VINCIU~1\AppData\Local\Temp\cc6DIkXk.s 			page 189


 7812              	.L631:
 133:../../libdaisy/src/hid/disp/display.h ****         currentY_ = (y >= Height()) ? Height() - 1 : y;
 7813              		.loc 3 133 19 view .LVU1870
 7814 0106 8542     		cmp	r5, r0
 7815 0108 03D3     		bcc	.L638
 133:../../libdaisy/src/hid/disp/display.h ****         currentY_ = (y >= Height()) ? Height() - 1 : y;
 7816              		.loc 3 133 44 view .LVU1871
 7817 010a DA68     		ldr	r2, [r3, #12]
 7818 010c 4245     		cmp	r2, r8
 7819 010e 22D1     		bne	.L653
 7820 0110 7F25     		movs	r5, #127
 7821              	.LVL638:
 7822              	.L638:
 134:../../libdaisy/src/hid/disp/display.h ****     }
 7823              		.loc 3 134 34 view .LVU1872
 7824 0112 9B68     		ldr	r3, [r3, #8]
 133:../../libdaisy/src/hid/disp/display.h ****         currentY_ = (y >= Height()) ? Height() - 1 : y;
 7825              		.loc 3 133 19 view .LVU1873
 7826 0114 A580     		strh	r5, [r4, #4]	@ movhi
 134:../../libdaisy/src/hid/disp/display.h ****     }
 7827              		.loc 3 134 9 is_stmt 1 view .LVU1874
 7828 0116 194D     		ldr	r5, .L656+12
 7829 0118 AB42     		cmp	r3, r5
 7830 011a 15D1     		bne	.L654
 134:../../libdaisy/src/hid/disp/display.h ****     }
 7831              		.loc 3 134 34 is_stmt 0 view .LVU1875
 7832 011c 4020     		movs	r0, #64
 7833              	.L640:
 134:../../libdaisy/src/hid/disp/display.h ****     }
 7834              		.loc 3 134 19 view .LVU1876
 7835 011e 8742     		cmp	r7, r0
 7836 0120 04D3     		bcc	.L641
 134:../../libdaisy/src/hid/disp/display.h ****     }
 7837              		.loc 3 134 46 view .LVU1877
 7838 0122 2368     		ldr	r3, [r4]
 7839 0124 9B68     		ldr	r3, [r3, #8]
 7840 0126 AB42     		cmp	r3, r5
 7841 0128 1BD1     		bne	.L655
 7842 012a 3F27     		movs	r7, #63
 7843              	.LVL639:
 7844              	.L641:
 134:../../libdaisy/src/hid/disp/display.h ****     }
 7845              		.loc 3 134 46 view .LVU1878
 7846              	.LBE1295:
 7847              	.LBE1298:
 110:OledDisplayExtravaganza.cpp ****     OledDisplay::WriteString(label, Font_7x10, true);
 7848              		.loc 6 110 29 view .LVU1879
 7849 012c 0122     		movs	r2, #1
 7850 012e 144B     		ldr	r3, .L656+16
 7851              	.LBB1299:
 7852              	.LBB1296:
 134:../../libdaisy/src/hid/disp/display.h ****     }
 7853              		.loc 3 134 19 view .LVU1880
 7854 0130 E780     		strh	r7, [r4, #6]	@ movhi
 7855              	.LVL640:
 134:../../libdaisy/src/hid/disp/display.h ****     }
 7856              		.loc 3 134 19 view .LVU1881
ARM GAS  C:\Users\VINCIU~1\AppData\Local\Temp\cc6DIkXk.s 			page 190


 7857              	.LBE1296:
 7858              	.LBE1299:
 7859              		.loc 6 110 5 is_stmt 1 view .LVU1882
 7860              		.loc 6 110 29 is_stmt 0 view .LVU1883
 7861 0132 3146     		mov	r1, r6
 7862 0134 0092     		str	r2, [sp]
 7863 0136 2046     		mov	r0, r4
 7864 0138 0CCB     		ldm	r3, {r2, r3}
 7865 013a FFF7FEFF 		bl	_ZN5daisy25OneBitGraphicsDisplayImplINS_11OledDisplayINS_13SSD130xDriverILj128ELj64ENS_24SSD130
 7866              	.LVL641:
 111:OledDisplayExtravaganza.cpp **** }
 7867              		.loc 6 111 1 view .LVU1884
 7868 013e 04B0     		add	sp, sp, #16
 7869              		.cfi_remember_state
 7870              		.cfi_def_cfa_offset 48
 7871              		@ sp needed
 7872 0140 BDEC048B 		vldm	sp!, {d8-d9}
 7873              		.cfi_restore 82
 7874              		.cfi_restore 83
 7875              		.cfi_restore 80
 7876              		.cfi_restore 81
 7877              		.cfi_def_cfa_offset 32
 7878 0144 BDE8F087 		pop	{r4, r5, r6, r7, r8, r9, r10, pc}
 7879              	.LVL642:
 7880              	.L654:
 7881              		.cfi_restore_state
 7882              	.LBB1300:
 7883              	.LBB1297:
 134:../../libdaisy/src/hid/disp/display.h ****     }
 7884              		.loc 3 134 33 view .LVU1885
 7885 0148 2046     		mov	r0, r4
 7886 014a 9847     		blx	r3
 7887              	.LVL643:
 7888 014c E7E7     		b	.L640
 7889              	.LVL644:
 7890              	.L652:
 133:../../libdaisy/src/hid/disp/display.h ****         currentY_ = (y >= Height()) ? Height() - 1 : y;
 7891              		.loc 3 133 32 view .LVU1886
 7892 014e 2046     		mov	r0, r4
 7893 0150 9047     		blx	r2
 7894              	.LVL645:
 133:../../libdaisy/src/hid/disp/display.h ****         currentY_ = (y >= Height()) ? Height() - 1 : y;
 7895              		.loc 3 133 44 view .LVU1887
 7896 0152 2368     		ldr	r3, [r4]
 7897 0154 D7E7     		b	.L631
 7898              	.L653:
 133:../../libdaisy/src/hid/disp/display.h ****         currentY_ = (y >= Height()) ? Height() - 1 : y;
 7899              		.loc 3 133 43 view .LVU1888
 7900 0156 2046     		mov	r0, r4
 7901 0158 9047     		blx	r2
 7902              	.LVL646:
 133:../../libdaisy/src/hid/disp/display.h ****         currentY_ = (y >= Height()) ? Height() - 1 : y;
 7903              		.loc 3 133 19 view .LVU1889
 7904 015a 451E     		subs	r5, r0, #1
 7905              	.LVL647:
 134:../../libdaisy/src/hid/disp/display.h ****     }
 7906              		.loc 3 134 34 view .LVU1890
ARM GAS  C:\Users\VINCIU~1\AppData\Local\Temp\cc6DIkXk.s 			page 191


 7907 015c 2368     		ldr	r3, [r4]
 133:../../libdaisy/src/hid/disp/display.h ****         currentY_ = (y >= Height()) ? Height() - 1 : y;
 7908              		.loc 3 133 19 view .LVU1891
 7909 015e ADB2     		uxth	r5, r5
 7910 0160 D7E7     		b	.L638
 7911              	.L655:
 134:../../libdaisy/src/hid/disp/display.h ****     }
 7912              		.loc 3 134 45 view .LVU1892
 7913 0162 2046     		mov	r0, r4
 7914 0164 9847     		blx	r3
 7915              	.LVL648:
 134:../../libdaisy/src/hid/disp/display.h ****     }
 7916              		.loc 3 134 19 view .LVU1893
 7917 0166 471E     		subs	r7, r0, #1
 7918              	.LVL649:
 134:../../libdaisy/src/hid/disp/display.h ****     }
 7919              		.loc 3 134 19 view .LVU1894
 7920 0168 BFB2     		uxth	r7, r7
 7921 016a DFE7     		b	.L641
 7922              	.L657:
 7923 016c AFF30080 		.align	3
 7924              	.L656:
 7925 0170 9A999999 		.word	-1717986918
 7926 0174 9999B93F 		.word	1069128089
 7927 0178 00008743 		.word	1132920832
 7928 017c 00000000 		.word	_ZNK5daisy11OledDisplayINS_13SSD130xDriverILj128ELj64ENS_24SSD130x4WireSpiTransportEEEE6Heig
 7929 0180 00000000 		.word	Font_7x10
 7930 0184 00000000 		.word	_ZNK5daisy11OledDisplayINS_13SSD130xDriverILj128ELj64ENS_24SSD130x4WireSpiTransportEEEE5Widt
 7931              	.LBE1297:
 7932              	.LBE1300:
 7933              		.cfi_endproc
 7934              	.LFE1821:
 7936              		.section	.rodata._ZN23OledDisplayExtravaganza20drawHorizontalToggleEfffbbPKc.str1.4,"aMS",%progbit
 7937              		.align	2
 7938              	.LC4:
 7939 0000 3100     		.ascii	"1\000"
 7940 0002 0000     		.align	2
 7941              	.LC5:
 7942 0004 3200     		.ascii	"2\000"
 7943              		.section	.text._ZN23OledDisplayExtravaganza20drawHorizontalToggleEfffbbPKc,"ax",%progbits
 7944              		.align	1
 7945              		.p2align 2,,3
 7946              		.global	_ZN23OledDisplayExtravaganza20drawHorizontalToggleEfffbbPKc
 7947              		.syntax unified
 7948              		.thumb
 7949              		.thumb_func
 7950              		.fpu fpv5-d16
 7952              	_ZN23OledDisplayExtravaganza20drawHorizontalToggleEfffbbPKc:
 7953              	.LVL650:
 7954              	.LFB1822:
 112:OledDisplayExtravaganza.cpp **** 
 113:OledDisplayExtravaganza.cpp **** 
 114:OledDisplayExtravaganza.cpp **** void OledDisplayExtravaganza::drawHorizontalToggle(float       x,
 115:OledDisplayExtravaganza.cpp ****                                                    float       y,
 116:OledDisplayExtravaganza.cpp ****                                                    float       radius,
 117:OledDisplayExtravaganza.cpp ****                                                    bool        on,
 118:OledDisplayExtravaganza.cpp ****                                                    bool        state,
ARM GAS  C:\Users\VINCIU~1\AppData\Local\Temp\cc6DIkXk.s 			page 192


 119:OledDisplayExtravaganza.cpp ****                                                    const char* label)
 120:OledDisplayExtravaganza.cpp **** {
 7955              		.loc 6 120 1 is_stmt 1 view -0
 7956              		.cfi_startproc
 7957              		@ args = 0, pretend = 0, frame = 16
 7958              		@ frame_needed = 0, uses_anonymous_args = 0
 121:OledDisplayExtravaganza.cpp ****     OledDisplay::DrawArc(x, y, radius, 270, 180, on);
 7959              		.loc 6 121 5 view .LVU1896
 7960              		.loc 6 121 25 is_stmt 0 view .LVU1897
 7961 0000 BCEEE07A 		vcvt.u32.f32	s14, s1
 7962 0004 FCEEC07A 		vcvt.u32.f32	s15, s0
 120:OledDisplayExtravaganza.cpp ****     OledDisplay::DrawArc(x, y, radius, 270, 180, on);
 7963              		.loc 6 120 1 view .LVU1898
 7964 0008 2DE9F04F 		push	{r4, r5, r6, r7, r8, r9, r10, fp, lr}
 7965              		.cfi_def_cfa_offset 36
 7966              		.cfi_offset 4, -36
 7967              		.cfi_offset 5, -32
 7968              		.cfi_offset 6, -28
 7969              		.cfi_offset 7, -24
 7970              		.cfi_offset 8, -20
 7971              		.cfi_offset 9, -16
 7972              		.cfi_offset 10, -12
 7973              		.cfi_offset 11, -8
 7974              		.cfi_offset 14, -4
 7975 000c 2DED088B 		vpush.64	{d8, d9, d10, d11}
 7976              		.cfi_def_cfa_offset 68
 7977              		.cfi_offset 80, -68
 7978              		.cfi_offset 81, -64
 7979              		.cfi_offset 82, -60
 7980              		.cfi_offset 83, -56
 7981              		.cfi_offset 84, -52
 7982              		.cfi_offset 85, -48
 7983              		.cfi_offset 86, -44
 7984              		.cfi_offset 87, -40
 7985 0010 89B0     		sub	sp, sp, #36
 7986              		.cfi_def_cfa_offset 104
 7987              		.loc 6 121 25 view .LVU1899
 7988 0012 17EE108A 		vmov	r8, s14	@ int
 7989 0016 BCEEC17A 		vcvt.u32.f32	s14, s2
 7990 001a 4FF48775 		mov	r5, #270
 120:OledDisplayExtravaganza.cpp ****     OledDisplay::DrawArc(x, y, radius, 270, 180, on);
 7991              		.loc 6 120 1 view .LVU1900
 7992 001e B0EE41AA 		vmov.f32	s20, s2
 7993 0022 0692     		str	r2, [sp, #24]
 7994 0024 B0EE408A 		vmov.f32	s16, s0
 7995              		.loc 6 121 25 view .LVU1901
 7996 0028 B422     		movs	r2, #180
 7997              	.LVL651:
 120:OledDisplayExtravaganza.cpp ****     OledDisplay::DrawArc(x, y, radius, 270, 180, on);
 7998              		.loc 6 120 1 view .LVU1902
 7999 002a 8B46     		mov	fp, r1
 8000              		.loc 6 121 25 view .LVU1903
 8001 002c 0291     		str	r1, [sp, #8]
 8002 002e 0192     		str	r2, [sp, #4]
 8003 0030 17EE901A 		vmov	r1, s15	@ int
 8004              	.LVL652:
 8005              		.loc 6 121 25 view .LVU1904
ARM GAS  C:\Users\VINCIU~1\AppData\Local\Temp\cc6DIkXk.s 			page 193


 8006 0034 4246     		mov	r2, r8
 120:OledDisplayExtravaganza.cpp ****     OledDisplay::DrawArc(x, y, radius, 270, 180, on);
 8007              		.loc 6 120 1 view .LVU1905
 8008 0036 9A46     		mov	r10, r3
 8009              		.loc 6 121 25 view .LVU1906
 8010 0038 0095     		str	r5, [sp]
 8011 003a 17EE103A 		vmov	r3, s14	@ int
 8012              	.LVL653:
 8013              		.loc 6 121 25 view .LVU1907
 8014 003e 17EE907A 		vmov	r7, s15	@ int
 120:OledDisplayExtravaganza.cpp ****     OledDisplay::DrawArc(x, y, radius, 270, 180, on);
 8015              		.loc 6 120 1 view .LVU1908
 8016 0042 F0EE60AA 		vmov.f32	s21, s1
 8017              		.loc 6 121 25 view .LVU1909
 8018 0046 F0EE67BA 		vmov.f32	s23, s15	@ int
 120:OledDisplayExtravaganza.cpp ****     OledDisplay::DrawArc(x, y, radius, 270, 180, on);
 8019              		.loc 6 120 1 view .LVU1910
 8020 004a 0446     		mov	r4, r0
 8021              		.loc 6 121 25 view .LVU1911
 8022 004c 8DED057A 		vstr.32	s14, [sp, #20]	@ int
 8023 0050 FFF7FEFF 		bl	_ZN5daisy25OneBitGraphicsDisplayImplINS_11OledDisplayINS_13SSD130xDriverILj128ELj64ENS_24SSD130
 8024              	.LVL654:
 122:OledDisplayExtravaganza.cpp ****     OledDisplay::DrawArc(x - radius, y, radius, 270, -180, on);
 8025              		.loc 6 122 5 is_stmt 1 view .LVU1912
 8026              		.loc 6 122 28 is_stmt 0 view .LVU1913
 8027 0054 78EE4A7A 		vsub.f32	s15, s16, s20
 8028              		.loc 6 122 25 view .LVU1914
 8029 0058 6FF0B302 		mvn	r2, #179
 8030 005c 059B     		ldr	r3, [sp, #20]
 8031 005e 2046     		mov	r0, r4
 8032 0060 0192     		str	r2, [sp, #4]
 8033 0062 4246     		mov	r2, r8
 8034 0064 FCEEE77A 		vcvt.u32.f32	s15, s15
 8035 0068 0095     		str	r5, [sp]
 8036 006a CDF808B0 		str	fp, [sp, #8]
 8037 006e 17EE906A 		vmov	r6, s15	@ int
 8038 0072 17EE901A 		vmov	r1, s15	@ int
 8039 0076 FFF7FEFF 		bl	_ZN5daisy25OneBitGraphicsDisplayImplINS_11OledDisplayINS_13SSD130xDriverILj128ELj64ENS_24SSD130
 8040              	.LVL655:
 123:OledDisplayExtravaganza.cpp ****     OledDisplay::DrawLine(x, y - radius, x - radius, y - radius, on);
 8041              		.loc 6 123 5 is_stmt 1 view .LVU1915
 8042              		.loc 6 123 32 is_stmt 0 view .LVU1916
 8043 007a 7AEECA7A 		vsub.f32	s15, s21, s20
 8044              	.LBB1370:
 8045              	.LBB1371:
 187:../../libdaisy/src/hid/disp/display.h ****         int_fast16_t deltaY = abs((int_fast16_t)y2 - (int_fast16_t)y1);
 8046              		.loc 3 187 52 view .LVU1917
 8047 007e F11B     		subs	r1, r6, r7
 187:../../libdaisy/src/hid/disp/display.h ****         int_fast16_t deltaY = abs((int_fast16_t)y2 - (int_fast16_t)y1);
 8048              		.loc 3 187 22 view .LVU1918
 8049 0080 0029     		cmp	r1, #0
 8050              	.LBE1371:
 8051              	.LBE1370:
 8052              		.loc 6 123 26 view .LVU1919
 8053 0082 FCEEE77A 		vcvt.u32.f32	s15, s15
 8054              	.LBB1420:
 8055              	.LBB1412:
ARM GAS  C:\Users\VINCIU~1\AppData\Local\Temp\cc6DIkXk.s 			page 194


 187:../../libdaisy/src/hid/disp/display.h ****         int_fast16_t deltaY = abs((int_fast16_t)y2 - (int_fast16_t)y1);
 8056              		.loc 3 187 22 view .LVU1920
 8057 0086 B8BF     		it	lt
 8058 0088 4942     		rsblt	r1, r1, #0
 8059              	.LBB1372:
 8060              	.LBB1373:
 8061              	.LBB1374:
 241:../../libdaisy/src/dev/oled_ssd130x.h ****             return;
 8062              		.loc 4 241 14 view .LVU1921
 8063 008a 7F2E     		cmp	r6, #127
 8064              	.LBE1374:
 8065              	.LBE1373:
 8066              	.LBE1372:
 8067              	.LBE1412:
 8068              	.LBE1420:
 8069              		.loc 6 123 26 view .LVU1922
 8070 008c 17EE90CA 		vmov	ip, s15	@ int
 8071              	.LVL656:
 8072              	.LBB1421:
 8073              	.LBI1370:
 181:../../libdaisy/src/hid/disp/display.h ****                   uint_fast8_t y1,
 8074              		.loc 3 181 10 is_stmt 1 view .LVU1923
 8075              	.LBB1413:
 8076              	.LBB1395:
 8077              	.LBB1386:
 8078              	.LBB1379:
 241:../../libdaisy/src/dev/oled_ssd130x.h ****             return;
 8079              		.loc 4 241 14 is_stmt 0 view .LVU1924
 8080 0090 94BF     		ite	ls
 8081 0092 4FF00009 		movls	r9, #0
 8082 0096 4FF00109 		movhi	r9, #1
 8083              	.LBE1379:
 8084              	.LBE1386:
 8085              	.LBE1395:
 189:../../libdaisy/src/hid/disp/display.h ****         int_fast16_t signY  = ((y1 < y2) ? 1 : -1);
 8086              		.loc 3 189 42 view .LVU1925
 8087 009a B742     		cmp	r7, r6
 8088 009c C0F07381 		bcc	.L659
 8089              	.LVL657:
 8090              	.LBB1396:
 8091              	.LBI1372:
  41:../../libdaisy/src/hid/disp/oled_display.h ****     {
 8092              		.loc 2 41 10 is_stmt 1 view .LVU1926
 8093              	.LBB1387:
 8094              	.LBI1373:
 239:../../libdaisy/src/dev/oled_ssd130x.h ****     {
 8095              		.loc 4 239 10 view .LVU1927
 8096              	.LBE1387:
 8097              	.LBE1396:
 189:../../libdaisy/src/hid/disp/display.h ****         int_fast16_t signY  = ((y1 < y2) ? 1 : -1);
 8098              		.loc 3 189 42 is_stmt 0 view .LVU1928
 8099 00a0 4FF0FF33 		mov	r3, #-1
 8100              	.LBB1397:
 8101              	.LBB1388:
 8102              	.LBB1380:
 241:../../libdaisy/src/dev/oled_ssd130x.h ****             return;
 8103              		.loc 4 241 9 view .LVU1929
ARM GAS  C:\Users\VINCIU~1\AppData\Local\Temp\cc6DIkXk.s 			page 195


 8104 00a4 BCF13F0F 		cmp	ip, #63
 8105              	.LBE1380:
 8106              	.LBE1388:
 8107              	.LBE1397:
 189:../../libdaisy/src/hid/disp/display.h ****         int_fast16_t signY  = ((y1 < y2) ? 1 : -1);
 8108              		.loc 3 189 42 view .LVU1930
 8109 00a8 0593     		str	r3, [sp, #20]
 8110              	.LBB1398:
 8111              	.LBB1389:
 8112              	.LBB1381:
 241:../../libdaisy/src/dev/oled_ssd130x.h ****             return;
 8113              		.loc 4 241 9 view .LVU1931
 8114 00aa 14D8     		bhi	.L660
 8115 00ac B9F1000F 		cmp	r9, #0
 8116 00b0 11D1     		bne	.L660
 8117              	.LVL658:
 8118              	.L706:
 244:../../libdaisy/src/dev/oled_ssd130x.h ****         else
 8119              		.loc 4 244 28 view .LVU1932
 8120 00b2 4FEADC03 		lsr	r3, ip, #3
 244:../../libdaisy/src/dev/oled_ssd130x.h ****         else
 8121              		.loc 4 244 54 view .LVU1933
 8122 00b6 0CF00700 		and	r0, ip, #7
 244:../../libdaisy/src/dev/oled_ssd130x.h ****         else
 8123              		.loc 4 244 48 view .LVU1934
 8124 00ba 0122     		movs	r2, #1
 244:../../libdaisy/src/dev/oled_ssd130x.h ****         else
 8125              		.loc 4 244 42 view .LVU1935
 8126 00bc 06EBC313 		add	r3, r6, r3, lsl #7
 8127 00c0 2344     		add	r3, r3, r4
 243:../../libdaisy/src/dev/oled_ssd130x.h ****             buffer_[x + (y / 8) * width] |= (1 << (y % 8));
 8128              		.loc 4 243 9 view .LVU1936
 8129 00c2 BBF1000F 		cmp	fp, #0
 8130 00c6 00F01A82 		beq	.L661
 244:../../libdaisy/src/dev/oled_ssd130x.h ****         else
 8131              		.loc 4 244 48 view .LVU1937
 8132 00ca 8240     		lsls	r2, r2, r0
 244:../../libdaisy/src/dev/oled_ssd130x.h ****         else
 8133              		.loc 4 244 42 view .LVU1938
 8134 00cc 187D     		ldrb	r0, [r3, #20]	@ zero_extendqisi2
 8135 00ce 4FF00009 		mov	r9, #0
 8136 00d2 0243     		orrs	r2, r2, r0
 8137 00d4 1A75     		strb	r2, [r3, #20]
 8138              	.L660:
 8139              	.LVL659:
 244:../../libdaisy/src/dev/oled_ssd130x.h ****         else
 8140              		.loc 4 244 42 view .LVU1939
 8141              	.LBE1381:
 8142              	.LBE1389:
 8143              	.LBE1398:
 199:../../libdaisy/src/hid/disp/display.h ****         {
 8144              		.loc 3 199 26 is_stmt 1 view .LVU1940
 8145 00d6 1BEE903A 		vmov	r3, s23	@ int
 8146 00da B342     		cmp	r3, r6
 8147 00dc 00F01B82 		beq	.L739
 8148              	.L663:
 8149              	.LVL660:
ARM GAS  C:\Users\VINCIU~1\AppData\Local\Temp\cc6DIkXk.s 			page 196


 187:../../libdaisy/src/hid/disp/display.h ****         int_fast16_t deltaY = abs((int_fast16_t)y2 - (int_fast16_t)y1);
 8150              		.loc 3 187 22 is_stmt 0 view .LVU1941
 8151 00e0 0846     		mov	r0, r1
 8152              	.LBE1413:
 8153              	.LBE1421:
 8154              		.loc 6 123 26 view .LVU1942
 8155 00e2 6346     		mov	r3, ip
 121:OledDisplayExtravaganza.cpp ****     OledDisplay::DrawArc(x - radius, y, radius, 270, -180, on);
 8156              		.loc 6 121 25 view .LVU1943
 8157 00e4 1BEE902A 		vmov	r2, s23	@ int
 8158              	.L666:
 8159              	.LVL661:
 8160              	.LBB1422:
 8161              	.LBB1414:
 8162              	.LBB1399:
 8163              	.LBI1399:
  41:../../libdaisy/src/hid/disp/oled_display.h ****     {
 8164              		.loc 2 41 10 is_stmt 1 view .LVU1944
 8165              	.LBB1400:
 8166              	.LBI1400:
 239:../../libdaisy/src/dev/oled_ssd130x.h ****     {
 8167              		.loc 4 239 10 view .LVU1945
 8168              	.LBB1401:
 241:../../libdaisy/src/dev/oled_ssd130x.h ****             return;
 8169              		.loc 4 241 9 is_stmt 0 view .LVU1946
 8170 00e8 7F2A     		cmp	r2, #127
 8171 00ea 13D8     		bhi	.L667
 8172 00ec 3F2B     		cmp	r3, #63
 8173 00ee 11D8     		bhi	.L667
 244:../../libdaisy/src/dev/oled_ssd130x.h ****         else
 8174              		.loc 4 244 28 view .LVU1947
 8175 00f0 DD08     		lsrs	r5, r3, #3
 244:../../libdaisy/src/dev/oled_ssd130x.h ****         else
 8176              		.loc 4 244 54 view .LVU1948
 8177 00f2 03F0070E 		and	lr, r3, #7
 244:../../libdaisy/src/dev/oled_ssd130x.h ****         else
 8178              		.loc 4 244 48 view .LVU1949
 8179 00f6 0127     		movs	r7, #1
 244:../../libdaisy/src/dev/oled_ssd130x.h ****         else
 8180              		.loc 4 244 42 view .LVU1950
 8181 00f8 02EBC515 		add	r5, r2, r5, lsl #7
 8182 00fc 2544     		add	r5, r5, r4
 243:../../libdaisy/src/dev/oled_ssd130x.h ****             buffer_[x + (y / 8) * width] |= (1 << (y % 8));
 8183              		.loc 4 243 9 view .LVU1951
 8184 00fe BBF1000F 		cmp	fp, #0
 8185 0102 00F02381 		beq	.L668
 244:../../libdaisy/src/dev/oled_ssd130x.h ****         else
 8186              		.loc 4 244 48 view .LVU1952
 8187 0106 07FA0EF7 		lsl	r7, r7, lr
 244:../../libdaisy/src/dev/oled_ssd130x.h ****         else
 8188              		.loc 4 244 42 view .LVU1953
 8189 010a 95F814E0 		ldrb	lr, [r5, #20]	@ zero_extendqisi2
 8190 010e 47EA0E07 		orr	r7, r7, lr
 8191 0112 2F75     		strb	r7, [r5, #20]
 8192              	.L667:
 8193              	.LVL662:
 244:../../libdaisy/src/dev/oled_ssd130x.h ****         else
ARM GAS  C:\Users\VINCIU~1\AppData\Local\Temp\cc6DIkXk.s 			page 197


 8194              		.loc 4 244 42 view .LVU1954
 8195              	.LBE1401:
 8196              	.LBE1400:
 8197              	.LBE1399:
 203:../../libdaisy/src/hid/disp/display.h ****             {
 8198              		.loc 3 203 13 view .LVU1955
 8199 0114 4500     		lsls	r5, r0, #1
 8200              	.LVL663:
 203:../../libdaisy/src/hid/disp/display.h ****             {
 8201              		.loc 3 203 13 view .LVU1956
 8202 0116 01D0     		beq	.L669
 206:../../libdaisy/src/hid/disp/display.h ****             }
 8203              		.loc 3 206 20 view .LVU1957
 8204 0118 059F     		ldr	r7, [sp, #20]
 8205 011a 3A44     		add	r2, r2, r7
 8206              	.LVL664:
 8207              	.L669:
 209:../../libdaisy/src/hid/disp/display.h ****             {
 8208              		.loc 3 209 13 view .LVU1958
 8209 011c A942     		cmp	r1, r5
 8210 011e 01DD     		ble	.L670
 211:../../libdaisy/src/hid/disp/display.h ****                 y1 += signY;
 8211              		.loc 3 211 23 view .LVU1959
 8212 0120 0844     		add	r0, r0, r1
 8213              	.LVL665:
 212:../../libdaisy/src/hid/disp/display.h ****             }
 8214              		.loc 3 212 20 view .LVU1960
 8215 0122 013B     		subs	r3, r3, #1
 8216              	.LVL666:
 8217              	.L670:
 199:../../libdaisy/src/hid/disp/display.h ****         {
 8218              		.loc 3 199 26 is_stmt 1 view .LVU1961
 8219 0124 9642     		cmp	r6, r2
 8220 0126 DFD1     		bne	.L666
 199:../../libdaisy/src/hid/disp/display.h ****         {
 8221              		.loc 3 199 26 is_stmt 0 view .LVU1962
 8222 0128 9C45     		cmp	ip, r3
 8223 012a DDD1     		bne	.L666
 8224              	.LVL667:
 199:../../libdaisy/src/hid/disp/display.h ****         {
 8225              		.loc 3 199 26 view .LVU1963
 8226              	.LBE1414:
 8227              	.LBE1422:
 124:OledDisplayExtravaganza.cpp ****     OledDisplay::DrawLine(x, y + radius, x - radius, y + radius, on);
 8228              		.loc 6 124 5 is_stmt 1 view .LVU1964
 8229              		.loc 6 124 32 is_stmt 0 view .LVU1965
 8230 012c 7AEE8A7A 		vadd.f32	s15, s21, s20
 8231              		.loc 6 124 26 view .LVU1966
 8232 0130 FCEEE77A 		vcvt.u32.f32	s15, s15
 8233 0134 17EE90CA 		vmov	ip, s15	@ int
 8234              	.LVL668:
 8235              	.LBB1423:
 8236              	.LBI1423:
 181:../../libdaisy/src/hid/disp/display.h ****                   uint_fast8_t y1,
 8237              		.loc 3 181 10 is_stmt 1 view .LVU1967
 8238              	.LBB1424:
 8239              	.LBB1425:
ARM GAS  C:\Users\VINCIU~1\AppData\Local\Temp\cc6DIkXk.s 			page 198


 8240              	.LBI1425:
  41:../../libdaisy/src/hid/disp/oled_display.h ****     {
 8241              		.loc 2 41 10 view .LVU1968
 8242              	.LBB1426:
 8243              	.LBI1426:
 239:../../libdaisy/src/dev/oled_ssd130x.h ****     {
 8244              		.loc 4 239 10 view .LVU1969
 8245              	.LBB1427:
 241:../../libdaisy/src/dev/oled_ssd130x.h ****             return;
 8246              		.loc 4 241 23 is_stmt 0 view .LVU1970
 8247 0138 BCF13F0F 		cmp	ip, #63
 8248 013c 94BF     		ite	ls
 8249 013e 4B46     		movls	r3, r9
 8250 0140 49F00103 		orrhi	r3, r9, #1
 241:../../libdaisy/src/dev/oled_ssd130x.h ****             return;
 8251              		.loc 4 241 9 view .LVU1971
 8252 0144 83B9     		cbnz	r3, .L674
 8253              	.LVL669:
 8254              	.L705:
 244:../../libdaisy/src/dev/oled_ssd130x.h ****         else
 8255              		.loc 4 244 28 view .LVU1972
 8256 0146 4FEADC02 		lsr	r2, ip, #3
 244:../../libdaisy/src/dev/oled_ssd130x.h ****         else
 8257              		.loc 4 244 54 view .LVU1973
 8258 014a 0CF00705 		and	r5, ip, #7
 244:../../libdaisy/src/dev/oled_ssd130x.h ****         else
 8259              		.loc 4 244 48 view .LVU1974
 8260 014e 0120     		movs	r0, #1
 244:../../libdaisy/src/dev/oled_ssd130x.h ****         else
 8261              		.loc 4 244 42 view .LVU1975
 8262 0150 06EBC212 		add	r2, r6, r2, lsl #7
 8263 0154 2244     		add	r2, r2, r4
 243:../../libdaisy/src/dev/oled_ssd130x.h ****             buffer_[x + (y / 8) * width] |= (1 << (y % 8));
 8264              		.loc 4 243 9 view .LVU1976
 8265 0156 BBF1000F 		cmp	fp, #0
 8266 015a 00F09481 		beq	.L671
 8267              	.LVL670:
 243:../../libdaisy/src/dev/oled_ssd130x.h ****             buffer_[x + (y / 8) * width] |= (1 << (y % 8));
 8268              		.loc 4 243 9 view .LVU1977
 8269              	.LBE1427:
 8270              	.LBE1426:
 8271              	.LBE1425:
 199:../../libdaisy/src/hid/disp/display.h ****         {
 8272              		.loc 3 199 26 is_stmt 1 view .LVU1978
 8273              	.LBB1436:
 8274              	.LBB1433:
 8275              	.LBB1430:
 244:../../libdaisy/src/dev/oled_ssd130x.h ****         else
 8276              		.loc 4 244 48 is_stmt 0 view .LVU1979
 8277 015e A840     		lsls	r0, r0, r5
 244:../../libdaisy/src/dev/oled_ssd130x.h ****         else
 8278              		.loc 4 244 42 view .LVU1980
 8279 0160 157D     		ldrb	r5, [r2, #20]	@ zero_extendqisi2
 8280 0162 2843     		orrs	r0, r0, r5
 8281 0164 1075     		strb	r0, [r2, #20]
 8282              	.LVL671:
 244:../../libdaisy/src/dev/oled_ssd130x.h ****         else
ARM GAS  C:\Users\VINCIU~1\AppData\Local\Temp\cc6DIkXk.s 			page 199


 8283              		.loc 4 244 42 view .LVU1981
 8284              	.LBE1430:
 8285              	.LBE1433:
 8286              	.LBE1436:
 199:../../libdaisy/src/hid/disp/display.h ****         {
 8287              		.loc 3 199 26 view .LVU1982
 8288 0166 2BBB     		cbnz	r3, .L673
 8289              	.L674:
 8290              	.LVL672:
 199:../../libdaisy/src/hid/disp/display.h ****         {
 8291              		.loc 3 199 26 view .LVU1983
 8292              	.LBE1424:
 8293              	.LBE1423:
 8294              	.LBB1451:
 8295              	.LBB1415:
 187:../../libdaisy/src/hid/disp/display.h ****         int_fast16_t deltaY = abs((int_fast16_t)y2 - (int_fast16_t)y1);
 8296              		.loc 3 187 22 view .LVU1984
 8297 0168 0846     		mov	r0, r1
 8298 016a 6346     		mov	r3, ip
 8299              	.LBE1415:
 8300              	.LBE1451:
 121:OledDisplayExtravaganza.cpp ****     OledDisplay::DrawArc(x - radius, y, radius, 270, -180, on);
 8301              		.loc 6 121 25 view .LVU1985
 8302 016c 1BEE902A 		vmov	r2, s23	@ int
 8303              	.L676:
 8304              	.LVL673:
 8305              	.LBB1452:
 8306              	.LBB1447:
 8307              	.LBB1437:
 8308              	.LBI1437:
  41:../../libdaisy/src/hid/disp/oled_display.h ****     {
 8309              		.loc 2 41 10 is_stmt 1 view .LVU1986
 8310              	.LBB1438:
 8311              	.LBI1438:
 239:../../libdaisy/src/dev/oled_ssd130x.h ****     {
 8312              		.loc 4 239 10 view .LVU1987
 8313              	.LBB1439:
 241:../../libdaisy/src/dev/oled_ssd130x.h ****             return;
 8314              		.loc 4 241 9 is_stmt 0 view .LVU1988
 8315 0170 7F2A     		cmp	r2, #127
 8316 0172 13D8     		bhi	.L677
 8317 0174 3F2B     		cmp	r3, #63
 8318 0176 11D8     		bhi	.L677
 243:../../libdaisy/src/dev/oled_ssd130x.h ****             buffer_[x + (y / 8) * width] |= (1 << (y % 8));
 8319              		.loc 4 243 9 view .LVU1989
 8320 0178 BBF1000F 		cmp	fp, #0
 8321 017c 00F0ED80 		beq	.L678
 244:../../libdaisy/src/dev/oled_ssd130x.h ****         else
 8322              		.loc 4 244 28 view .LVU1990
 8323 0180 DF08     		lsrs	r7, r3, #3
 244:../../libdaisy/src/dev/oled_ssd130x.h ****         else
 8324              		.loc 4 244 54 view .LVU1991
 8325 0182 03F0070E 		and	lr, r3, #7
 244:../../libdaisy/src/dev/oled_ssd130x.h ****         else
 8326              		.loc 4 244 48 view .LVU1992
 8327 0186 0125     		movs	r5, #1
 244:../../libdaisy/src/dev/oled_ssd130x.h ****         else
ARM GAS  C:\Users\VINCIU~1\AppData\Local\Temp\cc6DIkXk.s 			page 200


 8328              		.loc 4 244 42 view .LVU1993
 8329 0188 02EBC717 		add	r7, r2, r7, lsl #7
 244:../../libdaisy/src/dev/oled_ssd130x.h ****         else
 8330              		.loc 4 244 48 view .LVU1994
 8331 018c 05FA0EF5 		lsl	r5, r5, lr
 244:../../libdaisy/src/dev/oled_ssd130x.h ****         else
 8332              		.loc 4 244 42 view .LVU1995
 8333 0190 2744     		add	r7, r7, r4
 8334 0192 97F814E0 		ldrb	lr, [r7, #20]	@ zero_extendqisi2
 8335 0196 45EA0E05 		orr	r5, r5, lr
 8336 019a 3D75     		strb	r5, [r7, #20]
 8337              	.L677:
 8338              	.LVL674:
 244:../../libdaisy/src/dev/oled_ssd130x.h ****         else
 8339              		.loc 4 244 42 view .LVU1996
 8340              	.LBE1439:
 8341              	.LBE1438:
 8342              	.LBE1437:
 203:../../libdaisy/src/hid/disp/display.h ****             {
 8343              		.loc 3 203 13 view .LVU1997
 8344 019c 4500     		lsls	r5, r0, #1
 8345              	.LVL675:
 203:../../libdaisy/src/hid/disp/display.h ****             {
 8346              		.loc 3 203 13 view .LVU1998
 8347 019e 01D0     		beq	.L679
 206:../../libdaisy/src/hid/disp/display.h ****             }
 8348              		.loc 3 206 20 view .LVU1999
 8349 01a0 059F     		ldr	r7, [sp, #20]
 8350 01a2 3A44     		add	r2, r2, r7
 8351              	.LVL676:
 8352              	.L679:
 209:../../libdaisy/src/hid/disp/display.h ****             {
 8353              		.loc 3 209 13 view .LVU2000
 8354 01a4 8D42     		cmp	r5, r1
 8355 01a6 01DA     		bge	.L680
 211:../../libdaisy/src/hid/disp/display.h ****                 y1 += signY;
 8356              		.loc 3 211 23 view .LVU2001
 8357 01a8 0844     		add	r0, r0, r1
 8358              	.LVL677:
 212:../../libdaisy/src/hid/disp/display.h ****             }
 8359              		.loc 3 212 20 view .LVU2002
 8360 01aa 013B     		subs	r3, r3, #1
 8361              	.LVL678:
 8362              	.L680:
 199:../../libdaisy/src/hid/disp/display.h ****         {
 8363              		.loc 3 199 26 is_stmt 1 view .LVU2003
 8364 01ac 9642     		cmp	r6, r2
 8365 01ae DFD1     		bne	.L676
 199:../../libdaisy/src/hid/disp/display.h ****         {
 8366              		.loc 3 199 26 is_stmt 0 view .LVU2004
 8367 01b0 9C45     		cmp	ip, r3
 8368 01b2 DDD1     		bne	.L676
 8369              	.LVL679:
 8370              	.L673:
 199:../../libdaisy/src/hid/disp/display.h ****         {
 8371              		.loc 3 199 26 view .LVU2005
 8372              	.LBE1447:
ARM GAS  C:\Users\VINCIU~1\AppData\Local\Temp\cc6DIkXk.s 			page 201


 8373              	.LBE1452:
 125:OledDisplayExtravaganza.cpp ****     OledDisplay::SetCursor(x - (radius * 1.75), y - (radius * 2.5));
 8374              		.loc 6 125 5 is_stmt 1 view .LVU2006
 8375              		.loc 6 125 28 is_stmt 0 view .LVU2007
 8376 01b4 B7EEC88A 		vcvt.f64.f32	d8, s16
 8377              	.LVL680:
 8378              	.LBB1453:
 8379              	.LBB1454:
 133:../../libdaisy/src/hid/disp/display.h ****         currentY_ = (y >= Height()) ? Height() - 1 : y;
 8380              		.loc 3 133 33 view .LVU2008
 8381 01b8 2268     		ldr	r2, [r4]
 8382              	.LBE1454:
 8383              	.LBE1453:
 8384              		.loc 6 125 33 view .LVU2009
 8385 01ba B7EECA6A 		vcvt.f64.f32	d6, s20
 8386              		.loc 6 125 30 view .LVU2010
 8387 01be B7EE0C3B 		vmov.f64	d3, #1.75e+0
 8388              	.LBB1459:
 8389              	.LBB1455:
 133:../../libdaisy/src/hid/disp/display.h ****         currentY_ = (y >= Height()) ? Height() - 1 : y;
 8390              		.loc 3 133 33 view .LVU2011
 8391 01c2 D368     		ldr	r3, [r2, #12]
 8392              	.LBE1455:
 8393              	.LBE1459:
 8394              		.loc 6 125 30 view .LVU2012
 8395 01c4 B0EE485B 		vmov.f64	d5, d8
 8396              		.loc 6 125 49 view .LVU2013
 8397 01c8 B7EEEA7A 		vcvt.f64.f32	d7, s21
 8398              		.loc 6 125 51 view .LVU2014
 8399 01cc B0EE044B 		vmov.f64	d4, #2.5e+0
 8400              		.loc 6 125 30 view .LVU2015
 8401 01d0 A6EE435B 		vfms.f64	d5, d6, d3
 8402              		.loc 6 125 51 view .LVU2016
 8403 01d4 A6EE447B 		vfms.f64	d7, d6, d4
 8404              		.loc 6 125 30 view .LVU2017
 8405 01d8 B1EE469B 		vneg.f64	d9, d6
 8406              		.loc 6 125 27 view .LVU2018
 8407 01dc BCEEC55B 		vcvt.u32.f64	s10, d5
 8408 01e0 15EE101A 		vmov	r1, s10	@ int
 8409 01e4 BCEEC77B 		vcvt.u32.f64	s14, d7
 8410 01e8 8FB2     		uxth	r7, r1
 8411 01ea 17EE101A 		vmov	r1, s14	@ int
 8412 01ee 1FFA81F9 		uxth	r9, r1
 8413              	.LVL681:
 8414              	.LBB1460:
 8415              	.LBI1453:
 131:../../libdaisy/src/hid/disp/display.h ****     {
 8416              		.loc 3 131 10 is_stmt 1 view .LVU2019
 8417              	.LBB1456:
 133:../../libdaisy/src/hid/disp/display.h ****         currentY_ = (y >= Height()) ? Height() - 1 : y;
 8418              		.loc 3 133 9 view .LVU2020
 8419 01f2 B949     		ldr	r1, .L751+16
 8420 01f4 8B42     		cmp	r3, r1
 8421 01f6 40F0A181 		bne	.L740
 133:../../libdaisy/src/hid/disp/display.h ****         currentY_ = (y >= Height()) ? Height() - 1 : y;
 8422              		.loc 3 133 33 is_stmt 0 view .LVU2021
 8423 01fa 8020     		movs	r0, #128
ARM GAS  C:\Users\VINCIU~1\AppData\Local\Temp\cc6DIkXk.s 			page 202


 8424              	.L681:
 133:../../libdaisy/src/hid/disp/display.h ****         currentY_ = (y >= Height()) ? Height() - 1 : y;
 8425              		.loc 3 133 19 view .LVU2022
 8426 01fc 8742     		cmp	r7, r0
 8427 01fe 05D3     		bcc	.L682
 133:../../libdaisy/src/hid/disp/display.h ****         currentY_ = (y >= Height()) ? Height() - 1 : y;
 8428              		.loc 3 133 44 view .LVU2023
 8429 0200 D368     		ldr	r3, [r2, #12]
 8430 0202 B549     		ldr	r1, .L751+16
 8431 0204 8B42     		cmp	r3, r1
 8432 0206 40F0A381 		bne	.L741
 8433 020a 7F27     		movs	r7, #127
 8434              	.LVL682:
 8435              	.L682:
 134:../../libdaisy/src/hid/disp/display.h ****     }
 8436              		.loc 3 134 34 view .LVU2024
 8437 020c 9368     		ldr	r3, [r2, #8]
 133:../../libdaisy/src/hid/disp/display.h ****         currentY_ = (y >= Height()) ? Height() - 1 : y;
 8438              		.loc 3 133 19 view .LVU2025
 8439 020e A780     		strh	r7, [r4, #4]	@ movhi
 134:../../libdaisy/src/hid/disp/display.h ****     }
 8440              		.loc 3 134 9 is_stmt 1 view .LVU2026
 8441 0210 B24F     		ldr	r7, .L751+20
 8442 0212 BB42     		cmp	r3, r7
 8443 0214 40F08F81 		bne	.L742
 134:../../libdaisy/src/hid/disp/display.h ****     }
 8444              		.loc 3 134 34 is_stmt 0 view .LVU2027
 8445 0218 4020     		movs	r0, #64
 8446              	.L684:
 134:../../libdaisy/src/hid/disp/display.h ****     }
 8447              		.loc 3 134 19 view .LVU2028
 8448 021a 8145     		cmp	r9, r0
 8449 021c 06D3     		bcc	.L685
 134:../../libdaisy/src/hid/disp/display.h ****     }
 8450              		.loc 3 134 46 view .LVU2029
 8451 021e 2368     		ldr	r3, [r4]
 8452 0220 9B68     		ldr	r3, [r3, #8]
 8453 0222 BB42     		cmp	r3, r7
 8454 0224 40F08E81 		bne	.L743
 8455 0228 4FF03F09 		mov	r9, #63
 8456              	.LVL683:
 8457              	.L685:
 134:../../libdaisy/src/hid/disp/display.h ****     }
 8458              		.loc 3 134 46 view .LVU2030
 8459              	.LBE1456:
 8460              	.LBE1460:
 126:OledDisplayExtravaganza.cpp ****     OledDisplay::WriteString(label, Font_7x10, on);
 8461              		.loc 6 126 29 view .LVU2031
 8462 022c AC4B     		ldr	r3, .L751+24
 8463 022e 5146     		mov	r1, r10
 8464              	.LBB1461:
 8465              	.LBB1457:
 134:../../libdaisy/src/hid/disp/display.h ****     }
 8466              		.loc 3 134 19 view .LVU2032
 8467 0230 A4F80690 		strh	r9, [r4, #6]	@ movhi
 8468              	.LVL684:
 134:../../libdaisy/src/hid/disp/display.h ****     }
ARM GAS  C:\Users\VINCIU~1\AppData\Local\Temp\cc6DIkXk.s 			page 203


 8469              		.loc 3 134 19 view .LVU2033
 8470              	.LBE1457:
 8471              	.LBE1461:
 8472              		.loc 6 126 5 is_stmt 1 view .LVU2034
 8473              		.loc 6 126 29 is_stmt 0 view .LVU2035
 8474 0234 2046     		mov	r0, r4
 8475 0236 CDF800B0 		str	fp, [sp]
 8476 023a 0CCB     		ldm	r3, {r2, r3}
 8477 023c FFF7FEFF 		bl	_ZN5daisy25OneBitGraphicsDisplayImplINS_11OledDisplayINS_13SSD130xDriverILj128ELj64ENS_24SSD130
 8478              	.LVL685:
 127:OledDisplayExtravaganza.cpp **** 
 128:OledDisplayExtravaganza.cpp ****     if(state == true)
 8479              		.loc 6 128 5 is_stmt 1 view .LVU2036
 8480              	.LBB1462:
 8481              	.LBB1463:
 129:OledDisplayExtravaganza.cpp ****     {
 130:OledDisplayExtravaganza.cpp ****         for(int i = 1; i <= radius; i++)
 8482              		.loc 6 130 26 is_stmt 0 view .LVU2037
 8483 0240 F7EE007A 		vmov.f32	s15, #1.0e+0
 8484              	.LBE1463:
 128:OledDisplayExtravaganza.cpp ****     {
 8485              		.loc 6 128 5 view .LVU2038
 8486 0244 069B     		ldr	r3, [sp, #24]
 8487              	.LBB1488:
 8488              		.loc 6 130 26 view .LVU2039
 8489 0246 B4EEE7AA 		vcmpe.f32	s20, s15
 8490              	.LBE1488:
 128:OledDisplayExtravaganza.cpp ****     {
 8491              		.loc 6 128 5 view .LVU2040
 8492 024a 002B     		cmp	r3, #0
 8493 024c 00F09380 		beq	.L687
 8494              	.LVL686:
 8495              	.LBB1489:
 8496              		.loc 6 130 26 is_stmt 1 view .LVU2041
 8497 0250 F1EE10FA 		vmrs	APSR_nzcv, FPSCR
 8498 0254 C0F29280 		blt	.L658
 8499              		.loc 6 130 17 is_stmt 0 view .LVU2042
 8500 0258 0123     		movs	r3, #1
 131:OledDisplayExtravaganza.cpp ****         {
 132:OledDisplayExtravaganza.cpp ****             OledDisplay::DrawCircle(x, y, (radius / 2) - i, on);
 8501              		.loc 6 132 51 view .LVU2043
 8502 025a B6EE00BA 		vmov.f32	s22, #5.0e-1
 8503 025e 1BEE90AA 		vmov	r10, s23	@ int
 8504              	.LVL687:
 130:OledDisplayExtravaganza.cpp ****         {
 8505              		.loc 6 130 17 view .LVU2044
 8506 0262 0693     		str	r3, [sp, #24]
 8507 0264 9F4B     		ldr	r3, .L751+28
 8508              		.loc 6 132 51 view .LVU2045
 8509 0266 2AEE0BBA 		vmul.f32	s22, s20, s22
 8510 026a 0593     		str	r3, [sp, #20]
 8511 026c 2EE0     		b	.L695
 8512              	.LVL688:
 8513              	.L712:
 8514              	.LBB1464:
 8515              	.LBB1465:
 133:../../libdaisy/src/hid/disp/display.h ****         currentY_ = (y >= Height()) ? Height() - 1 : y;
ARM GAS  C:\Users\VINCIU~1\AppData\Local\Temp\cc6DIkXk.s 			page 204


 8516              		.loc 3 133 33 view .LVU2046
 8517 026e 8020     		movs	r0, #128
 8518              	.L689:
 133:../../libdaisy/src/hid/disp/display.h ****         currentY_ = (y >= Height()) ? Height() - 1 : y;
 8519              		.loc 3 133 19 view .LVU2047
 8520 0270 8145     		cmp	r9, r0
 8521 0272 06D3     		bcc	.L690
 133:../../libdaisy/src/hid/disp/display.h ****         currentY_ = (y >= Height()) ? Height() - 1 : y;
 8522              		.loc 3 133 44 view .LVU2048
 8523 0274 DA68     		ldr	r2, [r3, #12]
 8524 0276 9849     		ldr	r1, .L751+16
 8525 0278 8A42     		cmp	r2, r1
 8526 027a 40F03981 		bne	.L744
 8527 027e 4FF07F09 		mov	r9, #127
 8528              	.LVL689:
 8529              	.L690:
 134:../../libdaisy/src/hid/disp/display.h ****     }
 8530              		.loc 3 134 34 view .LVU2049
 8531 0282 9B68     		ldr	r3, [r3, #8]
 133:../../libdaisy/src/hid/disp/display.h ****         currentY_ = (y >= Height()) ? Height() - 1 : y;
 8532              		.loc 3 133 19 view .LVU2050
 8533 0284 A4F80490 		strh	r9, [r4, #4]	@ movhi
 134:../../libdaisy/src/hid/disp/display.h ****     }
 8534              		.loc 3 134 9 is_stmt 1 view .LVU2051
 8535 0288 BB42     		cmp	r3, r7
 8536 028a 40F00981 		bne	.L745
 134:../../libdaisy/src/hid/disp/display.h ****     }
 8537              		.loc 3 134 34 is_stmt 0 view .LVU2052
 8538 028e 4020     		movs	r0, #64
 8539              	.L692:
 134:../../libdaisy/src/hid/disp/display.h ****     }
 8540              		.loc 3 134 19 view .LVU2053
 8541 0290 8642     		cmp	r6, r0
 8542 0292 05D3     		bcc	.L693
 134:../../libdaisy/src/hid/disp/display.h ****     }
 8543              		.loc 3 134 46 view .LVU2054
 8544 0294 2368     		ldr	r3, [r4]
 8545 0296 9B68     		ldr	r3, [r3, #8]
 8546 0298 BB42     		cmp	r3, r7
 8547 029a 40F00981 		bne	.L746
 8548 029e 3F26     		movs	r6, #63
 8549              	.LVL690:
 8550              	.L693:
 134:../../libdaisy/src/hid/disp/display.h ****     }
 8551              		.loc 3 134 46 view .LVU2055
 8552              	.LBE1465:
 8553              	.LBE1464:
 130:OledDisplayExtravaganza.cpp ****         {
 8554              		.loc 6 130 9 view .LVU2056
 8555 02a0 069B     		ldr	r3, [sp, #24]
 133:OledDisplayExtravaganza.cpp ****             OledDisplay::DrawCircle(x, y, (radius / 2) - i, on);
 134:OledDisplayExtravaganza.cpp ****             OledDisplay::SetCursor(x - radius * 1.35, y - radius / 3);
 135:OledDisplayExtravaganza.cpp ****             OledDisplay::WriteString("1", Font_6x8, on);
 8556              		.loc 6 135 37 view .LVU2057
 8557 02a2 2046     		mov	r0, r4
 8558 02a4 059A     		ldr	r2, [sp, #20]
 130:OledDisplayExtravaganza.cpp ****         {
ARM GAS  C:\Users\VINCIU~1\AppData\Local\Temp\cc6DIkXk.s 			page 205


 8559              		.loc 6 130 9 view .LVU2058
 8560 02a6 0133     		adds	r3, r3, #1
 8561              		.loc 6 135 37 view .LVU2059
 8562 02a8 8F49     		ldr	r1, .L751+32
 130:OledDisplayExtravaganza.cpp ****         {
 8563              		.loc 6 130 9 view .LVU2060
 8564 02aa 1D46     		mov	r5, r3
 8565 02ac 0693     		str	r3, [sp, #24]
 8566              	.LVL691:
 8567              		.loc 6 135 37 view .LVU2061
 8568 02ae 0CCA     		ldm	r2, {r2, r3}
 8569              	.LBB1473:
 8570              	.LBB1466:
 134:../../libdaisy/src/hid/disp/display.h ****     }
 8571              		.loc 3 134 19 view .LVU2062
 8572 02b0 E680     		strh	r6, [r4, #6]	@ movhi
 8573              	.LVL692:
 134:../../libdaisy/src/hid/disp/display.h ****     }
 8574              		.loc 3 134 19 view .LVU2063
 8575              	.LBE1466:
 8576              	.LBE1473:
 8577              		.loc 6 135 13 is_stmt 1 view .LVU2064
 8578              		.loc 6 135 37 is_stmt 0 view .LVU2065
 8579 02b2 CDF800B0 		str	fp, [sp]
 8580 02b6 FFF7FEFF 		bl	_ZN5daisy25OneBitGraphicsDisplayImplINS_11OledDisplayINS_13SSD130xDriverILj128ELj64ENS_24SSD130
 8581              	.LVL693:
 130:OledDisplayExtravaganza.cpp ****         {
 8582              		.loc 6 130 9 is_stmt 1 view .LVU2066
 130:OledDisplayExtravaganza.cpp ****         {
 8583              		.loc 6 130 26 view .LVU2067
 8584 02ba 07EE905A 		vmov	s15, r5	@ int
 8585 02be F8EEE77A 		vcvt.f32.s32	s15, s15
 8586 02c2 F4EECA7A 		vcmpe.f32	s15, s20
 8587 02c6 F1EE10FA 		vmrs	APSR_nzcv, FPSCR
 8588 02ca 57D8     		bhi	.L658
 8589              	.LVL694:
 8590              	.L695:
 132:OledDisplayExtravaganza.cpp ****             OledDisplay::DrawCircle(x, y, (radius / 2) - i, on);
 8591              		.loc 6 132 13 discriminator 2 view .LVU2068
 132:OledDisplayExtravaganza.cpp ****             OledDisplay::DrawCircle(x, y, (radius / 2) - i, on);
 8592              		.loc 6 132 56 is_stmt 0 discriminator 2 view .LVU2069
 8593 02cc 7BEE677A 		vsub.f32	s15, s22, s15
 8594              	.LBB1474:
 8595              	.LBB1475:
 102:../../libdaisy/src/hid/disp/display.h ****     };
 8596              		.loc 3 102 41 discriminator 2 view .LVU2070
 8597 02d0 2268     		ldr	r2, [r4]
 102:../../libdaisy/src/hid/disp/display.h ****     };
 8598              		.loc 3 102 16 discriminator 2 view .LVU2071
 8599 02d2 4FF4B479 		mov	r9, #360
 8600 02d6 0026     		movs	r6, #0
 8601 02d8 CDF808B0 		str	fp, [sp, #8]
 8602 02dc 5146     		mov	r1, r10
 8603              	.LBE1475:
 8604              	.LBE1474:
 132:OledDisplayExtravaganza.cpp ****             OledDisplay::DrawCircle(x, y, (radius / 2) - i, on);
 8605              		.loc 6 132 36 discriminator 2 view .LVU2072
ARM GAS  C:\Users\VINCIU~1\AppData\Local\Temp\cc6DIkXk.s 			page 206


 8606 02de FCEEE77A 		vcvt.u32.f32	s15, s15
 8607              	.LBB1478:
 8608              	.LBB1476:
 102:../../libdaisy/src/hid/disp/display.h ****     };
 8609              		.loc 3 102 16 discriminator 2 view .LVU2073
 8610 02e2 2046     		mov	r0, r4
 8611 02e4 CDE90069 		strd	r6, r9, [sp]
 8612 02e8 126A     		ldr	r2, [r2, #32]
 8613              	.LBE1476:
 8614              	.LBE1478:
 132:OledDisplayExtravaganza.cpp ****             OledDisplay::DrawCircle(x, y, (radius / 2) - i, on);
 8615              		.loc 6 132 36 discriminator 2 view .LVU2074
 8616 02ea 17EE903A 		vmov	r3, s15	@ int
 8617              	.LVL695:
 8618              	.LBB1479:
 8619              	.LBI1474:
 100:../../libdaisy/src/hid/disp/display.h ****     {
 8620              		.loc 3 100 5 is_stmt 1 discriminator 2 view .LVU2075
 8621              	.LBB1477:
 102:../../libdaisy/src/hid/disp/display.h ****     };
 8622              		.loc 3 102 9 discriminator 2 view .LVU2076
 102:../../libdaisy/src/hid/disp/display.h ****     };
 8623              		.loc 3 102 16 is_stmt 0 discriminator 2 view .LVU2077
 8624 02ee CDED077A 		vstr.32	s15, [sp, #28]	@ int
 8625 02f2 1546     		mov	r5, r2
 8626 02f4 4246     		mov	r2, r8
 8627 02f6 A847     		blx	r5
 8628              	.LVL696:
 102:../../libdaisy/src/hid/disp/display.h ****     };
 8629              		.loc 3 102 16 discriminator 2 view .LVU2078
 8630              	.LBE1477:
 8631              	.LBE1479:
 133:OledDisplayExtravaganza.cpp ****             OledDisplay::SetCursor(x - radius * 1.35, y - radius / 3);
 8632              		.loc 6 133 13 is_stmt 1 discriminator 2 view .LVU2079
 8633              	.LBB1480:
 8634              	.LBI1480:
 100:../../libdaisy/src/hid/disp/display.h ****     {
 8635              		.loc 3 100 5 discriminator 2 view .LVU2080
 8636              	.LBB1481:
 102:../../libdaisy/src/hid/disp/display.h ****     };
 8637              		.loc 3 102 9 discriminator 2 view .LVU2081
 102:../../libdaisy/src/hid/disp/display.h ****     };
 8638              		.loc 3 102 41 is_stmt 0 discriminator 2 view .LVU2082
 8639 02f8 2268     		ldr	r2, [r4]
 102:../../libdaisy/src/hid/disp/display.h ****     };
 8640              		.loc 3 102 16 discriminator 2 view .LVU2083
 8641 02fa 079B     		ldr	r3, [sp, #28]
 8642 02fc 5146     		mov	r1, r10
 8643 02fe 0096     		str	r6, [sp]
 8644 0300 2046     		mov	r0, r4
 8645 0302 CDE9019B 		strd	r9, fp, [sp, #4]
 8646 0306 166A     		ldr	r6, [r2, #32]
 8647 0308 4246     		mov	r2, r8
 8648 030a B047     		blx	r6
 8649              	.LVL697:
 102:../../libdaisy/src/hid/disp/display.h ****     };
 8650              		.loc 3 102 16 discriminator 2 view .LVU2084
ARM GAS  C:\Users\VINCIU~1\AppData\Local\Temp\cc6DIkXk.s 			page 207


 8651              	.LBE1481:
 8652              	.LBE1480:
 134:OledDisplayExtravaganza.cpp ****             OledDisplay::WriteString("1", Font_6x8, on);
 8653              		.loc 6 134 13 is_stmt 1 discriminator 2 view .LVU2085
 134:OledDisplayExtravaganza.cpp ****             OledDisplay::WriteString("1", Font_6x8, on);
 8654              		.loc 6 134 66 is_stmt 0 discriminator 2 view .LVU2086
 8655 030c B0EE087A 		vmov.f32	s14, #3.0e+0
 134:OledDisplayExtravaganza.cpp ****             OledDisplay::WriteString("1", Font_6x8, on);
 8656              		.loc 6 134 38 discriminator 2 view .LVU2087
 8657 0310 B0EE486B 		vmov.f64	d6, d8
 8658              	.LBB1482:
 8659              	.LBB1467:
 133:../../libdaisy/src/hid/disp/display.h ****         currentY_ = (y >= Height()) ? Height() - 1 : y;
 8660              		.loc 3 133 33 discriminator 2 view .LVU2088
 8661 0314 2368     		ldr	r3, [r4]
 8662              	.LBE1467:
 8663              	.LBE1482:
 134:OledDisplayExtravaganza.cpp ****             OledDisplay::WriteString("1", Font_6x8, on);
 8664              		.loc 6 134 66 discriminator 2 view .LVU2089
 8665 0316 CAEE077A 		vdiv.f32	s15, s20, s14
 8666              	.LBB1483:
 8667              	.LBB1468:
 133:../../libdaisy/src/hid/disp/display.h ****         currentY_ = (y >= Height()) ? Height() - 1 : y;
 8668              		.loc 3 133 33 discriminator 2 view .LVU2090
 8669 031a DA68     		ldr	r2, [r3, #12]
 8670              	.LBE1468:
 8671              	.LBE1483:
 134:OledDisplayExtravaganza.cpp ****             OledDisplay::WriteString("1", Font_6x8, on);
 8672              		.loc 6 134 38 discriminator 2 view .LVU2091
 8673 031c 9FED6A5B 		vldr.64	d5, .L751
 8674 0320 A9EE056B 		vfma.f64	d6, d9, d5
 134:OledDisplayExtravaganza.cpp ****             OledDisplay::WriteString("1", Font_6x8, on);
 8675              		.loc 6 134 57 discriminator 2 view .LVU2092
 8676 0324 7AEEE77A 		vsub.f32	s15, s21, s15
 134:OledDisplayExtravaganza.cpp ****             OledDisplay::WriteString("1", Font_6x8, on);
 8677              		.loc 6 134 35 discriminator 2 view .LVU2093
 8678 0328 BCEEC66B 		vcvt.u32.f64	s12, d6
 8679 032c FCEEE77A 		vcvt.u32.f32	s15, s15
 8680 0330 16EE101A 		vmov	r1, s12	@ int
 8681 0334 1FFA81F9 		uxth	r9, r1
 8682 0338 17EE901A 		vmov	r1, s15	@ int
 8683 033c 8EB2     		uxth	r6, r1
 8684              	.LVL698:
 8685              	.LBB1484:
 8686              	.LBI1464:
 131:../../libdaisy/src/hid/disp/display.h ****     {
 8687              		.loc 3 131 10 is_stmt 1 discriminator 2 view .LVU2094
 8688              	.LBB1469:
 133:../../libdaisy/src/hid/disp/display.h ****         currentY_ = (y >= Height()) ? Height() - 1 : y;
 8689              		.loc 3 133 9 discriminator 2 view .LVU2095
 8690 033e 6649     		ldr	r1, .L751+16
 8691 0340 8A42     		cmp	r2, r1
 8692 0342 94D0     		beq	.L712
 133:../../libdaisy/src/hid/disp/display.h ****         currentY_ = (y >= Height()) ? Height() - 1 : y;
 8693              		.loc 3 133 32 is_stmt 0 view .LVU2096
 8694 0344 2046     		mov	r0, r4
 8695 0346 9047     		blx	r2
ARM GAS  C:\Users\VINCIU~1\AppData\Local\Temp\cc6DIkXk.s 			page 208


 8696              	.LVL699:
 133:../../libdaisy/src/hid/disp/display.h ****         currentY_ = (y >= Height()) ? Height() - 1 : y;
 8697              		.loc 3 133 44 view .LVU2097
 8698 0348 2368     		ldr	r3, [r4]
 8699 034a 91E7     		b	.L689
 8700              	.LVL700:
 8701              	.L668:
 133:../../libdaisy/src/hid/disp/display.h ****         currentY_ = (y >= Height()) ? Height() - 1 : y;
 8702              		.loc 3 133 44 view .LVU2098
 8703              	.LBE1469:
 8704              	.LBE1484:
 8705              	.LBE1489:
 8706              	.LBE1462:
 8707              	.LBB1522:
 8708              	.LBB1416:
 8709              	.LBB1406:
 8710              	.LBB1405:
 8711              	.LBB1404:
 8712              	.LBB1402:
 8713              	.LBI1402:
 239:../../libdaisy/src/dev/oled_ssd130x.h ****     {
 8714              		.loc 4 239 10 is_stmt 1 view .LVU2099
 8715              	.LBB1403:
 246:../../libdaisy/src/dev/oled_ssd130x.h ****     }
 8716              		.loc 4 246 49 is_stmt 0 view .LVU2100
 8717 034c 07FA0EFE 		lsl	lr, r7, lr
 246:../../libdaisy/src/dev/oled_ssd130x.h ****     }
 8718              		.loc 4 246 42 view .LVU2101
 8719 0350 2F7D     		ldrb	r7, [r5, #20]	@ zero_extendqisi2
 8720 0352 27EA0E07 		bic	r7, r7, lr
 8721 0356 2F75     		strb	r7, [r5, #20]
 8722 0358 DCE6     		b	.L667
 8723              	.LVL701:
 8724              	.L678:
 246:../../libdaisy/src/dev/oled_ssd130x.h ****     }
 8725              		.loc 4 246 42 view .LVU2102
 8726              	.LBE1403:
 8727              	.LBE1402:
 8728              	.LBE1404:
 8729              	.LBE1405:
 8730              	.LBE1406:
 8731              	.LBE1416:
 8732              	.LBE1522:
 8733              	.LBB1523:
 8734              	.LBB1448:
 8735              	.LBB1444:
 8736              	.LBB1443:
 8737              	.LBB1442:
 8738              	.LBB1440:
 8739              	.LBI1440:
 239:../../libdaisy/src/dev/oled_ssd130x.h ****     {
 8740              		.loc 4 239 10 is_stmt 1 view .LVU2103
 8741              	.LBB1441:
 246:../../libdaisy/src/dev/oled_ssd130x.h ****     }
 8742              		.loc 4 246 28 is_stmt 0 view .LVU2104
 8743 035a DD08     		lsrs	r5, r3, #3
 246:../../libdaisy/src/dev/oled_ssd130x.h ****     }
ARM GAS  C:\Users\VINCIU~1\AppData\Local\Temp\cc6DIkXk.s 			page 209


 8744              		.loc 4 246 49 view .LVU2105
 8745 035c 0127     		movs	r7, #1
 246:../../libdaisy/src/dev/oled_ssd130x.h ****     }
 8746              		.loc 4 246 55 view .LVU2106
 8747 035e 03F0070E 		and	lr, r3, #7
 246:../../libdaisy/src/dev/oled_ssd130x.h ****     }
 8748              		.loc 4 246 42 view .LVU2107
 8749 0362 02EBC515 		add	r5, r2, r5, lsl #7
 246:../../libdaisy/src/dev/oled_ssd130x.h ****     }
 8750              		.loc 4 246 49 view .LVU2108
 8751 0366 07FA0EFE 		lsl	lr, r7, lr
 246:../../libdaisy/src/dev/oled_ssd130x.h ****     }
 8752              		.loc 4 246 42 view .LVU2109
 8753 036a 2544     		add	r5, r5, r4
 8754 036c 2F7D     		ldrb	r7, [r5, #20]	@ zero_extendqisi2
 8755 036e 27EA0E07 		bic	r7, r7, lr
 8756 0372 2F75     		strb	r7, [r5, #20]
 8757 0374 12E7     		b	.L677
 8758              	.LVL702:
 8759              	.L687:
 246:../../libdaisy/src/dev/oled_ssd130x.h ****     }
 8760              		.loc 4 246 42 view .LVU2110
 8761              	.LBE1441:
 8762              	.LBE1440:
 8763              	.LBE1442:
 8764              	.LBE1443:
 8765              	.LBE1444:
 8766              	.LBE1448:
 8767              	.LBE1523:
 8768              	.LBB1524:
 8769              	.LBB1490:
 136:OledDisplayExtravaganza.cpp ****         }
 137:OledDisplayExtravaganza.cpp ****     }
 138:OledDisplayExtravaganza.cpp ****     else
 139:OledDisplayExtravaganza.cpp ****     {
 140:OledDisplayExtravaganza.cpp ****         for(int i = 1; i <= radius; i++)
 8770              		.loc 6 140 26 is_stmt 1 view .LVU2111
 8771 0376 F1EE10FA 		vmrs	APSR_nzcv, FPSCR
 8772 037a 0FDA     		bge	.L747
 8773              	.LVL703:
 8774              	.L658:
 8775              		.loc 6 140 26 is_stmt 0 view .LVU2112
 8776              	.LBE1490:
 8777              	.LBE1524:
 141:OledDisplayExtravaganza.cpp ****         {
 142:OledDisplayExtravaganza.cpp ****             OledDisplay::DrawCircle(x - radius, y, (radius / 2) - i, on);
 143:OledDisplayExtravaganza.cpp ****             OledDisplay::DrawCircle(x - radius, y, (radius / 2) - i, on);
 144:OledDisplayExtravaganza.cpp ****             OledDisplay::SetCursor(x - radius * 0.15, y - radius / 3);
 145:OledDisplayExtravaganza.cpp ****             OledDisplay::WriteString("2", Font_6x8, on);
 146:OledDisplayExtravaganza.cpp ****         }
 147:OledDisplayExtravaganza.cpp ****     }
 148:OledDisplayExtravaganza.cpp **** }
 8778              		.loc 6 148 1 view .LVU2113
 8779 037c 09B0     		add	sp, sp, #36
 8780              		.cfi_remember_state
 8781              		.cfi_def_cfa_offset 68
 8782              		@ sp needed
ARM GAS  C:\Users\VINCIU~1\AppData\Local\Temp\cc6DIkXk.s 			page 210


 8783 037e BDEC088B 		vldm	sp!, {d8-d11}
 8784              		.cfi_restore 86
 8785              		.cfi_restore 87
 8786              		.cfi_restore 84
 8787              		.cfi_restore 85
 8788              		.cfi_restore 82
 8789              		.cfi_restore 83
 8790              		.cfi_restore 80
 8791              		.cfi_restore 81
 8792              		.cfi_def_cfa_offset 36
 8793              	.LVL704:
 8794              		.loc 6 148 1 view .LVU2114
 8795 0382 BDE8F08F 		pop	{r4, r5, r6, r7, r8, r9, r10, fp, pc}
 8796              	.LVL705:
 8797              	.L659:
 8798              		.cfi_restore_state
 8799              	.LBB1525:
 8800              	.LBB1417:
 8801              	.LBB1407:
  41:../../libdaisy/src/hid/disp/oled_display.h ****     {
 8802              		.loc 2 41 10 is_stmt 1 view .LVU2115
 8803              	.LBB1390:
 239:../../libdaisy/src/dev/oled_ssd130x.h ****     {
 8804              		.loc 4 239 10 view .LVU2116
 8805              	.LBE1390:
 8806              	.LBE1407:
 189:../../libdaisy/src/hid/disp/display.h ****         int_fast16_t signY  = ((y1 < y2) ? 1 : -1);
 8807              		.loc 3 189 42 is_stmt 0 view .LVU2117
 8808 0386 0123     		movs	r3, #1
 8809              	.LBB1408:
 8810              	.LBB1391:
 8811              	.LBB1382:
 241:../../libdaisy/src/dev/oled_ssd130x.h ****             return;
 8812              		.loc 4 241 9 view .LVU2118
 8813 0388 BCF13F0F 		cmp	ip, #63
 8814              	.LBE1382:
 8815              	.LBE1391:
 8816              	.LBE1408:
 189:../../libdaisy/src/hid/disp/display.h ****         int_fast16_t signY  = ((y1 < y2) ? 1 : -1);
 8817              		.loc 3 189 42 view .LVU2119
 8818 038c 0593     		str	r3, [sp, #20]
 8819              	.LBB1409:
 8820              	.LBB1392:
 8821              	.LBB1383:
 241:../../libdaisy/src/dev/oled_ssd130x.h ****             return;
 8822              		.loc 4 241 9 view .LVU2120
 8823 038e 3FF6A7AE 		bhi	.L663
 8824 0392 B9F1000F 		cmp	r9, #0
 8825 0396 3FF48CAE 		beq	.L706
 8826 039a A1E6     		b	.L663
 8827              	.LVL706:
 8828              	.L747:
 241:../../libdaisy/src/dev/oled_ssd130x.h ****             return;
 8829              		.loc 4 241 9 view .LVU2121
 8830              	.LBE1383:
 8831              	.LBE1392:
 8832              	.LBE1409:
ARM GAS  C:\Users\VINCIU~1\AppData\Local\Temp\cc6DIkXk.s 			page 211


 8833              	.LBE1417:
 8834              	.LBE1525:
 8835              	.LBB1526:
 8836              	.LBB1515:
 140:OledDisplayExtravaganza.cpp ****         {
 8837              		.loc 6 140 17 view .LVU2122
 8838 039c 0123     		movs	r3, #1
 142:OledDisplayExtravaganza.cpp ****             OledDisplay::DrawCircle(x - radius, y, (radius / 2) - i, on);
 8839              		.loc 6 142 60 view .LVU2123
 8840 039e B6EE00BA 		vmov.f32	s22, #5.0e-1
 8841 03a2 B246     		mov	r10, r6
 8842              	.LVL707:
 140:OledDisplayExtravaganza.cpp ****         {
 8843              		.loc 6 140 17 view .LVU2124
 8844 03a4 0693     		str	r3, [sp, #24]
 8845 03a6 4F4B     		ldr	r3, .L751+28
 142:OledDisplayExtravaganza.cpp ****             OledDisplay::DrawCircle(x - radius, y, (radius / 2) - i, on);
 8846              		.loc 6 142 60 view .LVU2125
 8847 03a8 2AEE0BBA 		vmul.f32	s22, s20, s22
 8848 03ac 0593     		str	r3, [sp, #20]
 8849 03ae 2BE0     		b	.L704
 8850              	.LVL708:
 8851              	.L716:
 8852              	.LBB1491:
 8853              	.LBB1492:
 133:../../libdaisy/src/hid/disp/display.h ****         currentY_ = (y >= Height()) ? Height() - 1 : y;
 8854              		.loc 3 133 33 view .LVU2126
 8855 03b0 8020     		movs	r0, #128
 8856              	.L698:
 133:../../libdaisy/src/hid/disp/display.h ****         currentY_ = (y >= Height()) ? Height() - 1 : y;
 8857              		.loc 3 133 19 view .LVU2127
 8858 03b2 8145     		cmp	r9, r0
 8859 03b4 05D3     		bcc	.L699
 133:../../libdaisy/src/hid/disp/display.h ****         currentY_ = (y >= Height()) ? Height() - 1 : y;
 8860              		.loc 3 133 44 view .LVU2128
 8861 03b6 DA68     		ldr	r2, [r3, #12]
 8862 03b8 4749     		ldr	r1, .L751+16
 8863 03ba 8A42     		cmp	r2, r1
 8864 03bc 7DD1     		bne	.L748
 8865 03be 4FF07F09 		mov	r9, #127
 8866              	.LVL709:
 8867              	.L699:
 134:../../libdaisy/src/hid/disp/display.h ****     }
 8868              		.loc 3 134 34 view .LVU2129
 8869 03c2 9B68     		ldr	r3, [r3, #8]
 133:../../libdaisy/src/hid/disp/display.h ****         currentY_ = (y >= Height()) ? Height() - 1 : y;
 8870              		.loc 3 133 19 view .LVU2130
 8871 03c4 A4F80490 		strh	r9, [r4, #4]	@ movhi
 134:../../libdaisy/src/hid/disp/display.h ****     }
 8872              		.loc 3 134 9 is_stmt 1 view .LVU2131
 8873 03c8 BB42     		cmp	r3, r7
 8874 03ca 66D1     		bne	.L749
 134:../../libdaisy/src/hid/disp/display.h ****     }
 8875              		.loc 3 134 34 is_stmt 0 view .LVU2132
 8876 03cc 4020     		movs	r0, #64
 8877              	.L701:
 134:../../libdaisy/src/hid/disp/display.h ****     }
ARM GAS  C:\Users\VINCIU~1\AppData\Local\Temp\cc6DIkXk.s 			page 212


 8878              		.loc 3 134 19 view .LVU2133
 8879 03ce 8642     		cmp	r6, r0
 8880 03d0 04D3     		bcc	.L702
 134:../../libdaisy/src/hid/disp/display.h ****     }
 8881              		.loc 3 134 46 view .LVU2134
 8882 03d2 2368     		ldr	r3, [r4]
 8883 03d4 9B68     		ldr	r3, [r3, #8]
 8884 03d6 BB42     		cmp	r3, r7
 8885 03d8 65D1     		bne	.L750
 8886 03da 3F26     		movs	r6, #63
 8887              	.LVL710:
 8888              	.L702:
 134:../../libdaisy/src/hid/disp/display.h ****     }
 8889              		.loc 3 134 46 view .LVU2135
 8890              	.LBE1492:
 8891              	.LBE1491:
 140:OledDisplayExtravaganza.cpp ****         {
 8892              		.loc 6 140 9 view .LVU2136
 8893 03dc 069B     		ldr	r3, [sp, #24]
 145:OledDisplayExtravaganza.cpp ****         }
 8894              		.loc 6 145 37 view .LVU2137
 8895 03de 2046     		mov	r0, r4
 8896 03e0 059A     		ldr	r2, [sp, #20]
 140:OledDisplayExtravaganza.cpp ****         {
 8897              		.loc 6 140 9 view .LVU2138
 8898 03e2 0133     		adds	r3, r3, #1
 145:OledDisplayExtravaganza.cpp ****         }
 8899              		.loc 6 145 37 view .LVU2139
 8900 03e4 4149     		ldr	r1, .L751+36
 140:OledDisplayExtravaganza.cpp ****         {
 8901              		.loc 6 140 9 view .LVU2140
 8902 03e6 1D46     		mov	r5, r3
 8903 03e8 0693     		str	r3, [sp, #24]
 8904              	.LVL711:
 145:OledDisplayExtravaganza.cpp ****         }
 8905              		.loc 6 145 37 view .LVU2141
 8906 03ea 0CCA     		ldm	r2, {r2, r3}
 8907              	.LBB1500:
 8908              	.LBB1493:
 134:../../libdaisy/src/hid/disp/display.h ****     }
 8909              		.loc 3 134 19 view .LVU2142
 8910 03ec E680     		strh	r6, [r4, #6]	@ movhi
 8911              	.LVL712:
 134:../../libdaisy/src/hid/disp/display.h ****     }
 8912              		.loc 3 134 19 view .LVU2143
 8913              	.LBE1493:
 8914              	.LBE1500:
 145:OledDisplayExtravaganza.cpp ****         }
 8915              		.loc 6 145 13 is_stmt 1 view .LVU2144
 145:OledDisplayExtravaganza.cpp ****         }
 8916              		.loc 6 145 37 is_stmt 0 view .LVU2145
 8917 03ee CDF800B0 		str	fp, [sp]
 8918 03f2 FFF7FEFF 		bl	_ZN5daisy25OneBitGraphicsDisplayImplINS_11OledDisplayINS_13SSD130xDriverILj128ELj64ENS_24SSD130
 8919              	.LVL713:
 140:OledDisplayExtravaganza.cpp ****         {
 8920              		.loc 6 140 9 is_stmt 1 view .LVU2146
 140:OledDisplayExtravaganza.cpp ****         {
ARM GAS  C:\Users\VINCIU~1\AppData\Local\Temp\cc6DIkXk.s 			page 213


 8921              		.loc 6 140 26 view .LVU2147
 8922 03f6 07EE905A 		vmov	s15, r5	@ int
 8923 03fa F8EEE77A 		vcvt.f32.s32	s15, s15
 8924 03fe F4EECA7A 		vcmpe.f32	s15, s20
 8925 0402 F1EE10FA 		vmrs	APSR_nzcv, FPSCR
 8926 0406 B9D8     		bhi	.L658
 8927              	.LVL714:
 8928              	.L704:
 142:OledDisplayExtravaganza.cpp ****             OledDisplay::DrawCircle(x - radius, y, (radius / 2) - i, on);
 8929              		.loc 6 142 13 discriminator 2 view .LVU2148
 142:OledDisplayExtravaganza.cpp ****             OledDisplay::DrawCircle(x - radius, y, (radius / 2) - i, on);
 8930              		.loc 6 142 65 is_stmt 0 discriminator 2 view .LVU2149
 8931 0408 7BEE677A 		vsub.f32	s15, s22, s15
 8932              	.LBB1501:
 8933              	.LBB1502:
 102:../../libdaisy/src/hid/disp/display.h ****     };
 8934              		.loc 3 102 41 discriminator 2 view .LVU2150
 8935 040c 2268     		ldr	r2, [r4]
 102:../../libdaisy/src/hid/disp/display.h ****     };
 8936              		.loc 3 102 16 discriminator 2 view .LVU2151
 8937 040e 4FF4B479 		mov	r9, #360
 8938 0412 0026     		movs	r6, #0
 8939 0414 5146     		mov	r1, r10
 8940 0416 2046     		mov	r0, r4
 8941              	.LBE1502:
 8942              	.LBE1501:
 142:OledDisplayExtravaganza.cpp ****             OledDisplay::DrawCircle(x - radius, y, (radius / 2) - i, on);
 8943              		.loc 6 142 36 discriminator 2 view .LVU2152
 8944 0418 FCEEE77A 		vcvt.u32.f32	s15, s15
 8945              	.LBB1505:
 8946              	.LBB1503:
 102:../../libdaisy/src/hid/disp/display.h ****     };
 8947              		.loc 3 102 16 discriminator 2 view .LVU2153
 8948 041c CDF808B0 		str	fp, [sp, #8]
 8949 0420 CDE90069 		strd	r6, r9, [sp]
 8950              	.LBE1503:
 8951              	.LBE1505:
 142:OledDisplayExtravaganza.cpp ****             OledDisplay::DrawCircle(x - radius, y, (radius / 2) - i, on);
 8952              		.loc 6 142 36 discriminator 2 view .LVU2154
 8953 0424 17EE903A 		vmov	r3, s15	@ int
 8954              	.LVL715:
 8955              	.LBB1506:
 8956              	.LBI1501:
 100:../../libdaisy/src/hid/disp/display.h ****     {
 8957              		.loc 3 100 5 is_stmt 1 discriminator 2 view .LVU2155
 8958              	.LBB1504:
 102:../../libdaisy/src/hid/disp/display.h ****     };
 8959              		.loc 3 102 9 discriminator 2 view .LVU2156
 102:../../libdaisy/src/hid/disp/display.h ****     };
 8960              		.loc 3 102 16 is_stmt 0 discriminator 2 view .LVU2157
 8961 0428 CDED077A 		vstr.32	s15, [sp, #28]	@ int
 8962 042c 156A     		ldr	r5, [r2, #32]
 8963 042e 4246     		mov	r2, r8
 8964 0430 A847     		blx	r5
 8965              	.LVL716:
 102:../../libdaisy/src/hid/disp/display.h ****     };
 8966              		.loc 3 102 16 discriminator 2 view .LVU2158
ARM GAS  C:\Users\VINCIU~1\AppData\Local\Temp\cc6DIkXk.s 			page 214


 8967              	.LBE1504:
 8968              	.LBE1506:
 143:OledDisplayExtravaganza.cpp ****             OledDisplay::SetCursor(x - radius * 0.15, y - radius / 3);
 8969              		.loc 6 143 13 is_stmt 1 discriminator 2 view .LVU2159
 8970              	.LBB1507:
 8971              	.LBI1507:
 100:../../libdaisy/src/hid/disp/display.h ****     {
 8972              		.loc 3 100 5 discriminator 2 view .LVU2160
 8973              	.LBB1508:
 102:../../libdaisy/src/hid/disp/display.h ****     };
 8974              		.loc 3 102 9 discriminator 2 view .LVU2161
 102:../../libdaisy/src/hid/disp/display.h ****     };
 8975              		.loc 3 102 41 is_stmt 0 discriminator 2 view .LVU2162
 8976 0432 2268     		ldr	r2, [r4]
 102:../../libdaisy/src/hid/disp/display.h ****     };
 8977              		.loc 3 102 16 discriminator 2 view .LVU2163
 8978 0434 079B     		ldr	r3, [sp, #28]
 8979 0436 5146     		mov	r1, r10
 8980 0438 0096     		str	r6, [sp]
 8981 043a 2046     		mov	r0, r4
 8982 043c CDE9019B 		strd	r9, fp, [sp, #4]
 8983 0440 166A     		ldr	r6, [r2, #32]
 8984 0442 4246     		mov	r2, r8
 8985 0444 B047     		blx	r6
 8986              	.LVL717:
 102:../../libdaisy/src/hid/disp/display.h ****     };
 8987              		.loc 3 102 16 discriminator 2 view .LVU2164
 8988              	.LBE1508:
 8989              	.LBE1507:
 144:OledDisplayExtravaganza.cpp ****             OledDisplay::WriteString("2", Font_6x8, on);
 8990              		.loc 6 144 13 is_stmt 1 discriminator 2 view .LVU2165
 144:OledDisplayExtravaganza.cpp ****             OledDisplay::WriteString("2", Font_6x8, on);
 8991              		.loc 6 144 66 is_stmt 0 discriminator 2 view .LVU2166
 8992 0446 B0EE087A 		vmov.f32	s14, #3.0e+0
 144:OledDisplayExtravaganza.cpp ****             OledDisplay::WriteString("2", Font_6x8, on);
 8993              		.loc 6 144 38 discriminator 2 view .LVU2167
 8994 044a B0EE486B 		vmov.f64	d6, d8
 8995              	.LBB1509:
 8996              	.LBB1494:
 133:../../libdaisy/src/hid/disp/display.h ****         currentY_ = (y >= Height()) ? Height() - 1 : y;
 8997              		.loc 3 133 33 discriminator 2 view .LVU2168
 8998 044e 2368     		ldr	r3, [r4]
 8999              	.LBE1494:
 9000              	.LBE1509:
 144:OledDisplayExtravaganza.cpp ****             OledDisplay::WriteString("2", Font_6x8, on);
 9001              		.loc 6 144 66 discriminator 2 view .LVU2169
 9002 0450 CAEE077A 		vdiv.f32	s15, s20, s14
 9003              	.LBB1510:
 9004              	.LBB1495:
 133:../../libdaisy/src/hid/disp/display.h ****         currentY_ = (y >= Height()) ? Height() - 1 : y;
 9005              		.loc 3 133 33 discriminator 2 view .LVU2170
 9006 0454 DA68     		ldr	r2, [r3, #12]
 9007              	.LBE1495:
 9008              	.LBE1510:
 144:OledDisplayExtravaganza.cpp ****             OledDisplay::WriteString("2", Font_6x8, on);
 9009              		.loc 6 144 38 discriminator 2 view .LVU2171
 9010 0456 9FED1E5B 		vldr.64	d5, .L751+8
ARM GAS  C:\Users\VINCIU~1\AppData\Local\Temp\cc6DIkXk.s 			page 215


 9011 045a A9EE056B 		vfma.f64	d6, d9, d5
 144:OledDisplayExtravaganza.cpp ****             OledDisplay::WriteString("2", Font_6x8, on);
 9012              		.loc 6 144 57 discriminator 2 view .LVU2172
 9013 045e 7AEEE77A 		vsub.f32	s15, s21, s15
 144:OledDisplayExtravaganza.cpp ****             OledDisplay::WriteString("2", Font_6x8, on);
 9014              		.loc 6 144 35 discriminator 2 view .LVU2173
 9015 0462 BCEEC66B 		vcvt.u32.f64	s12, d6
 9016 0466 FCEEE77A 		vcvt.u32.f32	s15, s15
 9017 046a 16EE101A 		vmov	r1, s12	@ int
 9018 046e 1FFA81F9 		uxth	r9, r1
 9019 0472 17EE901A 		vmov	r1, s15	@ int
 9020 0476 8EB2     		uxth	r6, r1
 9021              	.LVL718:
 9022              	.LBB1511:
 9023              	.LBI1491:
 131:../../libdaisy/src/hid/disp/display.h ****     {
 9024              		.loc 3 131 10 is_stmt 1 discriminator 2 view .LVU2174
 9025              	.LBB1496:
 133:../../libdaisy/src/hid/disp/display.h ****         currentY_ = (y >= Height()) ? Height() - 1 : y;
 9026              		.loc 3 133 9 discriminator 2 view .LVU2175
 9027 0478 1749     		ldr	r1, .L751+16
 9028 047a 8A42     		cmp	r2, r1
 9029 047c 98D0     		beq	.L716
 133:../../libdaisy/src/hid/disp/display.h ****         currentY_ = (y >= Height()) ? Height() - 1 : y;
 9030              		.loc 3 133 32 is_stmt 0 view .LVU2176
 9031 047e 2046     		mov	r0, r4
 9032 0480 9047     		blx	r2
 9033              	.LVL719:
 133:../../libdaisy/src/hid/disp/display.h ****         currentY_ = (y >= Height()) ? Height() - 1 : y;
 9034              		.loc 3 133 44 view .LVU2177
 9035 0482 2368     		ldr	r3, [r4]
 9036 0484 95E7     		b	.L698
 9037              	.LVL720:
 9038              	.L671:
 133:../../libdaisy/src/hid/disp/display.h ****         currentY_ = (y >= Height()) ? Height() - 1 : y;
 9039              		.loc 3 133 44 view .LVU2178
 9040              	.LBE1496:
 9041              	.LBE1511:
 9042              	.LBE1515:
 9043              	.LBE1526:
 9044              	.LBB1527:
 9045              	.LBB1449:
 9046              	.LBB1445:
 9047              	.LBB1434:
 9048              	.LBB1431:
 9049              	.LBB1428:
 9050              	.LBI1428:
 239:../../libdaisy/src/dev/oled_ssd130x.h ****     {
 9051              		.loc 4 239 10 is_stmt 1 view .LVU2179
 9052              	.LBB1429:
 246:../../libdaisy/src/dev/oled_ssd130x.h ****     }
 9053              		.loc 4 246 49 is_stmt 0 view .LVU2180
 9054 0486 00FA05F5 		lsl	r5, r0, r5
 246:../../libdaisy/src/dev/oled_ssd130x.h ****     }
 9055              		.loc 4 246 42 view .LVU2181
 9056 048a 107D     		ldrb	r0, [r2, #20]	@ zero_extendqisi2
 9057 048c 20EA0500 		bic	r0, r0, r5
ARM GAS  C:\Users\VINCIU~1\AppData\Local\Temp\cc6DIkXk.s 			page 216


 9058 0490 1075     		strb	r0, [r2, #20]
 9059              	.LVL721:
 246:../../libdaisy/src/dev/oled_ssd130x.h ****     }
 9060              		.loc 4 246 42 view .LVU2182
 9061              	.LBE1429:
 9062              	.LBE1428:
 9063              	.LBE1431:
 9064              	.LBE1434:
 9065              	.LBE1445:
 199:../../libdaisy/src/hid/disp/display.h ****         {
 9066              		.loc 3 199 26 is_stmt 1 view .LVU2183
 9067 0492 002B     		cmp	r3, #0
 9068 0494 3FF468AE 		beq	.L674
 9069 0498 8CE6     		b	.L673
 9070              	.LVL722:
 9071              	.L749:
 199:../../libdaisy/src/hid/disp/display.h ****         {
 9072              		.loc 3 199 26 is_stmt 0 view .LVU2184
 9073              	.LBE1449:
 9074              	.LBE1527:
 9075              	.LBB1528:
 9076              	.LBB1516:
 9077              	.LBB1512:
 9078              	.LBB1497:
 134:../../libdaisy/src/hid/disp/display.h ****     }
 9079              		.loc 3 134 33 view .LVU2185
 9080 049a 2046     		mov	r0, r4
 9081 049c 9847     		blx	r3
 9082              	.LVL723:
 9083 049e 96E7     		b	.L701
 9084              	.LVL724:
 9085              	.L745:
 134:../../libdaisy/src/hid/disp/display.h ****     }
 9086              		.loc 3 134 33 view .LVU2186
 9087              	.LBE1497:
 9088              	.LBE1512:
 9089              	.LBE1516:
 9090              	.LBB1517:
 9091              	.LBB1485:
 9092              	.LBB1470:
 9093 04a0 2046     		mov	r0, r4
 9094 04a2 9847     		blx	r3
 9095              	.LVL725:
 9096 04a4 F4E6     		b	.L692
 9097              	.LVL726:
 9098              	.L750:
 134:../../libdaisy/src/hid/disp/display.h ****     }
 9099              		.loc 3 134 33 view .LVU2187
 9100              	.LBE1470:
 9101              	.LBE1485:
 9102              	.LBE1517:
 9103              	.LBB1518:
 9104              	.LBB1513:
 9105              	.LBB1498:
 134:../../libdaisy/src/hid/disp/display.h ****     }
 9106              		.loc 3 134 45 view .LVU2188
 9107 04a6 2046     		mov	r0, r4
ARM GAS  C:\Users\VINCIU~1\AppData\Local\Temp\cc6DIkXk.s 			page 217


 9108 04a8 9847     		blx	r3
 9109              	.LVL727:
 134:../../libdaisy/src/hid/disp/display.h ****     }
 9110              		.loc 3 134 19 view .LVU2189
 9111 04aa 0138     		subs	r0, r0, #1
 9112 04ac 86B2     		uxth	r6, r0
 9113              	.LVL728:
 134:../../libdaisy/src/hid/disp/display.h ****     }
 9114              		.loc 3 134 19 view .LVU2190
 9115 04ae 95E7     		b	.L702
 9116              	.LVL729:
 9117              	.L746:
 134:../../libdaisy/src/hid/disp/display.h ****     }
 9118              		.loc 3 134 19 view .LVU2191
 9119              	.LBE1498:
 9120              	.LBE1513:
 9121              	.LBE1518:
 9122              	.LBB1519:
 9123              	.LBB1486:
 9124              	.LBB1471:
 134:../../libdaisy/src/hid/disp/display.h ****     }
 9125              		.loc 3 134 45 view .LVU2192
 9126 04b0 2046     		mov	r0, r4
 9127 04b2 9847     		blx	r3
 9128              	.LVL730:
 134:../../libdaisy/src/hid/disp/display.h ****     }
 9129              		.loc 3 134 19 view .LVU2193
 9130 04b4 0138     		subs	r0, r0, #1
 9131 04b6 86B2     		uxth	r6, r0
 9132              	.LVL731:
 134:../../libdaisy/src/hid/disp/display.h ****     }
 9133              		.loc 3 134 19 view .LVU2194
 9134 04b8 F2E6     		b	.L693
 9135              	.LVL732:
 9136              	.L748:
 134:../../libdaisy/src/hid/disp/display.h ****     }
 9137              		.loc 3 134 19 view .LVU2195
 9138              	.LBE1471:
 9139              	.LBE1486:
 9140              	.LBE1519:
 9141              	.LBB1520:
 9142              	.LBB1514:
 9143              	.LBB1499:
 133:../../libdaisy/src/hid/disp/display.h ****         currentY_ = (y >= Height()) ? Height() - 1 : y;
 9144              		.loc 3 133 43 view .LVU2196
 9145 04ba 2046     		mov	r0, r4
 9146 04bc 9047     		blx	r2
 9147              	.LVL733:
 133:../../libdaisy/src/hid/disp/display.h ****         currentY_ = (y >= Height()) ? Height() - 1 : y;
 9148              		.loc 3 133 19 view .LVU2197
 9149 04be 0138     		subs	r0, r0, #1
 134:../../libdaisy/src/hid/disp/display.h ****     }
 9150              		.loc 3 134 34 view .LVU2198
 9151 04c0 2368     		ldr	r3, [r4]
 133:../../libdaisy/src/hid/disp/display.h ****         currentY_ = (y >= Height()) ? Height() - 1 : y;
 9152              		.loc 3 133 19 view .LVU2199
 9153 04c2 1FFA80F9 		uxth	r9, r0
ARM GAS  C:\Users\VINCIU~1\AppData\Local\Temp\cc6DIkXk.s 			page 218


 9154              	.LVL734:
 133:../../libdaisy/src/hid/disp/display.h ****         currentY_ = (y >= Height()) ? Height() - 1 : y;
 9155              		.loc 3 133 19 view .LVU2200
 9156 04c6 7CE7     		b	.L699
 9157              	.L752:
 9158              		.align	3
 9159              	.L751:
 9160 04c8 9A999999 		.word	-1717986918
 9161 04cc 9999F53F 		.word	1073060249
 9162 04d0 33333333 		.word	858993459
 9163 04d4 3333C33F 		.word	1069757235
 9164 04d8 00000000 		.word	_ZNK5daisy11OledDisplayINS_13SSD130xDriverILj128ELj64ENS_24SSD130x4WireSpiTransportEEEE5Widt
 9165 04dc 00000000 		.word	_ZNK5daisy11OledDisplayINS_13SSD130xDriverILj128ELj64ENS_24SSD130x4WireSpiTransportEEEE6Heig
 9166 04e0 00000000 		.word	Font_7x10
 9167 04e4 00000000 		.word	Font_6x8
 9168 04e8 00000000 		.word	.LC4
 9169 04ec 04000000 		.word	.LC5
 9170              	.LVL735:
 9171              	.L744:
 133:../../libdaisy/src/hid/disp/display.h ****         currentY_ = (y >= Height()) ? Height() - 1 : y;
 9172              		.loc 3 133 19 view .LVU2201
 9173              	.LBE1499:
 9174              	.LBE1514:
 9175              	.LBE1520:
 9176              	.LBB1521:
 9177              	.LBB1487:
 9178              	.LBB1472:
 133:../../libdaisy/src/hid/disp/display.h ****         currentY_ = (y >= Height()) ? Height() - 1 : y;
 9179              		.loc 3 133 43 view .LVU2202
 9180 04f0 2046     		mov	r0, r4
 9181 04f2 9047     		blx	r2
 9182              	.LVL736:
 133:../../libdaisy/src/hid/disp/display.h ****         currentY_ = (y >= Height()) ? Height() - 1 : y;
 9183              		.loc 3 133 19 view .LVU2203
 9184 04f4 0138     		subs	r0, r0, #1
 134:../../libdaisy/src/hid/disp/display.h ****     }
 9185              		.loc 3 134 34 view .LVU2204
 9186 04f6 2368     		ldr	r3, [r4]
 133:../../libdaisy/src/hid/disp/display.h ****         currentY_ = (y >= Height()) ? Height() - 1 : y;
 9187              		.loc 3 133 19 view .LVU2205
 9188 04f8 1FFA80F9 		uxth	r9, r0
 9189              	.LVL737:
 133:../../libdaisy/src/hid/disp/display.h ****         currentY_ = (y >= Height()) ? Height() - 1 : y;
 9190              		.loc 3 133 19 view .LVU2206
 9191 04fc C1E6     		b	.L690
 9192              	.LVL738:
 9193              	.L661:
 133:../../libdaisy/src/hid/disp/display.h ****         currentY_ = (y >= Height()) ? Height() - 1 : y;
 9194              		.loc 3 133 19 view .LVU2207
 9195              	.LBE1472:
 9196              	.LBE1487:
 9197              	.LBE1521:
 9198              	.LBE1528:
 9199              	.LBB1529:
 9200              	.LBB1418:
 9201              	.LBB1410:
 9202              	.LBB1393:
ARM GAS  C:\Users\VINCIU~1\AppData\Local\Temp\cc6DIkXk.s 			page 219


 9203              	.LBB1384:
 9204              	.LBB1375:
 9205              	.LBI1375:
 239:../../libdaisy/src/dev/oled_ssd130x.h ****     {
 9206              		.loc 4 239 10 is_stmt 1 view .LVU2208
 9207              	.LBB1376:
 246:../../libdaisy/src/dev/oled_ssd130x.h ****     }
 9208              		.loc 4 246 49 is_stmt 0 view .LVU2209
 9209 04fe 02FA00F0 		lsl	r0, r2, r0
 246:../../libdaisy/src/dev/oled_ssd130x.h ****     }
 9210              		.loc 4 246 42 view .LVU2210
 9211 0502 1A7D     		ldrb	r2, [r3, #20]	@ zero_extendqisi2
 9212 0504 D946     		mov	r9, fp
 9213              	.LVL739:
 246:../../libdaisy/src/dev/oled_ssd130x.h ****     }
 9214              		.loc 4 246 42 view .LVU2211
 9215              	.LBE1376:
 9216              	.LBE1375:
 9217              	.LBE1384:
 9218              	.LBE1393:
 9219              	.LBE1410:
 199:../../libdaisy/src/hid/disp/display.h ****         {
 9220              		.loc 3 199 26 is_stmt 1 view .LVU2212
 9221              	.LBB1411:
 9222              	.LBB1394:
 9223              	.LBB1385:
 9224              	.LBB1378:
 9225              	.LBB1377:
 246:../../libdaisy/src/dev/oled_ssd130x.h ****     }
 9226              		.loc 4 246 42 is_stmt 0 view .LVU2213
 9227 0506 22EA0002 		bic	r2, r2, r0
 9228 050a 1A75     		strb	r2, [r3, #20]
 9229              	.LBE1377:
 9230              	.LBE1378:
 9231              	.LBE1385:
 9232              	.LBE1394:
 9233              	.LBE1411:
 199:../../libdaisy/src/hid/disp/display.h ****         {
 9234              		.loc 3 199 26 view .LVU2214
 9235 050c 1BEE903A 		vmov	r3, s23	@ int
 9236 0510 B342     		cmp	r3, r6
 9237 0512 7FF4E5AD 		bne	.L663
 9238              	.LVL740:
 9239              	.L739:
 199:../../libdaisy/src/hid/disp/display.h ****         {
 9240              		.loc 3 199 26 view .LVU2215
 9241              	.LBE1418:
 9242              	.LBE1529:
 124:OledDisplayExtravaganza.cpp ****     OledDisplay::SetCursor(x - (radius * 1.75), y - (radius * 2.5));
 9243              		.loc 6 124 5 is_stmt 1 view .LVU2216
 124:OledDisplayExtravaganza.cpp ****     OledDisplay::SetCursor(x - (radius * 1.75), y - (radius * 2.5));
 9244              		.loc 6 124 32 is_stmt 0 view .LVU2217
 9245 0516 7AEE8A7A 		vadd.f32	s15, s21, s20
 124:OledDisplayExtravaganza.cpp ****     OledDisplay::SetCursor(x - (radius * 1.75), y - (radius * 2.5));
 9246              		.loc 6 124 26 view .LVU2218
 9247 051a FCEEE77A 		vcvt.u32.f32	s15, s15
 9248 051e 17EE90CA 		vmov	ip, s15	@ int
ARM GAS  C:\Users\VINCIU~1\AppData\Local\Temp\cc6DIkXk.s 			page 220


 9249              	.LVL741:
 9250              	.LBB1530:
 181:../../libdaisy/src/hid/disp/display.h ****                   uint_fast8_t y1,
 9251              		.loc 3 181 10 is_stmt 1 view .LVU2219
 9252              	.LBB1450:
 9253              	.LBB1446:
  41:../../libdaisy/src/hid/disp/oled_display.h ****     {
 9254              		.loc 2 41 10 view .LVU2220
 9255              	.LBB1435:
 239:../../libdaisy/src/dev/oled_ssd130x.h ****     {
 9256              		.loc 4 239 10 view .LVU2221
 9257              	.LBB1432:
 241:../../libdaisy/src/dev/oled_ssd130x.h ****             return;
 9258              		.loc 4 241 9 is_stmt 0 view .LVU2222
 9259 0522 BCF13F0F 		cmp	ip, #63
 9260 0526 3FF645AE 		bhi	.L673
 9261 052a B9F1000F 		cmp	r9, #0
 9262 052e 7FF441AE 		bne	.L673
 9263              	.LBE1432:
 9264              	.LBE1435:
 9265              	.LBE1446:
 9266              	.LBE1450:
 9267              	.LBE1530:
 9268              	.LBB1531:
 9269              	.LBB1419:
 199:../../libdaisy/src/hid/disp/display.h ****         {
 9270              		.loc 3 199 19 view .LVU2223
 9271 0532 0123     		movs	r3, #1
 9272              	.LVL742:
 199:../../libdaisy/src/hid/disp/display.h ****         {
 9273              		.loc 3 199 19 view .LVU2224
 9274 0534 07E6     		b	.L705
 9275              	.LVL743:
 9276              	.L742:
 199:../../libdaisy/src/hid/disp/display.h ****         {
 9277              		.loc 3 199 19 view .LVU2225
 9278              	.LBE1419:
 9279              	.LBE1531:
 9280              	.LBB1532:
 9281              	.LBB1458:
 134:../../libdaisy/src/hid/disp/display.h ****     }
 9282              		.loc 3 134 33 view .LVU2226
 9283 0536 2046     		mov	r0, r4
 9284 0538 9847     		blx	r3
 9285              	.LVL744:
 9286 053a 6EE6     		b	.L684
 9287              	.LVL745:
 9288              	.L740:
 133:../../libdaisy/src/hid/disp/display.h ****         currentY_ = (y >= Height()) ? Height() - 1 : y;
 9289              		.loc 3 133 32 view .LVU2227
 9290 053c 2046     		mov	r0, r4
 9291 053e 9847     		blx	r3
 9292              	.LVL746:
 133:../../libdaisy/src/hid/disp/display.h ****         currentY_ = (y >= Height()) ? Height() - 1 : y;
 9293              		.loc 3 133 44 view .LVU2228
 9294 0540 2268     		ldr	r2, [r4]
 9295 0542 5BE6     		b	.L681
ARM GAS  C:\Users\VINCIU~1\AppData\Local\Temp\cc6DIkXk.s 			page 221


 9296              	.LVL747:
 9297              	.L743:
 134:../../libdaisy/src/hid/disp/display.h ****     }
 9298              		.loc 3 134 45 view .LVU2229
 9299 0544 2046     		mov	r0, r4
 9300 0546 9847     		blx	r3
 9301              	.LVL748:
 134:../../libdaisy/src/hid/disp/display.h ****     }
 9302              		.loc 3 134 19 view .LVU2230
 9303 0548 0138     		subs	r0, r0, #1
 9304 054a 1FFA80F9 		uxth	r9, r0
 9305              	.LVL749:
 134:../../libdaisy/src/hid/disp/display.h ****     }
 9306              		.loc 3 134 19 view .LVU2231
 9307 054e 6DE6     		b	.L685
 9308              	.LVL750:
 9309              	.L741:
 133:../../libdaisy/src/hid/disp/display.h ****         currentY_ = (y >= Height()) ? Height() - 1 : y;
 9310              		.loc 3 133 43 view .LVU2232
 9311 0550 2046     		mov	r0, r4
 9312 0552 9847     		blx	r3
 9313              	.LVL751:
 133:../../libdaisy/src/hid/disp/display.h ****         currentY_ = (y >= Height()) ? Height() - 1 : y;
 9314              		.loc 3 133 19 view .LVU2233
 9315 0554 0138     		subs	r0, r0, #1
 134:../../libdaisy/src/hid/disp/display.h ****     }
 9316              		.loc 3 134 34 view .LVU2234
 9317 0556 2268     		ldr	r2, [r4]
 133:../../libdaisy/src/hid/disp/display.h ****         currentY_ = (y >= Height()) ? Height() - 1 : y;
 9318              		.loc 3 133 19 view .LVU2235
 9319 0558 87B2     		uxth	r7, r0
 9320              	.LVL752:
 133:../../libdaisy/src/hid/disp/display.h ****         currentY_ = (y >= Height()) ? Height() - 1 : y;
 9321              		.loc 3 133 19 view .LVU2236
 9322 055a 57E6     		b	.L682
 9323              	.LBE1458:
 9324              	.LBE1532:
 9325              		.cfi_endproc
 9326              	.LFE1822:
 9328              		.section	.rodata._ZN23OledDisplayExtravaganza18drawVerticalToggleEfffbbPKc.str1.4,"aMS",%progbits,
 9329              		.align	2
 9330              	.LC6:
 9331 0000 4F00     		.ascii	"O\000"
 9332 0002 0000     		.align	2
 9333              	.LC7:
 9334 0004 4900     		.ascii	"I\000"
 9335              		.section	.text._ZN23OledDisplayExtravaganza18drawVerticalToggleEfffbbPKc,"ax",%progbits
 9336              		.align	1
 9337              		.p2align 2,,3
 9338              		.global	_ZN23OledDisplayExtravaganza18drawVerticalToggleEfffbbPKc
 9339              		.syntax unified
 9340              		.thumb
 9341              		.thumb_func
 9342              		.fpu fpv5-d16
 9344              	_ZN23OledDisplayExtravaganza18drawVerticalToggleEfffbbPKc:
 9345              	.LVL753:
 9346              	.LFB1823:
ARM GAS  C:\Users\VINCIU~1\AppData\Local\Temp\cc6DIkXk.s 			page 222


 149:OledDisplayExtravaganza.cpp **** 
 150:OledDisplayExtravaganza.cpp **** void OledDisplayExtravaganza::drawVerticalToggle(float       x,
 151:OledDisplayExtravaganza.cpp ****                                                  float       y,
 152:OledDisplayExtravaganza.cpp ****                                                  float       radius,
 153:OledDisplayExtravaganza.cpp ****                                                  bool        on,
 154:OledDisplayExtravaganza.cpp ****                                                  bool        state,
 155:OledDisplayExtravaganza.cpp ****                                                  const char* label)
 156:OledDisplayExtravaganza.cpp **** {
 9347              		.loc 6 156 1 is_stmt 1 view -0
 9348              		.cfi_startproc
 9349              		@ args = 0, pretend = 0, frame = 16
 9350              		@ frame_needed = 0, uses_anonymous_args = 0
 157:OledDisplayExtravaganza.cpp ****     OledDisplay::DrawArc(x, y, radius, 0, -180, on);
 9351              		.loc 6 157 5 view .LVU2238
 9352              		.loc 6 157 25 is_stmt 0 view .LVU2239
 9353 0000 FCEEC07A 		vcvt.u32.f32	s15, s0
 156:OledDisplayExtravaganza.cpp ****     OledDisplay::DrawArc(x, y, radius, 0, -180, on);
 9354              		.loc 6 156 1 view .LVU2240
 9355 0004 2DE9F04F 		push	{r4, r5, r6, r7, r8, r9, r10, fp, lr}
 9356              		.cfi_def_cfa_offset 36
 9357              		.cfi_offset 4, -36
 9358              		.cfi_offset 5, -32
 9359              		.cfi_offset 6, -28
 9360              		.cfi_offset 7, -24
 9361              		.cfi_offset 8, -20
 9362              		.cfi_offset 9, -16
 9363              		.cfi_offset 10, -12
 9364              		.cfi_offset 11, -8
 9365              		.cfi_offset 14, -4
 9366              		.loc 6 157 25 view .LVU2241
 9367 0008 17EE90BA 		vmov	fp, s15	@ int
 9368 000c FCEEE07A 		vcvt.u32.f32	s15, s1
 9369 0010 0026     		movs	r6, #0
 156:OledDisplayExtravaganza.cpp ****     OledDisplay::DrawArc(x, y, radius, 0, -180, on);
 9370              		.loc 6 156 1 view .LVU2242
 9371 0012 0D46     		mov	r5, r1
 9372 0014 0446     		mov	r4, r0
 9373              		.loc 6 157 25 view .LVU2243
 9374 0016 17EE90AA 		vmov	r10, s15	@ int
 9375 001a FCEEC17A 		vcvt.u32.f32	s15, s2
 156:OledDisplayExtravaganza.cpp ****     OledDisplay::DrawArc(x, y, radius, 0, -180, on);
 9376              		.loc 6 156 1 view .LVU2244
 9377 001e 2DED0C8B 		vpush.64	{d8, d9, d10, d11, d12, d13}
 9378              		.cfi_def_cfa_offset 84
 9379              		.cfi_offset 80, -84
 9380              		.cfi_offset 81, -80
 9381              		.cfi_offset 82, -76
 9382              		.cfi_offset 83, -72
 9383              		.cfi_offset 84, -68
 9384              		.cfi_offset 85, -64
 9385              		.cfi_offset 86, -60
 9386              		.cfi_offset 87, -56
 9387              		.cfi_offset 88, -52
 9388              		.cfi_offset 89, -48
 9389              		.cfi_offset 90, -44
 9390              		.cfi_offset 91, -40
 9391 0022 89B0     		sub	sp, sp, #36
ARM GAS  C:\Users\VINCIU~1\AppData\Local\Temp\cc6DIkXk.s 			page 223


 9392              		.cfi_def_cfa_offset 120
 156:OledDisplayExtravaganza.cpp ****     OledDisplay::DrawArc(x, y, radius, 0, -180, on);
 9393              		.loc 6 156 1 view .LVU2245
 9394 0024 B0EE41AA 		vmov.f32	s20, s2
 9395 0028 F0EE60AA 		vmov.f32	s21, s1
 9396 002c 0DEE103A 		vmov	s26, r3	@ int
 9397 0030 0792     		str	r2, [sp, #28]
 9398              		.loc 6 157 25 view .LVU2246
 9399 0032 6FF0B302 		mvn	r2, #179
 9400              	.LVL754:
 9401              		.loc 6 157 25 view .LVU2247
 9402 0036 17EE903A 		vmov	r3, s15	@ int
 9403              	.LVL755:
 9404              		.loc 6 157 25 view .LVU2248
 9405 003a 0291     		str	r1, [sp, #8]
 9406 003c 0096     		str	r6, [sp]
 9407 003e 5946     		mov	r1, fp
 9408              	.LVL756:
 9409              		.loc 6 157 25 view .LVU2249
 9410 0040 0192     		str	r2, [sp, #4]
 9411 0042 5246     		mov	r2, r10
 156:OledDisplayExtravaganza.cpp ****     OledDisplay::DrawArc(x, y, radius, 0, -180, on);
 9412              		.loc 6 156 1 view .LVU2250
 9413 0044 B0EE40CA 		vmov.f32	s24, s0
 9414              		.loc 6 157 25 view .LVU2251
 9415 0048 CDED057A 		vstr.32	s15, [sp, #20]	@ int
 9416 004c FFF7FEFF 		bl	_ZN5daisy25OneBitGraphicsDisplayImplINS_11OledDisplayINS_13SSD130xDriverILj128ELj64ENS_24SSD130
 9417              	.LVL757:
 158:OledDisplayExtravaganza.cpp ****     OledDisplay::DrawArc(x, y - radius, radius, 0, 180, on);
 9418              		.loc 6 158 5 is_stmt 1 view .LVU2252
 9419              		.loc 6 158 31 is_stmt 0 view .LVU2253
 9420 0050 7AEECACA 		vsub.f32	s25, s21, s20
 9421              		.loc 6 158 25 view .LVU2254
 9422 0054 B422     		movs	r2, #180
 9423 0056 0096     		str	r6, [sp]
 9424 0058 059B     		ldr	r3, [sp, #20]
 9425 005a 5946     		mov	r1, fp
 9426 005c FCEEEC7A 		vcvt.u32.f32	s15, s25
 9427 0060 0192     		str	r2, [sp, #4]
 9428 0062 2046     		mov	r0, r4
 9429 0064 0295     		str	r5, [sp, #8]
 9430 0066 17EE906A 		vmov	r6, s15	@ int
 9431 006a 17EE902A 		vmov	r2, s15	@ int
 9432 006e CDED057A 		vstr.32	s15, [sp, #20]	@ int
 9433 0072 FFF7FEFF 		bl	_ZN5daisy25OneBitGraphicsDisplayImplINS_11OledDisplayINS_13SSD130xDriverILj128ELj64ENS_24SSD130
 9434              	.LVL758:
 159:OledDisplayExtravaganza.cpp ****     OledDisplay::DrawLine(x - radius, y, x - radius, y - radius, on);
 9435              		.loc 6 159 5 is_stmt 1 view .LVU2255
 9436              	.LBB1602:
 9437              	.LBB1603:
 188:../../libdaisy/src/hid/disp/display.h ****         int_fast16_t signX  = ((x1 < x2) ? 1 : -1);
 9438              		.loc 3 188 52 is_stmt 0 view .LVU2256
 9439 0076 A6EB0A07 		sub	r7, r6, r10
 9440              	.LBE1603:
 9441              	.LBE1602:
 9442              		.loc 6 159 29 view .LVU2257
 9443 007a 7CEE4A7A 		vsub.f32	s15, s24, s20
ARM GAS  C:\Users\VINCIU~1\AppData\Local\Temp\cc6DIkXk.s 			page 224


 9444              	.LBB1647:
 9445              	.LBB1638:
 188:../../libdaisy/src/hid/disp/display.h ****         int_fast16_t signX  = ((x1 < x2) ? 1 : -1);
 9446              		.loc 3 188 22 view .LVU2258
 9447 007e 002F     		cmp	r7, #0
 9448              	.LBE1638:
 9449              	.LBE1647:
 9450              		.loc 6 159 26 view .LVU2259
 9451 0080 FCEEE77A 		vcvt.u32.f32	s15, s15
 9452              	.LBB1648:
 9453              	.LBB1639:
 188:../../libdaisy/src/hid/disp/display.h ****         int_fast16_t signX  = ((x1 < x2) ? 1 : -1);
 9454              		.loc 3 188 22 view .LVU2260
 9455 0084 B8BF     		it	lt
 9456 0086 7F42     		rsblt	r7, r7, #0
 190:../../libdaisy/src/hid/disp/display.h ****         int_fast16_t error  = deltaX - deltaY;
 9457              		.loc 3 190 42 view .LVU2261
 9458 0088 B245     		cmp	r10, r6
 9459              	.LBE1639:
 9460              	.LBE1648:
 9461              		.loc 6 159 26 view .LVU2262
 9462 008a 17EE90EA 		vmov	lr, s15	@ int
 9463              	.LVL759:
 9464              	.LBB1649:
 9465              	.LBI1602:
 181:../../libdaisy/src/hid/disp/display.h ****                   uint_fast8_t y1,
 9466              		.loc 3 181 10 is_stmt 1 view .LVU2263
 9467              	.LBB1640:
 190:../../libdaisy/src/hid/disp/display.h ****         int_fast16_t error  = deltaX - deltaY;
 9468              		.loc 3 190 42 is_stmt 0 view .LVU2264
 9469 008e C0F07381 		bcc	.L754
 9470              	.LVL760:
 9471              	.LBB1604:
 9472              	.LBB1605:
 9473              	.LBB1606:
 241:../../libdaisy/src/dev/oled_ssd130x.h ****             return;
 9474              		.loc 4 241 28 view .LVU2265
 9475 0092 3F2E     		cmp	r6, #63
 9476 0094 3346     		mov	r3, r6
 9477              	.LBE1606:
 9478              	.LBE1605:
 9479              	.LBE1604:
 191:../../libdaisy/src/hid/disp/display.h ****         int_fast16_t error2;
 9480              		.loc 3 191 22 view .LVU2266
 9481 0096 C7F10000 		rsb	r0, r7, #0
 9482              	.LVL761:
 9483              	.LBB1623:
 9484              	.LBI1604:
  41:../../libdaisy/src/hid/disp/oled_display.h ****     {
 9485              		.loc 2 41 10 is_stmt 1 view .LVU2267
 9486              	.LBB1616:
 9487              	.LBI1605:
 239:../../libdaisy/src/dev/oled_ssd130x.h ****     {
 9488              		.loc 4 239 10 view .LVU2268
 9489              	.LBE1616:
 9490              	.LBE1623:
 190:../../libdaisy/src/hid/disp/display.h ****         int_fast16_t error  = deltaX - deltaY;
ARM GAS  C:\Users\VINCIU~1\AppData\Local\Temp\cc6DIkXk.s 			page 225


 9491              		.loc 3 190 42 is_stmt 0 view .LVU2269
 9492 009a 4FF0FF39 		mov	r9, #-1
 9493              	.LBB1624:
 9494              	.LBB1617:
 9495              	.LBB1611:
 241:../../libdaisy/src/dev/oled_ssd130x.h ****             return;
 9496              		.loc 4 241 28 view .LVU2270
 9497 009e 94BF     		ite	ls
 9498 00a0 0023     		movls	r3, #0
 9499 00a2 0123     		movhi	r3, #1
 241:../../libdaisy/src/dev/oled_ssd130x.h ****             return;
 9500              		.loc 4 241 9 view .LVU2271
 9501 00a4 BEF17F0F 		cmp	lr, #127
 241:../../libdaisy/src/dev/oled_ssd130x.h ****             return;
 9502              		.loc 4 241 28 view .LVU2272
 9503 00a8 0693     		str	r3, [sp, #24]
 241:../../libdaisy/src/dev/oled_ssd130x.h ****             return;
 9504              		.loc 4 241 9 view .LVU2273
 9505 00aa 11D8     		bhi	.L755
 9506 00ac 83B9     		cbnz	r3, .L755
 9507              	.LVL762:
 9508              	.L801:
 244:../../libdaisy/src/dev/oled_ssd130x.h ****         else
 9509              		.loc 4 244 28 view .LVU2274
 9510 00ae 059A     		ldr	r2, [sp, #20]
 9511 00b0 D308     		lsrs	r3, r2, #3
 244:../../libdaisy/src/dev/oled_ssd130x.h ****         else
 9512              		.loc 4 244 54 view .LVU2275
 9513 00b2 02F00701 		and	r1, r2, #7
 244:../../libdaisy/src/dev/oled_ssd130x.h ****         else
 9514              		.loc 4 244 48 view .LVU2276
 9515 00b6 0122     		movs	r2, #1
 244:../../libdaisy/src/dev/oled_ssd130x.h ****         else
 9516              		.loc 4 244 42 view .LVU2277
 9517 00b8 0EEBC313 		add	r3, lr, r3, lsl #7
 9518 00bc 2344     		add	r3, r3, r4
 243:../../libdaisy/src/dev/oled_ssd130x.h ****             buffer_[x + (y / 8) * width] |= (1 << (y % 8));
 9519              		.loc 4 243 9 view .LVU2278
 9520 00be 002D     		cmp	r5, #0
 9521 00c0 00F02E82 		beq	.L756
 244:../../libdaisy/src/dev/oled_ssd130x.h ****         else
 9522              		.loc 4 244 48 view .LVU2279
 9523 00c4 8A40     		lsls	r2, r2, r1
 244:../../libdaisy/src/dev/oled_ssd130x.h ****         else
 9524              		.loc 4 244 42 view .LVU2280
 9525 00c6 197D     		ldrb	r1, [r3, #20]	@ zero_extendqisi2
 9526 00c8 0A43     		orrs	r2, r2, r1
 9527 00ca 1A75     		strb	r2, [r3, #20]
 9528 00cc 0023     		movs	r3, #0
 9529 00ce 0693     		str	r3, [sp, #24]
 9530              	.L755:
 9531              	.LVL763:
 244:../../libdaisy/src/dev/oled_ssd130x.h ****         else
 9532              		.loc 4 244 42 view .LVU2281
 9533              	.LBE1611:
 9534              	.LBE1617:
 9535              	.LBE1624:
ARM GAS  C:\Users\VINCIU~1\AppData\Local\Temp\cc6DIkXk.s 			page 226


 199:../../libdaisy/src/hid/disp/display.h ****         {
 9536              		.loc 3 199 26 is_stmt 1 view .LVU2282
 9537 00d0 059B     		ldr	r3, [sp, #20]
 9538 00d2 9A45     		cmp	r10, r3
 9539 00d4 00F02F82 		beq	.L834
 9540              	.L758:
 9541              	.LVL764:
 190:../../libdaisy/src/hid/disp/display.h ****         int_fast16_t error  = deltaX - deltaY;
 9542              		.loc 3 190 42 is_stmt 0 view .LVU2283
 9543 00d8 0246     		mov	r2, r0
 9544              	.LBE1640:
 9545              	.LBE1649:
 157:OledDisplayExtravaganza.cpp ****     OledDisplay::DrawArc(x, y - radius, radius, 0, 180, on);
 9546              		.loc 6 157 25 view .LVU2284
 9547 00da 5346     		mov	r3, r10
 9548              		.loc 6 159 26 view .LVU2285
 9549 00dc 7146     		mov	r1, lr
 9550              	.LVL765:
 9551              	.L761:
 9552              	.LBB1650:
 9553              	.LBB1641:
 9554              	.LBB1625:
 9555              	.LBI1625:
  41:../../libdaisy/src/hid/disp/oled_display.h ****     {
 9556              		.loc 2 41 10 is_stmt 1 view .LVU2286
 9557              	.LBB1626:
 9558              	.LBI1626:
 239:../../libdaisy/src/dev/oled_ssd130x.h ****     {
 9559              		.loc 4 239 10 view .LVU2287
 9560              	.LBB1627:
 241:../../libdaisy/src/dev/oled_ssd130x.h ****             return;
 9561              		.loc 4 241 9 is_stmt 0 view .LVU2288
 9562 00de 7F29     		cmp	r1, #127
 9563 00e0 14D8     		bhi	.L762
 9564 00e2 3F2B     		cmp	r3, #63
 9565 00e4 12D8     		bhi	.L762
 244:../../libdaisy/src/dev/oled_ssd130x.h ****         else
 9566              		.loc 4 244 28 view .LVU2289
 9567 00e6 DE08     		lsrs	r6, r3, #3
 244:../../libdaisy/src/dev/oled_ssd130x.h ****         else
 9568              		.loc 4 244 54 view .LVU2290
 9569 00e8 03F00708 		and	r8, r3, #7
 244:../../libdaisy/src/dev/oled_ssd130x.h ****         else
 9570              		.loc 4 244 48 view .LVU2291
 9571 00ec 4FF0010C 		mov	ip, #1
 244:../../libdaisy/src/dev/oled_ssd130x.h ****         else
 9572              		.loc 4 244 42 view .LVU2292
 9573 00f0 01EBC616 		add	r6, r1, r6, lsl #7
 9574 00f4 2644     		add	r6, r6, r4
 243:../../libdaisy/src/dev/oled_ssd130x.h ****             buffer_[x + (y / 8) * width] |= (1 << (y % 8));
 9575              		.loc 4 243 9 view .LVU2293
 9576 00f6 002D     		cmp	r5, #0
 9577 00f8 00F02481 		beq	.L763
 244:../../libdaisy/src/dev/oled_ssd130x.h ****         else
 9578              		.loc 4 244 48 view .LVU2294
 9579 00fc 0CFA08FC 		lsl	ip, ip, r8
 244:../../libdaisy/src/dev/oled_ssd130x.h ****         else
ARM GAS  C:\Users\VINCIU~1\AppData\Local\Temp\cc6DIkXk.s 			page 227


 9580              		.loc 4 244 42 view .LVU2295
 9581 0100 96F81480 		ldrb	r8, [r6, #20]	@ zero_extendqisi2
 9582 0104 4CEA080C 		orr	ip, ip, r8
 9583 0108 86F814C0 		strb	ip, [r6, #20]
 9584              	.L762:
 9585              	.LVL766:
 244:../../libdaisy/src/dev/oled_ssd130x.h ****         else
 9586              		.loc 4 244 42 view .LVU2296
 9587              	.LBE1627:
 9588              	.LBE1626:
 9589              	.LBE1625:
 203:../../libdaisy/src/hid/disp/display.h ****             {
 9590              		.loc 3 203 13 view .LVU2297
 9591 010c B0EB420F 		cmp	r0, r2, lsl #1
 202:../../libdaisy/src/hid/disp/display.h ****             if(error2 > -deltaY)
 9592              		.loc 3 202 20 view .LVU2298
 9593 0110 4FEA4206 		lsl	r6, r2, #1
 9594              	.LVL767:
 203:../../libdaisy/src/hid/disp/display.h ****             {
 9595              		.loc 3 203 13 view .LVU2299
 9596 0114 01DA     		bge	.L764
 205:../../libdaisy/src/hid/disp/display.h ****                 x1 += signX;
 9597              		.loc 3 205 23 view .LVU2300
 9598 0116 D21B     		subs	r2, r2, r7
 9599              	.LVL768:
 206:../../libdaisy/src/hid/disp/display.h ****             }
 9600              		.loc 3 206 20 view .LVU2301
 9601 0118 0139     		subs	r1, r1, #1
 9602              	.LVL769:
 9603              	.L764:
 209:../../libdaisy/src/hid/disp/display.h ****             {
 9604              		.loc 3 209 13 view .LVU2302
 9605 011a 06B1     		cbz	r6, .L765
 212:../../libdaisy/src/hid/disp/display.h ****             }
 9606              		.loc 3 212 20 view .LVU2303
 9607 011c 4B44     		add	r3, r3, r9
 9608              	.LVL770:
 9609              	.L765:
 199:../../libdaisy/src/hid/disp/display.h ****         {
 9610              		.loc 3 199 26 is_stmt 1 view .LVU2304
 9611 011e 8E45     		cmp	lr, r1
 9612 0120 DDD1     		bne	.L761
 199:../../libdaisy/src/hid/disp/display.h ****         {
 9613              		.loc 3 199 26 is_stmt 0 view .LVU2305
 9614 0122 059E     		ldr	r6, [sp, #20]
 9615              	.LVL771:
 199:../../libdaisy/src/hid/disp/display.h ****         {
 9616              		.loc 3 199 26 view .LVU2306
 9617 0124 9E42     		cmp	r6, r3
 9618 0126 DAD1     		bne	.L761
 9619              	.LVL772:
 199:../../libdaisy/src/hid/disp/display.h ****         {
 9620              		.loc 3 199 26 view .LVU2307
 9621              	.LBE1641:
 9622              	.LBE1650:
 160:OledDisplayExtravaganza.cpp ****     OledDisplay::DrawLine(x + radius, y, x + radius, y - radius, on);
 9623              		.loc 6 160 5 is_stmt 1 view .LVU2308
ARM GAS  C:\Users\VINCIU~1\AppData\Local\Temp\cc6DIkXk.s 			page 228


 9624              		.loc 6 160 29 is_stmt 0 view .LVU2309
 9625 0128 7CEE0A7A 		vadd.f32	s15, s24, s20
 9626              	.LBB1651:
 9627              	.LBB1652:
 9628              	.LBB1653:
 9629              	.LBB1654:
 9630              	.LBB1655:
 241:../../libdaisy/src/dev/oled_ssd130x.h ****             return;
 9631              		.loc 4 241 23 view .LVU2310
 9632 012c 069B     		ldr	r3, [sp, #24]
 9633              	.LBE1655:
 9634              	.LBE1654:
 9635              	.LBE1653:
 9636              	.LBE1652:
 9637              	.LBE1651:
 9638              		.loc 6 160 26 view .LVU2311
 9639 012e FCEEE77A 		vcvt.u32.f32	s15, s15
 9640 0132 17EE90EA 		vmov	lr, s15	@ int
 9641              	.LVL773:
 9642              	.LBB1683:
 9643              	.LBI1651:
 181:../../libdaisy/src/hid/disp/display.h ****                   uint_fast8_t y1,
 9644              		.loc 3 181 10 is_stmt 1 view .LVU2312
 9645              	.LBB1678:
 9646              	.LBB1666:
 9647              	.LBI1653:
  41:../../libdaisy/src/hid/disp/oled_display.h ****     {
 9648              		.loc 2 41 10 view .LVU2313
 9649              	.LBB1662:
 9650              	.LBI1654:
 239:../../libdaisy/src/dev/oled_ssd130x.h ****     {
 9651              		.loc 4 239 10 view .LVU2314
 9652              	.LBB1658:
 241:../../libdaisy/src/dev/oled_ssd130x.h ****             return;
 9653              		.loc 4 241 23 is_stmt 0 view .LVU2315
 9654 0136 BEF17F0F 		cmp	lr, #127
 9655 013a 88BF     		it	hi
 9656 013c 43F00103 		orrhi	r3, r3, #1
 241:../../libdaisy/src/dev/oled_ssd130x.h ****             return;
 9657              		.loc 4 241 9 view .LVU2316
 9658 0140 83B9     		cbnz	r3, .L769
 9659              	.LVL774:
 9660              	.L800:
 244:../../libdaisy/src/dev/oled_ssd130x.h ****         else
 9661              		.loc 4 244 28 view .LVU2317
 9662 0142 0599     		ldr	r1, [sp, #20]
 9663 0144 CA08     		lsrs	r2, r1, #3
 244:../../libdaisy/src/dev/oled_ssd130x.h ****         else
 9664              		.loc 4 244 42 view .LVU2318
 9665 0146 0EEBC212 		add	r2, lr, r2, lsl #7
 9666 014a 2244     		add	r2, r2, r4
 243:../../libdaisy/src/dev/oled_ssd130x.h ****             buffer_[x + (y / 8) * width] |= (1 << (y % 8));
 9667              		.loc 4 243 9 view .LVU2319
 9668 014c 002D     		cmp	r5, #0
 9669 014e 00F0A481 		beq	.L766
 9670              	.LVL775:
 243:../../libdaisy/src/dev/oled_ssd130x.h ****             buffer_[x + (y / 8) * width] |= (1 << (y % 8));
ARM GAS  C:\Users\VINCIU~1\AppData\Local\Temp\cc6DIkXk.s 			page 229


 9671              		.loc 4 243 9 view .LVU2320
 9672              	.LBE1658:
 9673              	.LBE1662:
 9674              	.LBE1666:
 199:../../libdaisy/src/hid/disp/display.h ****         {
 9675              		.loc 3 199 26 is_stmt 1 view .LVU2321
 9676              	.LBB1667:
 9677              	.LBB1663:
 9678              	.LBB1659:
 244:../../libdaisy/src/dev/oled_ssd130x.h ****         else
 9679              		.loc 4 244 48 is_stmt 0 view .LVU2322
 9680 0152 0126     		movs	r6, #1
 244:../../libdaisy/src/dev/oled_ssd130x.h ****         else
 9681              		.loc 4 244 54 view .LVU2323
 9682 0154 01F00701 		and	r1, r1, #7
 244:../../libdaisy/src/dev/oled_ssd130x.h ****         else
 9683              		.loc 4 244 48 view .LVU2324
 9684 0158 06FA01F1 		lsl	r1, r6, r1
 244:../../libdaisy/src/dev/oled_ssd130x.h ****         else
 9685              		.loc 4 244 42 view .LVU2325
 9686 015c 167D     		ldrb	r6, [r2, #20]	@ zero_extendqisi2
 9687 015e 3143     		orrs	r1, r1, r6
 9688 0160 1175     		strb	r1, [r2, #20]
 9689              	.LBE1659:
 9690              	.LBE1663:
 9691              	.LBE1667:
 199:../../libdaisy/src/hid/disp/display.h ****         {
 9692              		.loc 3 199 26 view .LVU2326
 9693 0162 3BBB     		cbnz	r3, .L768
 9694              	.L769:
 9695              	.LVL776:
 199:../../libdaisy/src/hid/disp/display.h ****         {
 9696              		.loc 3 199 26 view .LVU2327
 9697              	.LBE1678:
 9698              	.LBE1683:
 9699              	.LBB1684:
 9700              	.LBB1642:
 199:../../libdaisy/src/hid/disp/display.h ****         {
 9701              		.loc 3 199 33 view .LVU2328
 9702 0164 0246     		mov	r2, r0
 9703              	.LBE1642:
 9704              	.LBE1684:
 157:OledDisplayExtravaganza.cpp ****     OledDisplay::DrawArc(x, y - radius, radius, 0, 180, on);
 9705              		.loc 6 157 25 view .LVU2329
 9706 0166 5346     		mov	r3, r10
 9707 0168 7146     		mov	r1, lr
 9708              	.L771:
 9709              	.LVL777:
 9710              	.LBB1685:
 9711              	.LBB1679:
 9712              	.LBB1668:
 9713              	.LBI1668:
  41:../../libdaisy/src/hid/disp/oled_display.h ****     {
 9714              		.loc 2 41 10 is_stmt 1 view .LVU2330
 9715              	.LBB1669:
 9716              	.LBI1669:
 239:../../libdaisy/src/dev/oled_ssd130x.h ****     {
ARM GAS  C:\Users\VINCIU~1\AppData\Local\Temp\cc6DIkXk.s 			page 230


 9717              		.loc 4 239 10 view .LVU2331
 9718              	.LBB1670:
 241:../../libdaisy/src/dev/oled_ssd130x.h ****             return;
 9719              		.loc 4 241 9 is_stmt 0 view .LVU2332
 9720 016a 7F29     		cmp	r1, #127
 9721 016c 14D8     		bhi	.L772
 9722 016e 3F2B     		cmp	r3, #63
 9723 0170 12D8     		bhi	.L772
 244:../../libdaisy/src/dev/oled_ssd130x.h ****         else
 9724              		.loc 4 244 28 view .LVU2333
 9725 0172 DE08     		lsrs	r6, r3, #3
 244:../../libdaisy/src/dev/oled_ssd130x.h ****         else
 9726              		.loc 4 244 54 view .LVU2334
 9727 0174 03F00708 		and	r8, r3, #7
 244:../../libdaisy/src/dev/oled_ssd130x.h ****         else
 9728              		.loc 4 244 48 view .LVU2335
 9729 0178 4FF0010C 		mov	ip, #1
 244:../../libdaisy/src/dev/oled_ssd130x.h ****         else
 9730              		.loc 4 244 42 view .LVU2336
 9731 017c 01EBC616 		add	r6, r1, r6, lsl #7
 9732 0180 2644     		add	r6, r6, r4
 243:../../libdaisy/src/dev/oled_ssd130x.h ****             buffer_[x + (y / 8) * width] |= (1 << (y % 8));
 9733              		.loc 4 243 9 view .LVU2337
 9734 0182 002D     		cmp	r5, #0
 9735 0184 00F0E780 		beq	.L773
 244:../../libdaisy/src/dev/oled_ssd130x.h ****         else
 9736              		.loc 4 244 48 view .LVU2338
 9737 0188 0CFA08FC 		lsl	ip, ip, r8
 244:../../libdaisy/src/dev/oled_ssd130x.h ****         else
 9738              		.loc 4 244 42 view .LVU2339
 9739 018c 96F81480 		ldrb	r8, [r6, #20]	@ zero_extendqisi2
 9740 0190 4CEA080C 		orr	ip, ip, r8
 9741 0194 86F814C0 		strb	ip, [r6, #20]
 9742              	.L772:
 9743              	.LVL778:
 244:../../libdaisy/src/dev/oled_ssd130x.h ****         else
 9744              		.loc 4 244 42 view .LVU2340
 9745              	.LBE1670:
 9746              	.LBE1669:
 9747              	.LBE1668:
 203:../../libdaisy/src/hid/disp/display.h ****             {
 9748              		.loc 3 203 13 view .LVU2341
 9749 0198 B0EB420F 		cmp	r0, r2, lsl #1
 202:../../libdaisy/src/hid/disp/display.h ****             if(error2 > -deltaY)
 9750              		.loc 3 202 20 view .LVU2342
 9751 019c 4FEA4206 		lsl	r6, r2, #1
 9752              	.LVL779:
 203:../../libdaisy/src/hid/disp/display.h ****             {
 9753              		.loc 3 203 13 view .LVU2343
 9754 01a0 01DA     		bge	.L774
 205:../../libdaisy/src/hid/disp/display.h ****                 x1 += signX;
 9755              		.loc 3 205 23 view .LVU2344
 9756 01a2 D21B     		subs	r2, r2, r7
 9757              	.LVL780:
 206:../../libdaisy/src/hid/disp/display.h ****             }
 9758              		.loc 3 206 20 view .LVU2345
 9759 01a4 0139     		subs	r1, r1, #1
ARM GAS  C:\Users\VINCIU~1\AppData\Local\Temp\cc6DIkXk.s 			page 231


 9760              	.LVL781:
 9761              	.L774:
 209:../../libdaisy/src/hid/disp/display.h ****             {
 9762              		.loc 3 209 13 view .LVU2346
 9763 01a6 06B1     		cbz	r6, .L775
 212:../../libdaisy/src/hid/disp/display.h ****             }
 9764              		.loc 3 212 20 view .LVU2347
 9765 01a8 4B44     		add	r3, r3, r9
 9766              	.LVL782:
 9767              	.L775:
 199:../../libdaisy/src/hid/disp/display.h ****         {
 9768              		.loc 3 199 26 is_stmt 1 view .LVU2348
 9769 01aa 8E45     		cmp	lr, r1
 9770 01ac DDD1     		bne	.L771
 199:../../libdaisy/src/hid/disp/display.h ****         {
 9771              		.loc 3 199 26 is_stmt 0 view .LVU2349
 9772 01ae 059E     		ldr	r6, [sp, #20]
 9773              	.LVL783:
 199:../../libdaisy/src/hid/disp/display.h ****         {
 9774              		.loc 3 199 26 view .LVU2350
 9775 01b0 9E42     		cmp	r6, r3
 9776 01b2 DAD1     		bne	.L771
 9777              	.LVL784:
 9778              	.L768:
 199:../../libdaisy/src/hid/disp/display.h ****         {
 9779              		.loc 3 199 26 view .LVU2351
 9780              	.LBE1679:
 9781              	.LBE1685:
 161:OledDisplayExtravaganza.cpp ****     OledDisplay::SetCursor(x - (radius * 1.75), y - (radius * 2.5));
 9782              		.loc 6 161 5 is_stmt 1 view .LVU2352
 9783              		.loc 6 161 28 is_stmt 0 view .LVU2353
 9784 01b4 B7EECC9A 		vcvt.f64.f32	d9, s24
 9785              	.LBB1686:
 9786              	.LBB1687:
 133:../../libdaisy/src/hid/disp/display.h ****         currentY_ = (y >= Height()) ? Height() - 1 : y;
 9787              		.loc 3 133 33 view .LVU2354
 9788 01b8 2368     		ldr	r3, [r4]
 9789              	.LBE1687:
 9790              	.LBE1686:
 9791              		.loc 6 161 33 view .LVU2355
 9792 01ba B7EECA7A 		vcvt.f64.f32	d7, s20
 9793              		.loc 6 161 30 view .LVU2356
 9794 01be B7EE0C6B 		vmov.f64	d6, #1.75e+0
 9795              	.LBB1692:
 9796              	.LBB1688:
 133:../../libdaisy/src/hid/disp/display.h ****         currentY_ = (y >= Height()) ? Height() - 1 : y;
 9797              		.loc 3 133 33 view .LVU2357
 9798 01c2 DA68     		ldr	r2, [r3, #12]
 9799              	.LBE1688:
 9800              	.LBE1692:
 9801              		.loc 6 161 49 view .LVU2358
 9802 01c4 B7EEEABA 		vcvt.f64.f32	d11, s21
 9803              		.loc 6 161 30 view .LVU2359
 9804 01c8 B0EE495B 		vmov.f64	d5, d9
 9805              		.loc 6 161 51 view .LVU2360
 9806 01cc B0EE044B 		vmov.f64	d4, #2.5e+0
 9807              		.loc 6 161 30 view .LVU2361
ARM GAS  C:\Users\VINCIU~1\AppData\Local\Temp\cc6DIkXk.s 			page 232


 9808 01d0 B1EE478B 		vneg.f64	d8, d7
 9809 01d4 A7EE465B 		vfms.f64	d5, d7, d6
 9810              		.loc 6 161 51 view .LVU2362
 9811 01d8 B0EE4B6B 		vmov.f64	d6, d11
 9812 01dc A7EE446B 		vfms.f64	d6, d7, d4
 9813              		.loc 6 161 27 view .LVU2363
 9814 01e0 BCEEC55B 		vcvt.u32.f64	s10, d5
 9815 01e4 15EE101A 		vmov	r1, s10	@ int
 9816 01e8 8EB2     		uxth	r6, r1
 9817 01ea BCEEC66B 		vcvt.u32.f64	s12, d6
 9818 01ee 16EE101A 		vmov	r1, s12	@ int
 9819 01f2 8FB2     		uxth	r7, r1
 9820              	.LVL785:
 9821              	.LBB1693:
 9822              	.LBI1686:
 131:../../libdaisy/src/hid/disp/display.h ****     {
 9823              		.loc 3 131 10 is_stmt 1 view .LVU2364
 9824              	.LBB1689:
 133:../../libdaisy/src/hid/disp/display.h ****         currentY_ = (y >= Height()) ? Height() - 1 : y;
 9825              		.loc 3 133 9 view .LVU2365
 9826 01f4 B849     		ldr	r1, .L846+24
 9827 01f6 8A42     		cmp	r2, r1
 9828 01f8 40F0B081 		bne	.L835
 133:../../libdaisy/src/hid/disp/display.h ****         currentY_ = (y >= Height()) ? Height() - 1 : y;
 9829              		.loc 3 133 33 is_stmt 0 view .LVU2366
 9830 01fc 8020     		movs	r0, #128
 9831              	.L776:
 133:../../libdaisy/src/hid/disp/display.h ****         currentY_ = (y >= Height()) ? Height() - 1 : y;
 9832              		.loc 3 133 19 view .LVU2367
 9833 01fe 8642     		cmp	r6, r0
 9834 0200 05D3     		bcc	.L777
 133:../../libdaisy/src/hid/disp/display.h ****         currentY_ = (y >= Height()) ? Height() - 1 : y;
 9835              		.loc 3 133 44 view .LVU2368
 9836 0202 DA68     		ldr	r2, [r3, #12]
 9837 0204 B449     		ldr	r1, .L846+24
 9838 0206 8A42     		cmp	r2, r1
 9839 0208 40F0B181 		bne	.L836
 9840 020c 7F26     		movs	r6, #127
 9841              	.LVL786:
 9842              	.L777:
 134:../../libdaisy/src/hid/disp/display.h ****     }
 9843              		.loc 3 134 34 view .LVU2369
 9844 020e 9B68     		ldr	r3, [r3, #8]
 133:../../libdaisy/src/hid/disp/display.h ****         currentY_ = (y >= Height()) ? Height() - 1 : y;
 9845              		.loc 3 133 19 view .LVU2370
 9846 0210 A680     		strh	r6, [r4, #4]	@ movhi
 134:../../libdaisy/src/hid/disp/display.h ****     }
 9847              		.loc 3 134 9 is_stmt 1 view .LVU2371
 9848 0212 B24E     		ldr	r6, .L846+28
 9849 0214 B342     		cmp	r3, r6
 9850 0216 40F09E81 		bne	.L837
 134:../../libdaisy/src/hid/disp/display.h ****     }
 9851              		.loc 3 134 34 is_stmt 0 view .LVU2372
 9852 021a 4020     		movs	r0, #64
 9853              	.L779:
 134:../../libdaisy/src/hid/disp/display.h ****     }
 9854              		.loc 3 134 19 view .LVU2373
ARM GAS  C:\Users\VINCIU~1\AppData\Local\Temp\cc6DIkXk.s 			page 233


 9855 021c 8742     		cmp	r7, r0
 9856 021e 05D3     		bcc	.L780
 134:../../libdaisy/src/hid/disp/display.h ****     }
 9857              		.loc 3 134 46 view .LVU2374
 9858 0220 2368     		ldr	r3, [r4]
 9859 0222 9B68     		ldr	r3, [r3, #8]
 9860 0224 B342     		cmp	r3, r6
 9861 0226 40F09D81 		bne	.L838
 9862 022a 3F27     		movs	r7, #63
 9863              	.LVL787:
 9864              	.L780:
 134:../../libdaisy/src/hid/disp/display.h ****     }
 9865              		.loc 3 134 46 view .LVU2375
 9866              	.LBE1689:
 9867              	.LBE1693:
 162:OledDisplayExtravaganza.cpp ****     OledDisplay::WriteString(label, Font_7x10, on);
 9868              		.loc 6 162 29 view .LVU2376
 9869 022c AC4B     		ldr	r3, .L846+32
 9870 022e 1DEE101A 		vmov	r1, s26	@ int
 9871              	.LBB1694:
 9872              	.LBB1690:
 134:../../libdaisy/src/hid/disp/display.h ****     }
 9873              		.loc 3 134 19 view .LVU2377
 9874 0232 E780     		strh	r7, [r4, #6]	@ movhi
 9875              	.LVL788:
 134:../../libdaisy/src/hid/disp/display.h ****     }
 9876              		.loc 3 134 19 view .LVU2378
 9877              	.LBE1690:
 9878              	.LBE1694:
 9879              		.loc 6 162 5 is_stmt 1 view .LVU2379
 9880              		.loc 6 162 29 is_stmt 0 view .LVU2380
 9881 0234 2046     		mov	r0, r4
 9882 0236 0095     		str	r5, [sp]
 9883 0238 0CCB     		ldm	r3, {r2, r3}
 9884 023a FFF7FEFF 		bl	_ZN5daisy25OneBitGraphicsDisplayImplINS_11OledDisplayINS_13SSD130xDriverILj128ELj64ENS_24SSD130
 9885              	.LVL789:
 163:OledDisplayExtravaganza.cpp **** 
 164:OledDisplayExtravaganza.cpp ****     if(state == true)
 9886              		.loc 6 164 5 is_stmt 1 view .LVU2381
 9887              	.LBB1695:
 9888              	.LBB1696:
 165:OledDisplayExtravaganza.cpp ****     {
 166:OledDisplayExtravaganza.cpp ****         for(int i = 1; i <= radius; i++)
 9889              		.loc 6 166 26 is_stmt 0 view .LVU2382
 9890 023e F7EE007A 		vmov.f32	s15, #1.0e+0
 9891              	.LBE1696:
 164:OledDisplayExtravaganza.cpp ****     {
 9892              		.loc 6 164 5 view .LVU2383
 9893 0242 079B     		ldr	r3, [sp, #28]
 9894              	.LBB1721:
 9895              		.loc 6 166 26 view .LVU2384
 9896 0244 B4EEE7AA 		vcmpe.f32	s20, s15
 9897              	.LBE1721:
 164:OledDisplayExtravaganza.cpp ****     {
 9898              		.loc 6 164 5 view .LVU2385
 9899 0248 002B     		cmp	r3, #0
 9900 024a 00F08D80 		beq	.L782
ARM GAS  C:\Users\VINCIU~1\AppData\Local\Temp\cc6DIkXk.s 			page 234


 9901              	.LVL790:
 9902              	.LBB1722:
 9903              		.loc 6 166 26 is_stmt 1 view .LVU2386
 9904 024e F1EE10FA 		vmrs	APSR_nzcv, FPSCR
 9905 0252 C0F28C80 		blt	.L753
 9906              		.loc 6 166 17 is_stmt 0 view .LVU2387
 9907 0256 0123     		movs	r3, #1
 167:OledDisplayExtravaganza.cpp ****         {
 168:OledDisplayExtravaganza.cpp ****             OledDisplay::DrawCircle(x, y, (radius / 2) - i, on);
 9908              		.loc 6 168 51 view .LVU2388
 9909 0258 F6EE009A 		vmov.f32	s19, #5.0e-1
 9910 025c B1EE4A9A 		vneg.f32	s18, s20
 166:OledDisplayExtravaganza.cpp ****         {
 9911              		.loc 6 166 17 view .LVU2389
 9912 0260 0593     		str	r3, [sp, #20]
 9913 0262 A04B     		ldr	r3, .L846+36
 9914              		.loc 6 168 51 view .LVU2390
 9915 0264 6AEE299A 		vmul.f32	s19, s20, s19
 9916 0268 0693     		str	r3, [sp, #24]
 9917 026a 2CE0     		b	.L790
 9918              	.LVL791:
 9919              	.L807:
 9920              	.LBB1697:
 9921              	.LBB1698:
 133:../../libdaisy/src/hid/disp/display.h ****         currentY_ = (y >= Height()) ? Height() - 1 : y;
 9922              		.loc 3 133 33 view .LVU2391
 9923 026c 8020     		movs	r0, #128
 9924              	.L784:
 133:../../libdaisy/src/hid/disp/display.h ****         currentY_ = (y >= Height()) ? Height() - 1 : y;
 9925              		.loc 3 133 19 view .LVU2392
 9926 026e 8045     		cmp	r8, r0
 9927 0270 06D3     		bcc	.L785
 133:../../libdaisy/src/hid/disp/display.h ****         currentY_ = (y >= Height()) ? Height() - 1 : y;
 9928              		.loc 3 133 44 view .LVU2393
 9929 0272 DA68     		ldr	r2, [r3, #12]
 9930 0274 9849     		ldr	r1, .L846+24
 9931 0276 8A42     		cmp	r2, r1
 9932 0278 40F04B81 		bne	.L839
 9933 027c 4FF07F08 		mov	r8, #127
 9934              	.LVL792:
 9935              	.L785:
 134:../../libdaisy/src/hid/disp/display.h ****     }
 9936              		.loc 3 134 34 view .LVU2394
 9937 0280 9B68     		ldr	r3, [r3, #8]
 133:../../libdaisy/src/hid/disp/display.h ****         currentY_ = (y >= Height()) ? Height() - 1 : y;
 9938              		.loc 3 133 19 view .LVU2395
 9939 0282 A4F80480 		strh	r8, [r4, #4]	@ movhi
 134:../../libdaisy/src/hid/disp/display.h ****     }
 9940              		.loc 3 134 9 is_stmt 1 view .LVU2396
 9941 0286 B342     		cmp	r3, r6
 9942 0288 40F01781 		bne	.L840
 134:../../libdaisy/src/hid/disp/display.h ****     }
 9943              		.loc 3 134 34 is_stmt 0 view .LVU2397
 9944 028c 4020     		movs	r0, #64
 9945              	.L787:
 134:../../libdaisy/src/hid/disp/display.h ****     }
 9946              		.loc 3 134 19 view .LVU2398
ARM GAS  C:\Users\VINCIU~1\AppData\Local\Temp\cc6DIkXk.s 			page 235


 9947 028e 8742     		cmp	r7, r0
 9948 0290 05D3     		bcc	.L788
 134:../../libdaisy/src/hid/disp/display.h ****     }
 9949              		.loc 3 134 46 view .LVU2399
 9950 0292 2368     		ldr	r3, [r4]
 9951 0294 9B68     		ldr	r3, [r3, #8]
 9952 0296 B342     		cmp	r3, r6
 9953 0298 40F02F81 		bne	.L841
 9954 029c 3F27     		movs	r7, #63
 9955              	.LVL793:
 9956              	.L788:
 134:../../libdaisy/src/hid/disp/display.h ****     }
 9957              		.loc 3 134 46 view .LVU2400
 9958              	.LBE1698:
 9959              	.LBE1697:
 166:OledDisplayExtravaganza.cpp ****         {
 9960              		.loc 6 166 9 view .LVU2401
 9961 029e 059B     		ldr	r3, [sp, #20]
 169:OledDisplayExtravaganza.cpp ****             OledDisplay::DrawCircle(x, y, (radius / 2) - i, on);
 170:OledDisplayExtravaganza.cpp ****             OledDisplay::SetCursor(x - radius / 4, y - radius * 1.45);
 171:OledDisplayExtravaganza.cpp ****             OledDisplay::WriteString("O", Font_6x8, on);
 9962              		.loc 6 171 37 view .LVU2402
 9963 02a0 2046     		mov	r0, r4
 9964 02a2 069A     		ldr	r2, [sp, #24]
 166:OledDisplayExtravaganza.cpp ****         {
 9965              		.loc 6 166 9 view .LVU2403
 9966 02a4 0133     		adds	r3, r3, #1
 9967              		.loc 6 171 37 view .LVU2404
 9968 02a6 9049     		ldr	r1, .L846+40
 166:OledDisplayExtravaganza.cpp ****         {
 9969              		.loc 6 166 9 view .LVU2405
 9970 02a8 0593     		str	r3, [sp, #20]
 9971              	.LVL794:
 9972              		.loc 6 171 37 view .LVU2406
 9973 02aa 0CCA     		ldm	r2, {r2, r3}
 9974              	.LBB1706:
 9975              	.LBB1699:
 134:../../libdaisy/src/hid/disp/display.h ****     }
 9976              		.loc 3 134 19 view .LVU2407
 9977 02ac E780     		strh	r7, [r4, #6]	@ movhi
 9978              	.LVL795:
 134:../../libdaisy/src/hid/disp/display.h ****     }
 9979              		.loc 3 134 19 view .LVU2408
 9980              	.LBE1699:
 9981              	.LBE1706:
 9982              		.loc 6 171 13 is_stmt 1 view .LVU2409
 9983              		.loc 6 171 37 is_stmt 0 view .LVU2410
 9984 02ae 0095     		str	r5, [sp]
 9985 02b0 FFF7FEFF 		bl	_ZN5daisy25OneBitGraphicsDisplayImplINS_11OledDisplayINS_13SSD130xDriverILj128ELj64ENS_24SSD130
 9986              	.LVL796:
 166:OledDisplayExtravaganza.cpp ****         {
 9987              		.loc 6 166 9 is_stmt 1 view .LVU2411
 166:OledDisplayExtravaganza.cpp ****         {
 9988              		.loc 6 166 26 view .LVU2412
 9989 02b4 DDED057A 		vldr.32	s15, [sp, #20]	@ int
 9990 02b8 F8EEE77A 		vcvt.f32.s32	s15, s15
 9991 02bc F4EECA7A 		vcmpe.f32	s15, s20
ARM GAS  C:\Users\VINCIU~1\AppData\Local\Temp\cc6DIkXk.s 			page 236


 9992 02c0 F1EE10FA 		vmrs	APSR_nzcv, FPSCR
 9993 02c4 53D8     		bhi	.L753
 9994              	.LVL797:
 9995              	.L790:
 168:OledDisplayExtravaganza.cpp ****             OledDisplay::DrawCircle(x, y, (radius / 2) - i, on);
 9996              		.loc 6 168 13 discriminator 2 view .LVU2413
 168:OledDisplayExtravaganza.cpp ****             OledDisplay::DrawCircle(x, y, (radius / 2) - i, on);
 9997              		.loc 6 168 56 is_stmt 0 discriminator 2 view .LVU2414
 9998 02c6 79EEE77A 		vsub.f32	s15, s19, s15
 9999              	.LBB1707:
 10000              	.LBB1708:
 102:../../libdaisy/src/hid/disp/display.h ****     };
 10001              		.loc 3 102 41 discriminator 2 view .LVU2415
 10002 02ca 2268     		ldr	r2, [r4]
 102:../../libdaisy/src/hid/disp/display.h ****     };
 10003              		.loc 3 102 16 discriminator 2 view .LVU2416
 10004 02cc 4FF4B478 		mov	r8, #360
 10005 02d0 0027     		movs	r7, #0
 10006 02d2 5946     		mov	r1, fp
 10007 02d4 2046     		mov	r0, r4
 10008              	.LBE1708:
 10009              	.LBE1707:
 168:OledDisplayExtravaganza.cpp ****             OledDisplay::DrawCircle(x, y, (radius / 2) - i, on);
 10010              		.loc 6 168 36 discriminator 2 view .LVU2417
 10011 02d6 FCEEE77A 		vcvt.u32.f32	s15, s15
 10012              	.LBB1711:
 10013              	.LBB1709:
 102:../../libdaisy/src/hid/disp/display.h ****     };
 10014              		.loc 3 102 16 discriminator 2 view .LVU2418
 10015 02da 0295     		str	r5, [sp, #8]
 10016 02dc CDE90078 		strd	r7, r8, [sp]
 10017              	.LBE1709:
 10018              	.LBE1711:
 168:OledDisplayExtravaganza.cpp ****             OledDisplay::DrawCircle(x, y, (radius / 2) - i, on);
 10019              		.loc 6 168 36 discriminator 2 view .LVU2419
 10020 02e0 17EE903A 		vmov	r3, s15	@ int
 10021              	.LVL798:
 10022              	.LBB1712:
 10023              	.LBI1707:
 100:../../libdaisy/src/hid/disp/display.h ****     {
 10024              		.loc 3 100 5 is_stmt 1 discriminator 2 view .LVU2420
 10025              	.LBB1710:
 102:../../libdaisy/src/hid/disp/display.h ****     };
 10026              		.loc 3 102 9 discriminator 2 view .LVU2421
 102:../../libdaisy/src/hid/disp/display.h ****     };
 10027              		.loc 3 102 16 is_stmt 0 discriminator 2 view .LVU2422
 10028 02e4 CDED077A 		vstr.32	s15, [sp, #28]	@ int
 10029 02e8 D2F82090 		ldr	r9, [r2, #32]
 10030 02ec 5246     		mov	r2, r10
 10031 02ee C847     		blx	r9
 10032              	.LVL799:
 102:../../libdaisy/src/hid/disp/display.h ****     };
 10033              		.loc 3 102 16 discriminator 2 view .LVU2423
 10034              	.LBE1710:
 10035              	.LBE1712:
 169:OledDisplayExtravaganza.cpp ****             OledDisplay::SetCursor(x - radius / 4, y - radius * 1.45);
 10036              		.loc 6 169 13 is_stmt 1 discriminator 2 view .LVU2424
ARM GAS  C:\Users\VINCIU~1\AppData\Local\Temp\cc6DIkXk.s 			page 237


 10037              	.LBB1713:
 10038              	.LBI1713:
 100:../../libdaisy/src/hid/disp/display.h ****     {
 10039              		.loc 3 100 5 discriminator 2 view .LVU2425
 10040              	.LBB1714:
 102:../../libdaisy/src/hid/disp/display.h ****     };
 10041              		.loc 3 102 9 discriminator 2 view .LVU2426
 102:../../libdaisy/src/hid/disp/display.h ****     };
 10042              		.loc 3 102 41 is_stmt 0 discriminator 2 view .LVU2427
 10043 02f0 2268     		ldr	r2, [r4]
 102:../../libdaisy/src/hid/disp/display.h ****     };
 10044              		.loc 3 102 16 discriminator 2 view .LVU2428
 10045 02f2 079B     		ldr	r3, [sp, #28]
 10046 02f4 5946     		mov	r1, fp
 10047 02f6 0097     		str	r7, [sp]
 10048 02f8 2046     		mov	r0, r4
 10049 02fa CDE90185 		strd	r8, r5, [sp, #4]
 10050 02fe 176A     		ldr	r7, [r2, #32]
 10051 0300 5246     		mov	r2, r10
 10052 0302 B847     		blx	r7
 10053              	.LVL800:
 102:../../libdaisy/src/hid/disp/display.h ****     };
 10054              		.loc 3 102 16 discriminator 2 view .LVU2429
 10055              	.LBE1714:
 10056              	.LBE1713:
 170:OledDisplayExtravaganza.cpp ****             OledDisplay::WriteString("O", Font_6x8, on);
 10057              		.loc 6 170 13 is_stmt 1 discriminator 2 view .LVU2430
 170:OledDisplayExtravaganza.cpp ****             OledDisplay::WriteString("O", Font_6x8, on);
 10058              		.loc 6 170 54 is_stmt 0 discriminator 2 view .LVU2431
 10059 0304 B0EE4B7B 		vmov.f64	d7, d11
 170:OledDisplayExtravaganza.cpp ****             OledDisplay::WriteString("O", Font_6x8, on);
 10060              		.loc 6 170 38 discriminator 2 view .LVU2432
 10061 0308 B5EE006A 		vmov.f32	s12, #2.5e-1
 10062              	.LBB1715:
 10063              	.LBB1700:
 133:../../libdaisy/src/hid/disp/display.h ****         currentY_ = (y >= Height()) ? Height() - 1 : y;
 10064              		.loc 3 133 33 discriminator 2 view .LVU2433
 10065 030c 2368     		ldr	r3, [r4]
 10066              	.LBE1700:
 10067              	.LBE1715:
 170:OledDisplayExtravaganza.cpp ****             OledDisplay::WriteString("O", Font_6x8, on);
 10068              		.loc 6 170 38 discriminator 2 view .LVU2434
 10069 030e F0EE4C6A 		vmov.f32	s13, s24
 10070              	.LBB1716:
 10071              	.LBB1701:
 133:../../libdaisy/src/hid/disp/display.h ****         currentY_ = (y >= Height()) ? Height() - 1 : y;
 10072              		.loc 3 133 33 discriminator 2 view .LVU2435
 10073 0312 DA68     		ldr	r2, [r3, #12]
 10074              	.LBE1701:
 10075              	.LBE1716:
 170:OledDisplayExtravaganza.cpp ****             OledDisplay::WriteString("O", Font_6x8, on);
 10076              		.loc 6 170 54 discriminator 2 view .LVU2436
 10077 0314 9FED6A5B 		vldr.64	d5, .L846
 170:OledDisplayExtravaganza.cpp ****             OledDisplay::WriteString("O", Font_6x8, on);
 10078              		.loc 6 170 38 discriminator 2 view .LVU2437
 10079 0318 E9EE066A 		vfma.f32	s13, s18, s12
 170:OledDisplayExtravaganza.cpp ****             OledDisplay::WriteString("O", Font_6x8, on);
ARM GAS  C:\Users\VINCIU~1\AppData\Local\Temp\cc6DIkXk.s 			page 238


 10080              		.loc 6 170 54 discriminator 2 view .LVU2438
 10081 031c A8EE057B 		vfma.f64	d7, d8, d5
 170:OledDisplayExtravaganza.cpp ****             OledDisplay::WriteString("O", Font_6x8, on);
 10082              		.loc 6 170 35 discriminator 2 view .LVU2439
 10083 0320 FCEEE66A 		vcvt.u32.f32	s13, s13
 10084 0324 16EE901A 		vmov	r1, s13	@ int
 10085 0328 1FFA81F8 		uxth	r8, r1
 10086 032c BCEEC77B 		vcvt.u32.f64	s14, d7
 10087 0330 17EE101A 		vmov	r1, s14	@ int
 10088 0334 8FB2     		uxth	r7, r1
 10089              	.LVL801:
 10090              	.LBB1717:
 10091              	.LBI1697:
 131:../../libdaisy/src/hid/disp/display.h ****     {
 10092              		.loc 3 131 10 is_stmt 1 discriminator 2 view .LVU2440
 10093              	.LBB1702:
 133:../../libdaisy/src/hid/disp/display.h ****         currentY_ = (y >= Height()) ? Height() - 1 : y;
 10094              		.loc 3 133 9 discriminator 2 view .LVU2441
 10095 0336 6849     		ldr	r1, .L846+24
 10096 0338 8A42     		cmp	r2, r1
 10097 033a 97D0     		beq	.L807
 133:../../libdaisy/src/hid/disp/display.h ****         currentY_ = (y >= Height()) ? Height() - 1 : y;
 10098              		.loc 3 133 32 is_stmt 0 view .LVU2442
 10099 033c 2046     		mov	r0, r4
 10100 033e 9047     		blx	r2
 10101              	.LVL802:
 133:../../libdaisy/src/hid/disp/display.h ****         currentY_ = (y >= Height()) ? Height() - 1 : y;
 10102              		.loc 3 133 44 view .LVU2443
 10103 0340 2368     		ldr	r3, [r4]
 10104 0342 94E7     		b	.L784
 10105              	.LVL803:
 10106              	.L763:
 133:../../libdaisy/src/hid/disp/display.h ****         currentY_ = (y >= Height()) ? Height() - 1 : y;
 10107              		.loc 3 133 44 view .LVU2444
 10108              	.LBE1702:
 10109              	.LBE1717:
 10110              	.LBE1722:
 10111              	.LBE1695:
 10112              	.LBB1755:
 10113              	.LBB1643:
 10114              	.LBB1632:
 10115              	.LBB1631:
 10116              	.LBB1630:
 10117              	.LBB1628:
 10118              	.LBI1628:
 239:../../libdaisy/src/dev/oled_ssd130x.h ****     {
 10119              		.loc 4 239 10 is_stmt 1 view .LVU2445
 10120              	.LBB1629:
 246:../../libdaisy/src/dev/oled_ssd130x.h ****     }
 10121              		.loc 4 246 49 is_stmt 0 view .LVU2446
 10122 0344 0CFA08F8 		lsl	r8, ip, r8
 246:../../libdaisy/src/dev/oled_ssd130x.h ****     }
 10123              		.loc 4 246 42 view .LVU2447
 10124 0348 96F814C0 		ldrb	ip, [r6, #20]	@ zero_extendqisi2
 10125 034c 2CEA080C 		bic	ip, ip, r8
 10126 0350 86F814C0 		strb	ip, [r6, #20]
 10127 0354 DAE6     		b	.L762
ARM GAS  C:\Users\VINCIU~1\AppData\Local\Temp\cc6DIkXk.s 			page 239


 10128              	.LVL804:
 10129              	.L773:
 246:../../libdaisy/src/dev/oled_ssd130x.h ****     }
 10130              		.loc 4 246 42 view .LVU2448
 10131              	.LBE1629:
 10132              	.LBE1628:
 10133              	.LBE1630:
 10134              	.LBE1631:
 10135              	.LBE1632:
 10136              	.LBE1643:
 10137              	.LBE1755:
 10138              	.LBB1756:
 10139              	.LBB1680:
 10140              	.LBB1675:
 10141              	.LBB1674:
 10142              	.LBB1673:
 10143              	.LBB1671:
 10144              	.LBI1671:
 239:../../libdaisy/src/dev/oled_ssd130x.h ****     {
 10145              		.loc 4 239 10 is_stmt 1 view .LVU2449
 10146              	.LBB1672:
 246:../../libdaisy/src/dev/oled_ssd130x.h ****     }
 10147              		.loc 4 246 49 is_stmt 0 view .LVU2450
 10148 0356 0CFA08F8 		lsl	r8, ip, r8
 246:../../libdaisy/src/dev/oled_ssd130x.h ****     }
 10149              		.loc 4 246 42 view .LVU2451
 10150 035a 96F814C0 		ldrb	ip, [r6, #20]	@ zero_extendqisi2
 10151 035e 2CEA080C 		bic	ip, ip, r8
 10152 0362 86F814C0 		strb	ip, [r6, #20]
 10153 0366 17E7     		b	.L772
 10154              	.LVL805:
 10155              	.L782:
 246:../../libdaisy/src/dev/oled_ssd130x.h ****     }
 10156              		.loc 4 246 42 view .LVU2452
 10157              	.LBE1672:
 10158              	.LBE1671:
 10159              	.LBE1673:
 10160              	.LBE1674:
 10161              	.LBE1675:
 10162              	.LBE1680:
 10163              	.LBE1756:
 10164              	.LBB1757:
 10165              	.LBB1723:
 172:OledDisplayExtravaganza.cpp ****         }
 173:OledDisplayExtravaganza.cpp ****     }
 174:OledDisplayExtravaganza.cpp ****     else
 175:OledDisplayExtravaganza.cpp ****     {
 176:OledDisplayExtravaganza.cpp ****         for(int i = 1; i <= radius; i++)
 10166              		.loc 6 176 26 is_stmt 1 view .LVU2453
 10167 0368 F1EE10FA 		vmrs	APSR_nzcv, FPSCR
 10168 036c 15DA     		bge	.L842
 10169              	.LVL806:
 10170              	.L753:
 10171              		.loc 6 176 26 is_stmt 0 view .LVU2454
 10172              	.LBE1723:
 10173              	.LBE1757:
 177:OledDisplayExtravaganza.cpp ****         {
ARM GAS  C:\Users\VINCIU~1\AppData\Local\Temp\cc6DIkXk.s 			page 240


 178:OledDisplayExtravaganza.cpp ****             OledDisplay::DrawCircle(
 179:OledDisplayExtravaganza.cpp ****                 x, (y - radius) * 0.97, (radius / 2) - i, on);
 180:OledDisplayExtravaganza.cpp ****             OledDisplay::DrawCircle(
 181:OledDisplayExtravaganza.cpp ****                 x, (y - radius) * 0.97, (radius / 2) - i, on);
 182:OledDisplayExtravaganza.cpp ****             OledDisplay::SetCursor(x - radius * 0.15, y - radius / 3);
 183:OledDisplayExtravaganza.cpp ****             OledDisplay::WriteString("I", Font_6x8, on);
 184:OledDisplayExtravaganza.cpp ****         }
 185:OledDisplayExtravaganza.cpp ****     }
 186:OledDisplayExtravaganza.cpp **** }...
 10174              		.loc 6 186 1 view .LVU2455
 10175 036e 09B0     		add	sp, sp, #36
 10176              		.cfi_remember_state
 10177              		.cfi_def_cfa_offset 84
 10178              		@ sp needed
 10179 0370 BDEC0C8B 		vldm	sp!, {d8-d13}
 10180              		.cfi_restore 90
 10181              		.cfi_restore 91
 10182              		.cfi_restore 88
 10183              		.cfi_restore 89
 10184              		.cfi_restore 86
 10185              		.cfi_restore 87
 10186              		.cfi_restore 84
 10187              		.cfi_restore 85
 10188              		.cfi_restore 82
 10189              		.cfi_restore 83
 10190              		.cfi_restore 80
 10191              		.cfi_restore 81
 10192              		.cfi_def_cfa_offset 36
 10193              	.LVL807:
 10194              		.loc 6 186 1 view .LVU2456
 10195 0374 BDE8F08F 		pop	{r4, r5, r6, r7, r8, r9, r10, fp, pc}
 10196              	.LVL808:
 10197              	.L754:
 10198              		.cfi_restore_state
 10199              	.LBB1758:
 10200              	.LBB1644:
 10201              	.LBB1633:
 10202              	.LBB1618:
 10203              	.LBB1612:
 241:../../libdaisy/src/dev/oled_ssd130x.h ****             return;
 10204              		.loc 4 241 28 view .LVU2457
 10205 0378 059B     		ldr	r3, [sp, #20]
 10206              	.LBE1612:
 10207              	.LBE1618:
 10208              	.LBE1633:
 191:../../libdaisy/src/hid/disp/display.h ****         int_fast16_t error2;
 10209              		.loc 3 191 22 view .LVU2458
 10210 037a 7842     		rsbs	r0, r7, #0
 10211              	.LVL809:
 10212              	.LBB1634:
  41:../../libdaisy/src/hid/disp/oled_display.h ****     {
 10213              		.loc 2 41 10 is_stmt 1 view .LVU2459
 10214              	.LBB1619:
 239:../../libdaisy/src/dev/oled_ssd130x.h ****     {
 10215              		.loc 4 239 10 view .LVU2460
 10216              	.LBE1619:
 10217              	.LBE1634:
ARM GAS  C:\Users\VINCIU~1\AppData\Local\Temp\cc6DIkXk.s 			page 241


 190:../../libdaisy/src/hid/disp/display.h ****         int_fast16_t error  = deltaX - deltaY;
 10218              		.loc 3 190 42 is_stmt 0 view .LVU2461
 10219 037c 4FF00109 		mov	r9, #1
 10220              	.LBB1635:
 10221              	.LBB1620:
 10222              	.LBB1613:
 241:../../libdaisy/src/dev/oled_ssd130x.h ****             return;
 10223              		.loc 4 241 28 view .LVU2462
 10224 0380 3F2B     		cmp	r3, #63
 10225 0382 94BF     		ite	ls
 10226 0384 0023     		movls	r3, #0
 10227              	.LVL810:
 241:../../libdaisy/src/dev/oled_ssd130x.h ****             return;
 10228              		.loc 4 241 28 view .LVU2463
 10229 0386 0123     		movhi	r3, #1
 241:../../libdaisy/src/dev/oled_ssd130x.h ****             return;
 10230              		.loc 4 241 9 view .LVU2464
 10231 0388 BEF17F0F 		cmp	lr, #127
 241:../../libdaisy/src/dev/oled_ssd130x.h ****             return;
 10232              		.loc 4 241 28 view .LVU2465
 10233 038c 0693     		str	r3, [sp, #24]
 241:../../libdaisy/src/dev/oled_ssd130x.h ****             return;
 10234              		.loc 4 241 9 view .LVU2466
 10235 038e 3FF6A3AE 		bhi	.L758
 10236 0392 002B     		cmp	r3, #0
 10237 0394 3FF48BAE 		beq	.L801
 10238 0398 9EE6     		b	.L758
 10239              	.LVL811:
 10240              	.L842:
 241:../../libdaisy/src/dev/oled_ssd130x.h ****             return;
 10241              		.loc 4 241 9 view .LVU2467
 10242              	.LBE1613:
 10243              	.LBE1620:
 10244              	.LBE1635:
 10245              	.LBE1644:
 10246              	.LBE1758:
 10247              	.LBB1759:
 10248              	.LBB1748:
 179:OledDisplayExtravaganza.cpp ****                 x, (y - radius) * 0.97, (radius / 2) - i, on);
 10249              		.loc 6 179 23 view .LVU2468
 10250 039a B7EEEC6A 		vcvt.f64.f32	d6, s25
 176:OledDisplayExtravaganza.cpp ****         for(int i = 1; i <= radius; i++)
 10251              		.loc 6 176 17 view .LVU2469
 10252 039e 0123     		movs	r3, #1
 179:OledDisplayExtravaganza.cpp ****                 x, (y - radius) * 0.97, (radius / 2) - i, on);
 10253              		.loc 6 179 49 view .LVU2470
 10254 03a0 B6EE00BA 		vmov.f32	s22, #5.0e-1
 176:OledDisplayExtravaganza.cpp ****         for(int i = 1; i <= radius; i++)
 10255              		.loc 6 176 17 view .LVU2471
 10256 03a4 0593     		str	r3, [sp, #20]
 10257 03a6 4F4B     		ldr	r3, .L846+36
 179:OledDisplayExtravaganza.cpp ****                 x, (y - radius) * 0.97, (radius / 2) - i, on);
 10258              		.loc 6 179 49 view .LVU2472
 10259 03a8 2AEE0BBA 		vmul.f32	s22, s20, s22
 10260 03ac 0693     		str	r3, [sp, #24]
 179:OledDisplayExtravaganza.cpp ****                 x, (y - radius) * 0.97, (radius / 2) - i, on);
 10261              		.loc 6 179 33 view .LVU2473
ARM GAS  C:\Users\VINCIU~1\AppData\Local\Temp\cc6DIkXk.s 			page 242


 10262 03ae 9FED465B 		vldr.64	d5, .L846+8
 10263 03b2 26EE056B 		vmul.f64	d6, d6, d5
 178:OledDisplayExtravaganza.cpp ****             OledDisplay::DrawCircle(
 10264              		.loc 6 178 36 view .LVU2474
 10265 03b6 BCEEC67B 		vcvt.u32.f64	s14, d6
 10266 03ba 17EE109A 		vmov	r9, s14	@ int
 10267              	.LVL812:
 178:OledDisplayExtravaganza.cpp ****             OledDisplay::DrawCircle(
 10268              		.loc 6 178 36 view .LVU2475
 10269 03be 2BE0     		b	.L799
 10270              	.LVL813:
 10271              	.L811:
 10272              	.LBB1724:
 10273              	.LBB1725:
 133:../../libdaisy/src/hid/disp/display.h ****         currentY_ = (y >= Height()) ? Height() - 1 : y;
 10274              		.loc 3 133 33 view .LVU2476
 10275 03c0 8022     		movs	r2, #128
 10276              	.L793:
 133:../../libdaisy/src/hid/disp/display.h ****         currentY_ = (y >= Height()) ? Height() - 1 : y;
 10277              		.loc 3 133 19 view .LVU2477
 10278 03c2 9045     		cmp	r8, r2
 10279 03c4 06D3     		bcc	.L794
 133:../../libdaisy/src/hid/disp/display.h ****         currentY_ = (y >= Height()) ? Height() - 1 : y;
 10280              		.loc 3 133 44 view .LVU2478
 10281 03c6 DA68     		ldr	r2, [r3, #12]
 10282 03c8 4349     		ldr	r1, .L846+24
 10283 03ca 8A42     		cmp	r2, r1
 10284 03cc 40F09A80 		bne	.L843
 10285 03d0 4FF07F08 		mov	r8, #127
 10286              	.LVL814:
 10287              	.L794:
 134:../../libdaisy/src/hid/disp/display.h ****     }
 10288              		.loc 3 134 34 view .LVU2479
 10289 03d4 9B68     		ldr	r3, [r3, #8]
 133:../../libdaisy/src/hid/disp/display.h ****         currentY_ = (y >= Height()) ? Height() - 1 : y;
 10290              		.loc 3 133 19 view .LVU2480
 10291 03d6 A4F80480 		strh	r8, [r4, #4]	@ movhi
 134:../../libdaisy/src/hid/disp/display.h ****     }
 10292              		.loc 3 134 9 is_stmt 1 view .LVU2481
 10293 03da B342     		cmp	r3, r6
 10294 03dc 6AD1     		bne	.L844
 134:../../libdaisy/src/hid/disp/display.h ****     }
 10295              		.loc 3 134 34 is_stmt 0 view .LVU2482
 10296 03de 4020     		movs	r0, #64
 10297              	.L796:
 134:../../libdaisy/src/hid/disp/display.h ****     }
 10298              		.loc 3 134 19 view .LVU2483
 10299 03e0 8742     		cmp	r7, r0
 10300 03e2 05D3     		bcc	.L797
 134:../../libdaisy/src/hid/disp/display.h ****     }
 10301              		.loc 3 134 46 view .LVU2484
 10302 03e4 2368     		ldr	r3, [r4]
 10303 03e6 9B68     		ldr	r3, [r3, #8]
 10304 03e8 B342     		cmp	r3, r6
 10305 03ea 40F08180 		bne	.L845
 10306 03ee 3F27     		movs	r7, #63
 10307              	.LVL815:
ARM GAS  C:\Users\VINCIU~1\AppData\Local\Temp\cc6DIkXk.s 			page 243


 10308              	.L797:
 134:../../libdaisy/src/hid/disp/display.h ****     }
 10309              		.loc 3 134 46 view .LVU2485
 10310              	.LBE1725:
 10311              	.LBE1724:
 176:OledDisplayExtravaganza.cpp ****         for(int i = 1; i <= radius; i++)
 10312              		.loc 6 176 9 view .LVU2486
 10313 03f0 059B     		ldr	r3, [sp, #20]
 183:OledDisplayExtravaganza.cpp ****             OledDisplay::WriteString("I", Font_6x8, on);
 10314              		.loc 6 183 37 view .LVU2487
 10315 03f2 2046     		mov	r0, r4
 10316 03f4 069A     		ldr	r2, [sp, #24]
 176:OledDisplayExtravaganza.cpp ****         for(int i = 1; i <= radius; i++)
 10317              		.loc 6 176 9 view .LVU2488
 10318 03f6 0133     		adds	r3, r3, #1
 183:OledDisplayExtravaganza.cpp ****             OledDisplay::WriteString("I", Font_6x8, on);
 10319              		.loc 6 183 37 view .LVU2489
 10320 03f8 3C49     		ldr	r1, .L846+44
 176:OledDisplayExtravaganza.cpp ****         for(int i = 1; i <= radius; i++)
 10321              		.loc 6 176 9 view .LVU2490
 10322 03fa 0593     		str	r3, [sp, #20]
 10323              	.LVL816:
 183:OledDisplayExtravaganza.cpp ****             OledDisplay::WriteString("I", Font_6x8, on);
 10324              		.loc 6 183 37 view .LVU2491
 10325 03fc 0CCA     		ldm	r2, {r2, r3}
 10326              	.LBB1733:
 10327              	.LBB1726:
 134:../../libdaisy/src/hid/disp/display.h ****     }
 10328              		.loc 3 134 19 view .LVU2492
 10329 03fe E780     		strh	r7, [r4, #6]	@ movhi
 10330              	.LVL817:
 134:../../libdaisy/src/hid/disp/display.h ****     }
 10331              		.loc 3 134 19 view .LVU2493
 10332              	.LBE1726:
 10333              	.LBE1733:
 183:OledDisplayExtravaganza.cpp ****             OledDisplay::WriteString("I", Font_6x8, on);
 10334              		.loc 6 183 13 is_stmt 1 view .LVU2494
 183:OledDisplayExtravaganza.cpp ****             OledDisplay::WriteString("I", Font_6x8, on);
 10335              		.loc 6 183 37 is_stmt 0 view .LVU2495
 10336 0400 0095     		str	r5, [sp]
 10337 0402 FFF7FEFF 		bl	_ZN5daisy25OneBitGraphicsDisplayImplINS_11OledDisplayINS_13SSD130xDriverILj128ELj64ENS_24SSD130
 10338              	.LVL818:
 176:OledDisplayExtravaganza.cpp ****         for(int i = 1; i <= radius; i++)
 10339              		.loc 6 176 9 is_stmt 1 view .LVU2496
 176:OledDisplayExtravaganza.cpp ****         for(int i = 1; i <= radius; i++)
 10340              		.loc 6 176 26 view .LVU2497
 10341 0406 DDED057A 		vldr.32	s15, [sp, #20]	@ int
 10342 040a F8EEE77A 		vcvt.f32.s32	s15, s15
 10343 040e F4EECA7A 		vcmpe.f32	s15, s20
 10344 0412 F1EE10FA 		vmrs	APSR_nzcv, FPSCR
 10345 0416 AAD8     		bhi	.L753
 10346              	.LVL819:
 10347              	.L799:
 178:OledDisplayExtravaganza.cpp ****             OledDisplay::DrawCircle(
 10348              		.loc 6 178 13 discriminator 2 view .LVU2498
 179:OledDisplayExtravaganza.cpp ****                 x, (y - radius) * 0.97, (radius / 2) - i, on);
 10349              		.loc 6 179 54 is_stmt 0 discriminator 2 view .LVU2499
ARM GAS  C:\Users\VINCIU~1\AppData\Local\Temp\cc6DIkXk.s 			page 244


 10350 0418 7BEE677A 		vsub.f32	s15, s22, s15
 10351              	.LBB1734:
 10352              	.LBB1735:
 102:../../libdaisy/src/hid/disp/display.h ****     };
 10353              		.loc 3 102 41 discriminator 2 view .LVU2500
 10354 041c 2268     		ldr	r2, [r4]
 102:../../libdaisy/src/hid/disp/display.h ****     };
 10355              		.loc 3 102 16 discriminator 2 view .LVU2501
 10356 041e 4FF4B478 		mov	r8, #360
 10357 0422 0027     		movs	r7, #0
 10358 0424 5946     		mov	r1, fp
 10359 0426 2046     		mov	r0, r4
 10360              	.LBE1735:
 10361              	.LBE1734:
 178:OledDisplayExtravaganza.cpp ****             OledDisplay::DrawCircle(
 10362              		.loc 6 178 36 discriminator 2 view .LVU2502
 10363 0428 FCEEE77A 		vcvt.u32.f32	s15, s15
 10364              	.LBB1738:
 10365              	.LBB1736:
 102:../../libdaisy/src/hid/disp/display.h ****     };
 10366              		.loc 3 102 16 discriminator 2 view .LVU2503
 10367 042c 0295     		str	r5, [sp, #8]
 10368 042e CDE90078 		strd	r7, r8, [sp]
 10369              	.LBE1736:
 10370              	.LBE1738:
 178:OledDisplayExtravaganza.cpp ****             OledDisplay::DrawCircle(
 10371              		.loc 6 178 36 discriminator 2 view .LVU2504
 10372 0432 17EE903A 		vmov	r3, s15	@ int
 10373              	.LVL820:
 10374              	.LBB1739:
 10375              	.LBI1734:
 100:../../libdaisy/src/hid/disp/display.h ****     {
 10376              		.loc 3 100 5 is_stmt 1 discriminator 2 view .LVU2505
 10377              	.LBB1737:
 102:../../libdaisy/src/hid/disp/display.h ****     };
 10378              		.loc 3 102 9 discriminator 2 view .LVU2506
 102:../../libdaisy/src/hid/disp/display.h ****     };
 10379              		.loc 3 102 16 is_stmt 0 discriminator 2 view .LVU2507
 10380 0436 CDED077A 		vstr.32	s15, [sp, #28]	@ int
 10381 043a D2F820A0 		ldr	r10, [r2, #32]
 10382 043e 4A46     		mov	r2, r9
 10383 0440 D047     		blx	r10
 10384              	.LVL821:
 102:../../libdaisy/src/hid/disp/display.h ****     };
 10385              		.loc 3 102 16 discriminator 2 view .LVU2508
 10386              	.LBE1737:
 10387              	.LBE1739:
 180:OledDisplayExtravaganza.cpp ****             OledDisplay::DrawCircle(
 10388              		.loc 6 180 13 is_stmt 1 discriminator 2 view .LVU2509
 10389              	.LBB1740:
 10390              	.LBI1740:
 100:../../libdaisy/src/hid/disp/display.h ****     {
 10391              		.loc 3 100 5 discriminator 2 view .LVU2510
 10392              	.LBB1741:
 102:../../libdaisy/src/hid/disp/display.h ****     };
 10393              		.loc 3 102 9 discriminator 2 view .LVU2511
 102:../../libdaisy/src/hid/disp/display.h ****     };
ARM GAS  C:\Users\VINCIU~1\AppData\Local\Temp\cc6DIkXk.s 			page 245


 10394              		.loc 3 102 41 is_stmt 0 discriminator 2 view .LVU2512
 10395 0442 2268     		ldr	r2, [r4]
 102:../../libdaisy/src/hid/disp/display.h ****     };
 10396              		.loc 3 102 16 discriminator 2 view .LVU2513
 10397 0444 079B     		ldr	r3, [sp, #28]
 10398 0446 5946     		mov	r1, fp
 10399 0448 0097     		str	r7, [sp]
 10400 044a 2046     		mov	r0, r4
 10401 044c CDE90185 		strd	r8, r5, [sp, #4]
 10402 0450 176A     		ldr	r7, [r2, #32]
 10403 0452 4A46     		mov	r2, r9
 10404 0454 B847     		blx	r7
 10405              	.LVL822:
 102:../../libdaisy/src/hid/disp/display.h ****     };
 10406              		.loc 3 102 16 discriminator 2 view .LVU2514
 10407              	.LBE1741:
 10408              	.LBE1740:
 182:OledDisplayExtravaganza.cpp ****             OledDisplay::SetCursor(x - radius * 0.15, y - radius / 3);
 10409              		.loc 6 182 13 is_stmt 1 discriminator 2 view .LVU2515
 182:OledDisplayExtravaganza.cpp ****             OledDisplay::SetCursor(x - radius * 0.15, y - radius / 3);
 10410              		.loc 6 182 66 is_stmt 0 discriminator 2 view .LVU2516
 10411 0456 B0EE087A 		vmov.f32	s14, #3.0e+0
 182:OledDisplayExtravaganza.cpp ****             OledDisplay::SetCursor(x - radius * 0.15, y - radius / 3);
 10412              		.loc 6 182 38 discriminator 2 view .LVU2517
 10413 045a B0EE496B 		vmov.f64	d6, d9
 10414              	.LBB1742:
 10415              	.LBB1727:
 133:../../libdaisy/src/hid/disp/display.h ****         currentY_ = (y >= Height()) ? Height() - 1 : y;
 10416              		.loc 3 133 33 discriminator 2 view .LVU2518
 10417 045e 2368     		ldr	r3, [r4]
 10418              	.LBE1727:
 10419              	.LBE1742:
 182:OledDisplayExtravaganza.cpp ****             OledDisplay::SetCursor(x - radius * 0.15, y - radius / 3);
 10420              		.loc 6 182 66 discriminator 2 view .LVU2519
 10421 0460 CAEE077A 		vdiv.f32	s15, s20, s14
 10422              	.LBB1743:
 10423              	.LBB1728:
 133:../../libdaisy/src/hid/disp/display.h ****         currentY_ = (y >= Height()) ? Height() - 1 : y;
 10424              		.loc 3 133 33 discriminator 2 view .LVU2520
 10425 0464 DA68     		ldr	r2, [r3, #12]
 10426              	.LBE1728:
 10427              	.LBE1743:
 182:OledDisplayExtravaganza.cpp ****             OledDisplay::SetCursor(x - radius * 0.15, y - radius / 3);
 10428              		.loc 6 182 38 discriminator 2 view .LVU2521
 10429 0466 9FED1A5B 		vldr.64	d5, .L846+16
 10430 046a A8EE056B 		vfma.f64	d6, d8, d5
 182:OledDisplayExtravaganza.cpp ****             OledDisplay::SetCursor(x - radius * 0.15, y - radius / 3);
 10431              		.loc 6 182 57 discriminator 2 view .LVU2522
 10432 046e 7AEEE77A 		vsub.f32	s15, s21, s15
 182:OledDisplayExtravaganza.cpp ****             OledDisplay::SetCursor(x - radius * 0.15, y - radius / 3);
 10433              		.loc 6 182 35 discriminator 2 view .LVU2523
 10434 0472 BCEEC66B 		vcvt.u32.f64	s12, d6
 10435 0476 FCEEE77A 		vcvt.u32.f32	s15, s15
 10436 047a 16EE101A 		vmov	r1, s12	@ int
 10437 047e 1FFA81F8 		uxth	r8, r1
 10438 0482 17EE901A 		vmov	r1, s15	@ int
 10439 0486 8FB2     		uxth	r7, r1
ARM GAS  C:\Users\VINCIU~1\AppData\Local\Temp\cc6DIkXk.s 			page 246


 10440              	.LVL823:
 10441              	.LBB1744:
 10442              	.LBI1724:
 131:../../libdaisy/src/hid/disp/display.h ****     {
 10443              		.loc 3 131 10 is_stmt 1 discriminator 2 view .LVU2524
 10444              	.LBB1729:
 133:../../libdaisy/src/hid/disp/display.h ****         currentY_ = (y >= Height()) ? Height() - 1 : y;
 10445              		.loc 3 133 9 discriminator 2 view .LVU2525
 10446 0488 1349     		ldr	r1, .L846+24
 10447 048a 8A42     		cmp	r2, r1
 10448 048c 98D0     		beq	.L811
 133:../../libdaisy/src/hid/disp/display.h ****         currentY_ = (y >= Height()) ? Height() - 1 : y;
 10449              		.loc 3 133 32 is_stmt 0 view .LVU2526
 10450 048e 2046     		mov	r0, r4
 10451 0490 9047     		blx	r2
 10452              	.LVL824:
 133:../../libdaisy/src/hid/disp/display.h ****         currentY_ = (y >= Height()) ? Height() - 1 : y;
 10453              		.loc 3 133 44 view .LVU2527
 10454 0492 2368     		ldr	r3, [r4]
 133:../../libdaisy/src/hid/disp/display.h ****         currentY_ = (y >= Height()) ? Height() - 1 : y;
 10455              		.loc 3 133 32 view .LVU2528
 10456 0494 0246     		mov	r2, r0
 10457 0496 0790     		str	r0, [sp, #28]
 10458 0498 93E7     		b	.L793
 10459              	.LVL825:
 10460              	.L766:
 133:../../libdaisy/src/hid/disp/display.h ****         currentY_ = (y >= Height()) ? Height() - 1 : y;
 10461              		.loc 3 133 32 view .LVU2529
 10462              	.LBE1729:
 10463              	.LBE1744:
 10464              	.LBE1748:
 10465              	.LBE1759:
 10466              	.LBB1760:
 10467              	.LBB1681:
 10468              	.LBB1676:
 10469              	.LBB1664:
 10470              	.LBB1660:
 10471              	.LBB1656:
 10472              	.LBI1656:
 239:../../libdaisy/src/dev/oled_ssd130x.h ****     {
 10473              		.loc 4 239 10 is_stmt 1 view .LVU2530
 10474              	.LBB1657:
 246:../../libdaisy/src/dev/oled_ssd130x.h ****     }
 10475              		.loc 4 246 55 is_stmt 0 view .LVU2531
 10476 049a 01F00706 		and	r6, r1, #7
 246:../../libdaisy/src/dev/oled_ssd130x.h ****     }
 10477              		.loc 4 246 49 view .LVU2532
 10478 049e 0121     		movs	r1, #1
 10479 04a0 01FA06F6 		lsl	r6, r1, r6
 246:../../libdaisy/src/dev/oled_ssd130x.h ****     }
 10480              		.loc 4 246 42 view .LVU2533
 10481 04a4 117D     		ldrb	r1, [r2, #20]	@ zero_extendqisi2
 10482 04a6 21EA0601 		bic	r1, r1, r6
 10483 04aa 1175     		strb	r1, [r2, #20]
 10484              	.LVL826:
 246:../../libdaisy/src/dev/oled_ssd130x.h ****     }
 10485              		.loc 4 246 42 view .LVU2534
ARM GAS  C:\Users\VINCIU~1\AppData\Local\Temp\cc6DIkXk.s 			page 247


 10486              	.LBE1657:
 10487              	.LBE1656:
 10488              	.LBE1660:
 10489              	.LBE1664:
 10490              	.LBE1676:
 199:../../libdaisy/src/hid/disp/display.h ****         {
 10491              		.loc 3 199 26 is_stmt 1 view .LVU2535
 10492 04ac 002B     		cmp	r3, #0
 10493 04ae 3FF459AE 		beq	.L769
 199:../../libdaisy/src/hid/disp/display.h ****         {
 10494              		.loc 3 199 26 is_stmt 0 view .LVU2536
 10495 04b2 7FE6     		b	.L768
 10496              	.LVL827:
 10497              	.L844:
 199:../../libdaisy/src/hid/disp/display.h ****         {
 10498              		.loc 3 199 26 view .LVU2537
 10499              	.LBE1681:
 10500              	.LBE1760:
 10501              	.LBB1761:
 10502              	.LBB1749:
 10503              	.LBB1745:
 10504              	.LBB1730:
 134:../../libdaisy/src/hid/disp/display.h ****     }
 10505              		.loc 3 134 33 view .LVU2538
 10506 04b4 2046     		mov	r0, r4
 10507 04b6 9847     		blx	r3
 10508              	.LVL828:
 10509 04b8 92E7     		b	.L796
 10510              	.LVL829:
 10511              	.L840:
 134:../../libdaisy/src/hid/disp/display.h ****     }
 10512              		.loc 3 134 33 view .LVU2539
 10513              	.LBE1730:
 10514              	.LBE1745:
 10515              	.LBE1749:
 10516              	.LBB1750:
 10517              	.LBB1718:
 10518              	.LBB1703:
 10519 04ba 2046     		mov	r0, r4
 10520 04bc 9847     		blx	r3
 10521              	.LVL830:
 10522 04be E6E6     		b	.L787
 10523              	.L847:
 10524              		.align	3
 10525              	.L846:
 10526 04c0 33333333 		.word	858993459
 10527 04c4 3333F73F 		.word	1073165107
 10528 04c8 0AD7A370 		.word	1889785610
 10529 04cc 3D0AEF3F 		.word	1072630333
 10530 04d0 33333333 		.word	858993459
 10531 04d4 3333C33F 		.word	1069757235
 10532 04d8 00000000 		.word	_ZNK5daisy11OledDisplayINS_13SSD130xDriverILj128ELj64ENS_24SSD130x4WireSpiTransportEEEE5Widt
 10533 04dc 00000000 		.word	_ZNK5daisy11OledDisplayINS_13SSD130xDriverILj128ELj64ENS_24SSD130x4WireSpiTransportEEEE6Heig
 10534 04e0 00000000 		.word	Font_7x10
 10535 04e4 00000000 		.word	Font_6x8
 10536 04e8 00000000 		.word	.LC6
 10537 04ec 04000000 		.word	.LC7
ARM GAS  C:\Users\VINCIU~1\AppData\Local\Temp\cc6DIkXk.s 			page 248


 10538              	.LVL831:
 10539              	.L845:
 134:../../libdaisy/src/hid/disp/display.h ****     }
 10540              		.loc 3 134 33 view .LVU2540
 10541              	.LBE1703:
 10542              	.LBE1718:
 10543              	.LBE1750:
 10544              	.LBB1751:
 10545              	.LBB1746:
 10546              	.LBB1731:
 134:../../libdaisy/src/hid/disp/display.h ****     }
 10547              		.loc 3 134 45 view .LVU2541
 10548 04f0 2046     		mov	r0, r4
 10549 04f2 9847     		blx	r3
 10550              	.LVL832:
 134:../../libdaisy/src/hid/disp/display.h ****     }
 10551              		.loc 3 134 19 view .LVU2542
 10552 04f4 0138     		subs	r0, r0, #1
 10553 04f6 87B2     		uxth	r7, r0
 10554              	.LVL833:
 134:../../libdaisy/src/hid/disp/display.h ****     }
 10555              		.loc 3 134 19 view .LVU2543
 10556 04f8 7AE7     		b	.L797
 10557              	.LVL834:
 10558              	.L841:
 134:../../libdaisy/src/hid/disp/display.h ****     }
 10559              		.loc 3 134 19 view .LVU2544
 10560              	.LBE1731:
 10561              	.LBE1746:
 10562              	.LBE1751:
 10563              	.LBB1752:
 10564              	.LBB1719:
 10565              	.LBB1704:
 134:../../libdaisy/src/hid/disp/display.h ****     }
 10566              		.loc 3 134 45 view .LVU2545
 10567 04fa 2046     		mov	r0, r4
 10568 04fc 9847     		blx	r3
 10569              	.LVL835:
 134:../../libdaisy/src/hid/disp/display.h ****     }
 10570              		.loc 3 134 19 view .LVU2546
 10571 04fe 471E     		subs	r7, r0, #1
 10572              	.LVL836:
 134:../../libdaisy/src/hid/disp/display.h ****     }
 10573              		.loc 3 134 19 view .LVU2547
 10574 0500 BFB2     		uxth	r7, r7
 10575 0502 CCE6     		b	.L788
 10576              	.LVL837:
 10577              	.L843:
 134:../../libdaisy/src/hid/disp/display.h ****     }
 10578              		.loc 3 134 19 view .LVU2548
 10579              	.LBE1704:
 10580              	.LBE1719:
 10581              	.LBE1752:
 10582              	.LBB1753:
 10583              	.LBB1747:
 10584              	.LBB1732:
 133:../../libdaisy/src/hid/disp/display.h ****         currentY_ = (y >= Height()) ? Height() - 1 : y;
ARM GAS  C:\Users\VINCIU~1\AppData\Local\Temp\cc6DIkXk.s 			page 249


 10585              		.loc 3 133 43 view .LVU2549
 10586 0504 2046     		mov	r0, r4
 10587 0506 9047     		blx	r2
 10588              	.LVL838:
 133:../../libdaisy/src/hid/disp/display.h ****         currentY_ = (y >= Height()) ? Height() - 1 : y;
 10589              		.loc 3 133 19 view .LVU2550
 10590 0508 0138     		subs	r0, r0, #1
 134:../../libdaisy/src/hid/disp/display.h ****     }
 10591              		.loc 3 134 34 view .LVU2551
 10592 050a 2368     		ldr	r3, [r4]
 133:../../libdaisy/src/hid/disp/display.h ****         currentY_ = (y >= Height()) ? Height() - 1 : y;
 10593              		.loc 3 133 19 view .LVU2552
 10594 050c 1FFA80F8 		uxth	r8, r0
 10595              	.LVL839:
 133:../../libdaisy/src/hid/disp/display.h ****         currentY_ = (y >= Height()) ? Height() - 1 : y;
 10596              		.loc 3 133 19 view .LVU2553
 10597 0510 60E7     		b	.L794
 10598              	.LVL840:
 10599              	.L839:
 133:../../libdaisy/src/hid/disp/display.h ****         currentY_ = (y >= Height()) ? Height() - 1 : y;
 10600              		.loc 3 133 19 view .LVU2554
 10601              	.LBE1732:
 10602              	.LBE1747:
 10603              	.LBE1753:
 10604              	.LBB1754:
 10605              	.LBB1720:
 10606              	.LBB1705:
 133:../../libdaisy/src/hid/disp/display.h ****         currentY_ = (y >= Height()) ? Height() - 1 : y;
 10607              		.loc 3 133 43 view .LVU2555
 10608 0512 2046     		mov	r0, r4
 10609 0514 9047     		blx	r2
 10610              	.LVL841:
 133:../../libdaisy/src/hid/disp/display.h ****         currentY_ = (y >= Height()) ? Height() - 1 : y;
 10611              		.loc 3 133 19 view .LVU2556
 10612 0516 0138     		subs	r0, r0, #1
 134:../../libdaisy/src/hid/disp/display.h ****     }
 10613              		.loc 3 134 34 view .LVU2557
 10614 0518 2368     		ldr	r3, [r4]
 133:../../libdaisy/src/hid/disp/display.h ****         currentY_ = (y >= Height()) ? Height() - 1 : y;
 10615              		.loc 3 133 19 view .LVU2558
 10616 051a 1FFA80F8 		uxth	r8, r0
 10617              	.LVL842:
 133:../../libdaisy/src/hid/disp/display.h ****         currentY_ = (y >= Height()) ? Height() - 1 : y;
 10618              		.loc 3 133 19 view .LVU2559
 10619 051e AFE6     		b	.L785
 10620              	.LVL843:
 10621              	.L756:
 133:../../libdaisy/src/hid/disp/display.h ****         currentY_ = (y >= Height()) ? Height() - 1 : y;
 10622              		.loc 3 133 19 view .LVU2560
 10623              	.LBE1705:
 10624              	.LBE1720:
 10625              	.LBE1754:
 10626              	.LBE1761:
 10627              	.LBB1762:
 10628              	.LBB1645:
 10629              	.LBB1636:
 10630              	.LBB1621:
ARM GAS  C:\Users\VINCIU~1\AppData\Local\Temp\cc6DIkXk.s 			page 250


 10631              	.LBB1614:
 10632              	.LBB1607:
 10633              	.LBI1607:
 239:../../libdaisy/src/dev/oled_ssd130x.h ****     {
 10634              		.loc 4 239 10 is_stmt 1 view .LVU2561
 10635              	.LBB1608:
 246:../../libdaisy/src/dev/oled_ssd130x.h ****     }
 10636              		.loc 4 246 49 is_stmt 0 view .LVU2562
 10637 0520 02FA01F1 		lsl	r1, r2, r1
 246:../../libdaisy/src/dev/oled_ssd130x.h ****     }
 10638              		.loc 4 246 42 view .LVU2563
 10639 0524 1A7D     		ldrb	r2, [r3, #20]	@ zero_extendqisi2
 10640 0526 0695     		str	r5, [sp, #24]
 10641              	.LVL844:
 246:../../libdaisy/src/dev/oled_ssd130x.h ****     }
 10642              		.loc 4 246 42 view .LVU2564
 10643              	.LBE1608:
 10644              	.LBE1607:
 10645              	.LBE1614:
 10646              	.LBE1621:
 10647              	.LBE1636:
 199:../../libdaisy/src/hid/disp/display.h ****         {
 10648              		.loc 3 199 26 is_stmt 1 view .LVU2565
 10649              	.LBB1637:
 10650              	.LBB1622:
 10651              	.LBB1615:
 10652              	.LBB1610:
 10653              	.LBB1609:
 246:../../libdaisy/src/dev/oled_ssd130x.h ****     }
 10654              		.loc 4 246 42 is_stmt 0 view .LVU2566
 10655 0528 22EA0102 		bic	r2, r2, r1
 10656 052c 1A75     		strb	r2, [r3, #20]
 10657              	.LBE1609:
 10658              	.LBE1610:
 10659              	.LBE1615:
 10660              	.LBE1622:
 10661              	.LBE1637:
 199:../../libdaisy/src/hid/disp/display.h ****         {
 10662              		.loc 3 199 26 view .LVU2567
 10663 052e 059B     		ldr	r3, [sp, #20]
 10664 0530 9A45     		cmp	r10, r3
 10665 0532 7FF4D1AD 		bne	.L758
 10666              	.L834:
 10667              	.LVL845:
 199:../../libdaisy/src/hid/disp/display.h ****         {
 10668              		.loc 3 199 26 view .LVU2568
 10669              	.LBE1645:
 10670              	.LBE1762:
 160:OledDisplayExtravaganza.cpp ****     OledDisplay::DrawLine(x + radius, y, x + radius, y - radius, on);
 10671              		.loc 6 160 5 is_stmt 1 view .LVU2569
 160:OledDisplayExtravaganza.cpp ****     OledDisplay::DrawLine(x + radius, y, x + radius, y - radius, on);
 10672              		.loc 6 160 29 is_stmt 0 view .LVU2570
 10673 0536 7CEE0A7A 		vadd.f32	s15, s24, s20
 160:OledDisplayExtravaganza.cpp ****     OledDisplay::DrawLine(x + radius, y, x + radius, y - radius, on);
 10674              		.loc 6 160 26 view .LVU2571
 10675 053a FCEEE77A 		vcvt.u32.f32	s15, s15
 10676 053e 17EE90EA 		vmov	lr, s15	@ int
ARM GAS  C:\Users\VINCIU~1\AppData\Local\Temp\cc6DIkXk.s 			page 251


 10677              	.LVL846:
 10678              	.LBB1763:
 181:../../libdaisy/src/hid/disp/display.h ****                   uint_fast8_t y1,
 10679              		.loc 3 181 10 is_stmt 1 view .LVU2572
 10680              	.LBB1682:
 10681              	.LBB1677:
  41:../../libdaisy/src/hid/disp/oled_display.h ****     {
 10682              		.loc 2 41 10 view .LVU2573
 10683              	.LBB1665:
 239:../../libdaisy/src/dev/oled_ssd130x.h ****     {
 10684              		.loc 4 239 10 view .LVU2574
 10685              	.LBB1661:
 241:../../libdaisy/src/dev/oled_ssd130x.h ****             return;
 10686              		.loc 4 241 9 is_stmt 0 view .LVU2575
 10687 0542 BEF17F0F 		cmp	lr, #127
 10688 0546 3FF635AE 		bhi	.L768
 241:../../libdaisy/src/dev/oled_ssd130x.h ****             return;
 10689              		.loc 4 241 9 view .LVU2576
 10690 054a 069B     		ldr	r3, [sp, #24]
 10691 054c 002B     		cmp	r3, #0
 10692 054e 7FF431AE 		bne	.L768
 10693              	.LBE1661:
 10694              	.LBE1665:
 10695              	.LBE1677:
 10696              	.LBE1682:
 10697              	.LBE1763:
 10698              	.LBB1764:
 10699              	.LBB1646:
 199:../../libdaisy/src/hid/disp/display.h ****         {
 10700              		.loc 3 199 33 view .LVU2577
 10701 0552 0123     		movs	r3, #1
 10702 0554 F5E5     		b	.L800
 10703              	.LVL847:
 10704              	.L837:
 199:../../libdaisy/src/hid/disp/display.h ****         {
 10705              		.loc 3 199 33 view .LVU2578
 10706              	.LBE1646:
 10707              	.LBE1764:
 10708              	.LBB1765:
 10709              	.LBB1691:
 134:../../libdaisy/src/hid/disp/display.h ****     }
 10710              		.loc 3 134 33 view .LVU2579
 10711 0556 2046     		mov	r0, r4
 10712 0558 9847     		blx	r3
 10713              	.LVL848:
 10714 055a 5FE6     		b	.L779
 10715              	.LVL849:
 10716              	.L835:
 133:../../libdaisy/src/hid/disp/display.h ****         currentY_ = (y >= Height()) ? Height() - 1 : y;
 10717              		.loc 3 133 32 view .LVU2580
 10718 055c 2046     		mov	r0, r4
 10719 055e 9047     		blx	r2
 10720              	.LVL850:
 133:../../libdaisy/src/hid/disp/display.h ****         currentY_ = (y >= Height()) ? Height() - 1 : y;
 10721              		.loc 3 133 44 view .LVU2581
 10722 0560 2368     		ldr	r3, [r4]
 10723 0562 4CE6     		b	.L776
ARM GAS  C:\Users\VINCIU~1\AppData\Local\Temp\cc6DIkXk.s 			page 252


 10724              	.LVL851:
 10725              	.L838:
 134:../../libdaisy/src/hid/disp/display.h ****     }
 10726              		.loc 3 134 45 view .LVU2582
 10727 0564 2046     		mov	r0, r4
 10728 0566 9847     		blx	r3
 10729              	.LVL852:
 134:../../libdaisy/src/hid/disp/display.h ****     }
 10730              		.loc 3 134 19 view .LVU2583
 10731 0568 0138     		subs	r0, r0, #1
 10732 056a 87B2     		uxth	r7, r0
 10733              	.LVL853:
 134:../../libdaisy/src/hid/disp/display.h ****     }
 10734              		.loc 3 134 19 view .LVU2584
 10735 056c 5EE6     		b	.L780
 10736              	.LVL854:
 10737              	.L836:
 133:../../libdaisy/src/hid/disp/display.h ****         currentY_ = (y >= Height()) ? Height() - 1 : y;
 10738              		.loc 3 133 43 view .LVU2585
 10739 056e 2046     		mov	r0, r4
 10740 0570 9047     		blx	r2
 10741              	.LVL855:
 133:../../libdaisy/src/hid/disp/display.h ****         currentY_ = (y >= Height()) ? Height() - 1 : y;
 10742              		.loc 3 133 19 view .LVU2586
 10743 0572 0138     		subs	r0, r0, #1
 134:../../libdaisy/src/hid/disp/display.h ****     }
 10744              		.loc 3 134 34 view .LVU2587
 10745 0574 2368     		ldr	r3, [r4]
 133:../../libdaisy/src/hid/disp/display.h ****         currentY_ = (y >= Height()) ? Height() - 1 : y;
 10746              		.loc 3 133 19 view .LVU2588
 10747 0576 86B2     		uxth	r6, r0
 10748              	.LVL856:
 133:../../libdaisy/src/hid/disp/display.h ****         currentY_ = (y >= Height()) ? Height() - 1 : y;
 10749              		.loc 3 133 19 view .LVU2589
 10750 0578 49E6     		b	.L777
 10751              	.LBE1691:
 10752              	.LBE1765:
 10753              		.cfi_endproc
 10754              	.LFE1823:
 10756              		.weak	_ZTSN5daisy21OneBitGraphicsDisplayE
 10757 057a 00BF     		.section	.rodata._ZTSN5daisy21OneBitGraphicsDisplayE,"aG",%progbits,_ZTSN5daisy21OneBitGraphicsDis
 10758              		.align	2
 10761              	_ZTSN5daisy21OneBitGraphicsDisplayE:
 10762 0000 4E356461 		.ascii	"N5daisy21OneBitGraphicsDisplayE\000"
 10762      69737932 
 10762      314F6E65 
 10762      42697447 
 10762      72617068 
 10763              		.weak	_ZTIN5daisy21OneBitGraphicsDisplayE
 10764              		.section	.rodata._ZTIN5daisy21OneBitGraphicsDisplayE,"aG",%progbits,_ZTIN5daisy21OneBitGraphicsDis
 10765              		.align	2
 10768              	_ZTIN5daisy21OneBitGraphicsDisplayE:
 10769 0000 08000000 		.word	_ZTVN10__cxxabiv117__class_type_infoE+8
 10770 0004 00000000 		.word	_ZTSN5daisy21OneBitGraphicsDisplayE
 10771              		.weak	_ZTSN5daisy25OneBitGraphicsDisplayImplINS_11OledDisplayINS_13SSD130xDriverILj128ELj64ENS_24S
 10772              		.section	.rodata._ZTSN5daisy25OneBitGraphicsDisplayImplINS_11OledDisplayINS_13SSD130xDriverILj128E
 10773              		.align	2
ARM GAS  C:\Users\VINCIU~1\AppData\Local\Temp\cc6DIkXk.s 			page 253


 10776              	_ZTSN5daisy25OneBitGraphicsDisplayImplINS_11OledDisplayINS_13SSD130xDriverILj128ELj64ENS_24SSD130x4
 10777 0000 4E356461 		.ascii	"N5daisy25OneBitGraphicsDisplayImplINS_11OledDisplay"
 10777      69737932 
 10777      354F6E65 
 10777      42697447 
 10777      72617068 
 10778 0033 494E535F 		.ascii	"INS_13SSD130xDriverILj128ELj64ENS_24SSD130x4WireSpi"
 10778      31335353 
 10778      44313330 
 10778      78447269 
 10778      76657249 
 10779 0066 5472616E 		.ascii	"TransportEEEEEEE\000"
 10779      73706F72 
 10779      74454545 
 10779      45454545 
 10779      00
 10780              		.weak	_ZTIN5daisy25OneBitGraphicsDisplayImplINS_11OledDisplayINS_13SSD130xDriverILj128ELj64ENS_24S
 10781              		.section	.rodata._ZTIN5daisy25OneBitGraphicsDisplayImplINS_11OledDisplayINS_13SSD130xDriverILj128E
 10782              		.align	2
 10785              	_ZTIN5daisy25OneBitGraphicsDisplayImplINS_11OledDisplayINS_13SSD130xDriverILj128ELj64ENS_24SSD130x4
 10786 0000 08000000 		.word	_ZTVN10__cxxabiv120__si_class_type_infoE+8
 10787 0004 00000000 		.word	_ZTSN5daisy25OneBitGraphicsDisplayImplINS_11OledDisplayINS_13SSD130xDriverILj128ELj64ENS_24S
 10788 0008 00000000 		.word	_ZTIN5daisy21OneBitGraphicsDisplayE
 10789              		.weak	_ZTSN5daisy11OledDisplayINS_13SSD130xDriverILj128ELj64ENS_24SSD130x4WireSpiTransportEEEEE
 10790              		.section	.rodata._ZTSN5daisy11OledDisplayINS_13SSD130xDriverILj128ELj64ENS_24SSD130x4WireSpiTransp
 10791              		.align	2
 10794              	_ZTSN5daisy11OledDisplayINS_13SSD130xDriverILj128ELj64ENS_24SSD130x4WireSpiTransportEEEEE:
 10795 0000 4E356461 		.ascii	"N5daisy11OledDisplayINS_13SSD130xDriverILj128ELj64E"
 10795      69737931 
 10795      314F6C65 
 10795      64446973 
 10795      706C6179 
 10796 0033 4E535F32 		.ascii	"NS_24SSD130x4WireSpiTransportEEEEE\000"
 10796      34535344 
 10796      31333078 
 10796      34576972 
 10796      65537069 
 10797              		.weak	_ZTIN5daisy11OledDisplayINS_13SSD130xDriverILj128ELj64ENS_24SSD130x4WireSpiTransportEEEEE
 10798              		.section	.rodata._ZTIN5daisy11OledDisplayINS_13SSD130xDriverILj128ELj64ENS_24SSD130x4WireSpiTransp
 10799              		.align	2
 10802              	_ZTIN5daisy11OledDisplayINS_13SSD130xDriverILj128ELj64ENS_24SSD130x4WireSpiTransportEEEEE:
 10803 0000 08000000 		.word	_ZTVN10__cxxabiv120__si_class_type_infoE+8
 10804 0004 00000000 		.word	_ZTSN5daisy11OledDisplayINS_13SSD130xDriverILj128ELj64ENS_24SSD130x4WireSpiTransportEEEEE
 10805 0008 00000000 		.word	_ZTIN5daisy25OneBitGraphicsDisplayImplINS_11OledDisplayINS_13SSD130xDriverILj128ELj64ENS_24S
 10806              		.weak	_ZTS23OledDisplayExtravaganza
 10807              		.section	.rodata._ZTS23OledDisplayExtravaganza,"aG",%progbits,_ZTS23OledDisplayExtravaganza,comdat
 10808              		.align	2
 10811              	_ZTS23OledDisplayExtravaganza:
 10812 0000 32334F6C 		.ascii	"23OledDisplayExtravaganza\000"
 10812      65644469 
 10812      73706C61 
 10812      79457874 
 10812      72617661 
 10813              		.weak	_ZTI23OledDisplayExtravaganza
 10814              		.section	.rodata._ZTI23OledDisplayExtravaganza,"aG",%progbits,_ZTI23OledDisplayExtravaganza,comdat
 10815              		.align	2
 10818              	_ZTI23OledDisplayExtravaganza:
ARM GAS  C:\Users\VINCIU~1\AppData\Local\Temp\cc6DIkXk.s 			page 254


 10819 0000 08000000 		.word	_ZTVN10__cxxabiv120__si_class_type_infoE+8
 10820 0004 00000000 		.word	_ZTS23OledDisplayExtravaganza
 10821 0008 00000000 		.word	_ZTIN5daisy11OledDisplayINS_13SSD130xDriverILj128ELj64ENS_24SSD130x4WireSpiTransportEEEEE
 10822              		.weak	_ZTV23OledDisplayExtravaganza
 10823              		.section	.rodata._ZTV23OledDisplayExtravaganza,"aG",%progbits,_ZTV23OledDisplayExtravaganza,comdat
 10824              		.align	2
 10827              	_ZTV23OledDisplayExtravaganza:
 10828 0000 00000000 		.word	0
 10829 0004 00000000 		.word	_ZTI23OledDisplayExtravaganza
 10830 0008 00000000 		.word	_ZN23OledDisplayExtravaganzaD1Ev
 10831 000c 00000000 		.word	_ZN23OledDisplayExtravaganzaD0Ev
 10832 0010 00000000 		.word	_ZNK5daisy11OledDisplayINS_13SSD130xDriverILj128ELj64ENS_24SSD130x4WireSpiTransportEEEE6Heig
 10833 0014 00000000 		.word	_ZNK5daisy11OledDisplayINS_13SSD130xDriverILj128ELj64ENS_24SSD130x4WireSpiTransportEEEE5Widt
 10834 0018 00000000 		.word	_ZN5daisy11OledDisplayINS_13SSD130xDriverILj128ELj64ENS_24SSD130x4WireSpiTransportEEEE4FillE
 10835 001c 00000000 		.word	_ZN5daisy11OledDisplayINS_13SSD130xDriverILj128ELj64ENS_24SSD130x4WireSpiTransportEEEE9DrawP
 10836 0020 00000000 		.word	_ZN5daisy25OneBitGraphicsDisplayImplINS_11OledDisplayINS_13SSD130xDriverILj128ELj64ENS_24SSD
 10837 0024 00000000 		.word	_ZN5daisy25OneBitGraphicsDisplayImplINS_11OledDisplayINS_13SSD130xDriverILj128ELj64ENS_24SSD
 10838 0028 00000000 		.word	_ZN5daisy25OneBitGraphicsDisplayImplINS_11OledDisplayINS_13SSD130xDriverILj128ELj64ENS_24SSD
 10839 002c 00000000 		.word	_ZN5daisy25OneBitGraphicsDisplayImplINS_11OledDisplayINS_13SSD130xDriverILj128ELj64ENS_24SSD
 10840 0030 00000000 		.word	_ZN5daisy25OneBitGraphicsDisplayImplINS_11OledDisplayINS_13SSD130xDriverILj128ELj64ENS_24SSD
 10841 0034 00000000 		.word	_ZN5daisy11OledDisplayINS_13SSD130xDriverILj128ELj64ENS_24SSD130x4WireSpiTransportEEEE6Updat
 10842              		.text
 10843              	.Letext0:
 10844              		.file 8 "c:\\users\\vin\355cius\\documents\\daisytoolchain-0.3.1\\windows\\arm-none-eabi\\include\
 10845              		.file 9 "c:\\users\\vin\355cius\\documents\\daisytoolchain-0.3.1\\windows\\arm-none-eabi\\include\
 10846              		.file 10 "c:\\users\\vin\355cius\\documents\\daisytoolchain-0.3.1\\windows\\arm-none-eabi\\include
 10847              		.file 11 "c:\\users\\vin\355cius\\documents\\daisytoolchain-0.3.1\\windows\\lib\\gcc\\arm-none-eab
 10848              		.file 12 "c:\\users\\vin\355cius\\documents\\daisytoolchain-0.3.1\\windows\\arm-none-eabi\\include
 10849              		.file 13 "c:\\users\\vin\355cius\\documents\\daisytoolchain-0.3.1\\windows\\arm-none-eabi\\include
 10850              		.file 14 "c:\\users\\vin\355cius\\documents\\daisytoolchain-0.3.1\\windows\\arm-none-eabi\\include
 10851              		.file 15 "c:\\users\\vin\355cius\\documents\\daisytoolchain-0.3.1\\windows\\arm-none-eabi\\include
 10852              		.file 16 "c:\\users\\vin\355cius\\documents\\daisytoolchain-0.3.1\\windows\\arm-none-eabi\\include
 10853              		.file 17 "c:\\users\\vin\355cius\\documents\\daisytoolchain-0.3.1\\windows\\arm-none-eabi\\include
 10854              		.file 18 "c:\\users\\vin\355cius\\documents\\daisytoolchain-0.3.1\\windows\\arm-none-eabi\\include
 10855              		.file 19 "c:\\users\\vin\355cius\\documents\\daisytoolchain-0.3.1\\windows\\arm-none-eabi\\include
 10856              		.file 20 "c:\\users\\vin\355cius\\documents\\daisytoolchain-0.3.1\\windows\\arm-none-eabi\\include
 10857              		.file 21 "c:\\users\\vin\355cius\\documents\\daisytoolchain-0.3.1\\windows\\arm-none-eabi\\include
 10858              		.file 22 "c:\\users\\vin\355cius\\documents\\daisytoolchain-0.3.1\\windows\\arm-none-eabi\\include
 10859              		.file 23 "c:\\users\\vin\355cius\\documents\\daisytoolchain-0.3.1\\windows\\arm-none-eabi\\include
 10860              		.file 24 "c:\\users\\vin\355cius\\documents\\daisytoolchain-0.3.1\\windows\\arm-none-eabi\\include
 10861              		.file 25 "c:\\users\\vin\355cius\\documents\\daisytoolchain-0.3.1\\windows\\arm-none-eabi\\include
 10862              		.file 26 "c:\\users\\vin\355cius\\documents\\daisytoolchain-0.3.1\\windows\\arm-none-eabi\\include
 10863              		.file 27 "c:\\users\\vin\355cius\\documents\\daisytoolchain-0.3.1\\windows\\arm-none-eabi\\include
 10864              		.file 28 "c:\\users\\vin\355cius\\documents\\daisytoolchain-0.3.1\\windows\\arm-none-eabi\\include
 10865              		.file 29 "c:\\users\\vin\355cius\\documents\\daisytoolchain-0.3.1\\windows\\arm-none-eabi\\include
 10866              		.file 30 "c:\\users\\vin\355cius\\documents\\daisytoolchain-0.3.1\\windows\\arm-none-eabi\\include
 10867              		.file 31 "c:\\users\\vin\355cius\\documents\\daisytoolchain-0.3.1\\windows\\arm-none-eabi\\include
 10868              		.file 32 "../../libdaisy/src/daisy_core.h"
 10869              		.file 33 "../../libdaisy/src/per/tim.h"
 10870              		.file 34 "../../libdaisy/src/util/wav_format.h"
 10871              		.file 35 "../../libdaisy/src/per/gpio.h"
 10872              		.file 36 "c:\\users\\vin\355cius\\documents\\daisytoolchain-0.3.1\\windows\\lib\\gcc\\arm-none-eab
 10873              		.file 37 "c:\\users\\vin\355cius\\documents\\daisytoolchain-0.3.1\\windows\\arm-none-eabi\\include
 10874              		.file 38 "../../libdaisy/src/util/oled_fonts.h"
 10875              		.file 39 "../../libdaisy/src/dev/sr_595.h"
 10876              		.file 40 "c:\\users\\vin\355cius\\documents\\daisytoolchain-0.3.1\\windows\\arm-none-eabi\\include
 10877              		.file 41 "<built-in>"
ARM GAS  C:\Users\VINCIU~1\AppData\Local\Temp\cc6DIkXk.s 			page 255


 10878              		.file 42 "../../libdaisy/src/hid/logger_impl.h"
ARM GAS  C:\Users\VINCIU~1\AppData\Local\Temp\cc6DIkXk.s 			page 256


DEFINED SYMBOLS
                            *ABS*:00000000 OledDisplayExtravaganza.cpp
C:\Users\VINCIU~1\AppData\Local\Temp\cc6DIkXk.s:17     .text._ZN23OledDisplayExtravaganzaD2Ev:00000000 $t
C:\Users\VINCIU~1\AppData\Local\Temp\cc6DIkXk.s:26     .text._ZN23OledDisplayExtravaganzaD2Ev:00000000 _ZN23OledDisplayExtravaganzaD2Ev
C:\Users\VINCIU~1\AppData\Local\Temp\cc6DIkXk.s:26     .text._ZN23OledDisplayExtravaganzaD2Ev:00000000 _ZN23OledDisplayExtravaganzaD1Ev
C:\Users\VINCIU~1\AppData\Local\Temp\cc6DIkXk.s:58     .text._ZNK5daisy11OledDisplayINS_13SSD130xDriverILj128ELj64ENS_24SSD130x4WireSpiTransportEEEE6HeightEv:00000000 $t
C:\Users\VINCIU~1\AppData\Local\Temp\cc6DIkXk.s:66     .text._ZNK5daisy11OledDisplayINS_13SSD130xDriverILj128ELj64ENS_24SSD130x4WireSpiTransportEEEE6HeightEv:00000000 _ZNK5daisy11OledDisplayINS_13SSD130xDriverILj128ELj64ENS_24SSD130x4WireSpiTransportEEEE6HeightEv
C:\Users\VINCIU~1\AppData\Local\Temp\cc6DIkXk.s:83     .text._ZNK5daisy11OledDisplayINS_13SSD130xDriverILj128ELj64ENS_24SSD130x4WireSpiTransportEEEE5WidthEv:00000000 $t
C:\Users\VINCIU~1\AppData\Local\Temp\cc6DIkXk.s:91     .text._ZNK5daisy11OledDisplayINS_13SSD130xDriverILj128ELj64ENS_24SSD130x4WireSpiTransportEEEE5WidthEv:00000000 _ZNK5daisy11OledDisplayINS_13SSD130xDriverILj128ELj64ENS_24SSD130x4WireSpiTransportEEEE5WidthEv
C:\Users\VINCIU~1\AppData\Local\Temp\cc6DIkXk.s:108    .text._ZN5daisy11OledDisplayINS_13SSD130xDriverILj128ELj64ENS_24SSD130x4WireSpiTransportEEEE4FillEb:00000000 $t
C:\Users\VINCIU~1\AppData\Local\Temp\cc6DIkXk.s:116    .text._ZN5daisy11OledDisplayINS_13SSD130xDriverILj128ELj64ENS_24SSD130x4WireSpiTransportEEEE4FillEb:00000000 _ZN5daisy11OledDisplayINS_13SSD130xDriverILj128ELj64ENS_24SSD130x4WireSpiTransportEEEE4FillEb
C:\Users\VINCIU~1\AppData\Local\Temp\cc6DIkXk.s:148    .text._ZN23OledDisplayExtravaganzaD0Ev:00000000 $t
C:\Users\VINCIU~1\AppData\Local\Temp\cc6DIkXk.s:156    .text._ZN23OledDisplayExtravaganzaD0Ev:00000000 _ZN23OledDisplayExtravaganzaD0Ev
C:\Users\VINCIU~1\AppData\Local\Temp\cc6DIkXk.s:200    .text._ZN5daisy11OledDisplayINS_13SSD130xDriverILj128ELj64ENS_24SSD130x4WireSpiTransportEEEE6UpdateEv:00000000 $t
C:\Users\VINCIU~1\AppData\Local\Temp\cc6DIkXk.s:208    .text._ZN5daisy11OledDisplayINS_13SSD130xDriverILj128ELj64ENS_24SSD130x4WireSpiTransportEEEE6UpdateEv:00000000 _ZN5daisy11OledDisplayINS_13SSD130xDriverILj128ELj64ENS_24SSD130x4WireSpiTransportEEEE6UpdateEv
C:\Users\VINCIU~1\AppData\Local\Temp\cc6DIkXk.s:395    .text._ZN5daisy11OledDisplayINS_13SSD130xDriverILj128ELj64ENS_24SSD130x4WireSpiTransportEEEE9DrawPixelEjjb:00000000 $t
C:\Users\VINCIU~1\AppData\Local\Temp\cc6DIkXk.s:403    .text._ZN5daisy11OledDisplayINS_13SSD130xDriverILj128ELj64ENS_24SSD130x4WireSpiTransportEEEE9DrawPixelEjjb:00000000 _ZN5daisy11OledDisplayINS_13SSD130xDriverILj128ELj64ENS_24SSD130x4WireSpiTransportEEEE9DrawPixelEjjb
C:\Users\VINCIU~1\AppData\Local\Temp\cc6DIkXk.s:480    .text._ZN5daisy25OneBitGraphicsDisplayImplINS_11OledDisplayINS_13SSD130xDriverILj128ELj64ENS_24SSD130x4WireSpiTransportEEEEEE8DrawLineEjjjjb:00000000 $t
C:\Users\VINCIU~1\AppData\Local\Temp\cc6DIkXk.s:488    .text._ZN5daisy25OneBitGraphicsDisplayImplINS_11OledDisplayINS_13SSD130xDriverILj128ELj64ENS_24SSD130x4WireSpiTransportEEEEEE8DrawLineEjjjjb:00000000 _ZN5daisy25OneBitGraphicsDisplayImplINS_11OledDisplayINS_13SSD130xDriverILj128ELj64ENS_24SSD130x4WireSpiTransportEEEEEE8DrawLineEjjjjb
C:\Users\VINCIU~1\AppData\Local\Temp\cc6DIkXk.s:773    .text._ZN5daisy25OneBitGraphicsDisplayImplINS_11OledDisplayINS_13SSD130xDriverILj128ELj64ENS_24SSD130x4WireSpiTransportEEEEEE7DrawArcEjjjiib:00000000 $t
C:\Users\VINCIU~1\AppData\Local\Temp\cc6DIkXk.s:781    .text._ZN5daisy25OneBitGraphicsDisplayImplINS_11OledDisplayINS_13SSD130xDriverILj128ELj64ENS_24SSD130x4WireSpiTransportEEEEEE7DrawArcEjjjiib:00000000 _ZN5daisy25OneBitGraphicsDisplayImplINS_11OledDisplayINS_13SSD130xDriverILj128ELj64ENS_24SSD130x4WireSpiTransportEEEEEE7DrawArcEjjjiib
C:\Users\VINCIU~1\AppData\Local\Temp\cc6DIkXk.s:1466   .text._ZN5daisy25OneBitGraphicsDisplayImplINS_11OledDisplayINS_13SSD130xDriverILj128ELj64ENS_24SSD130x4WireSpiTransportEEEEEE7DrawArcEjjjiib:00000368 $d
C:\Users\VINCIU~1\AppData\Local\Temp\cc6DIkXk.s:1480   .text._ZN5daisy25OneBitGraphicsDisplayImplINS_11OledDisplayINS_13SSD130xDriverILj128ELj64ENS_24SSD130x4WireSpiTransportEEEEEE7DrawArcEjjjiib:00000378 $t
C:\Users\VINCIU~1\AppData\Local\Temp\cc6DIkXk.s:1706   .text._ZN5daisy25OneBitGraphicsDisplayImplINS_11OledDisplayINS_13SSD130xDriverILj128ELj64ENS_24SSD130x4WireSpiTransportEEEEEE11WriteStringEPKc7FontDefb:00000000 $t
C:\Users\VINCIU~1\AppData\Local\Temp\cc6DIkXk.s:1714   .text._ZN5daisy25OneBitGraphicsDisplayImplINS_11OledDisplayINS_13SSD130xDriverILj128ELj64ENS_24SSD130x4WireSpiTransportEEEEEE11WriteStringEPKc7FontDefb:00000000 _ZN5daisy25OneBitGraphicsDisplayImplINS_11OledDisplayINS_13SSD130xDriverILj128ELj64ENS_24SSD130x4WireSpiTransportEEEEEE11WriteStringEPKc7FontDefb
C:\Users\VINCIU~1\AppData\Local\Temp\cc6DIkXk.s:2171   .text._ZN5daisy25OneBitGraphicsDisplayImplINS_11OledDisplayINS_13SSD130xDriverILj128ELj64ENS_24SSD130x4WireSpiTransportEEEEEE11WriteStringEPKc7FontDefb:000001b8 $d
C:\Users\VINCIU~1\AppData\Local\Temp\cc6DIkXk.s:2181   .text._ZN5daisy25OneBitGraphicsDisplayImplINS_11OledDisplayINS_13SSD130xDriverILj128ELj64ENS_24SSD130x4WireSpiTransportEEEEEE9WriteCharEc7FontDefb:00000000 $t
C:\Users\VINCIU~1\AppData\Local\Temp\cc6DIkXk.s:2189   .text._ZN5daisy25OneBitGraphicsDisplayImplINS_11OledDisplayINS_13SSD130xDriverILj128ELj64ENS_24SSD130x4WireSpiTransportEEEEEE9WriteCharEc7FontDefb:00000000 _ZN5daisy25OneBitGraphicsDisplayImplINS_11OledDisplayINS_13SSD130xDriverILj128ELj64ENS_24SSD130x4WireSpiTransportEEEEEE9WriteCharEc7FontDefb
C:\Users\VINCIU~1\AppData\Local\Temp\cc6DIkXk.s:2615   .text._ZN5daisy25OneBitGraphicsDisplayImplINS_11OledDisplayINS_13SSD130xDriverILj128ELj64ENS_24SSD130x4WireSpiTransportEEEEEE9WriteCharEc7FontDefb:00000198 $d
C:\Users\VINCIU~1\AppData\Local\Temp\cc6DIkXk.s:2623   .text._ZN5daisy25OneBitGraphicsDisplayImplINS_11OledDisplayINS_13SSD130xDriverILj128ELj64ENS_24SSD130x4WireSpiTransportEEEEEE8DrawRectEjjjjbb:00000000 $t
C:\Users\VINCIU~1\AppData\Local\Temp\cc6DIkXk.s:2631   .text._ZN5daisy25OneBitGraphicsDisplayImplINS_11OledDisplayINS_13SSD130xDriverILj128ELj64ENS_24SSD130x4WireSpiTransportEEEEEE8DrawRectEjjjjbb:00000000 _ZN5daisy25OneBitGraphicsDisplayImplINS_11OledDisplayINS_13SSD130xDriverILj128ELj64ENS_24SSD130x4WireSpiTransportEEEEEE8DrawRectEjjjjbb
C:\Users\VINCIU~1\AppData\Local\Temp\cc6DIkXk.s:3741   .text._ZN23OledDisplayExtravaganzaC2Ev:00000000 $t
C:\Users\VINCIU~1\AppData\Local\Temp\cc6DIkXk.s:3749   .text._ZN23OledDisplayExtravaganzaC2Ev:00000000 _ZN23OledDisplayExtravaganzaC2Ev
C:\Users\VINCIU~1\AppData\Local\Temp\cc6DIkXk.s:3814   .text._ZN23OledDisplayExtravaganzaC2Ev:0000000c $d
C:\Users\VINCIU~1\AppData\Local\Temp\cc6DIkXk.s:10827  .rodata._ZTV23OledDisplayExtravaganza:00000000 _ZTV23OledDisplayExtravaganza
C:\Users\VINCIU~1\AppData\Local\Temp\cc6DIkXk.s:3749   .text._ZN23OledDisplayExtravaganzaC2Ev:00000000 _ZN23OledDisplayExtravaganzaC1Ev
C:\Users\VINCIU~1\AppData\Local\Temp\cc6DIkXk.s:3821   .text._ZN23OledDisplayExtravaganza10drawSliderEffffff:00000000 $t
C:\Users\VINCIU~1\AppData\Local\Temp\cc6DIkXk.s:3829   .text._ZN23OledDisplayExtravaganza10drawSliderEffffff:00000000 _ZN23OledDisplayExtravaganza10drawSliderEffffff
C:\Users\VINCIU~1\AppData\Local\Temp\cc6DIkXk.s:4018   .text._ZN23OledDisplayExtravaganza8drawSineEfffb:00000000 $t
C:\Users\VINCIU~1\AppData\Local\Temp\cc6DIkXk.s:4026   .text._ZN23OledDisplayExtravaganza8drawSineEfffb:00000000 _ZN23OledDisplayExtravaganza8drawSineEfffb
C:\Users\VINCIU~1\AppData\Local\Temp\cc6DIkXk.s:4449   .text._ZN23OledDisplayExtravaganza8drawSineEfffb:000001a8 $d
C:\Users\VINCIU~1\AppData\Local\Temp\cc6DIkXk.s:4462   .text._ZN23OledDisplayExtravaganza7drawTriEfffb:00000000 $t
C:\Users\VINCIU~1\AppData\Local\Temp\cc6DIkXk.s:4470   .text._ZN23OledDisplayExtravaganza7drawTriEfffb:00000000 _ZN23OledDisplayExtravaganza7drawTriEfffb
C:\Users\VINCIU~1\AppData\Local\Temp\cc6DIkXk.s:5139   .text._ZN23OledDisplayExtravaganza7drawTriEfffb:000002e0 $d
C:\Users\VINCIU~1\AppData\Local\Temp\cc6DIkXk.s:5144   .rodata._ZN23OledDisplayExtravaganza7drawSqrEfffb.str1.4:00000000 $d
C:\Users\VINCIU~1\AppData\Local\Temp\cc6DIkXk.s:5148   .text._ZN23OledDisplayExtravaganza7drawSqrEfffb:00000000 $t
C:\Users\VINCIU~1\AppData\Local\Temp\cc6DIkXk.s:5156   .text._ZN23OledDisplayExtravaganza7drawSqrEfffb:00000000 _ZN23OledDisplayExtravaganza7drawSqrEfffb
C:\Users\VINCIU~1\AppData\Local\Temp\cc6DIkXk.s:6008   .text._ZN23OledDisplayExtravaganza7drawSqrEfffb:00000330 $d
C:\Users\VINCIU~1\AppData\Local\Temp\cc6DIkXk.s:6024   .text._ZN23OledDisplayExtravaganza7drawSqrEfffb:00000344 $t
C:\Users\VINCIU~1\AppData\Local\Temp\cc6DIkXk.s:6107   .rodata._ZN23OledDisplayExtravaganza7drawSawEfffb.str1.4:00000000 $d
C:\Users\VINCIU~1\AppData\Local\Temp\cc6DIkXk.s:6111   .text._ZN23OledDisplayExtravaganza7drawSawEfffb:00000000 $t
C:\Users\VINCIU~1\AppData\Local\Temp\cc6DIkXk.s:6119   .text._ZN23OledDisplayExtravaganza7drawSawEfffb:00000000 _ZN23OledDisplayExtravaganza7drawSawEfffb
C:\Users\VINCIU~1\AppData\Local\Temp\cc6DIkXk.s:6858   .text._ZN23OledDisplayExtravaganza7drawSawEfffb:000002f0 $d
C:\Users\VINCIU~1\AppData\Local\Temp\cc6DIkXk.s:6869   .rodata._ZN23OledDisplayExtravaganza9WaveIconsEiiiib.str1.4:00000000 $d
C:\Users\VINCIU~1\AppData\Local\Temp\cc6DIkXk.s:6876   .text._ZN23OledDisplayExtravaganza9WaveIconsEiiiib:00000000 $t
C:\Users\VINCIU~1\AppData\Local\Temp\cc6DIkXk.s:6884   .text._ZN23OledDisplayExtravaganza9WaveIconsEiiiib:00000000 _ZN23OledDisplayExtravaganza9WaveIconsEiiiib
C:\Users\VINCIU~1\AppData\Local\Temp\cc6DIkXk.s:6918   .text._ZN23OledDisplayExtravaganza9WaveIconsEiiiib:0000001c $d
ARM GAS  C:\Users\VINCIU~1\AppData\Local\Temp\cc6DIkXk.s 			page 257


C:\Users\VINCIU~1\AppData\Local\Temp\cc6DIkXk.s:6922   .text._ZN23OledDisplayExtravaganza9WaveIconsEiiiib:00000020 $t
C:\Users\VINCIU~1\AppData\Local\Temp\cc6DIkXk.s:7518   .text._ZN23OledDisplayExtravaganza9WaveIconsEiiiib:0000024c $d
C:\Users\VINCIU~1\AppData\Local\Temp\cc6DIkXk.s:7531   .text._ZN23OledDisplayExtravaganza8drawDialEffffbPKc:00000000 $t
C:\Users\VINCIU~1\AppData\Local\Temp\cc6DIkXk.s:7539   .text._ZN23OledDisplayExtravaganza8drawDialEffffbPKc:00000000 _ZN23OledDisplayExtravaganza8drawDialEffffbPKc
C:\Users\VINCIU~1\AppData\Local\Temp\cc6DIkXk.s:7925   .text._ZN23OledDisplayExtravaganza8drawDialEffffbPKc:00000170 $d
C:\Users\VINCIU~1\AppData\Local\Temp\cc6DIkXk.s:7937   .rodata._ZN23OledDisplayExtravaganza20drawHorizontalToggleEfffbbPKc.str1.4:00000000 $d
C:\Users\VINCIU~1\AppData\Local\Temp\cc6DIkXk.s:7944   .text._ZN23OledDisplayExtravaganza20drawHorizontalToggleEfffbbPKc:00000000 $t
C:\Users\VINCIU~1\AppData\Local\Temp\cc6DIkXk.s:7952   .text._ZN23OledDisplayExtravaganza20drawHorizontalToggleEfffbbPKc:00000000 _ZN23OledDisplayExtravaganza20drawHorizontalToggleEfffbbPKc
C:\Users\VINCIU~1\AppData\Local\Temp\cc6DIkXk.s:9160   .text._ZN23OledDisplayExtravaganza20drawHorizontalToggleEfffbbPKc:000004c8 $d
C:\Users\VINCIU~1\AppData\Local\Temp\cc6DIkXk.s:9180   .text._ZN23OledDisplayExtravaganza20drawHorizontalToggleEfffbbPKc:000004f0 $t
C:\Users\VINCIU~1\AppData\Local\Temp\cc6DIkXk.s:9329   .rodata._ZN23OledDisplayExtravaganza18drawVerticalToggleEfffbbPKc.str1.4:00000000 $d
C:\Users\VINCIU~1\AppData\Local\Temp\cc6DIkXk.s:9336   .text._ZN23OledDisplayExtravaganza18drawVerticalToggleEfffbbPKc:00000000 $t
C:\Users\VINCIU~1\AppData\Local\Temp\cc6DIkXk.s:9344   .text._ZN23OledDisplayExtravaganza18drawVerticalToggleEfffbbPKc:00000000 _ZN23OledDisplayExtravaganza18drawVerticalToggleEfffbbPKc
C:\Users\VINCIU~1\AppData\Local\Temp\cc6DIkXk.s:10526  .text._ZN23OledDisplayExtravaganza18drawVerticalToggleEfffbbPKc:000004c0 $d
C:\Users\VINCIU~1\AppData\Local\Temp\cc6DIkXk.s:10548  .text._ZN23OledDisplayExtravaganza18drawVerticalToggleEfffbbPKc:000004f0 $t
C:\Users\VINCIU~1\AppData\Local\Temp\cc6DIkXk.s:10761  .rodata._ZTSN5daisy21OneBitGraphicsDisplayE:00000000 _ZTSN5daisy21OneBitGraphicsDisplayE
C:\Users\VINCIU~1\AppData\Local\Temp\cc6DIkXk.s:10758  .rodata._ZTSN5daisy21OneBitGraphicsDisplayE:00000000 $d
C:\Users\VINCIU~1\AppData\Local\Temp\cc6DIkXk.s:10768  .rodata._ZTIN5daisy21OneBitGraphicsDisplayE:00000000 _ZTIN5daisy21OneBitGraphicsDisplayE
C:\Users\VINCIU~1\AppData\Local\Temp\cc6DIkXk.s:10765  .rodata._ZTIN5daisy21OneBitGraphicsDisplayE:00000000 $d
C:\Users\VINCIU~1\AppData\Local\Temp\cc6DIkXk.s:10776  .rodata._ZTSN5daisy25OneBitGraphicsDisplayImplINS_11OledDisplayINS_13SSD130xDriverILj128ELj64ENS_24SSD130x4WireSpiTransportEEEEEEE:00000000 _ZTSN5daisy25OneBitGraphicsDisplayImplINS_11OledDisplayINS_13SSD130xDriverILj128ELj64ENS_24SSD130x4WireSpiTransportEEEEEEE
C:\Users\VINCIU~1\AppData\Local\Temp\cc6DIkXk.s:10773  .rodata._ZTSN5daisy25OneBitGraphicsDisplayImplINS_11OledDisplayINS_13SSD130xDriverILj128ELj64ENS_24SSD130x4WireSpiTransportEEEEEEE:00000000 $d
C:\Users\VINCIU~1\AppData\Local\Temp\cc6DIkXk.s:10785  .rodata._ZTIN5daisy25OneBitGraphicsDisplayImplINS_11OledDisplayINS_13SSD130xDriverILj128ELj64ENS_24SSD130x4WireSpiTransportEEEEEEE:00000000 _ZTIN5daisy25OneBitGraphicsDisplayImplINS_11OledDisplayINS_13SSD130xDriverILj128ELj64ENS_24SSD130x4WireSpiTransportEEEEEEE
C:\Users\VINCIU~1\AppData\Local\Temp\cc6DIkXk.s:10782  .rodata._ZTIN5daisy25OneBitGraphicsDisplayImplINS_11OledDisplayINS_13SSD130xDriverILj128ELj64ENS_24SSD130x4WireSpiTransportEEEEEEE:00000000 $d
C:\Users\VINCIU~1\AppData\Local\Temp\cc6DIkXk.s:10794  .rodata._ZTSN5daisy11OledDisplayINS_13SSD130xDriverILj128ELj64ENS_24SSD130x4WireSpiTransportEEEEE:00000000 _ZTSN5daisy11OledDisplayINS_13SSD130xDriverILj128ELj64ENS_24SSD130x4WireSpiTransportEEEEE
C:\Users\VINCIU~1\AppData\Local\Temp\cc6DIkXk.s:10791  .rodata._ZTSN5daisy11OledDisplayINS_13SSD130xDriverILj128ELj64ENS_24SSD130x4WireSpiTransportEEEEE:00000000 $d
C:\Users\VINCIU~1\AppData\Local\Temp\cc6DIkXk.s:10802  .rodata._ZTIN5daisy11OledDisplayINS_13SSD130xDriverILj128ELj64ENS_24SSD130x4WireSpiTransportEEEEE:00000000 _ZTIN5daisy11OledDisplayINS_13SSD130xDriverILj128ELj64ENS_24SSD130x4WireSpiTransportEEEEE
C:\Users\VINCIU~1\AppData\Local\Temp\cc6DIkXk.s:10799  .rodata._ZTIN5daisy11OledDisplayINS_13SSD130xDriverILj128ELj64ENS_24SSD130x4WireSpiTransportEEEEE:00000000 $d
C:\Users\VINCIU~1\AppData\Local\Temp\cc6DIkXk.s:10811  .rodata._ZTS23OledDisplayExtravaganza:00000000 _ZTS23OledDisplayExtravaganza
C:\Users\VINCIU~1\AppData\Local\Temp\cc6DIkXk.s:10808  .rodata._ZTS23OledDisplayExtravaganza:00000000 $d
C:\Users\VINCIU~1\AppData\Local\Temp\cc6DIkXk.s:10818  .rodata._ZTI23OledDisplayExtravaganza:00000000 _ZTI23OledDisplayExtravaganza
C:\Users\VINCIU~1\AppData\Local\Temp\cc6DIkXk.s:10815  .rodata._ZTI23OledDisplayExtravaganza:00000000 $d
C:\Users\VINCIU~1\AppData\Local\Temp\cc6DIkXk.s:10824  .rodata._ZTV23OledDisplayExtravaganza:00000000 $d
                           .group:00000000 _ZN23OledDisplayExtravaganzaD5Ev

UNDEFINED SYMBOLS
memset
_ZdlPvj
dsy_gpio_write
_ZN5daisy9SpiHandle16BlockingTransmitEPhjm
cosf
sinf
sin
Font_6x8
Font_7x10
_ZTVN10__cxxabiv117__class_type_infoE
_ZTVN10__cxxabiv120__si_class_type_infoE
