ARM GAS  C:\Users\VINCIU~1\AppData\Local\Temp\cc6DIkXk.s 			page 1


   1              		.cpu cortex-m7
   2              		.eabi_attribute 28, 1
   3              		.eabi_attribute 20, 1
   4              		.eabi_attribute 21, 1
   5              		.eabi_attribute 23, 3
   6              		.eabi_attribute 24, 1
   7              		.eabi_attribute 25, 1
   8              		.eabi_attribute 26, 1
   9              		.eabi_attribute 30, 2
  10              		.eabi_attribute 34, 1
  11              		.eabi_attribute 18, 4
  12              		.file	"OledDisplayExtravaganza.cpp"
  13              		.text
  14              	.Ltext0:
  15              		.cfi_sections	.debug_frame
  16              		.section	.text._ZN23OledDisplayExtravaganzaD2Ev,"axG",%progbits,_ZN23OledDisplayExtravaganzaD5Ev,c
  17              		.align	1
  18              		.p2align 2,,3
  19              		.weak	_ZN23OledDisplayExtravaganzaD2Ev
  20              		.arch armv7e-m
  21              		.syntax unified
  22              		.thumb
  23              		.thumb_func
  24              		.fpu fpv5-d16
  26              	_ZN23OledDisplayExtravaganzaD2Ev:
  27              	.LVL0:
  28              	.LFB1852:
  29              		.file 1 "OledDisplayExtravaganza.h"
   1:OledDisplayExtravaganza.h **** #ifndef OledDisplayExtravaganza_H
   2:OledDisplayExtravaganza.h **** #define OledDisplayExtravaganza_H
   3:OledDisplayExtravaganza.h **** #include "daisy_seed.h"
   4:OledDisplayExtravaganza.h **** #include "dev/oled_ssd130x.h"
   5:OledDisplayExtravaganza.h **** #include <stdio.h>
   6:OledDisplayExtravaganza.h **** #include <math.h>
   7:OledDisplayExtravaganza.h **** 
   8:OledDisplayExtravaganza.h **** 
   9:OledDisplayExtravaganza.h **** class OledDisplayExtravaganza
  30              		.loc 1 9 7 view -0
  31              		.cfi_startproc
  32              		@ args = 0, pretend = 0, frame = 0
  33              		@ frame_needed = 0, uses_anonymous_args = 0
  34              		@ link register save eliminated.
  35              	.LBB145:
  36              	.LBI145:
  37              		.file 2 "../../libdaisy/src/hid/disp/oled_display.h"
   1:../../libdaisy/src/hid/disp/oled_display.h **** #pragma once
   2:../../libdaisy/src/hid/disp/oled_display.h **** #ifndef DSY_OLED_DISPLAY_H
   3:../../libdaisy/src/hid/disp/oled_display.h **** #define DSY_OLED_DISPLAY_H /**< Macro */
   4:../../libdaisy/src/hid/disp/oled_display.h **** 
   5:../../libdaisy/src/hid/disp/oled_display.h **** #include "display.h"
   6:../../libdaisy/src/hid/disp/oled_display.h **** 
   7:../../libdaisy/src/hid/disp/oled_display.h **** namespace daisy
   8:../../libdaisy/src/hid/disp/oled_display.h **** {
   9:../../libdaisy/src/hid/disp/oled_display.h **** /** 
  10:../../libdaisy/src/hid/disp/oled_display.h ****  * This class is for drawing to a monochrome OLED display. 
  11:../../libdaisy/src/hid/disp/oled_display.h **** */
  12:../../libdaisy/src/hid/disp/oled_display.h **** template <typename DisplayDriver>
ARM GAS  C:\Users\VINCIU~1\AppData\Local\Temp\cc6DIkXk.s 			page 2


  13:../../libdaisy/src/hid/disp/oled_display.h **** class OledDisplay : public OneBitGraphicsDisplayImpl<OledDisplay<DisplayDriver>>
  14:../../libdaisy/src/hid/disp/oled_display.h **** {
  15:../../libdaisy/src/hid/disp/oled_display.h ****   public:
  16:../../libdaisy/src/hid/disp/oled_display.h ****     OledDisplay() {}
  17:../../libdaisy/src/hid/disp/oled_display.h ****     virtual ~OledDisplay() {}
  38              		.loc 2 17 13 view .LVU1
  39              	.LBB146:
  40              	.LBI146:
  41              		.file 3 "../../libdaisy/src/hid/disp/display.h"
   1:../../libdaisy/src/hid/disp/display.h **** #pragma once
   2:../../libdaisy/src/hid/disp/display.h **** #ifndef DSY_DISPLAY_H
   3:../../libdaisy/src/hid/disp/display.h **** #define DSY_DISPLAY_H /**< Macro */
   4:../../libdaisy/src/hid/disp/display.h **** #include <cmath>
   5:../../libdaisy/src/hid/disp/display.h **** #include "util/oled_fonts.h"
   6:../../libdaisy/src/hid/disp/display.h **** #include "daisy_core.h"
   7:../../libdaisy/src/hid/disp/display.h **** 
   8:../../libdaisy/src/hid/disp/display.h **** #ifndef deg2rad
   9:../../libdaisy/src/hid/disp/display.h **** #define deg2rad(deg) ((deg)*3.141592 / 180.0)
  10:../../libdaisy/src/hid/disp/display.h **** #endif
  11:../../libdaisy/src/hid/disp/display.h **** 
  12:../../libdaisy/src/hid/disp/display.h **** namespace daisy
  13:../../libdaisy/src/hid/disp/display.h **** {
  14:../../libdaisy/src/hid/disp/display.h **** /** 
  15:../../libdaisy/src/hid/disp/display.h ****  * This interface is used as a base class for all types of 1bit-per-pixel
  16:../../libdaisy/src/hid/disp/display.h ****  * graphics displays.
  17:../../libdaisy/src/hid/disp/display.h **** */
  18:../../libdaisy/src/hid/disp/display.h **** class OneBitGraphicsDisplay
  19:../../libdaisy/src/hid/disp/display.h **** {
  20:../../libdaisy/src/hid/disp/display.h ****   public:
  21:../../libdaisy/src/hid/disp/display.h ****     OneBitGraphicsDisplay() {}
  22:../../libdaisy/src/hid/disp/display.h ****     virtual ~OneBitGraphicsDisplay() {}
  23:../../libdaisy/src/hid/disp/display.h **** 
  24:../../libdaisy/src/hid/disp/display.h ****     virtual uint16_t Height() const = 0;
  25:../../libdaisy/src/hid/disp/display.h ****     virtual uint16_t Width() const  = 0;
  26:../../libdaisy/src/hid/disp/display.h **** 
  27:../../libdaisy/src/hid/disp/display.h ****     size_t CurrentX() { return currentX_; };
  28:../../libdaisy/src/hid/disp/display.h ****     size_t CurrentY() { return currentY_; };
  29:../../libdaisy/src/hid/disp/display.h **** 
  30:../../libdaisy/src/hid/disp/display.h ****     /** 
  31:../../libdaisy/src/hid/disp/display.h ****     Fills the entire display with either on/off.
  32:../../libdaisy/src/hid/disp/display.h ****     \param on Sets on or off.
  33:../../libdaisy/src/hid/disp/display.h ****     */
  34:../../libdaisy/src/hid/disp/display.h ****     virtual void Fill(bool on) = 0;
  35:../../libdaisy/src/hid/disp/display.h **** 
  36:../../libdaisy/src/hid/disp/display.h ****     /**
  37:../../libdaisy/src/hid/disp/display.h ****     Sets the pixel at the specified coordinate to be on/off.
  38:../../libdaisy/src/hid/disp/display.h ****     \param x   x Coordinate
  39:../../libdaisy/src/hid/disp/display.h ****     \param y   y coordinate
  40:../../libdaisy/src/hid/disp/display.h ****     \param on  on or off
  41:../../libdaisy/src/hid/disp/display.h ****     */
  42:../../libdaisy/src/hid/disp/display.h ****     virtual void DrawPixel(uint_fast8_t x, uint_fast8_t y, bool on) = 0;
  43:../../libdaisy/src/hid/disp/display.h **** 
  44:../../libdaisy/src/hid/disp/display.h ****     /**
  45:../../libdaisy/src/hid/disp/display.h ****     Draws a line from (x1, y1) to (y1, y2)
  46:../../libdaisy/src/hid/disp/display.h ****     \param x1  x Coordinate of the starting point
  47:../../libdaisy/src/hid/disp/display.h ****     \param y1  y Coordinate of the starting point
  48:../../libdaisy/src/hid/disp/display.h ****     \param x2  x Coordinate of the ending point
ARM GAS  C:\Users\VINCIU~1\AppData\Local\Temp\cc6DIkXk.s 			page 3


  49:../../libdaisy/src/hid/disp/display.h ****     \param y2  y Coordinate of the ending point
  50:../../libdaisy/src/hid/disp/display.h ****     \param on  on or off
  51:../../libdaisy/src/hid/disp/display.h ****     */
  52:../../libdaisy/src/hid/disp/display.h ****     virtual void DrawLine(uint_fast8_t x1,
  53:../../libdaisy/src/hid/disp/display.h ****                           uint_fast8_t y1,
  54:../../libdaisy/src/hid/disp/display.h ****                           uint_fast8_t x2,
  55:../../libdaisy/src/hid/disp/display.h ****                           uint_fast8_t y2,
  56:../../libdaisy/src/hid/disp/display.h ****                           bool         on)
  57:../../libdaisy/src/hid/disp/display.h ****         = 0;
  58:../../libdaisy/src/hid/disp/display.h **** 
  59:../../libdaisy/src/hid/disp/display.h ****     /**
  60:../../libdaisy/src/hid/disp/display.h ****     Draws a rectangle based on two coordinates.
  61:../../libdaisy/src/hid/disp/display.h ****     \param x1 x Coordinate of the first point
  62:../../libdaisy/src/hid/disp/display.h ****     \param y1 y Coordinate of the first point
  63:../../libdaisy/src/hid/disp/display.h ****     \param x2 x Coordinate of the second point
  64:../../libdaisy/src/hid/disp/display.h ****     \param y2 y Coordinate of the second point
  65:../../libdaisy/src/hid/disp/display.h ****     \param on on or off
  66:../../libdaisy/src/hid/disp/display.h ****     */
  67:../../libdaisy/src/hid/disp/display.h ****     virtual void DrawRect(uint_fast8_t x1,
  68:../../libdaisy/src/hid/disp/display.h ****                           uint_fast8_t y1,
  69:../../libdaisy/src/hid/disp/display.h ****                           uint_fast8_t x2,
  70:../../libdaisy/src/hid/disp/display.h ****                           uint_fast8_t y2,
  71:../../libdaisy/src/hid/disp/display.h ****                           bool         on,
  72:../../libdaisy/src/hid/disp/display.h ****                           bool         fill = false)
  73:../../libdaisy/src/hid/disp/display.h ****         = 0;
  74:../../libdaisy/src/hid/disp/display.h **** 
  75:../../libdaisy/src/hid/disp/display.h ****     /**
  76:../../libdaisy/src/hid/disp/display.h ****     Draws an arc around the specified coordinate
  77:../../libdaisy/src/hid/disp/display.h ****     \param x           x Coordinate of the center of the arc
  78:../../libdaisy/src/hid/disp/display.h ****     \param y           y Coordinate of the center of the arc
  79:../../libdaisy/src/hid/disp/display.h ****     \param radius      radius of the arc
  80:../../libdaisy/src/hid/disp/display.h ****     \param start_angle angle where to start the arc
  81:../../libdaisy/src/hid/disp/display.h ****     \param sweep       total angle of the arc
  82:../../libdaisy/src/hid/disp/display.h ****     \param on  on or off
  83:../../libdaisy/src/hid/disp/display.h ****     */
  84:../../libdaisy/src/hid/disp/display.h ****     virtual void DrawArc(uint_fast8_t x,
  85:../../libdaisy/src/hid/disp/display.h ****                          uint_fast8_t y,
  86:../../libdaisy/src/hid/disp/display.h ****                          uint_fast8_t radius,
  87:../../libdaisy/src/hid/disp/display.h ****                          int_fast16_t start_angle,
  88:../../libdaisy/src/hid/disp/display.h ****                          int_fast16_t sweep,
  89:../../libdaisy/src/hid/disp/display.h ****                          bool         on)
  90:../../libdaisy/src/hid/disp/display.h ****         = 0;
  91:../../libdaisy/src/hid/disp/display.h **** 
  92:../../libdaisy/src/hid/disp/display.h ****     /**
  93:../../libdaisy/src/hid/disp/display.h ****     Draws a circle around the specified coordinate
  94:../../libdaisy/src/hid/disp/display.h ****     \param x           x Coordinate of the center of the circle
  95:../../libdaisy/src/hid/disp/display.h ****     \param y           y Coordinate of the center of the circle
  96:../../libdaisy/src/hid/disp/display.h ****     \param radius      radius of the circle
  97:../../libdaisy/src/hid/disp/display.h ****     \param on  on or off
  98:../../libdaisy/src/hid/disp/display.h ****     */
  99:../../libdaisy/src/hid/disp/display.h ****     void
 100:../../libdaisy/src/hid/disp/display.h ****     DrawCircle(uint_fast8_t x, uint_fast8_t y, uint_fast8_t radius, bool on)
 101:../../libdaisy/src/hid/disp/display.h ****     {
 102:../../libdaisy/src/hid/disp/display.h ****         DrawArc(x, y, radius, 0, 360, on);
 103:../../libdaisy/src/hid/disp/display.h ****     };
 104:../../libdaisy/src/hid/disp/display.h **** 
 105:../../libdaisy/src/hid/disp/display.h ****     /** 
ARM GAS  C:\Users\VINCIU~1\AppData\Local\Temp\cc6DIkXk.s 			page 4


 106:../../libdaisy/src/hid/disp/display.h ****     Writes the character with the specific FontDef
 107:../../libdaisy/src/hid/disp/display.h ****     to the display buffer at the current Cursor position.
 108:../../libdaisy/src/hid/disp/display.h ****     \param ch character to be written
 109:../../libdaisy/src/hid/disp/display.h ****     \param font font to be written in
 110:../../libdaisy/src/hid/disp/display.h ****     \param on    on or off
 111:../../libdaisy/src/hid/disp/display.h ****     \return &
 112:../../libdaisy/src/hid/disp/display.h ****     */
 113:../../libdaisy/src/hid/disp/display.h ****     virtual char WriteChar(char ch, FontDef font, bool on) = 0;
 114:../../libdaisy/src/hid/disp/display.h **** 
 115:../../libdaisy/src/hid/disp/display.h ****     /** 
 116:../../libdaisy/src/hid/disp/display.h ****     Similar to WriteChar, except it will handle an entire String.
 117:../../libdaisy/src/hid/disp/display.h ****     Wrapping does not happen automatically, so the width
 118:../../libdaisy/src/hid/disp/display.h ****     of the string must be kept within the dimensions of the screen.
 119:../../libdaisy/src/hid/disp/display.h ****     \param str string to be written
 120:../../libdaisy/src/hid/disp/display.h ****     \param font font to use
 121:../../libdaisy/src/hid/disp/display.h ****     \param on  on or off
 122:../../libdaisy/src/hid/disp/display.h ****     \return &
 123:../../libdaisy/src/hid/disp/display.h ****     */
 124:../../libdaisy/src/hid/disp/display.h ****     virtual char WriteString(const char* str, FontDef font, bool on) = 0;
 125:../../libdaisy/src/hid/disp/display.h **** 
 126:../../libdaisy/src/hid/disp/display.h ****     /** 
 127:../../libdaisy/src/hid/disp/display.h ****     Moves the 'Cursor' position used for WriteChar, and WriteStr to the specified coordinate.
 128:../../libdaisy/src/hid/disp/display.h ****     \param x x pos
 129:../../libdaisy/src/hid/disp/display.h ****     \param y y pos
 130:../../libdaisy/src/hid/disp/display.h ****     */
 131:../../libdaisy/src/hid/disp/display.h ****     void SetCursor(uint16_t x, uint16_t y)
 132:../../libdaisy/src/hid/disp/display.h ****     {
 133:../../libdaisy/src/hid/disp/display.h ****         currentX_ = (x >= Width()) ? Width() - 1 : x;
 134:../../libdaisy/src/hid/disp/display.h ****         currentY_ = (y >= Height()) ? Height() - 1 : y;
 135:../../libdaisy/src/hid/disp/display.h ****     }
 136:../../libdaisy/src/hid/disp/display.h **** 
 137:../../libdaisy/src/hid/disp/display.h ****     /** 
 138:../../libdaisy/src/hid/disp/display.h ****     Writes the current display buffer to the OLED device using SPI or I2C depending on 
 139:../../libdaisy/src/hid/disp/display.h ****     how the object was initialized.
 140:../../libdaisy/src/hid/disp/display.h ****     */
 141:../../libdaisy/src/hid/disp/display.h ****     virtual void Update() = 0;
 142:../../libdaisy/src/hid/disp/display.h **** 
 143:../../libdaisy/src/hid/disp/display.h ****   protected:
 144:../../libdaisy/src/hid/disp/display.h ****     uint16_t currentX_;
 145:../../libdaisy/src/hid/disp/display.h ****     uint16_t currentY_;
 146:../../libdaisy/src/hid/disp/display.h **** };
 147:../../libdaisy/src/hid/disp/display.h **** 
 148:../../libdaisy/src/hid/disp/display.h **** /** This class is intended as a intermediary class for your actual implementation of the OneBitGrap
 149:../../libdaisy/src/hid/disp/display.h ****  *  interface. It uses the CRTP design pattern where the template argument is the child class. It p
 150:../../libdaisy/src/hid/disp/display.h ****  *  implementations for most of the functions, except DrawPixel(), Update() and Fill(), which you'l
 151:../../libdaisy/src/hid/disp/display.h ****  *  to provide in your child class.
 152:../../libdaisy/src/hid/disp/display.h ****  *  The main goal of this class is to provide common drawing functions without relying on massive a
 153:../../libdaisy/src/hid/disp/display.h ****  *  virtual function calls that would result in a performance loss. To achieve this, any drawing fu
 154:../../libdaisy/src/hid/disp/display.h ****  *  is implemented here and internally calls other drawing functions (e.g. DrawRect() which interna
 155:../../libdaisy/src/hid/disp/display.h ****  *  DrawPixel() and DrawLine()) makes these calls via the qualified name of these functions to expl
 156:../../libdaisy/src/hid/disp/display.h ****  *  suppress the virtual dispatch mechanism like this:
 157:../../libdaisy/src/hid/disp/display.h ****  * 
 158:../../libdaisy/src/hid/disp/display.h ****  *      ChildType::DrawPixel(...); // no virtual function call; direct call into the child class fu
 159:../../libdaisy/src/hid/disp/display.h ****  *  
 160:../../libdaisy/src/hid/disp/display.h ****  *  To create a custom OneBitGraphicsDisplay implementation, you can 
 161:../../libdaisy/src/hid/disp/display.h ****  *  A) inherit from OneBitGraphicsDisplay directly and provide all the drawing functions yourself
 162:../../libdaisy/src/hid/disp/display.h ****  *  B) Inherit from OneBitGraphicsDisplayImpl and only provide DrawPixel(), Fill() and Update()
ARM GAS  C:\Users\VINCIU~1\AppData\Local\Temp\cc6DIkXk.s 			page 5


 163:../../libdaisy/src/hid/disp/display.h ****  *     like this:
 164:../../libdaisy/src/hid/disp/display.h ****  *  
 165:../../libdaisy/src/hid/disp/display.h ****  *      class MyDisplayClass : public OneBitGraphicsDisplayImpl<MyDisplayClass> 
 166:../../libdaisy/src/hid/disp/display.h ****  *      {
 167:../../libdaisy/src/hid/disp/display.h ****  *      public:
 168:../../libdaisy/src/hid/disp/display.h ****  *          void Fill() override { ... };
 169:../../libdaisy/src/hid/disp/display.h ****  *          void DrawPixel(uint_fast8_t x, uint_fast8_t y, bool on) override { ... };
 170:../../libdaisy/src/hid/disp/display.h ****  *          void Update() override { ... }
 171:../../libdaisy/src/hid/disp/display.h ****  *      };
 172:../../libdaisy/src/hid/disp/display.h ****  *  
 173:../../libdaisy/src/hid/disp/display.h ****  */
 174:../../libdaisy/src/hid/disp/display.h **** template <class ChildType>
 175:../../libdaisy/src/hid/disp/display.h **** class OneBitGraphicsDisplayImpl : public OneBitGraphicsDisplay
 176:../../libdaisy/src/hid/disp/display.h **** {
 177:../../libdaisy/src/hid/disp/display.h ****   public:
 178:../../libdaisy/src/hid/disp/display.h ****     OneBitGraphicsDisplayImpl() {}
 179:../../libdaisy/src/hid/disp/display.h ****     virtual ~OneBitGraphicsDisplayImpl() {}
  42              		.loc 3 179 13 view .LVU2
  43              	.LBB147:
  44              	.LBI147:
  22:../../libdaisy/src/hid/disp/display.h **** 
  45              		.loc 3 22 13 view .LVU3
  22:../../libdaisy/src/hid/disp/display.h **** 
  46              		.loc 3 22 13 is_stmt 0 view .LVU4
  47              	.LBE147:
  48              	.LBE146:
  49              	.LBE145:
  50              		.loc 1 9 7 view .LVU5
  51 0000 7047     		bx	lr
  52              		.cfi_endproc
  53              	.LFE1852:
  55              		.weak	_ZN23OledDisplayExtravaganzaD1Ev
  56              		.thumb_set _ZN23OledDisplayExtravaganzaD1Ev,_ZN23OledDisplayExtravaganzaD2Ev
  57 0002 00BF     		.section	.text._ZNK5daisy11OledDisplayINS_13SSD130xDriverILj128ELj64ENS_24SSD130x4WireSpiTransport
  58              		.align	1
  59              		.p2align 2,,3
  60              		.weak	_ZNK5daisy11OledDisplayINS_13SSD130xDriverILj128ELj64ENS_24SSD130x4WireSpiTransportEEEE6Heig
  61              		.syntax unified
  62              		.thumb
  63              		.thumb_func
  64              		.fpu fpv5-d16
  66              	_ZNK5daisy11OledDisplayINS_13SSD130xDriverILj128ELj64ENS_24SSD130x4WireSpiTransportEEEE6HeightEv:
  67              	.LVL1:
  68              	.LFB1855:
  18:../../libdaisy/src/hid/disp/oled_display.h **** 
  19:../../libdaisy/src/hid/disp/oled_display.h ****     struct Config
  20:../../libdaisy/src/hid/disp/oled_display.h ****     {
  21:../../libdaisy/src/hid/disp/oled_display.h ****         typename DisplayDriver::Config driver_config;
  22:../../libdaisy/src/hid/disp/oled_display.h ****     };
  23:../../libdaisy/src/hid/disp/oled_display.h **** 
  24:../../libdaisy/src/hid/disp/oled_display.h ****     void Init(Config config) { driver_.Init(config.driver_config); }
  25:../../libdaisy/src/hid/disp/oled_display.h **** 
  26:../../libdaisy/src/hid/disp/oled_display.h ****     uint16_t Height() const override { return driver_.Height(); }
  69              		.loc 2 26 14 is_stmt 1 view -0
  70              		.cfi_startproc
  71              		@ args = 0, pretend = 0, frame = 0
  72              		@ frame_needed = 0, uses_anonymous_args = 0
ARM GAS  C:\Users\VINCIU~1\AppData\Local\Temp\cc6DIkXk.s 			page 6


  73              		@ link register save eliminated.
  74              		.loc 2 26 65 is_stmt 0 view .LVU7
  75 0000 4020     		movs	r0, #64
  76              	.LVL2:
  77              		.loc 2 26 65 view .LVU8
  78 0002 7047     		bx	lr
  79              		.cfi_endproc
  80              	.LFE1855:
  82              		.section	.text._ZNK5daisy11OledDisplayINS_13SSD130xDriverILj128ELj64ENS_24SSD130x4WireSpiTransport
  83              		.align	1
  84              		.p2align 2,,3
  85              		.weak	_ZNK5daisy11OledDisplayINS_13SSD130xDriverILj128ELj64ENS_24SSD130x4WireSpiTransportEEEE5Widt
  86              		.syntax unified
  87              		.thumb
  88              		.thumb_func
  89              		.fpu fpv5-d16
  91              	_ZNK5daisy11OledDisplayINS_13SSD130xDriverILj128ELj64ENS_24SSD130x4WireSpiTransportEEEE5WidthEv:
  92              	.LVL3:
  93              	.LFB1856:
  27:../../libdaisy/src/hid/disp/oled_display.h ****     uint16_t Width() const override { return driver_.Width(); }
  94              		.loc 2 27 14 is_stmt 1 view -0
  95              		.cfi_startproc
  96              		@ args = 0, pretend = 0, frame = 0
  97              		@ frame_needed = 0, uses_anonymous_args = 0
  98              		@ link register save eliminated.
  99              		.loc 2 27 63 is_stmt 0 view .LVU10
 100 0000 8020     		movs	r0, #128
 101              	.LVL4:
 102              		.loc 2 27 63 view .LVU11
 103 0002 7047     		bx	lr
 104              		.cfi_endproc
 105              	.LFE1856:
 107              		.section	.text._ZN5daisy11OledDisplayINS_13SSD130xDriverILj128ELj64ENS_24SSD130x4WireSpiTransportE
 108              		.align	1
 109              		.p2align 2,,3
 110              		.weak	_ZN5daisy11OledDisplayINS_13SSD130xDriverILj128ELj64ENS_24SSD130x4WireSpiTransportEEEE4FillE
 111              		.syntax unified
 112              		.thumb
 113              		.thumb_func
 114              		.fpu fpv5-d16
 116              	_ZN5daisy11OledDisplayINS_13SSD130xDriverILj128ELj64ENS_24SSD130x4WireSpiTransportEEEE4FillEb:
 117              	.LVL5:
 118              	.LFB1857:
  28:../../libdaisy/src/hid/disp/oled_display.h **** 
  29:../../libdaisy/src/hid/disp/oled_display.h ****     /** 
  30:../../libdaisy/src/hid/disp/oled_display.h ****     Fills the entire display with either on/off.
  31:../../libdaisy/src/hid/disp/oled_display.h ****     \param on Sets on or off.
  32:../../libdaisy/src/hid/disp/oled_display.h ****     */
  33:../../libdaisy/src/hid/disp/oled_display.h ****     void Fill(bool on) override { driver_.Fill(on); }
 119              		.loc 2 33 10 is_stmt 1 view -0
 120              		.cfi_startproc
 121              		@ args = 0, pretend = 0, frame = 0
 122              		@ frame_needed = 0, uses_anonymous_args = 0
 123              		@ link register save eliminated.
 124              	.LBB148:
 125              	.LBI148:
 126              		.file 4 "../../libdaisy/src/dev/oled_ssd130x.h"
ARM GAS  C:\Users\VINCIU~1\AppData\Local\Temp\cc6DIkXk.s 			page 7


   1:../../libdaisy/src/dev/oled_ssd130x.h **** #pragma once
   2:../../libdaisy/src/dev/oled_ssd130x.h **** #ifndef SA_OLED_SSD130X_H
   3:../../libdaisy/src/dev/oled_ssd130x.h **** #define SA_OLED_SSD130X_H /**< & */
   4:../../libdaisy/src/dev/oled_ssd130x.h **** 
   5:../../libdaisy/src/dev/oled_ssd130x.h **** #include "per/i2c.h"
   6:../../libdaisy/src/dev/oled_ssd130x.h **** #include "per/spi.h"
   7:../../libdaisy/src/dev/oled_ssd130x.h **** #include "per/gpio.h"
   8:../../libdaisy/src/dev/oled_ssd130x.h **** #include "sys/system.h"
   9:../../libdaisy/src/dev/oled_ssd130x.h **** 
  10:../../libdaisy/src/dev/oled_ssd130x.h **** namespace daisy
  11:../../libdaisy/src/dev/oled_ssd130x.h **** {
  12:../../libdaisy/src/dev/oled_ssd130x.h **** /**
  13:../../libdaisy/src/dev/oled_ssd130x.h ****  * I2C Transport for SSD1306 / SSD1309 OLED display devices
  14:../../libdaisy/src/dev/oled_ssd130x.h ****  */
  15:../../libdaisy/src/dev/oled_ssd130x.h **** class SSD130xI2CTransport
  16:../../libdaisy/src/dev/oled_ssd130x.h **** {
  17:../../libdaisy/src/dev/oled_ssd130x.h ****   public:
  18:../../libdaisy/src/dev/oled_ssd130x.h ****     struct Config
  19:../../libdaisy/src/dev/oled_ssd130x.h ****     {
  20:../../libdaisy/src/dev/oled_ssd130x.h ****         I2CHandle::Config i2c_config;
  21:../../libdaisy/src/dev/oled_ssd130x.h ****         uint8_t           i2c_address;
  22:../../libdaisy/src/dev/oled_ssd130x.h ****         void              Defaults()
  23:../../libdaisy/src/dev/oled_ssd130x.h ****         {
  24:../../libdaisy/src/dev/oled_ssd130x.h ****             i2c_config.periph         = I2CHandle::Config::Peripheral::I2C_1;
  25:../../libdaisy/src/dev/oled_ssd130x.h ****             i2c_config.speed          = I2CHandle::Config::Speed::I2C_1MHZ;
  26:../../libdaisy/src/dev/oled_ssd130x.h ****             i2c_config.mode           = I2CHandle::Config::Mode::I2C_MASTER;
  27:../../libdaisy/src/dev/oled_ssd130x.h ****             i2c_config.pin_config.scl = {DSY_GPIOB, 8};
  28:../../libdaisy/src/dev/oled_ssd130x.h ****             i2c_config.pin_config.sda = {DSY_GPIOB, 9};
  29:../../libdaisy/src/dev/oled_ssd130x.h ****             i2c_address               = 0x3C;
  30:../../libdaisy/src/dev/oled_ssd130x.h ****         }
  31:../../libdaisy/src/dev/oled_ssd130x.h ****     };
  32:../../libdaisy/src/dev/oled_ssd130x.h ****     void Init(const Config& config)
  33:../../libdaisy/src/dev/oled_ssd130x.h ****     {
  34:../../libdaisy/src/dev/oled_ssd130x.h ****         i2c_address_ = config.i2c_address;
  35:../../libdaisy/src/dev/oled_ssd130x.h ****         i2c_.Init(config.i2c_config);
  36:../../libdaisy/src/dev/oled_ssd130x.h ****     };
  37:../../libdaisy/src/dev/oled_ssd130x.h ****     void SendCommand(uint8_t cmd)
  38:../../libdaisy/src/dev/oled_ssd130x.h ****     {
  39:../../libdaisy/src/dev/oled_ssd130x.h ****         uint8_t buf[2] = {0X00, cmd};
  40:../../libdaisy/src/dev/oled_ssd130x.h ****         i2c_.TransmitBlocking(i2c_address_, buf, 2, 1000);
  41:../../libdaisy/src/dev/oled_ssd130x.h ****     };
  42:../../libdaisy/src/dev/oled_ssd130x.h **** 
  43:../../libdaisy/src/dev/oled_ssd130x.h ****     void SendData(uint8_t* buff, size_t size)
  44:../../libdaisy/src/dev/oled_ssd130x.h ****     {
  45:../../libdaisy/src/dev/oled_ssd130x.h ****         for(size_t i = 0; i < size; i++)
  46:../../libdaisy/src/dev/oled_ssd130x.h ****         {
  47:../../libdaisy/src/dev/oled_ssd130x.h ****             uint8_t buf[2] = {0X40, buff[i]};
  48:../../libdaisy/src/dev/oled_ssd130x.h ****             i2c_.TransmitBlocking(i2c_address_, buf, 2, 1000);
  49:../../libdaisy/src/dev/oled_ssd130x.h ****         }
  50:../../libdaisy/src/dev/oled_ssd130x.h ****     };
  51:../../libdaisy/src/dev/oled_ssd130x.h **** 
  52:../../libdaisy/src/dev/oled_ssd130x.h ****   private:
  53:../../libdaisy/src/dev/oled_ssd130x.h ****     daisy::I2CHandle i2c_;
  54:../../libdaisy/src/dev/oled_ssd130x.h ****     uint8_t          i2c_address_;
  55:../../libdaisy/src/dev/oled_ssd130x.h **** };
  56:../../libdaisy/src/dev/oled_ssd130x.h **** 
  57:../../libdaisy/src/dev/oled_ssd130x.h **** /**
ARM GAS  C:\Users\VINCIU~1\AppData\Local\Temp\cc6DIkXk.s 			page 8


  58:../../libdaisy/src/dev/oled_ssd130x.h ****  * 4 Wire SPI Transport for SSD1306 / SSD1309 OLED display devices
  59:../../libdaisy/src/dev/oled_ssd130x.h ****  */
  60:../../libdaisy/src/dev/oled_ssd130x.h **** class SSD130x4WireSpiTransport
  61:../../libdaisy/src/dev/oled_ssd130x.h **** {
  62:../../libdaisy/src/dev/oled_ssd130x.h ****   public:
  63:../../libdaisy/src/dev/oled_ssd130x.h ****     struct Config
  64:../../libdaisy/src/dev/oled_ssd130x.h ****     {
  65:../../libdaisy/src/dev/oled_ssd130x.h ****         struct
  66:../../libdaisy/src/dev/oled_ssd130x.h ****         {
  67:../../libdaisy/src/dev/oled_ssd130x.h ****             dsy_gpio_pin dc;    /**< & */
  68:../../libdaisy/src/dev/oled_ssd130x.h ****             dsy_gpio_pin reset; /**< & */
  69:../../libdaisy/src/dev/oled_ssd130x.h ****         } pin_config;
  70:../../libdaisy/src/dev/oled_ssd130x.h ****         void Defaults()
  71:../../libdaisy/src/dev/oled_ssd130x.h ****         {
  72:../../libdaisy/src/dev/oled_ssd130x.h ****             pin_config.dc    = {DSY_GPIOB, 4};
  73:../../libdaisy/src/dev/oled_ssd130x.h ****             pin_config.reset = {DSY_GPIOB, 15};
  74:../../libdaisy/src/dev/oled_ssd130x.h ****         }
  75:../../libdaisy/src/dev/oled_ssd130x.h ****     };
  76:../../libdaisy/src/dev/oled_ssd130x.h ****     void Init(const Config& config)
  77:../../libdaisy/src/dev/oled_ssd130x.h ****     {
  78:../../libdaisy/src/dev/oled_ssd130x.h ****         // Initialize both GPIO
  79:../../libdaisy/src/dev/oled_ssd130x.h ****         pin_dc_.mode = DSY_GPIO_MODE_OUTPUT_PP;
  80:../../libdaisy/src/dev/oled_ssd130x.h ****         pin_dc_.pin  = config.pin_config.dc;
  81:../../libdaisy/src/dev/oled_ssd130x.h ****         dsy_gpio_init(&pin_dc_);
  82:../../libdaisy/src/dev/oled_ssd130x.h ****         pin_reset_.mode = DSY_GPIO_MODE_OUTPUT_PP;
  83:../../libdaisy/src/dev/oled_ssd130x.h ****         pin_reset_.pin  = config.pin_config.reset;
  84:../../libdaisy/src/dev/oled_ssd130x.h ****         dsy_gpio_init(&pin_reset_);
  85:../../libdaisy/src/dev/oled_ssd130x.h ****         // Initialize SPI
  86:../../libdaisy/src/dev/oled_ssd130x.h ****         SpiHandle::Config spi_config;
  87:../../libdaisy/src/dev/oled_ssd130x.h ****         spi_config.periph    = SpiHandle::Config::Peripheral::SPI_1;
  88:../../libdaisy/src/dev/oled_ssd130x.h ****         spi_config.mode      = SpiHandle::Config::Mode::MASTER;
  89:../../libdaisy/src/dev/oled_ssd130x.h ****         spi_config.direction = SpiHandle::Config::Direction::TWO_LINES_TX_ONLY;
  90:../../libdaisy/src/dev/oled_ssd130x.h ****         spi_config.datasize  = 8;
  91:../../libdaisy/src/dev/oled_ssd130x.h ****         spi_config.clock_polarity = SpiHandle::Config::ClockPolarity::LOW;
  92:../../libdaisy/src/dev/oled_ssd130x.h ****         spi_config.clock_phase    = SpiHandle::Config::ClockPhase::ONE_EDGE;
  93:../../libdaisy/src/dev/oled_ssd130x.h ****         spi_config.nss            = SpiHandle::Config::NSS::HARD_OUTPUT;
  94:../../libdaisy/src/dev/oled_ssd130x.h ****         spi_config.baud_prescaler = SpiHandle::Config::BaudPrescaler::PS_8;
  95:../../libdaisy/src/dev/oled_ssd130x.h **** 
  96:../../libdaisy/src/dev/oled_ssd130x.h ****         spi_config.pin_config.sclk = {DSY_GPIOG, 11};
  97:../../libdaisy/src/dev/oled_ssd130x.h ****         spi_config.pin_config.miso = {DSY_GPIOX, 0};
  98:../../libdaisy/src/dev/oled_ssd130x.h ****         spi_config.pin_config.mosi = {DSY_GPIOB, 5};
  99:../../libdaisy/src/dev/oled_ssd130x.h ****         spi_config.pin_config.nss  = {DSY_GPIOG, 10};
 100:../../libdaisy/src/dev/oled_ssd130x.h **** 
 101:../../libdaisy/src/dev/oled_ssd130x.h ****         spi_.Init(spi_config);
 102:../../libdaisy/src/dev/oled_ssd130x.h **** 
 103:../../libdaisy/src/dev/oled_ssd130x.h ****         // Reset and Configure OLED.
 104:../../libdaisy/src/dev/oled_ssd130x.h ****         dsy_gpio_write(&pin_reset_, 0);
 105:../../libdaisy/src/dev/oled_ssd130x.h ****         System::Delay(10);
 106:../../libdaisy/src/dev/oled_ssd130x.h ****         dsy_gpio_write(&pin_reset_, 1);
 107:../../libdaisy/src/dev/oled_ssd130x.h ****         System::Delay(10);
 108:../../libdaisy/src/dev/oled_ssd130x.h ****     };
 109:../../libdaisy/src/dev/oled_ssd130x.h ****     void SendCommand(uint8_t cmd)
 110:../../libdaisy/src/dev/oled_ssd130x.h ****     {
 111:../../libdaisy/src/dev/oled_ssd130x.h ****         dsy_gpio_write(&pin_dc_, 0);
 112:../../libdaisy/src/dev/oled_ssd130x.h ****         spi_.BlockingTransmit(&cmd, 1);
 113:../../libdaisy/src/dev/oled_ssd130x.h ****     };
 114:../../libdaisy/src/dev/oled_ssd130x.h **** 
ARM GAS  C:\Users\VINCIU~1\AppData\Local\Temp\cc6DIkXk.s 			page 9


 115:../../libdaisy/src/dev/oled_ssd130x.h ****     void SendData(uint8_t* buff, size_t size)
 116:../../libdaisy/src/dev/oled_ssd130x.h ****     {
 117:../../libdaisy/src/dev/oled_ssd130x.h ****         dsy_gpio_write(&pin_dc_, 1);
 118:../../libdaisy/src/dev/oled_ssd130x.h ****         spi_.BlockingTransmit(buff, size);
 119:../../libdaisy/src/dev/oled_ssd130x.h ****     };
 120:../../libdaisy/src/dev/oled_ssd130x.h **** 
 121:../../libdaisy/src/dev/oled_ssd130x.h ****   private:
 122:../../libdaisy/src/dev/oled_ssd130x.h ****     SpiHandle spi_;
 123:../../libdaisy/src/dev/oled_ssd130x.h ****     dsy_gpio  pin_reset_;
 124:../../libdaisy/src/dev/oled_ssd130x.h ****     dsy_gpio  pin_dc_;
 125:../../libdaisy/src/dev/oled_ssd130x.h **** };
 126:../../libdaisy/src/dev/oled_ssd130x.h **** 
 127:../../libdaisy/src/dev/oled_ssd130x.h **** 
 128:../../libdaisy/src/dev/oled_ssd130x.h **** /**
 129:../../libdaisy/src/dev/oled_ssd130x.h ****  * A driver implementation for the SSD1306/SSD1309
 130:../../libdaisy/src/dev/oled_ssd130x.h ****  */
 131:../../libdaisy/src/dev/oled_ssd130x.h **** template <size_t width, size_t height, typename Transport>
 132:../../libdaisy/src/dev/oled_ssd130x.h **** class SSD130xDriver
 133:../../libdaisy/src/dev/oled_ssd130x.h **** {
 134:../../libdaisy/src/dev/oled_ssd130x.h ****   public:
 135:../../libdaisy/src/dev/oled_ssd130x.h ****     struct Config
 136:../../libdaisy/src/dev/oled_ssd130x.h ****     {
 137:../../libdaisy/src/dev/oled_ssd130x.h ****         typename Transport::Config transport_config;
 138:../../libdaisy/src/dev/oled_ssd130x.h ****     };
 139:../../libdaisy/src/dev/oled_ssd130x.h **** 
 140:../../libdaisy/src/dev/oled_ssd130x.h ****     void Init(Config config)
 141:../../libdaisy/src/dev/oled_ssd130x.h ****     {
 142:../../libdaisy/src/dev/oled_ssd130x.h ****         transport_.Init(config.transport_config);
 143:../../libdaisy/src/dev/oled_ssd130x.h **** 
 144:../../libdaisy/src/dev/oled_ssd130x.h ****         // Init routine...
 145:../../libdaisy/src/dev/oled_ssd130x.h **** 
 146:../../libdaisy/src/dev/oled_ssd130x.h ****         // Display Off
 147:../../libdaisy/src/dev/oled_ssd130x.h ****         transport_.SendCommand(0xaE);
 148:../../libdaisy/src/dev/oled_ssd130x.h ****         // Dimension dependent commands...
 149:../../libdaisy/src/dev/oled_ssd130x.h ****         switch(height)
 150:../../libdaisy/src/dev/oled_ssd130x.h ****         {
 151:../../libdaisy/src/dev/oled_ssd130x.h ****             case 16:
 152:../../libdaisy/src/dev/oled_ssd130x.h ****                 // Display Clock Divide Ratio
 153:../../libdaisy/src/dev/oled_ssd130x.h ****                 transport_.SendCommand(0xD5);
 154:../../libdaisy/src/dev/oled_ssd130x.h ****                 transport_.SendCommand(0x60);
 155:../../libdaisy/src/dev/oled_ssd130x.h ****                 // Multiplex Ratio
 156:../../libdaisy/src/dev/oled_ssd130x.h ****                 transport_.SendCommand(0xA8);
 157:../../libdaisy/src/dev/oled_ssd130x.h ****                 transport_.SendCommand(0x0F);
 158:../../libdaisy/src/dev/oled_ssd130x.h ****                 // COM Pins
 159:../../libdaisy/src/dev/oled_ssd130x.h ****                 transport_.SendCommand(0xDA);
 160:../../libdaisy/src/dev/oled_ssd130x.h ****                 transport_.SendCommand(0x02);
 161:../../libdaisy/src/dev/oled_ssd130x.h ****                 break;
 162:../../libdaisy/src/dev/oled_ssd130x.h ****             case 32:
 163:../../libdaisy/src/dev/oled_ssd130x.h ****                 // Display Clock Divide Ratio
 164:../../libdaisy/src/dev/oled_ssd130x.h ****                 transport_.SendCommand(0xD5);
 165:../../libdaisy/src/dev/oled_ssd130x.h ****                 transport_.SendCommand(0x80);
 166:../../libdaisy/src/dev/oled_ssd130x.h ****                 // Multiplex Ratio
 167:../../libdaisy/src/dev/oled_ssd130x.h ****                 transport_.SendCommand(0xA8);
 168:../../libdaisy/src/dev/oled_ssd130x.h ****                 transport_.SendCommand(0x1F);
 169:../../libdaisy/src/dev/oled_ssd130x.h ****                 // COM Pins
 170:../../libdaisy/src/dev/oled_ssd130x.h ****                 transport_.SendCommand(0xDA);
 171:../../libdaisy/src/dev/oled_ssd130x.h ****                 if(width == 64)
ARM GAS  C:\Users\VINCIU~1\AppData\Local\Temp\cc6DIkXk.s 			page 10


 172:../../libdaisy/src/dev/oled_ssd130x.h ****                 {
 173:../../libdaisy/src/dev/oled_ssd130x.h ****                     transport_.SendCommand(0x12);
 174:../../libdaisy/src/dev/oled_ssd130x.h ****                 }
 175:../../libdaisy/src/dev/oled_ssd130x.h ****                 else
 176:../../libdaisy/src/dev/oled_ssd130x.h ****                 {
 177:../../libdaisy/src/dev/oled_ssd130x.h ****                     transport_.SendCommand(0x02);
 178:../../libdaisy/src/dev/oled_ssd130x.h ****                 }
 179:../../libdaisy/src/dev/oled_ssd130x.h **** 
 180:../../libdaisy/src/dev/oled_ssd130x.h ****                 break;
 181:../../libdaisy/src/dev/oled_ssd130x.h ****             case 48:
 182:../../libdaisy/src/dev/oled_ssd130x.h ****                 // Display Clock Divide Ratio
 183:../../libdaisy/src/dev/oled_ssd130x.h ****                 transport_.SendCommand(0xD5);
 184:../../libdaisy/src/dev/oled_ssd130x.h ****                 transport_.SendCommand(0x80);
 185:../../libdaisy/src/dev/oled_ssd130x.h ****                 // Multiplex Ratio
 186:../../libdaisy/src/dev/oled_ssd130x.h ****                 transport_.SendCommand(0xA8);
 187:../../libdaisy/src/dev/oled_ssd130x.h ****                 transport_.SendCommand(0x2F);
 188:../../libdaisy/src/dev/oled_ssd130x.h ****                 // COM Pins
 189:../../libdaisy/src/dev/oled_ssd130x.h ****                 transport_.SendCommand(0xDA);
 190:../../libdaisy/src/dev/oled_ssd130x.h ****                 transport_.SendCommand(0x12);
 191:../../libdaisy/src/dev/oled_ssd130x.h ****                 break;
 192:../../libdaisy/src/dev/oled_ssd130x.h ****             default: // 128
 193:../../libdaisy/src/dev/oled_ssd130x.h ****                 // Display Clock Divide Ratio
 194:../../libdaisy/src/dev/oled_ssd130x.h ****                 transport_.SendCommand(0xD5);
 195:../../libdaisy/src/dev/oled_ssd130x.h ****                 transport_.SendCommand(0x80);
 196:../../libdaisy/src/dev/oled_ssd130x.h ****                 // Multiplex Ratio
 197:../../libdaisy/src/dev/oled_ssd130x.h ****                 transport_.SendCommand(0xA8);
 198:../../libdaisy/src/dev/oled_ssd130x.h ****                 transport_.SendCommand(0x3F);
 199:../../libdaisy/src/dev/oled_ssd130x.h ****                 // COM Pins
 200:../../libdaisy/src/dev/oled_ssd130x.h ****                 transport_.SendCommand(0xDA);
 201:../../libdaisy/src/dev/oled_ssd130x.h ****                 transport_.SendCommand(0x12);
 202:../../libdaisy/src/dev/oled_ssd130x.h ****                 break;
 203:../../libdaisy/src/dev/oled_ssd130x.h ****         }
 204:../../libdaisy/src/dev/oled_ssd130x.h **** 
 205:../../libdaisy/src/dev/oled_ssd130x.h ****         // Display Offset
 206:../../libdaisy/src/dev/oled_ssd130x.h ****         transport_.SendCommand(0xD3);
 207:../../libdaisy/src/dev/oled_ssd130x.h ****         transport_.SendCommand(0x00);
 208:../../libdaisy/src/dev/oled_ssd130x.h ****         // Start Line Address
 209:../../libdaisy/src/dev/oled_ssd130x.h ****         transport_.SendCommand(0x40);
 210:../../libdaisy/src/dev/oled_ssd130x.h ****         // Normal Display
 211:../../libdaisy/src/dev/oled_ssd130x.h ****         transport_.SendCommand(0xA6);
 212:../../libdaisy/src/dev/oled_ssd130x.h ****         // All On Resume
 213:../../libdaisy/src/dev/oled_ssd130x.h ****         transport_.SendCommand(0xA4);
 214:../../libdaisy/src/dev/oled_ssd130x.h ****         // Charge Pump
 215:../../libdaisy/src/dev/oled_ssd130x.h ****         transport_.SendCommand(0x8D);
 216:../../libdaisy/src/dev/oled_ssd130x.h ****         transport_.SendCommand(0x14);
 217:../../libdaisy/src/dev/oled_ssd130x.h ****         // Set Segment Remap
 218:../../libdaisy/src/dev/oled_ssd130x.h ****         transport_.SendCommand(0xA1);
 219:../../libdaisy/src/dev/oled_ssd130x.h ****         // COM Output Scan Direction
 220:../../libdaisy/src/dev/oled_ssd130x.h ****         transport_.SendCommand(0xC8);
 221:../../libdaisy/src/dev/oled_ssd130x.h ****         // Contrast Control
 222:../../libdaisy/src/dev/oled_ssd130x.h ****         transport_.SendCommand(0x81);
 223:../../libdaisy/src/dev/oled_ssd130x.h ****         transport_.SendCommand(0x8F);
 224:../../libdaisy/src/dev/oled_ssd130x.h ****         // Pre Charge
 225:../../libdaisy/src/dev/oled_ssd130x.h ****         transport_.SendCommand(0xD9);
 226:../../libdaisy/src/dev/oled_ssd130x.h ****         transport_.SendCommand(0x25);
 227:../../libdaisy/src/dev/oled_ssd130x.h ****         // VCOM Detect
 228:../../libdaisy/src/dev/oled_ssd130x.h ****         transport_.SendCommand(0xDB);
ARM GAS  C:\Users\VINCIU~1\AppData\Local\Temp\cc6DIkXk.s 			page 11


 229:../../libdaisy/src/dev/oled_ssd130x.h ****         transport_.SendCommand(0x34);
 230:../../libdaisy/src/dev/oled_ssd130x.h **** 
 231:../../libdaisy/src/dev/oled_ssd130x.h **** 
 232:../../libdaisy/src/dev/oled_ssd130x.h ****         // Display On
 233:../../libdaisy/src/dev/oled_ssd130x.h ****         transport_.SendCommand(0xAF); //--turn on oled panel
 234:../../libdaisy/src/dev/oled_ssd130x.h ****     };
 235:../../libdaisy/src/dev/oled_ssd130x.h **** 
 236:../../libdaisy/src/dev/oled_ssd130x.h ****     size_t Width() const { return width; };
 237:../../libdaisy/src/dev/oled_ssd130x.h ****     size_t Height() const { return height; };
 238:../../libdaisy/src/dev/oled_ssd130x.h **** 
 239:../../libdaisy/src/dev/oled_ssd130x.h ****     void DrawPixel(uint_fast8_t x, uint_fast8_t y, bool on)
 240:../../libdaisy/src/dev/oled_ssd130x.h ****     {
 241:../../libdaisy/src/dev/oled_ssd130x.h ****         if(x >= width || y >= height)
 242:../../libdaisy/src/dev/oled_ssd130x.h ****             return;
 243:../../libdaisy/src/dev/oled_ssd130x.h ****         if(on)
 244:../../libdaisy/src/dev/oled_ssd130x.h ****             buffer_[x + (y / 8) * width] |= (1 << (y % 8));
 245:../../libdaisy/src/dev/oled_ssd130x.h ****         else
 246:../../libdaisy/src/dev/oled_ssd130x.h ****             buffer_[x + (y / 8) * width] &= ~(1 << (y % 8));
 247:../../libdaisy/src/dev/oled_ssd130x.h ****     }
 248:../../libdaisy/src/dev/oled_ssd130x.h **** 
 249:../../libdaisy/src/dev/oled_ssd130x.h ****     void Fill(bool on)
 127              		.loc 4 249 10 view .LVU13
 128              	.LBB149:
 250:../../libdaisy/src/dev/oled_ssd130x.h ****     {
 251:../../libdaisy/src/dev/oled_ssd130x.h ****         for(size_t i = 0; i < sizeof(buffer_); i++)
 129              		.loc 4 251 29 view .LVU14
 252:../../libdaisy/src/dev/oled_ssd130x.h ****         {
 253:../../libdaisy/src/dev/oled_ssd130x.h ****             buffer_[i] = on ? 0xff : 0x00;
 130              		.loc 4 253 24 is_stmt 0 view .LVU15
 131 0000 4942     		rsbs	r1, r1, #0
 132              	.LVL6:
 133              		.loc 4 253 24 view .LVU16
 134 0002 4FF48062 		mov	r2, #1024
 135 0006 1430     		adds	r0, r0, #20
 136              	.LVL7:
 137              		.loc 4 253 24 view .LVU17
 138 0008 C9B2     		uxtb	r1, r1
 139 000a FFF7FEBF 		b	memset
 140              	.LVL8:
 141              		.loc 4 253 24 view .LVU18
 142              	.LBE149:
 143              	.LBE148:
 144              		.cfi_endproc
 145              	.LFE1857:
 147 000e 00BF     		.section	.text._ZN23OledDisplayExtravaganzaD0Ev,"axG",%progbits,_ZN23OledDisplayExtravaganzaD5Ev,c
 148              		.align	1
 149              		.p2align 2,,3
 150              		.weak	_ZN23OledDisplayExtravaganzaD0Ev
 151              		.syntax unified
 152              		.thumb
 153              		.thumb_func
 154              		.fpu fpv5-d16
 156              	_ZN23OledDisplayExtravaganzaD0Ev:
 157              	.LVL9:
 158              	.LFB1854:
 159              		.loc 1 9 7 is_stmt 1 view -0
 160              		.cfi_startproc
ARM GAS  C:\Users\VINCIU~1\AppData\Local\Temp\cc6DIkXk.s 			page 12


 161              		@ args = 0, pretend = 0, frame = 0
 162              		@ frame_needed = 0, uses_anonymous_args = 0
 163              		.loc 1 9 7 is_stmt 0 view .LVU20
 164 0000 10B5     		push	{r4, lr}
 165              		.cfi_def_cfa_offset 8
 166              		.cfi_offset 4, -8
 167              		.cfi_offset 14, -4
 168              		.loc 1 9 7 view .LVU21
 169 0002 0446     		mov	r4, r0
 170              	.LVL10:
 171              	.LBB150:
 172              	.LBI150:
 173              		.loc 1 9 7 is_stmt 1 view .LVU22
 174              	.LBB151:
 175              	.LBI151:
  17:../../libdaisy/src/hid/disp/oled_display.h **** 
 176              		.loc 2 17 13 view .LVU23
 177              	.LBB152:
 178              	.LBI152:
 179              		.loc 3 179 13 view .LVU24
 180              	.LBB153:
 181              	.LBI153:
  22:../../libdaisy/src/hid/disp/display.h **** 
 182              		.loc 3 22 13 view .LVU25
  22:../../libdaisy/src/hid/disp/display.h **** 
 183              		.loc 3 22 13 is_stmt 0 view .LVU26
 184              	.LBE153:
 185              	.LBE152:
 186              	.LBE151:
 187              	.LBE150:
 188              		.loc 1 9 7 view .LVU27
 189 0004 40F21441 		movw	r1, #1044
 190 0008 FFF7FEFF 		bl	_ZdlPvj
 191              	.LVL11:
 192              		.loc 1 9 7 view .LVU28
 193 000c 2046     		mov	r0, r4
 194 000e 10BD     		pop	{r4, pc}
 195              		.loc 1 9 7 view .LVU29
 196              		.cfi_endproc
 197              	.LFE1854:
 199              		.section	.text._ZN5daisy11OledDisplayINS_13SSD130xDriverILj128ELj64ENS_24SSD130x4WireSpiTransportE
 200              		.align	1
 201              		.p2align 2,,3
 202              		.weak	_ZN5daisy11OledDisplayINS_13SSD130xDriverILj128ELj64ENS_24SSD130x4WireSpiTransportEEEE6Updat
 203              		.syntax unified
 204              		.thumb
 205              		.thumb_func
 206              		.fpu fpv5-d16
 208              	_ZN5daisy11OledDisplayINS_13SSD130xDriverILj128ELj64ENS_24SSD130x4WireSpiTransportEEEE6UpdateEv:
 209              	.LVL12:
 210              	.LFB1858:
  34:../../libdaisy/src/hid/disp/oled_display.h **** 
  35:../../libdaisy/src/hid/disp/oled_display.h ****     /**
  36:../../libdaisy/src/hid/disp/oled_display.h ****     Sets the pixel at the specified coordinate to be on/off.
  37:../../libdaisy/src/hid/disp/oled_display.h ****     \param x   x Coordinate
  38:../../libdaisy/src/hid/disp/oled_display.h ****     \param y   y coordinate
  39:../../libdaisy/src/hid/disp/oled_display.h ****     \param on  on or off
ARM GAS  C:\Users\VINCIU~1\AppData\Local\Temp\cc6DIkXk.s 			page 13


  40:../../libdaisy/src/hid/disp/oled_display.h ****     */
  41:../../libdaisy/src/hid/disp/oled_display.h ****     void DrawPixel(uint_fast8_t x, uint_fast8_t y, bool on) override
  42:../../libdaisy/src/hid/disp/oled_display.h ****     {
  43:../../libdaisy/src/hid/disp/oled_display.h ****         driver_.DrawPixel(x, y, on);
  44:../../libdaisy/src/hid/disp/oled_display.h ****     }
  45:../../libdaisy/src/hid/disp/oled_display.h **** 
  46:../../libdaisy/src/hid/disp/oled_display.h ****     /** 
  47:../../libdaisy/src/hid/disp/oled_display.h ****     Writes the current display buffer to the OLED device using SPI or I2C depending on 
  48:../../libdaisy/src/hid/disp/oled_display.h ****     how the object was initialized.
  49:../../libdaisy/src/hid/disp/oled_display.h ****     */
  50:../../libdaisy/src/hid/disp/oled_display.h ****     void Update() override { driver_.Update(); }
 211              		.loc 2 50 10 is_stmt 1 view -0
 212              		.cfi_startproc
 213              		@ args = 0, pretend = 0, frame = 8
 214              		@ frame_needed = 0, uses_anonymous_args = 0
 215              	.LBB164:
 216              	.LBI164:
 254:../../libdaisy/src/dev/oled_ssd130x.h ****         }
 255:../../libdaisy/src/dev/oled_ssd130x.h ****     };
 256:../../libdaisy/src/dev/oled_ssd130x.h **** 
 257:../../libdaisy/src/dev/oled_ssd130x.h ****     /**
 258:../../libdaisy/src/dev/oled_ssd130x.h ****      * Update the display 
 259:../../libdaisy/src/dev/oled_ssd130x.h ****     */
 260:../../libdaisy/src/dev/oled_ssd130x.h ****     void Update()
 217              		.loc 4 260 10 view .LVU31
 218              	.LBB165:
 261:../../libdaisy/src/dev/oled_ssd130x.h ****     {
 262:../../libdaisy/src/dev/oled_ssd130x.h ****         uint8_t i;
 263:../../libdaisy/src/dev/oled_ssd130x.h ****         uint8_t high_column_addr;
 264:../../libdaisy/src/dev/oled_ssd130x.h ****         switch(height)
 265:../../libdaisy/src/dev/oled_ssd130x.h ****         {
 266:../../libdaisy/src/dev/oled_ssd130x.h ****             case 32: high_column_addr = 0x12; break;
 267:../../libdaisy/src/dev/oled_ssd130x.h **** 
 268:../../libdaisy/src/dev/oled_ssd130x.h ****             default: high_column_addr = 0x10; break;
 269:../../libdaisy/src/dev/oled_ssd130x.h ****         }
 270:../../libdaisy/src/dev/oled_ssd130x.h ****         for(i = 0; i < (height / 8); i++)
 219              		.loc 4 270 22 view .LVU32
 220              	.LBE165:
 221              	.LBE164:
 222              		.loc 2 50 10 is_stmt 0 view .LVU33
 223 0000 2DE9F041 		push	{r4, r5, r6, r7, r8, lr}
 224              		.cfi_def_cfa_offset 24
 225              		.cfi_offset 4, -24
 226              		.cfi_offset 5, -20
 227              		.cfi_offset 6, -16
 228              		.cfi_offset 7, -12
 229              		.cfi_offset 8, -8
 230              		.cfi_offset 14, -4
 231              	.LBB187:
 232              	.LBB185:
 233              	.LBB166:
 234              	.LBB167:
 112:../../libdaisy/src/dev/oled_ssd130x.h ****     };
 235              		.loc 4 112 30 view .LVU34
 236 0004 B024     		movs	r4, #176
 237              	.LBE167:
 238              	.LBE166:
ARM GAS  C:\Users\VINCIU~1\AppData\Local\Temp\cc6DIkXk.s 			page 14


 239              	.LBE185:
 240              	.LBE187:
 241              		.loc 2 50 10 view .LVU35
 242 0006 82B0     		sub	sp, sp, #8
 243              		.cfi_def_cfa_offset 32
 244              	.LBB188:
 245              	.LBB186:
 246              	.LBB172:
 247              	.LBB168:
 111:../../libdaisy/src/dev/oled_ssd130x.h ****         spi_.BlockingTransmit(&cmd, 1);
 248              		.loc 4 111 24 view .LVU36
 249 0008 00F10806 		add	r6, r0, #8
 250 000c 00F11005 		add	r5, r0, #16
 251 0010 00F11408 		add	r8, r0, #20
 252              	.LVL13:
 253              	.L9:
 111:../../libdaisy/src/dev/oled_ssd130x.h ****         spi_.BlockingTransmit(&cmd, 1);
 254              		.loc 4 111 24 view .LVU37
 255 0014 0027     		movs	r7, #0
 111:../../libdaisy/src/dev/oled_ssd130x.h ****         spi_.BlockingTransmit(&cmd, 1);
 256              		.loc 4 111 23 view .LVU38
 257 0016 2846     		mov	r0, r5
 258 0018 8DF80740 		strb	r4, [sp, #7]
 259              	.LVL14:
 111:../../libdaisy/src/dev/oled_ssd130x.h ****         spi_.BlockingTransmit(&cmd, 1);
 260              		.loc 4 111 23 view .LVU39
 261              	.LBE168:
 262              	.LBI166:
 109:../../libdaisy/src/dev/oled_ssd130x.h ****     {
 263              		.loc 4 109 10 is_stmt 1 view .LVU40
 264              	.LBB169:
 111:../../libdaisy/src/dev/oled_ssd130x.h ****         spi_.BlockingTransmit(&cmd, 1);
 265              		.loc 4 111 9 view .LVU41
 266              	.LBE169:
 267              	.LBE172:
 268              		.loc 4 270 22 is_stmt 0 view .LVU42
 269 001c 0134     		adds	r4, r4, #1
 270              	.LVL15:
 271              	.LBB173:
 272              	.LBB170:
 111:../../libdaisy/src/dev/oled_ssd130x.h ****         spi_.BlockingTransmit(&cmd, 1);
 273              		.loc 4 111 23 view .LVU43
 274 001e 3946     		mov	r1, r7
 275 0020 FFF7FEFF 		bl	dsy_gpio_write
 276              	.LVL16:
 112:../../libdaisy/src/dev/oled_ssd130x.h ****     };
 277              		.loc 4 112 9 is_stmt 1 view .LVU44
 112:../../libdaisy/src/dev/oled_ssd130x.h ****     };
 278              		.loc 4 112 30 is_stmt 0 view .LVU45
 279 0024 6423     		movs	r3, #100
 280 0026 0122     		movs	r2, #1
 281 0028 0DF10701 		add	r1, sp, #7
 282 002c 3046     		mov	r0, r6
 283              	.LBE170:
 284              	.LBE173:
 285              		.loc 4 270 22 view .LVU46
 286 002e E4B2     		uxtb	r4, r4
ARM GAS  C:\Users\VINCIU~1\AppData\Local\Temp\cc6DIkXk.s 			page 15


 287              	.LBB174:
 288              	.LBB171:
 112:../../libdaisy/src/dev/oled_ssd130x.h ****     };
 289              		.loc 4 112 30 view .LVU47
 290 0030 FFF7FEFF 		bl	_ZN5daisy9SpiHandle16BlockingTransmitEPhjm
 291              	.LVL17:
 112:../../libdaisy/src/dev/oled_ssd130x.h ****     };
 292              		.loc 4 112 30 view .LVU48
 293              	.LBE171:
 294              	.LBE174:
 295              	.LBB175:
 296              	.LBB176:
 111:../../libdaisy/src/dev/oled_ssd130x.h ****         spi_.BlockingTransmit(&cmd, 1);
 297              		.loc 4 111 23 view .LVU49
 298 0034 3946     		mov	r1, r7
 299 0036 2846     		mov	r0, r5
 300 0038 8DF80770 		strb	r7, [sp, #7]
 301              	.LVL18:
 111:../../libdaisy/src/dev/oled_ssd130x.h ****         spi_.BlockingTransmit(&cmd, 1);
 302              		.loc 4 111 23 view .LVU50
 303              	.LBE176:
 304              	.LBI175:
 109:../../libdaisy/src/dev/oled_ssd130x.h ****     {
 305              		.loc 4 109 10 is_stmt 1 view .LVU51
 306              	.LBB177:
 111:../../libdaisy/src/dev/oled_ssd130x.h ****         spi_.BlockingTransmit(&cmd, 1);
 307              		.loc 4 111 9 view .LVU52
 111:../../libdaisy/src/dev/oled_ssd130x.h ****         spi_.BlockingTransmit(&cmd, 1);
 308              		.loc 4 111 23 is_stmt 0 view .LVU53
 309 003c FFF7FEFF 		bl	dsy_gpio_write
 310              	.LVL19:
 112:../../libdaisy/src/dev/oled_ssd130x.h ****     };
 311              		.loc 4 112 9 is_stmt 1 view .LVU54
 112:../../libdaisy/src/dev/oled_ssd130x.h ****     };
 312              		.loc 4 112 30 is_stmt 0 view .LVU55
 313 0040 0122     		movs	r2, #1
 314 0042 6423     		movs	r3, #100
 315 0044 0DF10701 		add	r1, sp, #7
 316 0048 3046     		mov	r0, r6
 317 004a FFF7FEFF 		bl	_ZN5daisy9SpiHandle16BlockingTransmitEPhjm
 318              	.LVL20:
 112:../../libdaisy/src/dev/oled_ssd130x.h ****     };
 319              		.loc 4 112 30 view .LVU56
 320 004e 1023     		movs	r3, #16
 321              	.LBE177:
 322              	.LBE175:
 323              	.LBB178:
 324              	.LBB179:
 111:../../libdaisy/src/dev/oled_ssd130x.h ****         spi_.BlockingTransmit(&cmd, 1);
 325              		.loc 4 111 23 view .LVU57
 326 0050 3946     		mov	r1, r7
 327 0052 2846     		mov	r0, r5
 328 0054 8DF80730 		strb	r3, [sp, #7]
 329              	.LVL21:
 111:../../libdaisy/src/dev/oled_ssd130x.h ****         spi_.BlockingTransmit(&cmd, 1);
 330              		.loc 4 111 23 view .LVU58
 331              	.LBE179:
ARM GAS  C:\Users\VINCIU~1\AppData\Local\Temp\cc6DIkXk.s 			page 16


 332              	.LBI178:
 109:../../libdaisy/src/dev/oled_ssd130x.h ****     {
 333              		.loc 4 109 10 is_stmt 1 view .LVU59
 334              	.LBB180:
 111:../../libdaisy/src/dev/oled_ssd130x.h ****         spi_.BlockingTransmit(&cmd, 1);
 335              		.loc 4 111 9 view .LVU60
 111:../../libdaisy/src/dev/oled_ssd130x.h ****         spi_.BlockingTransmit(&cmd, 1);
 336              		.loc 4 111 23 is_stmt 0 view .LVU61
 337 0058 FFF7FEFF 		bl	dsy_gpio_write
 338              	.LVL22:
 112:../../libdaisy/src/dev/oled_ssd130x.h ****     };
 339              		.loc 4 112 9 is_stmt 1 view .LVU62
 112:../../libdaisy/src/dev/oled_ssd130x.h ****     };
 340              		.loc 4 112 30 is_stmt 0 view .LVU63
 341 005c 6423     		movs	r3, #100
 342 005e 0122     		movs	r2, #1
 343 0060 0DF10701 		add	r1, sp, #7
 344 0064 3046     		mov	r0, r6
 345 0066 FFF7FEFF 		bl	_ZN5daisy9SpiHandle16BlockingTransmitEPhjm
 346              	.LVL23:
 112:../../libdaisy/src/dev/oled_ssd130x.h ****     };
 347              		.loc 4 112 30 view .LVU64
 348              	.LBE180:
 349              	.LBE178:
 350              	.LBB181:
 351              	.LBI181:
 115:../../libdaisy/src/dev/oled_ssd130x.h ****     {
 352              		.loc 4 115 10 is_stmt 1 view .LVU65
 353              	.LBB182:
 117:../../libdaisy/src/dev/oled_ssd130x.h ****         spi_.BlockingTransmit(buff, size);
 354              		.loc 4 117 9 view .LVU66
 117:../../libdaisy/src/dev/oled_ssd130x.h ****         spi_.BlockingTransmit(buff, size);
 355              		.loc 4 117 23 is_stmt 0 view .LVU67
 356 006a 0121     		movs	r1, #1
 357 006c 2846     		mov	r0, r5
 358 006e FFF7FEFF 		bl	dsy_gpio_write
 359              	.LVL24:
 118:../../libdaisy/src/dev/oled_ssd130x.h ****     };
 360              		.loc 4 118 9 is_stmt 1 view .LVU68
 118:../../libdaisy/src/dev/oled_ssd130x.h ****     };
 361              		.loc 4 118 30 is_stmt 0 view .LVU69
 362 0072 8022     		movs	r2, #128
 363 0074 4146     		mov	r1, r8
 364 0076 6423     		movs	r3, #100
 365 0078 3046     		mov	r0, r6
 366              	.LBE182:
 367              	.LBE181:
 368              		.loc 4 270 22 view .LVU70
 369 007a 9044     		add	r8, r8, r2
 370              	.LVL25:
 371              	.LBB184:
 372              	.LBB183:
 118:../../libdaisy/src/dev/oled_ssd130x.h ****     };
 373              		.loc 4 118 30 view .LVU71
 374 007c FFF7FEFF 		bl	_ZN5daisy9SpiHandle16BlockingTransmitEPhjm
 375              	.LVL26:
 118:../../libdaisy/src/dev/oled_ssd130x.h ****     };
ARM GAS  C:\Users\VINCIU~1\AppData\Local\Temp\cc6DIkXk.s 			page 17


 376              		.loc 4 118 30 view .LVU72
 377              	.LBE183:
 378              	.LBE184:
 379              		.loc 4 270 9 is_stmt 1 view .LVU73
 380              		.loc 4 270 22 view .LVU74
 381 0080 B82C     		cmp	r4, #184
 382 0082 C7D1     		bne	.L9
 383              	.LBE186:
 384              	.LBE188:
 385              		.loc 2 50 48 is_stmt 0 view .LVU75
 386 0084 02B0     		add	sp, sp, #8
 387              		.cfi_def_cfa_offset 24
 388              		@ sp needed
 389 0086 BDE8F081 		pop	{r4, r5, r6, r7, r8, pc}
 390              		.loc 2 50 48 view .LVU76
 391              		.cfi_endproc
 392              	.LFE1858:
 394 008a 00BF     		.section	.text._ZN5daisy11OledDisplayINS_13SSD130xDriverILj128ELj64ENS_24SSD130x4WireSpiTransportE
 395              		.align	1
 396              		.p2align 2,,3
 397              		.weak	_ZN5daisy11OledDisplayINS_13SSD130xDriverILj128ELj64ENS_24SSD130x4WireSpiTransportEEEE9DrawP
 398              		.syntax unified
 399              		.thumb
 400              		.thumb_func
 401              		.fpu fpv5-d16
 403              	_ZN5daisy11OledDisplayINS_13SSD130xDriverILj128ELj64ENS_24SSD130x4WireSpiTransportEEEE9DrawPixelEjj
 404              	.LVL27:
 405              	.LFB1848:
  41:../../libdaisy/src/hid/disp/oled_display.h ****     {
 406              		.loc 2 41 10 is_stmt 1 view -0
 407              		.cfi_startproc
 408              		@ args = 0, pretend = 0, frame = 0
 409              		@ frame_needed = 0, uses_anonymous_args = 0
 410              		@ link register save eliminated.
 411              	.LBB193:
 412              	.LBI193:
 239:../../libdaisy/src/dev/oled_ssd130x.h ****     {
 413              		.loc 4 239 10 view .LVU78
 414              	.LBB194:
 241:../../libdaisy/src/dev/oled_ssd130x.h ****             return;
 415              		.loc 4 241 9 is_stmt 0 view .LVU79
 416 0000 7F29     		cmp	r1, #127
 417 0002 1ED8     		bhi	.L12
 418 0004 3F2A     		cmp	r2, #63
 419 0006 1CD8     		bhi	.L12
 243:../../libdaisy/src/dev/oled_ssd130x.h ****             buffer_[x + (y / 8) * width] |= (1 << (y % 8));
 420              		.loc 4 243 9 view .LVU80
 421 0008 6BB1     		cbz	r3, .L14
 244:../../libdaisy/src/dev/oled_ssd130x.h ****         else
 422              		.loc 4 244 28 view .LVU81
 423 000a D308     		lsrs	r3, r2, #3
 424              	.LVL28:
 244:../../libdaisy/src/dev/oled_ssd130x.h ****         else
 425              		.loc 4 244 48 view .LVU82
 426 000c 4FF0010C 		mov	ip, #1
 244:../../libdaisy/src/dev/oled_ssd130x.h ****         else
 427              		.loc 4 244 54 view .LVU83
ARM GAS  C:\Users\VINCIU~1\AppData\Local\Temp\cc6DIkXk.s 			page 18


 428 0010 02F00702 		and	r2, r2, #7
 429              	.LVL29:
 244:../../libdaisy/src/dev/oled_ssd130x.h ****         else
 430              		.loc 4 244 42 view .LVU84
 431 0014 01EBC313 		add	r3, r1, r3, lsl #7
 244:../../libdaisy/src/dev/oled_ssd130x.h ****         else
 432              		.loc 4 244 48 view .LVU85
 433 0018 0CFA02F2 		lsl	r2, ip, r2
 244:../../libdaisy/src/dev/oled_ssd130x.h ****         else
 434              		.loc 4 244 42 view .LVU86
 435 001c C118     		adds	r1, r0, r3
 436              	.LVL30:
 244:../../libdaisy/src/dev/oled_ssd130x.h ****         else
 437              		.loc 4 244 42 view .LVU87
 438 001e 0B7D     		ldrb	r3, [r1, #20]	@ zero_extendqisi2
 439 0020 1A43     		orrs	r2, r2, r3
 440 0022 0A75     		strb	r2, [r1, #20]
 441 0024 7047     		bx	lr
 442              	.LVL31:
 443              	.L14:
 444              	.LBB195:
 445              	.LBI195:
 239:../../libdaisy/src/dev/oled_ssd130x.h ****     {
 446              		.loc 4 239 10 is_stmt 1 view .LVU88
 447              	.LBB196:
 246:../../libdaisy/src/dev/oled_ssd130x.h ****     }
 448              		.loc 4 246 28 is_stmt 0 view .LVU89
 449 0026 D308     		lsrs	r3, r2, #3
 450              	.LVL32:
 246:../../libdaisy/src/dev/oled_ssd130x.h ****     }
 451              		.loc 4 246 49 view .LVU90
 452 0028 4FF0010C 		mov	ip, #1
 246:../../libdaisy/src/dev/oled_ssd130x.h ****     }
 453              		.loc 4 246 55 view .LVU91
 454 002c 02F00702 		and	r2, r2, #7
 455              	.LVL33:
 246:../../libdaisy/src/dev/oled_ssd130x.h ****     }
 456              		.loc 4 246 42 view .LVU92
 457 0030 01EBC313 		add	r3, r1, r3, lsl #7
 246:../../libdaisy/src/dev/oled_ssd130x.h ****     }
 458              		.loc 4 246 49 view .LVU93
 459 0034 0CFA02FC 		lsl	ip, ip, r2
 246:../../libdaisy/src/dev/oled_ssd130x.h ****     }
 460              		.loc 4 246 42 view .LVU94
 461 0038 C118     		adds	r1, r0, r3
 462              	.LVL34:
 246:../../libdaisy/src/dev/oled_ssd130x.h ****     }
 463              		.loc 4 246 42 view .LVU95
 464 003a 0A7D     		ldrb	r2, [r1, #20]	@ zero_extendqisi2
 465 003c 22EA0C02 		bic	r2, r2, ip
 466 0040 0A75     		strb	r2, [r1, #20]
 467              	.LVL35:
 468              	.L12:
 246:../../libdaisy/src/dev/oled_ssd130x.h ****     }
 469              		.loc 4 246 42 view .LVU96
 470              	.LBE196:
 471              	.LBE195:
ARM GAS  C:\Users\VINCIU~1\AppData\Local\Temp\cc6DIkXk.s 			page 19


 472              	.LBE194:
 473              	.LBE193:
  44:../../libdaisy/src/hid/disp/oled_display.h **** 
 474              		.loc 2 44 5 view .LVU97
 475 0042 7047     		bx	lr
 476              		.cfi_endproc
 477              	.LFE1848:
 479              		.section	.text._ZN5daisy25OneBitGraphicsDisplayImplINS_11OledDisplayINS_13SSD130xDriverILj128ELj64
 480              		.align	1
 481              		.p2align 2,,3
 482              		.weak	_ZN5daisy25OneBitGraphicsDisplayImplINS_11OledDisplayINS_13SSD130xDriverILj128ELj64ENS_24SSD
 483              		.syntax unified
 484              		.thumb
 485              		.thumb_func
 486              		.fpu fpv5-d16
 488              	_ZN5daisy25OneBitGraphicsDisplayImplINS_11OledDisplayINS_13SSD130xDriverILj128ELj64ENS_24SSD130x4Wi
 489              	.LVL36:
 490              	.LFB1838:
 180:../../libdaisy/src/hid/disp/display.h **** 
 181:../../libdaisy/src/hid/disp/display.h ****     void DrawLine(uint_fast8_t x1,
 491              		.loc 3 181 10 is_stmt 1 view -0
 492              		.cfi_startproc
 493              		@ args = 8, pretend = 0, frame = 8
 494              		@ frame_needed = 0, uses_anonymous_args = 0
 495              		.loc 3 181 10 is_stmt 0 view .LVU99
 496 0000 2DE9F04F 		push	{r4, r5, r6, r7, r8, r9, r10, fp, lr}
 497              		.cfi_def_cfa_offset 36
 498              		.cfi_offset 4, -36
 499              		.cfi_offset 5, -32
 500              		.cfi_offset 6, -28
 501              		.cfi_offset 7, -24
 502              		.cfi_offset 8, -20
 503              		.cfi_offset 9, -16
 504              		.cfi_offset 10, -12
 505              		.cfi_offset 11, -8
 506              		.cfi_offset 14, -4
 507 0004 83B0     		sub	sp, sp, #12
 508              		.cfi_def_cfa_offset 48
 182:../../libdaisy/src/hid/disp/display.h ****                   uint_fast8_t y1,
 183:../../libdaisy/src/hid/disp/display.h ****                   uint_fast8_t x2,
 184:../../libdaisy/src/hid/disp/display.h ****                   uint_fast8_t y2,
 185:../../libdaisy/src/hid/disp/display.h ****                   bool         on) override
 186:../../libdaisy/src/hid/disp/display.h ****     {
 187:../../libdaisy/src/hid/disp/display.h ****         int_fast16_t deltaX = abs((int_fast16_t)x2 - (int_fast16_t)x1);
 509              		.loc 3 187 52 view .LVU100
 510 0006 5C1A     		subs	r4, r3, r1
 181:../../libdaisy/src/hid/disp/display.h ****                   uint_fast8_t y1,
 511              		.loc 3 181 10 view .LVU101
 512 0008 0C9E     		ldr	r6, [sp, #48]
 513              		.loc 3 187 22 view .LVU102
 514 000a 002C     		cmp	r4, #0
 181:../../libdaisy/src/hid/disp/display.h ****                   uint_fast8_t y1,
 515              		.loc 3 181 10 view .LVU103
 516 000c 9DF83490 		ldrb	r9, [sp, #52]	@ zero_extendqisi2
 188:../../libdaisy/src/hid/disp/display.h ****         int_fast16_t deltaY = abs((int_fast16_t)y2 - (int_fast16_t)y1);
 517              		.loc 3 188 52 view .LVU104
 518 0010 A6EB0208 		sub	r8, r6, r2
ARM GAS  C:\Users\VINCIU~1\AppData\Local\Temp\cc6DIkXk.s 			page 20


 187:../../libdaisy/src/hid/disp/display.h ****         int_fast16_t deltaY = abs((int_fast16_t)y2 - (int_fast16_t)y1);
 519              		.loc 3 187 22 view .LVU105
 520 0014 B8BF     		it	lt
 521 0016 6442     		rsblt	r4, r4, #0
 522              	.LVL37:
 523              		.loc 3 188 22 view .LVU106
 524 0018 B8F1000F 		cmp	r8, #0
 525 001c B8BF     		it	lt
 526 001e C8F10008 		rsblt	r8, r8, #0
 527              	.LVL38:
 189:../../libdaisy/src/hid/disp/display.h ****         int_fast16_t signX  = ((x1 < x2) ? 1 : -1);
 528              		.loc 3 189 42 view .LVU107
 529 0022 8B42     		cmp	r3, r1
 530 0024 8CBF     		ite	hi
 531 0026 4FF0010A 		movhi	r10, #1
 532 002a 4FF0FF3A 		movls	r10, #-1
 533              	.LVL39:
 190:../../libdaisy/src/hid/disp/display.h ****         int_fast16_t signY  = ((y1 < y2) ? 1 : -1);
 534              		.loc 3 190 42 view .LVU108
 535 002e 9642     		cmp	r6, r2
 191:../../libdaisy/src/hid/disp/display.h ****         int_fast16_t error  = deltaX - deltaY;
 536              		.loc 3 191 22 view .LVU109
 537 0030 A4EB080C 		sub	ip, r4, r8
 190:../../libdaisy/src/hid/disp/display.h ****         int_fast16_t signY  = ((y1 < y2) ? 1 : -1);
 538              		.loc 3 190 42 view .LVU110
 539 0034 51D8     		bhi	.L17
 540              	.LVL40:
 541              	.LBB213:
 542              	.LBI213:
  41:../../libdaisy/src/hid/disp/oled_display.h ****     {
 543              		.loc 2 41 10 is_stmt 1 discriminator 4 view .LVU111
 544              	.LBB214:
 545              	.LBI214:
 239:../../libdaisy/src/dev/oled_ssd130x.h ****     {
 546              		.loc 4 239 10 discriminator 4 view .LVU112
 547              	.LBE214:
 548              	.LBE213:
 190:../../libdaisy/src/hid/disp/display.h ****         int_fast16_t error  = deltaX - deltaY;
 549              		.loc 3 190 42 is_stmt 0 discriminator 4 view .LVU113
 550 0036 4FF0FF35 		mov	r5, #-1
 551              	.LBB230:
 552              	.LBB224:
 553              	.LBB215:
 241:../../libdaisy/src/dev/oled_ssd130x.h ****             return;
 554              		.loc 4 241 9 discriminator 4 view .LVU114
 555 003a 7F2B     		cmp	r3, #127
 556              	.LBE215:
 557              	.LBE224:
 558              	.LBE230:
 190:../../libdaisy/src/hid/disp/display.h ****         int_fast16_t error  = deltaX - deltaY;
 559              		.loc 3 190 42 discriminator 4 view .LVU115
 560 003c 0195     		str	r5, [sp, #4]
 561              	.LBB231:
 562              	.LBB225:
 563              	.LBB220:
 241:../../libdaisy/src/dev/oled_ssd130x.h ****             return;
 564              		.loc 4 241 9 discriminator 4 view .LVU116
ARM GAS  C:\Users\VINCIU~1\AppData\Local\Temp\cc6DIkXk.s 			page 21


 565 003e 12D8     		bhi	.L18
 566 0040 3F2E     		cmp	r6, #63
 567 0042 10D8     		bhi	.L18
 568              	.LVL41:
 569              	.L29:
 244:../../libdaisy/src/dev/oled_ssd130x.h ****         else
 570              		.loc 4 244 28 view .LVU117
 571 0044 F508     		lsrs	r5, r6, #3
 244:../../libdaisy/src/dev/oled_ssd130x.h ****         else
 572              		.loc 4 244 54 view .LVU118
 573 0046 06F0070E 		and	lr, r6, #7
 244:../../libdaisy/src/dev/oled_ssd130x.h ****         else
 574              		.loc 4 244 48 view .LVU119
 575 004a 0127     		movs	r7, #1
 244:../../libdaisy/src/dev/oled_ssd130x.h ****         else
 576              		.loc 4 244 42 view .LVU120
 577 004c 03EBC515 		add	r5, r3, r5, lsl #7
 578 0050 0544     		add	r5, r5, r0
 243:../../libdaisy/src/dev/oled_ssd130x.h ****             buffer_[x + (y / 8) * width] |= (1 << (y % 8));
 579              		.loc 4 243 9 view .LVU121
 580 0052 B9F1000F 		cmp	r9, #0
 581 0056 47D0     		beq	.L19
 244:../../libdaisy/src/dev/oled_ssd130x.h ****         else
 582              		.loc 4 244 48 view .LVU122
 583 0058 07FA0EF7 		lsl	r7, r7, lr
 244:../../libdaisy/src/dev/oled_ssd130x.h ****         else
 584              		.loc 4 244 42 view .LVU123
 585 005c 95F814E0 		ldrb	lr, [r5, #20]	@ zero_extendqisi2
 586 0060 47EA0E07 		orr	r7, r7, lr
 587 0064 2F75     		strb	r7, [r5, #20]
 588              	.LVL42:
 589              	.L18:
 244:../../libdaisy/src/dev/oled_ssd130x.h ****         else
 590              		.loc 4 244 42 view .LVU124
 591              	.LBE220:
 592              	.LBE225:
 593              	.LBE231:
 192:../../libdaisy/src/hid/disp/display.h ****         int_fast16_t error2;
 193:../../libdaisy/src/hid/disp/display.h **** 
 194:../../libdaisy/src/hid/disp/display.h ****         // If we write "ChildType::DrawPixel(x2, y2, on);", we end up with
 195:../../libdaisy/src/hid/disp/display.h ****         // all sorts of weird compiler errors when the Child class is a template
 196:../../libdaisy/src/hid/disp/display.h ****         // class. The only way around this is to use this very verbose syntax:
 197:../../libdaisy/src/hid/disp/display.h ****         ((ChildType*)(this))->ChildType::DrawPixel(x2, y2, on);
 198:../../libdaisy/src/hid/disp/display.h **** 
 199:../../libdaisy/src/hid/disp/display.h ****         while((x1 != x2) || (y1 != y2))
 594              		.loc 3 199 26 is_stmt 1 view .LVU125
 595 0066 9642     		cmp	r6, r2
 596 0068 01D1     		bne	.L22
 597              	.L41:
 598              		.loc 3 199 26 is_stmt 0 view .LVU126
 599 006a 8B42     		cmp	r3, r1
 600 006c 29D0     		beq	.L15
 601              	.L22:
 602              	.LVL43:
 200:../../libdaisy/src/hid/disp/display.h ****         {
 201:../../libdaisy/src/hid/disp/display.h ****             ((ChildType*)(this))->ChildType::DrawPixel(x1, y1, on);
 202:../../libdaisy/src/hid/disp/display.h ****             error2 = error * 2;
ARM GAS  C:\Users\VINCIU~1\AppData\Local\Temp\cc6DIkXk.s 			page 22


 203:../../libdaisy/src/hid/disp/display.h ****             if(error2 > -deltaY)
 603              		.loc 3 203 23 view .LVU127
 604 006e C8F10007 		rsb	r7, r8, #0
 605              	.L24:
 606              	.LVL44:
 607              	.LBB232:
 608              	.LBI232:
  41:../../libdaisy/src/hid/disp/oled_display.h ****     {
 609              		.loc 2 41 10 is_stmt 1 view .LVU128
 610              	.LBB233:
 611              	.LBI233:
 239:../../libdaisy/src/dev/oled_ssd130x.h ****     {
 612              		.loc 4 239 10 view .LVU129
 613              	.LBB234:
 241:../../libdaisy/src/dev/oled_ssd130x.h ****             return;
 614              		.loc 4 241 9 is_stmt 0 view .LVU130
 615 0072 7F29     		cmp	r1, #127
 616 0074 14D8     		bhi	.L25
 617 0076 3F2A     		cmp	r2, #63
 618 0078 12D8     		bhi	.L25
 244:../../libdaisy/src/dev/oled_ssd130x.h ****         else
 619              		.loc 4 244 28 view .LVU131
 620 007a D508     		lsrs	r5, r2, #3
 244:../../libdaisy/src/dev/oled_ssd130x.h ****         else
 621              		.loc 4 244 54 view .LVU132
 622 007c 02F0070B 		and	fp, r2, #7
 244:../../libdaisy/src/dev/oled_ssd130x.h ****         else
 623              		.loc 4 244 48 view .LVU133
 624 0080 4FF0010E 		mov	lr, #1
 244:../../libdaisy/src/dev/oled_ssd130x.h ****         else
 625              		.loc 4 244 42 view .LVU134
 626 0084 01EBC515 		add	r5, r1, r5, lsl #7
 627 0088 0544     		add	r5, r5, r0
 243:../../libdaisy/src/dev/oled_ssd130x.h ****             buffer_[x + (y / 8) * width] |= (1 << (y % 8));
 628              		.loc 4 243 9 view .LVU135
 629 008a B9F1000F 		cmp	r9, #0
 630 008e 1BD0     		beq	.L26
 244:../../libdaisy/src/dev/oled_ssd130x.h ****         else
 631              		.loc 4 244 48 view .LVU136
 632 0090 0EFA0BFE 		lsl	lr, lr, fp
 244:../../libdaisy/src/dev/oled_ssd130x.h ****         else
 633              		.loc 4 244 42 view .LVU137
 634 0094 95F814B0 		ldrb	fp, [r5, #20]	@ zero_extendqisi2
 635 0098 4EEA0B0E 		orr	lr, lr, fp
 636 009c 85F814E0 		strb	lr, [r5, #20]
 637              	.L25:
 638              	.LVL45:
 244:../../libdaisy/src/dev/oled_ssd130x.h ****         else
 639              		.loc 4 244 42 view .LVU138
 640              	.LBE234:
 641              	.LBE233:
 642              	.LBE232:
 643              		.loc 3 203 13 view .LVU139
 644 00a0 B7EB4C0F 		cmp	r7, ip, lsl #1
 202:../../libdaisy/src/hid/disp/display.h ****             if(error2 > -deltaY)
 645              		.loc 3 202 20 view .LVU140
 646 00a4 4FEA4C05 		lsl	r5, ip, #1
ARM GAS  C:\Users\VINCIU~1\AppData\Local\Temp\cc6DIkXk.s 			page 23


 647              	.LVL46:
 648              		.loc 3 203 13 view .LVU141
 649 00a8 02DA     		bge	.L27
 204:../../libdaisy/src/hid/disp/display.h ****             {
 205:../../libdaisy/src/hid/disp/display.h ****                 error -= deltaY;
 650              		.loc 3 205 23 view .LVU142
 651 00aa ACEB080C 		sub	ip, ip, r8
 652              	.LVL47:
 206:../../libdaisy/src/hid/disp/display.h ****                 x1 += signX;
 653              		.loc 3 206 20 view .LVU143
 654 00ae 5144     		add	r1, r1, r10
 655              	.LVL48:
 656              	.L27:
 207:../../libdaisy/src/hid/disp/display.h ****             }
 208:../../libdaisy/src/hid/disp/display.h **** 
 209:../../libdaisy/src/hid/disp/display.h ****             if(error2 < deltaX)
 657              		.loc 3 209 13 view .LVU144
 658 00b0 AC42     		cmp	r4, r5
 659 00b2 02DD     		ble	.L28
 210:../../libdaisy/src/hid/disp/display.h ****             {
 211:../../libdaisy/src/hid/disp/display.h ****                 error += deltaX;
 212:../../libdaisy/src/hid/disp/display.h ****                 y1 += signY;
 660              		.loc 3 212 20 view .LVU145
 661 00b4 019D     		ldr	r5, [sp, #4]
 662              	.LVL49:
 211:../../libdaisy/src/hid/disp/display.h ****                 y1 += signY;
 663              		.loc 3 211 23 view .LVU146
 664 00b6 A444     		add	ip, ip, r4
 665              	.LVL50:
 666              		.loc 3 212 20 view .LVU147
 667 00b8 2A44     		add	r2, r2, r5
 668              	.LVL51:
 669              	.L28:
 199:../../libdaisy/src/hid/disp/display.h ****         {
 670              		.loc 3 199 26 is_stmt 1 view .LVU148
 671 00ba 9942     		cmp	r1, r3
 672 00bc D9D1     		bne	.L24
 199:../../libdaisy/src/hid/disp/display.h ****         {
 673              		.loc 3 199 26 is_stmt 0 view .LVU149
 674 00be 9642     		cmp	r6, r2
 675 00c0 D7D1     		bne	.L24
 676              	.L15:
 213:../../libdaisy/src/hid/disp/display.h ****             }
 214:../../libdaisy/src/hid/disp/display.h ****         }
 215:../../libdaisy/src/hid/disp/display.h ****     }
 677              		.loc 3 215 5 view .LVU150
 678 00c2 03B0     		add	sp, sp, #12
 679              		.cfi_remember_state
 680              		.cfi_def_cfa_offset 36
 681              		@ sp needed
 682 00c4 BDE8F08F 		pop	{r4, r5, r6, r7, r8, r9, r10, fp, pc}
 683              	.LVL52:
 684              	.L26:
 685              		.cfi_restore_state
 686              	.LBB239:
 687              	.LBB238:
 688              	.LBB237:
ARM GAS  C:\Users\VINCIU~1\AppData\Local\Temp\cc6DIkXk.s 			page 24


 689              	.LBB235:
 690              	.LBI235:
 239:../../libdaisy/src/dev/oled_ssd130x.h ****     {
 691              		.loc 4 239 10 is_stmt 1 view .LVU151
 692              	.LBB236:
 246:../../libdaisy/src/dev/oled_ssd130x.h ****     }
 693              		.loc 4 246 49 is_stmt 0 view .LVU152
 694 00c8 0EFA0BFB 		lsl	fp, lr, fp
 246:../../libdaisy/src/dev/oled_ssd130x.h ****     }
 695              		.loc 4 246 42 view .LVU153
 696 00cc 95F814E0 		ldrb	lr, [r5, #20]	@ zero_extendqisi2
 697 00d0 2EEA0B0E 		bic	lr, lr, fp
 698 00d4 85F814E0 		strb	lr, [r5, #20]
 699 00d8 E2E7     		b	.L25
 700              	.LVL53:
 701              	.L17:
 246:../../libdaisy/src/dev/oled_ssd130x.h ****     }
 702              		.loc 4 246 42 view .LVU154
 703              	.LBE236:
 704              	.LBE235:
 705              	.LBE237:
 706              	.LBE238:
 707              	.LBE239:
 708              	.LBB240:
  41:../../libdaisy/src/hid/disp/oled_display.h ****     {
 709              		.loc 2 41 10 is_stmt 1 view .LVU155
 710              	.LBB226:
 239:../../libdaisy/src/dev/oled_ssd130x.h ****     {
 711              		.loc 4 239 10 view .LVU156
 712              	.LBE226:
 713              	.LBE240:
 190:../../libdaisy/src/hid/disp/display.h ****         int_fast16_t error  = deltaX - deltaY;
 714              		.loc 3 190 42 is_stmt 0 view .LVU157
 715 00da 0125     		movs	r5, #1
 716              	.LBB241:
 717              	.LBB227:
 718              	.LBB221:
 241:../../libdaisy/src/dev/oled_ssd130x.h ****             return;
 719              		.loc 4 241 9 view .LVU158
 720 00dc 7F2B     		cmp	r3, #127
 721              	.LBE221:
 722              	.LBE227:
 723              	.LBE241:
 190:../../libdaisy/src/hid/disp/display.h ****         int_fast16_t error  = deltaX - deltaY;
 724              		.loc 3 190 42 view .LVU159
 725 00de 0195     		str	r5, [sp, #4]
 726              	.LBB242:
 727              	.LBB228:
 728              	.LBB222:
 241:../../libdaisy/src/dev/oled_ssd130x.h ****             return;
 729              		.loc 4 241 9 view .LVU160
 730 00e0 C5D8     		bhi	.L22
 731 00e2 3F2E     		cmp	r6, #63
 732 00e4 AED9     		bls	.L29
 733 00e6 C2E7     		b	.L22
 734              	.LVL54:
 735              	.L19:
ARM GAS  C:\Users\VINCIU~1\AppData\Local\Temp\cc6DIkXk.s 			page 25


 736              	.LBB216:
 737              	.LBI216:
 239:../../libdaisy/src/dev/oled_ssd130x.h ****     {
 738              		.loc 4 239 10 is_stmt 1 view .LVU161
 739              	.LBB217:
 246:../../libdaisy/src/dev/oled_ssd130x.h ****     }
 740              		.loc 4 246 49 is_stmt 0 view .LVU162
 741 00e8 07FA0EFE 		lsl	lr, r7, lr
 246:../../libdaisy/src/dev/oled_ssd130x.h ****     }
 742              		.loc 4 246 42 view .LVU163
 743 00ec 2F7D     		ldrb	r7, [r5, #20]	@ zero_extendqisi2
 744              	.LBE217:
 745              	.LBE216:
 746              	.LBE222:
 747              	.LBE228:
 748              	.LBE242:
 199:../../libdaisy/src/hid/disp/display.h ****         {
 749              		.loc 3 199 26 view .LVU164
 750 00ee 9642     		cmp	r6, r2
 751              	.LBB243:
 752              	.LBB229:
 753              	.LBB223:
 754              	.LBB219:
 755              	.LBB218:
 246:../../libdaisy/src/dev/oled_ssd130x.h ****     }
 756              		.loc 4 246 42 view .LVU165
 757 00f0 27EA0E07 		bic	r7, r7, lr
 758 00f4 2F75     		strb	r7, [r5, #20]
 759              	.LVL55:
 246:../../libdaisy/src/dev/oled_ssd130x.h ****     }
 760              		.loc 4 246 42 view .LVU166
 761              	.LBE218:
 762              	.LBE219:
 763              	.LBE223:
 764              	.LBE229:
 765              	.LBE243:
 199:../../libdaisy/src/hid/disp/display.h ****         {
 766              		.loc 3 199 26 is_stmt 1 view .LVU167
 767 00f6 B8D0     		beq	.L41
 768 00f8 B9E7     		b	.L22
 769              		.cfi_endproc
 770              	.LFE1838:
 772 00fa 00BF     		.section	.text._ZN5daisy25OneBitGraphicsDisplayImplINS_11OledDisplayINS_13SSD130xDriverILj128ELj64
 773              		.align	1
 774              		.p2align 2,,3
 775              		.weak	_ZN5daisy25OneBitGraphicsDisplayImplINS_11OledDisplayINS_13SSD130xDriverILj128ELj64ENS_24SSD
 776              		.syntax unified
 777              		.thumb
 778              		.thumb_func
 779              		.fpu fpv5-d16
 781              	_ZN5daisy25OneBitGraphicsDisplayImplINS_11OledDisplayINS_13SSD130xDriverILj128ELj64ENS_24SSD130x4Wi
 782              	.LVL56:
 783              	.LFB1840:
 216:../../libdaisy/src/hid/disp/display.h **** 
 217:../../libdaisy/src/hid/disp/display.h ****     void DrawRect(uint_fast8_t x1,
 218:../../libdaisy/src/hid/disp/display.h ****                   uint_fast8_t y1,
 219:../../libdaisy/src/hid/disp/display.h ****                   uint_fast8_t x2,
ARM GAS  C:\Users\VINCIU~1\AppData\Local\Temp\cc6DIkXk.s 			page 26


 220:../../libdaisy/src/hid/disp/display.h ****                   uint_fast8_t y2,
 221:../../libdaisy/src/hid/disp/display.h ****                   bool         on,
 222:../../libdaisy/src/hid/disp/display.h ****                   bool         fill = false) override
 223:../../libdaisy/src/hid/disp/display.h ****     {
 224:../../libdaisy/src/hid/disp/display.h ****         if(fill)
 225:../../libdaisy/src/hid/disp/display.h ****         {
 226:../../libdaisy/src/hid/disp/display.h ****             for(uint_fast8_t x = x1; x <= x2; x++)
 227:../../libdaisy/src/hid/disp/display.h ****             {
 228:../../libdaisy/src/hid/disp/display.h ****                 for(uint_fast8_t y = y1; y <= y2; y++)
 229:../../libdaisy/src/hid/disp/display.h ****                 {
 230:../../libdaisy/src/hid/disp/display.h ****                     ((ChildType*)(this))->ChildType::DrawPixel(x, y, on);
 231:../../libdaisy/src/hid/disp/display.h ****                 }
 232:../../libdaisy/src/hid/disp/display.h ****             }
 233:../../libdaisy/src/hid/disp/display.h ****         }
 234:../../libdaisy/src/hid/disp/display.h ****         else
 235:../../libdaisy/src/hid/disp/display.h ****         {
 236:../../libdaisy/src/hid/disp/display.h ****             ((ChildType*)(this))->ChildType::DrawLine(x1, y1, x2, y1, on);
 237:../../libdaisy/src/hid/disp/display.h ****             ((ChildType*)(this))->ChildType::DrawLine(x2, y1, x2, y2, on);
 238:../../libdaisy/src/hid/disp/display.h ****             ((ChildType*)(this))->ChildType::DrawLine(x2, y2, x1, y2, on);
 239:../../libdaisy/src/hid/disp/display.h ****             ((ChildType*)(this))->ChildType::DrawLine(x1, y2, x1, y1, on);
 240:../../libdaisy/src/hid/disp/display.h ****         }
 241:../../libdaisy/src/hid/disp/display.h ****     }
 242:../../libdaisy/src/hid/disp/display.h **** 
 243:../../libdaisy/src/hid/disp/display.h ****     void DrawArc(uint_fast8_t x,
 784              		.loc 3 243 10 view -0
 785              		.cfi_startproc
 786              		@ args = 12, pretend = 0, frame = 8
 787              		@ frame_needed = 0, uses_anonymous_args = 0
 788              		.loc 3 243 10 is_stmt 0 view .LVU169
 789 0000 2DE9F04F 		push	{r4, r5, r6, r7, r8, r9, r10, fp, lr}
 790              		.cfi_def_cfa_offset 36
 791              		.cfi_offset 4, -36
 792              		.cfi_offset 5, -32
 793              		.cfi_offset 6, -28
 794              		.cfi_offset 7, -24
 795              		.cfi_offset 8, -20
 796              		.cfi_offset 9, -16
 797              		.cfi_offset 10, -12
 798              		.cfi_offset 11, -8
 799              		.cfi_offset 14, -4
 800 0004 2DED068B 		vpush.64	{d8, d9, d10}
 801              		.cfi_def_cfa_offset 60
 802              		.cfi_offset 80, -60
 803              		.cfi_offset 81, -56
 804              		.cfi_offset 82, -52
 805              		.cfi_offset 83, -48
 806              		.cfi_offset 84, -44
 807              		.cfi_offset 85, -40
 808 0008 83B0     		sub	sp, sp, #12
 809              		.cfi_def_cfa_offset 72
 810              		.loc 3 243 10 view .LVU170
 811 000a 1F46     		mov	r7, r3
 812 000c 8046     		mov	r8, r0
 813 000e 0D46     		mov	r5, r1
 814 0010 9DF85030 		ldrb	r3, [sp, #80]	@ zero_extendqisi2
 815              	.LVL57:
 816              		.loc 3 243 10 view .LVU171
ARM GAS  C:\Users\VINCIU~1\AppData\Local\Temp\cc6DIkXk.s 			page 27


 817 0014 1646     		mov	r6, r2
 818 0016 0193     		str	r3, [sp, #4]
 244:../../libdaisy/src/hid/disp/display.h ****                  uint_fast8_t y,
 245:../../libdaisy/src/hid/disp/display.h ****                  uint_fast8_t radius,
 246:../../libdaisy/src/hid/disp/display.h ****                  int_fast16_t start_angle,
 247:../../libdaisy/src/hid/disp/display.h ****                  int_fast16_t sweep,
 248:../../libdaisy/src/hid/disp/display.h ****                  bool         on) override
 249:../../libdaisy/src/hid/disp/display.h ****     {
 250:../../libdaisy/src/hid/disp/display.h ****         // Values to calculate the circle
 251:../../libdaisy/src/hid/disp/display.h ****         int_fast16_t t_x, t_y, err, e2;
 252:../../libdaisy/src/hid/disp/display.h **** 
 253:../../libdaisy/src/hid/disp/display.h ****         // Temporary values to speed up comparisons
 254:../../libdaisy/src/hid/disp/display.h ****         float t_sxy, t_syx, t_sxny, t_synx;
 255:../../libdaisy/src/hid/disp/display.h ****         float t_exy, t_eyx, t_exny, t_eynx;
 256:../../libdaisy/src/hid/disp/display.h **** 
 257:../../libdaisy/src/hid/disp/display.h ****         float start_angle_rad, end_angle_rad;
 258:../../libdaisy/src/hid/disp/display.h ****         float start_x, start_y, end_x, end_y;
 259:../../libdaisy/src/hid/disp/display.h **** 
 260:../../libdaisy/src/hid/disp/display.h ****         bool d1, d2, d3, d4;
 261:../../libdaisy/src/hid/disp/display.h **** 
 262:../../libdaisy/src/hid/disp/display.h ****         d1 = d2 = d3 = d4 = true;
 263:../../libdaisy/src/hid/disp/display.h **** 
 264:../../libdaisy/src/hid/disp/display.h ****         bool circle = false;
 265:../../libdaisy/src/hid/disp/display.h **** 
 266:../../libdaisy/src/hid/disp/display.h ****         if(sweep < 0)
 819              		.loc 3 266 9 view .LVU172
 820 0018 139B     		ldr	r3, [sp, #76]
 821 001a 002B     		cmp	r3, #0
 822 001c C0F22182 		blt	.L43
 267:../../libdaisy/src/hid/disp/display.h ****         {
 268:../../libdaisy/src/hid/disp/display.h ****             start_angle += sweep;
 269:../../libdaisy/src/hid/disp/display.h ****             sweep = -sweep;
 270:../../libdaisy/src/hid/disp/display.h ****         }
 271:../../libdaisy/src/hid/disp/display.h **** 
 272:../../libdaisy/src/hid/disp/display.h ****         start_angle_rad = deg2rad(start_angle);
 273:../../libdaisy/src/hid/disp/display.h ****         end_angle_rad   = deg2rad(start_angle + sweep);
 823              		.loc 3 273 27 view .LVU173
 824 0020 129A     		ldr	r2, [sp, #72]
 825              	.LVL58:
 826              		.loc 3 273 27 view .LVU174
 827 0022 1344     		add	r3, r3, r2
 828 0024 06EE103A 		vmov	s12, r3	@ int
 829              	.LVL59:
 830              	.L44:
 272:../../libdaisy/src/hid/disp/display.h ****         end_angle_rad   = deg2rad(start_angle + sweep);
 831              		.loc 3 272 27 view .LVU175
 832 0028 DDED127A 		vldr.32	s15, [sp, #72]	@ int
 833              		.loc 3 273 27 view .LVU176
 834 002c B8EEC66B 		vcvt.f64.s32	d6, s12
 272:../../libdaisy/src/hid/disp/display.h ****         end_angle_rad   = deg2rad(start_angle + sweep);
 835              		.loc 3 272 27 view .LVU177
 836 0030 9FEDCD4B 		vldr.64	d4, .L119
 837 0034 B8EEE77B 		vcvt.f64.s32	d7, s15
 838 0038 9FEDCD5B 		vldr.64	d5, .L119+8
 839 003c 27EE047B 		vmul.f64	d7, d7, d4
 840              		.loc 3 273 27 view .LVU178
 841 0040 26EE046B 		vmul.f64	d6, d6, d4
ARM GAS  C:\Users\VINCIU~1\AppData\Local\Temp\cc6DIkXk.s 			page 28


 272:../../libdaisy/src/hid/disp/display.h ****         end_angle_rad   = deg2rad(start_angle + sweep);
 842              		.loc 3 272 27 view .LVU179
 843 0044 87EE050B 		vdiv.f64	d0, d7, d5
 844              		.loc 3 273 27 view .LVU180
 845 0048 86EE05AB 		vdiv.f64	d10, d6, d5
 272:../../libdaisy/src/hid/disp/display.h ****         end_angle_rad   = deg2rad(start_angle + sweep);
 846              		.loc 3 272 25 view .LVU181
 847 004c F7EEC08B 		vcvt.f32.f64	s17, d0
 848              	.LVL60:
 849              	.LBB276:
 850              	.LBB277:
 851              		.file 5 "c:\\users\\vin\355cius\\documents\\daisytoolchain-0.3.1\\windows\\arm-none-eabi\\include\
   1:c:\users\vincius\documents\daisytoolchain-0.3.1\windows\arm-none-eabi\include\c++\10.2.1\cmath **** // -*- C++ -*- C forwarding header.
   2:c:\users\vincius\documents\daisytoolchain-0.3.1\windows\arm-none-eabi\include\c++\10.2.1\cmath **** 
   3:c:\users\vincius\documents\daisytoolchain-0.3.1\windows\arm-none-eabi\include\c++\10.2.1\cmath **** // Copyright (C) 1997-2020 Free Software Foundation, Inc.
   4:c:\users\vincius\documents\daisytoolchain-0.3.1\windows\arm-none-eabi\include\c++\10.2.1\cmath **** //
   5:c:\users\vincius\documents\daisytoolchain-0.3.1\windows\arm-none-eabi\include\c++\10.2.1\cmath **** // This file is part of the GNU ISO C++ Library.  This library is free
   6:c:\users\vincius\documents\daisytoolchain-0.3.1\windows\arm-none-eabi\include\c++\10.2.1\cmath **** // software; you can redistribute it and/or modify it under the
   7:c:\users\vincius\documents\daisytoolchain-0.3.1\windows\arm-none-eabi\include\c++\10.2.1\cmath **** // terms of the GNU General Public License as published by the
   8:c:\users\vincius\documents\daisytoolchain-0.3.1\windows\arm-none-eabi\include\c++\10.2.1\cmath **** // Free Software Foundation; either version 3, or (at your option)
   9:c:\users\vincius\documents\daisytoolchain-0.3.1\windows\arm-none-eabi\include\c++\10.2.1\cmath **** // any later version.
  10:c:\users\vincius\documents\daisytoolchain-0.3.1\windows\arm-none-eabi\include\c++\10.2.1\cmath **** 
  11:c:\users\vincius\documents\daisytoolchain-0.3.1\windows\arm-none-eabi\include\c++\10.2.1\cmath **** // This library is distributed in the hope that it will be useful,
  12:c:\users\vincius\documents\daisytoolchain-0.3.1\windows\arm-none-eabi\include\c++\10.2.1\cmath **** // but WITHOUT ANY WARRANTY; without even the implied warranty of
  13:c:\users\vincius\documents\daisytoolchain-0.3.1\windows\arm-none-eabi\include\c++\10.2.1\cmath **** // MERCHANTABILITY or FITNESS FOR A PARTICULAR PURPOSE.  See the
  14:c:\users\vincius\documents\daisytoolchain-0.3.1\windows\arm-none-eabi\include\c++\10.2.1\cmath **** // GNU General Public License for more details.
  15:c:\users\vincius\documents\daisytoolchain-0.3.1\windows\arm-none-eabi\include\c++\10.2.1\cmath **** 
  16:c:\users\vincius\documents\daisytoolchain-0.3.1\windows\arm-none-eabi\include\c++\10.2.1\cmath **** // Under Section 7 of GPL version 3, you are granted additional
  17:c:\users\vincius\documents\daisytoolchain-0.3.1\windows\arm-none-eabi\include\c++\10.2.1\cmath **** // permissions described in the GCC Runtime Library Exception, version
  18:c:\users\vincius\documents\daisytoolchain-0.3.1\windows\arm-none-eabi\include\c++\10.2.1\cmath **** // 3.1, as published by the Free Software Foundation.
  19:c:\users\vincius\documents\daisytoolchain-0.3.1\windows\arm-none-eabi\include\c++\10.2.1\cmath **** 
  20:c:\users\vincius\documents\daisytoolchain-0.3.1\windows\arm-none-eabi\include\c++\10.2.1\cmath **** // You should have received a copy of the GNU General Public License and
  21:c:\users\vincius\documents\daisytoolchain-0.3.1\windows\arm-none-eabi\include\c++\10.2.1\cmath **** // a copy of the GCC Runtime Library Exception along with this program;
  22:c:\users\vincius\documents\daisytoolchain-0.3.1\windows\arm-none-eabi\include\c++\10.2.1\cmath **** // see the files COPYING3 and COPYING.RUNTIME respectively.  If not, see
  23:c:\users\vincius\documents\daisytoolchain-0.3.1\windows\arm-none-eabi\include\c++\10.2.1\cmath **** // <http://www.gnu.org/licenses/>.
  24:c:\users\vincius\documents\daisytoolchain-0.3.1\windows\arm-none-eabi\include\c++\10.2.1\cmath **** 
  25:c:\users\vincius\documents\daisytoolchain-0.3.1\windows\arm-none-eabi\include\c++\10.2.1\cmath **** /** @file include/cmath
  26:c:\users\vincius\documents\daisytoolchain-0.3.1\windows\arm-none-eabi\include\c++\10.2.1\cmath ****  *  This is a Standard C++ Library file.  You should @c \#include this file
  27:c:\users\vincius\documents\daisytoolchain-0.3.1\windows\arm-none-eabi\include\c++\10.2.1\cmath ****  *  in your programs, rather than any of the @a *.h implementation files.
  28:c:\users\vincius\documents\daisytoolchain-0.3.1\windows\arm-none-eabi\include\c++\10.2.1\cmath ****  *
  29:c:\users\vincius\documents\daisytoolchain-0.3.1\windows\arm-none-eabi\include\c++\10.2.1\cmath ****  *  This is the C++ version of the Standard C Library header @c math.h,
  30:c:\users\vincius\documents\daisytoolchain-0.3.1\windows\arm-none-eabi\include\c++\10.2.1\cmath ****  *  and its contents are (mostly) the same as that header, but are all
  31:c:\users\vincius\documents\daisytoolchain-0.3.1\windows\arm-none-eabi\include\c++\10.2.1\cmath ****  *  contained in the namespace @c std (except for names which are defined
  32:c:\users\vincius\documents\daisytoolchain-0.3.1\windows\arm-none-eabi\include\c++\10.2.1\cmath ****  *  as macros in C).
  33:c:\users\vincius\documents\daisytoolchain-0.3.1\windows\arm-none-eabi\include\c++\10.2.1\cmath ****  */
  34:c:\users\vincius\documents\daisytoolchain-0.3.1\windows\arm-none-eabi\include\c++\10.2.1\cmath **** 
  35:c:\users\vincius\documents\daisytoolchain-0.3.1\windows\arm-none-eabi\include\c++\10.2.1\cmath **** //
  36:c:\users\vincius\documents\daisytoolchain-0.3.1\windows\arm-none-eabi\include\c++\10.2.1\cmath **** // ISO C++ 14882: 26.5  C library
  37:c:\users\vincius\documents\daisytoolchain-0.3.1\windows\arm-none-eabi\include\c++\10.2.1\cmath **** //
  38:c:\users\vincius\documents\daisytoolchain-0.3.1\windows\arm-none-eabi\include\c++\10.2.1\cmath **** 
  39:c:\users\vincius\documents\daisytoolchain-0.3.1\windows\arm-none-eabi\include\c++\10.2.1\cmath **** #pragma GCC system_header
  40:c:\users\vincius\documents\daisytoolchain-0.3.1\windows\arm-none-eabi\include\c++\10.2.1\cmath **** 
  41:c:\users\vincius\documents\daisytoolchain-0.3.1\windows\arm-none-eabi\include\c++\10.2.1\cmath **** #include <bits/c++config.h>
  42:c:\users\vincius\documents\daisytoolchain-0.3.1\windows\arm-none-eabi\include\c++\10.2.1\cmath **** #include <bits/cpp_type_traits.h>
  43:c:\users\vincius\documents\daisytoolchain-0.3.1\windows\arm-none-eabi\include\c++\10.2.1\cmath **** #include <ext/type_traits.h>
  44:c:\users\vincius\documents\daisytoolchain-0.3.1\windows\arm-none-eabi\include\c++\10.2.1\cmath **** #define _GLIBCXX_INCLUDE_NEXT_C_HEADERS
  45:c:\users\vincius\documents\daisytoolchain-0.3.1\windows\arm-none-eabi\include\c++\10.2.1\cmath **** #include_next <math.h>
ARM GAS  C:\Users\VINCIU~1\AppData\Local\Temp\cc6DIkXk.s 			page 29


  46:c:\users\vincius\documents\daisytoolchain-0.3.1\windows\arm-none-eabi\include\c++\10.2.1\cmath **** #undef _GLIBCXX_INCLUDE_NEXT_C_HEADERS
  47:c:\users\vincius\documents\daisytoolchain-0.3.1\windows\arm-none-eabi\include\c++\10.2.1\cmath **** #include <bits/std_abs.h>
  48:c:\users\vincius\documents\daisytoolchain-0.3.1\windows\arm-none-eabi\include\c++\10.2.1\cmath **** 
  49:c:\users\vincius\documents\daisytoolchain-0.3.1\windows\arm-none-eabi\include\c++\10.2.1\cmath **** #ifndef _GLIBCXX_CMATH
  50:c:\users\vincius\documents\daisytoolchain-0.3.1\windows\arm-none-eabi\include\c++\10.2.1\cmath **** #define _GLIBCXX_CMATH 1
  51:c:\users\vincius\documents\daisytoolchain-0.3.1\windows\arm-none-eabi\include\c++\10.2.1\cmath **** 
  52:c:\users\vincius\documents\daisytoolchain-0.3.1\windows\arm-none-eabi\include\c++\10.2.1\cmath **** // Get rid of those macros defined in <math.h> in lieu of real functions.
  53:c:\users\vincius\documents\daisytoolchain-0.3.1\windows\arm-none-eabi\include\c++\10.2.1\cmath **** #undef div
  54:c:\users\vincius\documents\daisytoolchain-0.3.1\windows\arm-none-eabi\include\c++\10.2.1\cmath **** #undef acos
  55:c:\users\vincius\documents\daisytoolchain-0.3.1\windows\arm-none-eabi\include\c++\10.2.1\cmath **** #undef asin
  56:c:\users\vincius\documents\daisytoolchain-0.3.1\windows\arm-none-eabi\include\c++\10.2.1\cmath **** #undef atan
  57:c:\users\vincius\documents\daisytoolchain-0.3.1\windows\arm-none-eabi\include\c++\10.2.1\cmath **** #undef atan2
  58:c:\users\vincius\documents\daisytoolchain-0.3.1\windows\arm-none-eabi\include\c++\10.2.1\cmath **** #undef ceil
  59:c:\users\vincius\documents\daisytoolchain-0.3.1\windows\arm-none-eabi\include\c++\10.2.1\cmath **** #undef cos
  60:c:\users\vincius\documents\daisytoolchain-0.3.1\windows\arm-none-eabi\include\c++\10.2.1\cmath **** #undef cosh
  61:c:\users\vincius\documents\daisytoolchain-0.3.1\windows\arm-none-eabi\include\c++\10.2.1\cmath **** #undef exp
  62:c:\users\vincius\documents\daisytoolchain-0.3.1\windows\arm-none-eabi\include\c++\10.2.1\cmath **** #undef fabs
  63:c:\users\vincius\documents\daisytoolchain-0.3.1\windows\arm-none-eabi\include\c++\10.2.1\cmath **** #undef floor
  64:c:\users\vincius\documents\daisytoolchain-0.3.1\windows\arm-none-eabi\include\c++\10.2.1\cmath **** #undef fmod
  65:c:\users\vincius\documents\daisytoolchain-0.3.1\windows\arm-none-eabi\include\c++\10.2.1\cmath **** #undef frexp
  66:c:\users\vincius\documents\daisytoolchain-0.3.1\windows\arm-none-eabi\include\c++\10.2.1\cmath **** #undef ldexp
  67:c:\users\vincius\documents\daisytoolchain-0.3.1\windows\arm-none-eabi\include\c++\10.2.1\cmath **** #undef log
  68:c:\users\vincius\documents\daisytoolchain-0.3.1\windows\arm-none-eabi\include\c++\10.2.1\cmath **** #undef log10
  69:c:\users\vincius\documents\daisytoolchain-0.3.1\windows\arm-none-eabi\include\c++\10.2.1\cmath **** #undef modf
  70:c:\users\vincius\documents\daisytoolchain-0.3.1\windows\arm-none-eabi\include\c++\10.2.1\cmath **** #undef pow
  71:c:\users\vincius\documents\daisytoolchain-0.3.1\windows\arm-none-eabi\include\c++\10.2.1\cmath **** #undef sin
  72:c:\users\vincius\documents\daisytoolchain-0.3.1\windows\arm-none-eabi\include\c++\10.2.1\cmath **** #undef sinh
  73:c:\users\vincius\documents\daisytoolchain-0.3.1\windows\arm-none-eabi\include\c++\10.2.1\cmath **** #undef sqrt
  74:c:\users\vincius\documents\daisytoolchain-0.3.1\windows\arm-none-eabi\include\c++\10.2.1\cmath **** #undef tan
  75:c:\users\vincius\documents\daisytoolchain-0.3.1\windows\arm-none-eabi\include\c++\10.2.1\cmath **** #undef tanh
  76:c:\users\vincius\documents\daisytoolchain-0.3.1\windows\arm-none-eabi\include\c++\10.2.1\cmath **** 
  77:c:\users\vincius\documents\daisytoolchain-0.3.1\windows\arm-none-eabi\include\c++\10.2.1\cmath **** extern "C++"
  78:c:\users\vincius\documents\daisytoolchain-0.3.1\windows\arm-none-eabi\include\c++\10.2.1\cmath **** {
  79:c:\users\vincius\documents\daisytoolchain-0.3.1\windows\arm-none-eabi\include\c++\10.2.1\cmath **** namespace std _GLIBCXX_VISIBILITY(default)
  80:c:\users\vincius\documents\daisytoolchain-0.3.1\windows\arm-none-eabi\include\c++\10.2.1\cmath **** {
  81:c:\users\vincius\documents\daisytoolchain-0.3.1\windows\arm-none-eabi\include\c++\10.2.1\cmath **** _GLIBCXX_BEGIN_NAMESPACE_VERSION
  82:c:\users\vincius\documents\daisytoolchain-0.3.1\windows\arm-none-eabi\include\c++\10.2.1\cmath **** 
  83:c:\users\vincius\documents\daisytoolchain-0.3.1\windows\arm-none-eabi\include\c++\10.2.1\cmath ****   using ::acos;
  84:c:\users\vincius\documents\daisytoolchain-0.3.1\windows\arm-none-eabi\include\c++\10.2.1\cmath **** 
  85:c:\users\vincius\documents\daisytoolchain-0.3.1\windows\arm-none-eabi\include\c++\10.2.1\cmath **** #ifndef __CORRECT_ISO_CPP_MATH_H_PROTO
  86:c:\users\vincius\documents\daisytoolchain-0.3.1\windows\arm-none-eabi\include\c++\10.2.1\cmath ****   inline _GLIBCXX_CONSTEXPR float
  87:c:\users\vincius\documents\daisytoolchain-0.3.1\windows\arm-none-eabi\include\c++\10.2.1\cmath ****   acos(float __x)
  88:c:\users\vincius\documents\daisytoolchain-0.3.1\windows\arm-none-eabi\include\c++\10.2.1\cmath ****   { return __builtin_acosf(__x); }
  89:c:\users\vincius\documents\daisytoolchain-0.3.1\windows\arm-none-eabi\include\c++\10.2.1\cmath **** 
  90:c:\users\vincius\documents\daisytoolchain-0.3.1\windows\arm-none-eabi\include\c++\10.2.1\cmath ****   inline _GLIBCXX_CONSTEXPR long double
  91:c:\users\vincius\documents\daisytoolchain-0.3.1\windows\arm-none-eabi\include\c++\10.2.1\cmath ****   acos(long double __x)
  92:c:\users\vincius\documents\daisytoolchain-0.3.1\windows\arm-none-eabi\include\c++\10.2.1\cmath ****   { return __builtin_acosl(__x); }
  93:c:\users\vincius\documents\daisytoolchain-0.3.1\windows\arm-none-eabi\include\c++\10.2.1\cmath **** #endif
  94:c:\users\vincius\documents\daisytoolchain-0.3.1\windows\arm-none-eabi\include\c++\10.2.1\cmath **** 
  95:c:\users\vincius\documents\daisytoolchain-0.3.1\windows\arm-none-eabi\include\c++\10.2.1\cmath ****   template<typename _Tp>
  96:c:\users\vincius\documents\daisytoolchain-0.3.1\windows\arm-none-eabi\include\c++\10.2.1\cmath ****     inline _GLIBCXX_CONSTEXPR
  97:c:\users\vincius\documents\daisytoolchain-0.3.1\windows\arm-none-eabi\include\c++\10.2.1\cmath ****     typename __gnu_cxx::__enable_if<__is_integer<_Tp>::__value, 
  98:c:\users\vincius\documents\daisytoolchain-0.3.1\windows\arm-none-eabi\include\c++\10.2.1\cmath ****                                     double>::__type
  99:c:\users\vincius\documents\daisytoolchain-0.3.1\windows\arm-none-eabi\include\c++\10.2.1\cmath ****     acos(_Tp __x)
 100:c:\users\vincius\documents\daisytoolchain-0.3.1\windows\arm-none-eabi\include\c++\10.2.1\cmath ****     { return __builtin_acos(__x); }
 101:c:\users\vincius\documents\daisytoolchain-0.3.1\windows\arm-none-eabi\include\c++\10.2.1\cmath **** 
 102:c:\users\vincius\documents\daisytoolchain-0.3.1\windows\arm-none-eabi\include\c++\10.2.1\cmath ****   using ::asin;
ARM GAS  C:\Users\VINCIU~1\AppData\Local\Temp\cc6DIkXk.s 			page 30


 103:c:\users\vincius\documents\daisytoolchain-0.3.1\windows\arm-none-eabi\include\c++\10.2.1\cmath **** 
 104:c:\users\vincius\documents\daisytoolchain-0.3.1\windows\arm-none-eabi\include\c++\10.2.1\cmath **** #ifndef __CORRECT_ISO_CPP_MATH_H_PROTO
 105:c:\users\vincius\documents\daisytoolchain-0.3.1\windows\arm-none-eabi\include\c++\10.2.1\cmath ****   inline _GLIBCXX_CONSTEXPR float
 106:c:\users\vincius\documents\daisytoolchain-0.3.1\windows\arm-none-eabi\include\c++\10.2.1\cmath ****   asin(float __x)
 107:c:\users\vincius\documents\daisytoolchain-0.3.1\windows\arm-none-eabi\include\c++\10.2.1\cmath ****   { return __builtin_asinf(__x); }
 108:c:\users\vincius\documents\daisytoolchain-0.3.1\windows\arm-none-eabi\include\c++\10.2.1\cmath **** 
 109:c:\users\vincius\documents\daisytoolchain-0.3.1\windows\arm-none-eabi\include\c++\10.2.1\cmath ****   inline _GLIBCXX_CONSTEXPR long double
 110:c:\users\vincius\documents\daisytoolchain-0.3.1\windows\arm-none-eabi\include\c++\10.2.1\cmath ****   asin(long double __x)
 111:c:\users\vincius\documents\daisytoolchain-0.3.1\windows\arm-none-eabi\include\c++\10.2.1\cmath ****   { return __builtin_asinl(__x); }
 112:c:\users\vincius\documents\daisytoolchain-0.3.1\windows\arm-none-eabi\include\c++\10.2.1\cmath **** #endif
 113:c:\users\vincius\documents\daisytoolchain-0.3.1\windows\arm-none-eabi\include\c++\10.2.1\cmath **** 
 114:c:\users\vincius\documents\daisytoolchain-0.3.1\windows\arm-none-eabi\include\c++\10.2.1\cmath ****   template<typename _Tp>
 115:c:\users\vincius\documents\daisytoolchain-0.3.1\windows\arm-none-eabi\include\c++\10.2.1\cmath ****     inline _GLIBCXX_CONSTEXPR
 116:c:\users\vincius\documents\daisytoolchain-0.3.1\windows\arm-none-eabi\include\c++\10.2.1\cmath ****     typename __gnu_cxx::__enable_if<__is_integer<_Tp>::__value,
 117:c:\users\vincius\documents\daisytoolchain-0.3.1\windows\arm-none-eabi\include\c++\10.2.1\cmath ****                                     double>::__type
 118:c:\users\vincius\documents\daisytoolchain-0.3.1\windows\arm-none-eabi\include\c++\10.2.1\cmath ****     asin(_Tp __x)
 119:c:\users\vincius\documents\daisytoolchain-0.3.1\windows\arm-none-eabi\include\c++\10.2.1\cmath ****     { return __builtin_asin(__x); }
 120:c:\users\vincius\documents\daisytoolchain-0.3.1\windows\arm-none-eabi\include\c++\10.2.1\cmath **** 
 121:c:\users\vincius\documents\daisytoolchain-0.3.1\windows\arm-none-eabi\include\c++\10.2.1\cmath ****   using ::atan;
 122:c:\users\vincius\documents\daisytoolchain-0.3.1\windows\arm-none-eabi\include\c++\10.2.1\cmath **** 
 123:c:\users\vincius\documents\daisytoolchain-0.3.1\windows\arm-none-eabi\include\c++\10.2.1\cmath **** #ifndef __CORRECT_ISO_CPP_MATH_H_PROTO
 124:c:\users\vincius\documents\daisytoolchain-0.3.1\windows\arm-none-eabi\include\c++\10.2.1\cmath ****   inline _GLIBCXX_CONSTEXPR float
 125:c:\users\vincius\documents\daisytoolchain-0.3.1\windows\arm-none-eabi\include\c++\10.2.1\cmath ****   atan(float __x)
 126:c:\users\vincius\documents\daisytoolchain-0.3.1\windows\arm-none-eabi\include\c++\10.2.1\cmath ****   { return __builtin_atanf(__x); }
 127:c:\users\vincius\documents\daisytoolchain-0.3.1\windows\arm-none-eabi\include\c++\10.2.1\cmath **** 
 128:c:\users\vincius\documents\daisytoolchain-0.3.1\windows\arm-none-eabi\include\c++\10.2.1\cmath ****   inline _GLIBCXX_CONSTEXPR long double
 129:c:\users\vincius\documents\daisytoolchain-0.3.1\windows\arm-none-eabi\include\c++\10.2.1\cmath ****   atan(long double __x)
 130:c:\users\vincius\documents\daisytoolchain-0.3.1\windows\arm-none-eabi\include\c++\10.2.1\cmath ****   { return __builtin_atanl(__x); }
 131:c:\users\vincius\documents\daisytoolchain-0.3.1\windows\arm-none-eabi\include\c++\10.2.1\cmath **** #endif
 132:c:\users\vincius\documents\daisytoolchain-0.3.1\windows\arm-none-eabi\include\c++\10.2.1\cmath **** 
 133:c:\users\vincius\documents\daisytoolchain-0.3.1\windows\arm-none-eabi\include\c++\10.2.1\cmath ****   template<typename _Tp>
 134:c:\users\vincius\documents\daisytoolchain-0.3.1\windows\arm-none-eabi\include\c++\10.2.1\cmath ****     inline _GLIBCXX_CONSTEXPR
 135:c:\users\vincius\documents\daisytoolchain-0.3.1\windows\arm-none-eabi\include\c++\10.2.1\cmath ****     typename __gnu_cxx::__enable_if<__is_integer<_Tp>::__value,
 136:c:\users\vincius\documents\daisytoolchain-0.3.1\windows\arm-none-eabi\include\c++\10.2.1\cmath ****                                     double>::__type
 137:c:\users\vincius\documents\daisytoolchain-0.3.1\windows\arm-none-eabi\include\c++\10.2.1\cmath ****     atan(_Tp __x)
 138:c:\users\vincius\documents\daisytoolchain-0.3.1\windows\arm-none-eabi\include\c++\10.2.1\cmath ****     { return __builtin_atan(__x); }
 139:c:\users\vincius\documents\daisytoolchain-0.3.1\windows\arm-none-eabi\include\c++\10.2.1\cmath **** 
 140:c:\users\vincius\documents\daisytoolchain-0.3.1\windows\arm-none-eabi\include\c++\10.2.1\cmath ****   using ::atan2;
 141:c:\users\vincius\documents\daisytoolchain-0.3.1\windows\arm-none-eabi\include\c++\10.2.1\cmath **** 
 142:c:\users\vincius\documents\daisytoolchain-0.3.1\windows\arm-none-eabi\include\c++\10.2.1\cmath **** #ifndef __CORRECT_ISO_CPP_MATH_H_PROTO
 143:c:\users\vincius\documents\daisytoolchain-0.3.1\windows\arm-none-eabi\include\c++\10.2.1\cmath ****   inline _GLIBCXX_CONSTEXPR float
 144:c:\users\vincius\documents\daisytoolchain-0.3.1\windows\arm-none-eabi\include\c++\10.2.1\cmath ****   atan2(float __y, float __x)
 145:c:\users\vincius\documents\daisytoolchain-0.3.1\windows\arm-none-eabi\include\c++\10.2.1\cmath ****   { return __builtin_atan2f(__y, __x); }
 146:c:\users\vincius\documents\daisytoolchain-0.3.1\windows\arm-none-eabi\include\c++\10.2.1\cmath **** 
 147:c:\users\vincius\documents\daisytoolchain-0.3.1\windows\arm-none-eabi\include\c++\10.2.1\cmath ****   inline _GLIBCXX_CONSTEXPR long double
 148:c:\users\vincius\documents\daisytoolchain-0.3.1\windows\arm-none-eabi\include\c++\10.2.1\cmath ****   atan2(long double __y, long double __x)
 149:c:\users\vincius\documents\daisytoolchain-0.3.1\windows\arm-none-eabi\include\c++\10.2.1\cmath ****   { return __builtin_atan2l(__y, __x); }
 150:c:\users\vincius\documents\daisytoolchain-0.3.1\windows\arm-none-eabi\include\c++\10.2.1\cmath **** #endif
 151:c:\users\vincius\documents\daisytoolchain-0.3.1\windows\arm-none-eabi\include\c++\10.2.1\cmath **** 
 152:c:\users\vincius\documents\daisytoolchain-0.3.1\windows\arm-none-eabi\include\c++\10.2.1\cmath ****   template<typename _Tp, typename _Up>
 153:c:\users\vincius\documents\daisytoolchain-0.3.1\windows\arm-none-eabi\include\c++\10.2.1\cmath ****     inline _GLIBCXX_CONSTEXPR
 154:c:\users\vincius\documents\daisytoolchain-0.3.1\windows\arm-none-eabi\include\c++\10.2.1\cmath ****     typename __gnu_cxx::__promote_2<_Tp, _Up>::__type
 155:c:\users\vincius\documents\daisytoolchain-0.3.1\windows\arm-none-eabi\include\c++\10.2.1\cmath ****     atan2(_Tp __y, _Up __x)
 156:c:\users\vincius\documents\daisytoolchain-0.3.1\windows\arm-none-eabi\include\c++\10.2.1\cmath ****     {
 157:c:\users\vincius\documents\daisytoolchain-0.3.1\windows\arm-none-eabi\include\c++\10.2.1\cmath ****       typedef typename __gnu_cxx::__promote_2<_Tp, _Up>::__type __type;
 158:c:\users\vincius\documents\daisytoolchain-0.3.1\windows\arm-none-eabi\include\c++\10.2.1\cmath ****       return atan2(__type(__y), __type(__x));
 159:c:\users\vincius\documents\daisytoolchain-0.3.1\windows\arm-none-eabi\include\c++\10.2.1\cmath ****     }
ARM GAS  C:\Users\VINCIU~1\AppData\Local\Temp\cc6DIkXk.s 			page 31


 160:c:\users\vincius\documents\daisytoolchain-0.3.1\windows\arm-none-eabi\include\c++\10.2.1\cmath **** 
 161:c:\users\vincius\documents\daisytoolchain-0.3.1\windows\arm-none-eabi\include\c++\10.2.1\cmath ****   using ::ceil;
 162:c:\users\vincius\documents\daisytoolchain-0.3.1\windows\arm-none-eabi\include\c++\10.2.1\cmath **** 
 163:c:\users\vincius\documents\daisytoolchain-0.3.1\windows\arm-none-eabi\include\c++\10.2.1\cmath **** #ifndef __CORRECT_ISO_CPP_MATH_H_PROTO
 164:c:\users\vincius\documents\daisytoolchain-0.3.1\windows\arm-none-eabi\include\c++\10.2.1\cmath ****   inline _GLIBCXX_CONSTEXPR float
 165:c:\users\vincius\documents\daisytoolchain-0.3.1\windows\arm-none-eabi\include\c++\10.2.1\cmath ****   ceil(float __x)
 166:c:\users\vincius\documents\daisytoolchain-0.3.1\windows\arm-none-eabi\include\c++\10.2.1\cmath ****   { return __builtin_ceilf(__x); }
 167:c:\users\vincius\documents\daisytoolchain-0.3.1\windows\arm-none-eabi\include\c++\10.2.1\cmath **** 
 168:c:\users\vincius\documents\daisytoolchain-0.3.1\windows\arm-none-eabi\include\c++\10.2.1\cmath ****   inline _GLIBCXX_CONSTEXPR long double
 169:c:\users\vincius\documents\daisytoolchain-0.3.1\windows\arm-none-eabi\include\c++\10.2.1\cmath ****   ceil(long double __x)
 170:c:\users\vincius\documents\daisytoolchain-0.3.1\windows\arm-none-eabi\include\c++\10.2.1\cmath ****   { return __builtin_ceill(__x); }
 171:c:\users\vincius\documents\daisytoolchain-0.3.1\windows\arm-none-eabi\include\c++\10.2.1\cmath **** #endif
 172:c:\users\vincius\documents\daisytoolchain-0.3.1\windows\arm-none-eabi\include\c++\10.2.1\cmath **** 
 173:c:\users\vincius\documents\daisytoolchain-0.3.1\windows\arm-none-eabi\include\c++\10.2.1\cmath ****   template<typename _Tp>
 174:c:\users\vincius\documents\daisytoolchain-0.3.1\windows\arm-none-eabi\include\c++\10.2.1\cmath ****     inline _GLIBCXX_CONSTEXPR
 175:c:\users\vincius\documents\daisytoolchain-0.3.1\windows\arm-none-eabi\include\c++\10.2.1\cmath ****     typename __gnu_cxx::__enable_if<__is_integer<_Tp>::__value, 
 176:c:\users\vincius\documents\daisytoolchain-0.3.1\windows\arm-none-eabi\include\c++\10.2.1\cmath ****                                     double>::__type
 177:c:\users\vincius\documents\daisytoolchain-0.3.1\windows\arm-none-eabi\include\c++\10.2.1\cmath ****     ceil(_Tp __x)
 178:c:\users\vincius\documents\daisytoolchain-0.3.1\windows\arm-none-eabi\include\c++\10.2.1\cmath ****     { return __builtin_ceil(__x); }
 179:c:\users\vincius\documents\daisytoolchain-0.3.1\windows\arm-none-eabi\include\c++\10.2.1\cmath **** 
 180:c:\users\vincius\documents\daisytoolchain-0.3.1\windows\arm-none-eabi\include\c++\10.2.1\cmath ****   using ::cos;
 181:c:\users\vincius\documents\daisytoolchain-0.3.1\windows\arm-none-eabi\include\c++\10.2.1\cmath **** 
 182:c:\users\vincius\documents\daisytoolchain-0.3.1\windows\arm-none-eabi\include\c++\10.2.1\cmath **** #ifndef __CORRECT_ISO_CPP_MATH_H_PROTO
 183:c:\users\vincius\documents\daisytoolchain-0.3.1\windows\arm-none-eabi\include\c++\10.2.1\cmath ****   inline _GLIBCXX_CONSTEXPR float
 184:c:\users\vincius\documents\daisytoolchain-0.3.1\windows\arm-none-eabi\include\c++\10.2.1\cmath ****   cos(float __x)
 185:c:\users\vincius\documents\daisytoolchain-0.3.1\windows\arm-none-eabi\include\c++\10.2.1\cmath ****   { return __builtin_cosf(__x); }
 852              		.loc 5 185 26 view .LVU182
 853 0050 B0EE680A 		vmov.f32	s0, s17
 854 0054 FFF7FEFF 		bl	cosf
 855              	.LVL61:
 856              		.loc 5 185 26 view .LVU183
 857              	.LBE277:
 858              	.LBE276:
 274:../../libdaisy/src/hid/disp/display.h **** 
 275:../../libdaisy/src/hid/disp/display.h ****         start_x = cos(start_angle_rad) * radius;
 859              		.loc 3 275 17 view .LVU184
 860 0058 07EE907A 		vmov	s15, r7	@ int
 273:../../libdaisy/src/hid/disp/display.h **** 
 861              		.loc 3 273 25 view .LVU185
 862 005c B7EECAAB 		vcvt.f32.f64	s20, d10
 863              	.LVL62:
 864              	.LBB280:
 865              	.LBI276:
 184:c:\users\vincius\documents\daisytoolchain-0.3.1\windows\arm-none-eabi\include\c++\10.2.1\cmath ****   { return __builtin_cosf(__x); }
 866              		.loc 5 184 3 is_stmt 1 view .LVU186
 867              	.LBB278:
 868              		.loc 5 185 5 view .LVU187
 869              		.loc 5 185 5 is_stmt 0 view .LVU188
 870              	.LBE278:
 871              	.LBE280:
 872              		.loc 3 275 17 view .LVU189
 873 0060 F8EE679A 		vcvt.f32.u32	s19, s15
 874              	.LBB281:
 875              	.LBB279:
 876              		.loc 5 185 26 view .LVU190
 877 0064 B0EE408A 		vmov.f32	s16, s0
 878              	.LBE279:
ARM GAS  C:\Users\VINCIU~1\AppData\Local\Temp\cc6DIkXk.s 			page 32


 879              	.LBE281:
 880              	.LBB282:
 881              	.LBB283:
 186:c:\users\vincius\documents\daisytoolchain-0.3.1\windows\arm-none-eabi\include\c++\10.2.1\cmath **** 
 187:c:\users\vincius\documents\daisytoolchain-0.3.1\windows\arm-none-eabi\include\c++\10.2.1\cmath ****   inline _GLIBCXX_CONSTEXPR long double
 188:c:\users\vincius\documents\daisytoolchain-0.3.1\windows\arm-none-eabi\include\c++\10.2.1\cmath ****   cos(long double __x)
 189:c:\users\vincius\documents\daisytoolchain-0.3.1\windows\arm-none-eabi\include\c++\10.2.1\cmath ****   { return __builtin_cosl(__x); }
 190:c:\users\vincius\documents\daisytoolchain-0.3.1\windows\arm-none-eabi\include\c++\10.2.1\cmath **** #endif
 191:c:\users\vincius\documents\daisytoolchain-0.3.1\windows\arm-none-eabi\include\c++\10.2.1\cmath **** 
 192:c:\users\vincius\documents\daisytoolchain-0.3.1\windows\arm-none-eabi\include\c++\10.2.1\cmath ****   template<typename _Tp>
 193:c:\users\vincius\documents\daisytoolchain-0.3.1\windows\arm-none-eabi\include\c++\10.2.1\cmath ****     inline _GLIBCXX_CONSTEXPR
 194:c:\users\vincius\documents\daisytoolchain-0.3.1\windows\arm-none-eabi\include\c++\10.2.1\cmath ****     typename __gnu_cxx::__enable_if<__is_integer<_Tp>::__value,
 195:c:\users\vincius\documents\daisytoolchain-0.3.1\windows\arm-none-eabi\include\c++\10.2.1\cmath ****                                     double>::__type
 196:c:\users\vincius\documents\daisytoolchain-0.3.1\windows\arm-none-eabi\include\c++\10.2.1\cmath ****     cos(_Tp __x)
 197:c:\users\vincius\documents\daisytoolchain-0.3.1\windows\arm-none-eabi\include\c++\10.2.1\cmath ****     { return __builtin_cos(__x); }
 198:c:\users\vincius\documents\daisytoolchain-0.3.1\windows\arm-none-eabi\include\c++\10.2.1\cmath **** 
 199:c:\users\vincius\documents\daisytoolchain-0.3.1\windows\arm-none-eabi\include\c++\10.2.1\cmath ****   using ::cosh;
 200:c:\users\vincius\documents\daisytoolchain-0.3.1\windows\arm-none-eabi\include\c++\10.2.1\cmath **** 
 201:c:\users\vincius\documents\daisytoolchain-0.3.1\windows\arm-none-eabi\include\c++\10.2.1\cmath **** #ifndef __CORRECT_ISO_CPP_MATH_H_PROTO
 202:c:\users\vincius\documents\daisytoolchain-0.3.1\windows\arm-none-eabi\include\c++\10.2.1\cmath ****   inline _GLIBCXX_CONSTEXPR float
 203:c:\users\vincius\documents\daisytoolchain-0.3.1\windows\arm-none-eabi\include\c++\10.2.1\cmath ****   cosh(float __x)
 204:c:\users\vincius\documents\daisytoolchain-0.3.1\windows\arm-none-eabi\include\c++\10.2.1\cmath ****   { return __builtin_coshf(__x); }
 205:c:\users\vincius\documents\daisytoolchain-0.3.1\windows\arm-none-eabi\include\c++\10.2.1\cmath **** 
 206:c:\users\vincius\documents\daisytoolchain-0.3.1\windows\arm-none-eabi\include\c++\10.2.1\cmath ****   inline _GLIBCXX_CONSTEXPR long double
 207:c:\users\vincius\documents\daisytoolchain-0.3.1\windows\arm-none-eabi\include\c++\10.2.1\cmath ****   cosh(long double __x)
 208:c:\users\vincius\documents\daisytoolchain-0.3.1\windows\arm-none-eabi\include\c++\10.2.1\cmath ****   { return __builtin_coshl(__x); }
 209:c:\users\vincius\documents\daisytoolchain-0.3.1\windows\arm-none-eabi\include\c++\10.2.1\cmath **** #endif
 210:c:\users\vincius\documents\daisytoolchain-0.3.1\windows\arm-none-eabi\include\c++\10.2.1\cmath **** 
 211:c:\users\vincius\documents\daisytoolchain-0.3.1\windows\arm-none-eabi\include\c++\10.2.1\cmath ****   template<typename _Tp>
 212:c:\users\vincius\documents\daisytoolchain-0.3.1\windows\arm-none-eabi\include\c++\10.2.1\cmath ****     inline _GLIBCXX_CONSTEXPR
 213:c:\users\vincius\documents\daisytoolchain-0.3.1\windows\arm-none-eabi\include\c++\10.2.1\cmath ****     typename __gnu_cxx::__enable_if<__is_integer<_Tp>::__value,
 214:c:\users\vincius\documents\daisytoolchain-0.3.1\windows\arm-none-eabi\include\c++\10.2.1\cmath ****                                     double>::__type
 215:c:\users\vincius\documents\daisytoolchain-0.3.1\windows\arm-none-eabi\include\c++\10.2.1\cmath ****     cosh(_Tp __x)
 216:c:\users\vincius\documents\daisytoolchain-0.3.1\windows\arm-none-eabi\include\c++\10.2.1\cmath ****     { return __builtin_cosh(__x); }
 217:c:\users\vincius\documents\daisytoolchain-0.3.1\windows\arm-none-eabi\include\c++\10.2.1\cmath **** 
 218:c:\users\vincius\documents\daisytoolchain-0.3.1\windows\arm-none-eabi\include\c++\10.2.1\cmath ****   using ::exp;
 219:c:\users\vincius\documents\daisytoolchain-0.3.1\windows\arm-none-eabi\include\c++\10.2.1\cmath **** 
 220:c:\users\vincius\documents\daisytoolchain-0.3.1\windows\arm-none-eabi\include\c++\10.2.1\cmath **** #ifndef __CORRECT_ISO_CPP_MATH_H_PROTO
 221:c:\users\vincius\documents\daisytoolchain-0.3.1\windows\arm-none-eabi\include\c++\10.2.1\cmath ****   inline _GLIBCXX_CONSTEXPR float
 222:c:\users\vincius\documents\daisytoolchain-0.3.1\windows\arm-none-eabi\include\c++\10.2.1\cmath ****   exp(float __x)
 223:c:\users\vincius\documents\daisytoolchain-0.3.1\windows\arm-none-eabi\include\c++\10.2.1\cmath ****   { return __builtin_expf(__x); }
 224:c:\users\vincius\documents\daisytoolchain-0.3.1\windows\arm-none-eabi\include\c++\10.2.1\cmath **** 
 225:c:\users\vincius\documents\daisytoolchain-0.3.1\windows\arm-none-eabi\include\c++\10.2.1\cmath ****   inline _GLIBCXX_CONSTEXPR long double
 226:c:\users\vincius\documents\daisytoolchain-0.3.1\windows\arm-none-eabi\include\c++\10.2.1\cmath ****   exp(long double __x)
 227:c:\users\vincius\documents\daisytoolchain-0.3.1\windows\arm-none-eabi\include\c++\10.2.1\cmath ****   { return __builtin_expl(__x); }
 228:c:\users\vincius\documents\daisytoolchain-0.3.1\windows\arm-none-eabi\include\c++\10.2.1\cmath **** #endif
 229:c:\users\vincius\documents\daisytoolchain-0.3.1\windows\arm-none-eabi\include\c++\10.2.1\cmath **** 
 230:c:\users\vincius\documents\daisytoolchain-0.3.1\windows\arm-none-eabi\include\c++\10.2.1\cmath ****   template<typename _Tp>
 231:c:\users\vincius\documents\daisytoolchain-0.3.1\windows\arm-none-eabi\include\c++\10.2.1\cmath ****     inline _GLIBCXX_CONSTEXPR
 232:c:\users\vincius\documents\daisytoolchain-0.3.1\windows\arm-none-eabi\include\c++\10.2.1\cmath ****     typename __gnu_cxx::__enable_if<__is_integer<_Tp>::__value,
 233:c:\users\vincius\documents\daisytoolchain-0.3.1\windows\arm-none-eabi\include\c++\10.2.1\cmath ****                                     double>::__type
 234:c:\users\vincius\documents\daisytoolchain-0.3.1\windows\arm-none-eabi\include\c++\10.2.1\cmath ****     exp(_Tp __x)
 235:c:\users\vincius\documents\daisytoolchain-0.3.1\windows\arm-none-eabi\include\c++\10.2.1\cmath ****     { return __builtin_exp(__x); }
 236:c:\users\vincius\documents\daisytoolchain-0.3.1\windows\arm-none-eabi\include\c++\10.2.1\cmath **** 
 237:c:\users\vincius\documents\daisytoolchain-0.3.1\windows\arm-none-eabi\include\c++\10.2.1\cmath ****   using ::fabs;
 238:c:\users\vincius\documents\daisytoolchain-0.3.1\windows\arm-none-eabi\include\c++\10.2.1\cmath **** 
 239:c:\users\vincius\documents\daisytoolchain-0.3.1\windows\arm-none-eabi\include\c++\10.2.1\cmath **** #ifndef __CORRECT_ISO_CPP_MATH_H_PROTO
ARM GAS  C:\Users\VINCIU~1\AppData\Local\Temp\cc6DIkXk.s 			page 33


 240:c:\users\vincius\documents\daisytoolchain-0.3.1\windows\arm-none-eabi\include\c++\10.2.1\cmath ****   inline _GLIBCXX_CONSTEXPR float
 241:c:\users\vincius\documents\daisytoolchain-0.3.1\windows\arm-none-eabi\include\c++\10.2.1\cmath ****   fabs(float __x)
 242:c:\users\vincius\documents\daisytoolchain-0.3.1\windows\arm-none-eabi\include\c++\10.2.1\cmath ****   { return __builtin_fabsf(__x); }
 243:c:\users\vincius\documents\daisytoolchain-0.3.1\windows\arm-none-eabi\include\c++\10.2.1\cmath **** 
 244:c:\users\vincius\documents\daisytoolchain-0.3.1\windows\arm-none-eabi\include\c++\10.2.1\cmath ****   inline _GLIBCXX_CONSTEXPR long double
 245:c:\users\vincius\documents\daisytoolchain-0.3.1\windows\arm-none-eabi\include\c++\10.2.1\cmath ****   fabs(long double __x)
 246:c:\users\vincius\documents\daisytoolchain-0.3.1\windows\arm-none-eabi\include\c++\10.2.1\cmath ****   { return __builtin_fabsl(__x); }
 247:c:\users\vincius\documents\daisytoolchain-0.3.1\windows\arm-none-eabi\include\c++\10.2.1\cmath **** #endif
 248:c:\users\vincius\documents\daisytoolchain-0.3.1\windows\arm-none-eabi\include\c++\10.2.1\cmath **** 
 249:c:\users\vincius\documents\daisytoolchain-0.3.1\windows\arm-none-eabi\include\c++\10.2.1\cmath ****   template<typename _Tp>
 250:c:\users\vincius\documents\daisytoolchain-0.3.1\windows\arm-none-eabi\include\c++\10.2.1\cmath ****     inline _GLIBCXX_CONSTEXPR
 251:c:\users\vincius\documents\daisytoolchain-0.3.1\windows\arm-none-eabi\include\c++\10.2.1\cmath ****     typename __gnu_cxx::__enable_if<__is_integer<_Tp>::__value,
 252:c:\users\vincius\documents\daisytoolchain-0.3.1\windows\arm-none-eabi\include\c++\10.2.1\cmath ****                                     double>::__type
 253:c:\users\vincius\documents\daisytoolchain-0.3.1\windows\arm-none-eabi\include\c++\10.2.1\cmath ****     fabs(_Tp __x)
 254:c:\users\vincius\documents\daisytoolchain-0.3.1\windows\arm-none-eabi\include\c++\10.2.1\cmath ****     { return __builtin_fabs(__x); }
 255:c:\users\vincius\documents\daisytoolchain-0.3.1\windows\arm-none-eabi\include\c++\10.2.1\cmath **** 
 256:c:\users\vincius\documents\daisytoolchain-0.3.1\windows\arm-none-eabi\include\c++\10.2.1\cmath ****   using ::floor;
 257:c:\users\vincius\documents\daisytoolchain-0.3.1\windows\arm-none-eabi\include\c++\10.2.1\cmath **** 
 258:c:\users\vincius\documents\daisytoolchain-0.3.1\windows\arm-none-eabi\include\c++\10.2.1\cmath **** #ifndef __CORRECT_ISO_CPP_MATH_H_PROTO
 259:c:\users\vincius\documents\daisytoolchain-0.3.1\windows\arm-none-eabi\include\c++\10.2.1\cmath ****   inline _GLIBCXX_CONSTEXPR float
 260:c:\users\vincius\documents\daisytoolchain-0.3.1\windows\arm-none-eabi\include\c++\10.2.1\cmath ****   floor(float __x)
 261:c:\users\vincius\documents\daisytoolchain-0.3.1\windows\arm-none-eabi\include\c++\10.2.1\cmath ****   { return __builtin_floorf(__x); }
 262:c:\users\vincius\documents\daisytoolchain-0.3.1\windows\arm-none-eabi\include\c++\10.2.1\cmath **** 
 263:c:\users\vincius\documents\daisytoolchain-0.3.1\windows\arm-none-eabi\include\c++\10.2.1\cmath ****   inline _GLIBCXX_CONSTEXPR long double
 264:c:\users\vincius\documents\daisytoolchain-0.3.1\windows\arm-none-eabi\include\c++\10.2.1\cmath ****   floor(long double __x)
 265:c:\users\vincius\documents\daisytoolchain-0.3.1\windows\arm-none-eabi\include\c++\10.2.1\cmath ****   { return __builtin_floorl(__x); }
 266:c:\users\vincius\documents\daisytoolchain-0.3.1\windows\arm-none-eabi\include\c++\10.2.1\cmath **** #endif
 267:c:\users\vincius\documents\daisytoolchain-0.3.1\windows\arm-none-eabi\include\c++\10.2.1\cmath **** 
 268:c:\users\vincius\documents\daisytoolchain-0.3.1\windows\arm-none-eabi\include\c++\10.2.1\cmath ****   template<typename _Tp>
 269:c:\users\vincius\documents\daisytoolchain-0.3.1\windows\arm-none-eabi\include\c++\10.2.1\cmath ****     inline _GLIBCXX_CONSTEXPR
 270:c:\users\vincius\documents\daisytoolchain-0.3.1\windows\arm-none-eabi\include\c++\10.2.1\cmath ****     typename __gnu_cxx::__enable_if<__is_integer<_Tp>::__value,
 271:c:\users\vincius\documents\daisytoolchain-0.3.1\windows\arm-none-eabi\include\c++\10.2.1\cmath ****                                     double>::__type
 272:c:\users\vincius\documents\daisytoolchain-0.3.1\windows\arm-none-eabi\include\c++\10.2.1\cmath ****     floor(_Tp __x)
 273:c:\users\vincius\documents\daisytoolchain-0.3.1\windows\arm-none-eabi\include\c++\10.2.1\cmath ****     { return __builtin_floor(__x); }
 274:c:\users\vincius\documents\daisytoolchain-0.3.1\windows\arm-none-eabi\include\c++\10.2.1\cmath **** 
 275:c:\users\vincius\documents\daisytoolchain-0.3.1\windows\arm-none-eabi\include\c++\10.2.1\cmath ****   using ::fmod;
 276:c:\users\vincius\documents\daisytoolchain-0.3.1\windows\arm-none-eabi\include\c++\10.2.1\cmath **** 
 277:c:\users\vincius\documents\daisytoolchain-0.3.1\windows\arm-none-eabi\include\c++\10.2.1\cmath **** #ifndef __CORRECT_ISO_CPP_MATH_H_PROTO
 278:c:\users\vincius\documents\daisytoolchain-0.3.1\windows\arm-none-eabi\include\c++\10.2.1\cmath ****   inline _GLIBCXX_CONSTEXPR float
 279:c:\users\vincius\documents\daisytoolchain-0.3.1\windows\arm-none-eabi\include\c++\10.2.1\cmath ****   fmod(float __x, float __y)
 280:c:\users\vincius\documents\daisytoolchain-0.3.1\windows\arm-none-eabi\include\c++\10.2.1\cmath ****   { return __builtin_fmodf(__x, __y); }
 281:c:\users\vincius\documents\daisytoolchain-0.3.1\windows\arm-none-eabi\include\c++\10.2.1\cmath **** 
 282:c:\users\vincius\documents\daisytoolchain-0.3.1\windows\arm-none-eabi\include\c++\10.2.1\cmath ****   inline _GLIBCXX_CONSTEXPR long double
 283:c:\users\vincius\documents\daisytoolchain-0.3.1\windows\arm-none-eabi\include\c++\10.2.1\cmath ****   fmod(long double __x, long double __y)
 284:c:\users\vincius\documents\daisytoolchain-0.3.1\windows\arm-none-eabi\include\c++\10.2.1\cmath ****   { return __builtin_fmodl(__x, __y); }
 285:c:\users\vincius\documents\daisytoolchain-0.3.1\windows\arm-none-eabi\include\c++\10.2.1\cmath **** #endif
 286:c:\users\vincius\documents\daisytoolchain-0.3.1\windows\arm-none-eabi\include\c++\10.2.1\cmath **** 
 287:c:\users\vincius\documents\daisytoolchain-0.3.1\windows\arm-none-eabi\include\c++\10.2.1\cmath ****   template<typename _Tp, typename _Up>
 288:c:\users\vincius\documents\daisytoolchain-0.3.1\windows\arm-none-eabi\include\c++\10.2.1\cmath ****     inline _GLIBCXX_CONSTEXPR
 289:c:\users\vincius\documents\daisytoolchain-0.3.1\windows\arm-none-eabi\include\c++\10.2.1\cmath ****     typename __gnu_cxx::__promote_2<_Tp, _Up>::__type
 290:c:\users\vincius\documents\daisytoolchain-0.3.1\windows\arm-none-eabi\include\c++\10.2.1\cmath ****     fmod(_Tp __x, _Up __y)
 291:c:\users\vincius\documents\daisytoolchain-0.3.1\windows\arm-none-eabi\include\c++\10.2.1\cmath ****     {
 292:c:\users\vincius\documents\daisytoolchain-0.3.1\windows\arm-none-eabi\include\c++\10.2.1\cmath ****       typedef typename __gnu_cxx::__promote_2<_Tp, _Up>::__type __type;
 293:c:\users\vincius\documents\daisytoolchain-0.3.1\windows\arm-none-eabi\include\c++\10.2.1\cmath ****       return fmod(__type(__x), __type(__y));
 294:c:\users\vincius\documents\daisytoolchain-0.3.1\windows\arm-none-eabi\include\c++\10.2.1\cmath ****     }
 295:c:\users\vincius\documents\daisytoolchain-0.3.1\windows\arm-none-eabi\include\c++\10.2.1\cmath **** 
 296:c:\users\vincius\documents\daisytoolchain-0.3.1\windows\arm-none-eabi\include\c++\10.2.1\cmath ****   using ::frexp;
ARM GAS  C:\Users\VINCIU~1\AppData\Local\Temp\cc6DIkXk.s 			page 34


 297:c:\users\vincius\documents\daisytoolchain-0.3.1\windows\arm-none-eabi\include\c++\10.2.1\cmath **** 
 298:c:\users\vincius\documents\daisytoolchain-0.3.1\windows\arm-none-eabi\include\c++\10.2.1\cmath **** #ifndef __CORRECT_ISO_CPP_MATH_H_PROTO
 299:c:\users\vincius\documents\daisytoolchain-0.3.1\windows\arm-none-eabi\include\c++\10.2.1\cmath ****   inline float
 300:c:\users\vincius\documents\daisytoolchain-0.3.1\windows\arm-none-eabi\include\c++\10.2.1\cmath ****   frexp(float __x, int* __exp)
 301:c:\users\vincius\documents\daisytoolchain-0.3.1\windows\arm-none-eabi\include\c++\10.2.1\cmath ****   { return __builtin_frexpf(__x, __exp); }
 302:c:\users\vincius\documents\daisytoolchain-0.3.1\windows\arm-none-eabi\include\c++\10.2.1\cmath **** 
 303:c:\users\vincius\documents\daisytoolchain-0.3.1\windows\arm-none-eabi\include\c++\10.2.1\cmath ****   inline long double
 304:c:\users\vincius\documents\daisytoolchain-0.3.1\windows\arm-none-eabi\include\c++\10.2.1\cmath ****   frexp(long double __x, int* __exp)
 305:c:\users\vincius\documents\daisytoolchain-0.3.1\windows\arm-none-eabi\include\c++\10.2.1\cmath ****   { return __builtin_frexpl(__x, __exp); }
 306:c:\users\vincius\documents\daisytoolchain-0.3.1\windows\arm-none-eabi\include\c++\10.2.1\cmath **** #endif
 307:c:\users\vincius\documents\daisytoolchain-0.3.1\windows\arm-none-eabi\include\c++\10.2.1\cmath **** 
 308:c:\users\vincius\documents\daisytoolchain-0.3.1\windows\arm-none-eabi\include\c++\10.2.1\cmath ****   template<typename _Tp>
 309:c:\users\vincius\documents\daisytoolchain-0.3.1\windows\arm-none-eabi\include\c++\10.2.1\cmath ****     inline _GLIBCXX_CONSTEXPR
 310:c:\users\vincius\documents\daisytoolchain-0.3.1\windows\arm-none-eabi\include\c++\10.2.1\cmath ****     typename __gnu_cxx::__enable_if<__is_integer<_Tp>::__value, 
 311:c:\users\vincius\documents\daisytoolchain-0.3.1\windows\arm-none-eabi\include\c++\10.2.1\cmath ****                                     double>::__type
 312:c:\users\vincius\documents\daisytoolchain-0.3.1\windows\arm-none-eabi\include\c++\10.2.1\cmath ****     frexp(_Tp __x, int* __exp)
 313:c:\users\vincius\documents\daisytoolchain-0.3.1\windows\arm-none-eabi\include\c++\10.2.1\cmath ****     { return __builtin_frexp(__x, __exp); }
 314:c:\users\vincius\documents\daisytoolchain-0.3.1\windows\arm-none-eabi\include\c++\10.2.1\cmath **** 
 315:c:\users\vincius\documents\daisytoolchain-0.3.1\windows\arm-none-eabi\include\c++\10.2.1\cmath ****   using ::ldexp;
 316:c:\users\vincius\documents\daisytoolchain-0.3.1\windows\arm-none-eabi\include\c++\10.2.1\cmath **** 
 317:c:\users\vincius\documents\daisytoolchain-0.3.1\windows\arm-none-eabi\include\c++\10.2.1\cmath **** #ifndef __CORRECT_ISO_CPP_MATH_H_PROTO
 318:c:\users\vincius\documents\daisytoolchain-0.3.1\windows\arm-none-eabi\include\c++\10.2.1\cmath ****   inline _GLIBCXX_CONSTEXPR float
 319:c:\users\vincius\documents\daisytoolchain-0.3.1\windows\arm-none-eabi\include\c++\10.2.1\cmath ****   ldexp(float __x, int __exp)
 320:c:\users\vincius\documents\daisytoolchain-0.3.1\windows\arm-none-eabi\include\c++\10.2.1\cmath ****   { return __builtin_ldexpf(__x, __exp); }
 321:c:\users\vincius\documents\daisytoolchain-0.3.1\windows\arm-none-eabi\include\c++\10.2.1\cmath **** 
 322:c:\users\vincius\documents\daisytoolchain-0.3.1\windows\arm-none-eabi\include\c++\10.2.1\cmath ****   inline _GLIBCXX_CONSTEXPR long double
 323:c:\users\vincius\documents\daisytoolchain-0.3.1\windows\arm-none-eabi\include\c++\10.2.1\cmath ****   ldexp(long double __x, int __exp)
 324:c:\users\vincius\documents\daisytoolchain-0.3.1\windows\arm-none-eabi\include\c++\10.2.1\cmath ****   { return __builtin_ldexpl(__x, __exp); }
 325:c:\users\vincius\documents\daisytoolchain-0.3.1\windows\arm-none-eabi\include\c++\10.2.1\cmath **** #endif
 326:c:\users\vincius\documents\daisytoolchain-0.3.1\windows\arm-none-eabi\include\c++\10.2.1\cmath **** 
 327:c:\users\vincius\documents\daisytoolchain-0.3.1\windows\arm-none-eabi\include\c++\10.2.1\cmath ****   template<typename _Tp>
 328:c:\users\vincius\documents\daisytoolchain-0.3.1\windows\arm-none-eabi\include\c++\10.2.1\cmath ****     inline _GLIBCXX_CONSTEXPR
 329:c:\users\vincius\documents\daisytoolchain-0.3.1\windows\arm-none-eabi\include\c++\10.2.1\cmath ****     typename __gnu_cxx::__enable_if<__is_integer<_Tp>::__value, 
 330:c:\users\vincius\documents\daisytoolchain-0.3.1\windows\arm-none-eabi\include\c++\10.2.1\cmath ****                                     double>::__type
 331:c:\users\vincius\documents\daisytoolchain-0.3.1\windows\arm-none-eabi\include\c++\10.2.1\cmath ****     ldexp(_Tp __x, int __exp)
 332:c:\users\vincius\documents\daisytoolchain-0.3.1\windows\arm-none-eabi\include\c++\10.2.1\cmath ****     { return __builtin_ldexp(__x, __exp); }
 333:c:\users\vincius\documents\daisytoolchain-0.3.1\windows\arm-none-eabi\include\c++\10.2.1\cmath **** 
 334:c:\users\vincius\documents\daisytoolchain-0.3.1\windows\arm-none-eabi\include\c++\10.2.1\cmath ****   using ::log;
 335:c:\users\vincius\documents\daisytoolchain-0.3.1\windows\arm-none-eabi\include\c++\10.2.1\cmath **** 
 336:c:\users\vincius\documents\daisytoolchain-0.3.1\windows\arm-none-eabi\include\c++\10.2.1\cmath **** #ifndef __CORRECT_ISO_CPP_MATH_H_PROTO
 337:c:\users\vincius\documents\daisytoolchain-0.3.1\windows\arm-none-eabi\include\c++\10.2.1\cmath ****   inline _GLIBCXX_CONSTEXPR float
 338:c:\users\vincius\documents\daisytoolchain-0.3.1\windows\arm-none-eabi\include\c++\10.2.1\cmath ****   log(float __x)
 339:c:\users\vincius\documents\daisytoolchain-0.3.1\windows\arm-none-eabi\include\c++\10.2.1\cmath ****   { return __builtin_logf(__x); }
 340:c:\users\vincius\documents\daisytoolchain-0.3.1\windows\arm-none-eabi\include\c++\10.2.1\cmath **** 
 341:c:\users\vincius\documents\daisytoolchain-0.3.1\windows\arm-none-eabi\include\c++\10.2.1\cmath ****   inline _GLIBCXX_CONSTEXPR long double
 342:c:\users\vincius\documents\daisytoolchain-0.3.1\windows\arm-none-eabi\include\c++\10.2.1\cmath ****   log(long double __x)
 343:c:\users\vincius\documents\daisytoolchain-0.3.1\windows\arm-none-eabi\include\c++\10.2.1\cmath ****   { return __builtin_logl(__x); }
 344:c:\users\vincius\documents\daisytoolchain-0.3.1\windows\arm-none-eabi\include\c++\10.2.1\cmath **** #endif
 345:c:\users\vincius\documents\daisytoolchain-0.3.1\windows\arm-none-eabi\include\c++\10.2.1\cmath **** 
 346:c:\users\vincius\documents\daisytoolchain-0.3.1\windows\arm-none-eabi\include\c++\10.2.1\cmath ****   template<typename _Tp>
 347:c:\users\vincius\documents\daisytoolchain-0.3.1\windows\arm-none-eabi\include\c++\10.2.1\cmath ****     inline _GLIBCXX_CONSTEXPR
 348:c:\users\vincius\documents\daisytoolchain-0.3.1\windows\arm-none-eabi\include\c++\10.2.1\cmath ****     typename __gnu_cxx::__enable_if<__is_integer<_Tp>::__value, 
 349:c:\users\vincius\documents\daisytoolchain-0.3.1\windows\arm-none-eabi\include\c++\10.2.1\cmath ****                                     double>::__type
 350:c:\users\vincius\documents\daisytoolchain-0.3.1\windows\arm-none-eabi\include\c++\10.2.1\cmath ****     log(_Tp __x)
 351:c:\users\vincius\documents\daisytoolchain-0.3.1\windows\arm-none-eabi\include\c++\10.2.1\cmath ****     { return __builtin_log(__x); }
 352:c:\users\vincius\documents\daisytoolchain-0.3.1\windows\arm-none-eabi\include\c++\10.2.1\cmath **** 
 353:c:\users\vincius\documents\daisytoolchain-0.3.1\windows\arm-none-eabi\include\c++\10.2.1\cmath ****   using ::log10;
ARM GAS  C:\Users\VINCIU~1\AppData\Local\Temp\cc6DIkXk.s 			page 35


 354:c:\users\vincius\documents\daisytoolchain-0.3.1\windows\arm-none-eabi\include\c++\10.2.1\cmath **** 
 355:c:\users\vincius\documents\daisytoolchain-0.3.1\windows\arm-none-eabi\include\c++\10.2.1\cmath **** #ifndef __CORRECT_ISO_CPP_MATH_H_PROTO
 356:c:\users\vincius\documents\daisytoolchain-0.3.1\windows\arm-none-eabi\include\c++\10.2.1\cmath ****   inline _GLIBCXX_CONSTEXPR float
 357:c:\users\vincius\documents\daisytoolchain-0.3.1\windows\arm-none-eabi\include\c++\10.2.1\cmath ****   log10(float __x)
 358:c:\users\vincius\documents\daisytoolchain-0.3.1\windows\arm-none-eabi\include\c++\10.2.1\cmath ****   { return __builtin_log10f(__x); }
 359:c:\users\vincius\documents\daisytoolchain-0.3.1\windows\arm-none-eabi\include\c++\10.2.1\cmath **** 
 360:c:\users\vincius\documents\daisytoolchain-0.3.1\windows\arm-none-eabi\include\c++\10.2.1\cmath ****   inline _GLIBCXX_CONSTEXPR long double
 361:c:\users\vincius\documents\daisytoolchain-0.3.1\windows\arm-none-eabi\include\c++\10.2.1\cmath ****   log10(long double __x)
 362:c:\users\vincius\documents\daisytoolchain-0.3.1\windows\arm-none-eabi\include\c++\10.2.1\cmath ****   { return __builtin_log10l(__x); }
 363:c:\users\vincius\documents\daisytoolchain-0.3.1\windows\arm-none-eabi\include\c++\10.2.1\cmath **** #endif
 364:c:\users\vincius\documents\daisytoolchain-0.3.1\windows\arm-none-eabi\include\c++\10.2.1\cmath **** 
 365:c:\users\vincius\documents\daisytoolchain-0.3.1\windows\arm-none-eabi\include\c++\10.2.1\cmath ****   template<typename _Tp>
 366:c:\users\vincius\documents\daisytoolchain-0.3.1\windows\arm-none-eabi\include\c++\10.2.1\cmath ****     inline _GLIBCXX_CONSTEXPR
 367:c:\users\vincius\documents\daisytoolchain-0.3.1\windows\arm-none-eabi\include\c++\10.2.1\cmath ****     typename __gnu_cxx::__enable_if<__is_integer<_Tp>::__value,
 368:c:\users\vincius\documents\daisytoolchain-0.3.1\windows\arm-none-eabi\include\c++\10.2.1\cmath ****                                     double>::__type
 369:c:\users\vincius\documents\daisytoolchain-0.3.1\windows\arm-none-eabi\include\c++\10.2.1\cmath ****     log10(_Tp __x)
 370:c:\users\vincius\documents\daisytoolchain-0.3.1\windows\arm-none-eabi\include\c++\10.2.1\cmath ****     { return __builtin_log10(__x); }
 371:c:\users\vincius\documents\daisytoolchain-0.3.1\windows\arm-none-eabi\include\c++\10.2.1\cmath **** 
 372:c:\users\vincius\documents\daisytoolchain-0.3.1\windows\arm-none-eabi\include\c++\10.2.1\cmath ****   using ::modf;
 373:c:\users\vincius\documents\daisytoolchain-0.3.1\windows\arm-none-eabi\include\c++\10.2.1\cmath **** 
 374:c:\users\vincius\documents\daisytoolchain-0.3.1\windows\arm-none-eabi\include\c++\10.2.1\cmath **** #ifndef __CORRECT_ISO_CPP_MATH_H_PROTO
 375:c:\users\vincius\documents\daisytoolchain-0.3.1\windows\arm-none-eabi\include\c++\10.2.1\cmath ****   inline float
 376:c:\users\vincius\documents\daisytoolchain-0.3.1\windows\arm-none-eabi\include\c++\10.2.1\cmath ****   modf(float __x, float* __iptr)
 377:c:\users\vincius\documents\daisytoolchain-0.3.1\windows\arm-none-eabi\include\c++\10.2.1\cmath ****   { return __builtin_modff(__x, __iptr); }
 378:c:\users\vincius\documents\daisytoolchain-0.3.1\windows\arm-none-eabi\include\c++\10.2.1\cmath **** 
 379:c:\users\vincius\documents\daisytoolchain-0.3.1\windows\arm-none-eabi\include\c++\10.2.1\cmath ****   inline long double
 380:c:\users\vincius\documents\daisytoolchain-0.3.1\windows\arm-none-eabi\include\c++\10.2.1\cmath ****   modf(long double __x, long double* __iptr)
 381:c:\users\vincius\documents\daisytoolchain-0.3.1\windows\arm-none-eabi\include\c++\10.2.1\cmath ****   { return __builtin_modfl(__x, __iptr); }
 382:c:\users\vincius\documents\daisytoolchain-0.3.1\windows\arm-none-eabi\include\c++\10.2.1\cmath **** #endif
 383:c:\users\vincius\documents\daisytoolchain-0.3.1\windows\arm-none-eabi\include\c++\10.2.1\cmath **** 
 384:c:\users\vincius\documents\daisytoolchain-0.3.1\windows\arm-none-eabi\include\c++\10.2.1\cmath ****   using ::pow;
 385:c:\users\vincius\documents\daisytoolchain-0.3.1\windows\arm-none-eabi\include\c++\10.2.1\cmath **** 
 386:c:\users\vincius\documents\daisytoolchain-0.3.1\windows\arm-none-eabi\include\c++\10.2.1\cmath **** #ifndef __CORRECT_ISO_CPP_MATH_H_PROTO
 387:c:\users\vincius\documents\daisytoolchain-0.3.1\windows\arm-none-eabi\include\c++\10.2.1\cmath ****   inline _GLIBCXX_CONSTEXPR float
 388:c:\users\vincius\documents\daisytoolchain-0.3.1\windows\arm-none-eabi\include\c++\10.2.1\cmath ****   pow(float __x, float __y)
 389:c:\users\vincius\documents\daisytoolchain-0.3.1\windows\arm-none-eabi\include\c++\10.2.1\cmath ****   { return __builtin_powf(__x, __y); }
 390:c:\users\vincius\documents\daisytoolchain-0.3.1\windows\arm-none-eabi\include\c++\10.2.1\cmath **** 
 391:c:\users\vincius\documents\daisytoolchain-0.3.1\windows\arm-none-eabi\include\c++\10.2.1\cmath ****   inline _GLIBCXX_CONSTEXPR long double
 392:c:\users\vincius\documents\daisytoolchain-0.3.1\windows\arm-none-eabi\include\c++\10.2.1\cmath ****   pow(long double __x, long double __y)
 393:c:\users\vincius\documents\daisytoolchain-0.3.1\windows\arm-none-eabi\include\c++\10.2.1\cmath ****   { return __builtin_powl(__x, __y); }
 394:c:\users\vincius\documents\daisytoolchain-0.3.1\windows\arm-none-eabi\include\c++\10.2.1\cmath **** 
 395:c:\users\vincius\documents\daisytoolchain-0.3.1\windows\arm-none-eabi\include\c++\10.2.1\cmath **** #if __cplusplus < 201103L
 396:c:\users\vincius\documents\daisytoolchain-0.3.1\windows\arm-none-eabi\include\c++\10.2.1\cmath ****   // _GLIBCXX_RESOLVE_LIB_DEFECTS
 397:c:\users\vincius\documents\daisytoolchain-0.3.1\windows\arm-none-eabi\include\c++\10.2.1\cmath ****   // DR 550. What should the return type of pow(float,int) be?
 398:c:\users\vincius\documents\daisytoolchain-0.3.1\windows\arm-none-eabi\include\c++\10.2.1\cmath ****   inline double
 399:c:\users\vincius\documents\daisytoolchain-0.3.1\windows\arm-none-eabi\include\c++\10.2.1\cmath ****   pow(double __x, int __i)
 400:c:\users\vincius\documents\daisytoolchain-0.3.1\windows\arm-none-eabi\include\c++\10.2.1\cmath ****   { return __builtin_powi(__x, __i); }
 401:c:\users\vincius\documents\daisytoolchain-0.3.1\windows\arm-none-eabi\include\c++\10.2.1\cmath **** 
 402:c:\users\vincius\documents\daisytoolchain-0.3.1\windows\arm-none-eabi\include\c++\10.2.1\cmath ****   inline float
 403:c:\users\vincius\documents\daisytoolchain-0.3.1\windows\arm-none-eabi\include\c++\10.2.1\cmath ****   pow(float __x, int __n)
 404:c:\users\vincius\documents\daisytoolchain-0.3.1\windows\arm-none-eabi\include\c++\10.2.1\cmath ****   { return __builtin_powif(__x, __n); }
 405:c:\users\vincius\documents\daisytoolchain-0.3.1\windows\arm-none-eabi\include\c++\10.2.1\cmath **** 
 406:c:\users\vincius\documents\daisytoolchain-0.3.1\windows\arm-none-eabi\include\c++\10.2.1\cmath ****   inline long double
 407:c:\users\vincius\documents\daisytoolchain-0.3.1\windows\arm-none-eabi\include\c++\10.2.1\cmath ****   pow(long double __x, int __n)
 408:c:\users\vincius\documents\daisytoolchain-0.3.1\windows\arm-none-eabi\include\c++\10.2.1\cmath ****   { return __builtin_powil(__x, __n); }
 409:c:\users\vincius\documents\daisytoolchain-0.3.1\windows\arm-none-eabi\include\c++\10.2.1\cmath **** #endif
 410:c:\users\vincius\documents\daisytoolchain-0.3.1\windows\arm-none-eabi\include\c++\10.2.1\cmath **** #endif
ARM GAS  C:\Users\VINCIU~1\AppData\Local\Temp\cc6DIkXk.s 			page 36


 411:c:\users\vincius\documents\daisytoolchain-0.3.1\windows\arm-none-eabi\include\c++\10.2.1\cmath **** 
 412:c:\users\vincius\documents\daisytoolchain-0.3.1\windows\arm-none-eabi\include\c++\10.2.1\cmath ****   template<typename _Tp, typename _Up>
 413:c:\users\vincius\documents\daisytoolchain-0.3.1\windows\arm-none-eabi\include\c++\10.2.1\cmath ****     inline _GLIBCXX_CONSTEXPR
 414:c:\users\vincius\documents\daisytoolchain-0.3.1\windows\arm-none-eabi\include\c++\10.2.1\cmath ****     typename __gnu_cxx::__promote_2<_Tp, _Up>::__type
 415:c:\users\vincius\documents\daisytoolchain-0.3.1\windows\arm-none-eabi\include\c++\10.2.1\cmath ****     pow(_Tp __x, _Up __y)
 416:c:\users\vincius\documents\daisytoolchain-0.3.1\windows\arm-none-eabi\include\c++\10.2.1\cmath ****     {
 417:c:\users\vincius\documents\daisytoolchain-0.3.1\windows\arm-none-eabi\include\c++\10.2.1\cmath ****       typedef typename __gnu_cxx::__promote_2<_Tp, _Up>::__type __type;
 418:c:\users\vincius\documents\daisytoolchain-0.3.1\windows\arm-none-eabi\include\c++\10.2.1\cmath ****       return pow(__type(__x), __type(__y));
 419:c:\users\vincius\documents\daisytoolchain-0.3.1\windows\arm-none-eabi\include\c++\10.2.1\cmath ****     }
 420:c:\users\vincius\documents\daisytoolchain-0.3.1\windows\arm-none-eabi\include\c++\10.2.1\cmath **** 
 421:c:\users\vincius\documents\daisytoolchain-0.3.1\windows\arm-none-eabi\include\c++\10.2.1\cmath ****   using ::sin;
 422:c:\users\vincius\documents\daisytoolchain-0.3.1\windows\arm-none-eabi\include\c++\10.2.1\cmath **** 
 423:c:\users\vincius\documents\daisytoolchain-0.3.1\windows\arm-none-eabi\include\c++\10.2.1\cmath **** #ifndef __CORRECT_ISO_CPP_MATH_H_PROTO
 424:c:\users\vincius\documents\daisytoolchain-0.3.1\windows\arm-none-eabi\include\c++\10.2.1\cmath ****   inline _GLIBCXX_CONSTEXPR float
 425:c:\users\vincius\documents\daisytoolchain-0.3.1\windows\arm-none-eabi\include\c++\10.2.1\cmath ****   sin(float __x)
 426:c:\users\vincius\documents\daisytoolchain-0.3.1\windows\arm-none-eabi\include\c++\10.2.1\cmath ****   { return __builtin_sinf(__x); }
 882              		.loc 5 426 26 view .LVU191
 883 0068 B0EE680A 		vmov.f32	s0, s17
 884 006c FFF7FEFF 		bl	sinf
 885              	.LVL63:
 886              	.LBE283:
 887              	.LBE282:
 276:../../libdaisy/src/hid/disp/display.h ****         start_y = -sin(start_angle_rad) * radius;
 888              		.loc 3 276 17 view .LVU192
 889 0070 60EE698A 		vnmul.f32	s17, s0, s19
 890              	.LVL64:
 891              	.LBB285:
 892              	.LBB286:
 185:c:\users\vincius\documents\daisytoolchain-0.3.1\windows\arm-none-eabi\include\c++\10.2.1\cmath **** 
 893              		.loc 5 185 26 view .LVU193
 894 0074 B0EE4A0A 		vmov.f32	s0, s20
 895 0078 FFF7FEFF 		bl	cosf
 896              	.LVL65:
 897 007c B0EE409A 		vmov.f32	s18, s0
 898              	.LBE286:
 899              	.LBE285:
 900              	.LBB288:
 901              	.LBB289:
 902              		.loc 5 426 26 view .LVU194
 903 0080 B0EE4A0A 		vmov.f32	s0, s20
 904 0084 FFF7FEFF 		bl	sinf
 905              	.LVL66:
 906              	.LBE289:
 907              	.LBE288:
 277:../../libdaisy/src/hid/disp/display.h ****         end_x   = cos(end_angle_rad) * radius;
 278:../../libdaisy/src/hid/disp/display.h ****         end_y   = -sin(end_angle_rad) * radius;
 908              		.loc 3 278 17 view .LVU195
 909 0088 20EE690A 		vnmul.f32	s0, s0, s19
 275:../../libdaisy/src/hid/disp/display.h ****         start_y = -sin(start_angle_rad) * radius;
 910              		.loc 3 275 17 view .LVU196
 911 008c 29EE888A 		vmul.f32	s16, s19, s16
 912              	.LVL67:
 913              	.LBB291:
 914              	.LBI282:
 425:c:\users\vincius\documents\daisytoolchain-0.3.1\windows\arm-none-eabi\include\c++\10.2.1\cmath ****   { return __builtin_sinf(__x); }
 915              		.loc 5 425 3 is_stmt 1 view .LVU197
 916              	.LBB284:
ARM GAS  C:\Users\VINCIU~1\AppData\Local\Temp\cc6DIkXk.s 			page 37


 917              		.loc 5 426 5 view .LVU198
 918              		.loc 5 426 5 is_stmt 0 view .LVU199
 919              	.LBE284:
 920              	.LBE291:
 921              	.LBB292:
 922              	.LBI285:
 184:c:\users\vincius\documents\daisytoolchain-0.3.1\windows\arm-none-eabi\include\c++\10.2.1\cmath ****   { return __builtin_cosf(__x); }
 923              		.loc 5 184 3 is_stmt 1 view .LVU200
 924              	.LBB287:
 185:c:\users\vincius\documents\daisytoolchain-0.3.1\windows\arm-none-eabi\include\c++\10.2.1\cmath **** 
 925              		.loc 5 185 5 view .LVU201
 185:c:\users\vincius\documents\daisytoolchain-0.3.1\windows\arm-none-eabi\include\c++\10.2.1\cmath **** 
 926              		.loc 5 185 5 is_stmt 0 view .LVU202
 927              	.LBE287:
 928              	.LBE292:
 277:../../libdaisy/src/hid/disp/display.h ****         end_y   = -sin(end_angle_rad) * radius;
 929              		.loc 3 277 17 view .LVU203
 930 0090 29EE899A 		vmul.f32	s18, s19, s18
 931              	.LVL68:
 932              	.LBB293:
 933              	.LBI288:
 425:c:\users\vincius\documents\daisytoolchain-0.3.1\windows\arm-none-eabi\include\c++\10.2.1\cmath ****   { return __builtin_sinf(__x); }
 934              		.loc 5 425 3 is_stmt 1 view .LVU204
 935              	.LBB290:
 936              		.loc 5 426 5 view .LVU205
 937              		.loc 5 426 5 is_stmt 0 view .LVU206
 938              	.LBE290:
 939              	.LBE293:
 279:../../libdaisy/src/hid/disp/display.h **** 
 280:../../libdaisy/src/hid/disp/display.h ****         // Check if start and endpoint are very near
 281:../../libdaisy/src/hid/disp/display.h ****         if((end_x - start_x) * (end_x - start_x)
 282:../../libdaisy/src/hid/disp/display.h ****                + (end_y - start_y) * (end_y - start_y)
 940              		.loc 3 282 25 view .LVU207
 941 0094 70EE687A 		vsub.f32	s15, s0, s17
 281:../../libdaisy/src/hid/disp/display.h ****                + (end_y - start_y) * (end_y - start_y)
 942              		.loc 3 281 9 view .LVU208
 943 0098 F0EE006A 		vmov.f32	s13, #2.0e+0
 281:../../libdaisy/src/hid/disp/display.h ****                + (end_y - start_y) * (end_y - start_y)
 944              		.loc 3 281 19 view .LVU209
 945 009c 39EE487A 		vsub.f32	s14, s18, s16
 946              		.loc 3 282 36 view .LVU210
 947 00a0 67EEA77A 		vmul.f32	s15, s15, s15
 948              		.loc 3 282 16 view .LVU211
 949 00a4 E7EE077A 		vfma.f32	s15, s14, s14
 281:../../libdaisy/src/hid/disp/display.h ****                + (end_y - start_y) * (end_y - start_y)
 950              		.loc 3 281 9 view .LVU212
 951 00a8 F4EEE67A 		vcmpe.f32	s15, s13
 952 00ac F1EE10FA 		vmrs	APSR_nzcv, FPSCR
 953 00b0 06D5     		bpl	.L101
 283:../../libdaisy/src/hid/disp/display.h ****            < 2.0f)
 284:../../libdaisy/src/hid/disp/display.h ****         {
 285:../../libdaisy/src/hid/disp/display.h ****             if(sweep > 180)
 954              		.loc 3 285 13 view .LVU213
 955 00b2 139B     		ldr	r3, [sp, #76]
 956 00b4 B42B     		cmp	r3, #180
 957 00b6 40F39680 		ble	.L42
 286:../../libdaisy/src/hid/disp/display.h ****                 circle = true;
ARM GAS  C:\Users\VINCIU~1\AppData\Local\Temp\cc6DIkXk.s 			page 38


 958              		.loc 3 286 24 view .LVU214
 959 00ba 4FF00109 		mov	r9, #1
 960 00be 01E0     		b	.L45
 961              	.L101:
 264:../../libdaisy/src/hid/disp/display.h **** 
 962              		.loc 3 264 14 view .LVU215
 963 00c0 4FF00009 		mov	r9, #0
 964              	.L45:
 965              	.LVL69:
 262:../../libdaisy/src/hid/disp/display.h **** 
 966              		.loc 3 262 27 view .LVU216
 967 00c4 0124     		movs	r4, #1
 287:../../libdaisy/src/hid/disp/display.h ****             else
 288:../../libdaisy/src/hid/disp/display.h ****                 // Nothing to draw
 289:../../libdaisy/src/hid/disp/display.h ****                 return;
 290:../../libdaisy/src/hid/disp/display.h ****         }
 291:../../libdaisy/src/hid/disp/display.h **** 
 292:../../libdaisy/src/hid/disp/display.h ****         t_x = -radius;
 968              		.loc 3 292 13 view .LVU217
 969 00c6 7842     		rsbs	r0, r7, #0
 970              	.LVL70:
 293:../../libdaisy/src/hid/disp/display.h ****         t_y = 0;
 971              		.loc 3 293 13 view .LVU218
 972 00c8 4FF0000C 		mov	ip, #0
 973 00cc 0095     		str	r5, [sp]
 294:../../libdaisy/src/hid/disp/display.h ****         err = 2 - 2 * radius;
 974              		.loc 3 294 17 view .LVU219
 975 00ce E31B     		subs	r3, r4, r7
 262:../../libdaisy/src/hid/disp/display.h **** 
 976              		.loc 3 262 17 view .LVU220
 977 00d0 2146     		mov	r1, r4
 262:../../libdaisy/src/hid/disp/display.h **** 
 978              		.loc 3 262 22 view .LVU221
 979 00d2 2746     		mov	r7, r4
 980              	.LVL71:
 262:../../libdaisy/src/hid/disp/display.h **** 
 981              		.loc 3 262 12 view .LVU222
 982 00d4 2246     		mov	r2, r4
 983              		.loc 3 294 17 view .LVU223
 984 00d6 A340     		lsls	r3, r3, r4
 985              	.LVL72:
 986              	.L71:
 295:../../libdaisy/src/hid/disp/display.h **** 
 296:../../libdaisy/src/hid/disp/display.h ****         do
 297:../../libdaisy/src/hid/disp/display.h ****         {
 298:../../libdaisy/src/hid/disp/display.h ****             if(!circle)
 987              		.loc 3 298 13 view .LVU224
 988 00d8 B9F1000F 		cmp	r9, #0
 989 00dc 6AD1     		bne	.L47
 299:../../libdaisy/src/hid/disp/display.h ****             {
 300:../../libdaisy/src/hid/disp/display.h ****                 t_sxy  = start_x * t_y;
 301:../../libdaisy/src/hid/disp/display.h ****                 t_syx  = start_y * t_x;
 302:../../libdaisy/src/hid/disp/display.h ****                 t_sxny = start_x * -t_y;
 303:../../libdaisy/src/hid/disp/display.h ****                 t_synx = start_y * -t_x;
 990              		.loc 3 303 34 view .LVU225
 991 00de 4242     		rsbs	r2, r0, #0
 992              	.LVL73:
ARM GAS  C:\Users\VINCIU~1\AppData\Local\Temp\cc6DIkXk.s 			page 39


 300:../../libdaisy/src/hid/disp/display.h ****                 t_syx  = start_y * t_x;
 993              		.loc 3 300 24 view .LVU226
 994 00e0 06EE90CA 		vmov	s13, ip	@ int
 302:../../libdaisy/src/hid/disp/display.h ****                 t_synx = start_y * -t_x;
 995              		.loc 3 302 34 view .LVU227
 996 00e4 CCF10001 		rsb	r1, ip, #0
 997              	.LVL74:
 998              		.loc 3 303 34 view .LVU228
 999 00e8 07EE102A 		vmov	s14, r2	@ int
 300:../../libdaisy/src/hid/disp/display.h ****                 t_syx  = start_y * t_x;
 1000              		.loc 3 300 24 view .LVU229
 1001 00ec B8EEE66A 		vcvt.f32.s32	s12, s13
 302:../../libdaisy/src/hid/disp/display.h ****                 t_synx = start_y * -t_x;
 1002              		.loc 3 302 34 view .LVU230
 1003 00f0 07EE901A 		vmov	s15, r1	@ int
 301:../../libdaisy/src/hid/disp/display.h ****                 t_sxny = start_x * -t_y;
 1004              		.loc 3 301 24 view .LVU231
 1005 00f4 06EE900A 		vmov	s13, r0	@ int
 1006              		.loc 3 303 34 view .LVU232
 1007 00f8 B8EEC77A 		vcvt.f32.s32	s14, s14
 304:../../libdaisy/src/hid/disp/display.h ****                 t_exy  = end_x * t_y;
 305:../../libdaisy/src/hid/disp/display.h ****                 t_eyx  = end_y * t_x;
 306:../../libdaisy/src/hid/disp/display.h ****                 t_exny = end_x * -t_y;
 307:../../libdaisy/src/hid/disp/display.h ****                 t_eynx = end_y * -t_x;
 308:../../libdaisy/src/hid/disp/display.h **** 
 309:../../libdaisy/src/hid/disp/display.h ****                 if(sweep > 180)
 1008              		.loc 3 309 17 view .LVU233
 1009 00fc 139A     		ldr	r2, [sp, #76]
 300:../../libdaisy/src/hid/disp/display.h ****                 t_syx  = start_y * t_x;
 1010              		.loc 3 300 24 view .LVU234
 1011 00fe 66EE084A 		vmul.f32	s9, s12, s16
 1012              	.LVL75:
 302:../../libdaisy/src/hid/disp/display.h ****                 t_synx = start_y * -t_x;
 1013              		.loc 3 302 34 view .LVU235
 1014 0102 F8EEE77A 		vcvt.f32.s32	s15, s15
 1015              		.loc 3 309 17 view .LVU236
 1016 0106 B42A     		cmp	r2, #180
 303:../../libdaisy/src/hid/disp/display.h ****                 t_exy  = end_x * t_y;
 1017              		.loc 3 303 24 view .LVU237
 1018 0108 27EE284A 		vmul.f32	s8, s14, s17
 301:../../libdaisy/src/hid/disp/display.h ****                 t_sxny = start_x * -t_y;
 1019              		.loc 3 301 24 view .LVU238
 1020 010c F8EEE66A 		vcvt.f32.s32	s13, s13
 302:../../libdaisy/src/hid/disp/display.h ****                 t_synx = start_y * -t_x;
 1021              		.loc 3 302 24 view .LVU239
 1022 0110 67EE885A 		vmul.f32	s11, s15, s16
 310:../../libdaisy/src/hid/disp/display.h ****                 {
 311:../../libdaisy/src/hid/disp/display.h ****                     d1 = (t_sxy - t_synx < 0 || t_exy - t_eynx > 0);
 1023              		.loc 3 311 33 view .LVU240
 1024 0114 74EEC43A 		vsub.f32	s7, s9, s8
 301:../../libdaisy/src/hid/disp/display.h ****                 t_sxny = start_x * -t_y;
 1025              		.loc 3 301 24 view .LVU241
 1026 0118 26EEA85A 		vmul.f32	s10, s13, s17
 1027              	.LVL76:
 304:../../libdaisy/src/hid/disp/display.h ****                 t_eyx  = end_y * t_x;
 1028              		.loc 3 304 24 view .LVU242
 1029 011c 26EE096A 		vmul.f32	s12, s12, s18
ARM GAS  C:\Users\VINCIU~1\AppData\Local\Temp\cc6DIkXk.s 			page 40


 1030              	.LVL77:
 305:../../libdaisy/src/hid/disp/display.h ****                 t_exny = end_x * -t_y;
 1031              		.loc 3 305 24 view .LVU243
 1032 0120 66EE806A 		vmul.f32	s13, s13, s0
 1033              	.LVL78:
 306:../../libdaisy/src/hid/disp/display.h ****                 t_eynx = end_y * -t_x;
 1034              		.loc 3 306 24 view .LVU244
 1035 0124 67EE897A 		vmul.f32	s15, s15, s18
 1036              	.LVL79:
 307:../../libdaisy/src/hid/disp/display.h **** 
 1037              		.loc 3 307 24 view .LVU245
 1038 0128 27EE007A 		vmul.f32	s14, s14, s0
 1039              	.LVL80:
 1040              		.loc 3 311 46 view .LVU246
 1041 012c F5EEC03A 		vcmpe.f32	s7, #0
 309:../../libdaisy/src/hid/disp/display.h ****                 {
 1042              		.loc 3 309 17 view .LVU247
 1043 0130 40F3F280 		ble	.L48
 1044              		.loc 3 311 46 view .LVU248
 1045 0134 F1EE10FA 		vmrs	APSR_nzcv, FPSCR
 1046 0138 00F17F81 		bmi	.L74
 1047              		.loc 3 311 55 discriminator 2 view .LVU249
 1048 013c 76EE473A 		vsub.f32	s7, s12, s14
 312:../../libdaisy/src/hid/disp/display.h ****                     d2 = (t_sxy - t_syx < 0 || t_exy - t_eyx > 0);
 1049              		.loc 3 312 33 discriminator 2 view .LVU250
 1050 0140 74EEC54A 		vsub.f32	s9, s9, s10
 1051              	.LVL81:
 311:../../libdaisy/src/hid/disp/display.h ****                     d2 = (t_sxy - t_syx < 0 || t_exy - t_eyx > 0);
 1052              		.loc 3 311 46 discriminator 2 view .LVU251
 1053 0144 F5EEC03A 		vcmpe.f32	s7, #0
 1054 0148 F1EE10FA 		vmrs	APSR_nzcv, FPSCR
 1055              		.loc 3 312 45 discriminator 2 view .LVU252
 1056 014c F5EEC04A 		vcmpe.f32	s9, #0
 311:../../libdaisy/src/hid/disp/display.h ****                     d2 = (t_sxy - t_syx < 0 || t_exy - t_eyx > 0);
 1057              		.loc 3 311 46 discriminator 2 view .LVU253
 1058 0150 CCBF     		ite	gt
 1059 0152 0122     		movgt	r2, #1
 1060 0154 0022     		movle	r2, #0
 1061              	.LVL82:
 1062              		.loc 3 312 45 discriminator 2 view .LVU254
 1063 0156 F1EE10FA 		vmrs	APSR_nzcv, FPSCR
 1064 015a 00F17781 		bmi	.L75
 1065              	.L117:
 1066              		.loc 3 312 54 discriminator 2 view .LVU255
 1067 015e 36EE666A 		vsub.f32	s12, s12, s13
 1068              	.LVL83:
 313:../../libdaisy/src/hid/disp/display.h ****                     d3 = (t_sxny - t_syx < 0 || t_exny - t_eyx > 0);
 1069              		.loc 3 313 34 discriminator 2 view .LVU256
 1070 0162 35EEC55A 		vsub.f32	s10, s11, s10
 1071              	.LVL84:
 312:../../libdaisy/src/hid/disp/display.h ****                     d2 = (t_sxy - t_syx < 0 || t_exy - t_eyx > 0);
 1072              		.loc 3 312 45 discriminator 2 view .LVU257
 1073 0166 B5EEC06A 		vcmpe.f32	s12, #0
 1074 016a F1EE10FA 		vmrs	APSR_nzcv, FPSCR
 1075              		.loc 3 313 46 discriminator 2 view .LVU258
 1076 016e B5EEC05A 		vcmpe.f32	s10, #0
 312:../../libdaisy/src/hid/disp/display.h ****                     d2 = (t_sxy - t_syx < 0 || t_exy - t_eyx > 0);
ARM GAS  C:\Users\VINCIU~1\AppData\Local\Temp\cc6DIkXk.s 			page 41


 1077              		.loc 3 312 45 discriminator 2 view .LVU259
 1078 0172 CCBF     		ite	gt
 1079 0174 0121     		movgt	r1, #1
 1080 0176 0021     		movle	r1, #0
 1081              	.LVL85:
 1082              		.loc 3 313 46 discriminator 2 view .LVU260
 1083 0178 F1EE10FA 		vmrs	APSR_nzcv, FPSCR
 1084 017c 00F16F81 		bmi	.L76
 1085              	.L118:
 1086              		.loc 3 313 56 discriminator 2 view .LVU261
 1087 0180 77EEE66A 		vsub.f32	s13, s15, s13
 1088              	.LVL86:
 1089              		.loc 3 313 46 discriminator 2 view .LVU262
 1090 0184 F5EEC06A 		vcmpe.f32	s13, #0
 1091 0188 F1EE10FA 		vmrs	APSR_nzcv, FPSCR
 1092 018c CCBF     		ite	gt
 1093 018e 0127     		movgt	r7, #1
 1094              	.LVL87:
 1095              		.loc 3 313 46 discriminator 2 view .LVU263
 1096 0190 0027     		movle	r7, #0
 1097              	.L51:
 1098              	.LVL88:
 314:../../libdaisy/src/hid/disp/display.h ****                     d4 = (t_sxny - t_synx < 0 || t_exny - t_eynx > 0);
 1099              		.loc 3 314 34 discriminator 6 view .LVU264
 1100 0192 75EEC45A 		vsub.f32	s11, s11, s8
 1101              	.LVL89:
 1102              		.loc 3 314 47 discriminator 6 view .LVU265
 1103 0196 F5EEC05A 		vcmpe.f32	s11, #0
 1104 019a F1EE10FA 		vmrs	APSR_nzcv, FPSCR
 1105 019e 00F14781 		bmi	.L77
 1106              	.L107:
 315:../../libdaisy/src/hid/disp/display.h ****                 }
 316:../../libdaisy/src/hid/disp/display.h ****                 else
 317:../../libdaisy/src/hid/disp/display.h ****                 {
 318:../../libdaisy/src/hid/disp/display.h ****                     d1 = (t_sxy - t_synx < 0 && t_exy - t_eynx > 0);
 319:../../libdaisy/src/hid/disp/display.h ****                     d2 = (t_sxy - t_syx < 0 && t_exy - t_eyx > 0);
 320:../../libdaisy/src/hid/disp/display.h ****                     d3 = (t_sxny - t_syx < 0 && t_exny - t_eyx > 0);
 321:../../libdaisy/src/hid/disp/display.h ****                     d4 = (t_sxny - t_synx < 0 && t_exny - t_eynx > 0);
 1107              		.loc 3 321 57 discriminator 1 view .LVU266
 1108 01a2 77EEC77A 		vsub.f32	s15, s15, s14
 1109              	.LVL90:
 1110              		.loc 3 321 47 discriminator 1 view .LVU267
 1111 01a6 F5EEC07A 		vcmpe.f32	s15, #0
 1112 01aa F1EE10FA 		vmrs	APSR_nzcv, FPSCR
 1113 01ae CCBF     		ite	gt
 1114 01b0 0124     		movgt	r4, #1
 1115              	.LVL91:
 1116              		.loc 3 321 47 discriminator 1 view .LVU268
 1117 01b2 0024     		movle	r4, #0
 1118              	.LVL92:
 1119              	.L47:
 322:../../libdaisy/src/hid/disp/display.h ****                 }
 323:../../libdaisy/src/hid/disp/display.h ****             }
 324:../../libdaisy/src/hid/disp/display.h **** 
 325:../../libdaisy/src/hid/disp/display.h ****             if(d1)
 1120              		.loc 3 325 13 view .LVU269
 1121 01b4 002A     		cmp	r2, #0
ARM GAS  C:\Users\VINCIU~1\AppData\Local\Temp\cc6DIkXk.s 			page 42


 1122 01b6 40F08A80 		bne	.L108
 1123              	.L59:
 326:../../libdaisy/src/hid/disp/display.h ****                 ((ChildType*)(this))
 327:../../libdaisy/src/hid/disp/display.h ****                     ->ChildType::DrawPixel(x - t_x, y + t_y, on);
 328:../../libdaisy/src/hid/disp/display.h ****             if(d2)
 1124              		.loc 3 328 13 view .LVU270
 1125 01ba 0029     		cmp	r1, #0
 1126 01bc 64D1     		bne	.L109
 1127              	.L61:
 329:../../libdaisy/src/hid/disp/display.h ****                 ((ChildType*)(this))
 330:../../libdaisy/src/hid/disp/display.h ****                     ->ChildType::DrawPixel(x + t_x, y + t_y, on);
 331:../../libdaisy/src/hid/disp/display.h ****             if(d3)
 1128              		.loc 3 331 13 view .LVU271
 1129 01be BFB9     		cbnz	r7, .L110
 1130              	.L63:
 332:../../libdaisy/src/hid/disp/display.h ****                 ((ChildType*)(this))
 333:../../libdaisy/src/hid/disp/display.h ****                     ->ChildType::DrawPixel(x + t_x, y - t_y, on);
 334:../../libdaisy/src/hid/disp/display.h ****             if(d4)
 1131              		.loc 3 334 13 view .LVU272
 1132 01c0 C4BB     		cbnz	r4, .L111
 1133              	.L65:
 1134              	.LVL93:
 335:../../libdaisy/src/hid/disp/display.h ****                 ((ChildType*)(this))
 336:../../libdaisy/src/hid/disp/display.h ****                     ->ChildType::DrawPixel(x - t_x, y - t_y, on);
 337:../../libdaisy/src/hid/disp/display.h **** 
 338:../../libdaisy/src/hid/disp/display.h ****             e2 = err;
 339:../../libdaisy/src/hid/disp/display.h ****             if(e2 <= t_y)
 1135              		.loc 3 339 13 view .LVU273
 1136 01c2 9C45     		cmp	ip, r3
 1137 01c4 58DB     		blt	.L82
 1138              	.L113:
 340:../../libdaisy/src/hid/disp/display.h ****             {
 341:../../libdaisy/src/hid/disp/display.h ****                 t_y++;
 1139              		.loc 3 341 17 view .LVU274
 1140 01c6 0CF1010C 		add	ip, ip, #1
 1141              	.LVL94:
 342:../../libdaisy/src/hid/disp/display.h ****                 err = err + (t_y * 2 + 1);
 1142              		.loc 3 342 38 view .LVU275
 1143 01ca 03EB4C0E 		add	lr, r3, ip, lsl #1
 343:../../libdaisy/src/hid/disp/display.h ****                 if(-t_x == t_y && e2 <= t_x)
 1144              		.loc 3 343 17 view .LVU276
 1145 01ce 1CEB000F 		cmn	ip, r0
 342:../../libdaisy/src/hid/disp/display.h ****                 err = err + (t_y * 2 + 1);
 1146              		.loc 3 342 21 view .LVU277
 1147 01d2 0EF1010E 		add	lr, lr, #1
 1148              	.LVL95:
 1149              		.loc 3 343 17 view .LVU278
 1150 01d6 00F0C080 		beq	.L112
 1151              	.LVL96:
 1152              	.L67:
 344:../../libdaisy/src/hid/disp/display.h ****                 {
 345:../../libdaisy/src/hid/disp/display.h ****                     e2 = 0;
 346:../../libdaisy/src/hid/disp/display.h ****                 }
 347:../../libdaisy/src/hid/disp/display.h ****             }
 348:../../libdaisy/src/hid/disp/display.h ****             if(e2 > t_x)
 1153              		.loc 3 348 13 view .LVU279
 1154 01da 9842     		cmp	r0, r3
ARM GAS  C:\Users\VINCIU~1\AppData\Local\Temp\cc6DIkXk.s 			page 43


 1155 01dc 4FDB     		blt	.L68
 1156              	.L83:
 1157              		.loc 3 348 13 view .LVU280
 1158 01de 7346     		mov	r3, lr
 1159              	.LVL97:
 1160              	.L69:
 349:../../libdaisy/src/hid/disp/display.h ****             {
 350:../../libdaisy/src/hid/disp/display.h ****                 t_x++;
 351:../../libdaisy/src/hid/disp/display.h ****                 err = err + (t_x * 2 + 1);
 352:../../libdaisy/src/hid/disp/display.h ****             }
 353:../../libdaisy/src/hid/disp/display.h ****         } while(t_x <= 0);
 1161              		.loc 3 353 21 is_stmt 1 view .LVU281
 1162 01e0 0028     		cmp	r0, #0
 1163 01e2 7FF779AF 		ble	.L71
 1164              	.LVL98:
 1165              	.L42:
 354:../../libdaisy/src/hid/disp/display.h ****     }
 1166              		.loc 3 354 5 is_stmt 0 view .LVU282
 1167 01e6 03B0     		add	sp, sp, #12
 1168              		.cfi_remember_state
 1169              		.cfi_def_cfa_offset 60
 1170              		@ sp needed
 1171 01e8 BDEC068B 		vldm	sp!, {d8-d10}
 1172              		.cfi_restore 84
 1173              		.cfi_restore 85
 1174              		.cfi_restore 82
 1175              		.cfi_restore 83
 1176              		.cfi_restore 80
 1177              		.cfi_restore 81
 1178              		.cfi_def_cfa_offset 36
 1179              	.LVL99:
 1180              		.loc 3 354 5 view .LVU283
 1181 01ec BDE8F08F 		pop	{r4, r5, r6, r7, r8, r9, r10, fp, pc}
 1182              	.LVL100:
 1183              	.L110:
 1184              		.cfi_restore_state
 333:../../libdaisy/src/hid/disp/display.h ****             if(d4)
 1185              		.loc 3 333 43 view .LVU284
 1186 01f0 009D     		ldr	r5, [sp]
 1187 01f2 A6EB0C0E 		sub	lr, r6, ip
 1188 01f6 00EB050A 		add	r10, r0, r5
 1189              	.LVL101:
 1190              	.LBB294:
 1191              	.LBI294:
  41:../../libdaisy/src/hid/disp/oled_display.h ****     {
 1192              		.loc 2 41 10 is_stmt 1 view .LVU285
 1193              	.LBB295:
 1194              	.LBI295:
 239:../../libdaisy/src/dev/oled_ssd130x.h ****     {
 1195              		.loc 4 239 10 view .LVU286
 1196              	.LBB296:
 241:../../libdaisy/src/dev/oled_ssd130x.h ****             return;
 1197              		.loc 4 241 9 is_stmt 0 view .LVU287
 1198 01fa BAF17F0F 		cmp	r10, #127
 1199 01fe DFD8     		bhi	.L63
 1200 0200 BEF13F0F 		cmp	lr, #63
 1201 0204 DCD8     		bhi	.L63
ARM GAS  C:\Users\VINCIU~1\AppData\Local\Temp\cc6DIkXk.s 			page 44


 244:../../libdaisy/src/dev/oled_ssd130x.h ****         else
 1202              		.loc 4 244 28 view .LVU288
 1203 0206 4FEADE0B 		lsr	fp, lr, #3
 243:../../libdaisy/src/dev/oled_ssd130x.h ****             buffer_[x + (y / 8) * width] |= (1 << (y % 8));
 1204              		.loc 4 243 9 view .LVU289
 1205 020a 019D     		ldr	r5, [sp, #4]
 244:../../libdaisy/src/dev/oled_ssd130x.h ****         else
 1206              		.loc 4 244 42 view .LVU290
 1207 020c 0AEBCB1A 		add	r10, r10, fp, lsl #7
 1208              	.LVL102:
 243:../../libdaisy/src/dev/oled_ssd130x.h ****             buffer_[x + (y / 8) * width] |= (1 << (y % 8));
 1209              		.loc 4 243 9 view .LVU291
 1210 0210 002D     		cmp	r5, #0
 1211 0212 00F0B180 		beq	.L64
 244:../../libdaisy/src/dev/oled_ssd130x.h ****         else
 1212              		.loc 4 244 54 view .LVU292
 1213 0216 0EF0070B 		and	fp, lr, #7
 244:../../libdaisy/src/dev/oled_ssd130x.h ****         else
 1214              		.loc 4 244 42 view .LVU293
 1215 021a C244     		add	r10, r10, r8
 244:../../libdaisy/src/dev/oled_ssd130x.h ****         else
 1216              		.loc 4 244 48 view .LVU294
 1217 021c 4FF0010E 		mov	lr, #1
 1218              	.LVL103:
 244:../../libdaisy/src/dev/oled_ssd130x.h ****         else
 1219              		.loc 4 244 48 view .LVU295
 1220 0220 0EFA0BFE 		lsl	lr, lr, fp
 244:../../libdaisy/src/dev/oled_ssd130x.h ****         else
 1221              		.loc 4 244 42 view .LVU296
 1222 0224 9AF814B0 		ldrb	fp, [r10, #20]	@ zero_extendqisi2
 1223 0228 4EEA0B0E 		orr	lr, lr, fp
 1224 022c 8AF814E0 		strb	lr, [r10, #20]
 1225              	.LVL104:
 244:../../libdaisy/src/dev/oled_ssd130x.h ****         else
 1226              		.loc 4 244 42 view .LVU297
 1227              	.LBE296:
 1228              	.LBE295:
 1229              	.LBE294:
 334:../../libdaisy/src/hid/disp/display.h ****                 ((ChildType*)(this))
 1230              		.loc 3 334 13 view .LVU298
 1231 0230 002C     		cmp	r4, #0
 1232 0232 C6D0     		beq	.L65
 1233              	.L111:
 336:../../libdaisy/src/hid/disp/display.h **** 
 1234              		.loc 3 336 43 view .LVU299
 1235 0234 009D     		ldr	r5, [sp]
 1236 0236 A6EB0C0E 		sub	lr, r6, ip
 1237 023a A5EB000A 		sub	r10, r5, r0
 1238              	.LVL105:
 1239              	.LBB301:
 1240              	.LBI301:
  41:../../libdaisy/src/hid/disp/oled_display.h ****     {
 1241              		.loc 2 41 10 is_stmt 1 view .LVU300
 1242              	.LBB302:
 1243              	.LBI302:
 239:../../libdaisy/src/dev/oled_ssd130x.h ****     {
 1244              		.loc 4 239 10 view .LVU301
ARM GAS  C:\Users\VINCIU~1\AppData\Local\Temp\cc6DIkXk.s 			page 45


 1245              	.LBB303:
 241:../../libdaisy/src/dev/oled_ssd130x.h ****             return;
 1246              		.loc 4 241 9 is_stmt 0 view .LVU302
 1247 023e BAF17F0F 		cmp	r10, #127
 1248 0242 BED8     		bhi	.L65
 1249 0244 BEF13F0F 		cmp	lr, #63
 1250 0248 BBD8     		bhi	.L65
 244:../../libdaisy/src/dev/oled_ssd130x.h ****         else
 1251              		.loc 4 244 28 view .LVU303
 1252 024a 4FEADE0B 		lsr	fp, lr, #3
 243:../../libdaisy/src/dev/oled_ssd130x.h ****             buffer_[x + (y / 8) * width] |= (1 << (y % 8));
 1253              		.loc 4 243 9 view .LVU304
 1254 024e 019D     		ldr	r5, [sp, #4]
 244:../../libdaisy/src/dev/oled_ssd130x.h ****         else
 1255              		.loc 4 244 42 view .LVU305
 1256 0250 0AEBCB1A 		add	r10, r10, fp, lsl #7
 1257              	.LVL106:
 243:../../libdaisy/src/dev/oled_ssd130x.h ****             buffer_[x + (y / 8) * width] |= (1 << (y % 8));
 1258              		.loc 4 243 9 view .LVU306
 1259 0254 002D     		cmp	r5, #0
 1260 0256 00F0AE80 		beq	.L66
 244:../../libdaisy/src/dev/oled_ssd130x.h ****         else
 1261              		.loc 4 244 54 view .LVU307
 1262 025a 0EF0070B 		and	fp, lr, #7
 244:../../libdaisy/src/dev/oled_ssd130x.h ****         else
 1263              		.loc 4 244 42 view .LVU308
 1264 025e C244     		add	r10, r10, r8
 244:../../libdaisy/src/dev/oled_ssd130x.h ****         else
 1265              		.loc 4 244 48 view .LVU309
 1266 0260 4FF0010E 		mov	lr, #1
 1267              	.LVL107:
 244:../../libdaisy/src/dev/oled_ssd130x.h ****         else
 1268              		.loc 4 244 48 view .LVU310
 1269              	.LBE303:
 1270              	.LBE302:
 1271              	.LBE301:
 339:../../libdaisy/src/hid/disp/display.h ****             {
 1272              		.loc 3 339 13 view .LVU311
 1273 0264 9C45     		cmp	ip, r3
 1274              	.LBB310:
 1275              	.LBB308:
 1276              	.LBB306:
 244:../../libdaisy/src/dev/oled_ssd130x.h ****         else
 1277              		.loc 4 244 48 view .LVU312
 1278 0266 0EFA0BFE 		lsl	lr, lr, fp
 244:../../libdaisy/src/dev/oled_ssd130x.h ****         else
 1279              		.loc 4 244 42 view .LVU313
 1280 026a 9AF814B0 		ldrb	fp, [r10, #20]	@ zero_extendqisi2
 1281 026e 4EEA0B0E 		orr	lr, lr, fp
 1282 0272 8AF814E0 		strb	lr, [r10, #20]
 1283              	.LVL108:
 244:../../libdaisy/src/dev/oled_ssd130x.h ****         else
 1284              		.loc 4 244 42 view .LVU314
 1285              	.LBE306:
 1286              	.LBE308:
 1287              	.LBE310:
 339:../../libdaisy/src/hid/disp/display.h ****             {
ARM GAS  C:\Users\VINCIU~1\AppData\Local\Temp\cc6DIkXk.s 			page 46


 1288              		.loc 3 339 13 view .LVU315
 1289 0276 A6DA     		bge	.L113
 1290              	.L82:
 348:../../libdaisy/src/hid/disp/display.h ****             {
 1291              		.loc 3 348 13 view .LVU316
 1292 0278 9842     		cmp	r0, r3
 1293 027a 9E46     		mov	lr, r3
 1294              	.LVL109:
 348:../../libdaisy/src/hid/disp/display.h ****             {
 1295              		.loc 3 348 13 view .LVU317
 1296 027c AFDA     		bge	.L83
 1297              	.LVL110:
 1298              	.L68:
 350:../../libdaisy/src/hid/disp/display.h ****                 err = err + (t_x * 2 + 1);
 1299              		.loc 3 350 17 view .LVU318
 1300 027e 0130     		adds	r0, r0, #1
 1301              	.LVL111:
 351:../../libdaisy/src/hid/disp/display.h ****             }
 1302              		.loc 3 351 38 view .LVU319
 1303 0280 0EEB4003 		add	r3, lr, r0, lsl #1
 351:../../libdaisy/src/hid/disp/display.h ****             }
 1304              		.loc 3 351 21 view .LVU320
 1305 0284 0133     		adds	r3, r3, #1
 1306              	.LVL112:
 351:../../libdaisy/src/hid/disp/display.h ****             }
 1307              		.loc 3 351 21 view .LVU321
 1308 0286 ABE7     		b	.L69
 1309              	.L109:
 330:../../libdaisy/src/hid/disp/display.h ****             if(d3)
 1310              		.loc 3 330 43 view .LVU322
 1311 0288 009D     		ldr	r5, [sp]
 1312 028a 0CEB060E 		add	lr, ip, r6
 1313 028e 00EB050A 		add	r10, r0, r5
 1314              	.LVL113:
 1315              	.LBB311:
 1316              	.LBI311:
  41:../../libdaisy/src/hid/disp/oled_display.h ****     {
 1317              		.loc 2 41 10 is_stmt 1 view .LVU323
 1318              	.LBB312:
 1319              	.LBI312:
 239:../../libdaisy/src/dev/oled_ssd130x.h ****     {
 1320              		.loc 4 239 10 view .LVU324
 1321              	.LBB313:
 241:../../libdaisy/src/dev/oled_ssd130x.h ****             return;
 1322              		.loc 4 241 9 is_stmt 0 view .LVU325
 1323 0292 BAF17F0F 		cmp	r10, #127
 1324 0296 92D8     		bhi	.L61
 1325 0298 BEF13F0F 		cmp	lr, #63
 1326 029c 8FD8     		bhi	.L61
 244:../../libdaisy/src/dev/oled_ssd130x.h ****         else
 1327              		.loc 4 244 28 view .LVU326
 1328 029e 4FEADE0B 		lsr	fp, lr, #3
 243:../../libdaisy/src/dev/oled_ssd130x.h ****             buffer_[x + (y / 8) * width] |= (1 << (y % 8));
 1329              		.loc 4 243 9 view .LVU327
 1330 02a2 019D     		ldr	r5, [sp, #4]
 244:../../libdaisy/src/dev/oled_ssd130x.h ****         else
 1331              		.loc 4 244 42 view .LVU328
ARM GAS  C:\Users\VINCIU~1\AppData\Local\Temp\cc6DIkXk.s 			page 47


 1332 02a4 0AEBCB1A 		add	r10, r10, fp, lsl #7
 1333              	.LVL114:
 243:../../libdaisy/src/dev/oled_ssd130x.h ****             buffer_[x + (y / 8) * width] |= (1 << (y % 8));
 1334              		.loc 4 243 9 view .LVU329
 1335 02a8 002D     		cmp	r5, #0
 1336 02aa 73D0     		beq	.L62
 244:../../libdaisy/src/dev/oled_ssd130x.h ****         else
 1337              		.loc 4 244 54 view .LVU330
 1338 02ac 0EF0070B 		and	fp, lr, #7
 244:../../libdaisy/src/dev/oled_ssd130x.h ****         else
 1339              		.loc 4 244 42 view .LVU331
 1340 02b0 C244     		add	r10, r10, r8
 244:../../libdaisy/src/dev/oled_ssd130x.h ****         else
 1341              		.loc 4 244 48 view .LVU332
 1342 02b2 4FF0010E 		mov	lr, #1
 1343              	.LVL115:
 244:../../libdaisy/src/dev/oled_ssd130x.h ****         else
 1344              		.loc 4 244 48 view .LVU333
 1345 02b6 0EFA0BFE 		lsl	lr, lr, fp
 244:../../libdaisy/src/dev/oled_ssd130x.h ****         else
 1346              		.loc 4 244 42 view .LVU334
 1347 02ba 9AF814B0 		ldrb	fp, [r10, #20]	@ zero_extendqisi2
 1348 02be 4EEA0B0E 		orr	lr, lr, fp
 1349 02c2 8AF814E0 		strb	lr, [r10, #20]
 1350              	.LVL116:
 244:../../libdaisy/src/dev/oled_ssd130x.h ****         else
 1351              		.loc 4 244 42 view .LVU335
 1352              	.LBE313:
 1353              	.LBE312:
 1354              	.LBE311:
 331:../../libdaisy/src/hid/disp/display.h ****                 ((ChildType*)(this))
 1355              		.loc 3 331 13 view .LVU336
 1356 02c6 002F     		cmp	r7, #0
 1357 02c8 3FF47AAF 		beq	.L63
 1358 02cc 90E7     		b	.L110
 1359              	.L108:
 327:../../libdaisy/src/hid/disp/display.h ****             if(d2)
 1360              		.loc 3 327 43 view .LVU337
 1361 02ce 009D     		ldr	r5, [sp]
 1362 02d0 0CEB060E 		add	lr, ip, r6
 1363 02d4 A5EB000A 		sub	r10, r5, r0
 1364              	.LVL117:
 1365              	.LBB318:
 1366              	.LBI318:
  41:../../libdaisy/src/hid/disp/oled_display.h ****     {
 1367              		.loc 2 41 10 is_stmt 1 view .LVU338
 1368              	.LBB319:
 1369              	.LBI319:
 239:../../libdaisy/src/dev/oled_ssd130x.h ****     {
 1370              		.loc 4 239 10 view .LVU339
 1371              	.LBB320:
 241:../../libdaisy/src/dev/oled_ssd130x.h ****             return;
 1372              		.loc 4 241 9 is_stmt 0 view .LVU340
 1373 02d8 BAF17F0F 		cmp	r10, #127
 1374 02dc 3FF66DAF 		bhi	.L59
 1375 02e0 BEF13F0F 		cmp	lr, #63
 1376 02e4 3FF669AF 		bhi	.L59
ARM GAS  C:\Users\VINCIU~1\AppData\Local\Temp\cc6DIkXk.s 			page 48


 244:../../libdaisy/src/dev/oled_ssd130x.h ****         else
 1377              		.loc 4 244 28 view .LVU341
 1378 02e8 4FEADE0B 		lsr	fp, lr, #3
 243:../../libdaisy/src/dev/oled_ssd130x.h ****             buffer_[x + (y / 8) * width] |= (1 << (y % 8));
 1379              		.loc 4 243 9 view .LVU342
 1380 02ec 019D     		ldr	r5, [sp, #4]
 244:../../libdaisy/src/dev/oled_ssd130x.h ****         else
 1381              		.loc 4 244 42 view .LVU343
 1382 02ee 0AEBCB1A 		add	r10, r10, fp, lsl #7
 1383              	.LVL118:
 243:../../libdaisy/src/dev/oled_ssd130x.h ****             buffer_[x + (y / 8) * width] |= (1 << (y % 8));
 1384              		.loc 4 243 9 view .LVU344
 1385 02f2 002D     		cmp	r5, #0
 1386 02f4 6DD0     		beq	.L60
 244:../../libdaisy/src/dev/oled_ssd130x.h ****         else
 1387              		.loc 4 244 54 view .LVU345
 1388 02f6 0EF0070B 		and	fp, lr, #7
 244:../../libdaisy/src/dev/oled_ssd130x.h ****         else
 1389              		.loc 4 244 42 view .LVU346
 1390 02fa C244     		add	r10, r10, r8
 244:../../libdaisy/src/dev/oled_ssd130x.h ****         else
 1391              		.loc 4 244 48 view .LVU347
 1392 02fc 4FF0010E 		mov	lr, #1
 1393              	.LVL119:
 244:../../libdaisy/src/dev/oled_ssd130x.h ****         else
 1394              		.loc 4 244 48 view .LVU348
 1395 0300 0EFA0BFE 		lsl	lr, lr, fp
 244:../../libdaisy/src/dev/oled_ssd130x.h ****         else
 1396              		.loc 4 244 42 view .LVU349
 1397 0304 9AF814B0 		ldrb	fp, [r10, #20]	@ zero_extendqisi2
 1398 0308 4EEA0B0E 		orr	lr, lr, fp
 1399 030c 8AF814E0 		strb	lr, [r10, #20]
 1400              	.LVL120:
 244:../../libdaisy/src/dev/oled_ssd130x.h ****         else
 1401              		.loc 4 244 42 view .LVU350
 1402              	.LBE320:
 1403              	.LBE319:
 1404              	.LBE318:
 328:../../libdaisy/src/hid/disp/display.h ****                 ((ChildType*)(this))
 1405              		.loc 3 328 13 view .LVU351
 1406 0310 0029     		cmp	r1, #0
 1407 0312 3FF454AF 		beq	.L61
 1408 0316 B7E7     		b	.L109
 1409              	.LVL121:
 1410              	.L48:
 318:../../libdaisy/src/hid/disp/display.h ****                     d2 = (t_sxy - t_syx < 0 && t_exy - t_eyx > 0);
 1411              		.loc 3 318 46 view .LVU352
 1412 0318 F1EE10FA 		vmrs	APSR_nzcv, FPSCR
 1413 031c 7ED4     		bmi	.L114
 1414 031e 4A46     		mov	r2, r9
 1415              	.L52:
 1416              	.LVL122:
 319:../../libdaisy/src/hid/disp/display.h ****                     d3 = (t_sxny - t_syx < 0 && t_exny - t_eyx > 0);
 1417              		.loc 3 319 33 discriminator 6 view .LVU353
 1418 0320 74EEC54A 		vsub.f32	s9, s9, s10
 1419              	.LVL123:
 319:../../libdaisy/src/hid/disp/display.h ****                     d3 = (t_sxny - t_syx < 0 && t_exny - t_eyx > 0);
ARM GAS  C:\Users\VINCIU~1\AppData\Local\Temp\cc6DIkXk.s 			page 49


 1420              		.loc 3 319 45 discriminator 6 view .LVU354
 1421 0324 F5EEC04A 		vcmpe.f32	s9, #0
 1422 0328 F1EE10FA 		vmrs	APSR_nzcv, FPSCR
 1423 032c 6CD4     		bmi	.L115
 319:../../libdaisy/src/hid/disp/display.h ****                     d3 = (t_sxny - t_syx < 0 && t_exny - t_eyx > 0);
 1424              		.loc 3 319 45 view .LVU355
 1425 032e 0021     		movs	r1, #0
 1426              	.LVL124:
 1427              	.L54:
 320:../../libdaisy/src/hid/disp/display.h ****                     d4 = (t_sxny - t_synx < 0 && t_exny - t_eynx > 0);
 1428              		.loc 3 320 34 discriminator 6 view .LVU356
 1429 0330 35EEC55A 		vsub.f32	s10, s11, s10
 1430              	.LVL125:
 320:../../libdaisy/src/hid/disp/display.h ****                     d4 = (t_sxny - t_synx < 0 && t_exny - t_eynx > 0);
 1431              		.loc 3 320 46 discriminator 6 view .LVU357
 1432 0334 B5EEC05A 		vcmpe.f32	s10, #0
 1433 0338 F1EE10FA 		vmrs	APSR_nzcv, FPSCR
 1434 033c 5AD4     		bmi	.L116
 320:../../libdaisy/src/hid/disp/display.h ****                     d4 = (t_sxny - t_synx < 0 && t_exny - t_eynx > 0);
 1435              		.loc 3 320 46 view .LVU358
 1436 033e 0027     		movs	r7, #0
 1437              	.LVL126:
 1438              	.L56:
 321:../../libdaisy/src/hid/disp/display.h ****                 }
 1439              		.loc 3 321 34 discriminator 6 view .LVU359
 1440 0340 75EEC45A 		vsub.f32	s11, s11, s8
 1441              	.LVL127:
 321:../../libdaisy/src/hid/disp/display.h ****                 }
 1442              		.loc 3 321 47 discriminator 6 view .LVU360
 1443 0344 F5EEC05A 		vcmpe.f32	s11, #0
 1444 0348 F1EE10FA 		vmrs	APSR_nzcv, FPSCR
 1445 034c 3FF529AF 		bmi	.L107
 321:../../libdaisy/src/hid/disp/display.h ****                 }
 1446              		.loc 3 321 47 view .LVU361
 1447 0350 0024     		movs	r4, #0
 1448              	.LVL128:
 325:../../libdaisy/src/hid/disp/display.h ****                 ((ChildType*)(this))
 1449              		.loc 3 325 13 view .LVU362
 1450 0352 002A     		cmp	r2, #0
 1451 0354 3FF431AF 		beq	.L59
 1452 0358 B9E7     		b	.L108
 1453              	.LVL129:
 1454              	.L112:
 343:../../libdaisy/src/hid/disp/display.h ****                 {
 1455              		.loc 3 343 32 discriminator 1 view .LVU363
 1456 035a 9842     		cmp	r0, r3
 1457 035c 8FDB     		blt	.L68
 345:../../libdaisy/src/hid/disp/display.h ****                 }
 1458              		.loc 3 345 24 view .LVU364
 1459 035e 0023     		movs	r3, #0
 1460              	.LVL130:
 345:../../libdaisy/src/hid/disp/display.h ****                 }
 1461              		.loc 3 345 24 view .LVU365
 1462 0360 3BE7     		b	.L67
 1463              	.L120:
 1464 0362 00BFAFF3 		.align	3
 1464      0080
ARM GAS  C:\Users\VINCIU~1\AppData\Local\Temp\cc6DIkXk.s 			page 50


 1465              	.L119:
 1466 0368 7A008BFC 		.word	-57999238
 1467 036c FA210940 		.word	1074340346
 1468 0370 00000000 		.word	0
 1469 0374 00806640 		.word	1080459264
 1470              	.LVL131:
 1471              	.L64:
 1472              	.LBB325:
 1473              	.LBB300:
 1474              	.LBB299:
 1475              	.LBB297:
 1476              	.LBI297:
 239:../../libdaisy/src/dev/oled_ssd130x.h ****     {
 1477              		.loc 4 239 10 is_stmt 1 view .LVU366
 1478              	.LBB298:
 246:../../libdaisy/src/dev/oled_ssd130x.h ****     }
 1479              		.loc 4 246 42 is_stmt 0 view .LVU367
 1480 0378 C244     		add	r10, r10, r8
 1481              	.LVL132:
 246:../../libdaisy/src/dev/oled_ssd130x.h ****     }
 1482              		.loc 4 246 49 view .LVU368
 1483 037a 4FF0010B 		mov	fp, #1
 1484              	.LVL133:
 246:../../libdaisy/src/dev/oled_ssd130x.h ****     }
 1485              		.loc 4 246 55 view .LVU369
 1486 037e 0EF0070E 		and	lr, lr, #7
 1487              	.LVL134:
 246:../../libdaisy/src/dev/oled_ssd130x.h ****     }
 1488              		.loc 4 246 49 view .LVU370
 1489 0382 0BFA0EFE 		lsl	lr, fp, lr
 246:../../libdaisy/src/dev/oled_ssd130x.h ****     }
 1490              		.loc 4 246 42 view .LVU371
 1491 0386 9AF814B0 		ldrb	fp, [r10, #20]	@ zero_extendqisi2
 1492 038a 2BEA0E0E 		bic	lr, fp, lr
 1493 038e 8AF814E0 		strb	lr, [r10, #20]
 1494              	.LVL135:
 246:../../libdaisy/src/dev/oled_ssd130x.h ****     }
 1495              		.loc 4 246 42 view .LVU372
 1496 0392 15E7     		b	.L63
 1497              	.LVL136:
 1498              	.L62:
 246:../../libdaisy/src/dev/oled_ssd130x.h ****     }
 1499              		.loc 4 246 42 view .LVU373
 1500              	.LBE298:
 1501              	.LBE297:
 1502              	.LBE299:
 1503              	.LBE300:
 1504              	.LBE325:
 1505              	.LBB326:
 1506              	.LBB317:
 1507              	.LBB316:
 1508              	.LBB314:
 1509              	.LBI314:
 239:../../libdaisy/src/dev/oled_ssd130x.h ****     {
 1510              		.loc 4 239 10 is_stmt 1 view .LVU374
 1511              	.LBB315:
 246:../../libdaisy/src/dev/oled_ssd130x.h ****     }
ARM GAS  C:\Users\VINCIU~1\AppData\Local\Temp\cc6DIkXk.s 			page 51


 1512              		.loc 4 246 42 is_stmt 0 view .LVU375
 1513 0394 C244     		add	r10, r10, r8
 1514              	.LVL137:
 246:../../libdaisy/src/dev/oled_ssd130x.h ****     }
 1515              		.loc 4 246 49 view .LVU376
 1516 0396 4FF0010B 		mov	fp, #1
 1517              	.LVL138:
 246:../../libdaisy/src/dev/oled_ssd130x.h ****     }
 1518              		.loc 4 246 55 view .LVU377
 1519 039a 0EF0070E 		and	lr, lr, #7
 1520              	.LVL139:
 246:../../libdaisy/src/dev/oled_ssd130x.h ****     }
 1521              		.loc 4 246 49 view .LVU378
 1522 039e 0BFA0EFE 		lsl	lr, fp, lr
 246:../../libdaisy/src/dev/oled_ssd130x.h ****     }
 1523              		.loc 4 246 42 view .LVU379
 1524 03a2 9AF814B0 		ldrb	fp, [r10, #20]	@ zero_extendqisi2
 1525 03a6 2BEA0E0E 		bic	lr, fp, lr
 1526 03aa 8AF814E0 		strb	lr, [r10, #20]
 1527              	.LVL140:
 246:../../libdaisy/src/dev/oled_ssd130x.h ****     }
 1528              		.loc 4 246 42 view .LVU380
 1529              	.LBE315:
 1530              	.LBE314:
 1531              	.LBE316:
 1532              	.LBE317:
 1533              	.LBE326:
 331:../../libdaisy/src/hid/disp/display.h ****                 ((ChildType*)(this))
 1534              		.loc 3 331 13 view .LVU381
 1535 03ae 002F     		cmp	r7, #0
 1536 03b0 3FF406AF 		beq	.L63
 1537 03b4 1CE7     		b	.L110
 1538              	.LVL141:
 1539              	.L66:
 1540              	.LBB327:
 1541              	.LBB309:
 1542              	.LBB307:
 1543              	.LBB304:
 1544              	.LBI304:
 239:../../libdaisy/src/dev/oled_ssd130x.h ****     {
 1545              		.loc 4 239 10 is_stmt 1 view .LVU382
 1546              	.LBB305:
 246:../../libdaisy/src/dev/oled_ssd130x.h ****     }
 1547              		.loc 4 246 42 is_stmt 0 view .LVU383
 1548 03b6 C244     		add	r10, r10, r8
 1549              	.LVL142:
 246:../../libdaisy/src/dev/oled_ssd130x.h ****     }
 1550              		.loc 4 246 49 view .LVU384
 1551 03b8 4FF0010B 		mov	fp, #1
 1552              	.LVL143:
 246:../../libdaisy/src/dev/oled_ssd130x.h ****     }
 1553              		.loc 4 246 55 view .LVU385
 1554 03bc 0EF0070E 		and	lr, lr, #7
 1555              	.LVL144:
 246:../../libdaisy/src/dev/oled_ssd130x.h ****     }
 1556              		.loc 4 246 49 view .LVU386
 1557 03c0 0BFA0EFE 		lsl	lr, fp, lr
ARM GAS  C:\Users\VINCIU~1\AppData\Local\Temp\cc6DIkXk.s 			page 52


 246:../../libdaisy/src/dev/oled_ssd130x.h ****     }
 1558              		.loc 4 246 42 view .LVU387
 1559 03c4 9AF814B0 		ldrb	fp, [r10, #20]	@ zero_extendqisi2
 1560 03c8 2BEA0E0E 		bic	lr, fp, lr
 1561 03cc 8AF814E0 		strb	lr, [r10, #20]
 1562              	.LVL145:
 246:../../libdaisy/src/dev/oled_ssd130x.h ****     }
 1563              		.loc 4 246 42 view .LVU388
 1564 03d0 F7E6     		b	.L65
 1565              	.LVL146:
 1566              	.L60:
 246:../../libdaisy/src/dev/oled_ssd130x.h ****     }
 1567              		.loc 4 246 42 view .LVU389
 1568              	.LBE305:
 1569              	.LBE304:
 1570              	.LBE307:
 1571              	.LBE309:
 1572              	.LBE327:
 1573              	.LBB328:
 1574              	.LBB324:
 1575              	.LBB323:
 1576              	.LBB321:
 1577              	.LBI321:
 239:../../libdaisy/src/dev/oled_ssd130x.h ****     {
 1578              		.loc 4 239 10 is_stmt 1 view .LVU390
 1579              	.LBB322:
 246:../../libdaisy/src/dev/oled_ssd130x.h ****     }
 1580              		.loc 4 246 42 is_stmt 0 view .LVU391
 1581 03d2 C244     		add	r10, r10, r8
 1582              	.LVL147:
 246:../../libdaisy/src/dev/oled_ssd130x.h ****     }
 1583              		.loc 4 246 49 view .LVU392
 1584 03d4 4FF0010B 		mov	fp, #1
 1585              	.LVL148:
 246:../../libdaisy/src/dev/oled_ssd130x.h ****     }
 1586              		.loc 4 246 55 view .LVU393
 1587 03d8 0EF0070E 		and	lr, lr, #7
 1588              	.LVL149:
 246:../../libdaisy/src/dev/oled_ssd130x.h ****     }
 1589              		.loc 4 246 49 view .LVU394
 1590 03dc 0BFA0EFE 		lsl	lr, fp, lr
 246:../../libdaisy/src/dev/oled_ssd130x.h ****     }
 1591              		.loc 4 246 42 view .LVU395
 1592 03e0 9AF814B0 		ldrb	fp, [r10, #20]	@ zero_extendqisi2
 1593 03e4 2BEA0E0E 		bic	lr, fp, lr
 1594 03e8 8AF814E0 		strb	lr, [r10, #20]
 1595              	.LVL150:
 246:../../libdaisy/src/dev/oled_ssd130x.h ****     }
 1596              		.loc 4 246 42 view .LVU396
 1597              	.LBE322:
 1598              	.LBE321:
 1599              	.LBE323:
 1600              	.LBE324:
 1601              	.LBE328:
 328:../../libdaisy/src/hid/disp/display.h ****                 ((ChildType*)(this))
 1602              		.loc 3 328 13 view .LVU397
 1603 03ec 0029     		cmp	r1, #0
ARM GAS  C:\Users\VINCIU~1\AppData\Local\Temp\cc6DIkXk.s 			page 53


 1604 03ee 3FF4E6AE 		beq	.L61
 1605 03f2 49E7     		b	.L109
 1606              	.LVL151:
 1607              	.L116:
 320:../../libdaisy/src/hid/disp/display.h ****                     d4 = (t_sxny - t_synx < 0 && t_exny - t_eynx > 0);
 1608              		.loc 3 320 56 discriminator 1 view .LVU398
 1609 03f4 77EEE66A 		vsub.f32	s13, s15, s13
 1610              	.LVL152:
 320:../../libdaisy/src/hid/disp/display.h ****                     d4 = (t_sxny - t_synx < 0 && t_exny - t_eynx > 0);
 1611              		.loc 3 320 46 discriminator 1 view .LVU399
 1612 03f8 F5EEC06A 		vcmpe.f32	s13, #0
 1613 03fc F1EE10FA 		vmrs	APSR_nzcv, FPSCR
 1614 0400 CCBF     		ite	gt
 1615 0402 0127     		movgt	r7, #1
 1616              	.LVL153:
 320:../../libdaisy/src/hid/disp/display.h ****                     d4 = (t_sxny - t_synx < 0 && t_exny - t_eynx > 0);
 1617              		.loc 3 320 46 discriminator 1 view .LVU400
 1618 0404 0027     		movle	r7, #0
 1619 0406 9BE7     		b	.L56
 1620              	.LVL154:
 1621              	.L115:
 319:../../libdaisy/src/hid/disp/display.h ****                     d3 = (t_sxny - t_syx < 0 && t_exny - t_eyx > 0);
 1622              		.loc 3 319 54 discriminator 1 view .LVU401
 1623 0408 36EE666A 		vsub.f32	s12, s12, s13
 1624              	.LVL155:
 319:../../libdaisy/src/hid/disp/display.h ****                     d3 = (t_sxny - t_syx < 0 && t_exny - t_eyx > 0);
 1625              		.loc 3 319 45 discriminator 1 view .LVU402
 1626 040c B5EEC06A 		vcmpe.f32	s12, #0
 1627 0410 F1EE10FA 		vmrs	APSR_nzcv, FPSCR
 1628 0414 CCBF     		ite	gt
 1629 0416 0121     		movgt	r1, #1
 1630 0418 0021     		movle	r1, #0
 1631 041a 89E7     		b	.L54
 1632              	.LVL156:
 1633              	.L114:
 318:../../libdaisy/src/hid/disp/display.h ****                     d2 = (t_sxy - t_syx < 0 && t_exy - t_eyx > 0);
 1634              		.loc 3 318 55 discriminator 1 view .LVU403
 1635 041c 76EE473A 		vsub.f32	s7, s12, s14
 318:../../libdaisy/src/hid/disp/display.h ****                     d2 = (t_sxy - t_syx < 0 && t_exy - t_eyx > 0);
 1636              		.loc 3 318 46 discriminator 1 view .LVU404
 1637 0420 F5EEC03A 		vcmpe.f32	s7, #0
 1638 0424 F1EE10FA 		vmrs	APSR_nzcv, FPSCR
 1639 0428 CCBF     		ite	gt
 1640 042a 0122     		movgt	r2, #1
 1641 042c 0022     		movle	r2, #0
 1642 042e 77E7     		b	.L52
 1643              	.LVL157:
 1644              	.L77:
 314:../../libdaisy/src/hid/disp/display.h ****                 }
 1645              		.loc 3 314 47 view .LVU405
 1646 0430 0124     		movs	r4, #1
 1647              	.LVL158:
 325:../../libdaisy/src/hid/disp/display.h ****                 ((ChildType*)(this))
 1648              		.loc 3 325 13 view .LVU406
 1649 0432 002A     		cmp	r2, #0
 1650 0434 3FF4C1AE 		beq	.L59
 325:../../libdaisy/src/hid/disp/display.h ****                 ((ChildType*)(this))
ARM GAS  C:\Users\VINCIU~1\AppData\Local\Temp\cc6DIkXk.s 			page 54


 1651              		.loc 3 325 13 view .LVU407
 1652 0438 49E7     		b	.L108
 1653              	.LVL159:
 1654              	.L74:
 312:../../libdaisy/src/hid/disp/display.h ****                     d3 = (t_sxny - t_syx < 0 || t_exny - t_eyx > 0);
 1655              		.loc 3 312 33 view .LVU408
 1656 043a 74EEC54A 		vsub.f32	s9, s9, s10
 1657              	.LVL160:
 311:../../libdaisy/src/hid/disp/display.h ****                     d2 = (t_sxy - t_syx < 0 || t_exy - t_eyx > 0);
 1658              		.loc 3 311 46 view .LVU409
 1659 043e 0122     		movs	r2, #1
 1660              	.LVL161:
 312:../../libdaisy/src/hid/disp/display.h ****                     d3 = (t_sxny - t_syx < 0 || t_exny - t_eyx > 0);
 1661              		.loc 3 312 45 view .LVU410
 1662 0440 F5EEC04A 		vcmpe.f32	s9, #0
 1663 0444 F1EE10FA 		vmrs	APSR_nzcv, FPSCR
 1664 0448 7FF589AE 		bpl	.L117
 1665              	.L75:
 313:../../libdaisy/src/hid/disp/display.h ****                     d4 = (t_sxny - t_synx < 0 || t_exny - t_eynx > 0);
 1666              		.loc 3 313 34 view .LVU411
 1667 044c 35EEC55A 		vsub.f32	s10, s11, s10
 1668              	.LVL162:
 312:../../libdaisy/src/hid/disp/display.h ****                     d3 = (t_sxny - t_syx < 0 || t_exny - t_eyx > 0);
 1669              		.loc 3 312 45 view .LVU412
 1670 0450 0121     		movs	r1, #1
 1671              	.LVL163:
 313:../../libdaisy/src/hid/disp/display.h ****                     d4 = (t_sxny - t_synx < 0 || t_exny - t_eynx > 0);
 1672              		.loc 3 313 46 view .LVU413
 1673 0452 B5EEC05A 		vcmpe.f32	s10, #0
 1674 0456 F1EE10FA 		vmrs	APSR_nzcv, FPSCR
 1675 045a 7FF591AE 		bpl	.L118
 1676              	.LVL164:
 1677              	.L76:
 313:../../libdaisy/src/hid/disp/display.h ****                     d4 = (t_sxny - t_synx < 0 || t_exny - t_eynx > 0);
 1678              		.loc 3 313 46 view .LVU414
 1679 045e 0127     		movs	r7, #1
 1680              	.LVL165:
 313:../../libdaisy/src/hid/disp/display.h ****                     d4 = (t_sxny - t_synx < 0 || t_exny - t_eynx > 0);
 1681              		.loc 3 313 46 view .LVU415
 1682 0460 97E6     		b	.L51
 1683              	.LVL166:
 1684              	.L43:
 268:../../libdaisy/src/hid/disp/display.h ****             sweep = -sweep;
 1685              		.loc 3 268 25 view .LVU416
 1686 0462 DDE91223 		ldrd	r2, r3, [sp, #72]
 1687              	.LVL167:
 268:../../libdaisy/src/hid/disp/display.h ****             sweep = -sweep;
 1688              		.loc 3 268 25 view .LVU417
 1689 0466 1344     		add	r3, r3, r2
 1690              	.LVL168:
 268:../../libdaisy/src/hid/disp/display.h ****             sweep = -sweep;
 1691              		.loc 3 268 25 view .LVU418
 1692 0468 06EE102A 		vmov	s12, r2	@ int
 1693 046c 1293     		str	r3, [sp, #72]
 1694 046e 139B     		ldr	r3, [sp, #76]
 1695              	.LVL169:
 268:../../libdaisy/src/hid/disp/display.h ****             sweep = -sweep;
ARM GAS  C:\Users\VINCIU~1\AppData\Local\Temp\cc6DIkXk.s 			page 55


 1696              		.loc 3 268 25 view .LVU419
 1697 0470 5B42     		rsbs	r3, r3, #0
 1698 0472 1393     		str	r3, [sp, #76]
 1699              	.LVL170:
 268:../../libdaisy/src/hid/disp/display.h ****             sweep = -sweep;
 1700              		.loc 3 268 25 view .LVU420
 1701 0474 D8E5     		b	.L44
 1702              		.cfi_endproc
 1703              	.LFE1840:
 1705 0476 00BF     		.section	.text._ZN5daisy25OneBitGraphicsDisplayImplINS_11OledDisplayINS_13SSD130xDriverILj128ELj64
 1706              		.align	1
 1707              		.p2align 2,,3
 1708              		.weak	_ZN5daisy25OneBitGraphicsDisplayImplINS_11OledDisplayINS_13SSD130xDriverILj128ELj64ENS_24SSD
 1709              		.syntax unified
 1710              		.thumb
 1711              		.thumb_func
 1712              		.fpu fpv5-d16
 1714              	_ZN5daisy25OneBitGraphicsDisplayImplINS_11OledDisplayINS_13SSD130xDriverILj128ELj64ENS_24SSD130x4Wi
 1715              	.LVL171:
 1716              	.LFB1839:
 355:../../libdaisy/src/hid/disp/display.h **** 
 356:../../libdaisy/src/hid/disp/display.h ****     char WriteChar(char ch, FontDef font, bool on) override
 357:../../libdaisy/src/hid/disp/display.h ****     {
 358:../../libdaisy/src/hid/disp/display.h ****         uint32_t i, b, j;
 359:../../libdaisy/src/hid/disp/display.h **** 
 360:../../libdaisy/src/hid/disp/display.h ****         // Check if character is valid
 361:../../libdaisy/src/hid/disp/display.h ****         if(ch < 32 || ch > 126)
 362:../../libdaisy/src/hid/disp/display.h ****             return 0;
 363:../../libdaisy/src/hid/disp/display.h **** 
 364:../../libdaisy/src/hid/disp/display.h ****         // Check remaining space on current line
 365:../../libdaisy/src/hid/disp/display.h ****         if(Width() < (currentX_ + font.FontWidth)
 366:../../libdaisy/src/hid/disp/display.h ****            || Height() < (currentY_ + font.FontHeight))
 367:../../libdaisy/src/hid/disp/display.h ****         {
 368:../../libdaisy/src/hid/disp/display.h ****             // Not enough space on current line
 369:../../libdaisy/src/hid/disp/display.h ****             return 0;
 370:../../libdaisy/src/hid/disp/display.h ****         }
 371:../../libdaisy/src/hid/disp/display.h **** 
 372:../../libdaisy/src/hid/disp/display.h ****         // Use the font to write
 373:../../libdaisy/src/hid/disp/display.h ****         for(i = 0; i < font.FontHeight; i++)
 374:../../libdaisy/src/hid/disp/display.h ****         {
 375:../../libdaisy/src/hid/disp/display.h ****             b = font.data[(ch - 32) * font.FontHeight + i];
 376:../../libdaisy/src/hid/disp/display.h ****             for(j = 0; j < font.FontWidth; j++)
 377:../../libdaisy/src/hid/disp/display.h ****             {
 378:../../libdaisy/src/hid/disp/display.h ****                 if((b << j) & 0x8000)
 379:../../libdaisy/src/hid/disp/display.h ****                 {
 380:../../libdaisy/src/hid/disp/display.h ****                     ((ChildType*)(this))
 381:../../libdaisy/src/hid/disp/display.h ****                         ->ChildType::DrawPixel(
 382:../../libdaisy/src/hid/disp/display.h ****                             currentX_ + j, (currentY_ + i), on);
 383:../../libdaisy/src/hid/disp/display.h ****                 }
 384:../../libdaisy/src/hid/disp/display.h ****                 else
 385:../../libdaisy/src/hid/disp/display.h ****                 {
 386:../../libdaisy/src/hid/disp/display.h ****                     ((ChildType*)(this))
 387:../../libdaisy/src/hid/disp/display.h ****                         ->ChildType::DrawPixel(
 388:../../libdaisy/src/hid/disp/display.h ****                             currentX_ + j, (currentY_ + i), !on);
 389:../../libdaisy/src/hid/disp/display.h ****                 }
 390:../../libdaisy/src/hid/disp/display.h ****             }
 391:../../libdaisy/src/hid/disp/display.h ****         }
ARM GAS  C:\Users\VINCIU~1\AppData\Local\Temp\cc6DIkXk.s 			page 56


 392:../../libdaisy/src/hid/disp/display.h **** 
 393:../../libdaisy/src/hid/disp/display.h ****         // The current space is now taken
 394:../../libdaisy/src/hid/disp/display.h ****         SetCursor(currentX_ + font.FontWidth, currentY_);
 395:../../libdaisy/src/hid/disp/display.h **** 
 396:../../libdaisy/src/hid/disp/display.h ****         // Return written char for validation
 397:../../libdaisy/src/hid/disp/display.h ****         return ch;
 398:../../libdaisy/src/hid/disp/display.h ****     }
 399:../../libdaisy/src/hid/disp/display.h **** 
 400:../../libdaisy/src/hid/disp/display.h ****     char WriteString(const char* str, FontDef font, bool on) override
 1717              		.loc 3 400 10 is_stmt 1 view -0
 1718              		.cfi_startproc
 1719              		@ args = 4, pretend = 0, frame = 32
 1720              		@ frame_needed = 0, uses_anonymous_args = 0
 1721              		.loc 3 400 10 is_stmt 0 view .LVU422
 1722 0000 2DE9F04F 		push	{r4, r5, r6, r7, r8, r9, r10, fp, lr}
 1723              		.cfi_def_cfa_offset 36
 1724              		.cfi_offset 4, -36
 1725              		.cfi_offset 5, -32
 1726              		.cfi_offset 6, -28
 1727              		.cfi_offset 7, -24
 1728              		.cfi_offset 8, -20
 1729              		.cfi_offset 9, -16
 1730              		.cfi_offset 10, -12
 1731              		.cfi_offset 11, -8
 1732              		.cfi_offset 14, -4
 1733 0004 89B0     		sub	sp, sp, #36
 1734              		.cfi_def_cfa_offset 72
 1735              		.loc 3 400 10 view .LVU423
 1736 0006 08AC     		add	r4, sp, #32
 1737 0008 9DF84870 		ldrb	r7, [sp, #72]	@ zero_extendqisi2
 1738 000c 0191     		str	r1, [sp, #4]
 1739 000e 04E90C00 		stmdb	r4, {r2, r3}
 401:../../libdaisy/src/hid/disp/display.h ****     {
 402:../../libdaisy/src/hid/disp/display.h ****         // Write until null-byte
 403:../../libdaisy/src/hid/disp/display.h ****         while(*str)
 1740              		.loc 3 403 9 is_stmt 1 view .LVU424
 1741 0012 0B78     		ldrb	r3, [r1]	@ zero_extendqisi2
 1742 0014 002B     		cmp	r3, #0
 1743 0016 00F0AB80 		beq	.L145
 1744 001a 1A46     		mov	r2, r3
 1745 001c 9DF81880 		ldrb	r8, [sp, #24]	@ zero_extendqisi2
 1746 0020 9DF81930 		ldrb	r3, [sp, #25]	@ zero_extendqisi2
 1747 0024 0646     		mov	r6, r0
 1748 0026 4546     		mov	r5, r8
 1749 0028 9046     		mov	r8, r2
 1750 002a 0393     		str	r3, [sp, #12]
 1751 002c 079B     		ldr	r3, [sp, #28]
 1752 002e 0593     		str	r3, [sp, #20]
 1753              	.LVL172:
 1754              	.L146:
 1755              	.LBB357:
 1756              	.LBI357:
 356:../../libdaisy/src/hid/disp/display.h ****     {
 1757              		.loc 3 356 10 view .LVU425
 1758              	.LBB358:
 361:../../libdaisy/src/hid/disp/display.h ****             return 0;
 1759              		.loc 3 361 20 is_stmt 0 view .LVU426
ARM GAS  C:\Users\VINCIU~1\AppData\Local\Temp\cc6DIkXk.s 			page 57


 1760 0030 A8F12004 		sub	r4, r8, #32
 361:../../libdaisy/src/hid/disp/display.h ****             return 0;
 1761              		.loc 3 361 9 view .LVU427
 1762 0034 E3B2     		uxtb	r3, r4
 1763 0036 5E2B     		cmp	r3, #94
 1764 0038 00F29E80 		bhi	.L127
 365:../../libdaisy/src/hid/disp/display.h ****            || Height() < (currentY_ + font.FontHeight))
 1765              		.loc 3 365 17 view .LVU428
 1766 003c 3368     		ldr	r3, [r6]
 1767 003e 5E4A     		ldr	r2, .L167
 1768 0040 DB68     		ldr	r3, [r3, #12]
 1769 0042 9342     		cmp	r3, r2
 1770 0044 40F09B80 		bne	.L160
 1771 0048 8020     		movs	r0, #128
 1772              	.L126:
 365:../../libdaisy/src/hid/disp/display.h ****            || Height() < (currentY_ + font.FontHeight))
 1773              		.loc 3 365 23 view .LVU429
 1774 004a B388     		ldrh	r3, [r6, #4]
 365:../../libdaisy/src/hid/disp/display.h ****            || Height() < (currentY_ + font.FontHeight))
 1775              		.loc 3 365 33 view .LVU430
 1776 004c 2B44     		add	r3, r3, r5
 366:../../libdaisy/src/hid/disp/display.h ****         {
 1777              		.loc 3 366 12 view .LVU431
 1778 004e 8342     		cmp	r3, r0
 1779 0050 00F39280 		bgt	.L127
 366:../../libdaisy/src/hid/disp/display.h ****         {
 1780              		.loc 3 366 21 view .LVU432
 1781 0054 3368     		ldr	r3, [r6]
 1782 0056 594A     		ldr	r2, .L167+4
 1783 0058 9B68     		ldr	r3, [r3, #8]
 1784 005a 9342     		cmp	r3, r2
 1785 005c 40F09280 		bne	.L161
 1786 0060 4020     		movs	r0, #64
 1787              	.L128:
 366:../../libdaisy/src/hid/disp/display.h ****         {
 1788              		.loc 3 366 27 view .LVU433
 1789 0062 F188     		ldrh	r1, [r6, #6]
 366:../../libdaisy/src/hid/disp/display.h ****         {
 1790              		.loc 3 366 37 view .LVU434
 1791 0064 039A     		ldr	r2, [sp, #12]
 366:../../libdaisy/src/hid/disp/display.h ****         {
 1792              		.loc 3 366 27 view .LVU435
 1793 0066 0291     		str	r1, [sp, #8]
 366:../../libdaisy/src/hid/disp/display.h ****         {
 1794              		.loc 3 366 37 view .LVU436
 1795 0068 8B18     		adds	r3, r1, r2
 366:../../libdaisy/src/hid/disp/display.h ****         {
 1796              		.loc 3 366 12 view .LVU437
 1797 006a 8342     		cmp	r3, r0
 1798 006c 00F38480 		bgt	.L127
 1799              	.LVL173:
 373:../../libdaisy/src/hid/disp/display.h ****         {
 1800              		.loc 3 373 22 is_stmt 1 view .LVU438
 1801 0070 002A     		cmp	r2, #0
 1802 0072 00F09180 		beq	.L129
 375:../../libdaisy/src/hid/disp/display.h ****             for(j = 0; j < font.FontWidth; j++)
 1803              		.loc 3 375 37 is_stmt 0 view .LVU439
ARM GAS  C:\Users\VINCIU~1\AppData\Local\Temp\cc6DIkXk.s 			page 58


 1804 0076 02FB04F4 		mul	r4, r2, r4
 1805 007a 6FF00049 		mvn	r9, #-2147483648
 1806 007e 059B     		ldr	r3, [sp, #20]
 1807 0080 A144     		add	r9, r9, r4
 1808 0082 1444     		add	r4, r4, r2
 394:../../libdaisy/src/hid/disp/display.h **** 
 1809              		.loc 3 394 19 view .LVU440
 1810 0084 B6F804B0 		ldrh	fp, [r6, #4]
 1811 0088 03EB4909 		add	r9, r3, r9, lsl #1
 1812 008c 023B     		subs	r3, r3, #2
 1813 008e CDF81080 		str	r8, [sp, #16]
 1814 0092 03EB4403 		add	r3, r3, r4, lsl #1
 1815 0096 0C46     		mov	r4, r1
 1816 0098 9A46     		mov	r10, r3
 1817              	.LVL174:
 1818              	.L132:
 375:../../libdaisy/src/hid/disp/display.h ****             for(j = 0; j < font.FontWidth; j++)
 1819              		.loc 3 375 15 view .LVU441
 1820 009a 39F802CF 		ldrh	ip, [r9, #2]!
 1821              	.LVL175:
 376:../../libdaisy/src/hid/disp/display.h ****             {
 1822              		.loc 3 376 26 is_stmt 1 view .LVU442
 1823 009e A5B3     		cbz	r5, .L137
 1824              	.LBB359:
 1825              	.LBB360:
 1826              	.LBB361:
 1827              	.LBB362:
 1828              	.LBB363:
 246:../../libdaisy/src/dev/oled_ssd130x.h ****     }
 1829              		.loc 4 246 55 is_stmt 0 view .LVU443
 1830 00a0 04F00703 		and	r3, r4, #7
 246:../../libdaisy/src/dev/oled_ssd130x.h ****     }
 1831              		.loc 4 246 49 view .LVU444
 1832 00a4 4FF0010E 		mov	lr, #1
 246:../../libdaisy/src/dev/oled_ssd130x.h ****     }
 1833              		.loc 4 246 28 view .LVU445
 1834 00a8 E208     		lsrs	r2, r4, #3
 1835 00aa 5946     		mov	r1, fp
 246:../../libdaisy/src/dev/oled_ssd130x.h ****     }
 1836              		.loc 4 246 49 view .LVU446
 1837 00ac 0EFA03FE 		lsl	lr, lr, r3
 1838 00b0 0BF11403 		add	r3, fp, #20
 246:../../libdaisy/src/dev/oled_ssd130x.h ****     }
 1839              		.loc 4 246 42 view .LVU447
 1840 00b4 4FFA8EFE 		sxtb	lr, lr
 1841 00b8 03EBC212 		add	r2, r3, r2, lsl #7
 1842              	.LBE363:
 1843              	.LBE362:
 1844              	.LBE361:
 1845              	.LBE360:
 1846              	.LBE359:
 376:../../libdaisy/src/hid/disp/display.h ****             {
 1847              		.loc 3 376 19 view .LVU448
 1848 00bc 0023     		movs	r3, #0
 1849              	.LBB381:
 1850              	.LBB376:
 1851              	.LBB371:
ARM GAS  C:\Users\VINCIU~1\AppData\Local\Temp\cc6DIkXk.s 			page 59


 1852              	.LBB367:
 1853              	.LBB364:
 246:../../libdaisy/src/dev/oled_ssd130x.h ****     }
 1854              		.loc 4 246 42 view .LVU449
 1855 00be 6FEA0E08 		mvn	r8, lr
 1856 00c2 3244     		add	r2, r2, r6
 1857 00c4 0DE0     		b	.L138
 1858              	.LVL176:
 1859              	.L162:
 246:../../libdaisy/src/dev/oled_ssd130x.h ****     }
 1860              		.loc 4 246 42 view .LVU450
 1861              	.LBE364:
 1862              	.LBE367:
 1863              	.LBE371:
 1864              	.LBE376:
 1865              	.LBE381:
 1866              	.LBB382:
 1867              	.LBI382:
  41:../../libdaisy/src/hid/disp/oled_display.h ****     {
 1868              		.loc 2 41 10 is_stmt 1 view .LVU451
 1869              	.LBB383:
 1870              	.LBI383:
 239:../../libdaisy/src/dev/oled_ssd130x.h ****     {
 1871              		.loc 4 239 10 view .LVU452
 1872              	.LBB384:
 241:../../libdaisy/src/dev/oled_ssd130x.h ****             return;
 1873              		.loc 4 241 9 is_stmt 0 view .LVU453
 1874 00c6 7F29     		cmp	r1, #127
 1875 00c8 06D8     		bhi	.L134
 1876 00ca 3F2C     		cmp	r4, #63
 1877 00cc 04D8     		bhi	.L134
 244:../../libdaisy/src/dev/oled_ssd130x.h ****         else
 1878              		.loc 4 244 42 view .LVU454
 1879 00ce 1078     		ldrb	r0, [r2]	@ zero_extendqisi2
 243:../../libdaisy/src/dev/oled_ssd130x.h ****             buffer_[x + (y / 8) * width] |= (1 << (y % 8));
 1880              		.loc 4 243 9 view .LVU455
 1881 00d0 97B1     		cbz	r7, .L136
 1882              	.L159:
 243:../../libdaisy/src/dev/oled_ssd130x.h ****             buffer_[x + (y / 8) * width] |= (1 << (y % 8));
 1883              		.loc 4 243 9 view .LVU456
 1884              	.LBE384:
 1885              	.LBE383:
 1886              	.LBE382:
 1887              	.LBB385:
 1888              	.LBB377:
 1889              	.LBB372:
 244:../../libdaisy/src/dev/oled_ssd130x.h ****         else
 1890              		.loc 4 244 42 view .LVU457
 1891 00d2 4EEA0000 		orr	r0, lr, r0
 1892 00d6 1070     		strb	r0, [r2]
 1893              	.L134:
 1894              	.LBE372:
 1895              	.LBE377:
 1896              	.LBE385:
 376:../../libdaisy/src/hid/disp/display.h ****             {
 1897              		.loc 3 376 13 is_stmt 1 view .LVU458
 1898 00d8 0133     		adds	r3, r3, #1
ARM GAS  C:\Users\VINCIU~1\AppData\Local\Temp\cc6DIkXk.s 			page 60


 1899              	.LVL177:
 376:../../libdaisy/src/hid/disp/display.h ****             {
 1900              		.loc 3 376 26 view .LVU459
 1901 00da 0132     		adds	r2, r2, #1
 1902 00dc 0131     		adds	r1, r1, #1
 1903 00de AB42     		cmp	r3, r5
 1904 00e0 13D0     		beq	.L137
 1905              	.LVL178:
 1906              	.L138:
 378:../../libdaisy/src/hid/disp/display.h ****                 {
 1907              		.loc 3 378 23 is_stmt 0 view .LVU460
 1908 00e2 0CFA03F0 		lsl	r0, ip, r3
 378:../../libdaisy/src/hid/disp/display.h ****                 {
 1909              		.loc 3 378 17 view .LVU461
 1910 00e6 0004     		lsls	r0, r0, #16
 1911 00e8 EDD4     		bmi	.L162
 1912              	.LVL179:
 1913              	.LBB386:
 1914              	.LBI359:
  41:../../libdaisy/src/hid/disp/oled_display.h ****     {
 1915              		.loc 2 41 10 is_stmt 1 view .LVU462
 1916              	.LBB378:
 1917              	.LBI360:
 239:../../libdaisy/src/dev/oled_ssd130x.h ****     {
 1918              		.loc 4 239 10 view .LVU463
 1919              	.LBB373:
 241:../../libdaisy/src/dev/oled_ssd130x.h ****             return;
 1920              		.loc 4 241 9 is_stmt 0 view .LVU464
 1921 00ea 7F29     		cmp	r1, #127
 1922 00ec F4D8     		bhi	.L134
 1923 00ee 3F2C     		cmp	r4, #63
 1924 00f0 F2D8     		bhi	.L134
 244:../../libdaisy/src/dev/oled_ssd130x.h ****         else
 1925              		.loc 4 244 42 view .LVU465
 1926 00f2 1078     		ldrb	r0, [r2]	@ zero_extendqisi2
 243:../../libdaisy/src/dev/oled_ssd130x.h ****             buffer_[x + (y / 8) * width] |= (1 << (y % 8));
 1927              		.loc 4 243 9 view .LVU466
 1928 00f4 002F     		cmp	r7, #0
 1929 00f6 ECD0     		beq	.L159
 1930              	.L136:
 1931              	.LVL180:
 1932              	.LBB368:
 1933              	.LBI362:
 239:../../libdaisy/src/dev/oled_ssd130x.h ****     {
 1934              		.loc 4 239 10 is_stmt 1 view .LVU467
 239:../../libdaisy/src/dev/oled_ssd130x.h ****     {
 1935              		.loc 4 239 10 is_stmt 0 view .LVU468
 1936              	.LBE368:
 1937              	.LBE373:
 1938              	.LBE378:
 1939              	.LBE386:
 376:../../libdaisy/src/hid/disp/display.h ****             {
 1940              		.loc 3 376 13 view .LVU469
 1941 00f8 0133     		adds	r3, r3, #1
 1942              	.LVL181:
 1943              	.LBB387:
 1944              	.LBB379:
ARM GAS  C:\Users\VINCIU~1\AppData\Local\Temp\cc6DIkXk.s 			page 61


 1945              	.LBB374:
 1946              	.LBB369:
 1947              	.LBB365:
 246:../../libdaisy/src/dev/oled_ssd130x.h ****     }
 1948              		.loc 4 246 42 view .LVU470
 1949 00fa 08EA0000 		and	r0, r8, r0
 1950              	.LBE365:
 1951              	.LBE369:
 1952              	.LBE374:
 1953              	.LBE379:
 1954              	.LBE387:
 376:../../libdaisy/src/hid/disp/display.h ****             {
 1955              		.loc 3 376 26 view .LVU471
 1956 00fe 0132     		adds	r2, r2, #1
 1957 0100 0131     		adds	r1, r1, #1
 1958 0102 AB42     		cmp	r3, r5
 1959              	.LBB388:
 1960              	.LBB380:
 1961              	.LBB375:
 1962              	.LBB370:
 1963              	.LBB366:
 246:../../libdaisy/src/dev/oled_ssd130x.h ****     }
 1964              		.loc 4 246 42 view .LVU472
 1965 0104 02F8010C 		strb	r0, [r2, #-1]
 246:../../libdaisy/src/dev/oled_ssd130x.h ****     }
 1966              		.loc 4 246 42 view .LVU473
 1967              	.LBE366:
 1968              	.LBE370:
 1969              	.LBE375:
 1970              	.LBE380:
 1971              	.LBE388:
 376:../../libdaisy/src/hid/disp/display.h ****             {
 1972              		.loc 3 376 13 is_stmt 1 view .LVU474
 1973              	.LVL182:
 376:../../libdaisy/src/hid/disp/display.h ****             {
 1974              		.loc 3 376 26 view .LVU475
 1975 0108 EBD1     		bne	.L138
 1976              	.LVL183:
 1977              	.L137:
 373:../../libdaisy/src/hid/disp/display.h ****         {
 1978              		.loc 3 373 9 view .LVU476
 373:../../libdaisy/src/hid/disp/display.h ****         {
 1979              		.loc 3 373 22 view .LVU477
 1980 010a D145     		cmp	r9, r10
 1981 010c 04F10104 		add	r4, r4, #1
 1982 0110 C3D1     		bne	.L132
 1983 0112 DDF81080 		ldr	r8, [sp, #16]
 1984              	.LVL184:
 1985              	.L131:
 1986              	.LBB389:
 1987              	.LBB390:
 133:../../libdaisy/src/hid/disp/display.h ****         currentY_ = (y >= Height()) ? Height() - 1 : y;
 1988              		.loc 3 133 33 is_stmt 0 view .LVU478
 1989 0116 3268     		ldr	r2, [r6]
 1990              	.LBE390:
 1991              	.LBE389:
 394:../../libdaisy/src/hid/disp/display.h **** 
ARM GAS  C:\Users\VINCIU~1\AppData\Local\Temp\cc6DIkXk.s 			page 62


 1992              		.loc 3 394 18 view .LVU479
 1993 0118 0BEB0504 		add	r4, fp, r5
 1994 011c 2649     		ldr	r1, .L167
 1995              	.LBB395:
 1996              	.LBB391:
 133:../../libdaisy/src/hid/disp/display.h ****         currentY_ = (y >= Height()) ? Height() - 1 : y;
 1997              		.loc 3 133 33 view .LVU480
 1998 011e D368     		ldr	r3, [r2, #12]
 1999              	.LBE391:
 2000              	.LBE395:
 394:../../libdaisy/src/hid/disp/display.h **** 
 2001              		.loc 3 394 18 view .LVU481
 2002 0120 A4B2     		uxth	r4, r4
 2003              	.LVL185:
 2004              	.LBB396:
 2005              	.LBI389:
 131:../../libdaisy/src/hid/disp/display.h ****     {
 2006              		.loc 3 131 10 is_stmt 1 view .LVU482
 2007              	.LBB392:
 133:../../libdaisy/src/hid/disp/display.h ****         currentY_ = (y >= Height()) ? Height() - 1 : y;
 2008              		.loc 3 133 9 view .LVU483
 2009 0122 8B42     		cmp	r3, r1
 2010 0124 34D1     		bne	.L163
 133:../../libdaisy/src/hid/disp/display.h ****         currentY_ = (y >= Height()) ? Height() - 1 : y;
 2011              		.loc 3 133 33 is_stmt 0 view .LVU484
 2012 0126 8020     		movs	r0, #128
 2013              	.L139:
 133:../../libdaisy/src/hid/disp/display.h ****         currentY_ = (y >= Height()) ? Height() - 1 : y;
 2014              		.loc 3 133 19 view .LVU485
 2015 0128 8442     		cmp	r4, r0
 2016 012a 04D3     		bcc	.L140
 133:../../libdaisy/src/hid/disp/display.h ****         currentY_ = (y >= Height()) ? Height() - 1 : y;
 2017              		.loc 3 133 44 view .LVU486
 2018 012c D368     		ldr	r3, [r2, #12]
 2019 012e 2249     		ldr	r1, .L167
 2020 0130 8B42     		cmp	r3, r1
 2021 0132 3AD1     		bne	.L164
 2022 0134 7F24     		movs	r4, #127
 2023              	.LVL186:
 2024              	.L140:
 134:../../libdaisy/src/hid/disp/display.h ****     }
 2025              		.loc 3 134 34 view .LVU487
 2026 0136 9368     		ldr	r3, [r2, #8]
 2027 0138 204A     		ldr	r2, .L167+4
 133:../../libdaisy/src/hid/disp/display.h ****         currentY_ = (y >= Height()) ? Height() - 1 : y;
 2028              		.loc 3 133 19 view .LVU488
 2029 013a B480     		strh	r4, [r6, #4]	@ movhi
 134:../../libdaisy/src/hid/disp/display.h ****     }
 2030              		.loc 3 134 9 is_stmt 1 view .LVU489
 2031 013c 9342     		cmp	r3, r2
 2032 013e 24D1     		bne	.L165
 134:../../libdaisy/src/hid/disp/display.h ****     }
 2033              		.loc 3 134 34 is_stmt 0 view .LVU490
 2034 0140 4020     		movs	r0, #64
 2035              	.L142:
 134:../../libdaisy/src/hid/disp/display.h ****     }
 2036              		.loc 3 134 19 view .LVU491
ARM GAS  C:\Users\VINCIU~1\AppData\Local\Temp\cc6DIkXk.s 			page 63


 2037 0142 029B     		ldr	r3, [sp, #8]
 2038 0144 8342     		cmp	r3, r0
 2039 0146 06D3     		bcc	.L143
 134:../../libdaisy/src/hid/disp/display.h ****     }
 2040              		.loc 3 134 46 view .LVU492
 2041 0148 3368     		ldr	r3, [r6]
 2042 014a 1C4A     		ldr	r2, .L167+4
 2043 014c 9B68     		ldr	r3, [r3, #8]
 2044 014e 9342     		cmp	r3, r2
 2045 0150 25D1     		bne	.L166
 2046 0152 3F23     		movs	r3, #63
 2047 0154 0293     		str	r3, [sp, #8]
 2048              	.LVL187:
 2049              	.L143:
 134:../../libdaisy/src/hid/disp/display.h ****     }
 2050              		.loc 3 134 19 view .LVU493
 2051 0156 029B     		ldr	r3, [sp, #8]
 2052 0158 F380     		strh	r3, [r6, #6]	@ movhi
 2053              	.LVL188:
 2054              	.L125:
 134:../../libdaisy/src/hid/disp/display.h ****     }
 2055              		.loc 3 134 19 view .LVU494
 2056              	.LBE392:
 2057              	.LBE396:
 2058              	.LBE358:
 2059              	.LBE357:
 404:../../libdaisy/src/hid/disp/display.h ****         {
 405:../../libdaisy/src/hid/disp/display.h ****             if(((ChildType*)(this))->ChildType::WriteChar(*str, font, on)
 406:../../libdaisy/src/hid/disp/display.h ****                != *str)
 2060              		.loc 3 406 16 view .LVU495
 2061 015a 019B     		ldr	r3, [sp, #4]
 2062 015c 1878     		ldrb	r0, [r3]	@ zero_extendqisi2
 405:../../libdaisy/src/hid/disp/display.h ****                != *str)
 2063              		.loc 3 405 13 view .LVU496
 2064 015e 4045     		cmp	r0, r8
 2065 0160 07D1     		bne	.L123
 2066              	.LVL189:
 403:../../libdaisy/src/hid/disp/display.h ****         {
 2067              		.loc 3 403 9 is_stmt 1 view .LVU497
 2068 0162 13F8018F 		ldrb	r8, [r3, #1]!	@ zero_extendqisi2
 2069              	.LVL190:
 403:../../libdaisy/src/hid/disp/display.h ****         {
 2070              		.loc 3 403 9 is_stmt 0 view .LVU498
 2071 0166 0193     		str	r3, [sp, #4]
 2072 0168 B8F1000F 		cmp	r8, #0
 2073 016c 7FF460AF 		bne	.L146
 2074              	.LVL191:
 2075              	.L145:
 2076              	.LBB401:
 2077              	.LBB399:
 362:../../libdaisy/src/hid/disp/display.h **** 
 2078              		.loc 3 362 20 view .LVU499
 2079 0170 0020     		movs	r0, #0
 2080              	.L123:
 2081              	.LBE399:
 2082              	.LBE401:
 407:../../libdaisy/src/hid/disp/display.h ****             {
ARM GAS  C:\Users\VINCIU~1\AppData\Local\Temp\cc6DIkXk.s 			page 64


 408:../../libdaisy/src/hid/disp/display.h ****                 // Char could not be written
 409:../../libdaisy/src/hid/disp/display.h ****                 return *str;
 410:../../libdaisy/src/hid/disp/display.h ****             }
 411:../../libdaisy/src/hid/disp/display.h **** 
 412:../../libdaisy/src/hid/disp/display.h ****             // Next char
 413:../../libdaisy/src/hid/disp/display.h ****             str++;
 414:../../libdaisy/src/hid/disp/display.h ****         }
 415:../../libdaisy/src/hid/disp/display.h **** 
 416:../../libdaisy/src/hid/disp/display.h ****         // Everything ok
 417:../../libdaisy/src/hid/disp/display.h ****         return *str;
 418:../../libdaisy/src/hid/disp/display.h ****     }
 2083              		.loc 3 418 5 view .LVU500
 2084 0172 09B0     		add	sp, sp, #36
 2085              		.cfi_remember_state
 2086              		.cfi_def_cfa_offset 36
 2087              		@ sp needed
 2088 0174 BDE8F08F 		pop	{r4, r5, r6, r7, r8, r9, r10, fp, pc}
 2089              	.LVL192:
 2090              	.L127:
 2091              		.cfi_restore_state
 2092              	.LBB402:
 2093              	.LBB400:
 362:../../libdaisy/src/hid/disp/display.h **** 
 2094              		.loc 3 362 20 view .LVU501
 2095 0178 4FF00008 		mov	r8, #0
 2096              	.LVL193:
 362:../../libdaisy/src/hid/disp/display.h **** 
 2097              		.loc 3 362 20 view .LVU502
 2098 017c EDE7     		b	.L125
 2099              	.LVL194:
 2100              	.L160:
 365:../../libdaisy/src/hid/disp/display.h ****            || Height() < (currentY_ + font.FontHeight))
 2101              		.loc 3 365 17 view .LVU503
 2102 017e 3046     		mov	r0, r6
 2103 0180 9847     		blx	r3
 2104              	.LVL195:
 2105 0182 62E7     		b	.L126
 2106              	.L161:
 366:../../libdaisy/src/hid/disp/display.h ****         {
 2107              		.loc 3 366 21 view .LVU504
 2108 0184 3046     		mov	r0, r6
 2109 0186 9847     		blx	r3
 2110              	.LVL196:
 2111 0188 6BE7     		b	.L128
 2112              	.LVL197:
 2113              	.L165:
 2114              	.LBB397:
 2115              	.LBB393:
 134:../../libdaisy/src/hid/disp/display.h ****     }
 2116              		.loc 3 134 33 view .LVU505
 2117 018a 3046     		mov	r0, r6
 2118 018c 9847     		blx	r3
 2119              	.LVL198:
 2120 018e D8E7     		b	.L142
 2121              	.LVL199:
 2122              	.L163:
 133:../../libdaisy/src/hid/disp/display.h ****         currentY_ = (y >= Height()) ? Height() - 1 : y;
ARM GAS  C:\Users\VINCIU~1\AppData\Local\Temp\cc6DIkXk.s 			page 65


 2123              		.loc 3 133 32 view .LVU506
 2124 0190 3046     		mov	r0, r6
 2125 0192 9847     		blx	r3
 2126              	.LVL200:
 133:../../libdaisy/src/hid/disp/display.h ****         currentY_ = (y >= Height()) ? Height() - 1 : y;
 2127              		.loc 3 133 44 view .LVU507
 2128 0194 3268     		ldr	r2, [r6]
 2129 0196 C7E7     		b	.L139
 2130              	.LVL201:
 2131              	.L129:
 133:../../libdaisy/src/hid/disp/display.h ****         currentY_ = (y >= Height()) ? Height() - 1 : y;
 2132              		.loc 3 133 44 view .LVU508
 2133              	.LBE393:
 2134              	.LBE397:
 394:../../libdaisy/src/hid/disp/display.h **** 
 2135              		.loc 3 394 19 view .LVU509
 2136 0198 B6F804B0 		ldrh	fp, [r6, #4]
 2137 019c BBE7     		b	.L131
 2138              	.LVL202:
 2139              	.L166:
 2140              	.LBB398:
 2141              	.LBB394:
 134:../../libdaisy/src/hid/disp/display.h ****     }
 2142              		.loc 3 134 45 view .LVU510
 2143 019e 3046     		mov	r0, r6
 2144 01a0 9847     		blx	r3
 2145              	.LVL203:
 134:../../libdaisy/src/hid/disp/display.h ****     }
 2146              		.loc 3 134 19 view .LVU511
 2147 01a2 0138     		subs	r0, r0, #1
 2148 01a4 83B2     		uxth	r3, r0
 2149 01a6 0293     		str	r3, [sp, #8]
 2150              	.LVL204:
 134:../../libdaisy/src/hid/disp/display.h ****     }
 2151              		.loc 3 134 19 view .LVU512
 2152 01a8 D5E7     		b	.L143
 2153              	.LVL205:
 2154              	.L164:
 133:../../libdaisy/src/hid/disp/display.h ****         currentY_ = (y >= Height()) ? Height() - 1 : y;
 2155              		.loc 3 133 43 view .LVU513
 2156 01aa 3046     		mov	r0, r6
 2157 01ac 9847     		blx	r3
 2158              	.LVL206:
 133:../../libdaisy/src/hid/disp/display.h ****         currentY_ = (y >= Height()) ? Height() - 1 : y;
 2159              		.loc 3 133 19 view .LVU514
 2160 01ae 0138     		subs	r0, r0, #1
 134:../../libdaisy/src/hid/disp/display.h ****     }
 2161              		.loc 3 134 34 view .LVU515
 2162 01b0 3268     		ldr	r2, [r6]
 133:../../libdaisy/src/hid/disp/display.h ****         currentY_ = (y >= Height()) ? Height() - 1 : y;
 2163              		.loc 3 133 19 view .LVU516
 2164 01b2 84B2     		uxth	r4, r0
 2165              	.LVL207:
 133:../../libdaisy/src/hid/disp/display.h ****         currentY_ = (y >= Height()) ? Height() - 1 : y;
 2166              		.loc 3 133 19 view .LVU517
 2167 01b4 BFE7     		b	.L140
 2168              	.L168:
ARM GAS  C:\Users\VINCIU~1\AppData\Local\Temp\cc6DIkXk.s 			page 66


 2169 01b6 00BF     		.align	2
 2170              	.L167:
 2171 01b8 00000000 		.word	_ZNK5daisy11OledDisplayINS_13SSD130xDriverILj128ELj64ENS_24SSD130x4WireSpiTransportEEEE5Widt
 2172 01bc 00000000 		.word	_ZNK5daisy11OledDisplayINS_13SSD130xDriverILj128ELj64ENS_24SSD130x4WireSpiTransportEEEE6Heig
 2173              	.LBE394:
 2174              	.LBE398:
 2175              	.LBE400:
 2176              	.LBE402:
 2177              		.cfi_endproc
 2178              	.LFE1839:
 2180              		.section	.text._ZN5daisy25OneBitGraphicsDisplayImplINS_11OledDisplayINS_13SSD130xDriverILj128ELj64
 2181              		.align	1
 2182              		.p2align 2,,3
 2183              		.weak	_ZN5daisy25OneBitGraphicsDisplayImplINS_11OledDisplayINS_13SSD130xDriverILj128ELj64ENS_24SSD
 2184              		.syntax unified
 2185              		.thumb
 2186              		.thumb_func
 2187              		.fpu fpv5-d16
 2189              	_ZN5daisy25OneBitGraphicsDisplayImplINS_11OledDisplayINS_13SSD130xDriverILj128ELj64ENS_24SSD130x4Wi
 2190              	.LVL208:
 2191              	.LFB1849:
 356:../../libdaisy/src/hid/disp/display.h ****     {
 2192              		.loc 3 356 10 is_stmt 1 view -0
 2193              		.cfi_startproc
 2194              		@ args = 4, pretend = 0, frame = 16
 2195              		@ frame_needed = 0, uses_anonymous_args = 0
 356:../../libdaisy/src/hid/disp/display.h ****     {
 2196              		.loc 3 356 10 is_stmt 0 view .LVU519
 2197 0000 2DE9F04F 		push	{r4, r5, r6, r7, r8, r9, r10, fp, lr}
 2198              		.cfi_def_cfa_offset 36
 2199              		.cfi_offset 4, -36
 2200              		.cfi_offset 5, -32
 2201              		.cfi_offset 6, -28
 2202              		.cfi_offset 7, -24
 2203              		.cfi_offset 8, -20
 2204              		.cfi_offset 9, -16
 2205              		.cfi_offset 10, -12
 2206              		.cfi_offset 11, -8
 2207              		.cfi_offset 14, -4
 2208 0004 85B0     		sub	sp, sp, #20
 2209              		.cfi_def_cfa_offset 56
 2210              	.LVL209:
 361:../../libdaisy/src/hid/disp/display.h ****             return 0;
 2211              		.loc 3 361 20 view .LVU520
 2212 0006 A1F12005 		sub	r5, r1, #32
 356:../../libdaisy/src/hid/disp/display.h ****     {
 2213              		.loc 3 356 10 view .LVU521
 2214 000a 04AC     		add	r4, sp, #16
 2215 000c 9DF83870 		ldrb	r7, [sp, #56]	@ zero_extendqisi2
 2216 0010 0091     		str	r1, [sp]
 2217 0012 04E90C00 		stmdb	r4, {r2, r3}
 2218              	.LVL210:
 361:../../libdaisy/src/hid/disp/display.h ****             return 0;
 2219              		.loc 3 361 9 view .LVU522
 2220 0016 EBB2     		uxtb	r3, r5
 2221 0018 5E2B     		cmp	r3, #94
 2222 001a 00F29580 		bhi	.L173
ARM GAS  C:\Users\VINCIU~1\AppData\Local\Temp\cc6DIkXk.s 			page 67


 365:../../libdaisy/src/hid/disp/display.h ****            || Height() < (currentY_ + font.FontHeight))
 2223              		.loc 3 365 17 view .LVU523
 2224 001e 0368     		ldr	r3, [r0]
 2225 0020 8046     		mov	r8, r0
 2226 0022 5D4A     		ldr	r2, .L208
 2227 0024 DB68     		ldr	r3, [r3, #12]
 2228 0026 9DF80840 		ldrb	r4, [sp, #8]	@ zero_extendqisi2
 2229 002a 9342     		cmp	r3, r2
 2230 002c 9DF80960 		ldrb	r6, [sp, #9]	@ zero_extendqisi2
 2231 0030 40F09480 		bne	.L200
 2232 0034 8020     		movs	r0, #128
 2233              	.LVL211:
 2234              	.L172:
 365:../../libdaisy/src/hid/disp/display.h ****            || Height() < (currentY_ + font.FontHeight))
 2235              		.loc 3 365 23 view .LVU524
 2236 0036 B8F80430 		ldrh	r3, [r8, #4]
 365:../../libdaisy/src/hid/disp/display.h ****            || Height() < (currentY_ + font.FontHeight))
 2237              		.loc 3 365 33 view .LVU525
 2238 003a 2344     		add	r3, r3, r4
 366:../../libdaisy/src/hid/disp/display.h ****         {
 2239              		.loc 3 366 12 view .LVU526
 2240 003c 8342     		cmp	r3, r0
 2241 003e 00F38380 		bgt	.L173
 366:../../libdaisy/src/hid/disp/display.h ****         {
 2242              		.loc 3 366 21 discriminator 2 view .LVU527
 2243 0042 D8F80030 		ldr	r3, [r8]
 2244 0046 554A     		ldr	r2, .L208+4
 2245 0048 9B68     		ldr	r3, [r3, #8]
 2246 004a 9342     		cmp	r3, r2
 2247 004c 40F08880 		bne	.L201
 366:../../libdaisy/src/hid/disp/display.h ****         {
 2248              		.loc 3 366 21 view .LVU528
 2249 0050 4020     		movs	r0, #64
 2250              	.L174:
 366:../../libdaisy/src/hid/disp/display.h ****         {
 2251              		.loc 3 366 27 discriminator 2 view .LVU529
 2252 0052 B8F80620 		ldrh	r2, [r8, #6]
 366:../../libdaisy/src/hid/disp/display.h ****         {
 2253              		.loc 3 366 37 discriminator 2 view .LVU530
 2254 0056 9319     		adds	r3, r2, r6
 366:../../libdaisy/src/hid/disp/display.h ****         {
 2255              		.loc 3 366 27 discriminator 2 view .LVU531
 2256 0058 0192     		str	r2, [sp, #4]
 366:../../libdaisy/src/hid/disp/display.h ****         {
 2257              		.loc 3 366 12 discriminator 2 view .LVU532
 2258 005a 8342     		cmp	r3, r0
 2259 005c 74DC     		bgt	.L173
 2260              	.LVL212:
 373:../../libdaisy/src/hid/disp/display.h ****         {
 2261              		.loc 3 373 22 is_stmt 1 view .LVU533
 2262 005e 002E     		cmp	r6, #0
 2263 0060 00F08980 		beq	.L175
 375:../../libdaisy/src/hid/disp/display.h ****             for(j = 0; j < font.FontWidth; j++)
 2264              		.loc 3 375 37 is_stmt 0 view .LVU534
 2265 0064 06FB05F5 		mul	r5, r6, r5
 2266 0068 6FF00040 		mvn	r0, #-2147483648
 375:../../libdaisy/src/hid/disp/display.h ****             for(j = 0; j < font.FontWidth; j++)
ARM GAS  C:\Users\VINCIU~1\AppData\Local\Temp\cc6DIkXk.s 			page 68


 2267              		.loc 3 375 22 view .LVU535
 2268 006c 039B     		ldr	r3, [sp, #12]
 2269 006e 9646     		mov	lr, r2
 2270 0070 2844     		add	r0, r0, r5
 2271 0072 2E44     		add	r6, r6, r5
 394:../../libdaisy/src/hid/disp/display.h **** 
 2272              		.loc 3 394 19 view .LVU536
 2273 0074 B8F804A0 		ldrh	r10, [r8, #4]
 2274 0078 03EB4000 		add	r0, r3, r0, lsl #1
 2275 007c 023B     		subs	r3, r3, #2
 2276 007e 03EB460B 		add	fp, r3, r6, lsl #1
 2277              	.LVL213:
 2278              	.L178:
 375:../../libdaisy/src/hid/disp/display.h ****             for(j = 0; j < font.FontWidth; j++)
 2279              		.loc 3 375 15 view .LVU537
 2280 0082 30F8026F 		ldrh	r6, [r0, #2]!
 2281              	.LVL214:
 376:../../libdaisy/src/hid/disp/display.h ****             {
 2282              		.loc 3 376 26 is_stmt 1 view .LVU538
 2283 0086 BCB3     		cbz	r4, .L183
 2284              	.LBB429:
 2285              	.LBB430:
 2286              	.LBB431:
 2287              	.LBB432:
 2288              	.LBB433:
 246:../../libdaisy/src/dev/oled_ssd130x.h ****     }
 2289              		.loc 4 246 55 is_stmt 0 view .LVU539
 2290 0088 0EF00703 		and	r3, lr, #7
 246:../../libdaisy/src/dev/oled_ssd130x.h ****     }
 2291              		.loc 4 246 49 view .LVU540
 2292 008c 4FF0010C 		mov	ip, #1
 246:../../libdaisy/src/dev/oled_ssd130x.h ****     }
 2293              		.loc 4 246 28 view .LVU541
 2294 0090 4FEADE02 		lsr	r2, lr, #3
 2295 0094 5146     		mov	r1, r10
 246:../../libdaisy/src/dev/oled_ssd130x.h ****     }
 2296              		.loc 4 246 49 view .LVU542
 2297 0096 0CFA03FC 		lsl	ip, ip, r3
 2298 009a 0AF11403 		add	r3, r10, #20
 246:../../libdaisy/src/dev/oled_ssd130x.h ****     }
 2299              		.loc 4 246 42 view .LVU543
 2300 009e 4FFA8CFC 		sxtb	ip, ip
 2301 00a2 03EBC212 		add	r2, r3, r2, lsl #7
 2302              	.LBE433:
 2303              	.LBE432:
 2304              	.LBE431:
 2305              	.LBE430:
 2306              	.LBE429:
 376:../../libdaisy/src/hid/disp/display.h ****             {
 2307              		.loc 3 376 19 view .LVU544
 2308 00a6 0023     		movs	r3, #0
 2309              	.LBB451:
 2310              	.LBB446:
 2311              	.LBB441:
 2312              	.LBB437:
 2313              	.LBB434:
 246:../../libdaisy/src/dev/oled_ssd130x.h ****     }
ARM GAS  C:\Users\VINCIU~1\AppData\Local\Temp\cc6DIkXk.s 			page 69


 2314              		.loc 4 246 42 view .LVU545
 2315 00a8 6FEA0C09 		mvn	r9, ip
 2316 00ac 4244     		add	r2, r2, r8
 2317 00ae 0EE0     		b	.L184
 2318              	.LVL215:
 2319              	.L202:
 246:../../libdaisy/src/dev/oled_ssd130x.h ****     }
 2320              		.loc 4 246 42 view .LVU546
 2321              	.LBE434:
 2322              	.LBE437:
 2323              	.LBE441:
 2324              	.LBE446:
 2325              	.LBE451:
 2326              	.LBB452:
 2327              	.LBI452:
  41:../../libdaisy/src/hid/disp/oled_display.h ****     {
 2328              		.loc 2 41 10 is_stmt 1 view .LVU547
 2329              	.LBB453:
 2330              	.LBI453:
 239:../../libdaisy/src/dev/oled_ssd130x.h ****     {
 2331              		.loc 4 239 10 view .LVU548
 2332              	.LBB454:
 241:../../libdaisy/src/dev/oled_ssd130x.h ****             return;
 2333              		.loc 4 241 9 is_stmt 0 view .LVU549
 2334 00b0 7F29     		cmp	r1, #127
 2335 00b2 07D8     		bhi	.L180
 2336 00b4 BEF13F0F 		cmp	lr, #63
 2337 00b8 04D8     		bhi	.L180
 244:../../libdaisy/src/dev/oled_ssd130x.h ****         else
 2338              		.loc 4 244 42 view .LVU550
 2339 00ba 1578     		ldrb	r5, [r2]	@ zero_extendqisi2
 243:../../libdaisy/src/dev/oled_ssd130x.h ****             buffer_[x + (y / 8) * width] |= (1 << (y % 8));
 2340              		.loc 4 243 9 view .LVU551
 2341 00bc 9FB1     		cbz	r7, .L182
 2342              	.L199:
 243:../../libdaisy/src/dev/oled_ssd130x.h ****             buffer_[x + (y / 8) * width] |= (1 << (y % 8));
 2343              		.loc 4 243 9 view .LVU552
 2344              	.LBE454:
 2345              	.LBE453:
 2346              	.LBE452:
 2347              	.LBB455:
 2348              	.LBB447:
 2349              	.LBB442:
 244:../../libdaisy/src/dev/oled_ssd130x.h ****         else
 2350              		.loc 4 244 42 view .LVU553
 2351 00be 4CEA0505 		orr	r5, ip, r5
 2352 00c2 1570     		strb	r5, [r2]
 2353              	.L180:
 2354              	.LBE442:
 2355              	.LBE447:
 2356              	.LBE455:
 376:../../libdaisy/src/hid/disp/display.h ****             {
 2357              		.loc 3 376 13 is_stmt 1 discriminator 2 view .LVU554
 2358 00c4 0133     		adds	r3, r3, #1
 2359              	.LVL216:
 376:../../libdaisy/src/hid/disp/display.h ****             {
 2360              		.loc 3 376 26 discriminator 2 view .LVU555
ARM GAS  C:\Users\VINCIU~1\AppData\Local\Temp\cc6DIkXk.s 			page 70


 2361 00c6 0132     		adds	r2, r2, #1
 2362 00c8 0131     		adds	r1, r1, #1
 2363 00ca 9C42     		cmp	r4, r3
 2364 00cc 14D0     		beq	.L183
 2365              	.LVL217:
 2366              	.L184:
 378:../../libdaisy/src/hid/disp/display.h ****                 {
 2367              		.loc 3 378 23 is_stmt 0 view .LVU556
 2368 00ce 06FA03F5 		lsl	r5, r6, r3
 378:../../libdaisy/src/hid/disp/display.h ****                 {
 2369              		.loc 3 378 17 view .LVU557
 2370 00d2 2D04     		lsls	r5, r5, #16
 2371 00d4 ECD4     		bmi	.L202
 2372              	.LVL218:
 2373              	.LBB456:
 2374              	.LBI429:
  41:../../libdaisy/src/hid/disp/oled_display.h ****     {
 2375              		.loc 2 41 10 is_stmt 1 view .LVU558
 2376              	.LBB448:
 2377              	.LBI430:
 239:../../libdaisy/src/dev/oled_ssd130x.h ****     {
 2378              		.loc 4 239 10 view .LVU559
 2379              	.LBB443:
 241:../../libdaisy/src/dev/oled_ssd130x.h ****             return;
 2380              		.loc 4 241 9 is_stmt 0 view .LVU560
 2381 00d6 7F29     		cmp	r1, #127
 2382 00d8 F4D8     		bhi	.L180
 2383 00da BEF13F0F 		cmp	lr, #63
 2384 00de F1D8     		bhi	.L180
 244:../../libdaisy/src/dev/oled_ssd130x.h ****         else
 2385              		.loc 4 244 42 view .LVU561
 2386 00e0 1578     		ldrb	r5, [r2]	@ zero_extendqisi2
 243:../../libdaisy/src/dev/oled_ssd130x.h ****             buffer_[x + (y / 8) * width] |= (1 << (y % 8));
 2387              		.loc 4 243 9 view .LVU562
 2388 00e2 002F     		cmp	r7, #0
 2389 00e4 EBD0     		beq	.L199
 2390              	.L182:
 2391              	.LVL219:
 2392              	.LBB438:
 2393              	.LBI432:
 239:../../libdaisy/src/dev/oled_ssd130x.h ****     {
 2394              		.loc 4 239 10 is_stmt 1 view .LVU563
 239:../../libdaisy/src/dev/oled_ssd130x.h ****     {
 2395              		.loc 4 239 10 is_stmt 0 view .LVU564
 2396              	.LBE438:
 2397              	.LBE443:
 2398              	.LBE448:
 2399              	.LBE456:
 376:../../libdaisy/src/hid/disp/display.h ****             {
 2400              		.loc 3 376 13 view .LVU565
 2401 00e6 0133     		adds	r3, r3, #1
 2402              	.LVL220:
 2403              	.LBB457:
 2404              	.LBB449:
 2405              	.LBB444:
 2406              	.LBB439:
 2407              	.LBB435:
ARM GAS  C:\Users\VINCIU~1\AppData\Local\Temp\cc6DIkXk.s 			page 71


 246:../../libdaisy/src/dev/oled_ssd130x.h ****     }
 2408              		.loc 4 246 42 view .LVU566
 2409 00e8 09EA0505 		and	r5, r9, r5
 2410              	.LBE435:
 2411              	.LBE439:
 2412              	.LBE444:
 2413              	.LBE449:
 2414              	.LBE457:
 376:../../libdaisy/src/hid/disp/display.h ****             {
 2415              		.loc 3 376 26 view .LVU567
 2416 00ec 0132     		adds	r2, r2, #1
 2417 00ee 0131     		adds	r1, r1, #1
 2418 00f0 9C42     		cmp	r4, r3
 2419              	.LBB458:
 2420              	.LBB450:
 2421              	.LBB445:
 2422              	.LBB440:
 2423              	.LBB436:
 246:../../libdaisy/src/dev/oled_ssd130x.h ****     }
 2424              		.loc 4 246 42 view .LVU568
 2425 00f2 02F8015C 		strb	r5, [r2, #-1]
 246:../../libdaisy/src/dev/oled_ssd130x.h ****     }
 2426              		.loc 4 246 42 view .LVU569
 2427              	.LBE436:
 2428              	.LBE440:
 2429              	.LBE445:
 2430              	.LBE450:
 2431              	.LBE458:
 376:../../libdaisy/src/hid/disp/display.h ****             {
 2432              		.loc 3 376 13 is_stmt 1 view .LVU570
 2433              	.LVL221:
 376:../../libdaisy/src/hid/disp/display.h ****             {
 2434              		.loc 3 376 26 view .LVU571
 2435 00f6 EAD1     		bne	.L184
 2436              	.LVL222:
 2437              	.L183:
 373:../../libdaisy/src/hid/disp/display.h ****         {
 2438              		.loc 3 373 9 view .LVU572
 373:../../libdaisy/src/hid/disp/display.h ****         {
 2439              		.loc 3 373 22 view .LVU573
 2440 00f8 5845     		cmp	r0, fp
 2441 00fa 0EF1010E 		add	lr, lr, #1
 2442 00fe C0D1     		bne	.L178
 2443              	.LVL223:
 2444              	.L177:
 2445              	.LBB459:
 2446              	.LBB460:
 133:../../libdaisy/src/hid/disp/display.h ****         currentY_ = (y >= Height()) ? Height() - 1 : y;
 2447              		.loc 3 133 33 is_stmt 0 view .LVU574
 2448 0100 D8F80030 		ldr	r3, [r8]
 2449              	.LBE460:
 2450              	.LBE459:
 394:../../libdaisy/src/hid/disp/display.h **** 
 2451              		.loc 3 394 18 view .LVU575
 2452 0104 5444     		add	r4, r4, r10
 2453 0106 2449     		ldr	r1, .L208
 2454              	.LBB466:
ARM GAS  C:\Users\VINCIU~1\AppData\Local\Temp\cc6DIkXk.s 			page 72


 2455              	.LBB461:
 133:../../libdaisy/src/hid/disp/display.h ****         currentY_ = (y >= Height()) ? Height() - 1 : y;
 2456              		.loc 3 133 33 view .LVU576
 2457 0108 DA68     		ldr	r2, [r3, #12]
 2458              	.LBE461:
 2459              	.LBE466:
 394:../../libdaisy/src/hid/disp/display.h **** 
 2460              		.loc 3 394 18 view .LVU577
 2461 010a A4B2     		uxth	r4, r4
 2462              	.LVL224:
 2463              	.LBB467:
 2464              	.LBI459:
 131:../../libdaisy/src/hid/disp/display.h ****     {
 2465              		.loc 3 131 10 is_stmt 1 view .LVU578
 2466              	.LBB462:
 133:../../libdaisy/src/hid/disp/display.h ****         currentY_ = (y >= Height()) ? Height() - 1 : y;
 2467              		.loc 3 133 9 view .LVU579
 2468 010c 8A42     		cmp	r2, r1
 2469 010e 2DD1     		bne	.L203
 133:../../libdaisy/src/hid/disp/display.h ****         currentY_ = (y >= Height()) ? Height() - 1 : y;
 2470              		.loc 3 133 33 is_stmt 0 view .LVU580
 2471 0110 8020     		movs	r0, #128
 2472              	.L185:
 133:../../libdaisy/src/hid/disp/display.h ****         currentY_ = (y >= Height()) ? Height() - 1 : y;
 2473              		.loc 3 133 19 view .LVU581
 2474 0112 8442     		cmp	r4, r0
 2475 0114 1CD2     		bcs	.L204
 2476              	.LVL225:
 2477              	.L186:
 134:../../libdaisy/src/hid/disp/display.h ****     }
 2478              		.loc 3 134 34 view .LVU582
 2479 0116 9B68     		ldr	r3, [r3, #8]
 2480 0118 204A     		ldr	r2, .L208+4
 133:../../libdaisy/src/hid/disp/display.h ****         currentY_ = (y >= Height()) ? Height() - 1 : y;
 2481              		.loc 3 133 19 view .LVU583
 2482 011a A8F80440 		strh	r4, [r8, #4]	@ movhi
 134:../../libdaisy/src/hid/disp/display.h ****     }
 2483              		.loc 3 134 9 is_stmt 1 view .LVU584
 2484 011e 9342     		cmp	r3, r2
 2485 0120 21D1     		bne	.L205
 134:../../libdaisy/src/hid/disp/display.h ****     }
 2486              		.loc 3 134 34 is_stmt 0 view .LVU585
 2487 0122 4020     		movs	r0, #64
 2488              	.L188:
 134:../../libdaisy/src/hid/disp/display.h ****     }
 2489              		.loc 3 134 19 view .LVU586
 2490 0124 019B     		ldr	r3, [sp, #4]
 2491 0126 8342     		cmp	r3, r0
 2492 0128 07D3     		bcc	.L189
 134:../../libdaisy/src/hid/disp/display.h ****     }
 2493              		.loc 3 134 46 view .LVU587
 2494 012a D8F80030 		ldr	r3, [r8]
 2495 012e 1B4A     		ldr	r2, .L208+4
 2496 0130 9B68     		ldr	r3, [r3, #8]
 2497 0132 9342     		cmp	r3, r2
 2498 0134 29D1     		bne	.L206
 2499 0136 3F23     		movs	r3, #63
ARM GAS  C:\Users\VINCIU~1\AppData\Local\Temp\cc6DIkXk.s 			page 73


 2500 0138 0193     		str	r3, [sp, #4]
 2501              	.LVL226:
 2502              	.L189:
 134:../../libdaisy/src/hid/disp/display.h ****     }
 2503              		.loc 3 134 19 view .LVU588
 2504 013a DDE90003 		ldrd	r0, r3, [sp]
 2505 013e A8F80630 		strh	r3, [r8, #6]	@ movhi
 2506              	.LVL227:
 134:../../libdaisy/src/hid/disp/display.h ****     }
 2507              		.loc 3 134 19 view .LVU589
 2508              	.LBE462:
 2509              	.LBE467:
 398:../../libdaisy/src/hid/disp/display.h **** 
 2510              		.loc 3 398 5 view .LVU590
 2511 0142 05B0     		add	sp, sp, #20
 2512              		.cfi_remember_state
 2513              		.cfi_def_cfa_offset 36
 2514              		@ sp needed
 2515 0144 BDE8F08F 		pop	{r4, r5, r6, r7, r8, r9, r10, fp, pc}
 2516              	.LVL228:
 2517              	.L173:
 2518              		.cfi_restore_state
 362:../../libdaisy/src/hid/disp/display.h **** 
 2519              		.loc 3 362 20 view .LVU591
 2520 0148 0020     		movs	r0, #0
 398:../../libdaisy/src/hid/disp/display.h **** 
 2521              		.loc 3 398 5 view .LVU592
 2522 014a 05B0     		add	sp, sp, #20
 2523              		.cfi_remember_state
 2524              		.cfi_def_cfa_offset 36
 2525              		@ sp needed
 2526 014c BDE8F08F 		pop	{r4, r5, r6, r7, r8, r9, r10, fp, pc}
 2527              	.LVL229:
 2528              	.L204:
 2529              		.cfi_restore_state
 2530              	.LBB468:
 2531              	.LBB463:
 133:../../libdaisy/src/hid/disp/display.h ****         currentY_ = (y >= Height()) ? Height() - 1 : y;
 2532              		.loc 3 133 44 view .LVU593
 2533 0150 DA68     		ldr	r2, [r3, #12]
 2534 0152 1149     		ldr	r1, .L208
 2535 0154 8A42     		cmp	r2, r1
 2536 0156 11D1     		bne	.L207
 2537 0158 7F24     		movs	r4, #127
 2538              	.LVL230:
 133:../../libdaisy/src/hid/disp/display.h ****         currentY_ = (y >= Height()) ? Height() - 1 : y;
 2539              		.loc 3 133 44 view .LVU594
 2540 015a DCE7     		b	.L186
 2541              	.LVL231:
 2542              	.L200:
