ARM GAS  C:\Users\VINCIU~1\AppData\Local\Temp\ccUTXsQS.s 			page 1


   1              		.cpu cortex-m7
   2              		.eabi_attribute 28, 1
   3              		.eabi_attribute 20, 1
   4              		.eabi_attribute 21, 1
   5              		.eabi_attribute 23, 3
   6              		.eabi_attribute 24, 1
   7              		.eabi_attribute 25, 1
   8              		.eabi_attribute 26, 1
   9              		.eabi_attribute 30, 2
  10              		.eabi_attribute 34, 1
  11              		.eabi_attribute 18, 4
  12              		.file	"SynthMenis.cpp"
  13              		.text
  14              	.Ltext0:
  15              		.cfi_sections	.debug_frame
  16              		.section	.text._ZN5daisy9DaisySeedD2Ev,"axG",%progbits,_ZN5daisy9DaisySeedD5Ev,comdat
  17              		.align	1
  18              		.p2align 2,,3
  19              		.weak	_ZN5daisy9DaisySeedD2Ev
  20              		.arch armv7e-m
  21              		.syntax unified
  22              		.thumb
  23              		.thumb_func
  24              		.fpu fpv5-d16
  26              	_ZN5daisy9DaisySeedD2Ev:
  27              	.LVL0:
  28              	.LFB1793:
  29              		.file 1 "../../libdaisy/src/daisy_seed.h"
   1:../../libdaisy/src/daisy_seed.h **** #pragma once
   2:../../libdaisy/src/daisy_seed.h **** #ifndef DSY_SEED_H
   3:../../libdaisy/src/daisy_seed.h **** #define DSY_SEED_H
   4:../../libdaisy/src/daisy_seed.h **** 
   5:../../libdaisy/src/daisy_seed.h **** #include "daisy.h"
   6:../../libdaisy/src/daisy_seed.h **** 
   7:../../libdaisy/src/daisy_seed.h **** //Uncomment this out if you're still using the rev2 hardware
   8:../../libdaisy/src/daisy_seed.h **** //#define SEED_REV2
   9:../../libdaisy/src/daisy_seed.h **** 
  10:../../libdaisy/src/daisy_seed.h **** namespace daisy
  11:../../libdaisy/src/daisy_seed.h **** {
  12:../../libdaisy/src/daisy_seed.h **** /**
  13:../../libdaisy/src/daisy_seed.h ****    @brief This is the higher-level interface for the Daisy board. \n 
  14:../../libdaisy/src/daisy_seed.h ****     All basic peripheral configuration/initialization is setup here. \n
  15:../../libdaisy/src/daisy_seed.h **** 
  16:../../libdaisy/src/daisy_seed.h ****    @ingroup boards
  17:../../libdaisy/src/daisy_seed.h **** */
  18:../../libdaisy/src/daisy_seed.h **** class DaisySeed
  19:../../libdaisy/src/daisy_seed.h **** {
  20:../../libdaisy/src/daisy_seed.h ****   public:
  21:../../libdaisy/src/daisy_seed.h ****     DaisySeed() {}
  22:../../libdaisy/src/daisy_seed.h ****     ~DaisySeed() {}
  30              		.loc 1 22 5 view -0
  31              		.cfi_startproc
  32              		@ args = 0, pretend = 0, frame = 0
  33              		@ frame_needed = 0, uses_anonymous_args = 0
  34              		@ link register save eliminated.
  35              	.LBB392:
  36              	.LBI392:
ARM GAS  C:\Users\VINCIU~1\AppData\Local\Temp\ccUTXsQS.s 			page 2


  37              		.file 2 "../../libdaisy/src/sys/system.h"
   1:../../libdaisy/src/sys/system.h **** #ifndef DSY_SYSTEM_H
   2:../../libdaisy/src/sys/system.h **** #define DSY_SYSTEM_H
   3:../../libdaisy/src/sys/system.h **** 
   4:../../libdaisy/src/sys/system.h **** #ifndef UNIT_TEST // for unit tests, a dummy implementation is provided below
   5:../../libdaisy/src/sys/system.h **** 
   6:../../libdaisy/src/sys/system.h **** #include <cstdint>
   7:../../libdaisy/src/sys/system.h **** #include "per/tim.h"
   8:../../libdaisy/src/sys/system.h **** 
   9:../../libdaisy/src/sys/system.h **** namespace daisy
  10:../../libdaisy/src/sys/system.h **** {
  11:../../libdaisy/src/sys/system.h **** /** A handle for interacting with the Core System. 
  12:../../libdaisy/src/sys/system.h ****  ** This includes the Clock tree, MPU, global DMA initialization,
  13:../../libdaisy/src/sys/system.h ****  ** cache handling, and any other necessary global initiailzation
  14:../../libdaisy/src/sys/system.h ****  **
  15:../../libdaisy/src/sys/system.h ****  ** @author shensley
  16:../../libdaisy/src/sys/system.h ****  ** @addtogroup system
  17:../../libdaisy/src/sys/system.h ****  */
  18:../../libdaisy/src/sys/system.h **** class System
  19:../../libdaisy/src/sys/system.h **** {
  20:../../libdaisy/src/sys/system.h ****   public:
  21:../../libdaisy/src/sys/system.h ****     /** Contains settings for initializing the System */
  22:../../libdaisy/src/sys/system.h ****     struct Config
  23:../../libdaisy/src/sys/system.h ****     {
  24:../../libdaisy/src/sys/system.h ****         /** Specifies the system clock frequency that feeds APB/AHB clocks, etc. */
  25:../../libdaisy/src/sys/system.h ****         enum class SysClkFreq
  26:../../libdaisy/src/sys/system.h ****         {
  27:../../libdaisy/src/sys/system.h ****             FREQ_400MHZ,
  28:../../libdaisy/src/sys/system.h ****             FREQ_480MHZ,
  29:../../libdaisy/src/sys/system.h ****         };
  30:../../libdaisy/src/sys/system.h **** 
  31:../../libdaisy/src/sys/system.h ****         /** Method to call on the struct to set to defaults
  32:../../libdaisy/src/sys/system.h ****          ** CPU Freq set to 400MHz
  33:../../libdaisy/src/sys/system.h ****          ** Cache Enabled 
  34:../../libdaisy/src/sys/system.h ****          ** */
  35:../../libdaisy/src/sys/system.h ****         void Defaults()
  36:../../libdaisy/src/sys/system.h ****         {
  37:../../libdaisy/src/sys/system.h ****             cpu_freq   = SysClkFreq::FREQ_400MHZ;
  38:../../libdaisy/src/sys/system.h ****             use_dcache = true;
  39:../../libdaisy/src/sys/system.h ****             use_icache = true;
  40:../../libdaisy/src/sys/system.h ****         }
  41:../../libdaisy/src/sys/system.h **** 
  42:../../libdaisy/src/sys/system.h ****         /** Method to call on the struct to set to boost mode:
  43:../../libdaisy/src/sys/system.h ****          ** CPU Freq set to 480MHz
  44:../../libdaisy/src/sys/system.h ****          ** Cache Enabled 
  45:../../libdaisy/src/sys/system.h ****          ** */
  46:../../libdaisy/src/sys/system.h ****         void Boost()
  47:../../libdaisy/src/sys/system.h ****         {
  48:../../libdaisy/src/sys/system.h ****             cpu_freq   = SysClkFreq::FREQ_480MHZ;
  49:../../libdaisy/src/sys/system.h ****             use_dcache = true;
  50:../../libdaisy/src/sys/system.h ****             use_icache = true;
  51:../../libdaisy/src/sys/system.h ****         }
  52:../../libdaisy/src/sys/system.h **** 
  53:../../libdaisy/src/sys/system.h ****         SysClkFreq cpu_freq;
  54:../../libdaisy/src/sys/system.h ****         bool       use_dcache;
  55:../../libdaisy/src/sys/system.h ****         bool       use_icache;
  56:../../libdaisy/src/sys/system.h ****     };
ARM GAS  C:\Users\VINCIU~1\AppData\Local\Temp\ccUTXsQS.s 			page 3


  57:../../libdaisy/src/sys/system.h **** 
  58:../../libdaisy/src/sys/system.h ****     System() {}
  59:../../libdaisy/src/sys/system.h ****     ~System() {}
  38              		.loc 2 59 5 view .LVU1
  39              		.loc 2 59 5 is_stmt 0 view .LVU2
  40              	.LBE392:
  41              	.LBB393:
  42              	.LBI393:
  43              		.file 3 "../../libdaisy/src/hid/usb.h"
   1:../../libdaisy/src/hid/usb.h **** #pragma once
   2:../../libdaisy/src/hid/usb.h **** #ifndef DSY_HID_USB_H
   3:../../libdaisy/src/hid/usb.h **** #define DSY_HID_USB_H
   4:../../libdaisy/src/hid/usb.h **** #include <stdint.h>
   5:../../libdaisy/src/hid/usb.h **** #include <stdlib.h>
   6:../../libdaisy/src/hid/usb.h **** 
   7:../../libdaisy/src/hid/usb.h **** namespace daisy
   8:../../libdaisy/src/hid/usb.h **** /** @addtogroup externals
   9:../../libdaisy/src/hid/usb.h ****     @{
  10:../../libdaisy/src/hid/usb.h **** */
  11:../../libdaisy/src/hid/usb.h **** 
  12:../../libdaisy/src/hid/usb.h **** {
  13:../../libdaisy/src/hid/usb.h **** /** 
  14:../../libdaisy/src/hid/usb.h ****     @brief Interface for initializing and using the USB Peripherals on the daisy
  15:../../libdaisy/src/hid/usb.h ****     @author Stephen Hensley
  16:../../libdaisy/src/hid/usb.h ****     @date December 2019
  17:../../libdaisy/src/hid/usb.h **** */
  18:../../libdaisy/src/hid/usb.h **** class UsbHandle
  19:../../libdaisy/src/hid/usb.h **** {
  20:../../libdaisy/src/hid/usb.h ****   public:
  21:../../libdaisy/src/hid/usb.h ****     /** Return values for USBHandle Functions */
  22:../../libdaisy/src/hid/usb.h ****     enum class Result
  23:../../libdaisy/src/hid/usb.h ****     {
  24:../../libdaisy/src/hid/usb.h ****         OK,
  25:../../libdaisy/src/hid/usb.h ****         ERR,
  26:../../libdaisy/src/hid/usb.h ****     };
  27:../../libdaisy/src/hid/usb.h **** 
  28:../../libdaisy/src/hid/usb.h ****     /** Specified which of the two USB Peripherals to initialize. */
  29:../../libdaisy/src/hid/usb.h ****     enum UsbPeriph
  30:../../libdaisy/src/hid/usb.h ****     {
  31:../../libdaisy/src/hid/usb.h ****         FS_INTERNAL, /**< Internal pin */
  32:../../libdaisy/src/hid/usb.h ****         FS_EXTERNAL, /**< FS External D+ pin is Pin 38 (GPIO32). FS External D- pin is Pin 37 (GPIO
  33:../../libdaisy/src/hid/usb.h ****         FS_BOTH,     /**< Both */
  34:../../libdaisy/src/hid/usb.h ****     };
  35:../../libdaisy/src/hid/usb.h **** 
  36:../../libdaisy/src/hid/usb.h **** 
  37:../../libdaisy/src/hid/usb.h ****     /** Function called upon reception of a buffer */
  38:../../libdaisy/src/hid/usb.h ****     typedef void (*ReceiveCallback)(uint8_t* buff, uint32_t* len);
  39:../../libdaisy/src/hid/usb.h **** 
  40:../../libdaisy/src/hid/usb.h ****     UsbHandle() {}
  41:../../libdaisy/src/hid/usb.h **** 
  42:../../libdaisy/src/hid/usb.h ****     ~UsbHandle() {}
  44              		.loc 3 42 5 is_stmt 1 view .LVU3
  45              		.loc 3 42 5 is_stmt 0 view .LVU4
  46              	.LBE393:
  47              	.LBB394:
  48              	.LBI394:
  49              		.file 4 "../../libdaisy/src/per/adc.h"
ARM GAS  C:\Users\VINCIU~1\AppData\Local\Temp\ccUTXsQS.s 			page 4


   1:../../libdaisy/src/per/adc.h **** #pragma once
   2:../../libdaisy/src/per/adc.h **** #ifndef DSY_ADC_H
   3:../../libdaisy/src/per/adc.h **** #define DSY_ADC_H /**< Macro */
   4:../../libdaisy/src/per/adc.h **** #include <stdint.h>
   5:../../libdaisy/src/per/adc.h **** #include <stdlib.h>
   6:../../libdaisy/src/per/adc.h **** #include "daisy_core.h"
   7:../../libdaisy/src/per/adc.h **** #include "per/gpio.h"
   8:../../libdaisy/src/per/adc.h **** 
   9:../../libdaisy/src/per/adc.h **** #define DSY_ADC_MAX_CHANNELS 14 /**< Maximum number of ADC channels */
  10:../../libdaisy/src/per/adc.h **** 
  11:../../libdaisy/src/per/adc.h **** namespace daisy
  12:../../libdaisy/src/per/adc.h **** {
  13:../../libdaisy/src/per/adc.h **** /** @addtogroup analog_digital_conversion
  14:../../libdaisy/src/per/adc.h ****     @{
  15:../../libdaisy/src/per/adc.h **** */
  16:../../libdaisy/src/per/adc.h **** 
  17:../../libdaisy/src/per/adc.h **** /* While there may not be many configuration options here,
  18:../../libdaisy/src/per/adc.h **** using a struct like this allows us to add more configuration
  19:../../libdaisy/src/per/adc.h **** later without breaking existing functionality.
  20:../../libdaisy/src/per/adc.h **** */
  21:../../libdaisy/src/per/adc.h **** 
  22:../../libdaisy/src/per/adc.h **** /** Configuration Structure for a given channel */
  23:../../libdaisy/src/per/adc.h **** struct AdcChannelConfig
  24:../../libdaisy/src/per/adc.h **** {
  25:../../libdaisy/src/per/adc.h ****     /** Which pin to use for multiplexing */
  26:../../libdaisy/src/per/adc.h ****     enum MuxPin
  27:../../libdaisy/src/per/adc.h ****     {
  28:../../libdaisy/src/per/adc.h ****         MUX_SEL_0,    /**< & */
  29:../../libdaisy/src/per/adc.h ****         MUX_SEL_1,    /**< & */
  30:../../libdaisy/src/per/adc.h ****         MUX_SEL_2,    /**< & */
  31:../../libdaisy/src/per/adc.h ****         MUX_SEL_LAST, /**< & */
  32:../../libdaisy/src/per/adc.h ****     };
  33:../../libdaisy/src/per/adc.h **** 
  34:../../libdaisy/src/per/adc.h ****     /** Initializes a single ADC pin as an ADC. 
  35:../../libdaisy/src/per/adc.h ****     \param pin Pin to init.
  36:../../libdaisy/src/per/adc.h ****      */
  37:../../libdaisy/src/per/adc.h ****     void InitSingle(dsy_gpio_pin pin);
  38:../../libdaisy/src/per/adc.h **** 
  39:../../libdaisy/src/per/adc.h ****     /** 
  40:../../libdaisy/src/per/adc.h ****     Initializes a single ADC pin as a Multiplexed ADC.
  41:../../libdaisy/src/per/adc.h ****     Requires a CD405X Multiplexer connected to the pin.
  42:../../libdaisy/src/per/adc.h ****     You only need to supply the mux pins that are required,
  43:../../libdaisy/src/per/adc.h ****     e.g. a 4052 mux would only require mux_0 and mux_1.
  44:../../libdaisy/src/per/adc.h ****     Internal Callbacks handle the pin addressing.
  45:../../libdaisy/src/per/adc.h ****     \param mux_channels must be 1-8
  46:../../libdaisy/src/per/adc.h ****     \param mux_0 First mux pin
  47:../../libdaisy/src/per/adc.h ****     \param mux_1 Second mux pin
  48:../../libdaisy/src/per/adc.h ****     \param mux_2 Third mux pin
  49:../../libdaisy/src/per/adc.h ****     \param adc_pin &
  50:../../libdaisy/src/per/adc.h ****     */
  51:../../libdaisy/src/per/adc.h ****     void InitMux(dsy_gpio_pin adc_pin,
  52:../../libdaisy/src/per/adc.h ****                  size_t       mux_channels,
  53:../../libdaisy/src/per/adc.h ****                  dsy_gpio_pin mux_0,
  54:../../libdaisy/src/per/adc.h ****                  dsy_gpio_pin mux_1 = {DSY_GPIOX, 0},
  55:../../libdaisy/src/per/adc.h ****                  dsy_gpio_pin mux_2 = {DSY_GPIOX, 0});
  56:../../libdaisy/src/per/adc.h **** 
  57:../../libdaisy/src/per/adc.h ****     dsy_gpio pin_;                   /**< & */
ARM GAS  C:\Users\VINCIU~1\AppData\Local\Temp\ccUTXsQS.s 			page 5


  58:../../libdaisy/src/per/adc.h ****     dsy_gpio mux_pin_[MUX_SEL_LAST]; /**< & */
  59:../../libdaisy/src/per/adc.h ****     uint8_t  mux_channels_;          /**< & */
  60:../../libdaisy/src/per/adc.h **** };
  61:../../libdaisy/src/per/adc.h **** 
  62:../../libdaisy/src/per/adc.h **** /**
  63:../../libdaisy/src/per/adc.h ****    Handler for analog to digital conversion
  64:../../libdaisy/src/per/adc.h **** */
  65:../../libdaisy/src/per/adc.h **** class AdcHandle
  66:../../libdaisy/src/per/adc.h **** {
  67:../../libdaisy/src/per/adc.h ****   public:
  68:../../libdaisy/src/per/adc.h ****     /** Supported oversampling amounts */
  69:../../libdaisy/src/per/adc.h ****     enum OverSampling
  70:../../libdaisy/src/per/adc.h ****     {
  71:../../libdaisy/src/per/adc.h ****         OVS_NONE, /**< & */
  72:../../libdaisy/src/per/adc.h ****         OVS_4,    /**< & */
  73:../../libdaisy/src/per/adc.h ****         OVS_8,    /**< & */
  74:../../libdaisy/src/per/adc.h ****         OVS_16,   /**< & */
  75:../../libdaisy/src/per/adc.h ****         OVS_32,   /**< & */
  76:../../libdaisy/src/per/adc.h ****         OVS_64,   /**< & */
  77:../../libdaisy/src/per/adc.h ****         OVS_128,  /**< & */
  78:../../libdaisy/src/per/adc.h ****         OVS_256,  /**< & */
  79:../../libdaisy/src/per/adc.h ****         OVS_512,  /**< & */
  80:../../libdaisy/src/per/adc.h ****         OVS_1024, /**< & */
  81:../../libdaisy/src/per/adc.h ****         OVS_LAST, /**< & */
  82:../../libdaisy/src/per/adc.h ****     };
  83:../../libdaisy/src/per/adc.h **** 
  84:../../libdaisy/src/per/adc.h ****     AdcHandle() {}
  85:../../libdaisy/src/per/adc.h ****     ~AdcHandle() {}
  50              		.loc 4 85 5 is_stmt 1 view .LVU5
  51              		.loc 4 85 5 is_stmt 0 view .LVU6
  52              	.LBE394:
  53              	.LBB395:
  54              	.LBI395:
  55              		.file 5 "../../libdaisy/src/hid/audio.h"
   1:../../libdaisy/src/hid/audio.h **** #ifndef DSY_AUDIO_H
   2:../../libdaisy/src/hid/audio.h **** #define DSY_AUDIO_H /**< & */
   3:../../libdaisy/src/hid/audio.h **** 
   4:../../libdaisy/src/hid/audio.h **** #include "per/sai.h"
   5:../../libdaisy/src/hid/audio.h **** 
   6:../../libdaisy/src/hid/audio.h **** namespace daisy
   7:../../libdaisy/src/hid/audio.h **** {
   8:../../libdaisy/src/hid/audio.h **** class AudioHandle
   9:../../libdaisy/src/hid/audio.h **** {
  10:../../libdaisy/src/hid/audio.h ****   public:
  11:../../libdaisy/src/hid/audio.h ****     /** Manually configurable details about the Audio Engine */
  12:../../libdaisy/src/hid/audio.h ****     /** TODO: Figure out how to get samplerate in here. */
  13:../../libdaisy/src/hid/audio.h ****     struct Config
  14:../../libdaisy/src/hid/audio.h ****     {
  15:../../libdaisy/src/hid/audio.h ****         size_t                        blocksize;
  16:../../libdaisy/src/hid/audio.h ****         SaiHandle::Config::SampleRate samplerate;
  17:../../libdaisy/src/hid/audio.h ****         float                         postgain;
  18:../../libdaisy/src/hid/audio.h ****     };
  19:../../libdaisy/src/hid/audio.h **** 
  20:../../libdaisy/src/hid/audio.h ****     enum class Result
  21:../../libdaisy/src/hid/audio.h ****     {
  22:../../libdaisy/src/hid/audio.h ****         OK,
  23:../../libdaisy/src/hid/audio.h ****         ERR,
ARM GAS  C:\Users\VINCIU~1\AppData\Local\Temp\ccUTXsQS.s 			page 6


  24:../../libdaisy/src/hid/audio.h ****     };
  25:../../libdaisy/src/hid/audio.h **** 
  26:../../libdaisy/src/hid/audio.h ****     /** Non-Interleaving input buffer
  27:../../libdaisy/src/hid/audio.h ****      * Buffer arranged by float[chn][sample] 
  28:../../libdaisy/src/hid/audio.h ****      * const so that the user can't modify the input
  29:../../libdaisy/src/hid/audio.h ****     */
  30:../../libdaisy/src/hid/audio.h ****     typedef const float* const* InputBuffer;
  31:../../libdaisy/src/hid/audio.h **** 
  32:../../libdaisy/src/hid/audio.h ****     /** Non-Interleaving output buffer
  33:../../libdaisy/src/hid/audio.h ****      * Arranged by float[chn][sample] 
  34:../../libdaisy/src/hid/audio.h ****     */
  35:../../libdaisy/src/hid/audio.h ****     typedef float** OutputBuffer;
  36:../../libdaisy/src/hid/audio.h **** 
  37:../../libdaisy/src/hid/audio.h ****     /** Type for a Non-Interleaving audio callback 
  38:../../libdaisy/src/hid/audio.h ****    * Non-Interleaving audio callbacks in daisy will be of this type
  39:../../libdaisy/src/hid/audio.h ****   */
  40:../../libdaisy/src/hid/audio.h ****     typedef void (*AudioCallback)(InputBuffer  in,
  41:../../libdaisy/src/hid/audio.h ****                                   OutputBuffer out,
  42:../../libdaisy/src/hid/audio.h ****                                   size_t       size);
  43:../../libdaisy/src/hid/audio.h **** 
  44:../../libdaisy/src/hid/audio.h ****     /** Interleaving Input buffer
  45:../../libdaisy/src/hid/audio.h ****      ** audio is prepared as { L0, R0, L1, R1, . . . LN, RN }]
  46:../../libdaisy/src/hid/audio.h ****      ** this is const, as the user shouldn't modify it
  47:../../libdaisy/src/hid/audio.h ****     */
  48:../../libdaisy/src/hid/audio.h ****     typedef const float* InterleavingInputBuffer;
  49:../../libdaisy/src/hid/audio.h **** 
  50:../../libdaisy/src/hid/audio.h ****     /** Interleaving Output buffer 
  51:../../libdaisy/src/hid/audio.h ****      ** audio is prepared as { L0, R0, L1, R1, . . . LN, RN }
  52:../../libdaisy/src/hid/audio.h ****     */
  53:../../libdaisy/src/hid/audio.h ****     typedef float* InterleavingOutputBuffer;
  54:../../libdaisy/src/hid/audio.h **** 
  55:../../libdaisy/src/hid/audio.h ****     /** Interleaving Audio Callback 
  56:../../libdaisy/src/hid/audio.h ****    * Interleaving audio callbacks in daisy must be of this type
  57:../../libdaisy/src/hid/audio.h ****   */
  58:../../libdaisy/src/hid/audio.h ****     typedef void (*InterleavingAudioCallback)(InterleavingInputBuffer  in,
  59:../../libdaisy/src/hid/audio.h ****                                               InterleavingOutputBuffer out,
  60:../../libdaisy/src/hid/audio.h ****                                               size_t                   size);
  61:../../libdaisy/src/hid/audio.h **** 
  62:../../libdaisy/src/hid/audio.h ****     AudioHandle() : pimpl_(nullptr) {}
  63:../../libdaisy/src/hid/audio.h ****     ~AudioHandle() {}
  56              		.loc 5 63 5 is_stmt 1 view .LVU7
  57              		.loc 5 63 5 is_stmt 0 view .LVU8
  58              	.LBE395:
  59              		.loc 1 22 19 view .LVU9
  60 0000 7047     		bx	lr
  61              		.cfi_endproc
  62              	.LFE1793:
  64              		.weak	_ZN5daisy9DaisySeedD1Ev
  65              		.thumb_set _ZN5daisy9DaisySeedD1Ev,_ZN5daisy9DaisySeedD2Ev
  66 0002 00BF     		.section	.text._ZNK5daisy11OledDisplayINS_13SSD130xDriverILj128ELj64ENS_24SSD130x4WireSpiTransport
  67              		.align	1
  68              		.p2align 2,,3
  69              		.weak	_ZNK5daisy11OledDisplayINS_13SSD130xDriverILj128ELj64ENS_24SSD130x4WireSpiTransportEEEE6Heig
  70              		.syntax unified
  71              		.thumb
  72              		.thumb_func
  73              		.fpu fpv5-d16
ARM GAS  C:\Users\VINCIU~1\AppData\Local\Temp\ccUTXsQS.s 			page 7


  75              	_ZNK5daisy11OledDisplayINS_13SSD130xDriverILj128ELj64ENS_24SSD130x4WireSpiTransportEEEE6HeightEv:
  76              	.LVL1:
  77              	.LFB4352:
  78              		.file 6 "../../libdaisy/src/hid/disp/oled_display.h"
   1:../../libdaisy/src/hid/disp/oled_display.h **** #pragma once
   2:../../libdaisy/src/hid/disp/oled_display.h **** #ifndef DSY_OLED_DISPLAY_H
   3:../../libdaisy/src/hid/disp/oled_display.h **** #define DSY_OLED_DISPLAY_H /**< Macro */
   4:../../libdaisy/src/hid/disp/oled_display.h **** 
   5:../../libdaisy/src/hid/disp/oled_display.h **** #include "display.h"
   6:../../libdaisy/src/hid/disp/oled_display.h **** 
   7:../../libdaisy/src/hid/disp/oled_display.h **** namespace daisy
   8:../../libdaisy/src/hid/disp/oled_display.h **** {
   9:../../libdaisy/src/hid/disp/oled_display.h **** /** 
  10:../../libdaisy/src/hid/disp/oled_display.h ****  * This class is for drawing to a monochrome OLED display. 
  11:../../libdaisy/src/hid/disp/oled_display.h **** */
  12:../../libdaisy/src/hid/disp/oled_display.h **** template <typename DisplayDriver>
  13:../../libdaisy/src/hid/disp/oled_display.h **** class OledDisplay : public OneBitGraphicsDisplayImpl<OledDisplay<DisplayDriver>>
  14:../../libdaisy/src/hid/disp/oled_display.h **** {
  15:../../libdaisy/src/hid/disp/oled_display.h ****   public:
  16:../../libdaisy/src/hid/disp/oled_display.h ****     OledDisplay() {}
  17:../../libdaisy/src/hid/disp/oled_display.h ****     virtual ~OledDisplay() {}
  18:../../libdaisy/src/hid/disp/oled_display.h **** 
  19:../../libdaisy/src/hid/disp/oled_display.h ****     struct Config
  20:../../libdaisy/src/hid/disp/oled_display.h ****     {
  21:../../libdaisy/src/hid/disp/oled_display.h ****         typename DisplayDriver::Config driver_config;
  22:../../libdaisy/src/hid/disp/oled_display.h ****     };
  23:../../libdaisy/src/hid/disp/oled_display.h **** 
  24:../../libdaisy/src/hid/disp/oled_display.h ****     void Init(Config config) { driver_.Init(config.driver_config); }
  25:../../libdaisy/src/hid/disp/oled_display.h **** 
  26:../../libdaisy/src/hid/disp/oled_display.h ****     uint16_t Height() const override { return driver_.Height(); }
  79              		.loc 6 26 14 is_stmt 1 view -0
  80              		.cfi_startproc
  81              		@ args = 0, pretend = 0, frame = 0
  82              		@ frame_needed = 0, uses_anonymous_args = 0
  83              		@ link register save eliminated.
  84              		.loc 6 26 65 is_stmt 0 view .LVU11
  85 0000 4020     		movs	r0, #64
  86              	.LVL2:
  87              		.loc 6 26 65 view .LVU12
  88 0002 7047     		bx	lr
  89              		.cfi_endproc
  90              	.LFE4352:
  92              		.section	.text._ZNK5daisy11OledDisplayINS_13SSD130xDriverILj128ELj64ENS_24SSD130x4WireSpiTransport
  93              		.align	1
  94              		.p2align 2,,3
  95              		.weak	_ZNK5daisy11OledDisplayINS_13SSD130xDriverILj128ELj64ENS_24SSD130x4WireSpiTransportEEEE5Widt
  96              		.syntax unified
  97              		.thumb
  98              		.thumb_func
  99              		.fpu fpv5-d16
 101              	_ZNK5daisy11OledDisplayINS_13SSD130xDriverILj128ELj64ENS_24SSD130x4WireSpiTransportEEEE5WidthEv:
 102              	.LVL3:
 103              	.LFB4353:
  27:../../libdaisy/src/hid/disp/oled_display.h ****     uint16_t Width() const override { return driver_.Width(); }
 104              		.loc 6 27 14 is_stmt 1 view -0
 105              		.cfi_startproc
 106              		@ args = 0, pretend = 0, frame = 0
ARM GAS  C:\Users\VINCIU~1\AppData\Local\Temp\ccUTXsQS.s 			page 8


 107              		@ frame_needed = 0, uses_anonymous_args = 0
 108              		@ link register save eliminated.
 109              		.loc 6 27 63 is_stmt 0 view .LVU14
 110 0000 8020     		movs	r0, #128
 111              	.LVL4:
 112              		.loc 6 27 63 view .LVU15
 113 0002 7047     		bx	lr
 114              		.cfi_endproc
 115              	.LFE4353:
 117              		.section	.text._ZN23OledDisplayExtravaganzaD2Ev,"axG",%progbits,_ZN23OledDisplayExtravaganzaD5Ev,c
 118              		.align	1
 119              		.p2align 2,,3
 120              		.weak	_ZN23OledDisplayExtravaganzaD2Ev
 121              		.syntax unified
 122              		.thumb
 123              		.thumb_func
 124              		.fpu fpv5-d16
 126              	_ZN23OledDisplayExtravaganzaD2Ev:
 127              	.LVL5:
 128              	.LFB4633:
 129              		.file 7 "OledDisplayExtravaganza.h"
   1:OledDisplayExtravaganza.h **** #ifndef OledDisplayExtravaganza_H
   2:OledDisplayExtravaganza.h **** #define OledDisplayExtravaganza_H
   3:OledDisplayExtravaganza.h **** #include "daisy_seed.h"
   4:OledDisplayExtravaganza.h **** #include "dev/oled_ssd130x.h"
   5:OledDisplayExtravaganza.h **** #include <stdio.h>
   6:OledDisplayExtravaganza.h **** #include <math.h>
   7:OledDisplayExtravaganza.h **** 
   8:OledDisplayExtravaganza.h **** 
   9:OledDisplayExtravaganza.h **** class OledDisplayExtravaganza
 130              		.loc 7 9 7 is_stmt 1 view -0
 131              		.cfi_startproc
 132              		@ args = 0, pretend = 0, frame = 0
 133              		@ frame_needed = 0, uses_anonymous_args = 0
 134              		@ link register save eliminated.
 135              	.LBB396:
 136              	.LBI396:
  17:../../libdaisy/src/hid/disp/oled_display.h **** 
 137              		.loc 6 17 13 view .LVU17
 138              	.LBB397:
 139              	.LBI397:
 140              		.file 8 "../../libdaisy/src/hid/disp/display.h"
   1:../../libdaisy/src/hid/disp/display.h **** #pragma once
   2:../../libdaisy/src/hid/disp/display.h **** #ifndef DSY_DISPLAY_H
   3:../../libdaisy/src/hid/disp/display.h **** #define DSY_DISPLAY_H /**< Macro */
   4:../../libdaisy/src/hid/disp/display.h **** #include <cmath>
   5:../../libdaisy/src/hid/disp/display.h **** #include "util/oled_fonts.h"
   6:../../libdaisy/src/hid/disp/display.h **** #include "daisy_core.h"
   7:../../libdaisy/src/hid/disp/display.h **** 
   8:../../libdaisy/src/hid/disp/display.h **** #ifndef deg2rad
   9:../../libdaisy/src/hid/disp/display.h **** #define deg2rad(deg) ((deg)*3.141592 / 180.0)
  10:../../libdaisy/src/hid/disp/display.h **** #endif
  11:../../libdaisy/src/hid/disp/display.h **** 
  12:../../libdaisy/src/hid/disp/display.h **** namespace daisy
  13:../../libdaisy/src/hid/disp/display.h **** {
  14:../../libdaisy/src/hid/disp/display.h **** /** 
  15:../../libdaisy/src/hid/disp/display.h ****  * This interface is used as a base class for all types of 1bit-per-pixel
ARM GAS  C:\Users\VINCIU~1\AppData\Local\Temp\ccUTXsQS.s 			page 9


  16:../../libdaisy/src/hid/disp/display.h ****  * graphics displays.
  17:../../libdaisy/src/hid/disp/display.h **** */
  18:../../libdaisy/src/hid/disp/display.h **** class OneBitGraphicsDisplay
  19:../../libdaisy/src/hid/disp/display.h **** {
  20:../../libdaisy/src/hid/disp/display.h ****   public:
  21:../../libdaisy/src/hid/disp/display.h ****     OneBitGraphicsDisplay() {}
  22:../../libdaisy/src/hid/disp/display.h ****     virtual ~OneBitGraphicsDisplay() {}
  23:../../libdaisy/src/hid/disp/display.h **** 
  24:../../libdaisy/src/hid/disp/display.h ****     virtual uint16_t Height() const = 0;
  25:../../libdaisy/src/hid/disp/display.h ****     virtual uint16_t Width() const  = 0;
  26:../../libdaisy/src/hid/disp/display.h **** 
  27:../../libdaisy/src/hid/disp/display.h ****     size_t CurrentX() { return currentX_; };
  28:../../libdaisy/src/hid/disp/display.h ****     size_t CurrentY() { return currentY_; };
  29:../../libdaisy/src/hid/disp/display.h **** 
  30:../../libdaisy/src/hid/disp/display.h ****     /** 
  31:../../libdaisy/src/hid/disp/display.h ****     Fills the entire display with either on/off.
  32:../../libdaisy/src/hid/disp/display.h ****     \param on Sets on or off.
  33:../../libdaisy/src/hid/disp/display.h ****     */
  34:../../libdaisy/src/hid/disp/display.h ****     virtual void Fill(bool on) = 0;
  35:../../libdaisy/src/hid/disp/display.h **** 
  36:../../libdaisy/src/hid/disp/display.h ****     /**
  37:../../libdaisy/src/hid/disp/display.h ****     Sets the pixel at the specified coordinate to be on/off.
  38:../../libdaisy/src/hid/disp/display.h ****     \param x   x Coordinate
  39:../../libdaisy/src/hid/disp/display.h ****     \param y   y coordinate
  40:../../libdaisy/src/hid/disp/display.h ****     \param on  on or off
  41:../../libdaisy/src/hid/disp/display.h ****     */
  42:../../libdaisy/src/hid/disp/display.h ****     virtual void DrawPixel(uint_fast8_t x, uint_fast8_t y, bool on) = 0;
  43:../../libdaisy/src/hid/disp/display.h **** 
  44:../../libdaisy/src/hid/disp/display.h ****     /**
  45:../../libdaisy/src/hid/disp/display.h ****     Draws a line from (x1, y1) to (y1, y2)
  46:../../libdaisy/src/hid/disp/display.h ****     \param x1  x Coordinate of the starting point
  47:../../libdaisy/src/hid/disp/display.h ****     \param y1  y Coordinate of the starting point
  48:../../libdaisy/src/hid/disp/display.h ****     \param x2  x Coordinate of the ending point
  49:../../libdaisy/src/hid/disp/display.h ****     \param y2  y Coordinate of the ending point
  50:../../libdaisy/src/hid/disp/display.h ****     \param on  on or off
  51:../../libdaisy/src/hid/disp/display.h ****     */
  52:../../libdaisy/src/hid/disp/display.h ****     virtual void DrawLine(uint_fast8_t x1,
  53:../../libdaisy/src/hid/disp/display.h ****                           uint_fast8_t y1,
  54:../../libdaisy/src/hid/disp/display.h ****                           uint_fast8_t x2,
  55:../../libdaisy/src/hid/disp/display.h ****                           uint_fast8_t y2,
  56:../../libdaisy/src/hid/disp/display.h ****                           bool         on)
  57:../../libdaisy/src/hid/disp/display.h ****         = 0;
  58:../../libdaisy/src/hid/disp/display.h **** 
  59:../../libdaisy/src/hid/disp/display.h ****     /**
  60:../../libdaisy/src/hid/disp/display.h ****     Draws a rectangle based on two coordinates.
  61:../../libdaisy/src/hid/disp/display.h ****     \param x1 x Coordinate of the first point
  62:../../libdaisy/src/hid/disp/display.h ****     \param y1 y Coordinate of the first point
  63:../../libdaisy/src/hid/disp/display.h ****     \param x2 x Coordinate of the second point
  64:../../libdaisy/src/hid/disp/display.h ****     \param y2 y Coordinate of the second point
  65:../../libdaisy/src/hid/disp/display.h ****     \param on on or off
  66:../../libdaisy/src/hid/disp/display.h ****     */
  67:../../libdaisy/src/hid/disp/display.h ****     virtual void DrawRect(uint_fast8_t x1,
  68:../../libdaisy/src/hid/disp/display.h ****                           uint_fast8_t y1,
  69:../../libdaisy/src/hid/disp/display.h ****                           uint_fast8_t x2,
  70:../../libdaisy/src/hid/disp/display.h ****                           uint_fast8_t y2,
  71:../../libdaisy/src/hid/disp/display.h ****                           bool         on,
  72:../../libdaisy/src/hid/disp/display.h ****                           bool         fill = false)
ARM GAS  C:\Users\VINCIU~1\AppData\Local\Temp\ccUTXsQS.s 			page 10


  73:../../libdaisy/src/hid/disp/display.h ****         = 0;
  74:../../libdaisy/src/hid/disp/display.h **** 
  75:../../libdaisy/src/hid/disp/display.h ****     /**
  76:../../libdaisy/src/hid/disp/display.h ****     Draws an arc around the specified coordinate
  77:../../libdaisy/src/hid/disp/display.h ****     \param x           x Coordinate of the center of the arc
  78:../../libdaisy/src/hid/disp/display.h ****     \param y           y Coordinate of the center of the arc
  79:../../libdaisy/src/hid/disp/display.h ****     \param radius      radius of the arc
  80:../../libdaisy/src/hid/disp/display.h ****     \param start_angle angle where to start the arc
  81:../../libdaisy/src/hid/disp/display.h ****     \param sweep       total angle of the arc
  82:../../libdaisy/src/hid/disp/display.h ****     \param on  on or off
  83:../../libdaisy/src/hid/disp/display.h ****     */
  84:../../libdaisy/src/hid/disp/display.h ****     virtual void DrawArc(uint_fast8_t x,
  85:../../libdaisy/src/hid/disp/display.h ****                          uint_fast8_t y,
  86:../../libdaisy/src/hid/disp/display.h ****                          uint_fast8_t radius,
  87:../../libdaisy/src/hid/disp/display.h ****                          int_fast16_t start_angle,
  88:../../libdaisy/src/hid/disp/display.h ****                          int_fast16_t sweep,
  89:../../libdaisy/src/hid/disp/display.h ****                          bool         on)
  90:../../libdaisy/src/hid/disp/display.h ****         = 0;
  91:../../libdaisy/src/hid/disp/display.h **** 
  92:../../libdaisy/src/hid/disp/display.h ****     /**
  93:../../libdaisy/src/hid/disp/display.h ****     Draws a circle around the specified coordinate
  94:../../libdaisy/src/hid/disp/display.h ****     \param x           x Coordinate of the center of the circle
  95:../../libdaisy/src/hid/disp/display.h ****     \param y           y Coordinate of the center of the circle
  96:../../libdaisy/src/hid/disp/display.h ****     \param radius      radius of the circle
  97:../../libdaisy/src/hid/disp/display.h ****     \param on  on or off
  98:../../libdaisy/src/hid/disp/display.h ****     */
  99:../../libdaisy/src/hid/disp/display.h ****     void
 100:../../libdaisy/src/hid/disp/display.h ****     DrawCircle(uint_fast8_t x, uint_fast8_t y, uint_fast8_t radius, bool on)
 101:../../libdaisy/src/hid/disp/display.h ****     {
 102:../../libdaisy/src/hid/disp/display.h ****         DrawArc(x, y, radius, 0, 360, on);
 103:../../libdaisy/src/hid/disp/display.h ****     };
 104:../../libdaisy/src/hid/disp/display.h **** 
 105:../../libdaisy/src/hid/disp/display.h ****     /** 
 106:../../libdaisy/src/hid/disp/display.h ****     Writes the character with the specific FontDef
 107:../../libdaisy/src/hid/disp/display.h ****     to the display buffer at the current Cursor position.
 108:../../libdaisy/src/hid/disp/display.h ****     \param ch character to be written
 109:../../libdaisy/src/hid/disp/display.h ****     \param font font to be written in
 110:../../libdaisy/src/hid/disp/display.h ****     \param on    on or off
 111:../../libdaisy/src/hid/disp/display.h ****     \return &
 112:../../libdaisy/src/hid/disp/display.h ****     */
 113:../../libdaisy/src/hid/disp/display.h ****     virtual char WriteChar(char ch, FontDef font, bool on) = 0;
 114:../../libdaisy/src/hid/disp/display.h **** 
 115:../../libdaisy/src/hid/disp/display.h ****     /** 
 116:../../libdaisy/src/hid/disp/display.h ****     Similar to WriteChar, except it will handle an entire String.
 117:../../libdaisy/src/hid/disp/display.h ****     Wrapping does not happen automatically, so the width
 118:../../libdaisy/src/hid/disp/display.h ****     of the string must be kept within the dimensions of the screen.
 119:../../libdaisy/src/hid/disp/display.h ****     \param str string to be written
 120:../../libdaisy/src/hid/disp/display.h ****     \param font font to use
 121:../../libdaisy/src/hid/disp/display.h ****     \param on  on or off
 122:../../libdaisy/src/hid/disp/display.h ****     \return &
 123:../../libdaisy/src/hid/disp/display.h ****     */
 124:../../libdaisy/src/hid/disp/display.h ****     virtual char WriteString(const char* str, FontDef font, bool on) = 0;
 125:../../libdaisy/src/hid/disp/display.h **** 
 126:../../libdaisy/src/hid/disp/display.h ****     /** 
 127:../../libdaisy/src/hid/disp/display.h ****     Moves the 'Cursor' position used for WriteChar, and WriteStr to the specified coordinate.
 128:../../libdaisy/src/hid/disp/display.h ****     \param x x pos
 129:../../libdaisy/src/hid/disp/display.h ****     \param y y pos
ARM GAS  C:\Users\VINCIU~1\AppData\Local\Temp\ccUTXsQS.s 			page 11


 130:../../libdaisy/src/hid/disp/display.h ****     */
 131:../../libdaisy/src/hid/disp/display.h ****     void SetCursor(uint16_t x, uint16_t y)
 132:../../libdaisy/src/hid/disp/display.h ****     {
 133:../../libdaisy/src/hid/disp/display.h ****         currentX_ = (x >= Width()) ? Width() - 1 : x;
 134:../../libdaisy/src/hid/disp/display.h ****         currentY_ = (y >= Height()) ? Height() - 1 : y;
 135:../../libdaisy/src/hid/disp/display.h ****     }
 136:../../libdaisy/src/hid/disp/display.h **** 
 137:../../libdaisy/src/hid/disp/display.h ****     /** 
 138:../../libdaisy/src/hid/disp/display.h ****     Writes the current display buffer to the OLED device using SPI or I2C depending on 
 139:../../libdaisy/src/hid/disp/display.h ****     how the object was initialized.
 140:../../libdaisy/src/hid/disp/display.h ****     */
 141:../../libdaisy/src/hid/disp/display.h ****     virtual void Update() = 0;
 142:../../libdaisy/src/hid/disp/display.h **** 
 143:../../libdaisy/src/hid/disp/display.h ****   protected:
 144:../../libdaisy/src/hid/disp/display.h ****     uint16_t currentX_;
 145:../../libdaisy/src/hid/disp/display.h ****     uint16_t currentY_;
 146:../../libdaisy/src/hid/disp/display.h **** };
 147:../../libdaisy/src/hid/disp/display.h **** 
 148:../../libdaisy/src/hid/disp/display.h **** /** This class is intended as a intermediary class for your actual implementation of the OneBitGrap
 149:../../libdaisy/src/hid/disp/display.h ****  *  interface. It uses the CRTP design pattern where the template argument is the child class. It p
 150:../../libdaisy/src/hid/disp/display.h ****  *  implementations for most of the functions, except DrawPixel(), Update() and Fill(), which you'l
 151:../../libdaisy/src/hid/disp/display.h ****  *  to provide in your child class.
 152:../../libdaisy/src/hid/disp/display.h ****  *  The main goal of this class is to provide common drawing functions without relying on massive a
 153:../../libdaisy/src/hid/disp/display.h ****  *  virtual function calls that would result in a performance loss. To achieve this, any drawing fu
 154:../../libdaisy/src/hid/disp/display.h ****  *  is implemented here and internally calls other drawing functions (e.g. DrawRect() which interna
 155:../../libdaisy/src/hid/disp/display.h ****  *  DrawPixel() and DrawLine()) makes these calls via the qualified name of these functions to expl
 156:../../libdaisy/src/hid/disp/display.h ****  *  suppress the virtual dispatch mechanism like this:
 157:../../libdaisy/src/hid/disp/display.h ****  * 
 158:../../libdaisy/src/hid/disp/display.h ****  *      ChildType::DrawPixel(...); // no virtual function call; direct call into the child class fu
 159:../../libdaisy/src/hid/disp/display.h ****  *  
 160:../../libdaisy/src/hid/disp/display.h ****  *  To create a custom OneBitGraphicsDisplay implementation, you can 
 161:../../libdaisy/src/hid/disp/display.h ****  *  A) inherit from OneBitGraphicsDisplay directly and provide all the drawing functions yourself
 162:../../libdaisy/src/hid/disp/display.h ****  *  B) Inherit from OneBitGraphicsDisplayImpl and only provide DrawPixel(), Fill() and Update()
 163:../../libdaisy/src/hid/disp/display.h ****  *     like this:
 164:../../libdaisy/src/hid/disp/display.h ****  *  
 165:../../libdaisy/src/hid/disp/display.h ****  *      class MyDisplayClass : public OneBitGraphicsDisplayImpl<MyDisplayClass> 
 166:../../libdaisy/src/hid/disp/display.h ****  *      {
 167:../../libdaisy/src/hid/disp/display.h ****  *      public:
 168:../../libdaisy/src/hid/disp/display.h ****  *          void Fill() override { ... };
 169:../../libdaisy/src/hid/disp/display.h ****  *          void DrawPixel(uint_fast8_t x, uint_fast8_t y, bool on) override { ... };
 170:../../libdaisy/src/hid/disp/display.h ****  *          void Update() override { ... }
 171:../../libdaisy/src/hid/disp/display.h ****  *      };
 172:../../libdaisy/src/hid/disp/display.h ****  *  
 173:../../libdaisy/src/hid/disp/display.h ****  */
 174:../../libdaisy/src/hid/disp/display.h **** template <class ChildType>
 175:../../libdaisy/src/hid/disp/display.h **** class OneBitGraphicsDisplayImpl : public OneBitGraphicsDisplay
 176:../../libdaisy/src/hid/disp/display.h **** {
 177:../../libdaisy/src/hid/disp/display.h ****   public:
 178:../../libdaisy/src/hid/disp/display.h ****     OneBitGraphicsDisplayImpl() {}
 179:../../libdaisy/src/hid/disp/display.h ****     virtual ~OneBitGraphicsDisplayImpl() {}
 141              		.loc 8 179 13 view .LVU18
 142              	.LBB398:
 143              	.LBI398:
  22:../../libdaisy/src/hid/disp/display.h **** 
 144              		.loc 8 22 13 view .LVU19
  22:../../libdaisy/src/hid/disp/display.h **** 
 145              		.loc 8 22 13 is_stmt 0 view .LVU20
ARM GAS  C:\Users\VINCIU~1\AppData\Local\Temp\ccUTXsQS.s 			page 12


 146              	.LBE398:
 147              	.LBE397:
 148              	.LBE396:
 149              		.loc 7 9 7 view .LVU21
 150 0000 7047     		bx	lr
 151              		.cfi_endproc
 152              	.LFE4633:
 154              		.weak	_ZN23OledDisplayExtravaganzaD1Ev
 155              		.thumb_set _ZN23OledDisplayExtravaganzaD1Ev,_ZN23OledDisplayExtravaganzaD2Ev
 156 0002 00BF     		.section	.text._ZN5MenusD2Ev,"axG",%progbits,_ZN5MenusD5Ev,comdat
 157              		.align	1
 158              		.p2align 2,,3
 159              		.weak	_ZN5MenusD2Ev
 160              		.syntax unified
 161              		.thumb
 162              		.thumb_func
 163              		.fpu fpv5-d16
 165              	_ZN5MenusD2Ev:
 166              	.LVL6:
 167              	.LFB4638:
 168              		.file 9 "Menus.h"
   1:Menus.h       **** #ifndef Menus_H
   2:Menus.h       **** #define Menus_H
   3:Menus.h       **** #include "OledDisplayExtravaganza.h"
   4:Menus.h       **** #include "daisy_seed.h"
   5:Menus.h       **** #include "daisysp.h"
   6:Menus.h       **** 
   7:Menus.h       **** class Menus
 169              		.loc 9 7 7 is_stmt 1 view -0
 170              		.cfi_startproc
 171              		@ args = 0, pretend = 0, frame = 0
 172              		@ frame_needed = 0, uses_anonymous_args = 0
 173              		@ link register save eliminated.
 174              	.LBB399:
 175              	.LBI399:
 176              		.file 10 "../../libdaisy/src/hid/switch.h"
   1:../../libdaisy/src/hid/switch.h **** #pragma once
   2:../../libdaisy/src/hid/switch.h **** #ifndef DSY_SWITCH_H
   3:../../libdaisy/src/hid/switch.h **** #define DSY_SWITCH_H
   4:../../libdaisy/src/hid/switch.h **** #include "daisy_core.h"
   5:../../libdaisy/src/hid/switch.h **** #include "per/gpio.h"
   6:../../libdaisy/src/hid/switch.h **** 
   7:../../libdaisy/src/hid/switch.h **** namespace daisy
   8:../../libdaisy/src/hid/switch.h **** {
   9:../../libdaisy/src/hid/switch.h **** /** 
  10:../../libdaisy/src/hid/switch.h ****     Generic Class for handling momentary/latching switches \n 
  11:../../libdaisy/src/hid/switch.h ****     Inspired/influenced by Mutable Instruments (pichenettes) Switch classes
  12:../../libdaisy/src/hid/switch.h ****     @author Stephen Hensley
  13:../../libdaisy/src/hid/switch.h ****     @date December 2019
  14:../../libdaisy/src/hid/switch.h ****     @ingroup controls
  15:../../libdaisy/src/hid/switch.h **** */
  16:../../libdaisy/src/hid/switch.h **** class Switch
  17:../../libdaisy/src/hid/switch.h **** {
  18:../../libdaisy/src/hid/switch.h ****   public:
  19:../../libdaisy/src/hid/switch.h ****     /** Specifies the expected behavior of the switch */
  20:../../libdaisy/src/hid/switch.h ****     enum Type
  21:../../libdaisy/src/hid/switch.h ****     {
ARM GAS  C:\Users\VINCIU~1\AppData\Local\Temp\ccUTXsQS.s 			page 13


  22:../../libdaisy/src/hid/switch.h ****         TYPE_TOGGLE,    /**< & */
  23:../../libdaisy/src/hid/switch.h ****         TYPE_MOMENTARY, /**< & */
  24:../../libdaisy/src/hid/switch.h ****     };
  25:../../libdaisy/src/hid/switch.h ****     /** Specifies whether the pressed is HIGH or LOW. */
  26:../../libdaisy/src/hid/switch.h ****     enum Polarity
  27:../../libdaisy/src/hid/switch.h ****     {
  28:../../libdaisy/src/hid/switch.h ****         POLARITY_NORMAL,   /**< & */
  29:../../libdaisy/src/hid/switch.h ****         POLARITY_INVERTED, /**< & */
  30:../../libdaisy/src/hid/switch.h ****     };
  31:../../libdaisy/src/hid/switch.h **** 
  32:../../libdaisy/src/hid/switch.h ****     /** Specifies whether to use built-in Pull Up/Down resistors to hold button at a given state wh
  33:../../libdaisy/src/hid/switch.h ****     enum Pull
  34:../../libdaisy/src/hid/switch.h ****     {
  35:../../libdaisy/src/hid/switch.h ****         PULL_UP,   /**< & */
  36:../../libdaisy/src/hid/switch.h ****         PULL_DOWN, /**< & */
  37:../../libdaisy/src/hid/switch.h ****         PULL_NONE, /**< & */
  38:../../libdaisy/src/hid/switch.h ****     };
  39:../../libdaisy/src/hid/switch.h **** 
  40:../../libdaisy/src/hid/switch.h ****     Switch() {}
  41:../../libdaisy/src/hid/switch.h ****     ~Switch() {}
 177              		.loc 10 41 5 view .LVU23
 178              		.loc 10 41 5 is_stmt 0 view .LVU24
 179              	.LBE399:
 180              	.LBB400:
 181              	.LBI400:
 182              		.loc 10 41 5 is_stmt 1 view .LVU25
 183              		.loc 10 41 5 is_stmt 0 view .LVU26
 184              	.LBE400:
 185              	.LBB401:
 186              	.LBI401:
 187              		.file 11 "../../libdaisy/src/hid/encoder.h"
   1:../../libdaisy/src/hid/encoder.h **** #pragma once
   2:../../libdaisy/src/hid/encoder.h **** #ifndef DSY_ENCODER_H
   3:../../libdaisy/src/hid/encoder.h **** #define DSY_ENCODER_H
   4:../../libdaisy/src/hid/encoder.h **** #include "daisy_core.h"
   5:../../libdaisy/src/hid/encoder.h **** #include "per/gpio.h"
   6:../../libdaisy/src/hid/encoder.h **** #include "hid/switch.h"
   7:../../libdaisy/src/hid/encoder.h **** 
   8:../../libdaisy/src/hid/encoder.h **** namespace daisy
   9:../../libdaisy/src/hid/encoder.h **** {
  10:../../libdaisy/src/hid/encoder.h **** /** 
  11:../../libdaisy/src/hid/encoder.h ****     @brief Generic Class for handling Quadrature Encoders \n 
  12:../../libdaisy/src/hid/encoder.h ****     Inspired/influenced by Mutable Instruments (pichenettes) Encoder classes
  13:../../libdaisy/src/hid/encoder.h ****     @author Stephen Hensley
  14:../../libdaisy/src/hid/encoder.h ****     @date December 2019
  15:../../libdaisy/src/hid/encoder.h ****     @ingroup controls
  16:../../libdaisy/src/hid/encoder.h **** */
  17:../../libdaisy/src/hid/encoder.h **** class Encoder
  18:../../libdaisy/src/hid/encoder.h **** {
  19:../../libdaisy/src/hid/encoder.h ****   public:
  20:../../libdaisy/src/hid/encoder.h ****     Encoder() {}
  21:../../libdaisy/src/hid/encoder.h ****     ~Encoder() {}
 188              		.loc 11 21 5 is_stmt 1 view .LVU27
 189              	.LBB402:
 190              	.LBI402:
 191              		.loc 10 41 5 view .LVU28
 192              		.loc 10 41 5 is_stmt 0 view .LVU29
ARM GAS  C:\Users\VINCIU~1\AppData\Local\Temp\ccUTXsQS.s 			page 14


 193              	.LBE402:
 194              	.LBE401:
 195              	.LBB403:
 196              	.LBI403:
 197              		.loc 11 21 5 is_stmt 1 view .LVU30
 198              	.LBB404:
 199              	.LBI404:
 200              		.loc 10 41 5 view .LVU31
 201              		.loc 10 41 5 is_stmt 0 view .LVU32
 202              	.LBE404:
 203              	.LBE403:
 204              		.loc 9 7 7 view .LVU33
 205 0000 7047     		bx	lr
 206              		.cfi_endproc
 207              	.LFE4638:
 209              		.weak	_ZN5MenusD1Ev
 210              		.thumb_set _ZN5MenusD1Ev,_ZN5MenusD2Ev
 211 0002 00BF     		.section	.text.__tcf_0,"ax",%progbits
 212              		.align	1
 213              		.p2align 2,,3
 214              		.syntax unified
 215              		.thumb
 216              		.thumb_func
 217              		.fpu fpv5-d16
 219              	__tcf_0:
 220              	.LFB4640:
 221              		.file 12 "SynthMenis.cpp"
   1:SynthMenis.cpp **** #include <stdio.h>
   2:SynthMenis.cpp **** #include <string.h>
   3:SynthMenis.cpp **** #include "daisy_seed.h"
   4:SynthMenis.cpp **** #include "daisysp.h"
   5:SynthMenis.cpp **** #include "dev/oled_ssd130x.h"
   6:SynthMenis.cpp **** #include "OledDisplayExtravaganza.h"
   7:SynthMenis.cpp **** #include "Menus.h"
   8:SynthMenis.cpp **** 
   9:SynthMenis.cpp **** using namespace daisy;
  10:SynthMenis.cpp **** using namespace daisysp;
  11:SynthMenis.cpp **** 
  12:SynthMenis.cpp **** 
  13:SynthMenis.cpp **** Menus                                  synthmenu;
  14:SynthMenis.cpp **** DaisySeed                              hw;
  15:SynthMenis.cpp **** OledDisplayExtravaganza                screen;
  16:SynthMenis.cpp **** const int                              height = screen.Height();
  17:SynthMenis.cpp **** const int                              width  = screen.Width();
  18:SynthMenis.cpp **** const int                              poly   = 10;
  19:SynthMenis.cpp **** Menus::oscVoice                        osc[poly];
 222              		.loc 12 19 40 is_stmt 1 view -0
 223              		.cfi_startproc
 224              		@ args = 0, pretend = 0, frame = 0
 225              		@ frame_needed = 0, uses_anonymous_args = 0
 226              		@ link register save eliminated.
 227              		.loc 12 19 40 is_stmt 0 view .LVU35
 228 0000 7047     		bx	lr
 229              		.cfi_endproc
 230              	.LFE4640:
 232 0002 00BF     		.section	.text._ZN5daisy11OledDisplayINS_13SSD130xDriverILj128ELj64ENS_24SSD130x4WireSpiTransportE
 233              		.align	1
ARM GAS  C:\Users\VINCIU~1\AppData\Local\Temp\ccUTXsQS.s 			page 15


 234              		.p2align 2,,3
 235              		.weak	_ZN5daisy11OledDisplayINS_13SSD130xDriverILj128ELj64ENS_24SSD130x4WireSpiTransportEEEE4FillE
 236              		.syntax unified
 237              		.thumb
 238              		.thumb_func
 239              		.fpu fpv5-d16
 241              	_ZN5daisy11OledDisplayINS_13SSD130xDriverILj128ELj64ENS_24SSD130x4WireSpiTransportEEEE4FillEb:
 242              	.LVL7:
 243              	.LFB4643:
  28:../../libdaisy/src/hid/disp/oled_display.h **** 
  29:../../libdaisy/src/hid/disp/oled_display.h ****     /** 
  30:../../libdaisy/src/hid/disp/oled_display.h ****     Fills the entire display with either on/off.
  31:../../libdaisy/src/hid/disp/oled_display.h ****     \param on Sets on or off.
  32:../../libdaisy/src/hid/disp/oled_display.h ****     */
  33:../../libdaisy/src/hid/disp/oled_display.h ****     void Fill(bool on) override { driver_.Fill(on); }
 244              		.loc 6 33 10 is_stmt 1 view -0
 245              		.cfi_startproc
 246              		@ args = 0, pretend = 0, frame = 0
 247              		@ frame_needed = 0, uses_anonymous_args = 0
 248              		@ link register save eliminated.
 249              	.LBB408:
 250              	.LBI408:
 251              		.file 13 "../../libdaisy/src/dev/oled_ssd130x.h"
   1:../../libdaisy/src/dev/oled_ssd130x.h **** #pragma once
   2:../../libdaisy/src/dev/oled_ssd130x.h **** #ifndef SA_OLED_SSD130X_H
   3:../../libdaisy/src/dev/oled_ssd130x.h **** #define SA_OLED_SSD130X_H /**< & */
   4:../../libdaisy/src/dev/oled_ssd130x.h **** 
   5:../../libdaisy/src/dev/oled_ssd130x.h **** #include "per/i2c.h"
   6:../../libdaisy/src/dev/oled_ssd130x.h **** #include "per/spi.h"
   7:../../libdaisy/src/dev/oled_ssd130x.h **** #include "per/gpio.h"
   8:../../libdaisy/src/dev/oled_ssd130x.h **** #include "sys/system.h"
   9:../../libdaisy/src/dev/oled_ssd130x.h **** 
  10:../../libdaisy/src/dev/oled_ssd130x.h **** namespace daisy
  11:../../libdaisy/src/dev/oled_ssd130x.h **** {
  12:../../libdaisy/src/dev/oled_ssd130x.h **** /**
  13:../../libdaisy/src/dev/oled_ssd130x.h ****  * I2C Transport for SSD1306 / SSD1309 OLED display devices
  14:../../libdaisy/src/dev/oled_ssd130x.h ****  */
  15:../../libdaisy/src/dev/oled_ssd130x.h **** class SSD130xI2CTransport
  16:../../libdaisy/src/dev/oled_ssd130x.h **** {
  17:../../libdaisy/src/dev/oled_ssd130x.h ****   public:
  18:../../libdaisy/src/dev/oled_ssd130x.h ****     struct Config
  19:../../libdaisy/src/dev/oled_ssd130x.h ****     {
  20:../../libdaisy/src/dev/oled_ssd130x.h ****         I2CHandle::Config i2c_config;
  21:../../libdaisy/src/dev/oled_ssd130x.h ****         uint8_t           i2c_address;
  22:../../libdaisy/src/dev/oled_ssd130x.h ****         void              Defaults()
  23:../../libdaisy/src/dev/oled_ssd130x.h ****         {
  24:../../libdaisy/src/dev/oled_ssd130x.h ****             i2c_config.periph         = I2CHandle::Config::Peripheral::I2C_1;
  25:../../libdaisy/src/dev/oled_ssd130x.h ****             i2c_config.speed          = I2CHandle::Config::Speed::I2C_1MHZ;
  26:../../libdaisy/src/dev/oled_ssd130x.h ****             i2c_config.mode           = I2CHandle::Config::Mode::I2C_MASTER;
  27:../../libdaisy/src/dev/oled_ssd130x.h ****             i2c_config.pin_config.scl = {DSY_GPIOB, 8};
  28:../../libdaisy/src/dev/oled_ssd130x.h ****             i2c_config.pin_config.sda = {DSY_GPIOB, 9};
  29:../../libdaisy/src/dev/oled_ssd130x.h ****             i2c_address               = 0x3C;
  30:../../libdaisy/src/dev/oled_ssd130x.h ****         }
  31:../../libdaisy/src/dev/oled_ssd130x.h ****     };
  32:../../libdaisy/src/dev/oled_ssd130x.h ****     void Init(const Config& config)
  33:../../libdaisy/src/dev/oled_ssd130x.h ****     {
  34:../../libdaisy/src/dev/oled_ssd130x.h ****         i2c_address_ = config.i2c_address;
ARM GAS  C:\Users\VINCIU~1\AppData\Local\Temp\ccUTXsQS.s 			page 16


  35:../../libdaisy/src/dev/oled_ssd130x.h ****         i2c_.Init(config.i2c_config);
  36:../../libdaisy/src/dev/oled_ssd130x.h ****     };
  37:../../libdaisy/src/dev/oled_ssd130x.h ****     void SendCommand(uint8_t cmd)
  38:../../libdaisy/src/dev/oled_ssd130x.h ****     {
  39:../../libdaisy/src/dev/oled_ssd130x.h ****         uint8_t buf[2] = {0X00, cmd};
  40:../../libdaisy/src/dev/oled_ssd130x.h ****         i2c_.TransmitBlocking(i2c_address_, buf, 2, 1000);
  41:../../libdaisy/src/dev/oled_ssd130x.h ****     };
  42:../../libdaisy/src/dev/oled_ssd130x.h **** 
  43:../../libdaisy/src/dev/oled_ssd130x.h ****     void SendData(uint8_t* buff, size_t size)
  44:../../libdaisy/src/dev/oled_ssd130x.h ****     {
  45:../../libdaisy/src/dev/oled_ssd130x.h ****         for(size_t i = 0; i < size; i++)
  46:../../libdaisy/src/dev/oled_ssd130x.h ****         {
  47:../../libdaisy/src/dev/oled_ssd130x.h ****             uint8_t buf[2] = {0X40, buff[i]};
  48:../../libdaisy/src/dev/oled_ssd130x.h ****             i2c_.TransmitBlocking(i2c_address_, buf, 2, 1000);
  49:../../libdaisy/src/dev/oled_ssd130x.h ****         }
  50:../../libdaisy/src/dev/oled_ssd130x.h ****     };
  51:../../libdaisy/src/dev/oled_ssd130x.h **** 
  52:../../libdaisy/src/dev/oled_ssd130x.h ****   private:
  53:../../libdaisy/src/dev/oled_ssd130x.h ****     daisy::I2CHandle i2c_;
  54:../../libdaisy/src/dev/oled_ssd130x.h ****     uint8_t          i2c_address_;
  55:../../libdaisy/src/dev/oled_ssd130x.h **** };
  56:../../libdaisy/src/dev/oled_ssd130x.h **** 
  57:../../libdaisy/src/dev/oled_ssd130x.h **** /**
  58:../../libdaisy/src/dev/oled_ssd130x.h ****  * 4 Wire SPI Transport for SSD1306 / SSD1309 OLED display devices
  59:../../libdaisy/src/dev/oled_ssd130x.h ****  */
  60:../../libdaisy/src/dev/oled_ssd130x.h **** class SSD130x4WireSpiTransport
  61:../../libdaisy/src/dev/oled_ssd130x.h **** {
  62:../../libdaisy/src/dev/oled_ssd130x.h ****   public:
  63:../../libdaisy/src/dev/oled_ssd130x.h ****     struct Config
  64:../../libdaisy/src/dev/oled_ssd130x.h ****     {
  65:../../libdaisy/src/dev/oled_ssd130x.h ****         struct
  66:../../libdaisy/src/dev/oled_ssd130x.h ****         {
  67:../../libdaisy/src/dev/oled_ssd130x.h ****             dsy_gpio_pin dc;    /**< & */
  68:../../libdaisy/src/dev/oled_ssd130x.h ****             dsy_gpio_pin reset; /**< & */
  69:../../libdaisy/src/dev/oled_ssd130x.h ****         } pin_config;
  70:../../libdaisy/src/dev/oled_ssd130x.h ****         void Defaults()
  71:../../libdaisy/src/dev/oled_ssd130x.h ****         {
  72:../../libdaisy/src/dev/oled_ssd130x.h ****             pin_config.dc    = {DSY_GPIOB, 4};
  73:../../libdaisy/src/dev/oled_ssd130x.h ****             pin_config.reset = {DSY_GPIOB, 15};
  74:../../libdaisy/src/dev/oled_ssd130x.h ****         }
  75:../../libdaisy/src/dev/oled_ssd130x.h ****     };
  76:../../libdaisy/src/dev/oled_ssd130x.h ****     void Init(const Config& config)
  77:../../libdaisy/src/dev/oled_ssd130x.h ****     {
  78:../../libdaisy/src/dev/oled_ssd130x.h ****         // Initialize both GPIO
  79:../../libdaisy/src/dev/oled_ssd130x.h ****         pin_dc_.mode = DSY_GPIO_MODE_OUTPUT_PP;
  80:../../libdaisy/src/dev/oled_ssd130x.h ****         pin_dc_.pin  = config.pin_config.dc;
  81:../../libdaisy/src/dev/oled_ssd130x.h ****         dsy_gpio_init(&pin_dc_);
  82:../../libdaisy/src/dev/oled_ssd130x.h ****         pin_reset_.mode = DSY_GPIO_MODE_OUTPUT_PP;
  83:../../libdaisy/src/dev/oled_ssd130x.h ****         pin_reset_.pin  = config.pin_config.reset;
  84:../../libdaisy/src/dev/oled_ssd130x.h ****         dsy_gpio_init(&pin_reset_);
  85:../../libdaisy/src/dev/oled_ssd130x.h ****         // Initialize SPI
  86:../../libdaisy/src/dev/oled_ssd130x.h ****         SpiHandle::Config spi_config;
  87:../../libdaisy/src/dev/oled_ssd130x.h ****         spi_config.periph    = SpiHandle::Config::Peripheral::SPI_1;
  88:../../libdaisy/src/dev/oled_ssd130x.h ****         spi_config.mode      = SpiHandle::Config::Mode::MASTER;
  89:../../libdaisy/src/dev/oled_ssd130x.h ****         spi_config.direction = SpiHandle::Config::Direction::TWO_LINES_TX_ONLY;
  90:../../libdaisy/src/dev/oled_ssd130x.h ****         spi_config.datasize  = 8;
  91:../../libdaisy/src/dev/oled_ssd130x.h ****         spi_config.clock_polarity = SpiHandle::Config::ClockPolarity::LOW;
ARM GAS  C:\Users\VINCIU~1\AppData\Local\Temp\ccUTXsQS.s 			page 17


  92:../../libdaisy/src/dev/oled_ssd130x.h ****         spi_config.clock_phase    = SpiHandle::Config::ClockPhase::ONE_EDGE;
  93:../../libdaisy/src/dev/oled_ssd130x.h ****         spi_config.nss            = SpiHandle::Config::NSS::HARD_OUTPUT;
  94:../../libdaisy/src/dev/oled_ssd130x.h ****         spi_config.baud_prescaler = SpiHandle::Config::BaudPrescaler::PS_8;
  95:../../libdaisy/src/dev/oled_ssd130x.h **** 
  96:../../libdaisy/src/dev/oled_ssd130x.h ****         spi_config.pin_config.sclk = {DSY_GPIOG, 11};
  97:../../libdaisy/src/dev/oled_ssd130x.h ****         spi_config.pin_config.miso = {DSY_GPIOX, 0};
  98:../../libdaisy/src/dev/oled_ssd130x.h ****         spi_config.pin_config.mosi = {DSY_GPIOB, 5};
  99:../../libdaisy/src/dev/oled_ssd130x.h ****         spi_config.pin_config.nss  = {DSY_GPIOG, 10};
 100:../../libdaisy/src/dev/oled_ssd130x.h **** 
 101:../../libdaisy/src/dev/oled_ssd130x.h ****         spi_.Init(spi_config);
 102:../../libdaisy/src/dev/oled_ssd130x.h **** 
 103:../../libdaisy/src/dev/oled_ssd130x.h ****         // Reset and Configure OLED.
 104:../../libdaisy/src/dev/oled_ssd130x.h ****         dsy_gpio_write(&pin_reset_, 0);
 105:../../libdaisy/src/dev/oled_ssd130x.h ****         System::Delay(10);
 106:../../libdaisy/src/dev/oled_ssd130x.h ****         dsy_gpio_write(&pin_reset_, 1);
 107:../../libdaisy/src/dev/oled_ssd130x.h ****         System::Delay(10);
 108:../../libdaisy/src/dev/oled_ssd130x.h ****     };
 109:../../libdaisy/src/dev/oled_ssd130x.h ****     void SendCommand(uint8_t cmd)
 110:../../libdaisy/src/dev/oled_ssd130x.h ****     {
 111:../../libdaisy/src/dev/oled_ssd130x.h ****         dsy_gpio_write(&pin_dc_, 0);
 112:../../libdaisy/src/dev/oled_ssd130x.h ****         spi_.BlockingTransmit(&cmd, 1);
 113:../../libdaisy/src/dev/oled_ssd130x.h ****     };
 114:../../libdaisy/src/dev/oled_ssd130x.h **** 
 115:../../libdaisy/src/dev/oled_ssd130x.h ****     void SendData(uint8_t* buff, size_t size)
 116:../../libdaisy/src/dev/oled_ssd130x.h ****     {
 117:../../libdaisy/src/dev/oled_ssd130x.h ****         dsy_gpio_write(&pin_dc_, 1);
 118:../../libdaisy/src/dev/oled_ssd130x.h ****         spi_.BlockingTransmit(buff, size);
 119:../../libdaisy/src/dev/oled_ssd130x.h ****     };
 120:../../libdaisy/src/dev/oled_ssd130x.h **** 
 121:../../libdaisy/src/dev/oled_ssd130x.h ****   private:
 122:../../libdaisy/src/dev/oled_ssd130x.h ****     SpiHandle spi_;
 123:../../libdaisy/src/dev/oled_ssd130x.h ****     dsy_gpio  pin_reset_;
 124:../../libdaisy/src/dev/oled_ssd130x.h ****     dsy_gpio  pin_dc_;
 125:../../libdaisy/src/dev/oled_ssd130x.h **** };
 126:../../libdaisy/src/dev/oled_ssd130x.h **** 
 127:../../libdaisy/src/dev/oled_ssd130x.h **** 
 128:../../libdaisy/src/dev/oled_ssd130x.h **** /**
 129:../../libdaisy/src/dev/oled_ssd130x.h ****  * A driver implementation for the SSD1306/SSD1309
 130:../../libdaisy/src/dev/oled_ssd130x.h ****  */
 131:../../libdaisy/src/dev/oled_ssd130x.h **** template <size_t width, size_t height, typename Transport>
 132:../../libdaisy/src/dev/oled_ssd130x.h **** class SSD130xDriver
 133:../../libdaisy/src/dev/oled_ssd130x.h **** {
 134:../../libdaisy/src/dev/oled_ssd130x.h ****   public:
 135:../../libdaisy/src/dev/oled_ssd130x.h ****     struct Config
 136:../../libdaisy/src/dev/oled_ssd130x.h ****     {
 137:../../libdaisy/src/dev/oled_ssd130x.h ****         typename Transport::Config transport_config;
 138:../../libdaisy/src/dev/oled_ssd130x.h ****     };
 139:../../libdaisy/src/dev/oled_ssd130x.h **** 
 140:../../libdaisy/src/dev/oled_ssd130x.h ****     void Init(Config config)
 141:../../libdaisy/src/dev/oled_ssd130x.h ****     {
 142:../../libdaisy/src/dev/oled_ssd130x.h ****         transport_.Init(config.transport_config);
 143:../../libdaisy/src/dev/oled_ssd130x.h **** 
 144:../../libdaisy/src/dev/oled_ssd130x.h ****         // Init routine...
 145:../../libdaisy/src/dev/oled_ssd130x.h **** 
 146:../../libdaisy/src/dev/oled_ssd130x.h ****         // Display Off
 147:../../libdaisy/src/dev/oled_ssd130x.h ****         transport_.SendCommand(0xaE);
 148:../../libdaisy/src/dev/oled_ssd130x.h ****         // Dimension dependent commands...
ARM GAS  C:\Users\VINCIU~1\AppData\Local\Temp\ccUTXsQS.s 			page 18


 149:../../libdaisy/src/dev/oled_ssd130x.h ****         switch(height)
 150:../../libdaisy/src/dev/oled_ssd130x.h ****         {
 151:../../libdaisy/src/dev/oled_ssd130x.h ****             case 16:
 152:../../libdaisy/src/dev/oled_ssd130x.h ****                 // Display Clock Divide Ratio
 153:../../libdaisy/src/dev/oled_ssd130x.h ****                 transport_.SendCommand(0xD5);
 154:../../libdaisy/src/dev/oled_ssd130x.h ****                 transport_.SendCommand(0x60);
 155:../../libdaisy/src/dev/oled_ssd130x.h ****                 // Multiplex Ratio
 156:../../libdaisy/src/dev/oled_ssd130x.h ****                 transport_.SendCommand(0xA8);
 157:../../libdaisy/src/dev/oled_ssd130x.h ****                 transport_.SendCommand(0x0F);
 158:../../libdaisy/src/dev/oled_ssd130x.h ****                 // COM Pins
 159:../../libdaisy/src/dev/oled_ssd130x.h ****                 transport_.SendCommand(0xDA);
 160:../../libdaisy/src/dev/oled_ssd130x.h ****                 transport_.SendCommand(0x02);
 161:../../libdaisy/src/dev/oled_ssd130x.h ****                 break;
 162:../../libdaisy/src/dev/oled_ssd130x.h ****             case 32:
 163:../../libdaisy/src/dev/oled_ssd130x.h ****                 // Display Clock Divide Ratio
 164:../../libdaisy/src/dev/oled_ssd130x.h ****                 transport_.SendCommand(0xD5);
 165:../../libdaisy/src/dev/oled_ssd130x.h ****                 transport_.SendCommand(0x80);
 166:../../libdaisy/src/dev/oled_ssd130x.h ****                 // Multiplex Ratio
 167:../../libdaisy/src/dev/oled_ssd130x.h ****                 transport_.SendCommand(0xA8);
 168:../../libdaisy/src/dev/oled_ssd130x.h ****                 transport_.SendCommand(0x1F);
 169:../../libdaisy/src/dev/oled_ssd130x.h ****                 // COM Pins
 170:../../libdaisy/src/dev/oled_ssd130x.h ****                 transport_.SendCommand(0xDA);
 171:../../libdaisy/src/dev/oled_ssd130x.h ****                 if(width == 64)
 172:../../libdaisy/src/dev/oled_ssd130x.h ****                 {
 173:../../libdaisy/src/dev/oled_ssd130x.h ****                     transport_.SendCommand(0x12);
 174:../../libdaisy/src/dev/oled_ssd130x.h ****                 }
 175:../../libdaisy/src/dev/oled_ssd130x.h ****                 else
 176:../../libdaisy/src/dev/oled_ssd130x.h ****                 {
 177:../../libdaisy/src/dev/oled_ssd130x.h ****                     transport_.SendCommand(0x02);
 178:../../libdaisy/src/dev/oled_ssd130x.h ****                 }
 179:../../libdaisy/src/dev/oled_ssd130x.h **** 
 180:../../libdaisy/src/dev/oled_ssd130x.h ****                 break;
 181:../../libdaisy/src/dev/oled_ssd130x.h ****             case 48:
 182:../../libdaisy/src/dev/oled_ssd130x.h ****                 // Display Clock Divide Ratio
 183:../../libdaisy/src/dev/oled_ssd130x.h ****                 transport_.SendCommand(0xD5);
 184:../../libdaisy/src/dev/oled_ssd130x.h ****                 transport_.SendCommand(0x80);
 185:../../libdaisy/src/dev/oled_ssd130x.h ****                 // Multiplex Ratio
 186:../../libdaisy/src/dev/oled_ssd130x.h ****                 transport_.SendCommand(0xA8);
 187:../../libdaisy/src/dev/oled_ssd130x.h ****                 transport_.SendCommand(0x2F);
 188:../../libdaisy/src/dev/oled_ssd130x.h ****                 // COM Pins
 189:../../libdaisy/src/dev/oled_ssd130x.h ****                 transport_.SendCommand(0xDA);
 190:../../libdaisy/src/dev/oled_ssd130x.h ****                 transport_.SendCommand(0x12);
 191:../../libdaisy/src/dev/oled_ssd130x.h ****                 break;
 192:../../libdaisy/src/dev/oled_ssd130x.h ****             default: // 128
 193:../../libdaisy/src/dev/oled_ssd130x.h ****                 // Display Clock Divide Ratio
 194:../../libdaisy/src/dev/oled_ssd130x.h ****                 transport_.SendCommand(0xD5);
 195:../../libdaisy/src/dev/oled_ssd130x.h ****                 transport_.SendCommand(0x80);
 196:../../libdaisy/src/dev/oled_ssd130x.h ****                 // Multiplex Ratio
 197:../../libdaisy/src/dev/oled_ssd130x.h ****                 transport_.SendCommand(0xA8);
 198:../../libdaisy/src/dev/oled_ssd130x.h ****                 transport_.SendCommand(0x3F);
 199:../../libdaisy/src/dev/oled_ssd130x.h ****                 // COM Pins
 200:../../libdaisy/src/dev/oled_ssd130x.h ****                 transport_.SendCommand(0xDA);
 201:../../libdaisy/src/dev/oled_ssd130x.h ****                 transport_.SendCommand(0x12);
 202:../../libdaisy/src/dev/oled_ssd130x.h ****                 break;
 203:../../libdaisy/src/dev/oled_ssd130x.h ****         }
 204:../../libdaisy/src/dev/oled_ssd130x.h **** 
 205:../../libdaisy/src/dev/oled_ssd130x.h ****         // Display Offset
ARM GAS  C:\Users\VINCIU~1\AppData\Local\Temp\ccUTXsQS.s 			page 19


 206:../../libdaisy/src/dev/oled_ssd130x.h ****         transport_.SendCommand(0xD3);
 207:../../libdaisy/src/dev/oled_ssd130x.h ****         transport_.SendCommand(0x00);
 208:../../libdaisy/src/dev/oled_ssd130x.h ****         // Start Line Address
 209:../../libdaisy/src/dev/oled_ssd130x.h ****         transport_.SendCommand(0x40);
 210:../../libdaisy/src/dev/oled_ssd130x.h ****         // Normal Display
 211:../../libdaisy/src/dev/oled_ssd130x.h ****         transport_.SendCommand(0xA6);
 212:../../libdaisy/src/dev/oled_ssd130x.h ****         // All On Resume
 213:../../libdaisy/src/dev/oled_ssd130x.h ****         transport_.SendCommand(0xA4);
 214:../../libdaisy/src/dev/oled_ssd130x.h ****         // Charge Pump
 215:../../libdaisy/src/dev/oled_ssd130x.h ****         transport_.SendCommand(0x8D);
 216:../../libdaisy/src/dev/oled_ssd130x.h ****         transport_.SendCommand(0x14);
 217:../../libdaisy/src/dev/oled_ssd130x.h ****         // Set Segment Remap
 218:../../libdaisy/src/dev/oled_ssd130x.h ****         transport_.SendCommand(0xA1);
 219:../../libdaisy/src/dev/oled_ssd130x.h ****         // COM Output Scan Direction
 220:../../libdaisy/src/dev/oled_ssd130x.h ****         transport_.SendCommand(0xC8);
 221:../../libdaisy/src/dev/oled_ssd130x.h ****         // Contrast Control
 222:../../libdaisy/src/dev/oled_ssd130x.h ****         transport_.SendCommand(0x81);
 223:../../libdaisy/src/dev/oled_ssd130x.h ****         transport_.SendCommand(0x8F);
 224:../../libdaisy/src/dev/oled_ssd130x.h ****         // Pre Charge
 225:../../libdaisy/src/dev/oled_ssd130x.h ****         transport_.SendCommand(0xD9);
 226:../../libdaisy/src/dev/oled_ssd130x.h ****         transport_.SendCommand(0x25);
 227:../../libdaisy/src/dev/oled_ssd130x.h ****         // VCOM Detect
 228:../../libdaisy/src/dev/oled_ssd130x.h ****         transport_.SendCommand(0xDB);
 229:../../libdaisy/src/dev/oled_ssd130x.h ****         transport_.SendCommand(0x34);
 230:../../libdaisy/src/dev/oled_ssd130x.h **** 
 231:../../libdaisy/src/dev/oled_ssd130x.h **** 
 232:../../libdaisy/src/dev/oled_ssd130x.h ****         // Display On
 233:../../libdaisy/src/dev/oled_ssd130x.h ****         transport_.SendCommand(0xAF); //--turn on oled panel
 234:../../libdaisy/src/dev/oled_ssd130x.h ****     };
 235:../../libdaisy/src/dev/oled_ssd130x.h **** 
 236:../../libdaisy/src/dev/oled_ssd130x.h ****     size_t Width() const { return width; };
 237:../../libdaisy/src/dev/oled_ssd130x.h ****     size_t Height() const { return height; };
 238:../../libdaisy/src/dev/oled_ssd130x.h **** 
 239:../../libdaisy/src/dev/oled_ssd130x.h ****     void DrawPixel(uint_fast8_t x, uint_fast8_t y, bool on)
 240:../../libdaisy/src/dev/oled_ssd130x.h ****     {
 241:../../libdaisy/src/dev/oled_ssd130x.h ****         if(x >= width || y >= height)
 242:../../libdaisy/src/dev/oled_ssd130x.h ****             return;
 243:../../libdaisy/src/dev/oled_ssd130x.h ****         if(on)
 244:../../libdaisy/src/dev/oled_ssd130x.h ****             buffer_[x + (y / 8) * width] |= (1 << (y % 8));
 245:../../libdaisy/src/dev/oled_ssd130x.h ****         else
 246:../../libdaisy/src/dev/oled_ssd130x.h ****             buffer_[x + (y / 8) * width] &= ~(1 << (y % 8));
 247:../../libdaisy/src/dev/oled_ssd130x.h ****     }
 248:../../libdaisy/src/dev/oled_ssd130x.h **** 
 249:../../libdaisy/src/dev/oled_ssd130x.h ****     void Fill(bool on)
 252              		.loc 13 249 10 view .LVU37
 253              	.LBB409:
 250:../../libdaisy/src/dev/oled_ssd130x.h ****     {
 251:../../libdaisy/src/dev/oled_ssd130x.h ****         for(size_t i = 0; i < sizeof(buffer_); i++)
 254              		.loc 13 251 29 view .LVU38
 252:../../libdaisy/src/dev/oled_ssd130x.h ****         {
 253:../../libdaisy/src/dev/oled_ssd130x.h ****             buffer_[i] = on ? 0xff : 0x00;
 255              		.loc 13 253 24 is_stmt 0 view .LVU39
 256 0000 4942     		rsbs	r1, r1, #0
 257              	.LVL8:
 258              		.loc 13 253 24 view .LVU40
 259 0002 4FF48062 		mov	r2, #1024
 260 0006 1430     		adds	r0, r0, #20
ARM GAS  C:\Users\VINCIU~1\AppData\Local\Temp\ccUTXsQS.s 			page 20


 261              	.LVL9:
 262              		.loc 13 253 24 view .LVU41
 263 0008 C9B2     		uxtb	r1, r1
 264 000a FFF7FEBF 		b	memset
 265              	.LVL10:
 266              		.loc 13 253 24 view .LVU42
 267              	.LBE409:
 268              	.LBE408:
 269              		.cfi_endproc
 270              	.LFE4643:
 272 000e 00BF     		.section	.text._ZN5daisy11MidiHandlerINS_17MidiUartTransportEED2Ev,"axG",%progbits,_ZN5daisy11Midi
 273              		.align	1
 274              		.p2align 2,,3
 275              		.weak	_ZN5daisy11MidiHandlerINS_17MidiUartTransportEED2Ev
 276              		.syntax unified
 277              		.thumb
 278              		.thumb_func
 279              		.fpu fpv5-d16
 281              	_ZN5daisy11MidiHandlerINS_17MidiUartTransportEED2Ev:
 282              	.LVL11:
 283              	.LFB4652:
 284              		.file 14 "../../libdaisy/src/hid/midi.h"
   1:../../libdaisy/src/hid/midi.h **** #pragma once
   2:../../libdaisy/src/hid/midi.h **** #ifndef DSY_MIDI_H
   3:../../libdaisy/src/hid/midi.h **** #define DSY_MIDI_H
   4:../../libdaisy/src/hid/midi.h **** 
   5:../../libdaisy/src/hid/midi.h **** // TODO: make this adjustable
   6:../../libdaisy/src/hid/midi.h **** #define SYSEX_BUFFER_LEN 100
   7:../../libdaisy/src/hid/midi.h **** 
   8:../../libdaisy/src/hid/midi.h **** #include <stdint.h>
   9:../../libdaisy/src/hid/midi.h **** #include <stdlib.h>
  10:../../libdaisy/src/hid/midi.h **** #include "per/uart.h"
  11:../../libdaisy/src/hid/midi.h **** #include "util/ringbuffer.h"
  12:../../libdaisy/src/hid/midi.h **** #include "hid/MidiEvent.h"
  13:../../libdaisy/src/hid/midi.h **** 
  14:../../libdaisy/src/hid/midi.h **** namespace daisy
  15:../../libdaisy/src/hid/midi.h **** {
  16:../../libdaisy/src/hid/midi.h **** /** @addtogroup external 
  17:../../libdaisy/src/hid/midi.h ****     @{ 
  18:../../libdaisy/src/hid/midi.h **** */
  19:../../libdaisy/src/hid/midi.h **** 
  20:../../libdaisy/src/hid/midi.h **** class MidiUartTransport
  21:../../libdaisy/src/hid/midi.h **** {
  22:../../libdaisy/src/hid/midi.h ****   public:
  23:../../libdaisy/src/hid/midi.h ****     MidiUartTransport() {}
  24:../../libdaisy/src/hid/midi.h ****     ~MidiUartTransport() {}
  25:../../libdaisy/src/hid/midi.h **** 
  26:../../libdaisy/src/hid/midi.h ****     struct Config
  27:../../libdaisy/src/hid/midi.h ****     {
  28:../../libdaisy/src/hid/midi.h ****         UartHandler::Config::Peripheral periph;
  29:../../libdaisy/src/hid/midi.h ****         dsy_gpio_pin                    rx;
  30:../../libdaisy/src/hid/midi.h ****         dsy_gpio_pin                    tx;
  31:../../libdaisy/src/hid/midi.h **** 
  32:../../libdaisy/src/hid/midi.h ****         Config()
  33:../../libdaisy/src/hid/midi.h ****         {
  34:../../libdaisy/src/hid/midi.h ****             periph = UartHandler::Config::Peripheral::USART_1;
  35:../../libdaisy/src/hid/midi.h ****             rx     = {DSY_GPIOB, 7};
ARM GAS  C:\Users\VINCIU~1\AppData\Local\Temp\ccUTXsQS.s 			page 21


  36:../../libdaisy/src/hid/midi.h ****             tx     = {DSY_GPIOB, 6};
  37:../../libdaisy/src/hid/midi.h ****         }
  38:../../libdaisy/src/hid/midi.h ****     };
  39:../../libdaisy/src/hid/midi.h **** 
  40:../../libdaisy/src/hid/midi.h ****     inline void Init(Config config)
  41:../../libdaisy/src/hid/midi.h ****     {
  42:../../libdaisy/src/hid/midi.h ****         UartHandler::Config uart_config;
  43:../../libdaisy/src/hid/midi.h **** 
  44:../../libdaisy/src/hid/midi.h ****         //defaults
  45:../../libdaisy/src/hid/midi.h ****         uart_config.baudrate   = 31250;
  46:../../libdaisy/src/hid/midi.h ****         uart_config.stopbits   = UartHandler::Config::StopBits::BITS_1;
  47:../../libdaisy/src/hid/midi.h ****         uart_config.parity     = UartHandler::Config::Parity::NONE;
  48:../../libdaisy/src/hid/midi.h ****         uart_config.mode       = UartHandler::Config::Mode::TX_RX;
  49:../../libdaisy/src/hid/midi.h ****         uart_config.wordlength = UartHandler::Config::WordLength::BITS_8;
  50:../../libdaisy/src/hid/midi.h **** 
  51:../../libdaisy/src/hid/midi.h ****         //user settings
  52:../../libdaisy/src/hid/midi.h ****         uart_config.periph        = config.periph;
  53:../../libdaisy/src/hid/midi.h ****         uart_config.pin_config.rx = config.rx;
  54:../../libdaisy/src/hid/midi.h ****         uart_config.pin_config.tx = config.tx;
  55:../../libdaisy/src/hid/midi.h **** 
  56:../../libdaisy/src/hid/midi.h ****         uart_.Init(uart_config);
  57:../../libdaisy/src/hid/midi.h ****     }
  58:../../libdaisy/src/hid/midi.h **** 
  59:../../libdaisy/src/hid/midi.h ****     inline void    StartRx() { uart_.StartRx(); }
  60:../../libdaisy/src/hid/midi.h ****     inline size_t  Readable() { return uart_.Readable(); }
  61:../../libdaisy/src/hid/midi.h ****     inline uint8_t Rx() { return uart_.PopRx(); }
  62:../../libdaisy/src/hid/midi.h ****     inline bool    RxActive() { return uart_.RxActive(); }
  63:../../libdaisy/src/hid/midi.h ****     inline void    FlushRx() { uart_.FlushRx(); }
  64:../../libdaisy/src/hid/midi.h ****     inline void    Tx(uint8_t* buff, size_t size) { uart_.PollTx(buff, size); }
  65:../../libdaisy/src/hid/midi.h **** 
  66:../../libdaisy/src/hid/midi.h ****   private:
  67:../../libdaisy/src/hid/midi.h ****     UartHandler uart_;
  68:../../libdaisy/src/hid/midi.h **** };
  69:../../libdaisy/src/hid/midi.h **** 
  70:../../libdaisy/src/hid/midi.h **** /** 
  71:../../libdaisy/src/hid/midi.h ****     @brief Simple MIDI Handler \n 
  72:../../libdaisy/src/hid/midi.h ****     Parses bytes from an input into valid MidiEvents. \n 
  73:../../libdaisy/src/hid/midi.h ****     The MidiEvents fill a FIFO queue that the user can pop messages from.
  74:../../libdaisy/src/hid/midi.h ****     @author shensley
  75:../../libdaisy/src/hid/midi.h ****     @date March 2020
  76:../../libdaisy/src/hid/midi.h **** */
  77:../../libdaisy/src/hid/midi.h **** template <typename Transport>
  78:../../libdaisy/src/hid/midi.h **** class MidiHandler
  79:../../libdaisy/src/hid/midi.h **** {
  80:../../libdaisy/src/hid/midi.h ****   public:
  81:../../libdaisy/src/hid/midi.h ****     MidiHandler() {}
  82:../../libdaisy/src/hid/midi.h ****     ~MidiHandler() {}
 285              		.loc 14 82 5 is_stmt 1 view -0
 286              		.cfi_startproc
 287              		@ args = 0, pretend = 0, frame = 0
 288              		@ frame_needed = 0, uses_anonymous_args = 0
 289              		@ link register save eliminated.
 290              	.LBB410:
 291              	.LBI410:
  24:../../libdaisy/src/hid/midi.h **** 
 292              		.loc 14 24 5 view .LVU44
  24:../../libdaisy/src/hid/midi.h **** 
ARM GAS  C:\Users\VINCIU~1\AppData\Local\Temp\ccUTXsQS.s 			page 22


 293              		.loc 14 24 5 is_stmt 0 view .LVU45
 294              	.LBE410:
 295              		.loc 14 82 21 view .LVU46
 296 0000 7047     		bx	lr
 297              		.cfi_endproc
 298              	.LFE4652:
 300              		.weak	_ZN5daisy11MidiHandlerINS_17MidiUartTransportEED1Ev
 301              		.thumb_set _ZN5daisy11MidiHandlerINS_17MidiUartTransportEED1Ev,_ZN5daisy11MidiHandlerINS_17MidiUar
 302 0002 00BF     		.section	.text._Z13AudioCallbackPKfPfj,"ax",%progbits
 303              		.align	1
 304              		.p2align 2,,3
 305              		.global	_Z13AudioCallbackPKfPfj
 306              		.syntax unified
 307              		.thumb
 308              		.thumb_func
 309              		.fpu fpv5-d16
 311              	_Z13AudioCallbackPKfPfj:
 312              	.LVL12:
 313              	.LFB4041:
  20:SynthMenis.cpp **** Line                                   line[poly];
  21:SynthMenis.cpp **** Adsr                                   env[poly];
  22:SynthMenis.cpp **** bool                                   gate[poly];
  23:SynthMenis.cpp **** MidiHandler<MidiUartTransport>         midi;
  24:SynthMenis.cpp **** MidiHandler<MidiUartTransport>::Config midi_cfg;
  25:SynthMenis.cpp **** float                                  semiMultiplier = 1;
  26:SynthMenis.cpp **** float                                  osc1Freq[poly];
  27:SynthMenis.cpp **** uint8_t                                finished;
  28:SynthMenis.cpp **** int                                    navigation   = 0;
  29:SynthMenis.cpp **** int                                    count        = 0;
  30:SynthMenis.cpp **** bool                                   splashInit   = true;
  31:SynthMenis.cpp **** int                                    polyIndexOn  = 0;
  32:SynthMenis.cpp **** int                                    polyIndexOff = 0;
  33:SynthMenis.cpp **** float                                  freq1;
  34:SynthMenis.cpp **** float                                  freq2;
  35:SynthMenis.cpp **** 
  36:SynthMenis.cpp **** void HandleMidiMessage(MidiEvent m)
  37:SynthMenis.cpp **** {
  38:SynthMenis.cpp ****     switch(m.type)
  39:SynthMenis.cpp ****     {
  40:SynthMenis.cpp ****         case NoteOn:
  41:SynthMenis.cpp **** 
  42:SynthMenis.cpp ****         {
  43:SynthMenis.cpp ****             if(polyIndexOn > poly - 1)
  44:SynthMenis.cpp ****             {
  45:SynthMenis.cpp ****                 polyIndexOn = 0;
  46:SynthMenis.cpp ****             }
  47:SynthMenis.cpp ****             NoteOnEvent p = m.AsNoteOn();
  48:SynthMenis.cpp ****             if(m.data[1] != 0)
  49:SynthMenis.cpp ****             {
  50:SynthMenis.cpp ****                 line[polyIndexOn].Start(p.note + (synthmenu.glideInit * 0.25),
  51:SynthMenis.cpp ****                                         p.note,
  52:SynthMenis.cpp ****                                         synthmenu.glideTime / 100);
  53:SynthMenis.cpp ****                 gate[polyIndexOn] = true;
  54:SynthMenis.cpp **** 
  55:SynthMenis.cpp ****                 freq1 = mtof(p.note + synthmenu.noteSemiAdd)
  56:SynthMenis.cpp ****                         * (1 + synthmenu.freqFine);
  57:SynthMenis.cpp ****                 freq2 = mtof(p.note + synthmenu.noteSemiAdd2)
ARM GAS  C:\Users\VINCIU~1\AppData\Local\Temp\ccUTXsQS.s 			page 23


  58:SynthMenis.cpp ****                         * (1 + synthmenu.freqFine2);
  59:SynthMenis.cpp ****    osc[polyIndexOn].osc1.SetFreq(freq1);
  60:SynthMenis.cpp ****         osc[polyIndexOn].osc2.SetFreq(freq2);
  61:SynthMenis.cpp ****                 polyIndexOn = polyIndexOn + 1;
  62:SynthMenis.cpp ****             }
  63:SynthMenis.cpp ****         }
  64:SynthMenis.cpp ****         break;
  65:SynthMenis.cpp **** 
  66:SynthMenis.cpp ****         case NoteOff:
  67:SynthMenis.cpp ****         {
  68:SynthMenis.cpp ****             if(m.data[1] != 0)
  69:SynthMenis.cpp ****             {
  70:SynthMenis.cpp ****                 if(polyIndexOff > poly - 1)
  71:SynthMenis.cpp ****                 {
  72:SynthMenis.cpp ****                     polyIndexOff = 0;
  73:SynthMenis.cpp ****                 }
  74:SynthMenis.cpp ****                 gate[polyIndexOff] = false;
  75:SynthMenis.cpp ****                 polyIndexOff       = polyIndexOff + 1;
  76:SynthMenis.cpp ****             }
  77:SynthMenis.cpp ****         }
  78:SynthMenis.cpp ****         break;
  79:SynthMenis.cpp ****         default: break;
  80:SynthMenis.cpp ****     }
  81:SynthMenis.cpp **** }
  82:SynthMenis.cpp **** 
  83:SynthMenis.cpp **** 
  84:SynthMenis.cpp **** void AudioCallback(AudioHandle::InterleavingInputBuffer  in,
  85:SynthMenis.cpp ****                    AudioHandle::InterleavingOutputBuffer out,
  86:SynthMenis.cpp ****                    size_t                                size)
  87:SynthMenis.cpp **** {
 314              		.loc 12 87 1 is_stmt 1 view -0
 315              		.cfi_startproc
 316              		@ args = 0, pretend = 0, frame = 136
 317              		@ frame_needed = 0, uses_anonymous_args = 0
  88:SynthMenis.cpp ****     float osc_out;
 318              		.loc 12 88 5 view .LVU48
  89:SynthMenis.cpp ****     float env_out[32];
 319              		.loc 12 89 5 view .LVU49
  90:SynthMenis.cpp ****     for(size_t i = 0; i < size; i += 2)
 320              		.loc 12 90 5 view .LVU50
 321              	.LBB411:
 322              		.loc 12 90 25 view .LVU51
 323 0000 002A     		cmp	r2, #0
 324 0002 00F08580 		beq	.L25
 325 0006 0023     		movs	r3, #0
 326 0008 013A     		subs	r2, r2, #1
 327              	.LVL13:
 328              		.loc 12 90 25 is_stmt 0 view .LVU52
 329              	.LBE411:
  87:SynthMenis.cpp ****     float osc_out;
 330              		.loc 12 87 1 view .LVU53
 331 000a 2DE9F04F 		push	{r4, r5, r6, r7, r8, r9, r10, fp, lr}
 332              		.cfi_def_cfa_offset 36
 333              		.cfi_offset 4, -36
 334              		.cfi_offset 5, -32
 335              		.cfi_offset 6, -28
 336              		.cfi_offset 7, -24
ARM GAS  C:\Users\VINCIU~1\AppData\Local\Temp\ccUTXsQS.s 			page 24


 337              		.cfi_offset 8, -20
 338              		.cfi_offset 9, -16
 339              		.cfi_offset 10, -12
 340              		.cfi_offset 11, -8
 341              		.cfi_offset 14, -4
 342 000e 2DED028B 		vpush.64	{d8}
 343              		.cfi_def_cfa_offset 44
 344              		.cfi_offset 80, -44
 345              		.cfi_offset 81, -40
 346 0012 A3B0     		sub	sp, sp, #140
 347              		.cfi_def_cfa_offset 184
 348 0014 0F46     		mov	r7, r1
 349 0016 3F4E     		ldr	r6, .L28
 350              	.LBB423:
 351              		.loc 12 90 25 view .LVU54
 352 0018 0093     		str	r3, [sp]
 353 001a 5308     		lsrs	r3, r2, #1
 354 001c DFF81091 		ldr	r9, .L28+28
 355 0020 3D4D     		ldr	r5, .L28+4
 356 0022 0193     		str	r3, [sp, #4]
 357              	.LVL14:
 358              	.L20:
 359              		.loc 12 90 25 view .LVU55
 360 0024 0DF1080B 		add	fp, sp, #8
 361 0028 DFF80881 		ldr	r8, .L28+32
 362 002c 3B4C     		ldr	r4, .L28+8
 363 002e DA46     		mov	r10, fp
 364              	.L12:
 365              	.LVL15:
 366              	.LBB412:
 367              	.LBB413:
  91:SynthMenis.cpp ****     {
  92:SynthMenis.cpp ****         for(size_t i = 0; i < poly; i++)
  93:SynthMenis.cpp ****         {
  94:SynthMenis.cpp ****             env_out[i] = env[i].Process(gate[i]);
 368              		.loc 12 94 13 is_stmt 1 discriminator 2 view .LVU56
 369              		.loc 12 94 40 is_stmt 0 discriminator 2 view .LVU57
 370 0030 18F8011B 		ldrb	r1, [r8], #1	@ zero_extendqisi2
 371              	.LVL16:
 372              		.loc 12 94 40 discriminator 2 view .LVU58
 373 0034 2046     		mov	r0, r4
 374 0036 FFF7FEFF 		bl	_ZN7daisysp4Adsr7ProcessEb
 375              	.LVL17:
  92:SynthMenis.cpp ****         {
 376              		.loc 12 92 29 discriminator 2 view .LVU59
 377 003a 3034     		adds	r4, r4, #48
 378 003c B045     		cmp	r8, r6
 379              		.loc 12 94 24 discriminator 2 view .LVU60
 380 003e AAEC010A 		vstmia.32	r10!, {s0}
  92:SynthMenis.cpp ****         {
 381              		.loc 12 92 9 is_stmt 1 discriminator 2 view .LVU61
 382              	.LVL18:
  92:SynthMenis.cpp ****         {
 383              		.loc 12 92 29 discriminator 2 view .LVU62
 384 0042 F5D1     		bne	.L12
 385              	.LBE413:
 386              	.LBB414:
ARM GAS  C:\Users\VINCIU~1\AppData\Local\Temp\ccUTXsQS.s 			page 25


  95:SynthMenis.cpp ****         }
  96:SynthMenis.cpp **** 
  97:SynthMenis.cpp ****         for(size_t i = 0; i < poly; i++)
  98:SynthMenis.cpp ****         {
  99:SynthMenis.cpp ****             osc[i].osc1.SetAmp((env_out[i] * 0.5) * synthmenu.synthOn);
 387              		.loc 12 99 51 is_stmt 0 view .LVU63
 388 0044 D9ED5B7A 		vldr.32	s15, [r9, #364]	@ int
 389 0048 0CAA     		add	r2, sp, #48
 390 004a 354C     		ldr	r4, .L28+12
 391 004c B8EEE74B 		vcvt.f64.s32	d4, s15
 100:SynthMenis.cpp ****             osc[i].osc2.SetAmp((env_out[i] * 0.5) * synthmenu.synthOn2);
 392              		.loc 12 100 51 view .LVU64
 393 0050 D9ED5C7A 		vldr.32	s15, [r9, #368]	@ int
 394 0054 2346     		mov	r3, r4
 395 0056 B8EEE75B 		vcvt.f64.s32	d5, s15
 396              	.L13:
  99:SynthMenis.cpp ****             osc[i].osc2.SetAmp((env_out[i] * 0.5) * synthmenu.synthOn2);
 397              		.loc 12 99 13 is_stmt 1 discriminator 2 view .LVU65
  99:SynthMenis.cpp ****             osc[i].osc2.SetAmp((env_out[i] * 0.5) * synthmenu.synthOn2);
 398              		.loc 12 99 42 is_stmt 0 discriminator 2 view .LVU66
 399 005a BBEC017A 		vldmia.32	fp!, {s14}
  99:SynthMenis.cpp ****             osc[i].osc2.SetAmp((env_out[i] * 0.5) * synthmenu.synthOn2);
 400              		.loc 12 99 44 discriminator 2 view .LVU67
 401 005e B6EE006B 		vmov.f64	d6, #5.0e-1
  97:SynthMenis.cpp ****         {
 402              		.loc 12 97 29 discriminator 2 view .LVU68
 403 0062 5033     		adds	r3, r3, #80
  99:SynthMenis.cpp ****             osc[i].osc2.SetAmp((env_out[i] * 0.5) * synthmenu.synthOn2);
 404              		.loc 12 99 42 discriminator 2 view .LVU69
 405 0064 B7EEC77A 		vcvt.f64.f32	d7, s14
  97:SynthMenis.cpp ****         {
 406              		.loc 12 97 29 discriminator 2 view .LVU70
 407 0068 9345     		cmp	fp, r2
  99:SynthMenis.cpp ****             osc[i].osc2.SetAmp((env_out[i] * 0.5) * synthmenu.synthOn2);
 408              		.loc 12 99 44 discriminator 2 view .LVU71
 409 006a 27EE067B 		vmul.f64	d7, d7, d6
 410              	.LVL19:
 411              	.LBB415:
 412              	.LBI415:
 413              		.file 15 "../../DaisySP/Source/Synthesis/oscillator.h"
   1:../../DaisySP/Source/Synthesis/oscillator.h **** #pragma once
   2:../../DaisySP/Source/Synthesis/oscillator.h **** #ifndef DSY_OSCILLATOR_H
   3:../../DaisySP/Source/Synthesis/oscillator.h **** #define DSY_OSCILLATOR_H
   4:../../DaisySP/Source/Synthesis/oscillator.h **** #include <stdint.h>
   5:../../DaisySP/Source/Synthesis/oscillator.h **** #include "Utility/dsp.h"
   6:../../DaisySP/Source/Synthesis/oscillator.h **** #ifdef __cplusplus
   7:../../DaisySP/Source/Synthesis/oscillator.h **** 
   8:../../DaisySP/Source/Synthesis/oscillator.h **** namespace daisysp
   9:../../DaisySP/Source/Synthesis/oscillator.h **** {
  10:../../DaisySP/Source/Synthesis/oscillator.h **** /** Synthesis of several waveforms, including polyBLEP bandlimited waveforms.
  11:../../DaisySP/Source/Synthesis/oscillator.h **** */
  12:../../DaisySP/Source/Synthesis/oscillator.h **** class Oscillator
  13:../../DaisySP/Source/Synthesis/oscillator.h **** {
  14:../../DaisySP/Source/Synthesis/oscillator.h ****   public:
  15:../../DaisySP/Source/Synthesis/oscillator.h ****     Oscillator() {}
  16:../../DaisySP/Source/Synthesis/oscillator.h ****     ~Oscillator() {}
  17:../../DaisySP/Source/Synthesis/oscillator.h ****     /** Choices for output waveforms, POLYBLEP are appropriately labeled. Others are naive forms.
ARM GAS  C:\Users\VINCIU~1\AppData\Local\Temp\ccUTXsQS.s 			page 26


  18:../../DaisySP/Source/Synthesis/oscillator.h ****     */
  19:../../DaisySP/Source/Synthesis/oscillator.h ****     enum
  20:../../DaisySP/Source/Synthesis/oscillator.h ****     {
  21:../../DaisySP/Source/Synthesis/oscillator.h ****         WAVE_SIN,
  22:../../DaisySP/Source/Synthesis/oscillator.h ****         WAVE_TRI,
  23:../../DaisySP/Source/Synthesis/oscillator.h ****         WAVE_SAW,
  24:../../DaisySP/Source/Synthesis/oscillator.h ****         WAVE_RAMP,
  25:../../DaisySP/Source/Synthesis/oscillator.h ****         WAVE_SQUARE,
  26:../../DaisySP/Source/Synthesis/oscillator.h ****         WAVE_POLYBLEP_TRI,
  27:../../DaisySP/Source/Synthesis/oscillator.h ****         WAVE_POLYBLEP_SAW,
  28:../../DaisySP/Source/Synthesis/oscillator.h ****         WAVE_POLYBLEP_SQUARE,
  29:../../DaisySP/Source/Synthesis/oscillator.h ****         WAVE_LAST,
  30:../../DaisySP/Source/Synthesis/oscillator.h ****     };
  31:../../DaisySP/Source/Synthesis/oscillator.h **** 
  32:../../DaisySP/Source/Synthesis/oscillator.h **** 
  33:../../DaisySP/Source/Synthesis/oscillator.h ****     /** Initializes the Oscillator
  34:../../DaisySP/Source/Synthesis/oscillator.h **** 
  35:../../DaisySP/Source/Synthesis/oscillator.h ****         \param sample_rate - sample rate of the audio engine being run, and the frequency that the 
  36:../../DaisySP/Source/Synthesis/oscillator.h **** 
  37:../../DaisySP/Source/Synthesis/oscillator.h ****         Defaults:
  38:../../DaisySP/Source/Synthesis/oscillator.h ****         - freq_ = 100 Hz
  39:../../DaisySP/Source/Synthesis/oscillator.h ****         - amp_ = 0.5
  40:../../DaisySP/Source/Synthesis/oscillator.h ****         - waveform_ = sine wave.
  41:../../DaisySP/Source/Synthesis/oscillator.h ****     */
  42:../../DaisySP/Source/Synthesis/oscillator.h ****     void Init(float sample_rate)
  43:../../DaisySP/Source/Synthesis/oscillator.h ****     {
  44:../../DaisySP/Source/Synthesis/oscillator.h ****         sr_        = sample_rate;
  45:../../DaisySP/Source/Synthesis/oscillator.h ****         sr_recip_  = 1.0f / sample_rate;
  46:../../DaisySP/Source/Synthesis/oscillator.h ****         freq_      = 100.0f;
  47:../../DaisySP/Source/Synthesis/oscillator.h ****         amp_       = 0.5f;
  48:../../DaisySP/Source/Synthesis/oscillator.h ****         phase_     = 0.0f;
  49:../../DaisySP/Source/Synthesis/oscillator.h ****         phase_inc_ = CalcPhaseInc(freq_);
  50:../../DaisySP/Source/Synthesis/oscillator.h ****         waveform_  = WAVE_SIN;
  51:../../DaisySP/Source/Synthesis/oscillator.h ****         eoc_       = true;
  52:../../DaisySP/Source/Synthesis/oscillator.h ****         eor_       = true;
  53:../../DaisySP/Source/Synthesis/oscillator.h ****     }
  54:../../DaisySP/Source/Synthesis/oscillator.h **** 
  55:../../DaisySP/Source/Synthesis/oscillator.h **** 
  56:../../DaisySP/Source/Synthesis/oscillator.h ****     /** Changes the frequency of the Oscillator, and recalculates phase increment.
  57:../../DaisySP/Source/Synthesis/oscillator.h ****     */
  58:../../DaisySP/Source/Synthesis/oscillator.h ****     inline void SetFreq(const float f)
  59:../../DaisySP/Source/Synthesis/oscillator.h ****     {
  60:../../DaisySP/Source/Synthesis/oscillator.h ****         freq_      = f;
  61:../../DaisySP/Source/Synthesis/oscillator.h ****         phase_inc_ = CalcPhaseInc(f);
  62:../../DaisySP/Source/Synthesis/oscillator.h ****     }
  63:../../DaisySP/Source/Synthesis/oscillator.h **** 
  64:../../DaisySP/Source/Synthesis/oscillator.h **** 
  65:../../DaisySP/Source/Synthesis/oscillator.h ****     /** Sets the amplitude of the waveform.
  66:../../DaisySP/Source/Synthesis/oscillator.h ****     */
  67:../../DaisySP/Source/Synthesis/oscillator.h ****     inline void SetAmp(const float a) { amp_ = a; }
 414              		.loc 15 67 17 is_stmt 1 discriminator 2 view .LVU72
 415              	.LBB416:
 416              		.loc 15 67 41 discriminator 2 view .LVU73
 417              	.LBE416:
 418              	.LBE415:
  99:SynthMenis.cpp ****             osc[i].osc2.SetAmp((env_out[i] * 0.5) * synthmenu.synthOn2);
 419              		.loc 12 99 51 is_stmt 0 discriminator 2 view .LVU74
ARM GAS  C:\Users\VINCIU~1\AppData\Local\Temp\ccUTXsQS.s 			page 27


 420 006e 27EE046B 		vmul.f64	d6, d7, d4
 421              		.loc 12 100 51 discriminator 2 view .LVU75
 422 0072 27EE057B 		vmul.f64	d7, d7, d5
 423              	.LVL20:
  99:SynthMenis.cpp ****             osc[i].osc2.SetAmp((env_out[i] * 0.5) * synthmenu.synthOn2);
 424              		.loc 12 99 31 discriminator 2 view .LVU76
 425 0076 B7EEC66B 		vcvt.f32.f64	s12, d6
 426              	.LVL21:
 427              		.loc 12 100 31 discriminator 2 view .LVU77
 428 007a B7EEC77B 		vcvt.f32.f64	s14, d7
  99:SynthMenis.cpp ****             osc[i].osc2.SetAmp((env_out[i] * 0.5) * synthmenu.synthOn2);
 429              		.loc 12 99 31 discriminator 2 view .LVU78
 430 007e 03ED136A 		vstr.32	s12, [r3, #-76]
 431              	.LVL22:
 432              		.loc 12 100 13 is_stmt 1 discriminator 2 view .LVU79
 433              	.LBB417:
 434              	.LBI417:
 435              		.loc 15 67 17 discriminator 2 view .LVU80
 436              	.LBB418:
 437              		.loc 15 67 41 discriminator 2 view .LVU81
 438              	.LBE418:
 439              	.LBE417:
 440              		.loc 12 100 31 is_stmt 0 discriminator 2 view .LVU82
 441 0082 03ED097A 		vstr.32	s14, [r3, #-36]
 442              	.LVL23:
  97:SynthMenis.cpp ****         {
 443              		.loc 12 97 9 is_stmt 1 discriminator 2 view .LVU83
  97:SynthMenis.cpp ****         {
 444              		.loc 12 97 29 discriminator 2 view .LVU84
 445 0086 E8D1     		bne	.L13
 446 0088 4FF0010B 		mov	fp, #1
 447 008c 0FE0     		b	.L17
 448              	.LVL24:
 449              	.L14:
  97:SynthMenis.cpp ****         {
 450              		.loc 12 97 29 is_stmt 0 discriminator 2 view .LVU85
 451              	.LBE414:
 452              	.LBB419:
 101:SynthMenis.cpp ****         }
 102:SynthMenis.cpp **** 
 103:SynthMenis.cpp **** 
 104:SynthMenis.cpp ****         for(size_t i = 0; i < poly; i++)
 105:SynthMenis.cpp ****         {
 106:SynthMenis.cpp ****             if(i == 0)
 107:SynthMenis.cpp ****             {
 108:SynthMenis.cpp ****                 osc_out = osc[i].osc1.Process() + osc[i].osc2.Process();
 109:SynthMenis.cpp ****             }
 110:SynthMenis.cpp ****             else
 111:SynthMenis.cpp ****             {
 112:SynthMenis.cpp ****                 osc_out
 113:SynthMenis.cpp ****                     = osc_out + osc[i].osc1.Process() + osc[i].osc2.Process();
 453              		.loc 12 113 52 view .LVU86
 454 008e FFF7FEFF 		bl	_ZN7daisysp10Oscillator7ProcessEv
 455              	.LVL25:
 456              		.loc 12 113 76 view .LVU87
 457 0092 04F12800 		add	r0, r4, #40
 458              		.loc 12 113 31 view .LVU88
ARM GAS  C:\Users\VINCIU~1\AppData\Local\Temp\ccUTXsQS.s 			page 28


 459 0096 70EE288A 		vadd.f32	s17, s0, s17
 460              		.loc 12 113 76 view .LVU89
 461 009a FFF7FEFF 		bl	_ZN7daisysp10Oscillator7ProcessEv
 462              	.LVL26:
 104:SynthMenis.cpp ****         {
 463              		.loc 12 104 29 view .LVU90
 464 009e BBF10A0F 		cmp	fp, #10
 465              		.loc 12 113 21 view .LVU91
 466 00a2 78EE808A 		vadd.f32	s17, s17, s0
 467              	.LVL27:
 104:SynthMenis.cpp ****         {
 468              		.loc 12 104 9 is_stmt 1 view .LVU92
 104:SynthMenis.cpp ****         {
 469              		.loc 12 104 29 view .LVU93
 470 00a6 11D0     		beq	.L16
 471              	.LVL28:
 472              	.L15:
 104:SynthMenis.cpp ****         {
 473              		.loc 12 104 29 is_stmt 0 view .LVU94
 474 00a8 0BF1010B 		add	fp, fp, #1
 475              	.LVL29:
 104:SynthMenis.cpp ****         {
 476              		.loc 12 104 29 view .LVU95
 477 00ac 5034     		adds	r4, r4, #80
 478              	.LVL30:
 479              	.L17:
 106:SynthMenis.cpp ****             {
 480              		.loc 12 106 13 is_stmt 1 view .LVU96
 112:SynthMenis.cpp ****                     = osc_out + osc[i].osc1.Process() + osc[i].osc2.Process();
 481              		.loc 12 112 17 view .LVU97
 106:SynthMenis.cpp ****             {
 482              		.loc 12 106 13 is_stmt 0 view .LVU98
 483 00ae BBF1010F 		cmp	fp, #1
 484              		.loc 12 113 52 view .LVU99
 485 00b2 2046     		mov	r0, r4
 106:SynthMenis.cpp ****             {
 486              		.loc 12 106 13 view .LVU100
 487 00b4 EBD1     		bne	.L14
 488              	.LVL31:
 108:SynthMenis.cpp ****             }
 489              		.loc 12 108 17 is_stmt 1 view .LVU101
 108:SynthMenis.cpp ****             }
 490              		.loc 12 108 46 is_stmt 0 view .LVU102
 491 00b6 1A48     		ldr	r0, .L28+12
 492 00b8 FFF7FEFF 		bl	_ZN7daisysp10Oscillator7ProcessEv
 493              	.LVL32:
 494 00bc F0EE408A 		vmov.f32	s17, s0
 108:SynthMenis.cpp ****             }
 495              		.loc 12 108 70 view .LVU103
 496 00c0 1848     		ldr	r0, .L28+16
 497 00c2 FFF7FEFF 		bl	_ZN7daisysp10Oscillator7ProcessEv
 498              	.LVL33:
 108:SynthMenis.cpp ****             }
 499              		.loc 12 108 25 view .LVU104
 500 00c6 78EE808A 		vadd.f32	s17, s17, s0
 501              	.LVL34:
 104:SynthMenis.cpp ****         {
ARM GAS  C:\Users\VINCIU~1\AppData\Local\Temp\ccUTXsQS.s 			page 29


 502              		.loc 12 104 9 is_stmt 1 view .LVU105
 104:SynthMenis.cpp ****         {
 503              		.loc 12 104 29 view .LVU106
 504 00ca EDE7     		b	.L15
 505              	.LVL35:
 506              	.L16:
 104:SynthMenis.cpp ****         {
 507              		.loc 12 104 29 is_stmt 0 view .LVU107
 508 00cc DFF868B0 		ldr	fp, .L28+36
 509              	.LVL36:
 104:SynthMenis.cpp ****         {
 510              		.loc 12 104 29 view .LVU108
 511 00d0 154C     		ldr	r4, .L28+20
 512              	.L18:
 513              	.LBE419:
 514              	.LBB420:
 114:SynthMenis.cpp ****             }
 115:SynthMenis.cpp ****         }
 116:SynthMenis.cpp **** 
 117:SynthMenis.cpp ****         //osc_out    = osc[0].osc1.Process() + osc[0].osc2.Process();
 118:SynthMenis.cpp ****         for(size_t i = 0; i < poly; i++)
 119:SynthMenis.cpp ****         {
 120:SynthMenis.cpp ****             osc1Freq[i] = line[i].Process(&finished);
 515              		.loc 12 120 13 is_stmt 1 discriminator 2 view .LVU109
 516              		.loc 12 120 42 is_stmt 0 discriminator 2 view .LVU110
 517 00d2 5846     		mov	r0, fp
 518 00d4 1549     		ldr	r1, .L28+24
 519 00d6 FFF7FEFF 		bl	_ZN7daisysp4Line7ProcessEPh
 520              	.LVL37:
 521              		.loc 12 120 25 discriminator 2 view .LVU111
 522 00da A4EC010A 		vstmia.32	r4!, {s0}
 118:SynthMenis.cpp ****         {
 523              		.loc 12 118 9 is_stmt 1 discriminator 2 view .LVU112
 118:SynthMenis.cpp ****         {
 524              		.loc 12 118 29 discriminator 2 view .LVU113
 525 00de A542     		cmp	r5, r4
 526 00e0 0BF11C0B 		add	fp, fp, #28
 527 00e4 F5D1     		bne	.L18
 528              	.LBE420:
 121:SynthMenis.cpp ****         }
 122:SynthMenis.cpp **** 
 123:SynthMenis.cpp **** 
 124:SynthMenis.cpp ****         out[i]     = osc_out * 0.25;
 529              		.loc 12 124 9 discriminator 2 view .LVU114
 530              		.loc 12 124 30 is_stmt 0 discriminator 2 view .LVU115
 531 00e6 F5EE007A 		vmov.f32	s15, #2.5e-1
 532              	.LBE412:
  90:SynthMenis.cpp ****     {
 533              		.loc 12 90 25 discriminator 2 view .LVU116
 534 00ea 009A     		ldr	r2, [sp]
 535 00ec 0199     		ldr	r1, [sp, #4]
 536 00ee 0837     		adds	r7, r7, #8
 537 00f0 531C     		adds	r3, r2, #1
 538              	.LBB421:
 539              		.loc 12 124 30 discriminator 2 view .LVU117
 540 00f2 68EEA77A 		vmul.f32	s15, s17, s15
 541              	.LBE421:
ARM GAS  C:\Users\VINCIU~1\AppData\Local\Temp\ccUTXsQS.s 			page 30


  90:SynthMenis.cpp ****     {
 542              		.loc 12 90 25 discriminator 2 view .LVU118
 543 00f6 8A42     		cmp	r2, r1
 544              	.LBB422:
 545              		.loc 12 124 20 discriminator 2 view .LVU119
 546 00f8 47ED027A 		vstr.32	s15, [r7, #-8]
 125:SynthMenis.cpp ****         out[i + 1] = osc_out * 0.25;
 547              		.loc 12 125 9 is_stmt 1 discriminator 2 view .LVU120
 548              		.loc 12 125 20 is_stmt 0 discriminator 2 view .LVU121
 549 00fc 47ED017A 		vstr.32	s15, [r7, #-4]
 550              	.LBE422:
  90:SynthMenis.cpp ****     {
 551              		.loc 12 90 5 is_stmt 1 discriminator 2 view .LVU122
 552              	.LVL38:
  90:SynthMenis.cpp ****     {
 553              		.loc 12 90 25 discriminator 2 view .LVU123
 554 0100 01D0     		beq	.L10
 555 0102 0093     		str	r3, [sp]
 556 0104 8EE7     		b	.L20
 557              	.L10:
  90:SynthMenis.cpp ****     {
 558              		.loc 12 90 25 is_stmt 0 discriminator 2 view .LVU124
 559              	.LBE423:
 126:SynthMenis.cpp ****     }
 127:SynthMenis.cpp **** }
 560              		.loc 12 127 1 view .LVU125
 561 0106 23B0     		add	sp, sp, #140
 562              		.cfi_def_cfa_offset 44
 563              		@ sp needed
 564 0108 BDEC028B 		vldm	sp!, {d8}
 565              		.cfi_restore 80
 566              		.cfi_restore 81
 567              		.cfi_def_cfa_offset 36
 568 010c BDE8F08F 		pop	{r4, r5, r6, r7, r8, r9, r10, fp, pc}
 569              	.LVL39:
 570              	.L25:
 571              		.cfi_def_cfa_offset 0
 572              		.cfi_restore 4
 573              		.cfi_restore 5
 574              		.cfi_restore 6
 575              		.cfi_restore 7
 576              		.cfi_restore 8
 577              		.cfi_restore 9
 578              		.cfi_restore 10
 579              		.cfi_restore 11
 580              		.cfi_restore 14
 581              		.loc 12 127 1 view .LVU126
 582 0110 7047     		bx	lr
 583              	.L29:
 584 0112 00BF     		.align	2
 585              	.L28:
 586 0114 0A000000 		.word	.LANCHOR0+10
 587 0118 28000000 		.word	.LANCHOR5+40
 588 011c 00000000 		.word	.LANCHOR1
 589 0120 00000000 		.word	.LANCHOR3
 590 0124 28000000 		.word	.LANCHOR3+40
 591 0128 00000000 		.word	.LANCHOR5
ARM GAS  C:\Users\VINCIU~1\AppData\Local\Temp\ccUTXsQS.s 			page 31


 592 012c 00000000 		.word	.LANCHOR6
 593 0130 00000000 		.word	.LANCHOR2
 594 0134 00000000 		.word	.LANCHOR0
 595 0138 00000000 		.word	.LANCHOR4
 596              		.cfi_endproc
 597              	.LFE4041:
 599              		.section	.text._ZN23OledDisplayExtravaganzaD0Ev,"axG",%progbits,_ZN23OledDisplayExtravaganzaD5Ev,c
 600              		.align	1
 601              		.p2align 2,,3
 602              		.weak	_ZN23OledDisplayExtravaganzaD0Ev
 603              		.syntax unified
 604              		.thumb
 605              		.thumb_func
 606              		.fpu fpv5-d16
 608              	_ZN23OledDisplayExtravaganzaD0Ev:
 609              	.LVL40:
 610              	.LFB4635:
 611              		.loc 7 9 7 is_stmt 1 view -0
 612              		.cfi_startproc
 613              		@ args = 0, pretend = 0, frame = 0
 614              		@ frame_needed = 0, uses_anonymous_args = 0
 615              		.loc 7 9 7 is_stmt 0 view .LVU128
 616 0000 10B5     		push	{r4, lr}
 617              		.cfi_def_cfa_offset 8
 618              		.cfi_offset 4, -8
 619              		.cfi_offset 14, -4
 620              		.loc 7 9 7 view .LVU129
 621 0002 0446     		mov	r4, r0
 622              	.LVL41:
 623              	.LBB424:
 624              	.LBI424:
 625              		.loc 7 9 7 is_stmt 1 view .LVU130
 626              	.LBB425:
 627              	.LBI425:
  17:../../libdaisy/src/hid/disp/oled_display.h **** 
 628              		.loc 6 17 13 view .LVU131
 629              	.LBB426:
 630              	.LBI426:
 631              		.loc 8 179 13 view .LVU132
 632              	.LBB427:
 633              	.LBI427:
  22:../../libdaisy/src/hid/disp/display.h **** 
 634              		.loc 8 22 13 view .LVU133
  22:../../libdaisy/src/hid/disp/display.h **** 
 635              		.loc 8 22 13 is_stmt 0 view .LVU134
 636              	.LBE427:
 637              	.LBE426:
 638              	.LBE425:
 639              	.LBE424:
 640              		.loc 7 9 7 view .LVU135
 641 0004 40F21441 		movw	r1, #1044
 642 0008 FFF7FEFF 		bl	_ZdlPvj
 643              	.LVL42:
 644              		.loc 7 9 7 view .LVU136
 645 000c 2046     		mov	r0, r4
 646 000e 10BD     		pop	{r4, pc}
 647              		.loc 7 9 7 view .LVU137
ARM GAS  C:\Users\VINCIU~1\AppData\Local\Temp\ccUTXsQS.s 			page 32


 648              		.cfi_endproc
 649              	.LFE4635:
 651              		.section	.text.__tcf_1,"ax",%progbits
 652              		.align	1
 653              		.p2align 2,,3
 654              		.syntax unified
 655              		.thumb
 656              		.thumb_func
 657              		.fpu fpv5-d16
 659              	__tcf_1:
 660              	.LFB4661:
 661              		.cfi_startproc
 662              		@ args = 0, pretend = 0, frame = 0
 663              		@ frame_needed = 0, uses_anonymous_args = 0
 664              		@ link register save eliminated.
 665 0000 7047     		bx	lr
 666              		.cfi_endproc
 667              	.LFE4661:
 669 0002 00BF     		.section	.text.__tcf_2,"ax",%progbits
 670              		.align	1
 671              		.p2align 2,,3
 672              		.syntax unified
 673              		.thumb
 674              		.thumb_func
 675              		.fpu fpv5-d16
 677              	__tcf_2:
 678              	.LFB4663:
 679              		.cfi_startproc
 680              		@ args = 0, pretend = 0, frame = 0
 681              		@ frame_needed = 0, uses_anonymous_args = 0
 682              		@ link register save eliminated.
 683 0000 7047     		bx	lr
 684              		.cfi_endproc
 685              	.LFE4663:
 687 0002 00BF     		.section	.text._ZN5daisy11OledDisplayINS_13SSD130xDriverILj128ELj64ENS_24SSD130x4WireSpiTransportE
 688              		.align	1
 689              		.p2align 2,,3
 690              		.weak	_ZN5daisy11OledDisplayINS_13SSD130xDriverILj128ELj64ENS_24SSD130x4WireSpiTransportEEEE6Updat
 691              		.syntax unified
 692              		.thumb
 693              		.thumb_func
 694              		.fpu fpv5-d16
 696              	_ZN5daisy11OledDisplayINS_13SSD130xDriverILj128ELj64ENS_24SSD130x4WireSpiTransportEEEE6UpdateEv:
 697              	.LVL43:
 698              	.LFB4650:
  34:../../libdaisy/src/hid/disp/oled_display.h **** 
  35:../../libdaisy/src/hid/disp/oled_display.h ****     /**
  36:../../libdaisy/src/hid/disp/oled_display.h ****     Sets the pixel at the specified coordinate to be on/off.
  37:../../libdaisy/src/hid/disp/oled_display.h ****     \param x   x Coordinate
  38:../../libdaisy/src/hid/disp/oled_display.h ****     \param y   y coordinate
  39:../../libdaisy/src/hid/disp/oled_display.h ****     \param on  on or off
  40:../../libdaisy/src/hid/disp/oled_display.h ****     */
  41:../../libdaisy/src/hid/disp/oled_display.h ****     void DrawPixel(uint_fast8_t x, uint_fast8_t y, bool on) override
  42:../../libdaisy/src/hid/disp/oled_display.h ****     {
  43:../../libdaisy/src/hid/disp/oled_display.h ****         driver_.DrawPixel(x, y, on);
  44:../../libdaisy/src/hid/disp/oled_display.h ****     }
  45:../../libdaisy/src/hid/disp/oled_display.h **** 
ARM GAS  C:\Users\VINCIU~1\AppData\Local\Temp\ccUTXsQS.s 			page 33


  46:../../libdaisy/src/hid/disp/oled_display.h ****     /** 
  47:../../libdaisy/src/hid/disp/oled_display.h ****     Writes the current display buffer to the OLED device using SPI or I2C depending on 
  48:../../libdaisy/src/hid/disp/oled_display.h ****     how the object was initialized.
  49:../../libdaisy/src/hid/disp/oled_display.h ****     */
  50:../../libdaisy/src/hid/disp/oled_display.h ****     void Update() override { driver_.Update(); }
 699              		.loc 6 50 10 is_stmt 1 view -0
 700              		.cfi_startproc
 701              		@ args = 0, pretend = 0, frame = 8
 702              		@ frame_needed = 0, uses_anonymous_args = 0
 703              	.LBB438:
 704              	.LBI438:
 254:../../libdaisy/src/dev/oled_ssd130x.h ****         }
 255:../../libdaisy/src/dev/oled_ssd130x.h ****     };
 256:../../libdaisy/src/dev/oled_ssd130x.h **** 
 257:../../libdaisy/src/dev/oled_ssd130x.h ****     /**
 258:../../libdaisy/src/dev/oled_ssd130x.h ****      * Update the display 
 259:../../libdaisy/src/dev/oled_ssd130x.h ****     */
 260:../../libdaisy/src/dev/oled_ssd130x.h ****     void Update()
 705              		.loc 13 260 10 view .LVU139
 706              	.LBB439:
 261:../../libdaisy/src/dev/oled_ssd130x.h ****     {
 262:../../libdaisy/src/dev/oled_ssd130x.h ****         uint8_t i;
 263:../../libdaisy/src/dev/oled_ssd130x.h ****         uint8_t high_column_addr;
 264:../../libdaisy/src/dev/oled_ssd130x.h ****         switch(height)
 265:../../libdaisy/src/dev/oled_ssd130x.h ****         {
 266:../../libdaisy/src/dev/oled_ssd130x.h ****             case 32: high_column_addr = 0x12; break;
 267:../../libdaisy/src/dev/oled_ssd130x.h **** 
 268:../../libdaisy/src/dev/oled_ssd130x.h ****             default: high_column_addr = 0x10; break;
 269:../../libdaisy/src/dev/oled_ssd130x.h ****         }
 270:../../libdaisy/src/dev/oled_ssd130x.h ****         for(i = 0; i < (height / 8); i++)
 707              		.loc 13 270 22 view .LVU140
 708              	.LBE439:
 709              	.LBE438:
 710              		.loc 6 50 10 is_stmt 0 view .LVU141
 711 0000 2DE9F041 		push	{r4, r5, r6, r7, r8, lr}
 712              		.cfi_def_cfa_offset 24
 713              		.cfi_offset 4, -24
 714              		.cfi_offset 5, -20
 715              		.cfi_offset 6, -16
 716              		.cfi_offset 7, -12
 717              		.cfi_offset 8, -8
 718              		.cfi_offset 14, -4
 719              	.LBB461:
 720              	.LBB459:
 721              	.LBB440:
 722              	.LBB441:
 112:../../libdaisy/src/dev/oled_ssd130x.h ****     };
 723              		.loc 13 112 30 view .LVU142
 724 0004 B024     		movs	r4, #176
 725              	.LBE441:
 726              	.LBE440:
 727              	.LBE459:
 728              	.LBE461:
 729              		.loc 6 50 10 view .LVU143
 730 0006 82B0     		sub	sp, sp, #8
 731              		.cfi_def_cfa_offset 32
 732              	.LBB462:
ARM GAS  C:\Users\VINCIU~1\AppData\Local\Temp\ccUTXsQS.s 			page 34


 733              	.LBB460:
 734              	.LBB446:
 735              	.LBB442:
 111:../../libdaisy/src/dev/oled_ssd130x.h ****         spi_.BlockingTransmit(&cmd, 1);
 736              		.loc 13 111 24 view .LVU144
 737 0008 00F10806 		add	r6, r0, #8
 738 000c 00F11005 		add	r5, r0, #16
 739 0010 00F11408 		add	r8, r0, #20
 740              	.LVL44:
 741              	.L35:
 111:../../libdaisy/src/dev/oled_ssd130x.h ****         spi_.BlockingTransmit(&cmd, 1);
 742              		.loc 13 111 24 view .LVU145
 743 0014 0027     		movs	r7, #0
 111:../../libdaisy/src/dev/oled_ssd130x.h ****         spi_.BlockingTransmit(&cmd, 1);
 744              		.loc 13 111 23 view .LVU146
 745 0016 2846     		mov	r0, r5
 746 0018 8DF80740 		strb	r4, [sp, #7]
 747              	.LVL45:
 111:../../libdaisy/src/dev/oled_ssd130x.h ****         spi_.BlockingTransmit(&cmd, 1);
 748              		.loc 13 111 23 view .LVU147
 749              	.LBE442:
 750              	.LBI440:
 109:../../libdaisy/src/dev/oled_ssd130x.h ****     {
 751              		.loc 13 109 10 is_stmt 1 view .LVU148
 752              	.LBB443:
 111:../../libdaisy/src/dev/oled_ssd130x.h ****         spi_.BlockingTransmit(&cmd, 1);
 753              		.loc 13 111 9 view .LVU149
 754              	.LBE443:
 755              	.LBE446:
 756              		.loc 13 270 22 is_stmt 0 view .LVU150
 757 001c 0134     		adds	r4, r4, #1
 758              	.LVL46:
 759              	.LBB447:
 760              	.LBB444:
 111:../../libdaisy/src/dev/oled_ssd130x.h ****         spi_.BlockingTransmit(&cmd, 1);
 761              		.loc 13 111 23 view .LVU151
 762 001e 3946     		mov	r1, r7
 763 0020 FFF7FEFF 		bl	dsy_gpio_write
 764              	.LVL47:
 112:../../libdaisy/src/dev/oled_ssd130x.h ****     };
 765              		.loc 13 112 9 is_stmt 1 view .LVU152
 112:../../libdaisy/src/dev/oled_ssd130x.h ****     };
 766              		.loc 13 112 30 is_stmt 0 view .LVU153
 767 0024 6423     		movs	r3, #100
 768 0026 0122     		movs	r2, #1
 769 0028 0DF10701 		add	r1, sp, #7
 770 002c 3046     		mov	r0, r6
 771              	.LBE444:
 772              	.LBE447:
 773              		.loc 13 270 22 view .LVU154
 774 002e E4B2     		uxtb	r4, r4
 775              	.LBB448:
 776              	.LBB445:
 112:../../libdaisy/src/dev/oled_ssd130x.h ****     };
 777              		.loc 13 112 30 view .LVU155
 778 0030 FFF7FEFF 		bl	_ZN5daisy9SpiHandle16BlockingTransmitEPhjm
 779              	.LVL48:
ARM GAS  C:\Users\VINCIU~1\AppData\Local\Temp\ccUTXsQS.s 			page 35


 112:../../libdaisy/src/dev/oled_ssd130x.h ****     };
 780              		.loc 13 112 30 view .LVU156
 781              	.LBE445:
 782              	.LBE448:
 783              	.LBB449:
 784              	.LBB450:
 111:../../libdaisy/src/dev/oled_ssd130x.h ****         spi_.BlockingTransmit(&cmd, 1);
 785              		.loc 13 111 23 view .LVU157
 786 0034 3946     		mov	r1, r7
 787 0036 2846     		mov	r0, r5
 788 0038 8DF80770 		strb	r7, [sp, #7]
 789              	.LVL49:
 111:../../libdaisy/src/dev/oled_ssd130x.h ****         spi_.BlockingTransmit(&cmd, 1);
 790              		.loc 13 111 23 view .LVU158
 791              	.LBE450:
 792              	.LBI449:
 109:../../libdaisy/src/dev/oled_ssd130x.h ****     {
 793              		.loc 13 109 10 is_stmt 1 view .LVU159
 794              	.LBB451:
 111:../../libdaisy/src/dev/oled_ssd130x.h ****         spi_.BlockingTransmit(&cmd, 1);
 795              		.loc 13 111 9 view .LVU160
 111:../../libdaisy/src/dev/oled_ssd130x.h ****         spi_.BlockingTransmit(&cmd, 1);
 796              		.loc 13 111 23 is_stmt 0 view .LVU161
 797 003c FFF7FEFF 		bl	dsy_gpio_write
 798              	.LVL50:
 112:../../libdaisy/src/dev/oled_ssd130x.h ****     };
 799              		.loc 13 112 9 is_stmt 1 view .LVU162
 112:../../libdaisy/src/dev/oled_ssd130x.h ****     };
 800              		.loc 13 112 30 is_stmt 0 view .LVU163
 801 0040 0122     		movs	r2, #1
 802 0042 6423     		movs	r3, #100
 803 0044 0DF10701 		add	r1, sp, #7
 804 0048 3046     		mov	r0, r6
 805 004a FFF7FEFF 		bl	_ZN5daisy9SpiHandle16BlockingTransmitEPhjm
 806              	.LVL51:
 112:../../libdaisy/src/dev/oled_ssd130x.h ****     };
 807              		.loc 13 112 30 view .LVU164
 808 004e 1023     		movs	r3, #16
 809              	.LBE451:
 810              	.LBE449:
 811              	.LBB452:
 812              	.LBB453:
 111:../../libdaisy/src/dev/oled_ssd130x.h ****         spi_.BlockingTransmit(&cmd, 1);
 813              		.loc 13 111 23 view .LVU165
 814 0050 3946     		mov	r1, r7
 815 0052 2846     		mov	r0, r5
 816 0054 8DF80730 		strb	r3, [sp, #7]
 817              	.LVL52:
 111:../../libdaisy/src/dev/oled_ssd130x.h ****         spi_.BlockingTransmit(&cmd, 1);
 818              		.loc 13 111 23 view .LVU166
 819              	.LBE453:
 820              	.LBI452:
 109:../../libdaisy/src/dev/oled_ssd130x.h ****     {
 821              		.loc 13 109 10 is_stmt 1 view .LVU167
 822              	.LBB454:
 111:../../libdaisy/src/dev/oled_ssd130x.h ****         spi_.BlockingTransmit(&cmd, 1);
 823              		.loc 13 111 9 view .LVU168
ARM GAS  C:\Users\VINCIU~1\AppData\Local\Temp\ccUTXsQS.s 			page 36


 111:../../libdaisy/src/dev/oled_ssd130x.h ****         spi_.BlockingTransmit(&cmd, 1);
 824              		.loc 13 111 23 is_stmt 0 view .LVU169
 825 0058 FFF7FEFF 		bl	dsy_gpio_write
 826              	.LVL53:
 112:../../libdaisy/src/dev/oled_ssd130x.h ****     };
 827              		.loc 13 112 9 is_stmt 1 view .LVU170
 112:../../libdaisy/src/dev/oled_ssd130x.h ****     };
 828              		.loc 13 112 30 is_stmt 0 view .LVU171
 829 005c 6423     		movs	r3, #100
 830 005e 0122     		movs	r2, #1
 831 0060 0DF10701 		add	r1, sp, #7
 832 0064 3046     		mov	r0, r6
 833 0066 FFF7FEFF 		bl	_ZN5daisy9SpiHandle16BlockingTransmitEPhjm
 834              	.LVL54:
 112:../../libdaisy/src/dev/oled_ssd130x.h ****     };
 835              		.loc 13 112 30 view .LVU172
 836              	.LBE454:
 837              	.LBE452:
 838              	.LBB455:
 839              	.LBI455:
 115:../../libdaisy/src/dev/oled_ssd130x.h ****     {
 840              		.loc 13 115 10 is_stmt 1 view .LVU173
 841              	.LBB456:
 117:../../libdaisy/src/dev/oled_ssd130x.h ****         spi_.BlockingTransmit(buff, size);
 842              		.loc 13 117 9 view .LVU174
 117:../../libdaisy/src/dev/oled_ssd130x.h ****         spi_.BlockingTransmit(buff, size);
 843              		.loc 13 117 23 is_stmt 0 view .LVU175
 844 006a 0121     		movs	r1, #1
 845 006c 2846     		mov	r0, r5
 846 006e FFF7FEFF 		bl	dsy_gpio_write
 847              	.LVL55:
 118:../../libdaisy/src/dev/oled_ssd130x.h ****     };
 848              		.loc 13 118 9 is_stmt 1 view .LVU176
 118:../../libdaisy/src/dev/oled_ssd130x.h ****     };
 849              		.loc 13 118 30 is_stmt 0 view .LVU177
 850 0072 8022     		movs	r2, #128
 851 0074 4146     		mov	r1, r8
 852 0076 6423     		movs	r3, #100
 853 0078 3046     		mov	r0, r6
 854              	.LBE456:
 855              	.LBE455:
 856              		.loc 13 270 22 view .LVU178
 857 007a 9044     		add	r8, r8, r2
 858              	.LVL56:
 859              	.LBB458:
 860              	.LBB457:
 118:../../libdaisy/src/dev/oled_ssd130x.h ****     };
 861              		.loc 13 118 30 view .LVU179
 862 007c FFF7FEFF 		bl	_ZN5daisy9SpiHandle16BlockingTransmitEPhjm
 863              	.LVL57:
 118:../../libdaisy/src/dev/oled_ssd130x.h ****     };
 864              		.loc 13 118 30 view .LVU180
 865              	.LBE457:
 866              	.LBE458:
 867              		.loc 13 270 9 is_stmt 1 view .LVU181
 868              		.loc 13 270 22 view .LVU182
 869 0080 B82C     		cmp	r4, #184
ARM GAS  C:\Users\VINCIU~1\AppData\Local\Temp\ccUTXsQS.s 			page 37


 870 0082 C7D1     		bne	.L35
 871              	.LBE460:
 872              	.LBE462:
 873              		.loc 6 50 48 is_stmt 0 view .LVU183
 874 0084 02B0     		add	sp, sp, #8
 875              		.cfi_def_cfa_offset 24
 876              		@ sp needed
 877 0086 BDE8F081 		pop	{r4, r5, r6, r7, r8, pc}
 878              		.loc 6 50 48 view .LVU184
 879              		.cfi_endproc
 880              	.LFE4650:
 882 008a 00BF     		.section	.text._ZN5daisy25OneBitGraphicsDisplayImplINS_11OledDisplayINS_13SSD130xDriverILj128ELj64
 883              		.align	1
 884              		.p2align 2,,3
 885              		.weak	_ZN5daisy25OneBitGraphicsDisplayImplINS_11OledDisplayINS_13SSD130xDriverILj128ELj64ENS_24SSD
 886              		.syntax unified
 887              		.thumb
 888              		.thumb_func
 889              		.fpu fpv5-d16
 891              	_ZN5daisy25OneBitGraphicsDisplayImplINS_11OledDisplayINS_13SSD130xDriverILj128ELj64ENS_24SSD130x4Wi
 892              	.LVL58:
 893              	.LFB4648:
 180:../../libdaisy/src/hid/disp/display.h **** 
 181:../../libdaisy/src/hid/disp/display.h ****     void DrawLine(uint_fast8_t x1,
 182:../../libdaisy/src/hid/disp/display.h ****                   uint_fast8_t y1,
 183:../../libdaisy/src/hid/disp/display.h ****                   uint_fast8_t x2,
 184:../../libdaisy/src/hid/disp/display.h ****                   uint_fast8_t y2,
 185:../../libdaisy/src/hid/disp/display.h ****                   bool         on) override
 186:../../libdaisy/src/hid/disp/display.h ****     {
 187:../../libdaisy/src/hid/disp/display.h ****         int_fast16_t deltaX = abs((int_fast16_t)x2 - (int_fast16_t)x1);
 188:../../libdaisy/src/hid/disp/display.h ****         int_fast16_t deltaY = abs((int_fast16_t)y2 - (int_fast16_t)y1);
 189:../../libdaisy/src/hid/disp/display.h ****         int_fast16_t signX  = ((x1 < x2) ? 1 : -1);
 190:../../libdaisy/src/hid/disp/display.h ****         int_fast16_t signY  = ((y1 < y2) ? 1 : -1);
 191:../../libdaisy/src/hid/disp/display.h ****         int_fast16_t error  = deltaX - deltaY;
 192:../../libdaisy/src/hid/disp/display.h ****         int_fast16_t error2;
 193:../../libdaisy/src/hid/disp/display.h **** 
 194:../../libdaisy/src/hid/disp/display.h ****         // If we write "ChildType::DrawPixel(x2, y2, on);", we end up with
 195:../../libdaisy/src/hid/disp/display.h ****         // all sorts of weird compiler errors when the Child class is a template
 196:../../libdaisy/src/hid/disp/display.h ****         // class. The only way around this is to use this very verbose syntax:
 197:../../libdaisy/src/hid/disp/display.h ****         ((ChildType*)(this))->ChildType::DrawPixel(x2, y2, on);
 198:../../libdaisy/src/hid/disp/display.h **** 
 199:../../libdaisy/src/hid/disp/display.h ****         while((x1 != x2) || (y1 != y2))
 200:../../libdaisy/src/hid/disp/display.h ****         {
 201:../../libdaisy/src/hid/disp/display.h ****             ((ChildType*)(this))->ChildType::DrawPixel(x1, y1, on);
 202:../../libdaisy/src/hid/disp/display.h ****             error2 = error * 2;
 203:../../libdaisy/src/hid/disp/display.h ****             if(error2 > -deltaY)
 204:../../libdaisy/src/hid/disp/display.h ****             {
 205:../../libdaisy/src/hid/disp/display.h ****                 error -= deltaY;
 206:../../libdaisy/src/hid/disp/display.h ****                 x1 += signX;
 207:../../libdaisy/src/hid/disp/display.h ****             }
 208:../../libdaisy/src/hid/disp/display.h **** 
 209:../../libdaisy/src/hid/disp/display.h ****             if(error2 < deltaX)
 210:../../libdaisy/src/hid/disp/display.h ****             {
 211:../../libdaisy/src/hid/disp/display.h ****                 error += deltaX;
 212:../../libdaisy/src/hid/disp/display.h ****                 y1 += signY;
 213:../../libdaisy/src/hid/disp/display.h ****             }
 214:../../libdaisy/src/hid/disp/display.h ****         }
ARM GAS  C:\Users\VINCIU~1\AppData\Local\Temp\ccUTXsQS.s 			page 38


 215:../../libdaisy/src/hid/disp/display.h ****     }
 216:../../libdaisy/src/hid/disp/display.h **** 
 217:../../libdaisy/src/hid/disp/display.h ****     void DrawRect(uint_fast8_t x1,
 218:../../libdaisy/src/hid/disp/display.h ****                   uint_fast8_t y1,
 219:../../libdaisy/src/hid/disp/display.h ****                   uint_fast8_t x2,
 220:../../libdaisy/src/hid/disp/display.h ****                   uint_fast8_t y2,
 221:../../libdaisy/src/hid/disp/display.h ****                   bool         on,
 222:../../libdaisy/src/hid/disp/display.h ****                   bool         fill = false) override
 223:../../libdaisy/src/hid/disp/display.h ****     {
 224:../../libdaisy/src/hid/disp/display.h ****         if(fill)
 225:../../libdaisy/src/hid/disp/display.h ****         {
 226:../../libdaisy/src/hid/disp/display.h ****             for(uint_fast8_t x = x1; x <= x2; x++)
 227:../../libdaisy/src/hid/disp/display.h ****             {
 228:../../libdaisy/src/hid/disp/display.h ****                 for(uint_fast8_t y = y1; y <= y2; y++)
 229:../../libdaisy/src/hid/disp/display.h ****                 {
 230:../../libdaisy/src/hid/disp/display.h ****                     ((ChildType*)(this))->ChildType::DrawPixel(x, y, on);
 231:../../libdaisy/src/hid/disp/display.h ****                 }
 232:../../libdaisy/src/hid/disp/display.h ****             }
 233:../../libdaisy/src/hid/disp/display.h ****         }
 234:../../libdaisy/src/hid/disp/display.h ****         else
 235:../../libdaisy/src/hid/disp/display.h ****         {
 236:../../libdaisy/src/hid/disp/display.h ****             ((ChildType*)(this))->ChildType::DrawLine(x1, y1, x2, y1, on);
 237:../../libdaisy/src/hid/disp/display.h ****             ((ChildType*)(this))->ChildType::DrawLine(x2, y1, x2, y2, on);
 238:../../libdaisy/src/hid/disp/display.h ****             ((ChildType*)(this))->ChildType::DrawLine(x2, y2, x1, y2, on);
 239:../../libdaisy/src/hid/disp/display.h ****             ((ChildType*)(this))->ChildType::DrawLine(x1, y2, x1, y1, on);
 240:../../libdaisy/src/hid/disp/display.h ****         }
 241:../../libdaisy/src/hid/disp/display.h ****     }
 242:../../libdaisy/src/hid/disp/display.h **** 
 243:../../libdaisy/src/hid/disp/display.h ****     void DrawArc(uint_fast8_t x,
 244:../../libdaisy/src/hid/disp/display.h ****                  uint_fast8_t y,
 245:../../libdaisy/src/hid/disp/display.h ****                  uint_fast8_t radius,
 246:../../libdaisy/src/hid/disp/display.h ****                  int_fast16_t start_angle,
 247:../../libdaisy/src/hid/disp/display.h ****                  int_fast16_t sweep,
 248:../../libdaisy/src/hid/disp/display.h ****                  bool         on) override
 249:../../libdaisy/src/hid/disp/display.h ****     {
 250:../../libdaisy/src/hid/disp/display.h ****         // Values to calculate the circle
 251:../../libdaisy/src/hid/disp/display.h ****         int_fast16_t t_x, t_y, err, e2;
 252:../../libdaisy/src/hid/disp/display.h **** 
 253:../../libdaisy/src/hid/disp/display.h ****         // Temporary values to speed up comparisons
 254:../../libdaisy/src/hid/disp/display.h ****         float t_sxy, t_syx, t_sxny, t_synx;
 255:../../libdaisy/src/hid/disp/display.h ****         float t_exy, t_eyx, t_exny, t_eynx;
 256:../../libdaisy/src/hid/disp/display.h **** 
 257:../../libdaisy/src/hid/disp/display.h ****         float start_angle_rad, end_angle_rad;
 258:../../libdaisy/src/hid/disp/display.h ****         float start_x, start_y, end_x, end_y;
 259:../../libdaisy/src/hid/disp/display.h **** 
 260:../../libdaisy/src/hid/disp/display.h ****         bool d1, d2, d3, d4;
 261:../../libdaisy/src/hid/disp/display.h **** 
 262:../../libdaisy/src/hid/disp/display.h ****         d1 = d2 = d3 = d4 = true;
 263:../../libdaisy/src/hid/disp/display.h **** 
 264:../../libdaisy/src/hid/disp/display.h ****         bool circle = false;
 265:../../libdaisy/src/hid/disp/display.h **** 
 266:../../libdaisy/src/hid/disp/display.h ****         if(sweep < 0)
 267:../../libdaisy/src/hid/disp/display.h ****         {
 268:../../libdaisy/src/hid/disp/display.h ****             start_angle += sweep;
 269:../../libdaisy/src/hid/disp/display.h ****             sweep = -sweep;
 270:../../libdaisy/src/hid/disp/display.h ****         }
 271:../../libdaisy/src/hid/disp/display.h **** 
ARM GAS  C:\Users\VINCIU~1\AppData\Local\Temp\ccUTXsQS.s 			page 39


 272:../../libdaisy/src/hid/disp/display.h ****         start_angle_rad = deg2rad(start_angle);
 273:../../libdaisy/src/hid/disp/display.h ****         end_angle_rad   = deg2rad(start_angle + sweep);
 274:../../libdaisy/src/hid/disp/display.h **** 
 275:../../libdaisy/src/hid/disp/display.h ****         start_x = cos(start_angle_rad) * radius;
 276:../../libdaisy/src/hid/disp/display.h ****         start_y = -sin(start_angle_rad) * radius;
 277:../../libdaisy/src/hid/disp/display.h ****         end_x   = cos(end_angle_rad) * radius;
 278:../../libdaisy/src/hid/disp/display.h ****         end_y   = -sin(end_angle_rad) * radius;
 279:../../libdaisy/src/hid/disp/display.h **** 
 280:../../libdaisy/src/hid/disp/display.h ****         // Check if start and endpoint are very near
 281:../../libdaisy/src/hid/disp/display.h ****         if((end_x - start_x) * (end_x - start_x)
 282:../../libdaisy/src/hid/disp/display.h ****                + (end_y - start_y) * (end_y - start_y)
 283:../../libdaisy/src/hid/disp/display.h ****            < 2.0f)
 284:../../libdaisy/src/hid/disp/display.h ****         {
 285:../../libdaisy/src/hid/disp/display.h ****             if(sweep > 180)
 286:../../libdaisy/src/hid/disp/display.h ****                 circle = true;
 287:../../libdaisy/src/hid/disp/display.h ****             else
 288:../../libdaisy/src/hid/disp/display.h ****                 // Nothing to draw
 289:../../libdaisy/src/hid/disp/display.h ****                 return;
 290:../../libdaisy/src/hid/disp/display.h ****         }
 291:../../libdaisy/src/hid/disp/display.h **** 
 292:../../libdaisy/src/hid/disp/display.h ****         t_x = -radius;
 293:../../libdaisy/src/hid/disp/display.h ****         t_y = 0;
 294:../../libdaisy/src/hid/disp/display.h ****         err = 2 - 2 * radius;
 295:../../libdaisy/src/hid/disp/display.h **** 
 296:../../libdaisy/src/hid/disp/display.h ****         do
 297:../../libdaisy/src/hid/disp/display.h ****         {
 298:../../libdaisy/src/hid/disp/display.h ****             if(!circle)
 299:../../libdaisy/src/hid/disp/display.h ****             {
 300:../../libdaisy/src/hid/disp/display.h ****                 t_sxy  = start_x * t_y;
 301:../../libdaisy/src/hid/disp/display.h ****                 t_syx  = start_y * t_x;
 302:../../libdaisy/src/hid/disp/display.h ****                 t_sxny = start_x * -t_y;
 303:../../libdaisy/src/hid/disp/display.h ****                 t_synx = start_y * -t_x;
 304:../../libdaisy/src/hid/disp/display.h ****                 t_exy  = end_x * t_y;
 305:../../libdaisy/src/hid/disp/display.h ****                 t_eyx  = end_y * t_x;
 306:../../libdaisy/src/hid/disp/display.h ****                 t_exny = end_x * -t_y;
 307:../../libdaisy/src/hid/disp/display.h ****                 t_eynx = end_y * -t_x;
 308:../../libdaisy/src/hid/disp/display.h **** 
 309:../../libdaisy/src/hid/disp/display.h ****                 if(sweep > 180)
 310:../../libdaisy/src/hid/disp/display.h ****                 {
 311:../../libdaisy/src/hid/disp/display.h ****                     d1 = (t_sxy - t_synx < 0 || t_exy - t_eynx > 0);
 312:../../libdaisy/src/hid/disp/display.h ****                     d2 = (t_sxy - t_syx < 0 || t_exy - t_eyx > 0);
 313:../../libdaisy/src/hid/disp/display.h ****                     d3 = (t_sxny - t_syx < 0 || t_exny - t_eyx > 0);
 314:../../libdaisy/src/hid/disp/display.h ****                     d4 = (t_sxny - t_synx < 0 || t_exny - t_eynx > 0);
 315:../../libdaisy/src/hid/disp/display.h ****                 }
 316:../../libdaisy/src/hid/disp/display.h ****                 else
 317:../../libdaisy/src/hid/disp/display.h ****                 {
 318:../../libdaisy/src/hid/disp/display.h ****                     d1 = (t_sxy - t_synx < 0 && t_exy - t_eynx > 0);
 319:../../libdaisy/src/hid/disp/display.h ****                     d2 = (t_sxy - t_syx < 0 && t_exy - t_eyx > 0);
 320:../../libdaisy/src/hid/disp/display.h ****                     d3 = (t_sxny - t_syx < 0 && t_exny - t_eyx > 0);
 321:../../libdaisy/src/hid/disp/display.h ****                     d4 = (t_sxny - t_synx < 0 && t_exny - t_eynx > 0);
 322:../../libdaisy/src/hid/disp/display.h ****                 }
 323:../../libdaisy/src/hid/disp/display.h ****             }
 324:../../libdaisy/src/hid/disp/display.h **** 
 325:../../libdaisy/src/hid/disp/display.h ****             if(d1)
 326:../../libdaisy/src/hid/disp/display.h ****                 ((ChildType*)(this))
 327:../../libdaisy/src/hid/disp/display.h ****                     ->ChildType::DrawPixel(x - t_x, y + t_y, on);
 328:../../libdaisy/src/hid/disp/display.h ****             if(d2)
ARM GAS  C:\Users\VINCIU~1\AppData\Local\Temp\ccUTXsQS.s 			page 40


 329:../../libdaisy/src/hid/disp/display.h ****                 ((ChildType*)(this))
 330:../../libdaisy/src/hid/disp/display.h ****                     ->ChildType::DrawPixel(x + t_x, y + t_y, on);
 331:../../libdaisy/src/hid/disp/display.h ****             if(d3)
 332:../../libdaisy/src/hid/disp/display.h ****                 ((ChildType*)(this))
 333:../../libdaisy/src/hid/disp/display.h ****                     ->ChildType::DrawPixel(x + t_x, y - t_y, on);
 334:../../libdaisy/src/hid/disp/display.h ****             if(d4)
 335:../../libdaisy/src/hid/disp/display.h ****                 ((ChildType*)(this))
 336:../../libdaisy/src/hid/disp/display.h ****                     ->ChildType::DrawPixel(x - t_x, y - t_y, on);
 337:../../libdaisy/src/hid/disp/display.h **** 
 338:../../libdaisy/src/hid/disp/display.h ****             e2 = err;
 339:../../libdaisy/src/hid/disp/display.h ****             if(e2 <= t_y)
 340:../../libdaisy/src/hid/disp/display.h ****             {
 341:../../libdaisy/src/hid/disp/display.h ****                 t_y++;
 342:../../libdaisy/src/hid/disp/display.h ****                 err = err + (t_y * 2 + 1);
 343:../../libdaisy/src/hid/disp/display.h ****                 if(-t_x == t_y && e2 <= t_x)
 344:../../libdaisy/src/hid/disp/display.h ****                 {
 345:../../libdaisy/src/hid/disp/display.h ****                     e2 = 0;
 346:../../libdaisy/src/hid/disp/display.h ****                 }
 347:../../libdaisy/src/hid/disp/display.h ****             }
 348:../../libdaisy/src/hid/disp/display.h ****             if(e2 > t_x)
 349:../../libdaisy/src/hid/disp/display.h ****             {
 350:../../libdaisy/src/hid/disp/display.h ****                 t_x++;
 351:../../libdaisy/src/hid/disp/display.h ****                 err = err + (t_x * 2 + 1);
 352:../../libdaisy/src/hid/disp/display.h ****             }
 353:../../libdaisy/src/hid/disp/display.h ****         } while(t_x <= 0);
 354:../../libdaisy/src/hid/disp/display.h ****     }
 355:../../libdaisy/src/hid/disp/display.h **** 
 356:../../libdaisy/src/hid/disp/display.h ****     char WriteChar(char ch, FontDef font, bool on) override
 894              		.loc 8 356 10 is_stmt 1 view -0
 895              		.cfi_startproc
 896              		@ args = 4, pretend = 0, frame = 16
 897              		@ frame_needed = 0, uses_anonymous_args = 0
 898              		.loc 8 356 10 is_stmt 0 view .LVU186
 899 0000 2DE9F04F 		push	{r4, r5, r6, r7, r8, r9, r10, fp, lr}
 900              		.cfi_def_cfa_offset 36
 901              		.cfi_offset 4, -36
 902              		.cfi_offset 5, -32
 903              		.cfi_offset 6, -28
 904              		.cfi_offset 7, -24
 905              		.cfi_offset 8, -20
 906              		.cfi_offset 9, -16
 907              		.cfi_offset 10, -12
 908              		.cfi_offset 11, -8
 909              		.cfi_offset 14, -4
 910 0004 85B0     		sub	sp, sp, #20
 911              		.cfi_def_cfa_offset 56
 912              	.LVL59:
 357:../../libdaisy/src/hid/disp/display.h ****     {
 358:../../libdaisy/src/hid/disp/display.h ****         uint32_t i, b, j;
 359:../../libdaisy/src/hid/disp/display.h **** 
 360:../../libdaisy/src/hid/disp/display.h ****         // Check if character is valid
 361:../../libdaisy/src/hid/disp/display.h ****         if(ch < 32 || ch > 126)
 913              		.loc 8 361 20 view .LVU187
 914 0006 A1F12005 		sub	r5, r1, #32
 356:../../libdaisy/src/hid/disp/display.h ****     {
 915              		.loc 8 356 10 view .LVU188
 916 000a 04AC     		add	r4, sp, #16
ARM GAS  C:\Users\VINCIU~1\AppData\Local\Temp\ccUTXsQS.s 			page 41


 917 000c 9DF83870 		ldrb	r7, [sp, #56]	@ zero_extendqisi2
 918 0010 0091     		str	r1, [sp]
 919 0012 04E90C00 		stmdb	r4, {r2, r3}
 920              	.LVL60:
 921              		.loc 8 361 9 view .LVU189
 922 0016 EBB2     		uxtb	r3, r5
 923 0018 5E2B     		cmp	r3, #94
 924 001a 00F29580 		bhi	.L42
 362:../../libdaisy/src/hid/disp/display.h ****             return 0;
 363:../../libdaisy/src/hid/disp/display.h **** 
 364:../../libdaisy/src/hid/disp/display.h ****         // Check remaining space on current line
 365:../../libdaisy/src/hid/disp/display.h ****         if(Width() < (currentX_ + font.FontWidth)
 925              		.loc 8 365 17 view .LVU190
 926 001e 0368     		ldr	r3, [r0]
 927 0020 8046     		mov	r8, r0
 928 0022 5D4A     		ldr	r2, .L77
 929 0024 DB68     		ldr	r3, [r3, #12]
 930 0026 9DF80840 		ldrb	r4, [sp, #8]	@ zero_extendqisi2
 931 002a 9342     		cmp	r3, r2
 932 002c 9DF80960 		ldrb	r6, [sp, #9]	@ zero_extendqisi2
 933 0030 40F09480 		bne	.L69
 934 0034 8020     		movs	r0, #128
 935              	.LVL61:
 936              	.L41:
 937              		.loc 8 365 23 view .LVU191
 938 0036 B8F80430 		ldrh	r3, [r8, #4]
 939              		.loc 8 365 33 view .LVU192
 940 003a 2344     		add	r3, r3, r4
 366:../../libdaisy/src/hid/disp/display.h ****            || Height() < (currentY_ + font.FontHeight))
 941              		.loc 8 366 12 view .LVU193
 942 003c 8342     		cmp	r3, r0
 943 003e 00F38380 		bgt	.L42
 944              		.loc 8 366 21 discriminator 2 view .LVU194
 945 0042 D8F80030 		ldr	r3, [r8]
 946 0046 554A     		ldr	r2, .L77+4
 947 0048 9B68     		ldr	r3, [r3, #8]
 948 004a 9342     		cmp	r3, r2
 949 004c 40F08880 		bne	.L70
 950              		.loc 8 366 21 view .LVU195
 951 0050 4020     		movs	r0, #64
 952              	.L43:
 953              		.loc 8 366 27 discriminator 2 view .LVU196
 954 0052 B8F80620 		ldrh	r2, [r8, #6]
 955              		.loc 8 366 37 discriminator 2 view .LVU197
 956 0056 9319     		adds	r3, r2, r6
 957              		.loc 8 366 27 discriminator 2 view .LVU198
 958 0058 0192     		str	r2, [sp, #4]
 959              		.loc 8 366 12 discriminator 2 view .LVU199
 960 005a 8342     		cmp	r3, r0
 961 005c 74DC     		bgt	.L42
 962              	.LVL62:
 367:../../libdaisy/src/hid/disp/display.h ****         {
 368:../../libdaisy/src/hid/disp/display.h ****             // Not enough space on current line
 369:../../libdaisy/src/hid/disp/display.h ****             return 0;
 370:../../libdaisy/src/hid/disp/display.h ****         }
 371:../../libdaisy/src/hid/disp/display.h **** 
 372:../../libdaisy/src/hid/disp/display.h ****         // Use the font to write
ARM GAS  C:\Users\VINCIU~1\AppData\Local\Temp\ccUTXsQS.s 			page 42


 373:../../libdaisy/src/hid/disp/display.h ****         for(i = 0; i < font.FontHeight; i++)
 963              		.loc 8 373 22 is_stmt 1 view .LVU200
 964 005e 002E     		cmp	r6, #0
 965 0060 00F08980 		beq	.L44
 374:../../libdaisy/src/hid/disp/display.h ****         {
 375:../../libdaisy/src/hid/disp/display.h ****             b = font.data[(ch - 32) * font.FontHeight + i];
 966              		.loc 8 375 37 is_stmt 0 view .LVU201
 967 0064 06FB05F5 		mul	r5, r6, r5
 968 0068 6FF00040 		mvn	r0, #-2147483648
 969              		.loc 8 375 22 view .LVU202
 970 006c 039B     		ldr	r3, [sp, #12]
 971 006e 9646     		mov	lr, r2
 972 0070 2844     		add	r0, r0, r5
 973 0072 2E44     		add	r6, r6, r5
 376:../../libdaisy/src/hid/disp/display.h ****             for(j = 0; j < font.FontWidth; j++)
 377:../../libdaisy/src/hid/disp/display.h ****             {
 378:../../libdaisy/src/hid/disp/display.h ****                 if((b << j) & 0x8000)
 379:../../libdaisy/src/hid/disp/display.h ****                 {
 380:../../libdaisy/src/hid/disp/display.h ****                     ((ChildType*)(this))
 381:../../libdaisy/src/hid/disp/display.h ****                         ->ChildType::DrawPixel(
 382:../../libdaisy/src/hid/disp/display.h ****                             currentX_ + j, (currentY_ + i), on);
 383:../../libdaisy/src/hid/disp/display.h ****                 }
 384:../../libdaisy/src/hid/disp/display.h ****                 else
 385:../../libdaisy/src/hid/disp/display.h ****                 {
 386:../../libdaisy/src/hid/disp/display.h ****                     ((ChildType*)(this))
 387:../../libdaisy/src/hid/disp/display.h ****                         ->ChildType::DrawPixel(
 388:../../libdaisy/src/hid/disp/display.h ****                             currentX_ + j, (currentY_ + i), !on);
 389:../../libdaisy/src/hid/disp/display.h ****                 }
 390:../../libdaisy/src/hid/disp/display.h ****             }
 391:../../libdaisy/src/hid/disp/display.h ****         }
 392:../../libdaisy/src/hid/disp/display.h **** 
 393:../../libdaisy/src/hid/disp/display.h ****         // The current space is now taken
 394:../../libdaisy/src/hid/disp/display.h ****         SetCursor(currentX_ + font.FontWidth, currentY_);
 974              		.loc 8 394 19 view .LVU203
 975 0074 B8F804A0 		ldrh	r10, [r8, #4]
 976 0078 03EB4000 		add	r0, r3, r0, lsl #1
 977 007c 023B     		subs	r3, r3, #2
 978 007e 03EB460B 		add	fp, r3, r6, lsl #1
 979              	.LVL63:
 980              	.L47:
 375:../../libdaisy/src/hid/disp/display.h ****             for(j = 0; j < font.FontWidth; j++)
 981              		.loc 8 375 15 view .LVU204
 982 0082 30F8026F 		ldrh	r6, [r0, #2]!
 983              	.LVL64:
 376:../../libdaisy/src/hid/disp/display.h ****             for(j = 0; j < font.FontWidth; j++)
 984              		.loc 8 376 26 is_stmt 1 view .LVU205
 985 0086 BCB3     		cbz	r4, .L52
 986              	.LBB489:
 987              	.LBB490:
 988              	.LBB491:
 989              	.LBB492:
 990              	.LBB493:
 246:../../libdaisy/src/dev/oled_ssd130x.h ****     }
 991              		.loc 13 246 55 is_stmt 0 view .LVU206
 992 0088 0EF00703 		and	r3, lr, #7
 246:../../libdaisy/src/dev/oled_ssd130x.h ****     }
 993              		.loc 13 246 49 view .LVU207
ARM GAS  C:\Users\VINCIU~1\AppData\Local\Temp\ccUTXsQS.s 			page 43


 994 008c 4FF0010C 		mov	ip, #1
 246:../../libdaisy/src/dev/oled_ssd130x.h ****     }
 995              		.loc 13 246 28 view .LVU208
 996 0090 4FEADE02 		lsr	r2, lr, #3
 997 0094 5146     		mov	r1, r10
 246:../../libdaisy/src/dev/oled_ssd130x.h ****     }
 998              		.loc 13 246 49 view .LVU209
 999 0096 0CFA03FC 		lsl	ip, ip, r3
 1000 009a 0AF11403 		add	r3, r10, #20
 246:../../libdaisy/src/dev/oled_ssd130x.h ****     }
 1001              		.loc 13 246 42 view .LVU210
 1002 009e 4FFA8CFC 		sxtb	ip, ip
 1003 00a2 03EBC212 		add	r2, r3, r2, lsl #7
 1004              	.LBE493:
 1005              	.LBE492:
 1006              	.LBE491:
 1007              	.LBE490:
 1008              	.LBE489:
 376:../../libdaisy/src/hid/disp/display.h ****             for(j = 0; j < font.FontWidth; j++)
 1009              		.loc 8 376 19 view .LVU211
 1010 00a6 0023     		movs	r3, #0
 1011              	.LBB511:
 1012              	.LBB506:
 1013              	.LBB501:
 1014              	.LBB497:
 1015              	.LBB494:
 246:../../libdaisy/src/dev/oled_ssd130x.h ****     }
 1016              		.loc 13 246 42 view .LVU212
 1017 00a8 6FEA0C09 		mvn	r9, ip
 1018 00ac 4244     		add	r2, r2, r8
 1019 00ae 0EE0     		b	.L53
 1020              	.LVL65:
 1021              	.L71:
 246:../../libdaisy/src/dev/oled_ssd130x.h ****     }
 1022              		.loc 13 246 42 view .LVU213
 1023              	.LBE494:
 1024              	.LBE497:
 1025              	.LBE501:
 1026              	.LBE506:
 1027              	.LBE511:
 1028              	.LBB512:
 1029              	.LBI512:
  41:../../libdaisy/src/hid/disp/oled_display.h ****     {
 1030              		.loc 6 41 10 is_stmt 1 view .LVU214
 1031              	.LBB513:
 1032              	.LBI513:
 239:../../libdaisy/src/dev/oled_ssd130x.h ****     {
 1033              		.loc 13 239 10 view .LVU215
 1034              	.LBB514:
 241:../../libdaisy/src/dev/oled_ssd130x.h ****             return;
 1035              		.loc 13 241 9 is_stmt 0 view .LVU216
 1036 00b0 7F29     		cmp	r1, #127
 1037 00b2 07D8     		bhi	.L49
 1038 00b4 BEF13F0F 		cmp	lr, #63
 1039 00b8 04D8     		bhi	.L49
 244:../../libdaisy/src/dev/oled_ssd130x.h ****         else
 1040              		.loc 13 244 42 view .LVU217
ARM GAS  C:\Users\VINCIU~1\AppData\Local\Temp\ccUTXsQS.s 			page 44


 1041 00ba 1578     		ldrb	r5, [r2]	@ zero_extendqisi2
 243:../../libdaisy/src/dev/oled_ssd130x.h ****             buffer_[x + (y / 8) * width] |= (1 << (y % 8));
 1042              		.loc 13 243 9 view .LVU218
 1043 00bc 9FB1     		cbz	r7, .L51
 1044              	.L68:
 243:../../libdaisy/src/dev/oled_ssd130x.h ****             buffer_[x + (y / 8) * width] |= (1 << (y % 8));
 1045              		.loc 13 243 9 view .LVU219
 1046              	.LBE514:
 1047              	.LBE513:
 1048              	.LBE512:
 1049              	.LBB515:
 1050              	.LBB507:
 1051              	.LBB502:
 244:../../libdaisy/src/dev/oled_ssd130x.h ****         else
 1052              		.loc 13 244 42 view .LVU220
 1053 00be 4CEA0505 		orr	r5, ip, r5
 1054 00c2 1570     		strb	r5, [r2]
 1055              	.L49:
 1056              	.LBE502:
 1057              	.LBE507:
 1058              	.LBE515:
 376:../../libdaisy/src/hid/disp/display.h ****             {
 1059              		.loc 8 376 13 is_stmt 1 discriminator 2 view .LVU221
 1060 00c4 0133     		adds	r3, r3, #1
 1061              	.LVL66:
 376:../../libdaisy/src/hid/disp/display.h ****             {
 1062              		.loc 8 376 26 discriminator 2 view .LVU222
 1063 00c6 0132     		adds	r2, r2, #1
 1064 00c8 0131     		adds	r1, r1, #1
 1065 00ca 9C42     		cmp	r4, r3
 1066 00cc 14D0     		beq	.L52
 1067              	.LVL67:
 1068              	.L53:
 378:../../libdaisy/src/hid/disp/display.h ****                 {
 1069              		.loc 8 378 23 is_stmt 0 view .LVU223
 1070 00ce 06FA03F5 		lsl	r5, r6, r3
 378:../../libdaisy/src/hid/disp/display.h ****                 {
 1071              		.loc 8 378 17 view .LVU224
 1072 00d2 2D04     		lsls	r5, r5, #16
 1073 00d4 ECD4     		bmi	.L71
 1074              	.LVL68:
 1075              	.LBB516:
 1076              	.LBI489:
  41:../../libdaisy/src/hid/disp/oled_display.h ****     {
 1077              		.loc 6 41 10 is_stmt 1 view .LVU225
 1078              	.LBB508:
 1079              	.LBI490:
 239:../../libdaisy/src/dev/oled_ssd130x.h ****     {
 1080              		.loc 13 239 10 view .LVU226
 1081              	.LBB503:
 241:../../libdaisy/src/dev/oled_ssd130x.h ****             return;
 1082              		.loc 13 241 9 is_stmt 0 view .LVU227
 1083 00d6 7F29     		cmp	r1, #127
 1084 00d8 F4D8     		bhi	.L49
 1085 00da BEF13F0F 		cmp	lr, #63
 1086 00de F1D8     		bhi	.L49
 244:../../libdaisy/src/dev/oled_ssd130x.h ****         else
ARM GAS  C:\Users\VINCIU~1\AppData\Local\Temp\ccUTXsQS.s 			page 45


 1087              		.loc 13 244 42 view .LVU228
 1088 00e0 1578     		ldrb	r5, [r2]	@ zero_extendqisi2
 243:../../libdaisy/src/dev/oled_ssd130x.h ****             buffer_[x + (y / 8) * width] |= (1 << (y % 8));
 1089              		.loc 13 243 9 view .LVU229
 1090 00e2 002F     		cmp	r7, #0
 1091 00e4 EBD0     		beq	.L68
 1092              	.L51:
 1093              	.LVL69:
 1094              	.LBB498:
 1095              	.LBI492:
 239:../../libdaisy/src/dev/oled_ssd130x.h ****     {
 1096              		.loc 13 239 10 is_stmt 1 view .LVU230
 239:../../libdaisy/src/dev/oled_ssd130x.h ****     {
 1097              		.loc 13 239 10 is_stmt 0 view .LVU231
 1098              	.LBE498:
 1099              	.LBE503:
 1100              	.LBE508:
 1101              	.LBE516:
 376:../../libdaisy/src/hid/disp/display.h ****             {
 1102              		.loc 8 376 13 view .LVU232
 1103 00e6 0133     		adds	r3, r3, #1
 1104              	.LVL70:
 1105              	.LBB517:
 1106              	.LBB509:
 1107              	.LBB504:
 1108              	.LBB499:
 1109              	.LBB495:
 246:../../libdaisy/src/dev/oled_ssd130x.h ****     }
 1110              		.loc 13 246 42 view .LVU233
 1111 00e8 09EA0505 		and	r5, r9, r5
 1112              	.LBE495:
 1113              	.LBE499:
 1114              	.LBE504:
 1115              	.LBE509:
 1116              	.LBE517:
 376:../../libdaisy/src/hid/disp/display.h ****             {
 1117              		.loc 8 376 26 view .LVU234
 1118 00ec 0132     		adds	r2, r2, #1
 1119 00ee 0131     		adds	r1, r1, #1
 1120 00f0 9C42     		cmp	r4, r3
 1121              	.LBB518:
 1122              	.LBB510:
 1123              	.LBB505:
 1124              	.LBB500:
 1125              	.LBB496:
 246:../../libdaisy/src/dev/oled_ssd130x.h ****     }
 1126              		.loc 13 246 42 view .LVU235
 1127 00f2 02F8015C 		strb	r5, [r2, #-1]
 246:../../libdaisy/src/dev/oled_ssd130x.h ****     }
 1128              		.loc 13 246 42 view .LVU236
 1129              	.LBE496:
 1130              	.LBE500:
 1131              	.LBE505:
 1132              	.LBE510:
 1133              	.LBE518:
 376:../../libdaisy/src/hid/disp/display.h ****             {
 1134              		.loc 8 376 13 is_stmt 1 view .LVU237
ARM GAS  C:\Users\VINCIU~1\AppData\Local\Temp\ccUTXsQS.s 			page 46


 1135              	.LVL71:
 376:../../libdaisy/src/hid/disp/display.h ****             {
 1136              		.loc 8 376 26 view .LVU238
 1137 00f6 EAD1     		bne	.L53
 1138              	.LVL72:
 1139              	.L52:
 373:../../libdaisy/src/hid/disp/display.h ****         {
 1140              		.loc 8 373 9 view .LVU239
 373:../../libdaisy/src/hid/disp/display.h ****         {
 1141              		.loc 8 373 22 view .LVU240
 1142 00f8 5845     		cmp	r0, fp
 1143 00fa 0EF1010E 		add	lr, lr, #1
 1144 00fe C0D1     		bne	.L47
 1145              	.LVL73:
 1146              	.L46:
 1147              	.LBB519:
 1148              	.LBB520:
 133:../../libdaisy/src/hid/disp/display.h ****         currentY_ = (y >= Height()) ? Height() - 1 : y;
 1149              		.loc 8 133 33 is_stmt 0 view .LVU241
 1150 0100 D8F80030 		ldr	r3, [r8]
 1151              	.LBE520:
 1152              	.LBE519:
 1153              		.loc 8 394 18 view .LVU242
 1154 0104 5444     		add	r4, r4, r10
 1155 0106 2449     		ldr	r1, .L77
 1156              	.LBB526:
 1157              	.LBB521:
 133:../../libdaisy/src/hid/disp/display.h ****         currentY_ = (y >= Height()) ? Height() - 1 : y;
 1158              		.loc 8 133 33 view .LVU243
 1159 0108 DA68     		ldr	r2, [r3, #12]
 1160              	.LBE521:
 1161              	.LBE526:
 1162              		.loc 8 394 18 view .LVU244
 1163 010a A4B2     		uxth	r4, r4
 1164              	.LVL74:
 1165              	.LBB527:
 1166              	.LBI519:
 131:../../libdaisy/src/hid/disp/display.h ****     {
 1167              		.loc 8 131 10 is_stmt 1 view .LVU245
 1168              	.LBB522:
 133:../../libdaisy/src/hid/disp/display.h ****         currentY_ = (y >= Height()) ? Height() - 1 : y;
 1169              		.loc 8 133 9 view .LVU246
 1170 010c 8A42     		cmp	r2, r1
 1171 010e 2DD1     		bne	.L72
 133:../../libdaisy/src/hid/disp/display.h ****         currentY_ = (y >= Height()) ? Height() - 1 : y;
 1172              		.loc 8 133 33 is_stmt 0 view .LVU247
 1173 0110 8020     		movs	r0, #128
 1174              	.L54:
 133:../../libdaisy/src/hid/disp/display.h ****         currentY_ = (y >= Height()) ? Height() - 1 : y;
 1175              		.loc 8 133 19 view .LVU248
 1176 0112 8442     		cmp	r4, r0
 1177 0114 1CD2     		bcs	.L73
 1178              	.LVL75:
 1179              	.L55:
 134:../../libdaisy/src/hid/disp/display.h ****     }
 1180              		.loc 8 134 34 view .LVU249
 1181 0116 9B68     		ldr	r3, [r3, #8]
ARM GAS  C:\Users\VINCIU~1\AppData\Local\Temp\ccUTXsQS.s 			page 47


 1182 0118 204A     		ldr	r2, .L77+4
 133:../../libdaisy/src/hid/disp/display.h ****         currentY_ = (y >= Height()) ? Height() - 1 : y;
 1183              		.loc 8 133 19 view .LVU250
 1184 011a A8F80440 		strh	r4, [r8, #4]	@ movhi
 134:../../libdaisy/src/hid/disp/display.h ****     }
 1185              		.loc 8 134 9 is_stmt 1 view .LVU251
 1186 011e 9342     		cmp	r3, r2
 1187 0120 21D1     		bne	.L74
 134:../../libdaisy/src/hid/disp/display.h ****     }
 1188              		.loc 8 134 34 is_stmt 0 view .LVU252
 1189 0122 4020     		movs	r0, #64
 1190              	.L57:
 134:../../libdaisy/src/hid/disp/display.h ****     }
 1191              		.loc 8 134 19 view .LVU253
 1192 0124 019B     		ldr	r3, [sp, #4]
 1193 0126 8342     		cmp	r3, r0
 1194 0128 07D3     		bcc	.L58
 134:../../libdaisy/src/hid/disp/display.h ****     }
 1195              		.loc 8 134 46 view .LVU254
 1196 012a D8F80030 		ldr	r3, [r8]
 1197 012e 1B4A     		ldr	r2, .L77+4
 1198 0130 9B68     		ldr	r3, [r3, #8]
 1199 0132 9342     		cmp	r3, r2
 1200 0134 29D1     		bne	.L75
 1201 0136 3F23     		movs	r3, #63
 1202 0138 0193     		str	r3, [sp, #4]
 1203              	.LVL76:
 1204              	.L58:
 134:../../libdaisy/src/hid/disp/display.h ****     }
 1205              		.loc 8 134 19 view .LVU255
 1206 013a DDE90003 		ldrd	r0, r3, [sp]
 1207 013e A8F80630 		strh	r3, [r8, #6]	@ movhi
 1208              	.LVL77:
 134:../../libdaisy/src/hid/disp/display.h ****     }
 1209              		.loc 8 134 19 view .LVU256
 1210              	.LBE522:
 1211              	.LBE527:
 395:../../libdaisy/src/hid/disp/display.h **** 
 396:../../libdaisy/src/hid/disp/display.h ****         // Return written char for validation
 397:../../libdaisy/src/hid/disp/display.h ****         return ch;
 398:../../libdaisy/src/hid/disp/display.h ****     }
 1212              		.loc 8 398 5 view .LVU257
 1213 0142 05B0     		add	sp, sp, #20
 1214              		.cfi_remember_state
 1215              		.cfi_def_cfa_offset 36
 1216              		@ sp needed
 1217 0144 BDE8F08F 		pop	{r4, r5, r6, r7, r8, r9, r10, fp, pc}
 1218              	.LVL78:
 1219              	.L42:
 1220              		.cfi_restore_state
 362:../../libdaisy/src/hid/disp/display.h **** 
 1221              		.loc 8 362 20 view .LVU258
 1222 0148 0020     		movs	r0, #0
 1223              		.loc 8 398 5 view .LVU259
 1224 014a 05B0     		add	sp, sp, #20
 1225              		.cfi_remember_state
 1226              		.cfi_def_cfa_offset 36
ARM GAS  C:\Users\VINCIU~1\AppData\Local\Temp\ccUTXsQS.s 			page 48


 1227              		@ sp needed
 1228 014c BDE8F08F 		pop	{r4, r5, r6, r7, r8, r9, r10, fp, pc}
 1229              	.LVL79:
 1230              	.L73:
 1231              		.cfi_restore_state
 1232              	.LBB528:
 1233              	.LBB523:
 133:../../libdaisy/src/hid/disp/display.h ****         currentY_ = (y >= Height()) ? Height() - 1 : y;
 1234              		.loc 8 133 44 view .LVU260
 1235 0150 DA68     		ldr	r2, [r3, #12]
 1236 0152 1149     		ldr	r1, .L77
 1237 0154 8A42     		cmp	r2, r1
 1238 0156 11D1     		bne	.L76
 1239 0158 7F24     		movs	r4, #127
 1240              	.LVL80:
 133:../../libdaisy/src/hid/disp/display.h ****         currentY_ = (y >= Height()) ? Height() - 1 : y;
 1241              		.loc 8 133 44 view .LVU261
 1242 015a DCE7     		b	.L55
 1243              	.LVL81:
 1244              	.L69:
 133:../../libdaisy/src/hid/disp/display.h ****         currentY_ = (y >= Height()) ? Height() - 1 : y;
 1245              		.loc 8 133 44 view .LVU262
 1246              	.LBE523:
 1247              	.LBE528:
 365:../../libdaisy/src/hid/disp/display.h ****            || Height() < (currentY_ + font.FontHeight))
 1248              		.loc 8 365 17 view .LVU263
 1249 015c 9847     		blx	r3
 1250              	.LVL82:
 365:../../libdaisy/src/hid/disp/display.h ****            || Height() < (currentY_ + font.FontHeight))
 1251              		.loc 8 365 17 view .LVU264
 1252 015e 6AE7     		b	.L41
 1253              	.L70:
 366:../../libdaisy/src/hid/disp/display.h ****         {
 1254              		.loc 8 366 21 discriminator 2 view .LVU265
 1255 0160 4046     		mov	r0, r8
 1256 0162 9847     		blx	r3
 1257              	.LVL83:
 1258 0164 75E7     		b	.L43
 1259              	.LVL84:
 1260              	.L74:
 1261              	.LBB529:
 1262              	.LBB524:
 134:../../libdaisy/src/hid/disp/display.h ****     }
 1263              		.loc 8 134 33 view .LVU266
 1264 0166 4046     		mov	r0, r8
 1265 0168 9847     		blx	r3
 1266              	.LVL85:
 1267 016a DBE7     		b	.L57
 1268              	.LVL86:
 1269              	.L72:
 133:../../libdaisy/src/hid/disp/display.h ****         currentY_ = (y >= Height()) ? Height() - 1 : y;
 1270              		.loc 8 133 32 view .LVU267
 1271 016c 4046     		mov	r0, r8
 1272 016e 9047     		blx	r2
 1273              	.LVL87:
 133:../../libdaisy/src/hid/disp/display.h ****         currentY_ = (y >= Height()) ? Height() - 1 : y;
 1274              		.loc 8 133 44 view .LVU268
ARM GAS  C:\Users\VINCIU~1\AppData\Local\Temp\ccUTXsQS.s 			page 49


 1275 0170 D8F80030 		ldr	r3, [r8]
 1276 0174 CDE7     		b	.L54
 1277              	.LVL88:
 1278              	.L44:
 133:../../libdaisy/src/hid/disp/display.h ****         currentY_ = (y >= Height()) ? Height() - 1 : y;
 1279              		.loc 8 133 44 view .LVU269
 1280              	.LBE524:
 1281              	.LBE529:
 394:../../libdaisy/src/hid/disp/display.h **** 
 1282              		.loc 8 394 19 view .LVU270
 1283 0176 B8F804A0 		ldrh	r10, [r8, #4]
 1284 017a C1E7     		b	.L46
 1285              	.LVL89:
 1286              	.L76:
 1287              	.LBB530:
 1288              	.LBB525:
 133:../../libdaisy/src/hid/disp/display.h ****         currentY_ = (y >= Height()) ? Height() - 1 : y;
 1289              		.loc 8 133 43 view .LVU271
 1290 017c 4046     		mov	r0, r8
 1291 017e 9047     		blx	r2
 1292              	.LVL90:
 133:../../libdaisy/src/hid/disp/display.h ****         currentY_ = (y >= Height()) ? Height() - 1 : y;
 1293              		.loc 8 133 19 view .LVU272
 1294 0180 0138     		subs	r0, r0, #1
 134:../../libdaisy/src/hid/disp/display.h ****     }
 1295              		.loc 8 134 34 view .LVU273
 1296 0182 D8F80030 		ldr	r3, [r8]
 133:../../libdaisy/src/hid/disp/display.h ****         currentY_ = (y >= Height()) ? Height() - 1 : y;
 1297              		.loc 8 133 19 view .LVU274
 1298 0186 84B2     		uxth	r4, r0
 1299              	.LVL91:
 133:../../libdaisy/src/hid/disp/display.h ****         currentY_ = (y >= Height()) ? Height() - 1 : y;
 1300              		.loc 8 133 19 view .LVU275
 1301 0188 C5E7     		b	.L55
 1302              	.L75:
 134:../../libdaisy/src/hid/disp/display.h ****     }
 1303              		.loc 8 134 45 view .LVU276
 1304 018a 4046     		mov	r0, r8
 1305 018c 9847     		blx	r3
 1306              	.LVL92:
 134:../../libdaisy/src/hid/disp/display.h ****     }
 1307              		.loc 8 134 19 view .LVU277
 1308 018e 0138     		subs	r0, r0, #1
 1309 0190 83B2     		uxth	r3, r0
 1310 0192 0193     		str	r3, [sp, #4]
 1311              	.LVL93:
 134:../../libdaisy/src/hid/disp/display.h ****     }
 1312              		.loc 8 134 19 view .LVU278
 1313 0194 D1E7     		b	.L58
 1314              	.L78:
 1315 0196 00BF     		.align	2
 1316              	.L77:
 1317 0198 00000000 		.word	_ZNK5daisy11OledDisplayINS_13SSD130xDriverILj128ELj64ENS_24SSD130x4WireSpiTransportEEEE5Widt
 1318 019c 00000000 		.word	_ZNK5daisy11OledDisplayINS_13SSD130xDriverILj128ELj64ENS_24SSD130x4WireSpiTransportEEEE6Heig
 1319              	.LBE525:
 1320              	.LBE530:
 1321              		.cfi_endproc
ARM GAS  C:\Users\VINCIU~1\AppData\Local\Temp\ccUTXsQS.s 			page 50


 1322              	.LFE4648:
 1324              		.section	.text._ZN5daisy25OneBitGraphicsDisplayImplINS_11OledDisplayINS_13SSD130xDriverILj128ELj64
 1325              		.align	1
 1326              		.p2align 2,,3
 1327              		.weak	_ZN5daisy25OneBitGraphicsDisplayImplINS_11OledDisplayINS_13SSD130xDriverILj128ELj64ENS_24SSD
 1328              		.syntax unified
 1329              		.thumb
 1330              		.thumb_func
 1331              		.fpu fpv5-d16
 1333              	_ZN5daisy25OneBitGraphicsDisplayImplINS_11OledDisplayINS_13SSD130xDriverILj128ELj64ENS_24SSD130x4Wi
 1334              	.LVL94:
 1335              	.LFB4649:
 399:../../libdaisy/src/hid/disp/display.h **** 
 400:../../libdaisy/src/hid/disp/display.h ****     char WriteString(const char* str, FontDef font, bool on) override
 1336              		.loc 8 400 10 is_stmt 1 view -0
 1337              		.cfi_startproc
 1338              		@ args = 4, pretend = 0, frame = 8
 1339              		@ frame_needed = 0, uses_anonymous_args = 0
 1340              		.loc 8 400 10 is_stmt 0 view .LVU280
 1341 0000 F0B5     		push	{r4, r5, r6, r7, lr}
 1342              		.cfi_def_cfa_offset 20
 1343              		.cfi_offset 4, -20
 1344              		.cfi_offset 5, -16
 1345              		.cfi_offset 6, -12
 1346              		.cfi_offset 7, -8
 1347              		.cfi_offset 14, -4
 1348 0002 85B0     		sub	sp, sp, #20
 1349              		.cfi_def_cfa_offset 40
 1350              		.loc 8 400 10 view .LVU281
 1351 0004 0C46     		mov	r4, r1
 401:../../libdaisy/src/hid/disp/display.h ****     {
 402:../../libdaisy/src/hid/disp/display.h ****         // Write until null-byte
 403:../../libdaisy/src/hid/disp/display.h ****         while(*str)
 1352              		.loc 8 403 9 is_stmt 1 view .LVU282
 1353 0006 0978     		ldrb	r1, [r1]	@ zero_extendqisi2
 1354              	.LVL95:
 400:../../libdaisy/src/hid/disp/display.h ****     {
 1355              		.loc 8 400 10 is_stmt 0 view .LVU283
 1356 0008 02AD     		add	r5, sp, #8
 1357 000a 9DF82870 		ldrb	r7, [sp, #40]	@ zero_extendqisi2
 1358 000e 85E80C00 		stm	r5, {r2, r3}
 1359              		.loc 8 403 9 view .LVU284
 1360 0012 81B1     		cbz	r1, .L82
 1361 0014 0646     		mov	r6, r0
 1362 0016 02E0     		b	.L83
 1363              	.LVL96:
 1364              	.L89:
 1365              		.loc 8 403 9 view .LVU285
 1366 0018 14F8011F 		ldrb	r1, [r4, #1]!	@ zero_extendqisi2
 1367              	.LVL97:
 1368              		.loc 8 403 9 view .LVU286
 1369 001c 59B1     		cbz	r1, .L82
 1370              	.LVL98:
 1371              	.L83:
 404:../../libdaisy/src/hid/disp/display.h ****         {
 405:../../libdaisy/src/hid/disp/display.h ****             if(((ChildType*)(this))->ChildType::WriteChar(*str, font, on)
 1372              		.loc 8 405 58 view .LVU287
ARM GAS  C:\Users\VINCIU~1\AppData\Local\Temp\ccUTXsQS.s 			page 51


 1373 001e 3046     		mov	r0, r6
 1374 0020 95E80C00 		ldm	r5, {r2, r3}
 1375 0024 0097     		str	r7, [sp]
 1376 0026 FFF7FEFF 		bl	_ZN5daisy25OneBitGraphicsDisplayImplINS_11OledDisplayINS_13SSD130xDriverILj128ELj64ENS_24SSD130
 1377              	.LVL99:
 403:../../libdaisy/src/hid/disp/display.h ****         {
 1378              		.loc 8 403 9 is_stmt 1 view .LVU288
 406:../../libdaisy/src/hid/disp/display.h ****                != *str)
 1379              		.loc 8 406 16 is_stmt 0 view .LVU289
 1380 002a 2378     		ldrb	r3, [r4]	@ zero_extendqisi2
 405:../../libdaisy/src/hid/disp/display.h ****                != *str)
 1381              		.loc 8 405 13 view .LVU290
 1382 002c 9842     		cmp	r0, r3
 1383 002e F3D0     		beq	.L89
 407:../../libdaisy/src/hid/disp/display.h ****             {
 408:../../libdaisy/src/hid/disp/display.h ****                 // Char could not be written
 409:../../libdaisy/src/hid/disp/display.h ****                 return *str;
 410:../../libdaisy/src/hid/disp/display.h ****             }
 411:../../libdaisy/src/hid/disp/display.h **** 
 412:../../libdaisy/src/hid/disp/display.h ****             // Next char
 413:../../libdaisy/src/hid/disp/display.h ****             str++;
 414:../../libdaisy/src/hid/disp/display.h ****         }
 415:../../libdaisy/src/hid/disp/display.h **** 
 416:../../libdaisy/src/hid/disp/display.h ****         // Everything ok
 417:../../libdaisy/src/hid/disp/display.h ****         return *str;
 418:../../libdaisy/src/hid/disp/display.h ****     }
 1384              		.loc 8 418 5 view .LVU291
 1385 0030 1846     		mov	r0, r3
 1386 0032 05B0     		add	sp, sp, #20
 1387              		.cfi_remember_state
 1388              		.cfi_def_cfa_offset 20
 1389              		@ sp needed
 1390 0034 F0BD     		pop	{r4, r5, r6, r7, pc}
 1391              	.LVL100:
 1392              	.L82:
 1393              		.cfi_restore_state
 400:../../libdaisy/src/hid/disp/display.h ****     {
 1394              		.loc 8 400 10 view .LVU292
 1395 0036 0023     		movs	r3, #0
 1396              		.loc 8 418 5 view .LVU293
 1397 0038 1846     		mov	r0, r3
 1398 003a 05B0     		add	sp, sp, #20
 1399              		.cfi_def_cfa_offset 20
 1400              		@ sp needed
 1401 003c F0BD     		pop	{r4, r5, r6, r7, pc}
 1402              		.loc 8 418 5 view .LVU294
 1403              		.cfi_endproc
 1404              	.LFE4649:
 1406 003e 00BF     		.section	.text._ZN5daisy11OledDisplayINS_13SSD130xDriverILj128ELj64ENS_24SSD130x4WireSpiTransportE
 1407              		.align	1
 1408              		.p2align 2,,3
 1409              		.weak	_ZN5daisy11OledDisplayINS_13SSD130xDriverILj128ELj64ENS_24SSD130x4WireSpiTransportEEEE9DrawP
 1410              		.syntax unified
 1411              		.thumb
 1412              		.thumb_func
 1413              		.fpu fpv5-d16
 1415              	_ZN5daisy11OledDisplayINS_13SSD130xDriverILj128ELj64ENS_24SSD130x4WireSpiTransportEEEE9DrawPixelEjj
ARM GAS  C:\Users\VINCIU~1\AppData\Local\Temp\ccUTXsQS.s 			page 52


 1416              	.LVL101:
 1417              	.LFB4644:
  41:../../libdaisy/src/hid/disp/oled_display.h ****     {
 1418              		.loc 6 41 10 is_stmt 1 view -0
 1419              		.cfi_startproc
 1420              		@ args = 0, pretend = 0, frame = 0
 1421              		@ frame_needed = 0, uses_anonymous_args = 0
 1422              		@ link register save eliminated.
 1423              	.LBB535:
 1424              	.LBI535:
 239:../../libdaisy/src/dev/oled_ssd130x.h ****     {
 1425              		.loc 13 239 10 view .LVU296
 1426              	.LBB536:
 241:../../libdaisy/src/dev/oled_ssd130x.h ****             return;
 1427              		.loc 13 241 9 is_stmt 0 view .LVU297
 1428 0000 7F29     		cmp	r1, #127
 1429 0002 1ED8     		bhi	.L90
 1430 0004 3F2A     		cmp	r2, #63
 1431 0006 1CD8     		bhi	.L90
 243:../../libdaisy/src/dev/oled_ssd130x.h ****             buffer_[x + (y / 8) * width] |= (1 << (y % 8));
 1432              		.loc 13 243 9 view .LVU298
 1433 0008 6BB1     		cbz	r3, .L92
 244:../../libdaisy/src/dev/oled_ssd130x.h ****         else
 1434              		.loc 13 244 28 view .LVU299
 1435 000a D308     		lsrs	r3, r2, #3
 1436              	.LVL102:
 244:../../libdaisy/src/dev/oled_ssd130x.h ****         else
 1437              		.loc 13 244 48 view .LVU300
 1438 000c 4FF0010C 		mov	ip, #1
 244:../../libdaisy/src/dev/oled_ssd130x.h ****         else
 1439              		.loc 13 244 54 view .LVU301
 1440 0010 02F00702 		and	r2, r2, #7
 1441              	.LVL103:
 244:../../libdaisy/src/dev/oled_ssd130x.h ****         else
 1442              		.loc 13 244 42 view .LVU302
 1443 0014 01EBC313 		add	r3, r1, r3, lsl #7
 244:../../libdaisy/src/dev/oled_ssd130x.h ****         else
 1444              		.loc 13 244 48 view .LVU303
 1445 0018 0CFA02F2 		lsl	r2, ip, r2
 244:../../libdaisy/src/dev/oled_ssd130x.h ****         else
 1446              		.loc 13 244 42 view .LVU304
 1447 001c C118     		adds	r1, r0, r3
 1448              	.LVL104:
 244:../../libdaisy/src/dev/oled_ssd130x.h ****         else
 1449              		.loc 13 244 42 view .LVU305
 1450 001e 0B7D     		ldrb	r3, [r1, #20]	@ zero_extendqisi2
 1451 0020 1A43     		orrs	r2, r2, r3
 1452 0022 0A75     		strb	r2, [r1, #20]
 1453 0024 7047     		bx	lr
 1454              	.LVL105:
 1455              	.L92:
 1456              	.LBB537:
 1457              	.LBI537:
 239:../../libdaisy/src/dev/oled_ssd130x.h ****     {
 1458              		.loc 13 239 10 is_stmt 1 view .LVU306
 1459              	.LBB538:
 246:../../libdaisy/src/dev/oled_ssd130x.h ****     }
ARM GAS  C:\Users\VINCIU~1\AppData\Local\Temp\ccUTXsQS.s 			page 53


 1460              		.loc 13 246 28 is_stmt 0 view .LVU307
 1461 0026 D308     		lsrs	r3, r2, #3
 1462              	.LVL106:
 246:../../libdaisy/src/dev/oled_ssd130x.h ****     }
 1463              		.loc 13 246 49 view .LVU308
 1464 0028 4FF0010C 		mov	ip, #1
 246:../../libdaisy/src/dev/oled_ssd130x.h ****     }
 1465              		.loc 13 246 55 view .LVU309
 1466 002c 02F00702 		and	r2, r2, #7
 1467              	.LVL107:
 246:../../libdaisy/src/dev/oled_ssd130x.h ****     }
 1468              		.loc 13 246 42 view .LVU310
 1469 0030 01EBC313 		add	r3, r1, r3, lsl #7
 246:../../libdaisy/src/dev/oled_ssd130x.h ****     }
 1470              		.loc 13 246 49 view .LVU311
 1471 0034 0CFA02FC 		lsl	ip, ip, r2
 246:../../libdaisy/src/dev/oled_ssd130x.h ****     }
 1472              		.loc 13 246 42 view .LVU312
 1473 0038 C118     		adds	r1, r0, r3
 1474              	.LVL108:
 246:../../libdaisy/src/dev/oled_ssd130x.h ****     }
 1475              		.loc 13 246 42 view .LVU313
 1476 003a 0A7D     		ldrb	r2, [r1, #20]	@ zero_extendqisi2
 1477 003c 22EA0C02 		bic	r2, r2, ip
 1478 0040 0A75     		strb	r2, [r1, #20]
 1479              	.LVL109:
 1480              	.L90:
 246:../../libdaisy/src/dev/oled_ssd130x.h ****     }
 1481              		.loc 13 246 42 view .LVU314
 1482              	.LBE538:
 1483              	.LBE537:
 1484              	.LBE536:
 1485              	.LBE535:
  44:../../libdaisy/src/hid/disp/oled_display.h **** 
 1486              		.loc 6 44 5 view .LVU315
 1487 0042 7047     		bx	lr
 1488              		.cfi_endproc
 1489              	.LFE4644:
 1491              		.section	.text._ZN5daisy25OneBitGraphicsDisplayImplINS_11OledDisplayINS_13SSD130xDriverILj128ELj64
 1492              		.align	1
 1493              		.p2align 2,,3
 1494              		.weak	_ZN5daisy25OneBitGraphicsDisplayImplINS_11OledDisplayINS_13SSD130xDriverILj128ELj64ENS_24SSD
 1495              		.syntax unified
 1496              		.thumb
 1497              		.thumb_func
 1498              		.fpu fpv5-d16
 1500              	_ZN5daisy25OneBitGraphicsDisplayImplINS_11OledDisplayINS_13SSD130xDriverILj128ELj64ENS_24SSD130x4Wi
 1501              	.LVL110:
 1502              	.LFB4645:
 181:../../libdaisy/src/hid/disp/display.h ****                   uint_fast8_t y1,
 1503              		.loc 8 181 10 is_stmt 1 view -0
 1504              		.cfi_startproc
 1505              		@ args = 8, pretend = 0, frame = 8
 1506              		@ frame_needed = 0, uses_anonymous_args = 0
 181:../../libdaisy/src/hid/disp/display.h ****                   uint_fast8_t y1,
 1507              		.loc 8 181 10 is_stmt 0 view .LVU317
 1508 0000 2DE9F04F 		push	{r4, r5, r6, r7, r8, r9, r10, fp, lr}
ARM GAS  C:\Users\VINCIU~1\AppData\Local\Temp\ccUTXsQS.s 			page 54


 1509              		.cfi_def_cfa_offset 36
 1510              		.cfi_offset 4, -36
 1511              		.cfi_offset 5, -32
 1512              		.cfi_offset 6, -28
 1513              		.cfi_offset 7, -24
 1514              		.cfi_offset 8, -20
 1515              		.cfi_offset 9, -16
 1516              		.cfi_offset 10, -12
 1517              		.cfi_offset 11, -8
 1518              		.cfi_offset 14, -4
 1519 0004 83B0     		sub	sp, sp, #12
 1520              		.cfi_def_cfa_offset 48
 187:../../libdaisy/src/hid/disp/display.h ****         int_fast16_t deltaY = abs((int_fast16_t)y2 - (int_fast16_t)y1);
 1521              		.loc 8 187 52 view .LVU318
 1522 0006 5C1A     		subs	r4, r3, r1
 181:../../libdaisy/src/hid/disp/display.h ****                   uint_fast8_t y1,
 1523              		.loc 8 181 10 view .LVU319
 1524 0008 0C9E     		ldr	r6, [sp, #48]
 187:../../libdaisy/src/hid/disp/display.h ****         int_fast16_t deltaY = abs((int_fast16_t)y2 - (int_fast16_t)y1);
 1525              		.loc 8 187 22 view .LVU320
 1526 000a 002C     		cmp	r4, #0
 181:../../libdaisy/src/hid/disp/display.h ****                   uint_fast8_t y1,
 1527              		.loc 8 181 10 view .LVU321
 1528 000c 9DF83490 		ldrb	r9, [sp, #52]	@ zero_extendqisi2
 188:../../libdaisy/src/hid/disp/display.h ****         int_fast16_t signX  = ((x1 < x2) ? 1 : -1);
 1529              		.loc 8 188 52 view .LVU322
 1530 0010 A6EB0208 		sub	r8, r6, r2
 187:../../libdaisy/src/hid/disp/display.h ****         int_fast16_t deltaY = abs((int_fast16_t)y2 - (int_fast16_t)y1);
 1531              		.loc 8 187 22 view .LVU323
 1532 0014 B8BF     		it	lt
 1533 0016 6442     		rsblt	r4, r4, #0
 1534              	.LVL111:
 188:../../libdaisy/src/hid/disp/display.h ****         int_fast16_t signX  = ((x1 < x2) ? 1 : -1);
 1535              		.loc 8 188 22 view .LVU324
 1536 0018 B8F1000F 		cmp	r8, #0
 1537 001c B8BF     		it	lt
 1538 001e C8F10008 		rsblt	r8, r8, #0
 1539              	.LVL112:
 189:../../libdaisy/src/hid/disp/display.h ****         int_fast16_t signY  = ((y1 < y2) ? 1 : -1);
 1540              		.loc 8 189 42 view .LVU325
 1541 0022 8B42     		cmp	r3, r1
 1542 0024 8CBF     		ite	hi
 1543 0026 4FF0010A 		movhi	r10, #1
 1544 002a 4FF0FF3A 		movls	r10, #-1
 1545              	.LVL113:
 190:../../libdaisy/src/hid/disp/display.h ****         int_fast16_t error  = deltaX - deltaY;
 1546              		.loc 8 190 42 view .LVU326
 1547 002e 9642     		cmp	r6, r2
 191:../../libdaisy/src/hid/disp/display.h ****         int_fast16_t error2;
 1548              		.loc 8 191 22 view .LVU327
 1549 0030 A4EB080C 		sub	ip, r4, r8
 190:../../libdaisy/src/hid/disp/display.h ****         int_fast16_t error  = deltaX - deltaY;
 1550              		.loc 8 190 42 view .LVU328
 1551 0034 51D8     		bhi	.L95
 1552              	.LVL114:
 1553              	.LBB555:
 1554              	.LBI555:
ARM GAS  C:\Users\VINCIU~1\AppData\Local\Temp\ccUTXsQS.s 			page 55


  41:../../libdaisy/src/hid/disp/oled_display.h ****     {
 1555              		.loc 6 41 10 is_stmt 1 discriminator 4 view .LVU329
 1556              	.LBB556:
 1557              	.LBI556:
 239:../../libdaisy/src/dev/oled_ssd130x.h ****     {
 1558              		.loc 13 239 10 discriminator 4 view .LVU330
 1559              	.LBE556:
 1560              	.LBE555:
 190:../../libdaisy/src/hid/disp/display.h ****         int_fast16_t error  = deltaX - deltaY;
 1561              		.loc 8 190 42 is_stmt 0 discriminator 4 view .LVU331
 1562 0036 4FF0FF35 		mov	r5, #-1
 1563              	.LBB572:
 1564              	.LBB566:
 1565              	.LBB557:
 241:../../libdaisy/src/dev/oled_ssd130x.h ****             return;
 1566              		.loc 13 241 9 discriminator 4 view .LVU332
 1567 003a 7F2B     		cmp	r3, #127
 1568              	.LBE557:
 1569              	.LBE566:
 1570              	.LBE572:
 190:../../libdaisy/src/hid/disp/display.h ****         int_fast16_t error  = deltaX - deltaY;
 1571              		.loc 8 190 42 discriminator 4 view .LVU333
 1572 003c 0195     		str	r5, [sp, #4]
 1573              	.LBB573:
 1574              	.LBB567:
 1575              	.LBB562:
 241:../../libdaisy/src/dev/oled_ssd130x.h ****             return;
 1576              		.loc 13 241 9 discriminator 4 view .LVU334
 1577 003e 12D8     		bhi	.L96
 1578 0040 3F2E     		cmp	r6, #63
 1579 0042 10D8     		bhi	.L96
 1580              	.LVL115:
 1581              	.L107:
 244:../../libdaisy/src/dev/oled_ssd130x.h ****         else
 1582              		.loc 13 244 28 view .LVU335
 1583 0044 F508     		lsrs	r5, r6, #3
 244:../../libdaisy/src/dev/oled_ssd130x.h ****         else
 1584              		.loc 13 244 54 view .LVU336
 1585 0046 06F0070E 		and	lr, r6, #7
 244:../../libdaisy/src/dev/oled_ssd130x.h ****         else
 1586              		.loc 13 244 48 view .LVU337
 1587 004a 0127     		movs	r7, #1
 244:../../libdaisy/src/dev/oled_ssd130x.h ****         else
 1588              		.loc 13 244 42 view .LVU338
 1589 004c 03EBC515 		add	r5, r3, r5, lsl #7
 1590 0050 0544     		add	r5, r5, r0
 243:../../libdaisy/src/dev/oled_ssd130x.h ****             buffer_[x + (y / 8) * width] |= (1 << (y % 8));
 1591              		.loc 13 243 9 view .LVU339
 1592 0052 B9F1000F 		cmp	r9, #0
 1593 0056 47D0     		beq	.L97
 244:../../libdaisy/src/dev/oled_ssd130x.h ****         else
 1594              		.loc 13 244 48 view .LVU340
 1595 0058 07FA0EF7 		lsl	r7, r7, lr
 244:../../libdaisy/src/dev/oled_ssd130x.h ****         else
 1596              		.loc 13 244 42 view .LVU341
 1597 005c 95F814E0 		ldrb	lr, [r5, #20]	@ zero_extendqisi2
 1598 0060 47EA0E07 		orr	r7, r7, lr
ARM GAS  C:\Users\VINCIU~1\AppData\Local\Temp\ccUTXsQS.s 			page 56


 1599 0064 2F75     		strb	r7, [r5, #20]
 1600              	.LVL116:
 1601              	.L96:
 244:../../libdaisy/src/dev/oled_ssd130x.h ****         else
 1602              		.loc 13 244 42 view .LVU342
 1603              	.LBE562:
 1604              	.LBE567:
 1605              	.LBE573:
 199:../../libdaisy/src/hid/disp/display.h ****         {
 1606              		.loc 8 199 26 is_stmt 1 view .LVU343
 1607 0066 9642     		cmp	r6, r2
 1608 0068 01D1     		bne	.L100
 1609              	.L119:
 199:../../libdaisy/src/hid/disp/display.h ****         {
 1610              		.loc 8 199 26 is_stmt 0 view .LVU344
 1611 006a 8B42     		cmp	r3, r1
 1612 006c 29D0     		beq	.L93
 1613              	.L100:
 1614              	.LVL117:
 203:../../libdaisy/src/hid/disp/display.h ****             {
 1615              		.loc 8 203 23 view .LVU345
 1616 006e C8F10007 		rsb	r7, r8, #0
 1617              	.L102:
 1618              	.LVL118:
 1619              	.LBB574:
 1620              	.LBI574:
  41:../../libdaisy/src/hid/disp/oled_display.h ****     {
 1621              		.loc 6 41 10 is_stmt 1 view .LVU346
 1622              	.LBB575:
 1623              	.LBI575:
 239:../../libdaisy/src/dev/oled_ssd130x.h ****     {
 1624              		.loc 13 239 10 view .LVU347
 1625              	.LBB576:
 241:../../libdaisy/src/dev/oled_ssd130x.h ****             return;
 1626              		.loc 13 241 9 is_stmt 0 view .LVU348
 1627 0072 7F29     		cmp	r1, #127
 1628 0074 14D8     		bhi	.L103
 1629 0076 3F2A     		cmp	r2, #63
 1630 0078 12D8     		bhi	.L103
 244:../../libdaisy/src/dev/oled_ssd130x.h ****         else
 1631              		.loc 13 244 28 view .LVU349
 1632 007a D508     		lsrs	r5, r2, #3
 244:../../libdaisy/src/dev/oled_ssd130x.h ****         else
 1633              		.loc 13 244 54 view .LVU350
 1634 007c 02F0070B 		and	fp, r2, #7
 244:../../libdaisy/src/dev/oled_ssd130x.h ****         else
 1635              		.loc 13 244 48 view .LVU351
 1636 0080 4FF0010E 		mov	lr, #1
 244:../../libdaisy/src/dev/oled_ssd130x.h ****         else
 1637              		.loc 13 244 42 view .LVU352
 1638 0084 01EBC515 		add	r5, r1, r5, lsl #7
 1639 0088 0544     		add	r5, r5, r0
 243:../../libdaisy/src/dev/oled_ssd130x.h ****             buffer_[x + (y / 8) * width] |= (1 << (y % 8));
 1640              		.loc 13 243 9 view .LVU353
 1641 008a B9F1000F 		cmp	r9, #0
 1642 008e 1BD0     		beq	.L104
 244:../../libdaisy/src/dev/oled_ssd130x.h ****         else
ARM GAS  C:\Users\VINCIU~1\AppData\Local\Temp\ccUTXsQS.s 			page 57


 1643              		.loc 13 244 48 view .LVU354
 1644 0090 0EFA0BFE 		lsl	lr, lr, fp
 244:../../libdaisy/src/dev/oled_ssd130x.h ****         else
 1645              		.loc 13 244 42 view .LVU355
 1646 0094 95F814B0 		ldrb	fp, [r5, #20]	@ zero_extendqisi2
 1647 0098 4EEA0B0E 		orr	lr, lr, fp
 1648 009c 85F814E0 		strb	lr, [r5, #20]
 1649              	.L103:
 1650              	.LVL119:
 244:../../libdaisy/src/dev/oled_ssd130x.h ****         else
 1651              		.loc 13 244 42 view .LVU356
 1652              	.LBE576:
 1653              	.LBE575:
 1654              	.LBE574:
 203:../../libdaisy/src/hid/disp/display.h ****             {
 1655              		.loc 8 203 13 view .LVU357
 1656 00a0 B7EB4C0F 		cmp	r7, ip, lsl #1
 202:../../libdaisy/src/hid/disp/display.h ****             if(error2 > -deltaY)
 1657              		.loc 8 202 20 view .LVU358
 1658 00a4 4FEA4C05 		lsl	r5, ip, #1
 1659              	.LVL120:
 203:../../libdaisy/src/hid/disp/display.h ****             {
 1660              		.loc 8 203 13 view .LVU359
 1661 00a8 02DA     		bge	.L105
 205:../../libdaisy/src/hid/disp/display.h ****                 x1 += signX;
 1662              		.loc 8 205 23 view .LVU360
 1663 00aa ACEB080C 		sub	ip, ip, r8
 1664              	.LVL121:
 206:../../libdaisy/src/hid/disp/display.h ****             }
 1665              		.loc 8 206 20 view .LVU361
 1666 00ae 5144     		add	r1, r1, r10
 1667              	.LVL122:
 1668              	.L105:
 209:../../libdaisy/src/hid/disp/display.h ****             {
 1669              		.loc 8 209 13 view .LVU362
 1670 00b0 AC42     		cmp	r4, r5
 1671 00b2 02DD     		ble	.L106
 212:../../libdaisy/src/hid/disp/display.h ****             }
 1672              		.loc 8 212 20 view .LVU363
 1673 00b4 019D     		ldr	r5, [sp, #4]
 1674              	.LVL123:
 211:../../libdaisy/src/hid/disp/display.h ****                 y1 += signY;
 1675              		.loc 8 211 23 view .LVU364
 1676 00b6 A444     		add	ip, ip, r4
 1677              	.LVL124:
 212:../../libdaisy/src/hid/disp/display.h ****             }
 1678              		.loc 8 212 20 view .LVU365
 1679 00b8 2A44     		add	r2, r2, r5
 1680              	.LVL125:
 1681              	.L106:
 199:../../libdaisy/src/hid/disp/display.h ****         {
 1682              		.loc 8 199 26 is_stmt 1 view .LVU366
 1683 00ba 9942     		cmp	r1, r3
 1684 00bc D9D1     		bne	.L102
 199:../../libdaisy/src/hid/disp/display.h ****         {
 1685              		.loc 8 199 26 is_stmt 0 view .LVU367
 1686 00be 9642     		cmp	r6, r2
ARM GAS  C:\Users\VINCIU~1\AppData\Local\Temp\ccUTXsQS.s 			page 58


 1687 00c0 D7D1     		bne	.L102
 1688              	.L93:
 215:../../libdaisy/src/hid/disp/display.h **** 
 1689              		.loc 8 215 5 view .LVU368
 1690 00c2 03B0     		add	sp, sp, #12
 1691              		.cfi_remember_state
 1692              		.cfi_def_cfa_offset 36
 1693              		@ sp needed
 1694 00c4 BDE8F08F 		pop	{r4, r5, r6, r7, r8, r9, r10, fp, pc}
 1695              	.LVL126:
 1696              	.L104:
 1697              		.cfi_restore_state
 1698              	.LBB581:
 1699              	.LBB580:
 1700              	.LBB579:
 1701              	.LBB577:
 1702              	.LBI577:
 239:../../libdaisy/src/dev/oled_ssd130x.h ****     {
 1703              		.loc 13 239 10 is_stmt 1 view .LVU369
 1704              	.LBB578:
 246:../../libdaisy/src/dev/oled_ssd130x.h ****     }
 1705              		.loc 13 246 49 is_stmt 0 view .LVU370
 1706 00c8 0EFA0BFB 		lsl	fp, lr, fp
 246:../../libdaisy/src/dev/oled_ssd130x.h ****     }
 1707              		.loc 13 246 42 view .LVU371
 1708 00cc 95F814E0 		ldrb	lr, [r5, #20]	@ zero_extendqisi2
 1709 00d0 2EEA0B0E 		bic	lr, lr, fp
 1710 00d4 85F814E0 		strb	lr, [r5, #20]
 1711 00d8 E2E7     		b	.L103
 1712              	.LVL127:
 1713              	.L95:
 246:../../libdaisy/src/dev/oled_ssd130x.h ****     }
 1714              		.loc 13 246 42 view .LVU372
 1715              	.LBE578:
 1716              	.LBE577:
 1717              	.LBE579:
 1718              	.LBE580:
 1719              	.LBE581:
 1720              	.LBB582:
  41:../../libdaisy/src/hid/disp/oled_display.h ****     {
 1721              		.loc 6 41 10 is_stmt 1 view .LVU373
 1722              	.LBB568:
 239:../../libdaisy/src/dev/oled_ssd130x.h ****     {
 1723              		.loc 13 239 10 view .LVU374
 1724              	.LBE568:
 1725              	.LBE582:
 190:../../libdaisy/src/hid/disp/display.h ****         int_fast16_t error  = deltaX - deltaY;
 1726              		.loc 8 190 42 is_stmt 0 view .LVU375
 1727 00da 0125     		movs	r5, #1
 1728              	.LBB583:
 1729              	.LBB569:
 1730              	.LBB563:
 241:../../libdaisy/src/dev/oled_ssd130x.h ****             return;
 1731              		.loc 13 241 9 view .LVU376
 1732 00dc 7F2B     		cmp	r3, #127
 1733              	.LBE563:
 1734              	.LBE569:
ARM GAS  C:\Users\VINCIU~1\AppData\Local\Temp\ccUTXsQS.s 			page 59


 1735              	.LBE583:
 190:../../libdaisy/src/hid/disp/display.h ****         int_fast16_t error  = deltaX - deltaY;
 1736              		.loc 8 190 42 view .LVU377
 1737 00de 0195     		str	r5, [sp, #4]
 1738              	.LBB584:
 1739              	.LBB570:
 1740              	.LBB564:
 241:../../libdaisy/src/dev/oled_ssd130x.h ****             return;
 1741              		.loc 13 241 9 view .LVU378
 1742 00e0 C5D8     		bhi	.L100
 1743 00e2 3F2E     		cmp	r6, #63
 1744 00e4 AED9     		bls	.L107
 1745 00e6 C2E7     		b	.L100
 1746              	.LVL128:
 1747              	.L97:
 1748              	.LBB558:
 1749              	.LBI558:
 239:../../libdaisy/src/dev/oled_ssd130x.h ****     {
 1750              		.loc 13 239 10 is_stmt 1 view .LVU379
 1751              	.LBB559:
 246:../../libdaisy/src/dev/oled_ssd130x.h ****     }
 1752              		.loc 13 246 49 is_stmt 0 view .LVU380
 1753 00e8 07FA0EFE 		lsl	lr, r7, lr
 246:../../libdaisy/src/dev/oled_ssd130x.h ****     }
 1754              		.loc 13 246 42 view .LVU381
 1755 00ec 2F7D     		ldrb	r7, [r5, #20]	@ zero_extendqisi2
 1756              	.LBE559:
 1757              	.LBE558:
 1758              	.LBE564:
 1759              	.LBE570:
 1760              	.LBE584:
 199:../../libdaisy/src/hid/disp/display.h ****         {
 1761              		.loc 8 199 26 view .LVU382
 1762 00ee 9642     		cmp	r6, r2
 1763              	.LBB585:
 1764              	.LBB571:
 1765              	.LBB565:
 1766              	.LBB561:
 1767              	.LBB560:
 246:../../libdaisy/src/dev/oled_ssd130x.h ****     }
 1768              		.loc 13 246 42 view .LVU383
 1769 00f0 27EA0E07 		bic	r7, r7, lr
 1770 00f4 2F75     		strb	r7, [r5, #20]
 1771              	.LVL129:
 246:../../libdaisy/src/dev/oled_ssd130x.h ****     }
 1772              		.loc 13 246 42 view .LVU384
 1773              	.LBE560:
 1774              	.LBE561:
 1775              	.LBE565:
 1776              	.LBE571:
 1777              	.LBE585:
 199:../../libdaisy/src/hid/disp/display.h ****         {
 1778              		.loc 8 199 26 is_stmt 1 view .LVU385
 1779 00f6 B8D0     		beq	.L119
 1780 00f8 B9E7     		b	.L100
 1781              		.cfi_endproc
 1782              	.LFE4645:
ARM GAS  C:\Users\VINCIU~1\AppData\Local\Temp\ccUTXsQS.s 			page 60


 1784 00fa 00BF     		.section	.text._ZN5daisy25OneBitGraphicsDisplayImplINS_11OledDisplayINS_13SSD130xDriverILj128ELj64
 1785              		.align	1
 1786              		.p2align 2,,3
 1787              		.weak	_ZN5daisy25OneBitGraphicsDisplayImplINS_11OledDisplayINS_13SSD130xDriverILj128ELj64ENS_24SSD
 1788              		.syntax unified
 1789              		.thumb
 1790              		.thumb_func
 1791              		.fpu fpv5-d16
 1793              	_ZN5daisy25OneBitGraphicsDisplayImplINS_11OledDisplayINS_13SSD130xDriverILj128ELj64ENS_24SSD130x4Wi
 1794              	.LVL130:
 1795              	.LFB4647:
 243:../../libdaisy/src/hid/disp/display.h ****                  uint_fast8_t y,
 1796              		.loc 8 243 10 view -0
 1797              		.cfi_startproc
 1798              		@ args = 12, pretend = 0, frame = 8
 1799              		@ frame_needed = 0, uses_anonymous_args = 0
 243:../../libdaisy/src/hid/disp/display.h ****                  uint_fast8_t y,
 1800              		.loc 8 243 10 is_stmt 0 view .LVU387
 1801 0000 2DE9F04F 		push	{r4, r5, r6, r7, r8, r9, r10, fp, lr}
 1802              		.cfi_def_cfa_offset 36
 1803              		.cfi_offset 4, -36
 1804              		.cfi_offset 5, -32
 1805              		.cfi_offset 6, -28
 1806              		.cfi_offset 7, -24
 1807              		.cfi_offset 8, -20
 1808              		.cfi_offset 9, -16
 1809              		.cfi_offset 10, -12
 1810              		.cfi_offset 11, -8
 1811              		.cfi_offset 14, -4
 1812 0004 2DED068B 		vpush.64	{d8, d9, d10}
 1813              		.cfi_def_cfa_offset 60
 1814              		.cfi_offset 80, -60
 1815              		.cfi_offset 81, -56
 1816              		.cfi_offset 82, -52
 1817              		.cfi_offset 83, -48
 1818              		.cfi_offset 84, -44
 1819              		.cfi_offset 85, -40
 1820 0008 83B0     		sub	sp, sp, #12
 1821              		.cfi_def_cfa_offset 72
 243:../../libdaisy/src/hid/disp/display.h ****                  uint_fast8_t y,
 1822              		.loc 8 243 10 view .LVU388
 1823 000a 1F46     		mov	r7, r3
 1824 000c 8046     		mov	r8, r0
 1825 000e 0D46     		mov	r5, r1
 1826 0010 9DF85030 		ldrb	r3, [sp, #80]	@ zero_extendqisi2
 1827              	.LVL131:
 243:../../libdaisy/src/hid/disp/display.h ****                  uint_fast8_t y,
 1828              		.loc 8 243 10 view .LVU389
 1829 0014 1646     		mov	r6, r2
 1830 0016 0193     		str	r3, [sp, #4]
 266:../../libdaisy/src/hid/disp/display.h ****         {
 1831              		.loc 8 266 9 view .LVU390
 1832 0018 139B     		ldr	r3, [sp, #76]
 1833 001a 002B     		cmp	r3, #0
 1834 001c C0F22182 		blt	.L121
 273:../../libdaisy/src/hid/disp/display.h **** 
 1835              		.loc 8 273 27 view .LVU391
ARM GAS  C:\Users\VINCIU~1\AppData\Local\Temp\ccUTXsQS.s 			page 61


 1836 0020 129A     		ldr	r2, [sp, #72]
 1837              	.LVL132:
 273:../../libdaisy/src/hid/disp/display.h **** 
 1838              		.loc 8 273 27 view .LVU392
 1839 0022 1344     		add	r3, r3, r2
 1840 0024 06EE103A 		vmov	s12, r3	@ int
 1841              	.LVL133:
 1842              	.L122:
 272:../../libdaisy/src/hid/disp/display.h ****         end_angle_rad   = deg2rad(start_angle + sweep);
 1843              		.loc 8 272 27 view .LVU393
 1844 0028 DDED127A 		vldr.32	s15, [sp, #72]	@ int
 273:../../libdaisy/src/hid/disp/display.h **** 
 1845              		.loc 8 273 27 view .LVU394
 1846 002c B8EEC66B 		vcvt.f64.s32	d6, s12
 272:../../libdaisy/src/hid/disp/display.h ****         end_angle_rad   = deg2rad(start_angle + sweep);
 1847              		.loc 8 272 27 view .LVU395
 1848 0030 9FEDCD4B 		vldr.64	d4, .L197
 1849 0034 B8EEE77B 		vcvt.f64.s32	d7, s15
 1850 0038 9FEDCD5B 		vldr.64	d5, .L197+8
 1851 003c 27EE047B 		vmul.f64	d7, d7, d4
 273:../../libdaisy/src/hid/disp/display.h **** 
 1852              		.loc 8 273 27 view .LVU396
 1853 0040 26EE046B 		vmul.f64	d6, d6, d4
 272:../../libdaisy/src/hid/disp/display.h ****         end_angle_rad   = deg2rad(start_angle + sweep);
 1854              		.loc 8 272 27 view .LVU397
 1855 0044 87EE050B 		vdiv.f64	d0, d7, d5
 273:../../libdaisy/src/hid/disp/display.h **** 
 1856              		.loc 8 273 27 view .LVU398
 1857 0048 86EE05AB 		vdiv.f64	d10, d6, d5
 272:../../libdaisy/src/hid/disp/display.h ****         end_angle_rad   = deg2rad(start_angle + sweep);
 1858              		.loc 8 272 25 view .LVU399
 1859 004c F7EEC08B 		vcvt.f32.f64	s17, d0
 1860              	.LVL134:
 1861              	.LBB618:
 1862              	.LBB619:
 1863              		.file 16 "c:\\users\\vin\355cius\\documents\\daisytoolchain-0.3.1\\windows\\arm-none-eabi\\include
   1:c:\users\vincius\documents\daisytoolchain-0.3.1\windows\arm-none-eabi\include\c++\10.2.1\cmath **** // -*- C++ -*- C forwarding header.
   2:c:\users\vincius\documents\daisytoolchain-0.3.1\windows\arm-none-eabi\include\c++\10.2.1\cmath **** 
   3:c:\users\vincius\documents\daisytoolchain-0.3.1\windows\arm-none-eabi\include\c++\10.2.1\cmath **** // Copyright (C) 1997-2020 Free Software Foundation, Inc.
   4:c:\users\vincius\documents\daisytoolchain-0.3.1\windows\arm-none-eabi\include\c++\10.2.1\cmath **** //
   5:c:\users\vincius\documents\daisytoolchain-0.3.1\windows\arm-none-eabi\include\c++\10.2.1\cmath **** // This file is part of the GNU ISO C++ Library.  This library is free
   6:c:\users\vincius\documents\daisytoolchain-0.3.1\windows\arm-none-eabi\include\c++\10.2.1\cmath **** // software; you can redistribute it and/or modify it under the
   7:c:\users\vincius\documents\daisytoolchain-0.3.1\windows\arm-none-eabi\include\c++\10.2.1\cmath **** // terms of the GNU General Public License as published by the
   8:c:\users\vincius\documents\daisytoolchain-0.3.1\windows\arm-none-eabi\include\c++\10.2.1\cmath **** // Free Software Foundation; either version 3, or (at your option)
   9:c:\users\vincius\documents\daisytoolchain-0.3.1\windows\arm-none-eabi\include\c++\10.2.1\cmath **** // any later version.
  10:c:\users\vincius\documents\daisytoolchain-0.3.1\windows\arm-none-eabi\include\c++\10.2.1\cmath **** 
  11:c:\users\vincius\documents\daisytoolchain-0.3.1\windows\arm-none-eabi\include\c++\10.2.1\cmath **** // This library is distributed in the hope that it will be useful,
  12:c:\users\vincius\documents\daisytoolchain-0.3.1\windows\arm-none-eabi\include\c++\10.2.1\cmath **** // but WITHOUT ANY WARRANTY; without even the implied warranty of
  13:c:\users\vincius\documents\daisytoolchain-0.3.1\windows\arm-none-eabi\include\c++\10.2.1\cmath **** // MERCHANTABILITY or FITNESS FOR A PARTICULAR PURPOSE.  See the
  14:c:\users\vincius\documents\daisytoolchain-0.3.1\windows\arm-none-eabi\include\c++\10.2.1\cmath **** // GNU General Public License for more details.
  15:c:\users\vincius\documents\daisytoolchain-0.3.1\windows\arm-none-eabi\include\c++\10.2.1\cmath **** 
  16:c:\users\vincius\documents\daisytoolchain-0.3.1\windows\arm-none-eabi\include\c++\10.2.1\cmath **** // Under Section 7 of GPL version 3, you are granted additional
  17:c:\users\vincius\documents\daisytoolchain-0.3.1\windows\arm-none-eabi\include\c++\10.2.1\cmath **** // permissions described in the GCC Runtime Library Exception, version
  18:c:\users\vincius\documents\daisytoolchain-0.3.1\windows\arm-none-eabi\include\c++\10.2.1\cmath **** // 3.1, as published by the Free Software Foundation.
  19:c:\users\vincius\documents\daisytoolchain-0.3.1\windows\arm-none-eabi\include\c++\10.2.1\cmath **** 
  20:c:\users\vincius\documents\daisytoolchain-0.3.1\windows\arm-none-eabi\include\c++\10.2.1\cmath **** // You should have received a copy of the GNU General Public License and
  21:c:\users\vincius\documents\daisytoolchain-0.3.1\windows\arm-none-eabi\include\c++\10.2.1\cmath **** // a copy of the GCC Runtime Library Exception along with this program;
ARM GAS  C:\Users\VINCIU~1\AppData\Local\Temp\ccUTXsQS.s 			page 62


  22:c:\users\vincius\documents\daisytoolchain-0.3.1\windows\arm-none-eabi\include\c++\10.2.1\cmath **** // see the files COPYING3 and COPYING.RUNTIME respectively.  If not, see
  23:c:\users\vincius\documents\daisytoolchain-0.3.1\windows\arm-none-eabi\include\c++\10.2.1\cmath **** // <http://www.gnu.org/licenses/>.
  24:c:\users\vincius\documents\daisytoolchain-0.3.1\windows\arm-none-eabi\include\c++\10.2.1\cmath **** 
  25:c:\users\vincius\documents\daisytoolchain-0.3.1\windows\arm-none-eabi\include\c++\10.2.1\cmath **** /** @file include/cmath
  26:c:\users\vincius\documents\daisytoolchain-0.3.1\windows\arm-none-eabi\include\c++\10.2.1\cmath ****  *  This is a Standard C++ Library file.  You should @c \#include this file
  27:c:\users\vincius\documents\daisytoolchain-0.3.1\windows\arm-none-eabi\include\c++\10.2.1\cmath ****  *  in your programs, rather than any of the @a *.h implementation files.
  28:c:\users\vincius\documents\daisytoolchain-0.3.1\windows\arm-none-eabi\include\c++\10.2.1\cmath ****  *
  29:c:\users\vincius\documents\daisytoolchain-0.3.1\windows\arm-none-eabi\include\c++\10.2.1\cmath ****  *  This is the C++ version of the Standard C Library header @c math.h,
  30:c:\users\vincius\documents\daisytoolchain-0.3.1\windows\arm-none-eabi\include\c++\10.2.1\cmath ****  *  and its contents are (mostly) the same as that header, but are all
  31:c:\users\vincius\documents\daisytoolchain-0.3.1\windows\arm-none-eabi\include\c++\10.2.1\cmath ****  *  contained in the namespace @c std (except for names which are defined
  32:c:\users\vincius\documents\daisytoolchain-0.3.1\windows\arm-none-eabi\include\c++\10.2.1\cmath ****  *  as macros in C).
  33:c:\users\vincius\documents\daisytoolchain-0.3.1\windows\arm-none-eabi\include\c++\10.2.1\cmath ****  */
  34:c:\users\vincius\documents\daisytoolchain-0.3.1\windows\arm-none-eabi\include\c++\10.2.1\cmath **** 
  35:c:\users\vincius\documents\daisytoolchain-0.3.1\windows\arm-none-eabi\include\c++\10.2.1\cmath **** //
  36:c:\users\vincius\documents\daisytoolchain-0.3.1\windows\arm-none-eabi\include\c++\10.2.1\cmath **** // ISO C++ 14882: 26.5  C library
  37:c:\users\vincius\documents\daisytoolchain-0.3.1\windows\arm-none-eabi\include\c++\10.2.1\cmath **** //
  38:c:\users\vincius\documents\daisytoolchain-0.3.1\windows\arm-none-eabi\include\c++\10.2.1\cmath **** 
  39:c:\users\vincius\documents\daisytoolchain-0.3.1\windows\arm-none-eabi\include\c++\10.2.1\cmath **** #pragma GCC system_header
  40:c:\users\vincius\documents\daisytoolchain-0.3.1\windows\arm-none-eabi\include\c++\10.2.1\cmath **** 
  41:c:\users\vincius\documents\daisytoolchain-0.3.1\windows\arm-none-eabi\include\c++\10.2.1\cmath **** #include <bits/c++config.h>
  42:c:\users\vincius\documents\daisytoolchain-0.3.1\windows\arm-none-eabi\include\c++\10.2.1\cmath **** #include <bits/cpp_type_traits.h>
  43:c:\users\vincius\documents\daisytoolchain-0.3.1\windows\arm-none-eabi\include\c++\10.2.1\cmath **** #include <ext/type_traits.h>
  44:c:\users\vincius\documents\daisytoolchain-0.3.1\windows\arm-none-eabi\include\c++\10.2.1\cmath **** #define _GLIBCXX_INCLUDE_NEXT_C_HEADERS
  45:c:\users\vincius\documents\daisytoolchain-0.3.1\windows\arm-none-eabi\include\c++\10.2.1\cmath **** #include_next <math.h>
  46:c:\users\vincius\documents\daisytoolchain-0.3.1\windows\arm-none-eabi\include\c++\10.2.1\cmath **** #undef _GLIBCXX_INCLUDE_NEXT_C_HEADERS
  47:c:\users\vincius\documents\daisytoolchain-0.3.1\windows\arm-none-eabi\include\c++\10.2.1\cmath **** #include <bits/std_abs.h>
  48:c:\users\vincius\documents\daisytoolchain-0.3.1\windows\arm-none-eabi\include\c++\10.2.1\cmath **** 
  49:c:\users\vincius\documents\daisytoolchain-0.3.1\windows\arm-none-eabi\include\c++\10.2.1\cmath **** #ifndef _GLIBCXX_CMATH
  50:c:\users\vincius\documents\daisytoolchain-0.3.1\windows\arm-none-eabi\include\c++\10.2.1\cmath **** #define _GLIBCXX_CMATH 1
  51:c:\users\vincius\documents\daisytoolchain-0.3.1\windows\arm-none-eabi\include\c++\10.2.1\cmath **** 
  52:c:\users\vincius\documents\daisytoolchain-0.3.1\windows\arm-none-eabi\include\c++\10.2.1\cmath **** // Get rid of those macros defined in <math.h> in lieu of real functions.
  53:c:\users\vincius\documents\daisytoolchain-0.3.1\windows\arm-none-eabi\include\c++\10.2.1\cmath **** #undef div
  54:c:\users\vincius\documents\daisytoolchain-0.3.1\windows\arm-none-eabi\include\c++\10.2.1\cmath **** #undef acos
  55:c:\users\vincius\documents\daisytoolchain-0.3.1\windows\arm-none-eabi\include\c++\10.2.1\cmath **** #undef asin
  56:c:\users\vincius\documents\daisytoolchain-0.3.1\windows\arm-none-eabi\include\c++\10.2.1\cmath **** #undef atan
  57:c:\users\vincius\documents\daisytoolchain-0.3.1\windows\arm-none-eabi\include\c++\10.2.1\cmath **** #undef atan2
  58:c:\users\vincius\documents\daisytoolchain-0.3.1\windows\arm-none-eabi\include\c++\10.2.1\cmath **** #undef ceil
  59:c:\users\vincius\documents\daisytoolchain-0.3.1\windows\arm-none-eabi\include\c++\10.2.1\cmath **** #undef cos
  60:c:\users\vincius\documents\daisytoolchain-0.3.1\windows\arm-none-eabi\include\c++\10.2.1\cmath **** #undef cosh
  61:c:\users\vincius\documents\daisytoolchain-0.3.1\windows\arm-none-eabi\include\c++\10.2.1\cmath **** #undef exp
  62:c:\users\vincius\documents\daisytoolchain-0.3.1\windows\arm-none-eabi\include\c++\10.2.1\cmath **** #undef fabs
  63:c:\users\vincius\documents\daisytoolchain-0.3.1\windows\arm-none-eabi\include\c++\10.2.1\cmath **** #undef floor
  64:c:\users\vincius\documents\daisytoolchain-0.3.1\windows\arm-none-eabi\include\c++\10.2.1\cmath **** #undef fmod
  65:c:\users\vincius\documents\daisytoolchain-0.3.1\windows\arm-none-eabi\include\c++\10.2.1\cmath **** #undef frexp
  66:c:\users\vincius\documents\daisytoolchain-0.3.1\windows\arm-none-eabi\include\c++\10.2.1\cmath **** #undef ldexp
  67:c:\users\vincius\documents\daisytoolchain-0.3.1\windows\arm-none-eabi\include\c++\10.2.1\cmath **** #undef log
  68:c:\users\vincius\documents\daisytoolchain-0.3.1\windows\arm-none-eabi\include\c++\10.2.1\cmath **** #undef log10
  69:c:\users\vincius\documents\daisytoolchain-0.3.1\windows\arm-none-eabi\include\c++\10.2.1\cmath **** #undef modf
  70:c:\users\vincius\documents\daisytoolchain-0.3.1\windows\arm-none-eabi\include\c++\10.2.1\cmath **** #undef pow
  71:c:\users\vincius\documents\daisytoolchain-0.3.1\windows\arm-none-eabi\include\c++\10.2.1\cmath **** #undef sin
  72:c:\users\vincius\documents\daisytoolchain-0.3.1\windows\arm-none-eabi\include\c++\10.2.1\cmath **** #undef sinh
  73:c:\users\vincius\documents\daisytoolchain-0.3.1\windows\arm-none-eabi\include\c++\10.2.1\cmath **** #undef sqrt
  74:c:\users\vincius\documents\daisytoolchain-0.3.1\windows\arm-none-eabi\include\c++\10.2.1\cmath **** #undef tan
  75:c:\users\vincius\documents\daisytoolchain-0.3.1\windows\arm-none-eabi\include\c++\10.2.1\cmath **** #undef tanh
  76:c:\users\vincius\documents\daisytoolchain-0.3.1\windows\arm-none-eabi\include\c++\10.2.1\cmath **** 
  77:c:\users\vincius\documents\daisytoolchain-0.3.1\windows\arm-none-eabi\include\c++\10.2.1\cmath **** extern "C++"
  78:c:\users\vincius\documents\daisytoolchain-0.3.1\windows\arm-none-eabi\include\c++\10.2.1\cmath **** {
ARM GAS  C:\Users\VINCIU~1\AppData\Local\Temp\ccUTXsQS.s 			page 63


  79:c:\users\vincius\documents\daisytoolchain-0.3.1\windows\arm-none-eabi\include\c++\10.2.1\cmath **** namespace std _GLIBCXX_VISIBILITY(default)
  80:c:\users\vincius\documents\daisytoolchain-0.3.1\windows\arm-none-eabi\include\c++\10.2.1\cmath **** {
  81:c:\users\vincius\documents\daisytoolchain-0.3.1\windows\arm-none-eabi\include\c++\10.2.1\cmath **** _GLIBCXX_BEGIN_NAMESPACE_VERSION
  82:c:\users\vincius\documents\daisytoolchain-0.3.1\windows\arm-none-eabi\include\c++\10.2.1\cmath **** 
  83:c:\users\vincius\documents\daisytoolchain-0.3.1\windows\arm-none-eabi\include\c++\10.2.1\cmath ****   using ::acos;
  84:c:\users\vincius\documents\daisytoolchain-0.3.1\windows\arm-none-eabi\include\c++\10.2.1\cmath **** 
  85:c:\users\vincius\documents\daisytoolchain-0.3.1\windows\arm-none-eabi\include\c++\10.2.1\cmath **** #ifndef __CORRECT_ISO_CPP_MATH_H_PROTO
  86:c:\users\vincius\documents\daisytoolchain-0.3.1\windows\arm-none-eabi\include\c++\10.2.1\cmath ****   inline _GLIBCXX_CONSTEXPR float
  87:c:\users\vincius\documents\daisytoolchain-0.3.1\windows\arm-none-eabi\include\c++\10.2.1\cmath ****   acos(float __x)
  88:c:\users\vincius\documents\daisytoolchain-0.3.1\windows\arm-none-eabi\include\c++\10.2.1\cmath ****   { return __builtin_acosf(__x); }
  89:c:\users\vincius\documents\daisytoolchain-0.3.1\windows\arm-none-eabi\include\c++\10.2.1\cmath **** 
  90:c:\users\vincius\documents\daisytoolchain-0.3.1\windows\arm-none-eabi\include\c++\10.2.1\cmath ****   inline _GLIBCXX_CONSTEXPR long double
  91:c:\users\vincius\documents\daisytoolchain-0.3.1\windows\arm-none-eabi\include\c++\10.2.1\cmath ****   acos(long double __x)
  92:c:\users\vincius\documents\daisytoolchain-0.3.1\windows\arm-none-eabi\include\c++\10.2.1\cmath ****   { return __builtin_acosl(__x); }
  93:c:\users\vincius\documents\daisytoolchain-0.3.1\windows\arm-none-eabi\include\c++\10.2.1\cmath **** #endif
  94:c:\users\vincius\documents\daisytoolchain-0.3.1\windows\arm-none-eabi\include\c++\10.2.1\cmath **** 
  95:c:\users\vincius\documents\daisytoolchain-0.3.1\windows\arm-none-eabi\include\c++\10.2.1\cmath ****   template<typename _Tp>
  96:c:\users\vincius\documents\daisytoolchain-0.3.1\windows\arm-none-eabi\include\c++\10.2.1\cmath ****     inline _GLIBCXX_CONSTEXPR
  97:c:\users\vincius\documents\daisytoolchain-0.3.1\windows\arm-none-eabi\include\c++\10.2.1\cmath ****     typename __gnu_cxx::__enable_if<__is_integer<_Tp>::__value, 
  98:c:\users\vincius\documents\daisytoolchain-0.3.1\windows\arm-none-eabi\include\c++\10.2.1\cmath ****                                     double>::__type
  99:c:\users\vincius\documents\daisytoolchain-0.3.1\windows\arm-none-eabi\include\c++\10.2.1\cmath ****     acos(_Tp __x)
 100:c:\users\vincius\documents\daisytoolchain-0.3.1\windows\arm-none-eabi\include\c++\10.2.1\cmath ****     { return __builtin_acos(__x); }
 101:c:\users\vincius\documents\daisytoolchain-0.3.1\windows\arm-none-eabi\include\c++\10.2.1\cmath **** 
 102:c:\users\vincius\documents\daisytoolchain-0.3.1\windows\arm-none-eabi\include\c++\10.2.1\cmath ****   using ::asin;
 103:c:\users\vincius\documents\daisytoolchain-0.3.1\windows\arm-none-eabi\include\c++\10.2.1\cmath **** 
 104:c:\users\vincius\documents\daisytoolchain-0.3.1\windows\arm-none-eabi\include\c++\10.2.1\cmath **** #ifndef __CORRECT_ISO_CPP_MATH_H_PROTO
 105:c:\users\vincius\documents\daisytoolchain-0.3.1\windows\arm-none-eabi\include\c++\10.2.1\cmath ****   inline _GLIBCXX_CONSTEXPR float
 106:c:\users\vincius\documents\daisytoolchain-0.3.1\windows\arm-none-eabi\include\c++\10.2.1\cmath ****   asin(float __x)
 107:c:\users\vincius\documents\daisytoolchain-0.3.1\windows\arm-none-eabi\include\c++\10.2.1\cmath ****   { return __builtin_asinf(__x); }
 108:c:\users\vincius\documents\daisytoolchain-0.3.1\windows\arm-none-eabi\include\c++\10.2.1\cmath **** 
 109:c:\users\vincius\documents\daisytoolchain-0.3.1\windows\arm-none-eabi\include\c++\10.2.1\cmath ****   inline _GLIBCXX_CONSTEXPR long double
 110:c:\users\vincius\documents\daisytoolchain-0.3.1\windows\arm-none-eabi\include\c++\10.2.1\cmath ****   asin(long double __x)
 111:c:\users\vincius\documents\daisytoolchain-0.3.1\windows\arm-none-eabi\include\c++\10.2.1\cmath ****   { return __builtin_asinl(__x); }
 112:c:\users\vincius\documents\daisytoolchain-0.3.1\windows\arm-none-eabi\include\c++\10.2.1\cmath **** #endif
 113:c:\users\vincius\documents\daisytoolchain-0.3.1\windows\arm-none-eabi\include\c++\10.2.1\cmath **** 
 114:c:\users\vincius\documents\daisytoolchain-0.3.1\windows\arm-none-eabi\include\c++\10.2.1\cmath ****   template<typename _Tp>
 115:c:\users\vincius\documents\daisytoolchain-0.3.1\windows\arm-none-eabi\include\c++\10.2.1\cmath ****     inline _GLIBCXX_CONSTEXPR
 116:c:\users\vincius\documents\daisytoolchain-0.3.1\windows\arm-none-eabi\include\c++\10.2.1\cmath ****     typename __gnu_cxx::__enable_if<__is_integer<_Tp>::__value,
 117:c:\users\vincius\documents\daisytoolchain-0.3.1\windows\arm-none-eabi\include\c++\10.2.1\cmath ****                                     double>::__type
 118:c:\users\vincius\documents\daisytoolchain-0.3.1\windows\arm-none-eabi\include\c++\10.2.1\cmath ****     asin(_Tp __x)
 119:c:\users\vincius\documents\daisytoolchain-0.3.1\windows\arm-none-eabi\include\c++\10.2.1\cmath ****     { return __builtin_asin(__x); }
 120:c:\users\vincius\documents\daisytoolchain-0.3.1\windows\arm-none-eabi\include\c++\10.2.1\cmath **** 
 121:c:\users\vincius\documents\daisytoolchain-0.3.1\windows\arm-none-eabi\include\c++\10.2.1\cmath ****   using ::atan;
 122:c:\users\vincius\documents\daisytoolchain-0.3.1\windows\arm-none-eabi\include\c++\10.2.1\cmath **** 
 123:c:\users\vincius\documents\daisytoolchain-0.3.1\windows\arm-none-eabi\include\c++\10.2.1\cmath **** #ifndef __CORRECT_ISO_CPP_MATH_H_PROTO
 124:c:\users\vincius\documents\daisytoolchain-0.3.1\windows\arm-none-eabi\include\c++\10.2.1\cmath ****   inline _GLIBCXX_CONSTEXPR float
 125:c:\users\vincius\documents\daisytoolchain-0.3.1\windows\arm-none-eabi\include\c++\10.2.1\cmath ****   atan(float __x)
 126:c:\users\vincius\documents\daisytoolchain-0.3.1\windows\arm-none-eabi\include\c++\10.2.1\cmath ****   { return __builtin_atanf(__x); }
 127:c:\users\vincius\documents\daisytoolchain-0.3.1\windows\arm-none-eabi\include\c++\10.2.1\cmath **** 
 128:c:\users\vincius\documents\daisytoolchain-0.3.1\windows\arm-none-eabi\include\c++\10.2.1\cmath ****   inline _GLIBCXX_CONSTEXPR long double
 129:c:\users\vincius\documents\daisytoolchain-0.3.1\windows\arm-none-eabi\include\c++\10.2.1\cmath ****   atan(long double __x)
 130:c:\users\vincius\documents\daisytoolchain-0.3.1\windows\arm-none-eabi\include\c++\10.2.1\cmath ****   { return __builtin_atanl(__x); }
 131:c:\users\vincius\documents\daisytoolchain-0.3.1\windows\arm-none-eabi\include\c++\10.2.1\cmath **** #endif
 132:c:\users\vincius\documents\daisytoolchain-0.3.1\windows\arm-none-eabi\include\c++\10.2.1\cmath **** 
 133:c:\users\vincius\documents\daisytoolchain-0.3.1\windows\arm-none-eabi\include\c++\10.2.1\cmath ****   template<typename _Tp>
 134:c:\users\vincius\documents\daisytoolchain-0.3.1\windows\arm-none-eabi\include\c++\10.2.1\cmath ****     inline _GLIBCXX_CONSTEXPR
 135:c:\users\vincius\documents\daisytoolchain-0.3.1\windows\arm-none-eabi\include\c++\10.2.1\cmath ****     typename __gnu_cxx::__enable_if<__is_integer<_Tp>::__value,
ARM GAS  C:\Users\VINCIU~1\AppData\Local\Temp\ccUTXsQS.s 			page 64


 136:c:\users\vincius\documents\daisytoolchain-0.3.1\windows\arm-none-eabi\include\c++\10.2.1\cmath ****                                     double>::__type
 137:c:\users\vincius\documents\daisytoolchain-0.3.1\windows\arm-none-eabi\include\c++\10.2.1\cmath ****     atan(_Tp __x)
 138:c:\users\vincius\documents\daisytoolchain-0.3.1\windows\arm-none-eabi\include\c++\10.2.1\cmath ****     { return __builtin_atan(__x); }
 139:c:\users\vincius\documents\daisytoolchain-0.3.1\windows\arm-none-eabi\include\c++\10.2.1\cmath **** 
 140:c:\users\vincius\documents\daisytoolchain-0.3.1\windows\arm-none-eabi\include\c++\10.2.1\cmath ****   using ::atan2;
 141:c:\users\vincius\documents\daisytoolchain-0.3.1\windows\arm-none-eabi\include\c++\10.2.1\cmath **** 
 142:c:\users\vincius\documents\daisytoolchain-0.3.1\windows\arm-none-eabi\include\c++\10.2.1\cmath **** #ifndef __CORRECT_ISO_CPP_MATH_H_PROTO
 143:c:\users\vincius\documents\daisytoolchain-0.3.1\windows\arm-none-eabi\include\c++\10.2.1\cmath ****   inline _GLIBCXX_CONSTEXPR float
 144:c:\users\vincius\documents\daisytoolchain-0.3.1\windows\arm-none-eabi\include\c++\10.2.1\cmath ****   atan2(float __y, float __x)
 145:c:\users\vincius\documents\daisytoolchain-0.3.1\windows\arm-none-eabi\include\c++\10.2.1\cmath ****   { return __builtin_atan2f(__y, __x); }
 146:c:\users\vincius\documents\daisytoolchain-0.3.1\windows\arm-none-eabi\include\c++\10.2.1\cmath **** 
 147:c:\users\vincius\documents\daisytoolchain-0.3.1\windows\arm-none-eabi\include\c++\10.2.1\cmath ****   inline _GLIBCXX_CONSTEXPR long double
 148:c:\users\vincius\documents\daisytoolchain-0.3.1\windows\arm-none-eabi\include\c++\10.2.1\cmath ****   atan2(long double __y, long double __x)
 149:c:\users\vincius\documents\daisytoolchain-0.3.1\windows\arm-none-eabi\include\c++\10.2.1\cmath ****   { return __builtin_atan2l(__y, __x); }
 150:c:\users\vincius\documents\daisytoolchain-0.3.1\windows\arm-none-eabi\include\c++\10.2.1\cmath **** #endif
 151:c:\users\vincius\documents\daisytoolchain-0.3.1\windows\arm-none-eabi\include\c++\10.2.1\cmath **** 
 152:c:\users\vincius\documents\daisytoolchain-0.3.1\windows\arm-none-eabi\include\c++\10.2.1\cmath ****   template<typename _Tp, typename _Up>
 153:c:\users\vincius\documents\daisytoolchain-0.3.1\windows\arm-none-eabi\include\c++\10.2.1\cmath ****     inline _GLIBCXX_CONSTEXPR
 154:c:\users\vincius\documents\daisytoolchain-0.3.1\windows\arm-none-eabi\include\c++\10.2.1\cmath ****     typename __gnu_cxx::__promote_2<_Tp, _Up>::__type
 155:c:\users\vincius\documents\daisytoolchain-0.3.1\windows\arm-none-eabi\include\c++\10.2.1\cmath ****     atan2(_Tp __y, _Up __x)
 156:c:\users\vincius\documents\daisytoolchain-0.3.1\windows\arm-none-eabi\include\c++\10.2.1\cmath ****     {
 157:c:\users\vincius\documents\daisytoolchain-0.3.1\windows\arm-none-eabi\include\c++\10.2.1\cmath ****       typedef typename __gnu_cxx::__promote_2<_Tp, _Up>::__type __type;
 158:c:\users\vincius\documents\daisytoolchain-0.3.1\windows\arm-none-eabi\include\c++\10.2.1\cmath ****       return atan2(__type(__y), __type(__x));
 159:c:\users\vincius\documents\daisytoolchain-0.3.1\windows\arm-none-eabi\include\c++\10.2.1\cmath ****     }
 160:c:\users\vincius\documents\daisytoolchain-0.3.1\windows\arm-none-eabi\include\c++\10.2.1\cmath **** 
 161:c:\users\vincius\documents\daisytoolchain-0.3.1\windows\arm-none-eabi\include\c++\10.2.1\cmath ****   using ::ceil;
 162:c:\users\vincius\documents\daisytoolchain-0.3.1\windows\arm-none-eabi\include\c++\10.2.1\cmath **** 
 163:c:\users\vincius\documents\daisytoolchain-0.3.1\windows\arm-none-eabi\include\c++\10.2.1\cmath **** #ifndef __CORRECT_ISO_CPP_MATH_H_PROTO
 164:c:\users\vincius\documents\daisytoolchain-0.3.1\windows\arm-none-eabi\include\c++\10.2.1\cmath ****   inline _GLIBCXX_CONSTEXPR float
 165:c:\users\vincius\documents\daisytoolchain-0.3.1\windows\arm-none-eabi\include\c++\10.2.1\cmath ****   ceil(float __x)
 166:c:\users\vincius\documents\daisytoolchain-0.3.1\windows\arm-none-eabi\include\c++\10.2.1\cmath ****   { return __builtin_ceilf(__x); }
 167:c:\users\vincius\documents\daisytoolchain-0.3.1\windows\arm-none-eabi\include\c++\10.2.1\cmath **** 
 168:c:\users\vincius\documents\daisytoolchain-0.3.1\windows\arm-none-eabi\include\c++\10.2.1\cmath ****   inline _GLIBCXX_CONSTEXPR long double
 169:c:\users\vincius\documents\daisytoolchain-0.3.1\windows\arm-none-eabi\include\c++\10.2.1\cmath ****   ceil(long double __x)
 170:c:\users\vincius\documents\daisytoolchain-0.3.1\windows\arm-none-eabi\include\c++\10.2.1\cmath ****   { return __builtin_ceill(__x); }
 171:c:\users\vincius\documents\daisytoolchain-0.3.1\windows\arm-none-eabi\include\c++\10.2.1\cmath **** #endif
 172:c:\users\vincius\documents\daisytoolchain-0.3.1\windows\arm-none-eabi\include\c++\10.2.1\cmath **** 
 173:c:\users\vincius\documents\daisytoolchain-0.3.1\windows\arm-none-eabi\include\c++\10.2.1\cmath ****   template<typename _Tp>
 174:c:\users\vincius\documents\daisytoolchain-0.3.1\windows\arm-none-eabi\include\c++\10.2.1\cmath ****     inline _GLIBCXX_CONSTEXPR
 175:c:\users\vincius\documents\daisytoolchain-0.3.1\windows\arm-none-eabi\include\c++\10.2.1\cmath ****     typename __gnu_cxx::__enable_if<__is_integer<_Tp>::__value, 
 176:c:\users\vincius\documents\daisytoolchain-0.3.1\windows\arm-none-eabi\include\c++\10.2.1\cmath ****                                     double>::__type
 177:c:\users\vincius\documents\daisytoolchain-0.3.1\windows\arm-none-eabi\include\c++\10.2.1\cmath ****     ceil(_Tp __x)
 178:c:\users\vincius\documents\daisytoolchain-0.3.1\windows\arm-none-eabi\include\c++\10.2.1\cmath ****     { return __builtin_ceil(__x); }
 179:c:\users\vincius\documents\daisytoolchain-0.3.1\windows\arm-none-eabi\include\c++\10.2.1\cmath **** 
 180:c:\users\vincius\documents\daisytoolchain-0.3.1\windows\arm-none-eabi\include\c++\10.2.1\cmath ****   using ::cos;
 181:c:\users\vincius\documents\daisytoolchain-0.3.1\windows\arm-none-eabi\include\c++\10.2.1\cmath **** 
 182:c:\users\vincius\documents\daisytoolchain-0.3.1\windows\arm-none-eabi\include\c++\10.2.1\cmath **** #ifndef __CORRECT_ISO_CPP_MATH_H_PROTO
 183:c:\users\vincius\documents\daisytoolchain-0.3.1\windows\arm-none-eabi\include\c++\10.2.1\cmath ****   inline _GLIBCXX_CONSTEXPR float
 184:c:\users\vincius\documents\daisytoolchain-0.3.1\windows\arm-none-eabi\include\c++\10.2.1\cmath ****   cos(float __x)
 185:c:\users\vincius\documents\daisytoolchain-0.3.1\windows\arm-none-eabi\include\c++\10.2.1\cmath ****   { return __builtin_cosf(__x); }
 1864              		.loc 16 185 26 view .LVU400
 1865 0050 B0EE680A 		vmov.f32	s0, s17
 1866 0054 FFF7FEFF 		bl	cosf
 1867              	.LVL135:
 1868              		.loc 16 185 26 view .LVU401
 1869              	.LBE619:
 1870              	.LBE618:
ARM GAS  C:\Users\VINCIU~1\AppData\Local\Temp\ccUTXsQS.s 			page 65


 275:../../libdaisy/src/hid/disp/display.h ****         start_y = -sin(start_angle_rad) * radius;
 1871              		.loc 8 275 17 view .LVU402
 1872 0058 07EE907A 		vmov	s15, r7	@ int
 273:../../libdaisy/src/hid/disp/display.h **** 
 1873              		.loc 8 273 25 view .LVU403
 1874 005c B7EECAAB 		vcvt.f32.f64	s20, d10
 1875              	.LVL136:
 1876              	.LBB622:
 1877              	.LBI618:
 184:c:\users\vincius\documents\daisytoolchain-0.3.1\windows\arm-none-eabi\include\c++\10.2.1\cmath ****   { return __builtin_cosf(__x); }
 1878              		.loc 16 184 3 is_stmt 1 view .LVU404
 1879              	.LBB620:
 1880              		.loc 16 185 5 view .LVU405
 1881              		.loc 16 185 5 is_stmt 0 view .LVU406
 1882              	.LBE620:
 1883              	.LBE622:
 275:../../libdaisy/src/hid/disp/display.h ****         start_y = -sin(start_angle_rad) * radius;
 1884              		.loc 8 275 17 view .LVU407
 1885 0060 F8EE679A 		vcvt.f32.u32	s19, s15
 1886              	.LBB623:
 1887              	.LBB621:
 1888              		.loc 16 185 26 view .LVU408
 1889 0064 B0EE408A 		vmov.f32	s16, s0
 1890              	.LBE621:
 1891              	.LBE623:
 1892              	.LBB624:
 1893              	.LBB625:
 186:c:\users\vincius\documents\daisytoolchain-0.3.1\windows\arm-none-eabi\include\c++\10.2.1\cmath **** 
 187:c:\users\vincius\documents\daisytoolchain-0.3.1\windows\arm-none-eabi\include\c++\10.2.1\cmath ****   inline _GLIBCXX_CONSTEXPR long double
 188:c:\users\vincius\documents\daisytoolchain-0.3.1\windows\arm-none-eabi\include\c++\10.2.1\cmath ****   cos(long double __x)
 189:c:\users\vincius\documents\daisytoolchain-0.3.1\windows\arm-none-eabi\include\c++\10.2.1\cmath ****   { return __builtin_cosl(__x); }
 190:c:\users\vincius\documents\daisytoolchain-0.3.1\windows\arm-none-eabi\include\c++\10.2.1\cmath **** #endif
 191:c:\users\vincius\documents\daisytoolchain-0.3.1\windows\arm-none-eabi\include\c++\10.2.1\cmath **** 
 192:c:\users\vincius\documents\daisytoolchain-0.3.1\windows\arm-none-eabi\include\c++\10.2.1\cmath ****   template<typename _Tp>
 193:c:\users\vincius\documents\daisytoolchain-0.3.1\windows\arm-none-eabi\include\c++\10.2.1\cmath ****     inline _GLIBCXX_CONSTEXPR
 194:c:\users\vincius\documents\daisytoolchain-0.3.1\windows\arm-none-eabi\include\c++\10.2.1\cmath ****     typename __gnu_cxx::__enable_if<__is_integer<_Tp>::__value,
 195:c:\users\vincius\documents\daisytoolchain-0.3.1\windows\arm-none-eabi\include\c++\10.2.1\cmath ****                                     double>::__type
 196:c:\users\vincius\documents\daisytoolchain-0.3.1\windows\arm-none-eabi\include\c++\10.2.1\cmath ****     cos(_Tp __x)
 197:c:\users\vincius\documents\daisytoolchain-0.3.1\windows\arm-none-eabi\include\c++\10.2.1\cmath ****     { return __builtin_cos(__x); }
 198:c:\users\vincius\documents\daisytoolchain-0.3.1\windows\arm-none-eabi\include\c++\10.2.1\cmath **** 
 199:c:\users\vincius\documents\daisytoolchain-0.3.1\windows\arm-none-eabi\include\c++\10.2.1\cmath ****   using ::cosh;
 200:c:\users\vincius\documents\daisytoolchain-0.3.1\windows\arm-none-eabi\include\c++\10.2.1\cmath **** 
 201:c:\users\vincius\documents\daisytoolchain-0.3.1\windows\arm-none-eabi\include\c++\10.2.1\cmath **** #ifndef __CORRECT_ISO_CPP_MATH_H_PROTO
 202:c:\users\vincius\documents\daisytoolchain-0.3.1\windows\arm-none-eabi\include\c++\10.2.1\cmath ****   inline _GLIBCXX_CONSTEXPR float
 203:c:\users\vincius\documents\daisytoolchain-0.3.1\windows\arm-none-eabi\include\c++\10.2.1\cmath ****   cosh(float __x)
 204:c:\users\vincius\documents\daisytoolchain-0.3.1\windows\arm-none-eabi\include\c++\10.2.1\cmath ****   { return __builtin_coshf(__x); }
 205:c:\users\vincius\documents\daisytoolchain-0.3.1\windows\arm-none-eabi\include\c++\10.2.1\cmath **** 
 206:c:\users\vincius\documents\daisytoolchain-0.3.1\windows\arm-none-eabi\include\c++\10.2.1\cmath ****   inline _GLIBCXX_CONSTEXPR long double
 207:c:\users\vincius\documents\daisytoolchain-0.3.1\windows\arm-none-eabi\include\c++\10.2.1\cmath ****   cosh(long double __x)
 208:c:\users\vincius\documents\daisytoolchain-0.3.1\windows\arm-none-eabi\include\c++\10.2.1\cmath ****   { return __builtin_coshl(__x); }
 209:c:\users\vincius\documents\daisytoolchain-0.3.1\windows\arm-none-eabi\include\c++\10.2.1\cmath **** #endif
 210:c:\users\vincius\documents\daisytoolchain-0.3.1\windows\arm-none-eabi\include\c++\10.2.1\cmath **** 
 211:c:\users\vincius\documents\daisytoolchain-0.3.1\windows\arm-none-eabi\include\c++\10.2.1\cmath ****   template<typename _Tp>
 212:c:\users\vincius\documents\daisytoolchain-0.3.1\windows\arm-none-eabi\include\c++\10.2.1\cmath ****     inline _GLIBCXX_CONSTEXPR
 213:c:\users\vincius\documents\daisytoolchain-0.3.1\windows\arm-none-eabi\include\c++\10.2.1\cmath ****     typename __gnu_cxx::__enable_if<__is_integer<_Tp>::__value,
 214:c:\users\vincius\documents\daisytoolchain-0.3.1\windows\arm-none-eabi\include\c++\10.2.1\cmath ****                                     double>::__type
 215:c:\users\vincius\documents\daisytoolchain-0.3.1\windows\arm-none-eabi\include\c++\10.2.1\cmath ****     cosh(_Tp __x)
ARM GAS  C:\Users\VINCIU~1\AppData\Local\Temp\ccUTXsQS.s 			page 66


 216:c:\users\vincius\documents\daisytoolchain-0.3.1\windows\arm-none-eabi\include\c++\10.2.1\cmath ****     { return __builtin_cosh(__x); }
 217:c:\users\vincius\documents\daisytoolchain-0.3.1\windows\arm-none-eabi\include\c++\10.2.1\cmath **** 
 218:c:\users\vincius\documents\daisytoolchain-0.3.1\windows\arm-none-eabi\include\c++\10.2.1\cmath ****   using ::exp;
 219:c:\users\vincius\documents\daisytoolchain-0.3.1\windows\arm-none-eabi\include\c++\10.2.1\cmath **** 
 220:c:\users\vincius\documents\daisytoolchain-0.3.1\windows\arm-none-eabi\include\c++\10.2.1\cmath **** #ifndef __CORRECT_ISO_CPP_MATH_H_PROTO
 221:c:\users\vincius\documents\daisytoolchain-0.3.1\windows\arm-none-eabi\include\c++\10.2.1\cmath ****   inline _GLIBCXX_CONSTEXPR float
 222:c:\users\vincius\documents\daisytoolchain-0.3.1\windows\arm-none-eabi\include\c++\10.2.1\cmath ****   exp(float __x)
 223:c:\users\vincius\documents\daisytoolchain-0.3.1\windows\arm-none-eabi\include\c++\10.2.1\cmath ****   { return __builtin_expf(__x); }
 224:c:\users\vincius\documents\daisytoolchain-0.3.1\windows\arm-none-eabi\include\c++\10.2.1\cmath **** 
 225:c:\users\vincius\documents\daisytoolchain-0.3.1\windows\arm-none-eabi\include\c++\10.2.1\cmath ****   inline _GLIBCXX_CONSTEXPR long double
 226:c:\users\vincius\documents\daisytoolchain-0.3.1\windows\arm-none-eabi\include\c++\10.2.1\cmath ****   exp(long double __x)
 227:c:\users\vincius\documents\daisytoolchain-0.3.1\windows\arm-none-eabi\include\c++\10.2.1\cmath ****   { return __builtin_expl(__x); }
 228:c:\users\vincius\documents\daisytoolchain-0.3.1\windows\arm-none-eabi\include\c++\10.2.1\cmath **** #endif
 229:c:\users\vincius\documents\daisytoolchain-0.3.1\windows\arm-none-eabi\include\c++\10.2.1\cmath **** 
 230:c:\users\vincius\documents\daisytoolchain-0.3.1\windows\arm-none-eabi\include\c++\10.2.1\cmath ****   template<typename _Tp>
 231:c:\users\vincius\documents\daisytoolchain-0.3.1\windows\arm-none-eabi\include\c++\10.2.1\cmath ****     inline _GLIBCXX_CONSTEXPR
 232:c:\users\vincius\documents\daisytoolchain-0.3.1\windows\arm-none-eabi\include\c++\10.2.1\cmath ****     typename __gnu_cxx::__enable_if<__is_integer<_Tp>::__value,
 233:c:\users\vincius\documents\daisytoolchain-0.3.1\windows\arm-none-eabi\include\c++\10.2.1\cmath ****                                     double>::__type
 234:c:\users\vincius\documents\daisytoolchain-0.3.1\windows\arm-none-eabi\include\c++\10.2.1\cmath ****     exp(_Tp __x)
 235:c:\users\vincius\documents\daisytoolchain-0.3.1\windows\arm-none-eabi\include\c++\10.2.1\cmath ****     { return __builtin_exp(__x); }
 236:c:\users\vincius\documents\daisytoolchain-0.3.1\windows\arm-none-eabi\include\c++\10.2.1\cmath **** 
 237:c:\users\vincius\documents\daisytoolchain-0.3.1\windows\arm-none-eabi\include\c++\10.2.1\cmath ****   using ::fabs;
 238:c:\users\vincius\documents\daisytoolchain-0.3.1\windows\arm-none-eabi\include\c++\10.2.1\cmath **** 
 239:c:\users\vincius\documents\daisytoolchain-0.3.1\windows\arm-none-eabi\include\c++\10.2.1\cmath **** #ifndef __CORRECT_ISO_CPP_MATH_H_PROTO
 240:c:\users\vincius\documents\daisytoolchain-0.3.1\windows\arm-none-eabi\include\c++\10.2.1\cmath ****   inline _GLIBCXX_CONSTEXPR float
 241:c:\users\vincius\documents\daisytoolchain-0.3.1\windows\arm-none-eabi\include\c++\10.2.1\cmath ****   fabs(float __x)
 242:c:\users\vincius\documents\daisytoolchain-0.3.1\windows\arm-none-eabi\include\c++\10.2.1\cmath ****   { return __builtin_fabsf(__x); }
 243:c:\users\vincius\documents\daisytoolchain-0.3.1\windows\arm-none-eabi\include\c++\10.2.1\cmath **** 
 244:c:\users\vincius\documents\daisytoolchain-0.3.1\windows\arm-none-eabi\include\c++\10.2.1\cmath ****   inline _GLIBCXX_CONSTEXPR long double
 245:c:\users\vincius\documents\daisytoolchain-0.3.1\windows\arm-none-eabi\include\c++\10.2.1\cmath ****   fabs(long double __x)
 246:c:\users\vincius\documents\daisytoolchain-0.3.1\windows\arm-none-eabi\include\c++\10.2.1\cmath ****   { return __builtin_fabsl(__x); }
 247:c:\users\vincius\documents\daisytoolchain-0.3.1\windows\arm-none-eabi\include\c++\10.2.1\cmath **** #endif
 248:c:\users\vincius\documents\daisytoolchain-0.3.1\windows\arm-none-eabi\include\c++\10.2.1\cmath **** 
 249:c:\users\vincius\documents\daisytoolchain-0.3.1\windows\arm-none-eabi\include\c++\10.2.1\cmath ****   template<typename _Tp>
 250:c:\users\vincius\documents\daisytoolchain-0.3.1\windows\arm-none-eabi\include\c++\10.2.1\cmath ****     inline _GLIBCXX_CONSTEXPR
 251:c:\users\vincius\documents\daisytoolchain-0.3.1\windows\arm-none-eabi\include\c++\10.2.1\cmath ****     typename __gnu_cxx::__enable_if<__is_integer<_Tp>::__value,
 252:c:\users\vincius\documents\daisytoolchain-0.3.1\windows\arm-none-eabi\include\c++\10.2.1\cmath ****                                     double>::__type
 253:c:\users\vincius\documents\daisytoolchain-0.3.1\windows\arm-none-eabi\include\c++\10.2.1\cmath ****     fabs(_Tp __x)
 254:c:\users\vincius\documents\daisytoolchain-0.3.1\windows\arm-none-eabi\include\c++\10.2.1\cmath ****     { return __builtin_fabs(__x); }
 255:c:\users\vincius\documents\daisytoolchain-0.3.1\windows\arm-none-eabi\include\c++\10.2.1\cmath **** 
 256:c:\users\vincius\documents\daisytoolchain-0.3.1\windows\arm-none-eabi\include\c++\10.2.1\cmath ****   using ::floor;
 257:c:\users\vincius\documents\daisytoolchain-0.3.1\windows\arm-none-eabi\include\c++\10.2.1\cmath **** 
 258:c:\users\vincius\documents\daisytoolchain-0.3.1\windows\arm-none-eabi\include\c++\10.2.1\cmath **** #ifndef __CORRECT_ISO_CPP_MATH_H_PROTO
 259:c:\users\vincius\documents\daisytoolchain-0.3.1\windows\arm-none-eabi\include\c++\10.2.1\cmath ****   inline _GLIBCXX_CONSTEXPR float
 260:c:\users\vincius\documents\daisytoolchain-0.3.1\windows\arm-none-eabi\include\c++\10.2.1\cmath ****   floor(float __x)
 261:c:\users\vincius\documents\daisytoolchain-0.3.1\windows\arm-none-eabi\include\c++\10.2.1\cmath ****   { return __builtin_floorf(__x); }
 262:c:\users\vincius\documents\daisytoolchain-0.3.1\windows\arm-none-eabi\include\c++\10.2.1\cmath **** 
 263:c:\users\vincius\documents\daisytoolchain-0.3.1\windows\arm-none-eabi\include\c++\10.2.1\cmath ****   inline _GLIBCXX_CONSTEXPR long double
 264:c:\users\vincius\documents\daisytoolchain-0.3.1\windows\arm-none-eabi\include\c++\10.2.1\cmath ****   floor(long double __x)
 265:c:\users\vincius\documents\daisytoolchain-0.3.1\windows\arm-none-eabi\include\c++\10.2.1\cmath ****   { return __builtin_floorl(__x); }
 266:c:\users\vincius\documents\daisytoolchain-0.3.1\windows\arm-none-eabi\include\c++\10.2.1\cmath **** #endif
 267:c:\users\vincius\documents\daisytoolchain-0.3.1\windows\arm-none-eabi\include\c++\10.2.1\cmath **** 
 268:c:\users\vincius\documents\daisytoolchain-0.3.1\windows\arm-none-eabi\include\c++\10.2.1\cmath ****   template<typename _Tp>
 269:c:\users\vincius\documents\daisytoolchain-0.3.1\windows\arm-none-eabi\include\c++\10.2.1\cmath ****     inline _GLIBCXX_CONSTEXPR
 270:c:\users\vincius\documents\daisytoolchain-0.3.1\windows\arm-none-eabi\include\c++\10.2.1\cmath ****     typename __gnu_cxx::__enable_if<__is_integer<_Tp>::__value,
 271:c:\users\vincius\documents\daisytoolchain-0.3.1\windows\arm-none-eabi\include\c++\10.2.1\cmath ****                                     double>::__type
 272:c:\users\vincius\documents\daisytoolchain-0.3.1\windows\arm-none-eabi\include\c++\10.2.1\cmath ****     floor(_Tp __x)
ARM GAS  C:\Users\VINCIU~1\AppData\Local\Temp\ccUTXsQS.s 			page 67


 273:c:\users\vincius\documents\daisytoolchain-0.3.1\windows\arm-none-eabi\include\c++\10.2.1\cmath ****     { return __builtin_floor(__x); }
 274:c:\users\vincius\documents\daisytoolchain-0.3.1\windows\arm-none-eabi\include\c++\10.2.1\cmath **** 
 275:c:\users\vincius\documents\daisytoolchain-0.3.1\windows\arm-none-eabi\include\c++\10.2.1\cmath ****   using ::fmod;
 276:c:\users\vincius\documents\daisytoolchain-0.3.1\windows\arm-none-eabi\include\c++\10.2.1\cmath **** 
 277:c:\users\vincius\documents\daisytoolchain-0.3.1\windows\arm-none-eabi\include\c++\10.2.1\cmath **** #ifndef __CORRECT_ISO_CPP_MATH_H_PROTO
 278:c:\users\vincius\documents\daisytoolchain-0.3.1\windows\arm-none-eabi\include\c++\10.2.1\cmath ****   inline _GLIBCXX_CONSTEXPR float
 279:c:\users\vincius\documents\daisytoolchain-0.3.1\windows\arm-none-eabi\include\c++\10.2.1\cmath ****   fmod(float __x, float __y)
 280:c:\users\vincius\documents\daisytoolchain-0.3.1\windows\arm-none-eabi\include\c++\10.2.1\cmath ****   { return __builtin_fmodf(__x, __y); }
 281:c:\users\vincius\documents\daisytoolchain-0.3.1\windows\arm-none-eabi\include\c++\10.2.1\cmath **** 
 282:c:\users\vincius\documents\daisytoolchain-0.3.1\windows\arm-none-eabi\include\c++\10.2.1\cmath ****   inline _GLIBCXX_CONSTEXPR long double
 283:c:\users\vincius\documents\daisytoolchain-0.3.1\windows\arm-none-eabi\include\c++\10.2.1\cmath ****   fmod(long double __x, long double __y)
 284:c:\users\vincius\documents\daisytoolchain-0.3.1\windows\arm-none-eabi\include\c++\10.2.1\cmath ****   { return __builtin_fmodl(__x, __y); }
 285:c:\users\vincius\documents\daisytoolchain-0.3.1\windows\arm-none-eabi\include\c++\10.2.1\cmath **** #endif
 286:c:\users\vincius\documents\daisytoolchain-0.3.1\windows\arm-none-eabi\include\c++\10.2.1\cmath **** 
 287:c:\users\vincius\documents\daisytoolchain-0.3.1\windows\arm-none-eabi\include\c++\10.2.1\cmath ****   template<typename _Tp, typename _Up>
 288:c:\users\vincius\documents\daisytoolchain-0.3.1\windows\arm-none-eabi\include\c++\10.2.1\cmath ****     inline _GLIBCXX_CONSTEXPR
 289:c:\users\vincius\documents\daisytoolchain-0.3.1\windows\arm-none-eabi\include\c++\10.2.1\cmath ****     typename __gnu_cxx::__promote_2<_Tp, _Up>::__type
 290:c:\users\vincius\documents\daisytoolchain-0.3.1\windows\arm-none-eabi\include\c++\10.2.1\cmath ****     fmod(_Tp __x, _Up __y)
 291:c:\users\vincius\documents\daisytoolchain-0.3.1\windows\arm-none-eabi\include\c++\10.2.1\cmath ****     {
 292:c:\users\vincius\documents\daisytoolchain-0.3.1\windows\arm-none-eabi\include\c++\10.2.1\cmath ****       typedef typename __gnu_cxx::__promote_2<_Tp, _Up>::__type __type;
 293:c:\users\vincius\documents\daisytoolchain-0.3.1\windows\arm-none-eabi\include\c++\10.2.1\cmath ****       return fmod(__type(__x), __type(__y));
 294:c:\users\vincius\documents\daisytoolchain-0.3.1\windows\arm-none-eabi\include\c++\10.2.1\cmath ****     }
 295:c:\users\vincius\documents\daisytoolchain-0.3.1\windows\arm-none-eabi\include\c++\10.2.1\cmath **** 
 296:c:\users\vincius\documents\daisytoolchain-0.3.1\windows\arm-none-eabi\include\c++\10.2.1\cmath ****   using ::frexp;
 297:c:\users\vincius\documents\daisytoolchain-0.3.1\windows\arm-none-eabi\include\c++\10.2.1\cmath **** 
 298:c:\users\vincius\documents\daisytoolchain-0.3.1\windows\arm-none-eabi\include\c++\10.2.1\cmath **** #ifndef __CORRECT_ISO_CPP_MATH_H_PROTO
 299:c:\users\vincius\documents\daisytoolchain-0.3.1\windows\arm-none-eabi\include\c++\10.2.1\cmath ****   inline float
 300:c:\users\vincius\documents\daisytoolchain-0.3.1\windows\arm-none-eabi\include\c++\10.2.1\cmath ****   frexp(float __x, int* __exp)
 301:c:\users\vincius\documents\daisytoolchain-0.3.1\windows\arm-none-eabi\include\c++\10.2.1\cmath ****   { return __builtin_frexpf(__x, __exp); }
 302:c:\users\vincius\documents\daisytoolchain-0.3.1\windows\arm-none-eabi\include\c++\10.2.1\cmath **** 
 303:c:\users\vincius\documents\daisytoolchain-0.3.1\windows\arm-none-eabi\include\c++\10.2.1\cmath ****   inline long double
 304:c:\users\vincius\documents\daisytoolchain-0.3.1\windows\arm-none-eabi\include\c++\10.2.1\cmath ****   frexp(long double __x, int* __exp)
 305:c:\users\vincius\documents\daisytoolchain-0.3.1\windows\arm-none-eabi\include\c++\10.2.1\cmath ****   { return __builtin_frexpl(__x, __exp); }
 306:c:\users\vincius\documents\daisytoolchain-0.3.1\windows\arm-none-eabi\include\c++\10.2.1\cmath **** #endif
 307:c:\users\vincius\documents\daisytoolchain-0.3.1\windows\arm-none-eabi\include\c++\10.2.1\cmath **** 
 308:c:\users\vincius\documents\daisytoolchain-0.3.1\windows\arm-none-eabi\include\c++\10.2.1\cmath ****   template<typename _Tp>
 309:c:\users\vincius\documents\daisytoolchain-0.3.1\windows\arm-none-eabi\include\c++\10.2.1\cmath ****     inline _GLIBCXX_CONSTEXPR
 310:c:\users\vincius\documents\daisytoolchain-0.3.1\windows\arm-none-eabi\include\c++\10.2.1\cmath ****     typename __gnu_cxx::__enable_if<__is_integer<_Tp>::__value, 
 311:c:\users\vincius\documents\daisytoolchain-0.3.1\windows\arm-none-eabi\include\c++\10.2.1\cmath ****                                     double>::__type
 312:c:\users\vincius\documents\daisytoolchain-0.3.1\windows\arm-none-eabi\include\c++\10.2.1\cmath ****     frexp(_Tp __x, int* __exp)
 313:c:\users\vincius\documents\daisytoolchain-0.3.1\windows\arm-none-eabi\include\c++\10.2.1\cmath ****     { return __builtin_frexp(__x, __exp); }
 314:c:\users\vincius\documents\daisytoolchain-0.3.1\windows\arm-none-eabi\include\c++\10.2.1\cmath **** 
 315:c:\users\vincius\documents\daisytoolchain-0.3.1\windows\arm-none-eabi\include\c++\10.2.1\cmath ****   using ::ldexp;
 316:c:\users\vincius\documents\daisytoolchain-0.3.1\windows\arm-none-eabi\include\c++\10.2.1\cmath **** 
 317:c:\users\vincius\documents\daisytoolchain-0.3.1\windows\arm-none-eabi\include\c++\10.2.1\cmath **** #ifndef __CORRECT_ISO_CPP_MATH_H_PROTO
 318:c:\users\vincius\documents\daisytoolchain-0.3.1\windows\arm-none-eabi\include\c++\10.2.1\cmath ****   inline _GLIBCXX_CONSTEXPR float
 319:c:\users\vincius\documents\daisytoolchain-0.3.1\windows\arm-none-eabi\include\c++\10.2.1\cmath ****   ldexp(float __x, int __exp)
 320:c:\users\vincius\documents\daisytoolchain-0.3.1\windows\arm-none-eabi\include\c++\10.2.1\cmath ****   { return __builtin_ldexpf(__x, __exp); }
 321:c:\users\vincius\documents\daisytoolchain-0.3.1\windows\arm-none-eabi\include\c++\10.2.1\cmath **** 
 322:c:\users\vincius\documents\daisytoolchain-0.3.1\windows\arm-none-eabi\include\c++\10.2.1\cmath ****   inline _GLIBCXX_CONSTEXPR long double
 323:c:\users\vincius\documents\daisytoolchain-0.3.1\windows\arm-none-eabi\include\c++\10.2.1\cmath ****   ldexp(long double __x, int __exp)
 324:c:\users\vincius\documents\daisytoolchain-0.3.1\windows\arm-none-eabi\include\c++\10.2.1\cmath ****   { return __builtin_ldexpl(__x, __exp); }
 325:c:\users\vincius\documents\daisytoolchain-0.3.1\windows\arm-none-eabi\include\c++\10.2.1\cmath **** #endif
 326:c:\users\vincius\documents\daisytoolchain-0.3.1\windows\arm-none-eabi\include\c++\10.2.1\cmath **** 
 327:c:\users\vincius\documents\daisytoolchain-0.3.1\windows\arm-none-eabi\include\c++\10.2.1\cmath ****   template<typename _Tp>
 328:c:\users\vincius\documents\daisytoolchain-0.3.1\windows\arm-none-eabi\include\c++\10.2.1\cmath ****     inline _GLIBCXX_CONSTEXPR
 329:c:\users\vincius\documents\daisytoolchain-0.3.1\windows\arm-none-eabi\include\c++\10.2.1\cmath ****     typename __gnu_cxx::__enable_if<__is_integer<_Tp>::__value, 
ARM GAS  C:\Users\VINCIU~1\AppData\Local\Temp\ccUTXsQS.s 			page 68


 330:c:\users\vincius\documents\daisytoolchain-0.3.1\windows\arm-none-eabi\include\c++\10.2.1\cmath ****                                     double>::__type
 331:c:\users\vincius\documents\daisytoolchain-0.3.1\windows\arm-none-eabi\include\c++\10.2.1\cmath ****     ldexp(_Tp __x, int __exp)
 332:c:\users\vincius\documents\daisytoolchain-0.3.1\windows\arm-none-eabi\include\c++\10.2.1\cmath ****     { return __builtin_ldexp(__x, __exp); }
 333:c:\users\vincius\documents\daisytoolchain-0.3.1\windows\arm-none-eabi\include\c++\10.2.1\cmath **** 
 334:c:\users\vincius\documents\daisytoolchain-0.3.1\windows\arm-none-eabi\include\c++\10.2.1\cmath ****   using ::log;
 335:c:\users\vincius\documents\daisytoolchain-0.3.1\windows\arm-none-eabi\include\c++\10.2.1\cmath **** 
 336:c:\users\vincius\documents\daisytoolchain-0.3.1\windows\arm-none-eabi\include\c++\10.2.1\cmath **** #ifndef __CORRECT_ISO_CPP_MATH_H_PROTO
 337:c:\users\vincius\documents\daisytoolchain-0.3.1\windows\arm-none-eabi\include\c++\10.2.1\cmath ****   inline _GLIBCXX_CONSTEXPR float
 338:c:\users\vincius\documents\daisytoolchain-0.3.1\windows\arm-none-eabi\include\c++\10.2.1\cmath ****   log(float __x)
 339:c:\users\vincius\documents\daisytoolchain-0.3.1\windows\arm-none-eabi\include\c++\10.2.1\cmath ****   { return __builtin_logf(__x); }
 340:c:\users\vincius\documents\daisytoolchain-0.3.1\windows\arm-none-eabi\include\c++\10.2.1\cmath **** 
 341:c:\users\vincius\documents\daisytoolchain-0.3.1\windows\arm-none-eabi\include\c++\10.2.1\cmath ****   inline _GLIBCXX_CONSTEXPR long double
 342:c:\users\vincius\documents\daisytoolchain-0.3.1\windows\arm-none-eabi\include\c++\10.2.1\cmath ****   log(long double __x)
 343:c:\users\vincius\documents\daisytoolchain-0.3.1\windows\arm-none-eabi\include\c++\10.2.1\cmath ****   { return __builtin_logl(__x); }
 344:c:\users\vincius\documents\daisytoolchain-0.3.1\windows\arm-none-eabi\include\c++\10.2.1\cmath **** #endif
 345:c:\users\vincius\documents\daisytoolchain-0.3.1\windows\arm-none-eabi\include\c++\10.2.1\cmath **** 
 346:c:\users\vincius\documents\daisytoolchain-0.3.1\windows\arm-none-eabi\include\c++\10.2.1\cmath ****   template<typename _Tp>
 347:c:\users\vincius\documents\daisytoolchain-0.3.1\windows\arm-none-eabi\include\c++\10.2.1\cmath ****     inline _GLIBCXX_CONSTEXPR
 348:c:\users\vincius\documents\daisytoolchain-0.3.1\windows\arm-none-eabi\include\c++\10.2.1\cmath ****     typename __gnu_cxx::__enable_if<__is_integer<_Tp>::__value, 
 349:c:\users\vincius\documents\daisytoolchain-0.3.1\windows\arm-none-eabi\include\c++\10.2.1\cmath ****                                     double>::__type
 350:c:\users\vincius\documents\daisytoolchain-0.3.1\windows\arm-none-eabi\include\c++\10.2.1\cmath ****     log(_Tp __x)
 351:c:\users\vincius\documents\daisytoolchain-0.3.1\windows\arm-none-eabi\include\c++\10.2.1\cmath ****     { return __builtin_log(__x); }
 352:c:\users\vincius\documents\daisytoolchain-0.3.1\windows\arm-none-eabi\include\c++\10.2.1\cmath **** 
 353:c:\users\vincius\documents\daisytoolchain-0.3.1\windows\arm-none-eabi\include\c++\10.2.1\cmath ****   using ::log10;
 354:c:\users\vincius\documents\daisytoolchain-0.3.1\windows\arm-none-eabi\include\c++\10.2.1\cmath **** 
 355:c:\users\vincius\documents\daisytoolchain-0.3.1\windows\arm-none-eabi\include\c++\10.2.1\cmath **** #ifndef __CORRECT_ISO_CPP_MATH_H_PROTO
 356:c:\users\vincius\documents\daisytoolchain-0.3.1\windows\arm-none-eabi\include\c++\10.2.1\cmath ****   inline _GLIBCXX_CONSTEXPR float
 357:c:\users\vincius\documents\daisytoolchain-0.3.1\windows\arm-none-eabi\include\c++\10.2.1\cmath ****   log10(float __x)
 358:c:\users\vincius\documents\daisytoolchain-0.3.1\windows\arm-none-eabi\include\c++\10.2.1\cmath ****   { return __builtin_log10f(__x); }
 359:c:\users\vincius\documents\daisytoolchain-0.3.1\windows\arm-none-eabi\include\c++\10.2.1\cmath **** 
 360:c:\users\vincius\documents\daisytoolchain-0.3.1\windows\arm-none-eabi\include\c++\10.2.1\cmath ****   inline _GLIBCXX_CONSTEXPR long double
 361:c:\users\vincius\documents\daisytoolchain-0.3.1\windows\arm-none-eabi\include\c++\10.2.1\cmath ****   log10(long double __x)
 362:c:\users\vincius\documents\daisytoolchain-0.3.1\windows\arm-none-eabi\include\c++\10.2.1\cmath ****   { return __builtin_log10l(__x); }
 363:c:\users\vincius\documents\daisytoolchain-0.3.1\windows\arm-none-eabi\include\c++\10.2.1\cmath **** #endif
 364:c:\users\vincius\documents\daisytoolchain-0.3.1\windows\arm-none-eabi\include\c++\10.2.1\cmath **** 
 365:c:\users\vincius\documents\daisytoolchain-0.3.1\windows\arm-none-eabi\include\c++\10.2.1\cmath ****   template<typename _Tp>
 366:c:\users\vincius\documents\daisytoolchain-0.3.1\windows\arm-none-eabi\include\c++\10.2.1\cmath ****     inline _GLIBCXX_CONSTEXPR
 367:c:\users\vincius\documents\daisytoolchain-0.3.1\windows\arm-none-eabi\include\c++\10.2.1\cmath ****     typename __gnu_cxx::__enable_if<__is_integer<_Tp>::__value,
 368:c:\users\vincius\documents\daisytoolchain-0.3.1\windows\arm-none-eabi\include\c++\10.2.1\cmath ****                                     double>::__type
 369:c:\users\vincius\documents\daisytoolchain-0.3.1\windows\arm-none-eabi\include\c++\10.2.1\cmath ****     log10(_Tp __x)
 370:c:\users\vincius\documents\daisytoolchain-0.3.1\windows\arm-none-eabi\include\c++\10.2.1\cmath ****     { return __builtin_log10(__x); }
 371:c:\users\vincius\documents\daisytoolchain-0.3.1\windows\arm-none-eabi\include\c++\10.2.1\cmath **** 
 372:c:\users\vincius\documents\daisytoolchain-0.3.1\windows\arm-none-eabi\include\c++\10.2.1\cmath ****   using ::modf;
 373:c:\users\vincius\documents\daisytoolchain-0.3.1\windows\arm-none-eabi\include\c++\10.2.1\cmath **** 
 374:c:\users\vincius\documents\daisytoolchain-0.3.1\windows\arm-none-eabi\include\c++\10.2.1\cmath **** #ifndef __CORRECT_ISO_CPP_MATH_H_PROTO
 375:c:\users\vincius\documents\daisytoolchain-0.3.1\windows\arm-none-eabi\include\c++\10.2.1\cmath ****   inline float
 376:c:\users\vincius\documents\daisytoolchain-0.3.1\windows\arm-none-eabi\include\c++\10.2.1\cmath ****   modf(float __x, float* __iptr)
 377:c:\users\vincius\documents\daisytoolchain-0.3.1\windows\arm-none-eabi\include\c++\10.2.1\cmath ****   { return __builtin_modff(__x, __iptr); }
 378:c:\users\vincius\documents\daisytoolchain-0.3.1\windows\arm-none-eabi\include\c++\10.2.1\cmath **** 
 379:c:\users\vincius\documents\daisytoolchain-0.3.1\windows\arm-none-eabi\include\c++\10.2.1\cmath ****   inline long double
 380:c:\users\vincius\documents\daisytoolchain-0.3.1\windows\arm-none-eabi\include\c++\10.2.1\cmath ****   modf(long double __x, long double* __iptr)
 381:c:\users\vincius\documents\daisytoolchain-0.3.1\windows\arm-none-eabi\include\c++\10.2.1\cmath ****   { return __builtin_modfl(__x, __iptr); }
 382:c:\users\vincius\documents\daisytoolchain-0.3.1\windows\arm-none-eabi\include\c++\10.2.1\cmath **** #endif
 383:c:\users\vincius\documents\daisytoolchain-0.3.1\windows\arm-none-eabi\include\c++\10.2.1\cmath **** 
 384:c:\users\vincius\documents\daisytoolchain-0.3.1\windows\arm-none-eabi\include\c++\10.2.1\cmath ****   using ::pow;
 385:c:\users\vincius\documents\daisytoolchain-0.3.1\windows\arm-none-eabi\include\c++\10.2.1\cmath **** 
 386:c:\users\vincius\documents\daisytoolchain-0.3.1\windows\arm-none-eabi\include\c++\10.2.1\cmath **** #ifndef __CORRECT_ISO_CPP_MATH_H_PROTO
ARM GAS  C:\Users\VINCIU~1\AppData\Local\Temp\ccUTXsQS.s 			page 69


 387:c:\users\vincius\documents\daisytoolchain-0.3.1\windows\arm-none-eabi\include\c++\10.2.1\cmath ****   inline _GLIBCXX_CONSTEXPR float
 388:c:\users\vincius\documents\daisytoolchain-0.3.1\windows\arm-none-eabi\include\c++\10.2.1\cmath ****   pow(float __x, float __y)
 389:c:\users\vincius\documents\daisytoolchain-0.3.1\windows\arm-none-eabi\include\c++\10.2.1\cmath ****   { return __builtin_powf(__x, __y); }
 390:c:\users\vincius\documents\daisytoolchain-0.3.1\windows\arm-none-eabi\include\c++\10.2.1\cmath **** 
 391:c:\users\vincius\documents\daisytoolchain-0.3.1\windows\arm-none-eabi\include\c++\10.2.1\cmath ****   inline _GLIBCXX_CONSTEXPR long double
 392:c:\users\vincius\documents\daisytoolchain-0.3.1\windows\arm-none-eabi\include\c++\10.2.1\cmath ****   pow(long double __x, long double __y)
 393:c:\users\vincius\documents\daisytoolchain-0.3.1\windows\arm-none-eabi\include\c++\10.2.1\cmath ****   { return __builtin_powl(__x, __y); }
 394:c:\users\vincius\documents\daisytoolchain-0.3.1\windows\arm-none-eabi\include\c++\10.2.1\cmath **** 
 395:c:\users\vincius\documents\daisytoolchain-0.3.1\windows\arm-none-eabi\include\c++\10.2.1\cmath **** #if __cplusplus < 201103L
 396:c:\users\vincius\documents\daisytoolchain-0.3.1\windows\arm-none-eabi\include\c++\10.2.1\cmath ****   // _GLIBCXX_RESOLVE_LIB_DEFECTS
 397:c:\users\vincius\documents\daisytoolchain-0.3.1\windows\arm-none-eabi\include\c++\10.2.1\cmath ****   // DR 550. What should the return type of pow(float,int) be?
 398:c:\users\vincius\documents\daisytoolchain-0.3.1\windows\arm-none-eabi\include\c++\10.2.1\cmath ****   inline double
 399:c:\users\vincius\documents\daisytoolchain-0.3.1\windows\arm-none-eabi\include\c++\10.2.1\cmath ****   pow(double __x, int __i)
 400:c:\users\vincius\documents\daisytoolchain-0.3.1\windows\arm-none-eabi\include\c++\10.2.1\cmath ****   { return __builtin_powi(__x, __i); }
 401:c:\users\vincius\documents\daisytoolchain-0.3.1\windows\arm-none-eabi\include\c++\10.2.1\cmath **** 
 402:c:\users\vincius\documents\daisytoolchain-0.3.1\windows\arm-none-eabi\include\c++\10.2.1\cmath ****   inline float
 403:c:\users\vincius\documents\daisytoolchain-0.3.1\windows\arm-none-eabi\include\c++\10.2.1\cmath ****   pow(float __x, int __n)
 404:c:\users\vincius\documents\daisytoolchain-0.3.1\windows\arm-none-eabi\include\c++\10.2.1\cmath ****   { return __builtin_powif(__x, __n); }
 405:c:\users\vincius\documents\daisytoolchain-0.3.1\windows\arm-none-eabi\include\c++\10.2.1\cmath **** 
 406:c:\users\vincius\documents\daisytoolchain-0.3.1\windows\arm-none-eabi\include\c++\10.2.1\cmath ****   inline long double
 407:c:\users\vincius\documents\daisytoolchain-0.3.1\windows\arm-none-eabi\include\c++\10.2.1\cmath ****   pow(long double __x, int __n)
 408:c:\users\vincius\documents\daisytoolchain-0.3.1\windows\arm-none-eabi\include\c++\10.2.1\cmath ****   { return __builtin_powil(__x, __n); }
 409:c:\users\vincius\documents\daisytoolchain-0.3.1\windows\arm-none-eabi\include\c++\10.2.1\cmath **** #endif
 410:c:\users\vincius\documents\daisytoolchain-0.3.1\windows\arm-none-eabi\include\c++\10.2.1\cmath **** #endif
 411:c:\users\vincius\documents\daisytoolchain-0.3.1\windows\arm-none-eabi\include\c++\10.2.1\cmath **** 
 412:c:\users\vincius\documents\daisytoolchain-0.3.1\windows\arm-none-eabi\include\c++\10.2.1\cmath ****   template<typename _Tp, typename _Up>
 413:c:\users\vincius\documents\daisytoolchain-0.3.1\windows\arm-none-eabi\include\c++\10.2.1\cmath ****     inline _GLIBCXX_CONSTEXPR
 414:c:\users\vincius\documents\daisytoolchain-0.3.1\windows\arm-none-eabi\include\c++\10.2.1\cmath ****     typename __gnu_cxx::__promote_2<_Tp, _Up>::__type
 415:c:\users\vincius\documents\daisytoolchain-0.3.1\windows\arm-none-eabi\include\c++\10.2.1\cmath ****     pow(_Tp __x, _Up __y)
 416:c:\users\vincius\documents\daisytoolchain-0.3.1\windows\arm-none-eabi\include\c++\10.2.1\cmath ****     {
 417:c:\users\vincius\documents\daisytoolchain-0.3.1\windows\arm-none-eabi\include\c++\10.2.1\cmath ****       typedef typename __gnu_cxx::__promote_2<_Tp, _Up>::__type __type;
 418:c:\users\vincius\documents\daisytoolchain-0.3.1\windows\arm-none-eabi\include\c++\10.2.1\cmath ****       return pow(__type(__x), __type(__y));
 419:c:\users\vincius\documents\daisytoolchain-0.3.1\windows\arm-none-eabi\include\c++\10.2.1\cmath ****     }
 420:c:\users\vincius\documents\daisytoolchain-0.3.1\windows\arm-none-eabi\include\c++\10.2.1\cmath **** 
 421:c:\users\vincius\documents\daisytoolchain-0.3.1\windows\arm-none-eabi\include\c++\10.2.1\cmath ****   using ::sin;
 422:c:\users\vincius\documents\daisytoolchain-0.3.1\windows\arm-none-eabi\include\c++\10.2.1\cmath **** 
 423:c:\users\vincius\documents\daisytoolchain-0.3.1\windows\arm-none-eabi\include\c++\10.2.1\cmath **** #ifndef __CORRECT_ISO_CPP_MATH_H_PROTO
 424:c:\users\vincius\documents\daisytoolchain-0.3.1\windows\arm-none-eabi\include\c++\10.2.1\cmath ****   inline _GLIBCXX_CONSTEXPR float
 425:c:\users\vincius\documents\daisytoolchain-0.3.1\windows\arm-none-eabi\include\c++\10.2.1\cmath ****   sin(float __x)
 426:c:\users\vincius\documents\daisytoolchain-0.3.1\windows\arm-none-eabi\include\c++\10.2.1\cmath ****   { return __builtin_sinf(__x); }
 1894              		.loc 16 426 26 view .LVU409
 1895 0068 B0EE680A 		vmov.f32	s0, s17
 1896 006c FFF7FEFF 		bl	sinf
 1897              	.LVL137:
 1898              	.LBE625:
 1899              	.LBE624:
 276:../../libdaisy/src/hid/disp/display.h ****         end_x   = cos(end_angle_rad) * radius;
 1900              		.loc 8 276 17 view .LVU410
 1901 0070 60EE698A 		vnmul.f32	s17, s0, s19
 1902              	.LVL138:
 1903              	.LBB627:
 1904              	.LBB628:
 185:c:\users\vincius\documents\daisytoolchain-0.3.1\windows\arm-none-eabi\include\c++\10.2.1\cmath **** 
 1905              		.loc 16 185 26 view .LVU411
 1906 0074 B0EE4A0A 		vmov.f32	s0, s20
 1907 0078 FFF7FEFF 		bl	cosf
 1908              	.LVL139:
ARM GAS  C:\Users\VINCIU~1\AppData\Local\Temp\ccUTXsQS.s 			page 70


 1909 007c B0EE409A 		vmov.f32	s18, s0
 1910              	.LBE628:
 1911              	.LBE627:
 1912              	.LBB630:
 1913              	.LBB631:
 1914              		.loc 16 426 26 view .LVU412
 1915 0080 B0EE4A0A 		vmov.f32	s0, s20
 1916 0084 FFF7FEFF 		bl	sinf
 1917              	.LVL140:
 1918              	.LBE631:
 1919              	.LBE630:
 278:../../libdaisy/src/hid/disp/display.h **** 
 1920              		.loc 8 278 17 view .LVU413
 1921 0088 20EE690A 		vnmul.f32	s0, s0, s19
 275:../../libdaisy/src/hid/disp/display.h ****         start_y = -sin(start_angle_rad) * radius;
 1922              		.loc 8 275 17 view .LVU414
 1923 008c 29EE888A 		vmul.f32	s16, s19, s16
 1924              	.LVL141:
 1925              	.LBB633:
 1926              	.LBI624:
 425:c:\users\vincius\documents\daisytoolchain-0.3.1\windows\arm-none-eabi\include\c++\10.2.1\cmath ****   { return __builtin_sinf(__x); }
 1927              		.loc 16 425 3 is_stmt 1 view .LVU415
 1928              	.LBB626:
 1929              		.loc 16 426 5 view .LVU416
 1930              		.loc 16 426 5 is_stmt 0 view .LVU417
 1931              	.LBE626:
 1932              	.LBE633:
 1933              	.LBB634:
 1934              	.LBI627:
 184:c:\users\vincius\documents\daisytoolchain-0.3.1\windows\arm-none-eabi\include\c++\10.2.1\cmath ****   { return __builtin_cosf(__x); }
 1935              		.loc 16 184 3 is_stmt 1 view .LVU418
 1936              	.LBB629:
 185:c:\users\vincius\documents\daisytoolchain-0.3.1\windows\arm-none-eabi\include\c++\10.2.1\cmath **** 
 1937              		.loc 16 185 5 view .LVU419
 185:c:\users\vincius\documents\daisytoolchain-0.3.1\windows\arm-none-eabi\include\c++\10.2.1\cmath **** 
 1938              		.loc 16 185 5 is_stmt 0 view .LVU420
 1939              	.LBE629:
 1940              	.LBE634:
 277:../../libdaisy/src/hid/disp/display.h ****         end_y   = -sin(end_angle_rad) * radius;
 1941              		.loc 8 277 17 view .LVU421
 1942 0090 29EE899A 		vmul.f32	s18, s19, s18
 1943              	.LVL142:
 1944              	.LBB635:
 1945              	.LBI630:
 425:c:\users\vincius\documents\daisytoolchain-0.3.1\windows\arm-none-eabi\include\c++\10.2.1\cmath ****   { return __builtin_sinf(__x); }
 1946              		.loc 16 425 3 is_stmt 1 view .LVU422
 1947              	.LBB632:
 1948              		.loc 16 426 5 view .LVU423
 1949              		.loc 16 426 5 is_stmt 0 view .LVU424
 1950              	.LBE632:
 1951              	.LBE635:
 282:../../libdaisy/src/hid/disp/display.h ****            < 2.0f)
 1952              		.loc 8 282 25 view .LVU425
 1953 0094 70EE687A 		vsub.f32	s15, s0, s17
 281:../../libdaisy/src/hid/disp/display.h ****                + (end_y - start_y) * (end_y - start_y)
 1954              		.loc 8 281 9 view .LVU426
 1955 0098 F0EE006A 		vmov.f32	s13, #2.0e+0
ARM GAS  C:\Users\VINCIU~1\AppData\Local\Temp\ccUTXsQS.s 			page 71


 281:../../libdaisy/src/hid/disp/display.h ****                + (end_y - start_y) * (end_y - start_y)
 1956              		.loc 8 281 19 view .LVU427
 1957 009c 39EE487A 		vsub.f32	s14, s18, s16
 282:../../libdaisy/src/hid/disp/display.h ****            < 2.0f)
 1958              		.loc 8 282 36 view .LVU428
 1959 00a0 67EEA77A 		vmul.f32	s15, s15, s15
 282:../../libdaisy/src/hid/disp/display.h ****            < 2.0f)
 1960              		.loc 8 282 16 view .LVU429
 1961 00a4 E7EE077A 		vfma.f32	s15, s14, s14
 281:../../libdaisy/src/hid/disp/display.h ****                + (end_y - start_y) * (end_y - start_y)
 1962              		.loc 8 281 9 view .LVU430
 1963 00a8 F4EEE67A 		vcmpe.f32	s15, s13
 1964 00ac F1EE10FA 		vmrs	APSR_nzcv, FPSCR
 1965 00b0 06D5     		bpl	.L179
 285:../../libdaisy/src/hid/disp/display.h ****                 circle = true;
 1966              		.loc 8 285 13 view .LVU431
 1967 00b2 139B     		ldr	r3, [sp, #76]
 1968 00b4 B42B     		cmp	r3, #180
 1969 00b6 40F39680 		ble	.L120
 286:../../libdaisy/src/hid/disp/display.h ****             else
 1970              		.loc 8 286 24 view .LVU432
 1971 00ba 4FF00109 		mov	r9, #1
 1972 00be 01E0     		b	.L123
 1973              	.L179:
 264:../../libdaisy/src/hid/disp/display.h **** 
 1974              		.loc 8 264 14 view .LVU433
 1975 00c0 4FF00009 		mov	r9, #0
 1976              	.L123:
 1977              	.LVL143:
 262:../../libdaisy/src/hid/disp/display.h **** 
 1978              		.loc 8 262 27 view .LVU434
 1979 00c4 0124     		movs	r4, #1
 292:../../libdaisy/src/hid/disp/display.h ****         t_y = 0;
 1980              		.loc 8 292 13 view .LVU435
 1981 00c6 7842     		rsbs	r0, r7, #0
 1982              	.LVL144:
 293:../../libdaisy/src/hid/disp/display.h ****         err = 2 - 2 * radius;
 1983              		.loc 8 293 13 view .LVU436
 1984 00c8 4FF0000C 		mov	ip, #0
 1985 00cc 0095     		str	r5, [sp]
 294:../../libdaisy/src/hid/disp/display.h **** 
 1986              		.loc 8 294 17 view .LVU437
 1987 00ce E31B     		subs	r3, r4, r7
 262:../../libdaisy/src/hid/disp/display.h **** 
 1988              		.loc 8 262 17 view .LVU438
 1989 00d0 2146     		mov	r1, r4
 262:../../libdaisy/src/hid/disp/display.h **** 
 1990              		.loc 8 262 22 view .LVU439
 1991 00d2 2746     		mov	r7, r4
 1992              	.LVL145:
 262:../../libdaisy/src/hid/disp/display.h **** 
 1993              		.loc 8 262 12 view .LVU440
 1994 00d4 2246     		mov	r2, r4
 294:../../libdaisy/src/hid/disp/display.h **** 
 1995              		.loc 8 294 17 view .LVU441
 1996 00d6 A340     		lsls	r3, r3, r4
 1997              	.LVL146:
ARM GAS  C:\Users\VINCIU~1\AppData\Local\Temp\ccUTXsQS.s 			page 72


 1998              	.L149:
 298:../../libdaisy/src/hid/disp/display.h ****             {
 1999              		.loc 8 298 13 view .LVU442
 2000 00d8 B9F1000F 		cmp	r9, #0
 2001 00dc 6AD1     		bne	.L125
 303:../../libdaisy/src/hid/disp/display.h ****                 t_exy  = end_x * t_y;
 2002              		.loc 8 303 34 view .LVU443
 2003 00de 4242     		rsbs	r2, r0, #0
 2004              	.LVL147:
 300:../../libdaisy/src/hid/disp/display.h ****                 t_syx  = start_y * t_x;
 2005              		.loc 8 300 24 view .LVU444
 2006 00e0 06EE90CA 		vmov	s13, ip	@ int
 302:../../libdaisy/src/hid/disp/display.h ****                 t_synx = start_y * -t_x;
 2007              		.loc 8 302 34 view .LVU445
 2008 00e4 CCF10001 		rsb	r1, ip, #0
 2009              	.LVL148:
 303:../../libdaisy/src/hid/disp/display.h ****                 t_exy  = end_x * t_y;
 2010              		.loc 8 303 34 view .LVU446
 2011 00e8 07EE102A 		vmov	s14, r2	@ int
 300:../../libdaisy/src/hid/disp/display.h ****                 t_syx  = start_y * t_x;
 2012              		.loc 8 300 24 view .LVU447
 2013 00ec B8EEE66A 		vcvt.f32.s32	s12, s13
 302:../../libdaisy/src/hid/disp/display.h ****                 t_synx = start_y * -t_x;
 2014              		.loc 8 302 34 view .LVU448
 2015 00f0 07EE901A 		vmov	s15, r1	@ int
 301:../../libdaisy/src/hid/disp/display.h ****                 t_sxny = start_x * -t_y;
 2016              		.loc 8 301 24 view .LVU449
 2017 00f4 06EE900A 		vmov	s13, r0	@ int
 303:../../libdaisy/src/hid/disp/display.h ****                 t_exy  = end_x * t_y;
 2018              		.loc 8 303 34 view .LVU450
 2019 00f8 B8EEC77A 		vcvt.f32.s32	s14, s14
 309:../../libdaisy/src/hid/disp/display.h ****                 {
 2020              		.loc 8 309 17 view .LVU451
 2021 00fc 139A     		ldr	r2, [sp, #76]
 300:../../libdaisy/src/hid/disp/display.h ****                 t_syx  = start_y * t_x;
 2022              		.loc 8 300 24 view .LVU452
 2023 00fe 66EE084A 		vmul.f32	s9, s12, s16
 2024              	.LVL149:
 302:../../libdaisy/src/hid/disp/display.h ****                 t_synx = start_y * -t_x;
 2025              		.loc 8 302 34 view .LVU453
 2026 0102 F8EEE77A 		vcvt.f32.s32	s15, s15
 309:../../libdaisy/src/hid/disp/display.h ****                 {
 2027              		.loc 8 309 17 view .LVU454
 2028 0106 B42A     		cmp	r2, #180
 303:../../libdaisy/src/hid/disp/display.h ****                 t_exy  = end_x * t_y;
 2029              		.loc 8 303 24 view .LVU455
 2030 0108 27EE284A 		vmul.f32	s8, s14, s17
 301:../../libdaisy/src/hid/disp/display.h ****                 t_sxny = start_x * -t_y;
 2031              		.loc 8 301 24 view .LVU456
 2032 010c F8EEE66A 		vcvt.f32.s32	s13, s13
 302:../../libdaisy/src/hid/disp/display.h ****                 t_synx = start_y * -t_x;
 2033              		.loc 8 302 24 view .LVU457
 2034 0110 67EE885A 		vmul.f32	s11, s15, s16
 311:../../libdaisy/src/hid/disp/display.h ****                     d2 = (t_sxy - t_syx < 0 || t_exy - t_eyx > 0);
 2035              		.loc 8 311 33 view .LVU458
 2036 0114 74EEC43A 		vsub.f32	s7, s9, s8
 301:../../libdaisy/src/hid/disp/display.h ****                 t_sxny = start_x * -t_y;
ARM GAS  C:\Users\VINCIU~1\AppData\Local\Temp\ccUTXsQS.s 			page 73


 2037              		.loc 8 301 24 view .LVU459
 2038 0118 26EEA85A 		vmul.f32	s10, s13, s17
 2039              	.LVL150:
 304:../../libdaisy/src/hid/disp/display.h ****                 t_eyx  = end_y * t_x;
 2040              		.loc 8 304 24 view .LVU460
 2041 011c 26EE096A 		vmul.f32	s12, s12, s18
 2042              	.LVL151:
 305:../../libdaisy/src/hid/disp/display.h ****                 t_exny = end_x * -t_y;
 2043              		.loc 8 305 24 view .LVU461
 2044 0120 66EE806A 		vmul.f32	s13, s13, s0
 2045              	.LVL152:
 306:../../libdaisy/src/hid/disp/display.h ****                 t_eynx = end_y * -t_x;
 2046              		.loc 8 306 24 view .LVU462
 2047 0124 67EE897A 		vmul.f32	s15, s15, s18
 2048              	.LVL153:
 307:../../libdaisy/src/hid/disp/display.h **** 
 2049              		.loc 8 307 24 view .LVU463
 2050 0128 27EE007A 		vmul.f32	s14, s14, s0
 2051              	.LVL154:
 311:../../libdaisy/src/hid/disp/display.h ****                     d2 = (t_sxy - t_syx < 0 || t_exy - t_eyx > 0);
 2052              		.loc 8 311 46 view .LVU464
 2053 012c F5EEC03A 		vcmpe.f32	s7, #0
 309:../../libdaisy/src/hid/disp/display.h ****                 {
 2054              		.loc 8 309 17 view .LVU465
 2055 0130 40F3F280 		ble	.L126
 311:../../libdaisy/src/hid/disp/display.h ****                     d2 = (t_sxy - t_syx < 0 || t_exy - t_eyx > 0);
 2056              		.loc 8 311 46 view .LVU466
 2057 0134 F1EE10FA 		vmrs	APSR_nzcv, FPSCR
 2058 0138 00F17F81 		bmi	.L152
 311:../../libdaisy/src/hid/disp/display.h ****                     d2 = (t_sxy - t_syx < 0 || t_exy - t_eyx > 0);
 2059              		.loc 8 311 55 discriminator 2 view .LVU467
 2060 013c 76EE473A 		vsub.f32	s7, s12, s14
 312:../../libdaisy/src/hid/disp/display.h ****                     d3 = (t_sxny - t_syx < 0 || t_exny - t_eyx > 0);
 2061              		.loc 8 312 33 discriminator 2 view .LVU468
 2062 0140 74EEC54A 		vsub.f32	s9, s9, s10
 2063              	.LVL155:
 311:../../libdaisy/src/hid/disp/display.h ****                     d2 = (t_sxy - t_syx < 0 || t_exy - t_eyx > 0);
 2064              		.loc 8 311 46 discriminator 2 view .LVU469
 2065 0144 F5EEC03A 		vcmpe.f32	s7, #0
 2066 0148 F1EE10FA 		vmrs	APSR_nzcv, FPSCR
 312:../../libdaisy/src/hid/disp/display.h ****                     d3 = (t_sxny - t_syx < 0 || t_exny - t_eyx > 0);
 2067              		.loc 8 312 45 discriminator 2 view .LVU470
 2068 014c F5EEC04A 		vcmpe.f32	s9, #0
 311:../../libdaisy/src/hid/disp/display.h ****                     d2 = (t_sxy - t_syx < 0 || t_exy - t_eyx > 0);
 2069              		.loc 8 311 46 discriminator 2 view .LVU471
 2070 0150 CCBF     		ite	gt
 2071 0152 0122     		movgt	r2, #1
 2072 0154 0022     		movle	r2, #0
 2073              	.LVL156:
 312:../../libdaisy/src/hid/disp/display.h ****                     d3 = (t_sxny - t_syx < 0 || t_exny - t_eyx > 0);
 2074              		.loc 8 312 45 discriminator 2 view .LVU472
 2075 0156 F1EE10FA 		vmrs	APSR_nzcv, FPSCR
 2076 015a 00F17781 		bmi	.L153
 2077              	.L195:
 312:../../libdaisy/src/hid/disp/display.h ****                     d3 = (t_sxny - t_syx < 0 || t_exny - t_eyx > 0);
 2078              		.loc 8 312 54 discriminator 2 view .LVU473
 2079 015e 36EE666A 		vsub.f32	s12, s12, s13
ARM GAS  C:\Users\VINCIU~1\AppData\Local\Temp\ccUTXsQS.s 			page 74


 2080              	.LVL157:
 313:../../libdaisy/src/hid/disp/display.h ****                     d4 = (t_sxny - t_synx < 0 || t_exny - t_eynx > 0);
 2081              		.loc 8 313 34 discriminator 2 view .LVU474
 2082 0162 35EEC55A 		vsub.f32	s10, s11, s10
 2083              	.LVL158:
 312:../../libdaisy/src/hid/disp/display.h ****                     d3 = (t_sxny - t_syx < 0 || t_exny - t_eyx > 0);
 2084              		.loc 8 312 45 discriminator 2 view .LVU475
 2085 0166 B5EEC06A 		vcmpe.f32	s12, #0
 2086 016a F1EE10FA 		vmrs	APSR_nzcv, FPSCR
 313:../../libdaisy/src/hid/disp/display.h ****                     d4 = (t_sxny - t_synx < 0 || t_exny - t_eynx > 0);
 2087              		.loc 8 313 46 discriminator 2 view .LVU476
 2088 016e B5EEC05A 		vcmpe.f32	s10, #0
 312:../../libdaisy/src/hid/disp/display.h ****                     d3 = (t_sxny - t_syx < 0 || t_exny - t_eyx > 0);
 2089              		.loc 8 312 45 discriminator 2 view .LVU477
 2090 0172 CCBF     		ite	gt
 2091 0174 0121     		movgt	r1, #1
 2092 0176 0021     		movle	r1, #0
 2093              	.LVL159:
 313:../../libdaisy/src/hid/disp/display.h ****                     d4 = (t_sxny - t_synx < 0 || t_exny - t_eynx > 0);
 2094              		.loc 8 313 46 discriminator 2 view .LVU478
 2095 0178 F1EE10FA 		vmrs	APSR_nzcv, FPSCR
 2096 017c 00F16F81 		bmi	.L154
 2097              	.L196:
 313:../../libdaisy/src/hid/disp/display.h ****                     d4 = (t_sxny - t_synx < 0 || t_exny - t_eynx > 0);
 2098              		.loc 8 313 56 discriminator 2 view .LVU479
 2099 0180 77EEE66A 		vsub.f32	s13, s15, s13
 2100              	.LVL160:
 313:../../libdaisy/src/hid/disp/display.h ****                     d4 = (t_sxny - t_synx < 0 || t_exny - t_eynx > 0);
 2101              		.loc 8 313 46 discriminator 2 view .LVU480
 2102 0184 F5EEC06A 		vcmpe.f32	s13, #0
 2103 0188 F1EE10FA 		vmrs	APSR_nzcv, FPSCR
 2104 018c CCBF     		ite	gt
 2105 018e 0127     		movgt	r7, #1
 2106              	.LVL161:
 313:../../libdaisy/src/hid/disp/display.h ****                     d4 = (t_sxny - t_synx < 0 || t_exny - t_eynx > 0);
 2107              		.loc 8 313 46 discriminator 2 view .LVU481
 2108 0190 0027     		movle	r7, #0
 2109              	.L129:
 2110              	.LVL162:
 314:../../libdaisy/src/hid/disp/display.h ****                 }
 2111              		.loc 8 314 34 discriminator 6 view .LVU482
 2112 0192 75EEC45A 		vsub.f32	s11, s11, s8
 2113              	.LVL163:
 314:../../libdaisy/src/hid/disp/display.h ****                 }
 2114              		.loc 8 314 47 discriminator 6 view .LVU483
 2115 0196 F5EEC05A 		vcmpe.f32	s11, #0
 2116 019a F1EE10FA 		vmrs	APSR_nzcv, FPSCR
 2117 019e 00F14781 		bmi	.L155
 2118              	.L185:
 321:../../libdaisy/src/hid/disp/display.h ****                 }
 2119              		.loc 8 321 57 discriminator 1 view .LVU484
 2120 01a2 77EEC77A 		vsub.f32	s15, s15, s14
 2121              	.LVL164:
 321:../../libdaisy/src/hid/disp/display.h ****                 }
 2122              		.loc 8 321 47 discriminator 1 view .LVU485
 2123 01a6 F5EEC07A 		vcmpe.f32	s15, #0
 2124 01aa F1EE10FA 		vmrs	APSR_nzcv, FPSCR
ARM GAS  C:\Users\VINCIU~1\AppData\Local\Temp\ccUTXsQS.s 			page 75


 2125 01ae CCBF     		ite	gt
 2126 01b0 0124     		movgt	r4, #1
 2127              	.LVL165:
 321:../../libdaisy/src/hid/disp/display.h ****                 }
 2128              		.loc 8 321 47 discriminator 1 view .LVU486
 2129 01b2 0024     		movle	r4, #0
 2130              	.LVL166:
 2131              	.L125:
 325:../../libdaisy/src/hid/disp/display.h ****                 ((ChildType*)(this))
 2132              		.loc 8 325 13 view .LVU487
 2133 01b4 002A     		cmp	r2, #0
 2134 01b6 40F08A80 		bne	.L186
 2135              	.L137:
 328:../../libdaisy/src/hid/disp/display.h ****                 ((ChildType*)(this))
 2136              		.loc 8 328 13 view .LVU488
 2137 01ba 0029     		cmp	r1, #0
 2138 01bc 64D1     		bne	.L187
 2139              	.L139:
 331:../../libdaisy/src/hid/disp/display.h ****                 ((ChildType*)(this))
 2140              		.loc 8 331 13 view .LVU489
 2141 01be BFB9     		cbnz	r7, .L188
 2142              	.L141:
 334:../../libdaisy/src/hid/disp/display.h ****                 ((ChildType*)(this))
 2143              		.loc 8 334 13 view .LVU490
 2144 01c0 C4BB     		cbnz	r4, .L189
 2145              	.L143:
 2146              	.LVL167:
 339:../../libdaisy/src/hid/disp/display.h ****             {
 2147              		.loc 8 339 13 view .LVU491
 2148 01c2 9C45     		cmp	ip, r3
 2149 01c4 58DB     		blt	.L160
 2150              	.L191:
 341:../../libdaisy/src/hid/disp/display.h ****                 err = err + (t_y * 2 + 1);
 2151              		.loc 8 341 17 view .LVU492
 2152 01c6 0CF1010C 		add	ip, ip, #1
 2153              	.LVL168:
 342:../../libdaisy/src/hid/disp/display.h ****                 if(-t_x == t_y && e2 <= t_x)
 2154              		.loc 8 342 38 view .LVU493
 2155 01ca 03EB4C0E 		add	lr, r3, ip, lsl #1
 343:../../libdaisy/src/hid/disp/display.h ****                 {
 2156              		.loc 8 343 17 view .LVU494
 2157 01ce 1CEB000F 		cmn	ip, r0
 342:../../libdaisy/src/hid/disp/display.h ****                 if(-t_x == t_y && e2 <= t_x)
 2158              		.loc 8 342 21 view .LVU495
 2159 01d2 0EF1010E 		add	lr, lr, #1
 2160              	.LVL169:
 343:../../libdaisy/src/hid/disp/display.h ****                 {
 2161              		.loc 8 343 17 view .LVU496
 2162 01d6 00F0C080 		beq	.L190
 2163              	.LVL170:
 2164              	.L145:
 348:../../libdaisy/src/hid/disp/display.h ****             {
 2165              		.loc 8 348 13 view .LVU497
 2166 01da 9842     		cmp	r0, r3
 2167 01dc 4FDB     		blt	.L146
 2168              	.L161:
 348:../../libdaisy/src/hid/disp/display.h ****             {
ARM GAS  C:\Users\VINCIU~1\AppData\Local\Temp\ccUTXsQS.s 			page 76


 2169              		.loc 8 348 13 view .LVU498
 2170 01de 7346     		mov	r3, lr
 2171              	.LVL171:
 2172              	.L147:
 353:../../libdaisy/src/hid/disp/display.h ****     }
 2173              		.loc 8 353 21 is_stmt 1 view .LVU499
 2174 01e0 0028     		cmp	r0, #0
 2175 01e2 7FF779AF 		ble	.L149
 2176              	.LVL172:
 2177              	.L120:
 354:../../libdaisy/src/hid/disp/display.h **** 
 2178              		.loc 8 354 5 is_stmt 0 view .LVU500
 2179 01e6 03B0     		add	sp, sp, #12
 2180              		.cfi_remember_state
 2181              		.cfi_def_cfa_offset 60
 2182              		@ sp needed
 2183 01e8 BDEC068B 		vldm	sp!, {d8-d10}
 2184              		.cfi_restore 84
 2185              		.cfi_restore 85
 2186              		.cfi_restore 82
 2187              		.cfi_restore 83
 2188              		.cfi_restore 80
 2189              		.cfi_restore 81
 2190              		.cfi_def_cfa_offset 36
 2191              	.LVL173:
 354:../../libdaisy/src/hid/disp/display.h **** 
 2192              		.loc 8 354 5 view .LVU501
 2193 01ec BDE8F08F 		pop	{r4, r5, r6, r7, r8, r9, r10, fp, pc}
 2194              	.LVL174:
 2195              	.L188:
 2196              		.cfi_restore_state
 333:../../libdaisy/src/hid/disp/display.h ****             if(d4)
 2197              		.loc 8 333 43 view .LVU502
 2198 01f0 009D     		ldr	r5, [sp]
 2199 01f2 A6EB0C0E 		sub	lr, r6, ip
 2200 01f6 00EB050A 		add	r10, r0, r5
 2201              	.LVL175:
 2202              	.LBB636:
 2203              	.LBI636:
  41:../../libdaisy/src/hid/disp/oled_display.h ****     {
 2204              		.loc 6 41 10 is_stmt 1 view .LVU503
 2205              	.LBB637:
 2206              	.LBI637:
 239:../../libdaisy/src/dev/oled_ssd130x.h ****     {
 2207              		.loc 13 239 10 view .LVU504
 2208              	.LBB638:
 241:../../libdaisy/src/dev/oled_ssd130x.h ****             return;
 2209              		.loc 13 241 9 is_stmt 0 view .LVU505
 2210 01fa BAF17F0F 		cmp	r10, #127
 2211 01fe DFD8     		bhi	.L141
 2212 0200 BEF13F0F 		cmp	lr, #63
 2213 0204 DCD8     		bhi	.L141
 244:../../libdaisy/src/dev/oled_ssd130x.h ****         else
 2214              		.loc 13 244 28 view .LVU506
 2215 0206 4FEADE0B 		lsr	fp, lr, #3
 243:../../libdaisy/src/dev/oled_ssd130x.h ****             buffer_[x + (y / 8) * width] |= (1 << (y % 8));
 2216              		.loc 13 243 9 view .LVU507
ARM GAS  C:\Users\VINCIU~1\AppData\Local\Temp\ccUTXsQS.s 			page 77


 2217 020a 019D     		ldr	r5, [sp, #4]
 244:../../libdaisy/src/dev/oled_ssd130x.h ****         else
 2218              		.loc 13 244 42 view .LVU508
 2219 020c 0AEBCB1A 		add	r10, r10, fp, lsl #7
 2220              	.LVL176:
 243:../../libdaisy/src/dev/oled_ssd130x.h ****             buffer_[x + (y / 8) * width] |= (1 << (y % 8));
 2221              		.loc 13 243 9 view .LVU509
 2222 0210 002D     		cmp	r5, #0
 2223 0212 00F0B180 		beq	.L142
 244:../../libdaisy/src/dev/oled_ssd130x.h ****         else
 2224              		.loc 13 244 54 view .LVU510
 2225 0216 0EF0070B 		and	fp, lr, #7
 244:../../libdaisy/src/dev/oled_ssd130x.h ****         else
 2226              		.loc 13 244 42 view .LVU511
 2227 021a C244     		add	r10, r10, r8
 244:../../libdaisy/src/dev/oled_ssd130x.h ****         else
 2228              		.loc 13 244 48 view .LVU512
 2229 021c 4FF0010E 		mov	lr, #1
 2230              	.LVL177:
 244:../../libdaisy/src/dev/oled_ssd130x.h ****         else
 2231              		.loc 13 244 48 view .LVU513
 2232 0220 0EFA0BFE 		lsl	lr, lr, fp
 244:../../libdaisy/src/dev/oled_ssd130x.h ****         else
 2233              		.loc 13 244 42 view .LVU514
 2234 0224 9AF814B0 		ldrb	fp, [r10, #20]	@ zero_extendqisi2
 2235 0228 4EEA0B0E 		orr	lr, lr, fp
 2236 022c 8AF814E0 		strb	lr, [r10, #20]
 2237              	.LVL178:
 244:../../libdaisy/src/dev/oled_ssd130x.h ****         else
 2238              		.loc 13 244 42 view .LVU515
 2239              	.LBE638:
 2240              	.LBE637:
 2241              	.LBE636:
 334:../../libdaisy/src/hid/disp/display.h ****                 ((ChildType*)(this))
 2242              		.loc 8 334 13 view .LVU516
 2243 0230 002C     		cmp	r4, #0
 2244 0232 C6D0     		beq	.L143
 2245              	.L189:
 336:../../libdaisy/src/hid/disp/display.h **** 
 2246              		.loc 8 336 43 view .LVU517
 2247 0234 009D     		ldr	r5, [sp]
 2248 0236 A6EB0C0E 		sub	lr, r6, ip
 2249 023a A5EB000A 		sub	r10, r5, r0
 2250              	.LVL179:
 2251              	.LBB643:
 2252              	.LBI643:
  41:../../libdaisy/src/hid/disp/oled_display.h ****     {
 2253              		.loc 6 41 10 is_stmt 1 view .LVU518
 2254              	.LBB644:
 2255              	.LBI644:
 239:../../libdaisy/src/dev/oled_ssd130x.h ****     {
 2256              		.loc 13 239 10 view .LVU519
 2257              	.LBB645:
 241:../../libdaisy/src/dev/oled_ssd130x.h ****             return;
 2258              		.loc 13 241 9 is_stmt 0 view .LVU520
 2259 023e BAF17F0F 		cmp	r10, #127
 2260 0242 BED8     		bhi	.L143
ARM GAS  C:\Users\VINCIU~1\AppData\Local\Temp\ccUTXsQS.s 			page 78


 2261 0244 BEF13F0F 		cmp	lr, #63
 2262 0248 BBD8     		bhi	.L143
 244:../../libdaisy/src/dev/oled_ssd130x.h ****         else
 2263              		.loc 13 244 28 view .LVU521
 2264 024a 4FEADE0B 		lsr	fp, lr, #3
 243:../../libdaisy/src/dev/oled_ssd130x.h ****             buffer_[x + (y / 8) * width] |= (1 << (y % 8));
 2265              		.loc 13 243 9 view .LVU522
 2266 024e 019D     		ldr	r5, [sp, #4]
 244:../../libdaisy/src/dev/oled_ssd130x.h ****         else
 2267              		.loc 13 244 42 view .LVU523
 2268 0250 0AEBCB1A 		add	r10, r10, fp, lsl #7
 2269              	.LVL180:
 243:../../libdaisy/src/dev/oled_ssd130x.h ****             buffer_[x + (y / 8) * width] |= (1 << (y % 8));
 2270              		.loc 13 243 9 view .LVU524
 2271 0254 002D     		cmp	r5, #0
 2272 0256 00F0AE80 		beq	.L144
 244:../../libdaisy/src/dev/oled_ssd130x.h ****         else
 2273              		.loc 13 244 54 view .LVU525
 2274 025a 0EF0070B 		and	fp, lr, #7
 244:../../libdaisy/src/dev/oled_ssd130x.h ****         else
 2275              		.loc 13 244 42 view .LVU526
 2276 025e C244     		add	r10, r10, r8
 244:../../libdaisy/src/dev/oled_ssd130x.h ****         else
 2277              		.loc 13 244 48 view .LVU527
 2278 0260 4FF0010E 		mov	lr, #1
 2279              	.LVL181:
 244:../../libdaisy/src/dev/oled_ssd130x.h ****         else
 2280              		.loc 13 244 48 view .LVU528
 2281              	.LBE645:
 2282              	.LBE644:
 2283              	.LBE643:
 339:../../libdaisy/src/hid/disp/display.h ****             {
 2284              		.loc 8 339 13 view .LVU529
 2285 0264 9C45     		cmp	ip, r3
 2286              	.LBB652:
 2287              	.LBB650:
 2288              	.LBB648:
 244:../../libdaisy/src/dev/oled_ssd130x.h ****         else
 2289              		.loc 13 244 48 view .LVU530
 2290 0266 0EFA0BFE 		lsl	lr, lr, fp
 244:../../libdaisy/src/dev/oled_ssd130x.h ****         else
 2291              		.loc 13 244 42 view .LVU531
 2292 026a 9AF814B0 		ldrb	fp, [r10, #20]	@ zero_extendqisi2
 2293 026e 4EEA0B0E 		orr	lr, lr, fp
 2294 0272 8AF814E0 		strb	lr, [r10, #20]
 2295              	.LVL182:
 244:../../libdaisy/src/dev/oled_ssd130x.h ****         else
 2296              		.loc 13 244 42 view .LVU532
 2297              	.LBE648:
 2298              	.LBE650:
 2299              	.LBE652:
 339:../../libdaisy/src/hid/disp/display.h ****             {
 2300              		.loc 8 339 13 view .LVU533
 2301 0276 A6DA     		bge	.L191
 2302              	.L160:
 348:../../libdaisy/src/hid/disp/display.h ****             {
 2303              		.loc 8 348 13 view .LVU534
ARM GAS  C:\Users\VINCIU~1\AppData\Local\Temp\ccUTXsQS.s 			page 79


 2304 0278 9842     		cmp	r0, r3
 2305 027a 9E46     		mov	lr, r3
 2306              	.LVL183:
 348:../../libdaisy/src/hid/disp/display.h ****             {
 2307              		.loc 8 348 13 view .LVU535
 2308 027c AFDA     		bge	.L161
 2309              	.LVL184:
 2310              	.L146:
 350:../../libdaisy/src/hid/disp/display.h ****                 err = err + (t_x * 2 + 1);
 2311              		.loc 8 350 17 view .LVU536
 2312 027e 0130     		adds	r0, r0, #1
 2313              	.LVL185:
 351:../../libdaisy/src/hid/disp/display.h ****             }
 2314              		.loc 8 351 38 view .LVU537
 2315 0280 0EEB4003 		add	r3, lr, r0, lsl #1
 351:../../libdaisy/src/hid/disp/display.h ****             }
 2316              		.loc 8 351 21 view .LVU538
 2317 0284 0133     		adds	r3, r3, #1
 2318              	.LVL186:
 351:../../libdaisy/src/hid/disp/display.h ****             }
 2319              		.loc 8 351 21 view .LVU539
 2320 0286 ABE7     		b	.L147
 2321              	.L187:
 330:../../libdaisy/src/hid/disp/display.h ****             if(d3)
 2322              		.loc 8 330 43 view .LVU540
 2323 0288 009D     		ldr	r5, [sp]
 2324 028a 0CEB060E 		add	lr, ip, r6
 2325 028e 00EB050A 		add	r10, r0, r5
 2326              	.LVL187:
 2327              	.LBB653:
 2328              	.LBI653:
  41:../../libdaisy/src/hid/disp/oled_display.h ****     {
 2329              		.loc 6 41 10 is_stmt 1 view .LVU541
 2330              	.LBB654:
 2331              	.LBI654:
 239:../../libdaisy/src/dev/oled_ssd130x.h ****     {
 2332              		.loc 13 239 10 view .LVU542
 2333              	.LBB655:
 241:../../libdaisy/src/dev/oled_ssd130x.h ****             return;
 2334              		.loc 13 241 9 is_stmt 0 view .LVU543
 2335 0292 BAF17F0F 		cmp	r10, #127
 2336 0296 92D8     		bhi	.L139
 2337 0298 BEF13F0F 		cmp	lr, #63
 2338 029c 8FD8     		bhi	.L139
 244:../../libdaisy/src/dev/oled_ssd130x.h ****         else
 2339              		.loc 13 244 28 view .LVU544
 2340 029e 4FEADE0B 		lsr	fp, lr, #3
 243:../../libdaisy/src/dev/oled_ssd130x.h ****             buffer_[x + (y / 8) * width] |= (1 << (y % 8));
 2341              		.loc 13 243 9 view .LVU545
 2342 02a2 019D     		ldr	r5, [sp, #4]
 244:../../libdaisy/src/dev/oled_ssd130x.h ****         else
 2343              		.loc 13 244 42 view .LVU546
 2344 02a4 0AEBCB1A 		add	r10, r10, fp, lsl #7
 2345              	.LVL188:
 243:../../libdaisy/src/dev/oled_ssd130x.h ****             buffer_[x + (y / 8) * width] |= (1 << (y % 8));
 2346              		.loc 13 243 9 view .LVU547
 2347 02a8 002D     		cmp	r5, #0
ARM GAS  C:\Users\VINCIU~1\AppData\Local\Temp\ccUTXsQS.s 			page 80


 2348 02aa 73D0     		beq	.L140
 244:../../libdaisy/src/dev/oled_ssd130x.h ****         else
 2349              		.loc 13 244 54 view .LVU548
 2350 02ac 0EF0070B 		and	fp, lr, #7
 244:../../libdaisy/src/dev/oled_ssd130x.h ****         else
 2351              		.loc 13 244 42 view .LVU549
 2352 02b0 C244     		add	r10, r10, r8
 244:../../libdaisy/src/dev/oled_ssd130x.h ****         else
 2353              		.loc 13 244 48 view .LVU550
 2354 02b2 4FF0010E 		mov	lr, #1
 2355              	.LVL189:
 244:../../libdaisy/src/dev/oled_ssd130x.h ****         else
 2356              		.loc 13 244 48 view .LVU551
 2357 02b6 0EFA0BFE 		lsl	lr, lr, fp
 244:../../libdaisy/src/dev/oled_ssd130x.h ****         else
 2358              		.loc 13 244 42 view .LVU552
 2359 02ba 9AF814B0 		ldrb	fp, [r10, #20]	@ zero_extendqisi2
 2360 02be 4EEA0B0E 		orr	lr, lr, fp
 2361 02c2 8AF814E0 		strb	lr, [r10, #20]
 2362              	.LVL190:
 244:../../libdaisy/src/dev/oled_ssd130x.h ****         else
 2363              		.loc 13 244 42 view .LVU553
 2364              	.LBE655:
 2365              	.LBE654:
 2366              	.LBE653:
 331:../../libdaisy/src/hid/disp/display.h ****                 ((ChildType*)(this))
 2367              		.loc 8 331 13 view .LVU554
 2368 02c6 002F     		cmp	r7, #0
 2369 02c8 3FF47AAF 		beq	.L141
 2370 02cc 90E7     		b	.L188
 2371              	.L186:
 327:../../libdaisy/src/hid/disp/display.h ****             if(d2)
 2372              		.loc 8 327 43 view .LVU555
 2373 02ce 009D     		ldr	r5, [sp]
 2374 02d0 0CEB060E 		add	lr, ip, r6
 2375 02d4 A5EB000A 		sub	r10, r5, r0
 2376              	.LVL191:
 2377              	.LBB660:
 2378              	.LBI660:
  41:../../libdaisy/src/hid/disp/oled_display.h ****     {
 2379              		.loc 6 41 10 is_stmt 1 view .LVU556
 2380              	.LBB661:
 2381              	.LBI661:
 239:../../libdaisy/src/dev/oled_ssd130x.h ****     {
 2382              		.loc 13 239 10 view .LVU557
 2383              	.LBB662:
 241:../../libdaisy/src/dev/oled_ssd130x.h ****             return;
 2384              		.loc 13 241 9 is_stmt 0 view .LVU558
 2385 02d8 BAF17F0F 		cmp	r10, #127
 2386 02dc 3FF66DAF 		bhi	.L137
 2387 02e0 BEF13F0F 		cmp	lr, #63
 2388 02e4 3FF669AF 		bhi	.L137
 244:../../libdaisy/src/dev/oled_ssd130x.h ****         else
 2389              		.loc 13 244 28 view .LVU559
 2390 02e8 4FEADE0B 		lsr	fp, lr, #3
 243:../../libdaisy/src/dev/oled_ssd130x.h ****             buffer_[x + (y / 8) * width] |= (1 << (y % 8));
 2391              		.loc 13 243 9 view .LVU560
ARM GAS  C:\Users\VINCIU~1\AppData\Local\Temp\ccUTXsQS.s 			page 81


 2392 02ec 019D     		ldr	r5, [sp, #4]
 244:../../libdaisy/src/dev/oled_ssd130x.h ****         else
 2393              		.loc 13 244 42 view .LVU561
 2394 02ee 0AEBCB1A 		add	r10, r10, fp, lsl #7
 2395              	.LVL192:
 243:../../libdaisy/src/dev/oled_ssd130x.h ****             buffer_[x + (y / 8) * width] |= (1 << (y % 8));
 2396              		.loc 13 243 9 view .LVU562
 2397 02f2 002D     		cmp	r5, #0
 2398 02f4 6DD0     		beq	.L138
 244:../../libdaisy/src/dev/oled_ssd130x.h ****         else
 2399              		.loc 13 244 54 view .LVU563
 2400 02f6 0EF0070B 		and	fp, lr, #7
 244:../../libdaisy/src/dev/oled_ssd130x.h ****         else
 2401              		.loc 13 244 42 view .LVU564
 2402 02fa C244     		add	r10, r10, r8
 244:../../libdaisy/src/dev/oled_ssd130x.h ****         else
 2403              		.loc 13 244 48 view .LVU565
 2404 02fc 4FF0010E 		mov	lr, #1
 2405              	.LVL193:
 244:../../libdaisy/src/dev/oled_ssd130x.h ****         else
 2406              		.loc 13 244 48 view .LVU566
 2407 0300 0EFA0BFE 		lsl	lr, lr, fp
 244:../../libdaisy/src/dev/oled_ssd130x.h ****         else
 2408              		.loc 13 244 42 view .LVU567
 2409 0304 9AF814B0 		ldrb	fp, [r10, #20]	@ zero_extendqisi2
 2410 0308 4EEA0B0E 		orr	lr, lr, fp
 2411 030c 8AF814E0 		strb	lr, [r10, #20]
 2412              	.LVL194:
 244:../../libdaisy/src/dev/oled_ssd130x.h ****         else
 2413              		.loc 13 244 42 view .LVU568
 2414              	.LBE662:
 2415              	.LBE661:
 2416              	.LBE660:
 328:../../libdaisy/src/hid/disp/display.h ****                 ((ChildType*)(this))
 2417              		.loc 8 328 13 view .LVU569
 2418 0310 0029     		cmp	r1, #0
 2419 0312 3FF454AF 		beq	.L139
 2420 0316 B7E7     		b	.L187
 2421              	.LVL195:
 2422              	.L126:
 318:../../libdaisy/src/hid/disp/display.h ****                     d2 = (t_sxy - t_syx < 0 && t_exy - t_eyx > 0);
 2423              		.loc 8 318 46 view .LVU570
 2424 0318 F1EE10FA 		vmrs	APSR_nzcv, FPSCR
 2425 031c 7ED4     		bmi	.L192
 2426 031e 4A46     		mov	r2, r9
 2427              	.L130:
 2428              	.LVL196:
 319:../../libdaisy/src/hid/disp/display.h ****                     d3 = (t_sxny - t_syx < 0 && t_exny - t_eyx > 0);
 2429              		.loc 8 319 33 discriminator 6 view .LVU571
 2430 0320 74EEC54A 		vsub.f32	s9, s9, s10
 2431              	.LVL197:
 319:../../libdaisy/src/hid/disp/display.h ****                     d3 = (t_sxny - t_syx < 0 && t_exny - t_eyx > 0);
 2432              		.loc 8 319 45 discriminator 6 view .LVU572
 2433 0324 F5EEC04A 		vcmpe.f32	s9, #0
 2434 0328 F1EE10FA 		vmrs	APSR_nzcv, FPSCR
 2435 032c 6CD4     		bmi	.L193
 319:../../libdaisy/src/hid/disp/display.h ****                     d3 = (t_sxny - t_syx < 0 && t_exny - t_eyx > 0);
ARM GAS  C:\Users\VINCIU~1\AppData\Local\Temp\ccUTXsQS.s 			page 82


 2436              		.loc 8 319 45 view .LVU573
 2437 032e 0021     		movs	r1, #0
 2438              	.LVL198:
 2439              	.L132:
 320:../../libdaisy/src/hid/disp/display.h ****                     d4 = (t_sxny - t_synx < 0 && t_exny - t_eynx > 0);
 2440              		.loc 8 320 34 discriminator 6 view .LVU574
 2441 0330 35EEC55A 		vsub.f32	s10, s11, s10
 2442              	.LVL199:
 320:../../libdaisy/src/hid/disp/display.h ****                     d4 = (t_sxny - t_synx < 0 && t_exny - t_eynx > 0);
 2443              		.loc 8 320 46 discriminator 6 view .LVU575
 2444 0334 B5EEC05A 		vcmpe.f32	s10, #0
 2445 0338 F1EE10FA 		vmrs	APSR_nzcv, FPSCR
 2446 033c 5AD4     		bmi	.L194
 320:../../libdaisy/src/hid/disp/display.h ****                     d4 = (t_sxny - t_synx < 0 && t_exny - t_eynx > 0);
 2447              		.loc 8 320 46 view .LVU576
 2448 033e 0027     		movs	r7, #0
 2449              	.LVL200:
 2450              	.L134:
 321:../../libdaisy/src/hid/disp/display.h ****                 }
 2451              		.loc 8 321 34 discriminator 6 view .LVU577
 2452 0340 75EEC45A 		vsub.f32	s11, s11, s8
 2453              	.LVL201:
 321:../../libdaisy/src/hid/disp/display.h ****                 }
 2454              		.loc 8 321 47 discriminator 6 view .LVU578
 2455 0344 F5EEC05A 		vcmpe.f32	s11, #0
 2456 0348 F1EE10FA 		vmrs	APSR_nzcv, FPSCR
 2457 034c 3FF529AF 		bmi	.L185
 321:../../libdaisy/src/hid/disp/display.h ****                 }
 2458              		.loc 8 321 47 view .LVU579
 2459 0350 0024     		movs	r4, #0
 2460              	.LVL202:
 325:../../libdaisy/src/hid/disp/display.h ****                 ((ChildType*)(this))
 2461              		.loc 8 325 13 view .LVU580
 2462 0352 002A     		cmp	r2, #0
 2463 0354 3FF431AF 		beq	.L137
 2464 0358 B9E7     		b	.L186
 2465              	.LVL203:
 2466              	.L190:
 343:../../libdaisy/src/hid/disp/display.h ****                 {
 2467              		.loc 8 343 32 discriminator 1 view .LVU581
 2468 035a 9842     		cmp	r0, r3
 2469 035c 8FDB     		blt	.L146
 345:../../libdaisy/src/hid/disp/display.h ****                 }
 2470              		.loc 8 345 24 view .LVU582
 2471 035e 0023     		movs	r3, #0
 2472              	.LVL204:
 345:../../libdaisy/src/hid/disp/display.h ****                 }
 2473              		.loc 8 345 24 view .LVU583
 2474 0360 3BE7     		b	.L145
 2475              	.L198:
 2476 0362 00BFAFF3 		.align	3
 2476      0080
 2477              	.L197:
 2478 0368 7A008BFC 		.word	-57999238
 2479 036c FA210940 		.word	1074340346
 2480 0370 00000000 		.word	0
 2481 0374 00806640 		.word	1080459264
ARM GAS  C:\Users\VINCIU~1\AppData\Local\Temp\ccUTXsQS.s 			page 83


 2482              	.LVL205:
 2483              	.L142:
 2484              	.LBB667:
 2485              	.LBB642:
 2486              	.LBB641:
 2487              	.LBB639:
 2488              	.LBI639:
 239:../../libdaisy/src/dev/oled_ssd130x.h ****     {
 2489              		.loc 13 239 10 is_stmt 1 view .LVU584
 2490              	.LBB640:
 246:../../libdaisy/src/dev/oled_ssd130x.h ****     }
 2491              		.loc 13 246 42 is_stmt 0 view .LVU585
 2492 0378 C244     		add	r10, r10, r8
 2493              	.LVL206:
 246:../../libdaisy/src/dev/oled_ssd130x.h ****     }
 2494              		.loc 13 246 49 view .LVU586
 2495 037a 4FF0010B 		mov	fp, #1
 2496              	.LVL207:
 246:../../libdaisy/src/dev/oled_ssd130x.h ****     }
 2497              		.loc 13 246 55 view .LVU587
 2498 037e 0EF0070E 		and	lr, lr, #7
 2499              	.LVL208:
 246:../../libdaisy/src/dev/oled_ssd130x.h ****     }
 2500              		.loc 13 246 49 view .LVU588
 2501 0382 0BFA0EFE 		lsl	lr, fp, lr
 246:../../libdaisy/src/dev/oled_ssd130x.h ****     }
 2502              		.loc 13 246 42 view .LVU589
 2503 0386 9AF814B0 		ldrb	fp, [r10, #20]	@ zero_extendqisi2
 2504 038a 2BEA0E0E 		bic	lr, fp, lr
 2505 038e 8AF814E0 		strb	lr, [r10, #20]
 2506              	.LVL209:
 246:../../libdaisy/src/dev/oled_ssd130x.h ****     }
 2507              		.loc 13 246 42 view .LVU590
 2508 0392 15E7     		b	.L141
 2509              	.LVL210:
 2510              	.L140:
 246:../../libdaisy/src/dev/oled_ssd130x.h ****     }
 2511              		.loc 13 246 42 view .LVU591
 2512              	.LBE640:
 2513              	.LBE639:
 2514              	.LBE641:
 2515              	.LBE642:
 2516              	.LBE667:
 2517              	.LBB668:
 2518              	.LBB659:
 2519              	.LBB658:
 2520              	.LBB656:
 2521              	.LBI656:
 239:../../libdaisy/src/dev/oled_ssd130x.h ****     {
 2522              		.loc 13 239 10 is_stmt 1 view .LVU592
 2523              	.LBB657:
 246:../../libdaisy/src/dev/oled_ssd130x.h ****     }
 2524              		.loc 13 246 42 is_stmt 0 view .LVU593
 2525 0394 C244     		add	r10, r10, r8
 2526              	.LVL211:
 246:../../libdaisy/src/dev/oled_ssd130x.h ****     }
 2527              		.loc 13 246 49 view .LVU594
ARM GAS  C:\Users\VINCIU~1\AppData\Local\Temp\ccUTXsQS.s 			page 84


 2528 0396 4FF0010B 		mov	fp, #1
 2529              	.LVL212:
 246:../../libdaisy/src/dev/oled_ssd130x.h ****     }
 2530              		.loc 13 246 55 view .LVU595
 2531 039a 0EF0070E 		and	lr, lr, #7
 2532              	.LVL213:
 246:../../libdaisy/src/dev/oled_ssd130x.h ****     }
 2533              		.loc 13 246 49 view .LVU596
 2534 039e 0BFA0EFE 		lsl	lr, fp, lr
 246:../../libdaisy/src/dev/oled_ssd130x.h ****     }
 2535              		.loc 13 246 42 view .LVU597
 2536 03a2 9AF814B0 		ldrb	fp, [r10, #20]	@ zero_extendqisi2
 2537 03a6 2BEA0E0E 		bic	lr, fp, lr
 2538 03aa 8AF814E0 		strb	lr, [r10, #20]
 2539              	.LVL214:
 246:../../libdaisy/src/dev/oled_ssd130x.h ****     }
 2540              		.loc 13 246 42 view .LVU598
 2541              	.LBE657:
 2542              	.LBE656:
 2543              	.LBE658:
 2544              	.LBE659:
 2545              	.LBE668:
 331:../../libdaisy/src/hid/disp/display.h ****                 ((ChildType*)(this))
 2546              		.loc 8 331 13 view .LVU599
 2547 03ae 002F     		cmp	r7, #0
 2548 03b0 3FF406AF 		beq	.L141
 2549 03b4 1CE7     		b	.L188
 2550              	.LVL215:
 2551              	.L144:
 2552              	.LBB669:
 2553              	.LBB651:
 2554              	.LBB649:
 2555              	.LBB646:
 2556              	.LBI646:
 239:../../libdaisy/src/dev/oled_ssd130x.h ****     {
 2557              		.loc 13 239 10 is_stmt 1 view .LVU600
 2558              	.LBB647:
 246:../../libdaisy/src/dev/oled_ssd130x.h ****     }
 2559              		.loc 13 246 42 is_stmt 0 view .LVU601
 2560 03b6 C244     		add	r10, r10, r8
 2561              	.LVL216:
 246:../../libdaisy/src/dev/oled_ssd130x.h ****     }
 2562              		.loc 13 246 49 view .LVU602
 2563 03b8 4FF0010B 		mov	fp, #1
 2564              	.LVL217:
 246:../../libdaisy/src/dev/oled_ssd130x.h ****     }
 2565              		.loc 13 246 55 view .LVU603
 2566 03bc 0EF0070E 		and	lr, lr, #7
 2567              	.LVL218:
 246:../../libdaisy/src/dev/oled_ssd130x.h ****     }
 2568              		.loc 13 246 49 view .LVU604
 2569 03c0 0BFA0EFE 		lsl	lr, fp, lr
 246:../../libdaisy/src/dev/oled_ssd130x.h ****     }
 2570              		.loc 13 246 42 view .LVU605
 2571 03c4 9AF814B0 		ldrb	fp, [r10, #20]	@ zero_extendqisi2
 2572 03c8 2BEA0E0E 		bic	lr, fp, lr
 2573 03cc 8AF814E0 		strb	lr, [r10, #20]
ARM GAS  C:\Users\VINCIU~1\AppData\Local\Temp\ccUTXsQS.s 			page 85


 2574              	.LVL219:
 246:../../libdaisy/src/dev/oled_ssd130x.h ****     }
 2575              		.loc 13 246 42 view .LVU606
 2576 03d0 F7E6     		b	.L143
 2577              	.LVL220:
 2578              	.L138:
 246:../../libdaisy/src/dev/oled_ssd130x.h ****     }
 2579              		.loc 13 246 42 view .LVU607
 2580              	.LBE647:
 2581              	.LBE646:
 2582              	.LBE649:
 2583              	.LBE651:
 2584              	.LBE669:
 2585              	.LBB670:
 2586              	.LBB666:
 2587              	.LBB665:
 2588              	.LBB663:
 2589              	.LBI663:
 239:../../libdaisy/src/dev/oled_ssd130x.h ****     {
 2590              		.loc 13 239 10 is_stmt 1 view .LVU608
 2591              	.LBB664:
 246:../../libdaisy/src/dev/oled_ssd130x.h ****     }
 2592              		.loc 13 246 42 is_stmt 0 view .LVU609
 2593 03d2 C244     		add	r10, r10, r8
 2594              	.LVL221:
 246:../../libdaisy/src/dev/oled_ssd130x.h ****     }
 2595              		.loc 13 246 49 view .LVU610
 2596 03d4 4FF0010B 		mov	fp, #1
 2597              	.LVL222:
 246:../../libdaisy/src/dev/oled_ssd130x.h ****     }
 2598              		.loc 13 246 55 view .LVU611
 2599 03d8 0EF0070E 		and	lr, lr, #7
 2600              	.LVL223:
 246:../../libdaisy/src/dev/oled_ssd130x.h ****     }
 2601              		.loc 13 246 49 view .LVU612
 2602 03dc 0BFA0EFE 		lsl	lr, fp, lr
 246:../../libdaisy/src/dev/oled_ssd130x.h ****     }
 2603              		.loc 13 246 42 view .LVU613
 2604 03e0 9AF814B0 		ldrb	fp, [r10, #20]	@ zero_extendqisi2
 2605 03e4 2BEA0E0E 		bic	lr, fp, lr
 2606 03e8 8AF814E0 		strb	lr, [r10, #20]
 2607              	.LVL224:
 246:../../libdaisy/src/dev/oled_ssd130x.h ****     }
 2608              		.loc 13 246 42 view .LVU614
 2609              	.LBE664:
 2610              	.LBE663:
 2611              	.LBE665:
 2612              	.LBE666:
 2613              	.LBE670:
 328:../../libdaisy/src/hid/disp/display.h ****                 ((ChildType*)(this))
 2614              		.loc 8 328 13 view .LVU615
 2615 03ec 0029     		cmp	r1, #0
 2616 03ee 3FF4E6AE 		beq	.L139
 2617 03f2 49E7     		b	.L187
 2618              	.LVL225:
 2619              	.L194:
 320:../../libdaisy/src/hid/disp/display.h ****                     d4 = (t_sxny - t_synx < 0 && t_exny - t_eynx > 0);
ARM GAS  C:\Users\VINCIU~1\AppData\Local\Temp\ccUTXsQS.s 			page 86


 2620              		.loc 8 320 56 discriminator 1 view .LVU616
 2621 03f4 77EEE66A 		vsub.f32	s13, s15, s13
 2622              	.LVL226:
 320:../../libdaisy/src/hid/disp/display.h ****                     d4 = (t_sxny - t_synx < 0 && t_exny - t_eynx > 0);
 2623              		.loc 8 320 46 discriminator 1 view .LVU617
 2624 03f8 F5EEC06A 		vcmpe.f32	s13, #0
 2625 03fc F1EE10FA 		vmrs	APSR_nzcv, FPSCR
 2626 0400 CCBF     		ite	gt
 2627 0402 0127     		movgt	r7, #1
 2628              	.LVL227:
 320:../../libdaisy/src/hid/disp/display.h ****                     d4 = (t_sxny - t_synx < 0 && t_exny - t_eynx > 0);
 2629              		.loc 8 320 46 discriminator 1 view .LVU618
 2630 0404 0027     		movle	r7, #0
 2631 0406 9BE7     		b	.L134
 2632              	.LVL228:
 2633              	.L193:
 319:../../libdaisy/src/hid/disp/display.h ****                     d3 = (t_sxny - t_syx < 0 && t_exny - t_eyx > 0);
 2634              		.loc 8 319 54 discriminator 1 view .LVU619
 2635 0408 36EE666A 		vsub.f32	s12, s12, s13
 2636              	.LVL229:
 319:../../libdaisy/src/hid/disp/display.h ****                     d3 = (t_sxny - t_syx < 0 && t_exny - t_eyx > 0);
 2637              		.loc 8 319 45 discriminator 1 view .LVU620
 2638 040c B5EEC06A 		vcmpe.f32	s12, #0
 2639 0410 F1EE10FA 		vmrs	APSR_nzcv, FPSCR
 2640 0414 CCBF     		ite	gt
 2641 0416 0121     		movgt	r1, #1
 2642 0418 0021     		movle	r1, #0
 2643 041a 89E7     		b	.L132
 2644              	.LVL230:
 2645              	.L192:
 318:../../libdaisy/src/hid/disp/display.h ****                     d2 = (t_sxy - t_syx < 0 && t_exy - t_eyx > 0);
 2646              		.loc 8 318 55 discriminator 1 view .LVU621
 2647 041c 76EE473A 		vsub.f32	s7, s12, s14
 318:../../libdaisy/src/hid/disp/display.h ****                     d2 = (t_sxy - t_syx < 0 && t_exy - t_eyx > 0);
 2648              		.loc 8 318 46 discriminator 1 view .LVU622
 2649 0420 F5EEC03A 		vcmpe.f32	s7, #0
 2650 0424 F1EE10FA 		vmrs	APSR_nzcv, FPSCR
 2651 0428 CCBF     		ite	gt
 2652 042a 0122     		movgt	r2, #1
 2653 042c 0022     		movle	r2, #0
 2654 042e 77E7     		b	.L130
 2655              	.LVL231:
 2656              	.L155:
 314:../../libdaisy/src/hid/disp/display.h ****                 }
 2657              		.loc 8 314 47 view .LVU623
 2658 0430 0124     		movs	r4, #1
 2659              	.LVL232:
 325:../../libdaisy/src/hid/disp/display.h ****                 ((ChildType*)(this))
 2660              		.loc 8 325 13 view .LVU624
 2661 0432 002A     		cmp	r2, #0
 2662 0434 3FF4C1AE 		beq	.L137
 325:../../libdaisy/src/hid/disp/display.h ****                 ((ChildType*)(this))
 2663              		.loc 8 325 13 view .LVU625
 2664 0438 49E7     		b	.L186
 2665              	.LVL233:
 2666              	.L152:
 312:../../libdaisy/src/hid/disp/display.h ****                     d3 = (t_sxny - t_syx < 0 || t_exny - t_eyx > 0);
ARM GAS  C:\Users\VINCIU~1\AppData\Local\Temp\ccUTXsQS.s 			page 87


 2667              		.loc 8 312 33 view .LVU626
 2668 043a 74EEC54A 		vsub.f32	s9, s9, s10
 2669              	.LVL234:
 311:../../libdaisy/src/hid/disp/display.h ****                     d2 = (t_sxy - t_syx < 0 || t_exy - t_eyx > 0);
 2670              		.loc 8 311 46 view .LVU627
 2671 043e 0122     		movs	r2, #1
 2672              	.LVL235:
 312:../../libdaisy/src/hid/disp/display.h ****                     d3 = (t_sxny - t_syx < 0 || t_exny - t_eyx > 0);
 2673              		.loc 8 312 45 view .LVU628
 2674 0440 F5EEC04A 		vcmpe.f32	s9, #0
 2675 0444 F1EE10FA 		vmrs	APSR_nzcv, FPSCR
 2676 0448 7FF589AE 		bpl	.L195
 2677              	.L153:
 313:../../libdaisy/src/hid/disp/display.h ****                     d4 = (t_sxny - t_synx < 0 || t_exny - t_eynx > 0);
 2678              		.loc 8 313 34 view .LVU629
 2679 044c 35EEC55A 		vsub.f32	s10, s11, s10
 2680              	.LVL236:
 312:../../libdaisy/src/hid/disp/display.h ****                     d3 = (t_sxny - t_syx < 0 || t_exny - t_eyx > 0);
 2681              		.loc 8 312 45 view .LVU630
 2682 0450 0121     		movs	r1, #1
 2683              	.LVL237:
 313:../../libdaisy/src/hid/disp/display.h ****                     d4 = (t_sxny - t_synx < 0 || t_exny - t_eynx > 0);
 2684              		.loc 8 313 46 view .LVU631
 2685 0452 B5EEC05A 		vcmpe.f32	s10, #0
 2686 0456 F1EE10FA 		vmrs	APSR_nzcv, FPSCR
 2687 045a 7FF591AE 		bpl	.L196
 2688              	.LVL238:
 2689              	.L154:
 313:../../libdaisy/src/hid/disp/display.h ****                     d4 = (t_sxny - t_synx < 0 || t_exny - t_eynx > 0);
 2690              		.loc 8 313 46 view .LVU632
 2691 045e 0127     		movs	r7, #1
 2692              	.LVL239:
 313:../../libdaisy/src/hid/disp/display.h ****                     d4 = (t_sxny - t_synx < 0 || t_exny - t_eynx > 0);
 2693              		.loc 8 313 46 view .LVU633
 2694 0460 97E6     		b	.L129
 2695              	.LVL240:
 2696              	.L121:
 268:../../libdaisy/src/hid/disp/display.h ****             sweep = -sweep;
 2697              		.loc 8 268 25 view .LVU634
 2698 0462 DDE91223 		ldrd	r2, r3, [sp, #72]
 2699              	.LVL241:
 268:../../libdaisy/src/hid/disp/display.h ****             sweep = -sweep;
 2700              		.loc 8 268 25 view .LVU635
 2701 0466 1344     		add	r3, r3, r2
 2702              	.LVL242:
 268:../../libdaisy/src/hid/disp/display.h ****             sweep = -sweep;
 2703              		.loc 8 268 25 view .LVU636
 2704 0468 06EE102A 		vmov	s12, r2	@ int
 2705 046c 1293     		str	r3, [sp, #72]
 2706 046e 139B     		ldr	r3, [sp, #76]
 2707              	.LVL243:
 268:../../libdaisy/src/hid/disp/display.h ****             sweep = -sweep;
 2708              		.loc 8 268 25 view .LVU637
 2709 0470 5B42     		rsbs	r3, r3, #0
 2710 0472 1393     		str	r3, [sp, #76]
 2711              	.LVL244:
 268:../../libdaisy/src/hid/disp/display.h ****             sweep = -sweep;
ARM GAS  C:\Users\VINCIU~1\AppData\Local\Temp\ccUTXsQS.s 			page 88


 2712              		.loc 8 268 25 view .LVU638
 2713 0474 D8E5     		b	.L122
 2714              		.cfi_endproc
 2715              	.LFE4647:
 2717 0476 00BF     		.section	.text._ZN5daisy25OneBitGraphicsDisplayImplINS_11OledDisplayINS_13SSD130xDriverILj128ELj64
 2718              		.align	1
 2719              		.p2align 2,,3
 2720              		.weak	_ZN5daisy25OneBitGraphicsDisplayImplINS_11OledDisplayINS_13SSD130xDriverILj128ELj64ENS_24SSD
 2721              		.syntax unified
 2722              		.thumb
 2723              		.thumb_func
 2724              		.fpu fpv5-d16
 2726              	_ZN5daisy25OneBitGraphicsDisplayImplINS_11OledDisplayINS_13SSD130xDriverILj128ELj64ENS_24SSD130x4Wi
 2727              	.LVL245:
 2728              	.LFB4646:
 217:../../libdaisy/src/hid/disp/display.h ****                   uint_fast8_t y1,
 2729              		.loc 8 217 10 is_stmt 1 view -0
 2730              		.cfi_startproc
 2731              		@ args = 12, pretend = 0, frame = 24
 2732              		@ frame_needed = 0, uses_anonymous_args = 0
 217:../../libdaisy/src/hid/disp/display.h ****                   uint_fast8_t y1,
 2733              		.loc 8 217 10 is_stmt 0 view .LVU640
 2734 0000 2DE9F04F 		push	{r4, r5, r6, r7, r8, r9, r10, fp, lr}
 2735              		.cfi_def_cfa_offset 36
 2736              		.cfi_offset 4, -36
 2737              		.cfi_offset 5, -32
 2738              		.cfi_offset 6, -28
 2739              		.cfi_offset 7, -24
 2740              		.cfi_offset 8, -20
 2741              		.cfi_offset 9, -16
 2742              		.cfi_offset 10, -12
 2743              		.cfi_offset 11, -8
 2744              		.cfi_offset 14, -4
 2745 0004 87B0     		sub	sp, sp, #28
 2746              		.cfi_def_cfa_offset 64
 217:../../libdaisy/src/hid/disp/display.h ****                   uint_fast8_t y1,
 2747              		.loc 8 217 10 view .LVU641
 2748 0006 9DF84850 		ldrb	r5, [sp, #72]	@ zero_extendqisi2
 2749 000a 109C     		ldr	r4, [sp, #64]
 2750 000c 2E46     		mov	r6, r5
 2751 000e 0195     		str	r5, [sp, #4]
 2752 0010 9DF84450 		ldrb	r5, [sp, #68]	@ zero_extendqisi2
 2753              	.LBB740:
 224:../../libdaisy/src/hid/disp/display.h ****         {
 2754              		.loc 8 224 9 view .LVU642
 2755 0014 9EB3     		cbz	r6, .L200
 2756              	.LVL246:
 224:../../libdaisy/src/hid/disp/display.h ****         {
 2757              		.loc 8 224 9 view .LVU643
 2758              	.LBE740:
 2759              	.LBB862:
 2760              	.LBB863:
 226:../../libdaisy/src/hid/disp/display.h ****             {
 2761              		.loc 8 226 40 is_stmt 1 view .LVU644
 2762 0016 9942     		cmp	r1, r3
 2763 0018 2ED8     		bhi	.L199
 2764 001a 9946     		mov	r9, r3
ARM GAS  C:\Users\VINCIU~1\AppData\Local\Temp\ccUTXsQS.s 			page 89


 2765              	.LVL247:
 2766              	.L203:
 2767              	.LBB864:
 228:../../libdaisy/src/hid/disp/display.h ****                 {
 2768              		.loc 8 228 44 view .LVU645
 2769 001c A242     		cmp	r2, r4
 2770 001e 28D8     		bhi	.L206
 2771              	.LBB865:
 2772              	.LBB866:
 2773              	.LBB867:
 241:../../libdaisy/src/dev/oled_ssd130x.h ****             return;
 2774              		.loc 13 241 14 is_stmt 0 view .LVU646
 2775 0020 7F29     		cmp	r1, #127
 2776 0022 1646     		mov	r6, r2
 2777 0024 94BF     		ite	ls
 2778 0026 0023     		movls	r3, #0
 2779 0028 0123     		movhi	r3, #1
 2780 002a 08E0     		b	.L207
 2781              	.LVL248:
 2782              	.L290:
 244:../../libdaisy/src/dev/oled_ssd130x.h ****         else
 2783              		.loc 13 244 42 view .LVU647
 2784 002c 9CF81480 		ldrb	r8, [ip, #20]	@ zero_extendqisi2
 2785 0030 4EEA080E 		orr	lr, lr, r8
 2786 0034 8CF814E0 		strb	lr, [ip, #20]
 2787              	.LVL249:
 2788              	.L204:
 244:../../libdaisy/src/dev/oled_ssd130x.h ****         else
 2789              		.loc 13 244 42 view .LVU648
 2790              	.LBE867:
 2791              	.LBE866:
 2792              	.LBE865:
 228:../../libdaisy/src/hid/disp/display.h ****                 {
 2793              		.loc 8 228 17 is_stmt 1 view .LVU649
 2794 0038 0136     		adds	r6, r6, #1
 2795              	.LVL250:
 228:../../libdaisy/src/hid/disp/display.h ****                 {
 2796              		.loc 8 228 44 view .LVU650
 2797 003a B442     		cmp	r4, r6
 2798 003c 19D3     		bcc	.L206
 2799              	.L207:
 2800              	.LVL251:
 2801              	.LBB881:
 2802              	.LBI865:
  41:../../libdaisy/src/hid/disp/oled_display.h ****     {
 2803              		.loc 6 41 10 view .LVU651
 2804              	.LBB878:
 2805              	.LBI866:
 239:../../libdaisy/src/dev/oled_ssd130x.h ****     {
 2806              		.loc 13 239 10 view .LVU652
 2807              	.LBB875:
 241:../../libdaisy/src/dev/oled_ssd130x.h ****             return;
 2808              		.loc 13 241 9 is_stmt 0 view .LVU653
 2809 003e 3F2E     		cmp	r6, #63
 2810 0040 FAD8     		bhi	.L204
 241:../../libdaisy/src/dev/oled_ssd130x.h ****             return;
 2811              		.loc 13 241 9 view .LVU654
ARM GAS  C:\Users\VINCIU~1\AppData\Local\Temp\ccUTXsQS.s 			page 90


 2812 0042 002B     		cmp	r3, #0
 2813 0044 F8D1     		bne	.L204
 2814              	.LVL252:
 2815              	.LBB868:
 2816              	.LBI868:
 239:../../libdaisy/src/dev/oled_ssd130x.h ****     {
 2817              		.loc 13 239 10 is_stmt 1 view .LVU655
 239:../../libdaisy/src/dev/oled_ssd130x.h ****     {
 2818              		.loc 13 239 10 is_stmt 0 view .LVU656
 2819              	.LBE868:
 244:../../libdaisy/src/dev/oled_ssd130x.h ****         else
 2820              		.loc 13 244 28 view .LVU657
 2821 0046 4FEAD60C 		lsr	ip, r6, #3
 244:../../libdaisy/src/dev/oled_ssd130x.h ****         else
 2822              		.loc 13 244 54 view .LVU658
 2823 004a 06F0070E 		and	lr, r6, #7
 244:../../libdaisy/src/dev/oled_ssd130x.h ****         else
 2824              		.loc 13 244 48 view .LVU659
 2825 004e 4FF00108 		mov	r8, #1
 244:../../libdaisy/src/dev/oled_ssd130x.h ****         else
 2826              		.loc 13 244 42 view .LVU660
 2827 0052 01EBCC1C 		add	ip, r1, ip, lsl #7
 244:../../libdaisy/src/dev/oled_ssd130x.h ****         else
 2828              		.loc 13 244 48 view .LVU661
 2829 0056 08FA0EFE 		lsl	lr, r8, lr
 244:../../libdaisy/src/dev/oled_ssd130x.h ****         else
 2830              		.loc 13 244 42 view .LVU662
 2831 005a 8444     		add	ip, ip, r0
 243:../../libdaisy/src/dev/oled_ssd130x.h ****             buffer_[x + (y / 8) * width] |= (1 << (y % 8));
 2832              		.loc 13 243 9 view .LVU663
 2833 005c 002D     		cmp	r5, #0
 2834 005e E5D1     		bne	.L290
 2835              	.LBB872:
 2836              	.LBB869:
 246:../../libdaisy/src/dev/oled_ssd130x.h ****     }
 2837              		.loc 13 246 42 view .LVU664
 2838 0060 9CF814B0 		ldrb	fp, [ip, #20]	@ zero_extendqisi2
 2839              	.LBE869:
 2840              	.LBE872:
 2841              	.LBE875:
 2842              	.LBE878:
 2843              	.LBE881:
 228:../../libdaisy/src/hid/disp/display.h ****                 {
 2844              		.loc 8 228 17 view .LVU665
 2845 0064 0136     		adds	r6, r6, #1
 2846              	.LVL253:
 2847              	.LBB882:
 2848              	.LBB879:
 2849              	.LBB876:
 2850              	.LBB873:
 2851              	.LBB870:
 246:../../libdaisy/src/dev/oled_ssd130x.h ****     }
 2852              		.loc 13 246 42 view .LVU666
 2853 0066 2BEA0E0A 		bic	r10, fp, lr
 2854              	.LBE870:
 2855              	.LBE873:
 2856              	.LBE876:
ARM GAS  C:\Users\VINCIU~1\AppData\Local\Temp\ccUTXsQS.s 			page 91


 2857              	.LBE879:
 2858              	.LBE882:
 228:../../libdaisy/src/hid/disp/display.h ****                 {
 2859              		.loc 8 228 44 view .LVU667
 2860 006a B442     		cmp	r4, r6
 2861              	.LBB883:
 2862              	.LBB880:
 2863              	.LBB877:
 2864              	.LBB874:
 2865              	.LBB871:
 246:../../libdaisy/src/dev/oled_ssd130x.h ****     }
 2866              		.loc 13 246 42 view .LVU668
 2867 006c 8CF814A0 		strb	r10, [ip, #20]
 2868              	.LVL254:
 246:../../libdaisy/src/dev/oled_ssd130x.h ****     }
 2869              		.loc 13 246 42 view .LVU669
 2870              	.LBE871:
 2871              	.LBE874:
 2872              	.LBE877:
 2873              	.LBE880:
 2874              	.LBE883:
 228:../../libdaisy/src/hid/disp/display.h ****                 {
 2875              		.loc 8 228 17 is_stmt 1 view .LVU670
 228:../../libdaisy/src/hid/disp/display.h ****                 {
 2876              		.loc 8 228 44 view .LVU671
 2877 0070 E5D2     		bcs	.L207
 2878              	.LVL255:
 2879              	.L206:
 228:../../libdaisy/src/hid/disp/display.h ****                 {
 2880              		.loc 8 228 44 is_stmt 0 view .LVU672
 2881              	.LBE864:
 226:../../libdaisy/src/hid/disp/display.h ****             {
 2882              		.loc 8 226 13 is_stmt 1 view .LVU673
 2883 0072 0131     		adds	r1, r1, #1
 2884              	.LVL256:
 226:../../libdaisy/src/hid/disp/display.h ****             {
 2885              		.loc 8 226 40 view .LVU674
 2886 0074 8945     		cmp	r9, r1
 2887 0076 D1D2     		bcs	.L203
 2888              	.LVL257:
 2889              	.L199:
 226:../../libdaisy/src/hid/disp/display.h ****             {
 2890              		.loc 8 226 40 is_stmt 0 view .LVU675
 2891              	.LBE863:
 2892              	.LBE862:
 241:../../libdaisy/src/hid/disp/display.h **** 
 2893              		.loc 8 241 5 view .LVU676
 2894 0078 07B0     		add	sp, sp, #28
 2895              		.cfi_remember_state
 2896              		.cfi_def_cfa_offset 36
 2897              		@ sp needed
 2898 007a BDE8F08F 		pop	{r4, r5, r6, r7, r8, r9, r10, fp, pc}
 2899              	.LVL258:
 2900              	.L200:
 2901              		.cfi_restore_state
 2902              	.LBB884:
 2903              	.LBB741:
ARM GAS  C:\Users\VINCIU~1\AppData\Local\Temp\ccUTXsQS.s 			page 92


 2904              	.LBI741:
 181:../../libdaisy/src/hid/disp/display.h ****                   uint_fast8_t y1,
 2905              		.loc 8 181 10 is_stmt 1 view .LVU677
 2906              	.LBB742:
 187:../../libdaisy/src/hid/disp/display.h ****         int_fast16_t deltaY = abs((int_fast16_t)y2 - (int_fast16_t)y1);
 2907              		.loc 8 187 52 is_stmt 0 view .LVU678
 2908 007e A3EB0108 		sub	r8, r3, r1
 187:../../libdaisy/src/hid/disp/display.h ****         int_fast16_t deltaY = abs((int_fast16_t)y2 - (int_fast16_t)y1);
 2909              		.loc 8 187 22 view .LVU679
 2910 0082 B8F1000F 		cmp	r8, #0
 2911 0086 B8BF     		it	lt
 2912 0088 C8F10008 		rsblt	r8, r8, #0
 2913              	.LVL259:
 189:../../libdaisy/src/hid/disp/display.h ****         int_fast16_t signY  = ((y1 < y2) ? 1 : -1);
 2914              		.loc 8 189 42 view .LVU680
 2915 008c 9942     		cmp	r1, r3
 2916 008e C0F04E81 		bcc	.L208
 2917              	.LVL260:
 2918              	.LBB743:
 2919              	.LBI743:
  41:../../libdaisy/src/hid/disp/oled_display.h ****     {
 2920              		.loc 6 41 10 is_stmt 1 view .LVU681
 2921              	.LBB744:
 2922              	.LBI744:
 239:../../libdaisy/src/dev/oled_ssd130x.h ****     {
 2923              		.loc 13 239 10 view .LVU682
 2924              	.LBB745:
 241:../../libdaisy/src/dev/oled_ssd130x.h ****             return;
 2925              		.loc 13 241 14 is_stmt 0 view .LVU683
 2926 0092 7F2B     		cmp	r3, #127
 2927              	.LBE745:
 2928              	.LBE744:
 2929              	.LBE743:
 189:../../libdaisy/src/hid/disp/display.h ****         int_fast16_t signY  = ((y1 < y2) ? 1 : -1);
 2930              		.loc 8 189 42 view .LVU684
 2931 0094 4FF0FF3A 		mov	r10, #-1
 2932              	.LBB756:
 2933              	.LBB752:
 2934              	.LBB748:
 241:../../libdaisy/src/dev/oled_ssd130x.h ****             return;
 2935              		.loc 13 241 14 view .LVU685
 2936 0098 94BF     		ite	ls
 2937 009a 0026     		movls	r6, #0
 2938 009c 0126     		movhi	r6, #1
 241:../../libdaisy/src/dev/oled_ssd130x.h ****             return;
 2939              		.loc 13 241 28 view .LVU686
 2940 009e 3F2A     		cmp	r2, #63
 241:../../libdaisy/src/dev/oled_ssd130x.h ****             return;
 2941              		.loc 13 241 14 view .LVU687
 2942 00a0 0096     		str	r6, [sp]
 241:../../libdaisy/src/dev/oled_ssd130x.h ****             return;
 2943              		.loc 13 241 28 view .LVU688
 2944 00a2 94BF     		ite	ls
 2945 00a4 0027     		movls	r7, #0
 2946 00a6 0127     		movhi	r7, #1
 2947 00a8 0297     		str	r7, [sp, #8]
 241:../../libdaisy/src/dev/oled_ssd130x.h ****             return;
ARM GAS  C:\Users\VINCIU~1\AppData\Local\Temp\ccUTXsQS.s 			page 93


 2948              		.loc 13 241 9 view .LVU689
 2949 00aa A6B9     		cbnz	r6, .L209
 2950 00ac 9FB9     		cbnz	r7, .L209
 2951              	.LVL261:
 2952              	.L250:
 244:../../libdaisy/src/dev/oled_ssd130x.h ****         else
 2953              		.loc 13 244 28 view .LVU690
 2954 00ae D608     		lsrs	r6, r2, #3
 244:../../libdaisy/src/dev/oled_ssd130x.h ****         else
 2955              		.loc 13 244 54 view .LVU691
 2956 00b0 02F0070C 		and	ip, r2, #7
 244:../../libdaisy/src/dev/oled_ssd130x.h ****         else
 2957              		.loc 13 244 48 view .LVU692
 2958 00b4 0127     		movs	r7, #1
 244:../../libdaisy/src/dev/oled_ssd130x.h ****         else
 2959              		.loc 13 244 42 view .LVU693
 2960 00b6 03EBC616 		add	r6, r3, r6, lsl #7
 2961 00ba 0644     		add	r6, r6, r0
 243:../../libdaisy/src/dev/oled_ssd130x.h ****             buffer_[x + (y / 8) * width] |= (1 << (y % 8));
 2962              		.loc 13 243 9 view .LVU694
 2963 00bc 002D     		cmp	r5, #0
 2964 00be 00F09481 		beq	.L210
 244:../../libdaisy/src/dev/oled_ssd130x.h ****         else
 2965              		.loc 13 244 48 view .LVU695
 2966 00c2 07FA0CF7 		lsl	r7, r7, ip
 244:../../libdaisy/src/dev/oled_ssd130x.h ****         else
 2967              		.loc 13 244 42 view .LVU696
 2968 00c6 96F814C0 		ldrb	ip, [r6, #20]	@ zero_extendqisi2
 2969 00ca 47EA0C07 		orr	r7, r7, ip
 2970 00ce 3775     		strb	r7, [r6, #20]
 2971 00d0 0026     		movs	r6, #0
 2972 00d2 0296     		str	r6, [sp, #8]
 2973 00d4 0096     		str	r6, [sp]
 2974              	.L209:
 2975              	.LVL262:
 244:../../libdaisy/src/dev/oled_ssd130x.h ****         else
 2976              		.loc 13 244 42 view .LVU697
 2977              	.LBE748:
 2978              	.LBE752:
 2979              	.LBE756:
 199:../../libdaisy/src/hid/disp/display.h ****         {
 2980              		.loc 8 199 26 is_stmt 1 view .LVU698
 2981 00d6 9942     		cmp	r1, r3
 2982 00d8 00F09781 		beq	.L291
 2983              	.L212:
 2984              	.LVL263:
 187:../../libdaisy/src/hid/disp/display.h ****         int_fast16_t deltaY = abs((int_fast16_t)y2 - (int_fast16_t)y1);
 2985              		.loc 8 187 22 is_stmt 0 view .LVU699
 2986 00dc 4646     		mov	r6, r8
 2987 00de 9446     		mov	ip, r2
 2988 00e0 8E46     		mov	lr, r1
 2989              	.LVL264:
 2990              	.L214:
 2991              	.LBB757:
 2992              	.LBI757:
  41:../../libdaisy/src/hid/disp/oled_display.h ****     {
 2993              		.loc 6 41 10 is_stmt 1 view .LVU700
ARM GAS  C:\Users\VINCIU~1\AppData\Local\Temp\ccUTXsQS.s 			page 94


 2994              	.LBB758:
 2995              	.LBI758:
 239:../../libdaisy/src/dev/oled_ssd130x.h ****     {
 2996              		.loc 13 239 10 view .LVU701
 2997              	.LBB759:
 241:../../libdaisy/src/dev/oled_ssd130x.h ****             return;
 2998              		.loc 13 241 9 is_stmt 0 view .LVU702
 2999 00e2 BEF17F0F 		cmp	lr, #127
 3000 00e6 16D8     		bhi	.L215
 3001 00e8 BCF13F0F 		cmp	ip, #63
 3002 00ec 13D8     		bhi	.L215
 244:../../libdaisy/src/dev/oled_ssd130x.h ****         else
 3003              		.loc 13 244 28 view .LVU703
 3004 00ee 4FEADC07 		lsr	r7, ip, #3
 244:../../libdaisy/src/dev/oled_ssd130x.h ****         else
 3005              		.loc 13 244 54 view .LVU704
 3006 00f2 0CF0070B 		and	fp, ip, #7
 244:../../libdaisy/src/dev/oled_ssd130x.h ****         else
 3007              		.loc 13 244 48 view .LVU705
 3008 00f6 4FF00109 		mov	r9, #1
 244:../../libdaisy/src/dev/oled_ssd130x.h ****         else
 3009              		.loc 13 244 42 view .LVU706
 3010 00fa 0EEBC717 		add	r7, lr, r7, lsl #7
 3011 00fe 0744     		add	r7, r7, r0
 243:../../libdaisy/src/dev/oled_ssd130x.h ****             buffer_[x + (y / 8) * width] |= (1 << (y % 8));
 3012              		.loc 13 243 9 view .LVU707
 3013 0100 002D     		cmp	r5, #0
 3014 0102 00F03981 		beq	.L216
 244:../../libdaisy/src/dev/oled_ssd130x.h ****         else
 3015              		.loc 13 244 48 view .LVU708
 3016 0106 09FA0BF9 		lsl	r9, r9, fp
 244:../../libdaisy/src/dev/oled_ssd130x.h ****         else
 3017              		.loc 13 244 42 view .LVU709
 3018 010a 97F814B0 		ldrb	fp, [r7, #20]	@ zero_extendqisi2
 3019 010e 49EA0B09 		orr	r9, r9, fp
 3020 0112 87F81490 		strb	r9, [r7, #20]
 3021              	.L215:
 3022              	.LVL265:
 244:../../libdaisy/src/dev/oled_ssd130x.h ****         else
 3023              		.loc 13 244 42 view .LVU710
 3024              	.LBE759:
 3025              	.LBE758:
 3026              	.LBE757:
 203:../../libdaisy/src/hid/disp/display.h ****             {
 3027              		.loc 8 203 13 view .LVU711
 3028 0116 7700     		lsls	r7, r6, #1
 3029              	.LVL266:
 206:../../libdaisy/src/hid/disp/display.h ****             }
 3030              		.loc 8 206 20 view .LVU712
 3031 0118 18BF     		it	ne
 3032 011a D644     		addne	lr, lr, r10
 3033              	.LVL267:
 209:../../libdaisy/src/hid/disp/display.h ****             {
 3034              		.loc 8 209 13 view .LVU713
 3035 011c B845     		cmp	r8, r7
 3036 011e 02DD     		ble	.L218
 211:../../libdaisy/src/hid/disp/display.h ****                 y1 += signY;
ARM GAS  C:\Users\VINCIU~1\AppData\Local\Temp\ccUTXsQS.s 			page 95


 3037              		.loc 8 211 23 view .LVU714
 3038 0120 4644     		add	r6, r6, r8
 3039              	.LVL268:
 212:../../libdaisy/src/hid/disp/display.h ****             }
 3040              		.loc 8 212 20 view .LVU715
 3041 0122 0CF1FF3C 		add	ip, ip, #-1
 3042              	.LVL269:
 3043              	.L218:
 199:../../libdaisy/src/hid/disp/display.h ****         {
 3044              		.loc 8 199 26 is_stmt 1 view .LVU716
 3045 0126 7345     		cmp	r3, lr
 3046 0128 DBD1     		bne	.L214
 199:../../libdaisy/src/hid/disp/display.h ****         {
 3047              		.loc 8 199 26 is_stmt 0 view .LVU717
 3048 012a 6245     		cmp	r2, ip
 3049 012c D9D1     		bne	.L214
 3050 012e 0026     		movs	r6, #0
 3051              	.LVL270:
 199:../../libdaisy/src/hid/disp/display.h ****         {
 3052              		.loc 8 199 26 view .LVU718
 3053 0130 0496     		str	r6, [sp, #16]
 3054              	.LVL271:
 3055              	.L211:
 199:../../libdaisy/src/hid/disp/display.h ****         {
 3056              		.loc 8 199 26 view .LVU719
 3057              	.LBE742:
 3058              	.LBE741:
 3059              	.LBB772:
 3060              	.LBI772:
 181:../../libdaisy/src/hid/disp/display.h ****                   uint_fast8_t y1,
 3061              		.loc 8 181 10 is_stmt 1 view .LVU720
 3062              	.LBB773:
 188:../../libdaisy/src/hid/disp/display.h ****         int_fast16_t signX  = ((x1 < x2) ? 1 : -1);
 3063              		.loc 8 188 52 is_stmt 0 view .LVU721
 3064 0132 A4EB0209 		sub	r9, r4, r2
 3065              	.LBB774:
 3066              	.LBB775:
 3067              	.LBB776:
 241:../../libdaisy/src/dev/oled_ssd130x.h ****             return;
 3068              		.loc 13 241 9 view .LVU722
 3069 0136 009F     		ldr	r7, [sp]
 3070              	.LBE776:
 3071              	.LBE775:
 3072              	.LBE774:
 188:../../libdaisy/src/hid/disp/display.h ****         int_fast16_t signX  = ((x1 < x2) ? 1 : -1);
 3073              		.loc 8 188 22 view .LVU723
 3074 0138 B9F1000F 		cmp	r9, #0
 3075 013c B8BF     		it	lt
 3076 013e C9F10009 		rsblt	r9, r9, #0
 3077              	.LVL272:
 3078              	.LBB791:
 3079              	.LBB785:
 3080              	.LBB779:
 241:../../libdaisy/src/dev/oled_ssd130x.h ****             return;
 3081              		.loc 13 241 28 view .LVU724
 3082 0142 3F2C     		cmp	r4, #63
 3083 0144 94BF     		ite	ls
ARM GAS  C:\Users\VINCIU~1\AppData\Local\Temp\ccUTXsQS.s 			page 96


 3084 0146 0026     		movls	r6, #0
 3085 0148 0126     		movhi	r6, #1
 3086              	.LBE779:
 3087              	.LBE785:
 3088              	.LBE791:
 190:../../libdaisy/src/hid/disp/display.h ****         int_fast16_t error  = deltaX - deltaY;
 3089              		.loc 8 190 42 view .LVU725
 3090 014a A242     		cmp	r2, r4
 191:../../libdaisy/src/hid/disp/display.h ****         int_fast16_t error2;
 3091              		.loc 8 191 22 view .LVU726
 3092 014c C9F10008 		rsb	r8, r9, #0
 3093              	.LVL273:
 3094              	.LBB792:
 3095              	.LBI774:
  41:../../libdaisy/src/hid/disp/oled_display.h ****     {
 3096              		.loc 6 41 10 is_stmt 1 view .LVU727
 3097              	.LBB786:
 3098              	.LBI775:
 239:../../libdaisy/src/dev/oled_ssd130x.h ****     {
 3099              		.loc 13 239 10 view .LVU728
 3100              	.LBB780:
 241:../../libdaisy/src/dev/oled_ssd130x.h ****             return;
 3101              		.loc 13 241 28 is_stmt 0 view .LVU729
 3102 0150 0396     		str	r6, [sp, #12]
 3103              	.LBE780:
 3104              	.LBE786:
 3105              	.LBE792:
 190:../../libdaisy/src/hid/disp/display.h ****         int_fast16_t error  = deltaX - deltaY;
 3106              		.loc 8 190 42 view .LVU730
 3107 0152 C0F02381 		bcc	.L219
 3108              	.LVL274:
 3109              	.LBB793:
 3110              	.LBB787:
 3111              	.LBB781:
 241:../../libdaisy/src/dev/oled_ssd130x.h ****             return;
 3112              		.loc 13 241 9 view .LVU731
 3113 0156 002F     		cmp	r7, #0
 3114 0158 40F05081 		bne	.L254
 3115 015c 002E     		cmp	r6, #0
 3116 015e 40F04D81 		bne	.L254
 3117              	.LBE781:
 3118              	.LBE787:
 3119              	.LBE793:
 190:../../libdaisy/src/hid/disp/display.h ****         int_fast16_t error  = deltaX - deltaY;
 3120              		.loc 8 190 42 view .LVU732
 3121 0162 4FF0FF36 		mov	r6, #-1
 3122 0166 0096     		str	r6, [sp]
 3123              	.LBB794:
 3124              	.LBB788:
 3125              	.LBB782:
 244:../../libdaisy/src/dev/oled_ssd130x.h ****         else
 3126              		.loc 13 244 28 view .LVU733
 3127 0168 E608     		lsrs	r6, r4, #3
 244:../../libdaisy/src/dev/oled_ssd130x.h ****         else
 3128              		.loc 13 244 42 view .LVU734
 3129 016a 03EBC616 		add	r6, r3, r6, lsl #7
 3130 016e 0644     		add	r6, r6, r0
ARM GAS  C:\Users\VINCIU~1\AppData\Local\Temp\ccUTXsQS.s 			page 97


 243:../../libdaisy/src/dev/oled_ssd130x.h ****             buffer_[x + (y / 8) * width] |= (1 << (y % 8));
 3131              		.loc 13 243 9 view .LVU735
 3132 0170 002D     		cmp	r5, #0
 3133 0172 00F01E81 		beq	.L221
 3134              	.LVL275:
 3135              	.L293:
 244:../../libdaisy/src/dev/oled_ssd130x.h ****         else
 3136              		.loc 13 244 48 view .LVU736
 3137 0176 4FF0010C 		mov	ip, #1
 244:../../libdaisy/src/dev/oled_ssd130x.h ****         else
 3138              		.loc 13 244 54 view .LVU737
 3139 017a 04F00707 		and	r7, r4, #7
 244:../../libdaisy/src/dev/oled_ssd130x.h ****         else
 3140              		.loc 13 244 48 view .LVU738
 3141 017e 0CFA07F7 		lsl	r7, ip, r7
 244:../../libdaisy/src/dev/oled_ssd130x.h ****         else
 3142              		.loc 13 244 42 view .LVU739
 3143 0182 96F814C0 		ldrb	ip, [r6, #20]	@ zero_extendqisi2
 3144 0186 47EA0C07 		orr	r7, r7, ip
 3145 018a 3775     		strb	r7, [r6, #20]
 3146 018c 0026     		movs	r6, #0
 3147 018e 0396     		str	r6, [sp, #12]
 3148              	.L220:
 3149              	.LVL276:
 244:../../libdaisy/src/dev/oled_ssd130x.h ****         else
 3150              		.loc 13 244 42 view .LVU740
 3151              	.LBE782:
 3152              	.LBE788:
 3153              	.LBE794:
 199:../../libdaisy/src/hid/disp/display.h ****         {
 3154              		.loc 8 199 26 is_stmt 1 view .LVU741
 3155 0190 A242     		cmp	r2, r4
 3156 0192 00F03D81 		beq	.L292
 3157              	.L223:
 3158              	.LVL277:
 190:../../libdaisy/src/hid/disp/display.h ****         int_fast16_t error  = deltaX - deltaY;
 3159              		.loc 8 190 42 is_stmt 0 view .LVU742
 3160 0196 C446     		mov	ip, r8
 3161 0198 1646     		mov	r6, r2
 3162 019a 1F46     		mov	r7, r3
 3163 019c 0592     		str	r2, [sp, #20]
 3164              	.LVL278:
 3165              	.L225:
 3166              	.LBB795:
 3167              	.LBI795:
  41:../../libdaisy/src/hid/disp/oled_display.h ****     {
 3168              		.loc 6 41 10 is_stmt 1 view .LVU743
 3169              	.LBB796:
 3170              	.LBI796:
 239:../../libdaisy/src/dev/oled_ssd130x.h ****     {
 3171              		.loc 13 239 10 view .LVU744
 3172              	.LBB797:
 241:../../libdaisy/src/dev/oled_ssd130x.h ****             return;
 3173              		.loc 13 241 9 is_stmt 0 view .LVU745
 3174 019e 7F2F     		cmp	r7, #127
 3175 01a0 15D8     		bhi	.L226
 3176 01a2 3F2E     		cmp	r6, #63
ARM GAS  C:\Users\VINCIU~1\AppData\Local\Temp\ccUTXsQS.s 			page 98


 3177 01a4 13D8     		bhi	.L226
 244:../../libdaisy/src/dev/oled_ssd130x.h ****         else
 3178              		.loc 13 244 28 view .LVU746
 3179 01a6 4FEAD60E 		lsr	lr, r6, #3
 244:../../libdaisy/src/dev/oled_ssd130x.h ****         else
 3180              		.loc 13 244 54 view .LVU747
 3181 01aa 06F0070B 		and	fp, r6, #7
 244:../../libdaisy/src/dev/oled_ssd130x.h ****         else
 3182              		.loc 13 244 48 view .LVU748
 3183 01ae 4FF0010A 		mov	r10, #1
 244:../../libdaisy/src/dev/oled_ssd130x.h ****         else
 3184              		.loc 13 244 42 view .LVU749
 3185 01b2 07EBCE1E 		add	lr, r7, lr, lsl #7
 3186 01b6 8644     		add	lr, lr, r0
 243:../../libdaisy/src/dev/oled_ssd130x.h ****             buffer_[x + (y / 8) * width] |= (1 << (y % 8));
 3187              		.loc 13 243 9 view .LVU750
 3188 01b8 002D     		cmp	r5, #0
 3189 01ba 00F0E680 		beq	.L227
 244:../../libdaisy/src/dev/oled_ssd130x.h ****         else
 3190              		.loc 13 244 48 view .LVU751
 3191 01be 0AFA0BFA 		lsl	r10, r10, fp
 244:../../libdaisy/src/dev/oled_ssd130x.h ****         else
 3192              		.loc 13 244 42 view .LVU752
 3193 01c2 9EF814B0 		ldrb	fp, [lr, #20]	@ zero_extendqisi2
 3194 01c6 4AEA0B0A 		orr	r10, r10, fp
 3195 01ca 8EF814A0 		strb	r10, [lr, #20]
 3196              	.L226:
 3197              	.LVL279:
 244:../../libdaisy/src/dev/oled_ssd130x.h ****         else
 3198              		.loc 13 244 42 view .LVU753
 3199              	.LBE797:
 3200              	.LBE796:
 3201              	.LBE795:
 203:../../libdaisy/src/hid/disp/display.h ****             {
 3202              		.loc 8 203 13 view .LVU754
 3203 01ce B8EB4C0F 		cmp	r8, ip, lsl #1
 202:../../libdaisy/src/hid/disp/display.h ****             if(error2 > -deltaY)
 3204              		.loc 8 202 20 view .LVU755
 3205 01d2 4FEA4C0E 		lsl	lr, ip, #1
 3206              	.LVL280:
 203:../../libdaisy/src/hid/disp/display.h ****             {
 3207              		.loc 8 203 13 view .LVU756
 3208 01d6 02DA     		bge	.L228
 205:../../libdaisy/src/hid/disp/display.h ****                 x1 += signX;
 3209              		.loc 8 205 23 view .LVU757
 3210 01d8 ACEB090C 		sub	ip, ip, r9
 3211              	.LVL281:
 206:../../libdaisy/src/hid/disp/display.h ****             }
 3212              		.loc 8 206 20 view .LVU758
 3213 01dc 013F     		subs	r7, r7, #1
 3214              	.LVL282:
 3215              	.L228:
 209:../../libdaisy/src/hid/disp/display.h ****             {
 3216              		.loc 8 209 13 view .LVU759
 3217 01de BEF1000F 		cmp	lr, #0
 3218 01e2 01D0     		beq	.L229
 212:../../libdaisy/src/hid/disp/display.h ****             }
ARM GAS  C:\Users\VINCIU~1\AppData\Local\Temp\ccUTXsQS.s 			page 99


 3219              		.loc 8 212 20 view .LVU760
 3220 01e4 009A     		ldr	r2, [sp]
 3221 01e6 1644     		add	r6, r6, r2
 3222              	.LVL283:
 3223              	.L229:
 199:../../libdaisy/src/hid/disp/display.h ****         {
 3224              		.loc 8 199 26 is_stmt 1 view .LVU761
 3225 01e8 BB42     		cmp	r3, r7
 3226 01ea D8D1     		bne	.L225
 199:../../libdaisy/src/hid/disp/display.h ****         {
 3227              		.loc 8 199 26 is_stmt 0 view .LVU762
 3228 01ec B442     		cmp	r4, r6
 3229 01ee D6D1     		bne	.L225
 3230 01f0 059A     		ldr	r2, [sp, #20]
 3231              	.LVL284:
 3232              	.L222:
 199:../../libdaisy/src/hid/disp/display.h ****         {
 3233              		.loc 8 199 26 view .LVU763
 3234              	.LBE773:
 3235              	.LBE772:
 3236              	.LBB808:
 3237              	.LBI808:
 181:../../libdaisy/src/hid/disp/display.h ****                   uint_fast8_t y1,
 3238              		.loc 8 181 10 is_stmt 1 view .LVU764
 3239              	.LBB809:
 187:../../libdaisy/src/hid/disp/display.h ****         int_fast16_t deltaY = abs((int_fast16_t)y2 - (int_fast16_t)y1);
 3240              		.loc 8 187 52 is_stmt 0 view .LVU765
 3241 01f2 A1EB030E 		sub	lr, r1, r3
 187:../../libdaisy/src/hid/disp/display.h ****         int_fast16_t deltaY = abs((int_fast16_t)y2 - (int_fast16_t)y1);
 3242              		.loc 8 187 22 view .LVU766
 3243 01f6 BEF1000F 		cmp	lr, #0
 3244 01fa B8BF     		it	lt
 3245 01fc CEF1000E 		rsblt	lr, lr, #0
 3246              	.LVL285:
 3247              	.LBB810:
 3248              	.LBB811:
 3249              	.LBB812:
 241:../../libdaisy/src/dev/oled_ssd130x.h ****             return;
 3250              		.loc 13 241 14 view .LVU767
 3251 0200 7F29     		cmp	r1, #127
 3252 0202 94BF     		ite	ls
 3253 0204 4FF0000A 		movls	r10, #0
 3254 0208 4FF0010A 		movhi	r10, #1
 3255              	.LBE812:
 3256              	.LBE811:
 3257              	.LBE810:
 189:../../libdaisy/src/hid/disp/display.h ****         int_fast16_t signY  = ((y1 < y2) ? 1 : -1);
 3258              		.loc 8 189 42 view .LVU768
 3259 020c 9942     		cmp	r1, r3
 3260 020e 8CBF     		ite	hi
 3261 0210 4FF00109 		movhi	r9, #1
 3262 0214 4FF0FF39 		movls	r9, #-1
 3263              	.LVL286:
 3264              	.LBB819:
 3265              	.LBI810:
  41:../../libdaisy/src/hid/disp/oled_display.h ****     {
 3266              		.loc 6 41 10 is_stmt 1 view .LVU769
ARM GAS  C:\Users\VINCIU~1\AppData\Local\Temp\ccUTXsQS.s 			page 100


 3267              	.LBB817:
 3268              	.LBI811:
 239:../../libdaisy/src/dev/oled_ssd130x.h ****     {
 3269              		.loc 13 239 10 view .LVU770
 3270              	.LBB815:
 241:../../libdaisy/src/dev/oled_ssd130x.h ****             return;
 3271              		.loc 13 241 9 is_stmt 0 view .LVU771
 3272 0218 BAF1000F 		cmp	r10, #0
 3273 021c 13D1     		bne	.L231
 3274 021e 039E     		ldr	r6, [sp, #12]
 3275 0220 8EB9     		cbnz	r6, .L231
 244:../../libdaisy/src/dev/oled_ssd130x.h ****         else
 3276              		.loc 13 244 28 view .LVU772
 3277 0222 E608     		lsrs	r6, r4, #3
 244:../../libdaisy/src/dev/oled_ssd130x.h ****         else
 3278              		.loc 13 244 42 view .LVU773
 3279 0224 01EBC616 		add	r6, r1, r6, lsl #7
 3280 0228 0644     		add	r6, r6, r0
 243:../../libdaisy/src/dev/oled_ssd130x.h ****             buffer_[x + (y / 8) * width] |= (1 << (y % 8));
 3281              		.loc 13 243 9 view .LVU774
 3282 022a 002D     		cmp	r5, #0
 3283 022c 00F0D380 		beq	.L232
 244:../../libdaisy/src/dev/oled_ssd130x.h ****         else
 3284              		.loc 13 244 48 view .LVU775
 3285 0230 4FF0010C 		mov	ip, #1
 244:../../libdaisy/src/dev/oled_ssd130x.h ****         else
 3286              		.loc 13 244 54 view .LVU776
 3287 0234 04F00707 		and	r7, r4, #7
 244:../../libdaisy/src/dev/oled_ssd130x.h ****         else
 3288              		.loc 13 244 48 view .LVU777
 3289 0238 0CFA07F7 		lsl	r7, ip, r7
 244:../../libdaisy/src/dev/oled_ssd130x.h ****         else
 3290              		.loc 13 244 42 view .LVU778
 3291 023c 96F814C0 		ldrb	ip, [r6, #20]	@ zero_extendqisi2
 3292 0240 47EA0C07 		orr	r7, r7, ip
 3293 0244 3775     		strb	r7, [r6, #20]
 3294              	.L231:
 3295              	.LVL287:
 244:../../libdaisy/src/dev/oled_ssd130x.h ****         else
 3296              		.loc 13 244 42 view .LVU779
 3297              	.LBE815:
 3298              	.LBE817:
 3299              	.LBE819:
 199:../../libdaisy/src/hid/disp/display.h ****         {
 3300              		.loc 8 199 26 is_stmt 1 view .LVU780
 3301 0246 049E     		ldr	r6, [sp, #16]
 3302 0248 26BB     		cbnz	r6, .L233
 187:../../libdaisy/src/hid/disp/display.h ****         int_fast16_t deltaY = abs((int_fast16_t)y2 - (int_fast16_t)y1);
 3303              		.loc 8 187 22 is_stmt 0 view .LVU781
 3304 024a 7746     		mov	r7, lr
 199:../../libdaisy/src/hid/disp/display.h ****         {
 3305              		.loc 8 199 26 view .LVU782
 3306 024c 2646     		mov	r6, r4
 3307              	.LVL288:
 3308              	.L234:
 3309              	.LBB820:
 3310              	.LBI820:
ARM GAS  C:\Users\VINCIU~1\AppData\Local\Temp\ccUTXsQS.s 			page 101


  41:../../libdaisy/src/hid/disp/oled_display.h ****     {
 3311              		.loc 6 41 10 is_stmt 1 view .LVU783
 3312              	.LBB821:
 3313              	.LBI821:
 239:../../libdaisy/src/dev/oled_ssd130x.h ****     {
 3314              		.loc 13 239 10 view .LVU784
 3315              	.LBB822:
 241:../../libdaisy/src/dev/oled_ssd130x.h ****             return;
 3316              		.loc 13 241 9 is_stmt 0 view .LVU785
 3317 024e 7F2B     		cmp	r3, #127
 3318 0250 14D8     		bhi	.L236
 241:../../libdaisy/src/dev/oled_ssd130x.h ****             return;
 3319              		.loc 13 241 9 view .LVU786
 3320 0252 3F2E     		cmp	r6, #63
 3321 0254 12D8     		bhi	.L236
 244:../../libdaisy/src/dev/oled_ssd130x.h ****         else
 3322              		.loc 13 244 28 view .LVU787
 3323 0256 4FEAD60C 		lsr	ip, r6, #3
 244:../../libdaisy/src/dev/oled_ssd130x.h ****         else
 3324              		.loc 13 244 54 view .LVU788
 3325 025a 06F0070B 		and	fp, r6, #7
 244:../../libdaisy/src/dev/oled_ssd130x.h ****         else
 3326              		.loc 13 244 48 view .LVU789
 3327 025e 4FF00108 		mov	r8, #1
 244:../../libdaisy/src/dev/oled_ssd130x.h ****         else
 3328              		.loc 13 244 42 view .LVU790
 3329 0262 03EBCC1C 		add	ip, r3, ip, lsl #7
 3330 0266 8444     		add	ip, ip, r0
 243:../../libdaisy/src/dev/oled_ssd130x.h ****             buffer_[x + (y / 8) * width] |= (1 << (y % 8));
 3331              		.loc 13 243 9 view .LVU791
 3332 0268 002D     		cmp	r5, #0
 3333 026a 73D0     		beq	.L237
 244:../../libdaisy/src/dev/oled_ssd130x.h ****         else
 3334              		.loc 13 244 48 view .LVU792
 3335 026c 08FA0BF8 		lsl	r8, r8, fp
 244:../../libdaisy/src/dev/oled_ssd130x.h ****         else
 3336              		.loc 13 244 42 view .LVU793
 3337 0270 9CF814B0 		ldrb	fp, [ip, #20]	@ zero_extendqisi2
 3338 0274 48EA0B08 		orr	r8, r8, fp
 3339 0278 8CF81480 		strb	r8, [ip, #20]
 3340              	.L236:
 3341              	.LVL289:
 244:../../libdaisy/src/dev/oled_ssd130x.h ****         else
 3342              		.loc 13 244 42 view .LVU794
 3343              	.LBE822:
 3344              	.LBE821:
 3345              	.LBE820:
 203:../../libdaisy/src/hid/disp/display.h ****             {
 3346              		.loc 8 203 13 view .LVU795
 3347 027c 5FEA470C 		lsls	ip, r7, #1
 3348              	.LVL290:
 206:../../libdaisy/src/hid/disp/display.h ****             }
 3349              		.loc 8 206 20 view .LVU796
 3350 0280 18BF     		it	ne
 3351 0282 4B44     		addne	r3, r3, r9
 3352              	.LVL291:
 209:../../libdaisy/src/hid/disp/display.h ****             {
ARM GAS  C:\Users\VINCIU~1\AppData\Local\Temp\ccUTXsQS.s 			page 102


 3353              		.loc 8 209 13 view .LVU797
 3354 0284 E645     		cmp	lr, ip
 3355 0286 01DD     		ble	.L239
 211:../../libdaisy/src/hid/disp/display.h ****                 y1 += signY;
 3356              		.loc 8 211 23 view .LVU798
 3357 0288 7744     		add	r7, r7, lr
 3358              	.LVL292:
 212:../../libdaisy/src/hid/disp/display.h ****             }
 3359              		.loc 8 212 20 view .LVU799
 3360 028a 013E     		subs	r6, r6, #1
 3361              	.LVL293:
 3362              	.L239:
 199:../../libdaisy/src/hid/disp/display.h ****         {
 3363              		.loc 8 199 26 is_stmt 1 view .LVU800
 3364 028c 9942     		cmp	r1, r3
 3365 028e DED1     		bne	.L234
 199:../../libdaisy/src/hid/disp/display.h ****         {
 3366              		.loc 8 199 26 is_stmt 0 view .LVU801
 3367 0290 B442     		cmp	r4, r6
 3368 0292 DCD1     		bne	.L234
 3369              	.LVL294:
 3370              	.L233:
 199:../../libdaisy/src/hid/disp/display.h ****         {
 3371              		.loc 8 199 26 view .LVU802
 3372              	.LBE809:
 3373              	.LBE808:
 3374              	.LBB831:
 3375              	.LBI831:
 181:../../libdaisy/src/hid/disp/display.h ****                   uint_fast8_t y1,
 3376              		.loc 8 181 10 is_stmt 1 view .LVU803
 3377              	.LBB832:
 188:../../libdaisy/src/hid/disp/display.h ****         int_fast16_t signX  = ((x1 < x2) ? 1 : -1);
 3378              		.loc 8 188 52 is_stmt 0 view .LVU804
 3379 0294 A2EB040E 		sub	lr, r2, r4
 188:../../libdaisy/src/hid/disp/display.h ****         int_fast16_t signX  = ((x1 < x2) ? 1 : -1);
 3380              		.loc 8 188 22 view .LVU805
 3381 0298 BEF1000F 		cmp	lr, #0
 3382 029c B8BF     		it	lt
 3383 029e CEF1000E 		rsblt	lr, lr, #0
 3384              	.LVL295:
 190:../../libdaisy/src/hid/disp/display.h ****         int_fast16_t error  = deltaX - deltaY;
 3385              		.loc 8 190 42 view .LVU806
 3386 02a2 A242     		cmp	r2, r4
 3387 02a4 8CBF     		ite	hi
 3388 02a6 4FF00108 		movhi	r8, #1
 3389 02aa 4FF0FF38 		movls	r8, #-1
 3390              	.LVL296:
 191:../../libdaisy/src/hid/disp/display.h ****         int_fast16_t error2;
 3391              		.loc 8 191 22 view .LVU807
 3392 02ae CEF1000C 		rsb	ip, lr, #0
 3393              	.LVL297:
 3394              	.LBB833:
 3395              	.LBI833:
  41:../../libdaisy/src/hid/disp/oled_display.h ****     {
 3396              		.loc 6 41 10 is_stmt 1 view .LVU808
 3397              	.LBB834:
 3398              	.LBI834:
ARM GAS  C:\Users\VINCIU~1\AppData\Local\Temp\ccUTXsQS.s 			page 103


 239:../../libdaisy/src/dev/oled_ssd130x.h ****     {
 3399              		.loc 13 239 10 view .LVU809
 3400              	.LBB835:
 241:../../libdaisy/src/dev/oled_ssd130x.h ****             return;
 3401              		.loc 13 241 9 is_stmt 0 view .LVU810
 3402 02b2 BAF1000F 		cmp	r10, #0
 3403 02b6 0ED1     		bne	.L241
 3404 02b8 029B     		ldr	r3, [sp, #8]
 3405 02ba 63B9     		cbnz	r3, .L241
 244:../../libdaisy/src/dev/oled_ssd130x.h ****         else
 3406              		.loc 13 244 28 view .LVU811
 3407 02bc D308     		lsrs	r3, r2, #3
 244:../../libdaisy/src/dev/oled_ssd130x.h ****         else
 3408              		.loc 13 244 54 view .LVU812
 3409 02be 02F00707 		and	r7, r2, #7
 244:../../libdaisy/src/dev/oled_ssd130x.h ****         else
 3410              		.loc 13 244 48 view .LVU813
 3411 02c2 0126     		movs	r6, #1
 244:../../libdaisy/src/dev/oled_ssd130x.h ****         else
 3412              		.loc 13 244 42 view .LVU814
 3413 02c4 01EBC313 		add	r3, r1, r3, lsl #7
 3414 02c8 0344     		add	r3, r3, r0
 243:../../libdaisy/src/dev/oled_ssd130x.h ****             buffer_[x + (y / 8) * width] |= (1 << (y % 8));
 3415              		.loc 13 243 9 view .LVU815
 3416 02ca 002D     		cmp	r5, #0
 3417 02cc 7CD0     		beq	.L242
 244:../../libdaisy/src/dev/oled_ssd130x.h ****         else
 3418              		.loc 13 244 48 view .LVU816
 3419 02ce BE40     		lsls	r6, r6, r7
 244:../../libdaisy/src/dev/oled_ssd130x.h ****         else
 3420              		.loc 13 244 42 view .LVU817
 3421 02d0 1F7D     		ldrb	r7, [r3, #20]	@ zero_extendqisi2
 3422 02d2 3E43     		orrs	r6, r6, r7
 3423 02d4 1E75     		strb	r6, [r3, #20]
 3424              	.L241:
 3425              	.LVL298:
 244:../../libdaisy/src/dev/oled_ssd130x.h ****         else
 3426              		.loc 13 244 42 view .LVU818
 3427              	.LBE835:
 3428              	.LBE834:
 3429              	.LBE833:
 199:../../libdaisy/src/hid/disp/display.h ****         {
 3430              		.loc 8 199 26 is_stmt 1 view .LVU819
 3431 02d6 019B     		ldr	r3, [sp, #4]
 3432 02d8 002B     		cmp	r3, #0
 3433 02da 7FF4CDAE 		bne	.L199
 3434 02de 6646     		mov	r6, ip
 3435 02e0 0B46     		mov	r3, r1
 3436              	.LVL299:
 3437              	.L243:
 3438              	.LBB840:
 3439              	.LBI840:
  41:../../libdaisy/src/hid/disp/oled_display.h ****     {
 3440              		.loc 6 41 10 view .LVU820
 3441              	.LBB841:
 3442              	.LBI841:
 239:../../libdaisy/src/dev/oled_ssd130x.h ****     {
ARM GAS  C:\Users\VINCIU~1\AppData\Local\Temp\ccUTXsQS.s 			page 104


 3443              		.loc 13 239 10 view .LVU821
 3444              	.LBB842:
 241:../../libdaisy/src/dev/oled_ssd130x.h ****             return;
 3445              		.loc 13 241 9 is_stmt 0 view .LVU822
 3446 02e2 7F2B     		cmp	r3, #127
 3447 02e4 12D8     		bhi	.L245
 241:../../libdaisy/src/dev/oled_ssd130x.h ****             return;
 3448              		.loc 13 241 9 view .LVU823
 3449 02e6 3F2C     		cmp	r4, #63
 3450 02e8 10D8     		bhi	.L245
 244:../../libdaisy/src/dev/oled_ssd130x.h ****         else
 3451              		.loc 13 244 28 view .LVU824
 3452 02ea E708     		lsrs	r7, r4, #3
 244:../../libdaisy/src/dev/oled_ssd130x.h ****         else
 3453              		.loc 13 244 54 view .LVU825
 3454 02ec 04F0070A 		and	r10, r4, #7
 244:../../libdaisy/src/dev/oled_ssd130x.h ****         else
 3455              		.loc 13 244 48 view .LVU826
 3456 02f0 4FF00109 		mov	r9, #1
 244:../../libdaisy/src/dev/oled_ssd130x.h ****         else
 3457              		.loc 13 244 42 view .LVU827
 3458 02f4 03EBC717 		add	r7, r3, r7, lsl #7
 3459 02f8 0744     		add	r7, r7, r0
 243:../../libdaisy/src/dev/oled_ssd130x.h ****             buffer_[x + (y / 8) * width] |= (1 << (y % 8));
 3460              		.loc 13 243 9 view .LVU828
 3461 02fa A5B3     		cbz	r5, .L246
 244:../../libdaisy/src/dev/oled_ssd130x.h ****         else
 3462              		.loc 13 244 48 view .LVU829
 3463 02fc 09FA0AF9 		lsl	r9, r9, r10
 244:../../libdaisy/src/dev/oled_ssd130x.h ****         else
 3464              		.loc 13 244 42 view .LVU830
 3465 0300 97F814A0 		ldrb	r10, [r7, #20]	@ zero_extendqisi2
 3466 0304 49EA0A09 		orr	r9, r9, r10
 3467 0308 87F81490 		strb	r9, [r7, #20]
 3468              	.L245:
 3469              	.LVL300:
 244:../../libdaisy/src/dev/oled_ssd130x.h ****         else
 3470              		.loc 13 244 42 view .LVU831
 3471              	.LBE842:
 3472              	.LBE841:
 3473              	.LBE840:
 203:../../libdaisy/src/hid/disp/display.h ****             {
 3474              		.loc 8 203 13 view .LVU832
 3475 030c BCEB460F 		cmp	ip, r6, lsl #1
 202:../../libdaisy/src/hid/disp/display.h ****             if(error2 > -deltaY)
 3476              		.loc 8 202 20 view .LVU833
 3477 0310 4FEA4607 		lsl	r7, r6, #1
 3478              	.LVL301:
 203:../../libdaisy/src/hid/disp/display.h ****             {
 3479              		.loc 8 203 13 view .LVU834
 3480 0314 02DA     		bge	.L247
 205:../../libdaisy/src/hid/disp/display.h ****                 x1 += signX;
 3481              		.loc 8 205 23 view .LVU835
 3482 0316 A6EB0E06 		sub	r6, r6, lr
 3483              	.LVL302:
 206:../../libdaisy/src/hid/disp/display.h ****             }
 3484              		.loc 8 206 20 view .LVU836
ARM GAS  C:\Users\VINCIU~1\AppData\Local\Temp\ccUTXsQS.s 			page 105


 3485 031a 013B     		subs	r3, r3, #1
 3486              	.LVL303:
 3487              	.L247:
 209:../../libdaisy/src/hid/disp/display.h ****             {
 3488              		.loc 8 209 13 view .LVU837
 3489 031c 07B1     		cbz	r7, .L248
 212:../../libdaisy/src/hid/disp/display.h ****             }
 3490              		.loc 8 212 20 view .LVU838
 3491 031e 4444     		add	r4, r4, r8
 3492              	.LVL304:
 3493              	.L248:
 199:../../libdaisy/src/hid/disp/display.h ****         {
 3494              		.loc 8 199 26 is_stmt 1 view .LVU839
 3495 0320 9942     		cmp	r1, r3
 3496 0322 DED1     		bne	.L243
 199:../../libdaisy/src/hid/disp/display.h ****         {
 3497              		.loc 8 199 26 is_stmt 0 view .LVU840
 3498 0324 A242     		cmp	r2, r4
 3499 0326 DCD1     		bne	.L243
 3500              	.LBE832:
 3501              	.LBE831:
 3502              	.LBE884:
 241:../../libdaisy/src/hid/disp/display.h **** 
 3503              		.loc 8 241 5 view .LVU841
 3504 0328 07B0     		add	sp, sp, #28
 3505              		.cfi_remember_state
 3506              		.cfi_def_cfa_offset 36
 3507              		@ sp needed
 3508 032a BDE8F08F 		pop	{r4, r5, r6, r7, r8, r9, r10, fp, pc}
 3509              	.LVL305:
 3510              	.L208:
 3511              		.cfi_restore_state
 3512              	.LBB885:
 3513              	.LBB851:
 3514              	.LBB768:
 3515              	.LBB764:
  41:../../libdaisy/src/hid/disp/oled_display.h ****     {
 3516              		.loc 6 41 10 is_stmt 1 view .LVU842
 3517              	.LBB753:
 239:../../libdaisy/src/dev/oled_ssd130x.h ****     {
 3518              		.loc 13 239 10 view .LVU843
 3519              	.LBB749:
 241:../../libdaisy/src/dev/oled_ssd130x.h ****             return;
 3520              		.loc 13 241 28 is_stmt 0 view .LVU844
 3521 032e 3F2A     		cmp	r2, #63
 3522              	.LBE749:
 3523              	.LBE753:
 3524              	.LBE764:
 189:../../libdaisy/src/hid/disp/display.h ****         int_fast16_t signY  = ((y1 < y2) ? 1 : -1);
 3525              		.loc 8 189 42 view .LVU845
 3526 0330 4FF0010A 		mov	r10, #1
 3527              	.LBB765:
 3528              	.LBB754:
 3529              	.LBB750:
 241:../../libdaisy/src/dev/oled_ssd130x.h ****             return;
 3530              		.loc 13 241 28 view .LVU846
 3531 0334 94BF     		ite	ls
ARM GAS  C:\Users\VINCIU~1\AppData\Local\Temp\ccUTXsQS.s 			page 106


 3532 0336 0026     		movls	r6, #0
 3533 0338 0126     		movhi	r6, #1
 241:../../libdaisy/src/dev/oled_ssd130x.h ****             return;
 3534              		.loc 13 241 14 view .LVU847
 3535 033a 7F2B     		cmp	r3, #127
 241:../../libdaisy/src/dev/oled_ssd130x.h ****             return;
 3536              		.loc 13 241 28 view .LVU848
 3537 033c 0296     		str	r6, [sp, #8]
 241:../../libdaisy/src/dev/oled_ssd130x.h ****             return;
 3538              		.loc 13 241 14 view .LVU849
 3539 033e 94BF     		ite	ls
 3540 0340 0027     		movls	r7, #0
 3541 0342 0127     		movhi	r7, #1
 3542 0344 0097     		str	r7, [sp]
 241:../../libdaisy/src/dev/oled_ssd130x.h ****             return;
 3543              		.loc 13 241 9 view .LVU850
 3544 0346 002E     		cmp	r6, #0
 3545 0348 7FF4C8AE 		bne	.L212
 3546 034c 002F     		cmp	r7, #0
 3547 034e 3FF4AEAE 		beq	.L250
 3548 0352 C3E6     		b	.L212
 3549              	.LVL306:
 3550              	.L237:
 241:../../libdaisy/src/dev/oled_ssd130x.h ****             return;
 3551              		.loc 13 241 9 view .LVU851
 3552              	.LBE750:
 3553              	.LBE754:
 3554              	.LBE765:
 3555              	.LBE768:
 3556              	.LBE851:
 3557              	.LBB852:
 3558              	.LBB829:
 3559              	.LBB827:
 3560              	.LBB826:
 3561              	.LBB825:
 3562              	.LBB823:
 3563              	.LBI823:
 239:../../libdaisy/src/dev/oled_ssd130x.h ****     {
 3564              		.loc 13 239 10 is_stmt 1 view .LVU852
 3565              	.LBB824:
 246:../../libdaisy/src/dev/oled_ssd130x.h ****     }
 3566              		.loc 13 246 49 is_stmt 0 view .LVU853
 3567 0354 08FA0BFB 		lsl	fp, r8, fp
 246:../../libdaisy/src/dev/oled_ssd130x.h ****     }
 3568              		.loc 13 246 42 view .LVU854
 3569 0358 9CF81480 		ldrb	r8, [ip, #20]	@ zero_extendqisi2
 3570 035c 28EA0B08 		bic	r8, r8, fp
 3571 0360 8CF81480 		strb	r8, [ip, #20]
 3572 0364 8AE7     		b	.L236
 3573              	.LVL307:
 3574              	.L246:
 246:../../libdaisy/src/dev/oled_ssd130x.h ****     }
 3575              		.loc 13 246 42 view .LVU855
 3576              	.LBE824:
 3577              	.LBE823:
 3578              	.LBE825:
 3579              	.LBE826:
ARM GAS  C:\Users\VINCIU~1\AppData\Local\Temp\ccUTXsQS.s 			page 107


 3580              	.LBE827:
 3581              	.LBE829:
 3582              	.LBE852:
 3583              	.LBB853:
 3584              	.LBB849:
 3585              	.LBB847:
 3586              	.LBB846:
 3587              	.LBB845:
 3588              	.LBB843:
 3589              	.LBI843:
 239:../../libdaisy/src/dev/oled_ssd130x.h ****     {
 3590              		.loc 13 239 10 is_stmt 1 view .LVU856
 3591              	.LBB844:
 246:../../libdaisy/src/dev/oled_ssd130x.h ****     }
 3592              		.loc 13 246 49 is_stmt 0 view .LVU857
 3593 0366 09FA0AFA 		lsl	r10, r9, r10
 246:../../libdaisy/src/dev/oled_ssd130x.h ****     }
 3594              		.loc 13 246 42 view .LVU858
 3595 036a 97F81490 		ldrb	r9, [r7, #20]	@ zero_extendqisi2
 3596 036e 29EA0A09 		bic	r9, r9, r10
 3597 0372 87F81490 		strb	r9, [r7, #20]
 3598 0376 C9E7     		b	.L245
 3599              	.LVL308:
 3600              	.L216:
 246:../../libdaisy/src/dev/oled_ssd130x.h ****     }
 3601              		.loc 13 246 42 view .LVU859
 3602              	.LBE844:
 3603              	.LBE843:
 3604              	.LBE845:
 3605              	.LBE846:
 3606              	.LBE847:
 3607              	.LBE849:
 3608              	.LBE853:
 3609              	.LBB854:
 3610              	.LBB769:
 3611              	.LBB766:
 3612              	.LBB763:
 3613              	.LBB762:
 3614              	.LBB760:
 3615              	.LBI760:
 239:../../libdaisy/src/dev/oled_ssd130x.h ****     {
 3616              		.loc 13 239 10 is_stmt 1 view .LVU860
 3617              	.LBB761:
 246:../../libdaisy/src/dev/oled_ssd130x.h ****     }
 3618              		.loc 13 246 49 is_stmt 0 view .LVU861
 3619 0378 09FA0BFB 		lsl	fp, r9, fp
 246:../../libdaisy/src/dev/oled_ssd130x.h ****     }
 3620              		.loc 13 246 42 view .LVU862
 3621 037c 97F81490 		ldrb	r9, [r7, #20]	@ zero_extendqisi2
 3622 0380 29EA0B09 		bic	r9, r9, fp
 3623 0384 87F81490 		strb	r9, [r7, #20]
 3624 0388 C5E6     		b	.L215
 3625              	.LVL309:
 3626              	.L227:
 246:../../libdaisy/src/dev/oled_ssd130x.h ****     }
 3627              		.loc 13 246 42 view .LVU863
 3628              	.LBE761:
ARM GAS  C:\Users\VINCIU~1\AppData\Local\Temp\ccUTXsQS.s 			page 108


 3629              	.LBE760:
 3630              	.LBE762:
 3631              	.LBE763:
 3632              	.LBE766:
 3633              	.LBE769:
 3634              	.LBE854:
 3635              	.LBB855:
 3636              	.LBB805:
 3637              	.LBB802:
 3638              	.LBB801:
 3639              	.LBB800:
 3640              	.LBB798:
 3641              	.LBI798:
 239:../../libdaisy/src/dev/oled_ssd130x.h ****     {
 3642              		.loc 13 239 10 is_stmt 1 view .LVU864
 3643              	.LBB799:
 246:../../libdaisy/src/dev/oled_ssd130x.h ****     }
 3644              		.loc 13 246 49 is_stmt 0 view .LVU865
 3645 038a 0AFA0BFB 		lsl	fp, r10, fp
 246:../../libdaisy/src/dev/oled_ssd130x.h ****     }
 3646              		.loc 13 246 42 view .LVU866
 3647 038e 9EF814A0 		ldrb	r10, [lr, #20]	@ zero_extendqisi2
 3648 0392 2AEA0B0A 		bic	r10, r10, fp
 3649 0396 8EF814A0 		strb	r10, [lr, #20]
 3650 039a 18E7     		b	.L226
 3651              	.LVL310:
 3652              	.L219:
 246:../../libdaisy/src/dev/oled_ssd130x.h ****     }
 3653              		.loc 13 246 42 view .LVU867
 3654              	.LBE799:
 3655              	.LBE798:
 3656              	.LBE800:
 3657              	.LBE801:
 3658              	.LBE802:
 3659              	.LBB803:
 3660              	.LBB789:
 3661              	.LBB783:
 241:../../libdaisy/src/dev/oled_ssd130x.h ****             return;
 3662              		.loc 13 241 9 view .LVU868
 3663 039c 97BB     		cbnz	r7, .L258
 3664 039e 8EBB     		cbnz	r6, .L258
 3665              	.LBE783:
 3666              	.LBE789:
 3667              	.LBE803:
 190:../../libdaisy/src/hid/disp/display.h ****         int_fast16_t error  = deltaX - deltaY;
 3668              		.loc 8 190 42 view .LVU869
 3669 03a0 0126     		movs	r6, #1
 3670 03a2 0096     		str	r6, [sp]
 3671              	.LBB804:
 3672              	.LBB790:
 3673              	.LBB784:
 244:../../libdaisy/src/dev/oled_ssd130x.h ****         else
 3674              		.loc 13 244 28 view .LVU870
 3675 03a4 E608     		lsrs	r6, r4, #3
 244:../../libdaisy/src/dev/oled_ssd130x.h ****         else
 3676              		.loc 13 244 42 view .LVU871
 3677 03a6 03EBC616 		add	r6, r3, r6, lsl #7
ARM GAS  C:\Users\VINCIU~1\AppData\Local\Temp\ccUTXsQS.s 			page 109


 3678 03aa 0644     		add	r6, r6, r0
 243:../../libdaisy/src/dev/oled_ssd130x.h ****             buffer_[x + (y / 8) * width] |= (1 << (y % 8));
 3679              		.loc 13 243 9 view .LVU872
 3680 03ac 002D     		cmp	r5, #0
 3681 03ae 7FF4E2AE 		bne	.L293
 3682              	.LVL311:
 3683              	.L221:
 3684              	.LBB777:
 3685              	.LBI777:
 239:../../libdaisy/src/dev/oled_ssd130x.h ****     {
 3686              		.loc 13 239 10 is_stmt 1 view .LVU873
 3687              	.LBB778:
 246:../../libdaisy/src/dev/oled_ssd130x.h ****     }
 3688              		.loc 13 246 49 is_stmt 0 view .LVU874
 3689 03b2 0127     		movs	r7, #1
 246:../../libdaisy/src/dev/oled_ssd130x.h ****     }
 3690              		.loc 13 246 55 view .LVU875
 3691 03b4 04F0070C 		and	ip, r4, #7
 246:../../libdaisy/src/dev/oled_ssd130x.h ****     }
 3692              		.loc 13 246 42 view .LVU876
 3693 03b8 0395     		str	r5, [sp, #12]
 246:../../libdaisy/src/dev/oled_ssd130x.h ****     }
 3694              		.loc 13 246 49 view .LVU877
 3695 03ba 07FA0CFC 		lsl	ip, r7, ip
 246:../../libdaisy/src/dev/oled_ssd130x.h ****     }
 3696              		.loc 13 246 42 view .LVU878
 3697 03be 377D     		ldrb	r7, [r6, #20]	@ zero_extendqisi2
 3698 03c0 27EA0C07 		bic	r7, r7, ip
 3699 03c4 3775     		strb	r7, [r6, #20]
 3700 03c6 E3E6     		b	.L220
 3701              	.LVL312:
 3702              	.L242:
 246:../../libdaisy/src/dev/oled_ssd130x.h ****     }
 3703              		.loc 13 246 42 view .LVU879
 3704              	.LBE778:
 3705              	.LBE777:
 3706              	.LBE784:
 3707              	.LBE790:
 3708              	.LBE804:
 3709              	.LBE805:
 3710              	.LBE855:
 3711              	.LBB856:
 3712              	.LBB850:
 3713              	.LBB848:
 3714              	.LBB839:
 3715              	.LBB838:
 3716              	.LBB836:
 3717              	.LBI836:
 239:../../libdaisy/src/dev/oled_ssd130x.h ****     {
 3718              		.loc 13 239 10 is_stmt 1 view .LVU880
 3719              	.LBB837:
 246:../../libdaisy/src/dev/oled_ssd130x.h ****     }
 3720              		.loc 13 246 49 is_stmt 0 view .LVU881
 3721 03c8 06FA07F7 		lsl	r7, r6, r7
 246:../../libdaisy/src/dev/oled_ssd130x.h ****     }
 3722              		.loc 13 246 42 view .LVU882
 3723 03cc 1E7D     		ldrb	r6, [r3, #20]	@ zero_extendqisi2
ARM GAS  C:\Users\VINCIU~1\AppData\Local\Temp\ccUTXsQS.s 			page 110


 3724 03ce 26EA0706 		bic	r6, r6, r7
 3725 03d2 1E75     		strb	r6, [r3, #20]
 3726 03d4 7FE7     		b	.L241
 3727              	.LVL313:
 3728              	.L232:
 246:../../libdaisy/src/dev/oled_ssd130x.h ****     }
 3729              		.loc 13 246 42 view .LVU883
 3730              	.LBE837:
 3731              	.LBE836:
 3732              	.LBE838:
 3733              	.LBE839:
 3734              	.LBE848:
 3735              	.LBE850:
 3736              	.LBE856:
 3737              	.LBB857:
 3738              	.LBB830:
 3739              	.LBB828:
 3740              	.LBB818:
 3741              	.LBB816:
 3742              	.LBB813:
 3743              	.LBI813:
 239:../../libdaisy/src/dev/oled_ssd130x.h ****     {
 3744              		.loc 13 239 10 is_stmt 1 view .LVU884
 3745              	.LBB814:
 246:../../libdaisy/src/dev/oled_ssd130x.h ****     }
 3746              		.loc 13 246 49 is_stmt 0 view .LVU885
 3747 03d6 0127     		movs	r7, #1
 246:../../libdaisy/src/dev/oled_ssd130x.h ****     }
 3748              		.loc 13 246 55 view .LVU886
 3749 03d8 04F0070C 		and	ip, r4, #7
 246:../../libdaisy/src/dev/oled_ssd130x.h ****     }
 3750              		.loc 13 246 49 view .LVU887
 3751 03dc 07FA0CFC 		lsl	ip, r7, ip
 246:../../libdaisy/src/dev/oled_ssd130x.h ****     }
 3752              		.loc 13 246 42 view .LVU888
 3753 03e0 377D     		ldrb	r7, [r6, #20]	@ zero_extendqisi2
 3754 03e2 27EA0C07 		bic	r7, r7, ip
 3755 03e6 3775     		strb	r7, [r6, #20]
 3756 03e8 2DE7     		b	.L231
 3757              	.LVL314:
 3758              	.L210:
 246:../../libdaisy/src/dev/oled_ssd130x.h ****     }
 3759              		.loc 13 246 42 view .LVU889
 3760              	.LBE814:
 3761              	.LBE813:
 3762              	.LBE816:
 3763              	.LBE818:
 3764              	.LBE828:
 3765              	.LBE830:
 3766              	.LBE857:
 3767              	.LBB858:
 3768              	.LBB770:
 3769              	.LBB767:
 3770              	.LBB755:
 3771              	.LBB751:
 3772              	.LBB746:
 3773              	.LBI746:
ARM GAS  C:\Users\VINCIU~1\AppData\Local\Temp\ccUTXsQS.s 			page 111


 239:../../libdaisy/src/dev/oled_ssd130x.h ****     {
 3774              		.loc 13 239 10 is_stmt 1 view .LVU890
 3775              	.LBB747:
 246:../../libdaisy/src/dev/oled_ssd130x.h ****     }
 3776              		.loc 13 246 49 is_stmt 0 view .LVU891
 3777 03ea 07FA0CFC 		lsl	ip, r7, ip
 246:../../libdaisy/src/dev/oled_ssd130x.h ****     }
 3778              		.loc 13 246 42 view .LVU892
 3779 03ee 377D     		ldrb	r7, [r6, #20]	@ zero_extendqisi2
 3780 03f0 0295     		str	r5, [sp, #8]
 3781 03f2 27EA0C07 		bic	r7, r7, ip
 3782 03f6 0095     		str	r5, [sp]
 3783 03f8 3775     		strb	r7, [r6, #20]
 3784 03fa 6CE6     		b	.L209
 3785              	.LVL315:
 3786              	.L254:
 246:../../libdaisy/src/dev/oled_ssd130x.h ****     }
 3787              		.loc 13 246 42 view .LVU893
 3788              	.LBE747:
 3789              	.LBE746:
 3790              	.LBE751:
 3791              	.LBE755:
 3792              	.LBE767:
 3793              	.LBE770:
 3794              	.LBE858:
 3795              	.LBB859:
 3796              	.LBB806:
 190:../../libdaisy/src/hid/disp/display.h ****         int_fast16_t error  = deltaX - deltaY;
 3797              		.loc 8 190 42 view .LVU894
 3798 03fc 4FF0FF36 		mov	r6, #-1
 3799 0400 0096     		str	r6, [sp]
 3800 0402 C5E6     		b	.L220
 3801              	.LVL316:
 3802              	.L258:
 190:../../libdaisy/src/hid/disp/display.h ****         int_fast16_t error  = deltaX - deltaY;
 3803              		.loc 8 190 42 view .LVU895
 3804 0404 0126     		movs	r6, #1
 3805 0406 0096     		str	r6, [sp]
 3806 0408 C5E6     		b	.L223
 3807              	.LVL317:
 3808              	.L291:
 190:../../libdaisy/src/hid/disp/display.h ****         int_fast16_t error  = deltaX - deltaY;
 3809              		.loc 8 190 42 view .LVU896
 3810              	.LBE806:
 3811              	.LBE859:
 3812              	.LBB860:
 3813              	.LBB771:
 199:../../libdaisy/src/hid/disp/display.h ****         {
 3814              		.loc 8 199 19 view .LVU897
 3815 040a 0126     		movs	r6, #1
 3816 040c 0496     		str	r6, [sp, #16]
 3817 040e 90E6     		b	.L211
 3818              	.LVL318:
 3819              	.L292:
 199:../../libdaisy/src/hid/disp/display.h ****         {
 3820              		.loc 8 199 19 view .LVU898
 3821              	.LBE771:
ARM GAS  C:\Users\VINCIU~1\AppData\Local\Temp\ccUTXsQS.s 			page 112


 3822              	.LBE860:
 3823              	.LBB861:
 3824              	.LBB807:
 199:../../libdaisy/src/hid/disp/display.h ****         {
 3825              		.loc 8 199 33 view .LVU899
 3826 0410 0126     		movs	r6, #1
 3827 0412 0196     		str	r6, [sp, #4]
 3828 0414 EDE6     		b	.L222
 3829              	.LBE807:
 3830              	.LBE861:
 3831              	.LBE885:
 3832              		.cfi_endproc
 3833              	.LFE4646:
 3835 0416 00BF     		.section	.text._Z17HandleMidiMessage9MidiEvent,"ax",%progbits
 3836              		.align	1
 3837              		.p2align 2,,3
 3838              		.global	_Z17HandleMidiMessage9MidiEvent
 3839              		.syntax unified
 3840              		.thumb
 3841              		.thumb_func
 3842              		.fpu fpv5-d16
 3844              	_Z17HandleMidiMessage9MidiEvent:
 3845              	.LFB4040:
  37:SynthMenis.cpp ****     switch(m.type)
 3846              		.loc 12 37 1 is_stmt 1 view -0
 3847              		.cfi_startproc
 3848              		@ args = 116, pretend = 16, frame = 0
 3849              		@ frame_needed = 0, uses_anonymous_args = 0
 3850 0000 84B0     		sub	sp, sp, #16
 3851              		.cfi_def_cfa_offset 16
 3852 0002 2DE9F041 		push	{r4, r5, r6, r7, r8, lr}
 3853              		.cfi_def_cfa_offset 40
 3854              		.cfi_offset 4, -40
 3855              		.cfi_offset 5, -36
 3856              		.cfi_offset 6, -32
 3857              		.cfi_offset 7, -28
 3858              		.cfi_offset 8, -24
 3859              		.cfi_offset 14, -20
 3860 0006 2DED048B 		vpush.64	{d8, d9}
 3861              		.cfi_def_cfa_offset 56
 3862              		.cfi_offset 80, -56
 3863              		.cfi_offset 81, -52
 3864              		.cfi_offset 82, -48
 3865              		.cfi_offset 83, -44
  37:SynthMenis.cpp ****     switch(m.type)
 3866              		.loc 12 37 1 is_stmt 0 view .LVU901
 3867 000a 0AAC     		add	r4, sp, #40
 3868 000c 84E80F00 		stm	r4, {r0, r1, r2, r3}
 3869              	.LBB899:
  38:SynthMenis.cpp ****     {
 3870              		.loc 12 38 14 view .LVU902
 3871 0010 9DF82830 		ldrb	r3, [sp, #40]	@ zero_extendqisi2
 3872 0014 9DF83120 		ldrb	r2, [sp, #49]	@ zero_extendqisi2
 3873              	.LVL319:
  38:SynthMenis.cpp ****     {
 3874              		.loc 12 38 14 view .LVU903
 3875              	.LBE899:
ARM GAS  C:\Users\VINCIU~1\AppData\Local\Temp\ccUTXsQS.s 			page 113


  38:SynthMenis.cpp ****     {
 3876              		.loc 12 38 5 is_stmt 1 view .LVU904
 3877              	.LBB950:
 3878 0018 73B1     		cbz	r3, .L295
 3879 001a 012B     		cmp	r3, #1
 3880 001c 06D1     		bne	.L294
 3881              	.LBB900:
  40:SynthMenis.cpp **** 
 3882              		.loc 12 40 9 view .LVU905
  42:SynthMenis.cpp ****             if(polyIndexOn > poly - 1)
 3883              		.loc 12 42 9 view .LVU906
 3884              	.LBB901:
  43:SynthMenis.cpp ****             {
 3885              		.loc 12 43 13 view .LVU907
  43:SynthMenis.cpp ****             {
 3886              		.loc 12 43 28 is_stmt 0 view .LVU908
 3887 001e 574C     		ldr	r4, .L307
  43:SynthMenis.cpp ****             {
 3888              		.loc 12 43 13 view .LVU909
 3889 0020 2368     		ldr	r3, [r4]
 3890 0022 092B     		cmp	r3, #9
 3891 0024 01DD     		ble	.L297
  45:SynthMenis.cpp ****             }
 3892              		.loc 12 45 17 is_stmt 1 view .LVU910
  45:SynthMenis.cpp ****             }
 3893              		.loc 12 45 29 is_stmt 0 view .LVU911
 3894 0026 0023     		movs	r3, #0
 3895 0028 2360     		str	r3, [r4]
 3896              	.L297:
  47:SynthMenis.cpp ****             if(m.data[1] != 0)
 3897              		.loc 12 47 13 is_stmt 1 view .LVU912
 3898              	.LVL320:
 3899              	.LBB902:
 3900              	.LBI902:
 3901              		.file 17 "../../libdaisy/src/hid/MidiEvent.h"
   1:../../libdaisy/src/hid/MidiEvent.h **** /** Parsed from the Status Byte, these are the common Midi Messages that can be handled. \n
   2:../../libdaisy/src/hid/MidiEvent.h **** At this time only 3-byte messages are correctly parsed into MidiEvents.
   3:../../libdaisy/src/hid/MidiEvent.h **** */
   4:../../libdaisy/src/hid/MidiEvent.h **** enum MidiMessageType
   5:../../libdaisy/src/hid/MidiEvent.h **** {
   6:../../libdaisy/src/hid/MidiEvent.h ****     NoteOff,               /**< & */
   7:../../libdaisy/src/hid/MidiEvent.h ****     NoteOn,                /**< & */
   8:../../libdaisy/src/hid/MidiEvent.h ****     PolyphonicKeyPressure, /**< & */
   9:../../libdaisy/src/hid/MidiEvent.h ****     ControlChange,         /**< & */
  10:../../libdaisy/src/hid/MidiEvent.h ****     ProgramChange,         /**< & */
  11:../../libdaisy/src/hid/MidiEvent.h ****     ChannelPressure,       /**< & */
  12:../../libdaisy/src/hid/MidiEvent.h ****     PitchBend,             /**< & */
  13:../../libdaisy/src/hid/MidiEvent.h ****     SystemCommon,          /**< & */
  14:../../libdaisy/src/hid/MidiEvent.h ****     SystemRealTime,        /**< & */
  15:../../libdaisy/src/hid/MidiEvent.h ****     ChannelMode,           /**< & */
  16:../../libdaisy/src/hid/MidiEvent.h ****     MessageLast,           /**< & */
  17:../../libdaisy/src/hid/MidiEvent.h **** };
  18:../../libdaisy/src/hid/MidiEvent.h **** 
  19:../../libdaisy/src/hid/MidiEvent.h **** enum SystemCommonType
  20:../../libdaisy/src/hid/MidiEvent.h **** {
  21:../../libdaisy/src/hid/MidiEvent.h ****     SystemExclusive,     /**< & */
  22:../../libdaisy/src/hid/MidiEvent.h ****     MTCQuarterFrame,     /**< & */
ARM GAS  C:\Users\VINCIU~1\AppData\Local\Temp\ccUTXsQS.s 			page 114


  23:../../libdaisy/src/hid/MidiEvent.h ****     SongPositionPointer, /**< & */
  24:../../libdaisy/src/hid/MidiEvent.h ****     SongSelect,          /**< & */
  25:../../libdaisy/src/hid/MidiEvent.h ****     SCUndefined0,        /**< & */
  26:../../libdaisy/src/hid/MidiEvent.h ****     SCUndefined1,        /**< & */
  27:../../libdaisy/src/hid/MidiEvent.h ****     TuneRequest,         /**< & */
  28:../../libdaisy/src/hid/MidiEvent.h ****     SysExEnd,            /**< & */
  29:../../libdaisy/src/hid/MidiEvent.h ****     SystemCommonLast,    /**< & */
  30:../../libdaisy/src/hid/MidiEvent.h **** };
  31:../../libdaisy/src/hid/MidiEvent.h **** 
  32:../../libdaisy/src/hid/MidiEvent.h **** enum SystemRealTimeType
  33:../../libdaisy/src/hid/MidiEvent.h **** {
  34:../../libdaisy/src/hid/MidiEvent.h ****     TimingClock,        /**< & */
  35:../../libdaisy/src/hid/MidiEvent.h ****     SRTUndefined0,      /**< & */
  36:../../libdaisy/src/hid/MidiEvent.h ****     Start,              /**< & */
  37:../../libdaisy/src/hid/MidiEvent.h ****     Continue,           /**< & */
  38:../../libdaisy/src/hid/MidiEvent.h ****     Stop,               /**< & */
  39:../../libdaisy/src/hid/MidiEvent.h ****     SRTUndefined1,      /**< & */
  40:../../libdaisy/src/hid/MidiEvent.h ****     ActiveSensing,      /**< & */
  41:../../libdaisy/src/hid/MidiEvent.h ****     Reset,              /**< & */
  42:../../libdaisy/src/hid/MidiEvent.h ****     SystemRealTimeLast, /**< & */
  43:../../libdaisy/src/hid/MidiEvent.h **** };
  44:../../libdaisy/src/hid/MidiEvent.h **** 
  45:../../libdaisy/src/hid/MidiEvent.h **** enum ChannelModeType
  46:../../libdaisy/src/hid/MidiEvent.h **** {
  47:../../libdaisy/src/hid/MidiEvent.h ****     AllSoundOff,         /**< & */
  48:../../libdaisy/src/hid/MidiEvent.h ****     ResetAllControllers, /**< & */
  49:../../libdaisy/src/hid/MidiEvent.h ****     LocalControl,        /**< & */
  50:../../libdaisy/src/hid/MidiEvent.h ****     AllNotesOff,         /**< & */
  51:../../libdaisy/src/hid/MidiEvent.h ****     OmniModeOff,         /**< & */
  52:../../libdaisy/src/hid/MidiEvent.h ****     OmniModeOn,          /**< & */
  53:../../libdaisy/src/hid/MidiEvent.h ****     MonoModeOn,          /**< & */
  54:../../libdaisy/src/hid/MidiEvent.h ****     PolyModeOn,          /**< & */
  55:../../libdaisy/src/hid/MidiEvent.h ****     ChannelModeLast,     /**< & */
  56:../../libdaisy/src/hid/MidiEvent.h **** };
  57:../../libdaisy/src/hid/MidiEvent.h **** 
  58:../../libdaisy/src/hid/MidiEvent.h **** /** Struct containing note, and velocity data for a given channel.
  59:../../libdaisy/src/hid/MidiEvent.h **** Can be made from MidiEvent
  60:../../libdaisy/src/hid/MidiEvent.h **** */
  61:../../libdaisy/src/hid/MidiEvent.h **** struct NoteOffEvent
  62:../../libdaisy/src/hid/MidiEvent.h **** {
  63:../../libdaisy/src/hid/MidiEvent.h ****     int     channel;  /**< & */
  64:../../libdaisy/src/hid/MidiEvent.h ****     uint8_t note;     /**< & */
  65:../../libdaisy/src/hid/MidiEvent.h ****     uint8_t velocity; /**< & */
  66:../../libdaisy/src/hid/MidiEvent.h **** };
  67:../../libdaisy/src/hid/MidiEvent.h **** 
  68:../../libdaisy/src/hid/MidiEvent.h **** 
  69:../../libdaisy/src/hid/MidiEvent.h **** /** Struct containing note, and velocity data for a given channel.
  70:../../libdaisy/src/hid/MidiEvent.h **** Can be made from MidiEvent
  71:../../libdaisy/src/hid/MidiEvent.h **** */
  72:../../libdaisy/src/hid/MidiEvent.h **** struct NoteOnEvent
  73:../../libdaisy/src/hid/MidiEvent.h **** {
  74:../../libdaisy/src/hid/MidiEvent.h ****     int     channel;  /**< & */
  75:../../libdaisy/src/hid/MidiEvent.h ****     uint8_t note;     /**< & */
  76:../../libdaisy/src/hid/MidiEvent.h ****     uint8_t velocity; /**< & */
  77:../../libdaisy/src/hid/MidiEvent.h **** };
  78:../../libdaisy/src/hid/MidiEvent.h **** /** Struct containing note, and pressure data for a given channel.
  79:../../libdaisy/src/hid/MidiEvent.h **** Can be made from MidiEvent
ARM GAS  C:\Users\VINCIU~1\AppData\Local\Temp\ccUTXsQS.s 			page 115


  80:../../libdaisy/src/hid/MidiEvent.h **** */
  81:../../libdaisy/src/hid/MidiEvent.h **** struct PolyphonicKeyPressureEvent
  82:../../libdaisy/src/hid/MidiEvent.h **** {
  83:../../libdaisy/src/hid/MidiEvent.h ****     int     channel;
  84:../../libdaisy/src/hid/MidiEvent.h ****     uint8_t note;
  85:../../libdaisy/src/hid/MidiEvent.h ****     uint8_t pressure;
  86:../../libdaisy/src/hid/MidiEvent.h **** };
  87:../../libdaisy/src/hid/MidiEvent.h **** /** Struct containing control number, and value for a given channel.
  88:../../libdaisy/src/hid/MidiEvent.h **** Can be made from MidiEvent
  89:../../libdaisy/src/hid/MidiEvent.h **** */
  90:../../libdaisy/src/hid/MidiEvent.h **** struct ControlChangeEvent
  91:../../libdaisy/src/hid/MidiEvent.h **** {
  92:../../libdaisy/src/hid/MidiEvent.h ****     int     channel;        /**< & */
  93:../../libdaisy/src/hid/MidiEvent.h ****     uint8_t control_number; /**< & */
  94:../../libdaisy/src/hid/MidiEvent.h ****     uint8_t value;          /**< & */
  95:../../libdaisy/src/hid/MidiEvent.h **** };
  96:../../libdaisy/src/hid/MidiEvent.h **** /** Struct containing new program number, for a given channel.
  97:../../libdaisy/src/hid/MidiEvent.h **** Can be made from MidiEvent
  98:../../libdaisy/src/hid/MidiEvent.h **** */
  99:../../libdaisy/src/hid/MidiEvent.h **** struct ProgramChangeEvent
 100:../../libdaisy/src/hid/MidiEvent.h **** {
 101:../../libdaisy/src/hid/MidiEvent.h ****     int     channel; /**< & */
 102:../../libdaisy/src/hid/MidiEvent.h ****     uint8_t program; /**< & */
 103:../../libdaisy/src/hid/MidiEvent.h **** };
 104:../../libdaisy/src/hid/MidiEvent.h **** /** Struct containing pressure (aftertouch), for a given channel.
 105:../../libdaisy/src/hid/MidiEvent.h **** Can be made from MidiEvent
 106:../../libdaisy/src/hid/MidiEvent.h **** */
 107:../../libdaisy/src/hid/MidiEvent.h **** struct ChannelPressureEvent
 108:../../libdaisy/src/hid/MidiEvent.h **** {
 109:../../libdaisy/src/hid/MidiEvent.h ****     int     channel;  /**< & */
 110:../../libdaisy/src/hid/MidiEvent.h ****     uint8_t pressure; /**< & */
 111:../../libdaisy/src/hid/MidiEvent.h **** };
 112:../../libdaisy/src/hid/MidiEvent.h **** /** Struct containing pitch bend value for a given channel.
 113:../../libdaisy/src/hid/MidiEvent.h **** Can be made from MidiEvent
 114:../../libdaisy/src/hid/MidiEvent.h **** */
 115:../../libdaisy/src/hid/MidiEvent.h **** struct PitchBendEvent
 116:../../libdaisy/src/hid/MidiEvent.h **** {
 117:../../libdaisy/src/hid/MidiEvent.h ****     int     channel; /**< & */
 118:../../libdaisy/src/hid/MidiEvent.h ****     int16_t value;   /**< & */
 119:../../libdaisy/src/hid/MidiEvent.h **** };
 120:../../libdaisy/src/hid/MidiEvent.h **** /** Struct containing sysex data.
 121:../../libdaisy/src/hid/MidiEvent.h **** Can be made from MidiEvent
 122:../../libdaisy/src/hid/MidiEvent.h **** */
 123:../../libdaisy/src/hid/MidiEvent.h **** struct SystemExclusiveEvent
 124:../../libdaisy/src/hid/MidiEvent.h **** {
 125:../../libdaisy/src/hid/MidiEvent.h ****     int     length;
 126:../../libdaisy/src/hid/MidiEvent.h ****     uint8_t data[SYSEX_BUFFER_LEN]; /**< & */
 127:../../libdaisy/src/hid/MidiEvent.h **** };
 128:../../libdaisy/src/hid/MidiEvent.h **** /** Struct containing QuarterFrame data.
 129:../../libdaisy/src/hid/MidiEvent.h **** Can be made from MidiEvent
 130:../../libdaisy/src/hid/MidiEvent.h **** */
 131:../../libdaisy/src/hid/MidiEvent.h **** struct MTCQuarterFrameEvent
 132:../../libdaisy/src/hid/MidiEvent.h **** {
 133:../../libdaisy/src/hid/MidiEvent.h ****     uint8_t message_type; /**< & */
 134:../../libdaisy/src/hid/MidiEvent.h ****     uint8_t value;        /**< & */
 135:../../libdaisy/src/hid/MidiEvent.h **** };
 136:../../libdaisy/src/hid/MidiEvent.h **** /** Struct containing song position data.
ARM GAS  C:\Users\VINCIU~1\AppData\Local\Temp\ccUTXsQS.s 			page 116


 137:../../libdaisy/src/hid/MidiEvent.h **** Can be made from MidiEvent
 138:../../libdaisy/src/hid/MidiEvent.h **** */
 139:../../libdaisy/src/hid/MidiEvent.h **** struct SongPositionPointerEvent
 140:../../libdaisy/src/hid/MidiEvent.h **** {
 141:../../libdaisy/src/hid/MidiEvent.h ****     uint16_t position; /**< & */
 142:../../libdaisy/src/hid/MidiEvent.h **** };
 143:../../libdaisy/src/hid/MidiEvent.h **** /** Struct containing song select data.
 144:../../libdaisy/src/hid/MidiEvent.h **** Can be made from MidiEvent
 145:../../libdaisy/src/hid/MidiEvent.h **** */
 146:../../libdaisy/src/hid/MidiEvent.h **** struct SongSelectEvent
 147:../../libdaisy/src/hid/MidiEvent.h **** {
 148:../../libdaisy/src/hid/MidiEvent.h ****     uint8_t song; /**< & */
 149:../../libdaisy/src/hid/MidiEvent.h **** };
 150:../../libdaisy/src/hid/MidiEvent.h **** /** Struct containing sound off data.
 151:../../libdaisy/src/hid/MidiEvent.h **** Can be made from MidiEvent
 152:../../libdaisy/src/hid/MidiEvent.h **** */
 153:../../libdaisy/src/hid/MidiEvent.h **** struct AllSoundOffEvent
 154:../../libdaisy/src/hid/MidiEvent.h **** {
 155:../../libdaisy/src/hid/MidiEvent.h ****     int channel; /**< & */
 156:../../libdaisy/src/hid/MidiEvent.h **** };
 157:../../libdaisy/src/hid/MidiEvent.h **** /** Struct containing ResetAllControllersEvent data.
 158:../../libdaisy/src/hid/MidiEvent.h **** Can be made from MidiEvent
 159:../../libdaisy/src/hid/MidiEvent.h **** */
 160:../../libdaisy/src/hid/MidiEvent.h **** struct ResetAllControllersEvent
 161:../../libdaisy/src/hid/MidiEvent.h **** {
 162:../../libdaisy/src/hid/MidiEvent.h ****     int     channel; /**< & */
 163:../../libdaisy/src/hid/MidiEvent.h ****     uint8_t value;   /**< & */
 164:../../libdaisy/src/hid/MidiEvent.h **** };
 165:../../libdaisy/src/hid/MidiEvent.h **** /** Struct containing LocalControlEvent data.
 166:../../libdaisy/src/hid/MidiEvent.h **** Can be made from MidiEvent
 167:../../libdaisy/src/hid/MidiEvent.h **** */
 168:../../libdaisy/src/hid/MidiEvent.h **** struct LocalControlEvent
 169:../../libdaisy/src/hid/MidiEvent.h **** {
 170:../../libdaisy/src/hid/MidiEvent.h ****     int  channel;           /**< & */
 171:../../libdaisy/src/hid/MidiEvent.h ****     bool local_control_off; /**< & */
 172:../../libdaisy/src/hid/MidiEvent.h ****     bool local_control_on;  /**< & */
 173:../../libdaisy/src/hid/MidiEvent.h **** };
 174:../../libdaisy/src/hid/MidiEvent.h **** /** Struct containing AllNotesOffEvent data.
 175:../../libdaisy/src/hid/MidiEvent.h **** Can be made from MidiEvent
 176:../../libdaisy/src/hid/MidiEvent.h **** */
 177:../../libdaisy/src/hid/MidiEvent.h **** struct AllNotesOffEvent
 178:../../libdaisy/src/hid/MidiEvent.h **** {
 179:../../libdaisy/src/hid/MidiEvent.h ****     int channel; /**< & */
 180:../../libdaisy/src/hid/MidiEvent.h **** };
 181:../../libdaisy/src/hid/MidiEvent.h **** /** Struct containing OmniModeOffEvent data. 
 182:../../libdaisy/src/hid/MidiEvent.h ****  * Can be made from MidiEvent
 183:../../libdaisy/src/hid/MidiEvent.h **** */
 184:../../libdaisy/src/hid/MidiEvent.h **** struct OmniModeOffEvent
 185:../../libdaisy/src/hid/MidiEvent.h **** {
 186:../../libdaisy/src/hid/MidiEvent.h ****     int channel; /**< & */
 187:../../libdaisy/src/hid/MidiEvent.h **** };
 188:../../libdaisy/src/hid/MidiEvent.h **** /** Struct containing OmniModeOnEvent data.
 189:../../libdaisy/src/hid/MidiEvent.h **** Can be made from MidiEvent
 190:../../libdaisy/src/hid/MidiEvent.h **** */
 191:../../libdaisy/src/hid/MidiEvent.h **** struct OmniModeOnEvent
 192:../../libdaisy/src/hid/MidiEvent.h **** {
 193:../../libdaisy/src/hid/MidiEvent.h ****     int channel; /**< & */
ARM GAS  C:\Users\VINCIU~1\AppData\Local\Temp\ccUTXsQS.s 			page 117


 194:../../libdaisy/src/hid/MidiEvent.h **** };
 195:../../libdaisy/src/hid/MidiEvent.h **** /** Struct containing MonoModeOnEvent data.
 196:../../libdaisy/src/hid/MidiEvent.h **** Can be made from MidiEvent
 197:../../libdaisy/src/hid/MidiEvent.h **** */
 198:../../libdaisy/src/hid/MidiEvent.h **** struct MonoModeOnEvent
 199:../../libdaisy/src/hid/MidiEvent.h **** {
 200:../../libdaisy/src/hid/MidiEvent.h ****     int     channel;      /**< & */
 201:../../libdaisy/src/hid/MidiEvent.h ****     uint8_t num_channels; /**< & */
 202:../../libdaisy/src/hid/MidiEvent.h **** };
 203:../../libdaisy/src/hid/MidiEvent.h **** /** Struct containing PolyModeOnEvent data.
 204:../../libdaisy/src/hid/MidiEvent.h **** Can be made from MidiEvent
 205:../../libdaisy/src/hid/MidiEvent.h **** */
 206:../../libdaisy/src/hid/MidiEvent.h **** struct PolyModeOnEvent
 207:../../libdaisy/src/hid/MidiEvent.h **** {
 208:../../libdaisy/src/hid/MidiEvent.h ****     int channel; /**< & */
 209:../../libdaisy/src/hid/MidiEvent.h **** };
 210:../../libdaisy/src/hid/MidiEvent.h **** 
 211:../../libdaisy/src/hid/MidiEvent.h **** 
 212:../../libdaisy/src/hid/MidiEvent.h **** /** Simple MidiEvent with message type, channel, and data[2] members.
 213:../../libdaisy/src/hid/MidiEvent.h **** */
 214:../../libdaisy/src/hid/MidiEvent.h **** struct MidiEvent
 215:../../libdaisy/src/hid/MidiEvent.h **** {
 216:../../libdaisy/src/hid/MidiEvent.h ****     // Newer ish.
 217:../../libdaisy/src/hid/MidiEvent.h ****     MidiMessageType    type;                         /**< & */
 218:../../libdaisy/src/hid/MidiEvent.h ****     int                channel;                      /**< & */
 219:../../libdaisy/src/hid/MidiEvent.h ****     uint8_t            data[2];                      /**< & */
 220:../../libdaisy/src/hid/MidiEvent.h ****     uint8_t            sysex_data[SYSEX_BUFFER_LEN]; /**< & */
 221:../../libdaisy/src/hid/MidiEvent.h ****     uint8_t            sysex_message_len;
 222:../../libdaisy/src/hid/MidiEvent.h ****     SystemCommonType   sc_type;
 223:../../libdaisy/src/hid/MidiEvent.h ****     SystemRealTimeType srt_type;
 224:../../libdaisy/src/hid/MidiEvent.h ****     ChannelModeType    cm_type;
 225:../../libdaisy/src/hid/MidiEvent.h **** 
 226:../../libdaisy/src/hid/MidiEvent.h ****     /** Returns the data within the MidiEvent as a NoteOffEvent struct */
 227:../../libdaisy/src/hid/MidiEvent.h ****     NoteOffEvent AsNoteOff()
 228:../../libdaisy/src/hid/MidiEvent.h ****     {
 229:../../libdaisy/src/hid/MidiEvent.h ****         NoteOffEvent m;
 230:../../libdaisy/src/hid/MidiEvent.h ****         m.channel  = channel;
 231:../../libdaisy/src/hid/MidiEvent.h ****         m.note     = data[0];
 232:../../libdaisy/src/hid/MidiEvent.h ****         m.velocity = data[1];
 233:../../libdaisy/src/hid/MidiEvent.h ****         return m;
 234:../../libdaisy/src/hid/MidiEvent.h ****     }
 235:../../libdaisy/src/hid/MidiEvent.h **** 
 236:../../libdaisy/src/hid/MidiEvent.h ****     /** Returns the data within the MidiEvent as a NoteOnEvent struct */
 237:../../libdaisy/src/hid/MidiEvent.h ****     NoteOnEvent AsNoteOn()
 3902              		.loc 17 237 17 view .LVU913
 3903              	.LBB903:
 238:../../libdaisy/src/hid/MidiEvent.h ****     {
 239:../../libdaisy/src/hid/MidiEvent.h ****         NoteOnEvent m;
 3904              		.loc 17 239 9 view .LVU914
 240:../../libdaisy/src/hid/MidiEvent.h ****         m.channel  = channel;
 3905              		.loc 17 240 9 view .LVU915
 241:../../libdaisy/src/hid/MidiEvent.h ****         m.note     = data[0];
 3906              		.loc 17 241 9 view .LVU916
 242:../../libdaisy/src/hid/MidiEvent.h ****         m.velocity = data[1];
 3907              		.loc 17 242 9 view .LVU917
 243:../../libdaisy/src/hid/MidiEvent.h ****         return m;
 3908              		.loc 17 243 9 view .LVU918
ARM GAS  C:\Users\VINCIU~1\AppData\Local\Temp\ccUTXsQS.s 			page 118


 3909              		.loc 17 243 9 is_stmt 0 view .LVU919
 3910              	.LBE903:
 3911              	.LBE902:
  48:SynthMenis.cpp ****             {
 3912              		.loc 12 48 13 is_stmt 1 view .LVU920
 3913 002a BAB9     		cbnz	r2, .L306
 3914              	.LVL321:
 3915              	.L294:
  48:SynthMenis.cpp ****             {
 3916              		.loc 12 48 13 is_stmt 0 view .LVU921
 3917              	.LBE901:
 3918              	.LBE900:
 3919              	.LBE950:
  81:SynthMenis.cpp **** 
 3920              		.loc 12 81 1 view .LVU922
 3921 002c BDEC048B 		vldm	sp!, {d8-d9}
 3922              		.cfi_remember_state
 3923              		.cfi_restore 82
 3924              		.cfi_restore 83
 3925              		.cfi_restore 80
 3926              		.cfi_restore 81
 3927              		.cfi_def_cfa_offset 40
 3928 0030 BDE8F041 		pop	{r4, r5, r6, r7, r8, lr}
 3929              		.cfi_restore 14
 3930              		.cfi_restore 8
 3931              		.cfi_restore 7
 3932              		.cfi_restore 6
 3933              		.cfi_restore 5
 3934              		.cfi_restore 4
 3935              		.cfi_def_cfa_offset 16
 3936 0034 04B0     		add	sp, sp, #16
 3937              		.cfi_def_cfa_offset 0
 3938 0036 7047     		bx	lr
 3939              	.L295:
 3940              		.cfi_restore_state
 3941              	.LBB951:
 3942              	.LBB946:
  66:SynthMenis.cpp ****         {
 3943              		.loc 12 66 9 is_stmt 1 view .LVU923
  67:SynthMenis.cpp ****             if(m.data[1] != 0)
 3944              		.loc 12 67 9 view .LVU924
  68:SynthMenis.cpp ****             {
 3945              		.loc 12 68 13 view .LVU925
 3946 0038 002A     		cmp	r2, #0
 3947 003a F7D0     		beq	.L294
  70:SynthMenis.cpp ****                 {
 3948              		.loc 12 70 17 view .LVU926
  70:SynthMenis.cpp ****                 {
 3949              		.loc 12 70 33 is_stmt 0 view .LVU927
 3950 003c 5049     		ldr	r1, .L307+4
 3951 003e 0A68     		ldr	r2, [r1]
 3952              	.LVL322:
  70:SynthMenis.cpp ****                 {
 3953              		.loc 12 70 17 view .LVU928
 3954 0040 092A     		cmp	r2, #9
 3955 0042 00F39880 		bgt	.L301
  75:SynthMenis.cpp ****             }
ARM GAS  C:\Users\VINCIU~1\AppData\Local\Temp\ccUTXsQS.s 			page 119


 3956              		.loc 12 75 51 view .LVU929
 3957 0046 541C     		adds	r4, r2, #1
 3958              	.L300:
  74:SynthMenis.cpp ****                 polyIndexOff       = polyIndexOff + 1;
 3959              		.loc 12 74 17 is_stmt 1 view .LVU930
  74:SynthMenis.cpp ****                 polyIndexOff       = polyIndexOff + 1;
 3960              		.loc 12 74 36 is_stmt 0 view .LVU931
 3961 0048 4E4B     		ldr	r3, .L307+8
 3962 004a 0020     		movs	r0, #0
  75:SynthMenis.cpp ****             }
 3963              		.loc 12 75 36 view .LVU932
 3964 004c 0C60     		str	r4, [r1]
  74:SynthMenis.cpp ****                 polyIndexOff       = polyIndexOff + 1;
 3965              		.loc 12 74 36 view .LVU933
 3966 004e 9854     		strb	r0, [r3, r2]
  75:SynthMenis.cpp ****             }
 3967              		.loc 12 75 17 is_stmt 1 view .LVU934
 3968              	.LBE946:
 3969              	.LBE951:
  81:SynthMenis.cpp **** 
 3970              		.loc 12 81 1 is_stmt 0 view .LVU935
 3971 0050 BDEC048B 		vldm	sp!, {d8-d9}
 3972              		.cfi_remember_state
 3973              		.cfi_restore 82
 3974              		.cfi_restore 83
 3975              		.cfi_restore 80
 3976              		.cfi_restore 81
 3977              		.cfi_def_cfa_offset 40
 3978 0054 BDE8F041 		pop	{r4, r5, r6, r7, r8, lr}
 3979              		.cfi_restore 14
 3980              		.cfi_restore 8
 3981              		.cfi_restore 7
 3982              		.cfi_restore 6
 3983              		.cfi_restore 5
 3984              		.cfi_restore 4
 3985              		.cfi_def_cfa_offset 16
 3986 0058 04B0     		add	sp, sp, #16
 3987              		.cfi_def_cfa_offset 0
 3988 005a 7047     		bx	lr
 3989              	.LVL323:
 3990              	.L306:
 3991              		.cfi_restore_state
 3992              	.LBB952:
 3993              	.LBB947:
 3994              	.LBB944:
  50:SynthMenis.cpp ****                                         p.note,
 3995              		.loc 12 50 61 view .LVU936
 3996 005c 4A4E     		ldr	r6, .L307+12
  50:SynthMenis.cpp ****                                         p.note,
 3997              		.loc 12 50 48 view .LVU937
 3998 005e B5EE004B 		vmov.f64	d4, #2.5e-1
 3999              	.LBB905:
 4000              	.LBB904:
 241:../../libdaisy/src/hid/MidiEvent.h ****         m.velocity = data[1];
 4001              		.loc 17 241 28 view .LVU938
 4002 0062 9DF83050 		ldrb	r5, [sp, #48]	@ zero_extendqisi2
 4003              	.LBE904:
ARM GAS  C:\Users\VINCIU~1\AppData\Local\Temp\ccUTXsQS.s 			page 120


 4004              	.LBE905:
  50:SynthMenis.cpp ****                                         p.note,
 4005              		.loc 12 50 17 is_stmt 1 view .LVU939
 4006              	.LBB906:
 4007              	.LBB907:
 4008              		.file 18 "../../DaisySP/Source/Utility/dsp.h"
   1:../../DaisySP/Source/Utility/dsp.h **** /** Helpful defines, functions, and other utilities for use in/with daisysp modules.
   2:../../DaisySP/Source/Utility/dsp.h **** */
   3:../../DaisySP/Source/Utility/dsp.h **** #pragma once
   4:../../DaisySP/Source/Utility/dsp.h **** #ifndef DSY_CORE_DSP
   5:../../DaisySP/Source/Utility/dsp.h **** #define DSY_CORE_DSP
   6:../../DaisySP/Source/Utility/dsp.h **** #include <cassert>
   7:../../DaisySP/Source/Utility/dsp.h **** #include <cstdint>
   8:../../DaisySP/Source/Utility/dsp.h **** #include <random>
   9:../../DaisySP/Source/Utility/dsp.h **** #include <cmath>
  10:../../DaisySP/Source/Utility/dsp.h **** 
  11:../../DaisySP/Source/Utility/dsp.h **** /** PIs
  12:../../DaisySP/Source/Utility/dsp.h **** */
  13:../../DaisySP/Source/Utility/dsp.h **** #define PI_F 3.1415927410125732421875f
  14:../../DaisySP/Source/Utility/dsp.h **** #define TWOPI_F (2.0f * PI_F)
  15:../../DaisySP/Source/Utility/dsp.h **** #define HALFPI_F (PI_F * 0.5f)
  16:../../DaisySP/Source/Utility/dsp.h **** #define DSY_MIN(in, mn) (in < mn ? in : mn)
  17:../../DaisySP/Source/Utility/dsp.h **** #define DSY_MAX(in, mx) (in > mx ? in : mx)
  18:../../DaisySP/Source/Utility/dsp.h **** #define DSY_CLAMP(in, mn, mx) (DSY_MIN(DSY_MAX(in, mn), mx))
  19:../../DaisySP/Source/Utility/dsp.h **** #define DSY_COUNTOF(_arr) (sizeof(_arr) / sizeof(_arr[0]))
  20:../../DaisySP/Source/Utility/dsp.h **** 
  21:../../DaisySP/Source/Utility/dsp.h **** namespace daisysp
  22:../../DaisySP/Source/Utility/dsp.h **** {
  23:../../DaisySP/Source/Utility/dsp.h **** //Avoids division for random floats. e.g. rand() * kRandFrac
  24:../../DaisySP/Source/Utility/dsp.h **** static constexpr float kRandFrac = 1.f / (float)RAND_MAX;
  25:../../DaisySP/Source/Utility/dsp.h **** 
  26:../../DaisySP/Source/Utility/dsp.h **** //Convert from semitones to other units. e.g. 2 ^ (kOneTwelfth * x)
  27:../../DaisySP/Source/Utility/dsp.h **** static constexpr float kOneTwelfth = 1.f / 12.f;
  28:../../DaisySP/Source/Utility/dsp.h **** 
  29:../../DaisySP/Source/Utility/dsp.h **** /** efficient floating point min/max
  30:../../DaisySP/Source/Utility/dsp.h **** c/o stephen mccaul
  31:../../DaisySP/Source/Utility/dsp.h **** */
  32:../../DaisySP/Source/Utility/dsp.h **** inline float fmax(float a, float b)
  33:../../DaisySP/Source/Utility/dsp.h **** {
  34:../../DaisySP/Source/Utility/dsp.h ****     float r;
  35:../../DaisySP/Source/Utility/dsp.h **** #ifdef __arm__
  36:../../DaisySP/Source/Utility/dsp.h ****     asm("vmaxnm.f32 %[d], %[n], %[m]" : [d] "=t"(r) : [n] "t"(a), [m] "t"(b) :);
  37:../../DaisySP/Source/Utility/dsp.h **** #else
  38:../../DaisySP/Source/Utility/dsp.h ****     r = (a > b) ? a : b;
  39:../../DaisySP/Source/Utility/dsp.h **** #endif // __arm__
  40:../../DaisySP/Source/Utility/dsp.h ****     return r;
  41:../../DaisySP/Source/Utility/dsp.h **** }
  42:../../DaisySP/Source/Utility/dsp.h **** 
  43:../../DaisySP/Source/Utility/dsp.h **** inline float fmin(float a, float b)
  44:../../DaisySP/Source/Utility/dsp.h **** {
  45:../../DaisySP/Source/Utility/dsp.h ****     float r;
  46:../../DaisySP/Source/Utility/dsp.h **** #ifdef __arm__
  47:../../DaisySP/Source/Utility/dsp.h ****     asm("vminnm.f32 %[d], %[n], %[m]" : [d] "=t"(r) : [n] "t"(a), [m] "t"(b) :);
  48:../../DaisySP/Source/Utility/dsp.h **** #else
  49:../../DaisySP/Source/Utility/dsp.h ****     r = (a < b) ? a : b;
  50:../../DaisySP/Source/Utility/dsp.h **** #endif // __arm__
  51:../../DaisySP/Source/Utility/dsp.h ****     return r;
ARM GAS  C:\Users\VINCIU~1\AppData\Local\Temp\ccUTXsQS.s 			page 121


  52:../../DaisySP/Source/Utility/dsp.h **** }
  53:../../DaisySP/Source/Utility/dsp.h **** 
  54:../../DaisySP/Source/Utility/dsp.h **** /** quick fp clamp
  55:../../DaisySP/Source/Utility/dsp.h **** */
  56:../../DaisySP/Source/Utility/dsp.h **** inline float fclamp(float in, float min, float max)
  57:../../DaisySP/Source/Utility/dsp.h **** {
  58:../../DaisySP/Source/Utility/dsp.h ****     return fmin(fmax(in, min), max);
  59:../../DaisySP/Source/Utility/dsp.h **** }
  60:../../DaisySP/Source/Utility/dsp.h **** 
  61:../../DaisySP/Source/Utility/dsp.h **** /** From Musicdsp.org "Fast power and root estimates for 32bit floats)
  62:../../DaisySP/Source/Utility/dsp.h **** Original code by Stefan Stenzel
  63:../../DaisySP/Source/Utility/dsp.h **** These are approximations
  64:../../DaisySP/Source/Utility/dsp.h **** */
  65:../../DaisySP/Source/Utility/dsp.h **** inline float fastpower(float f, int n)
  66:../../DaisySP/Source/Utility/dsp.h **** {
  67:../../DaisySP/Source/Utility/dsp.h ****     long *lp, l;
  68:../../DaisySP/Source/Utility/dsp.h ****     lp = (long *)(&f);
  69:../../DaisySP/Source/Utility/dsp.h ****     l  = *lp;
  70:../../DaisySP/Source/Utility/dsp.h ****     l -= 0x3F800000;
  71:../../DaisySP/Source/Utility/dsp.h ****     l <<= (n - 1);
  72:../../DaisySP/Source/Utility/dsp.h ****     l += 0x3F800000;
  73:../../DaisySP/Source/Utility/dsp.h ****     *lp = l;
  74:../../DaisySP/Source/Utility/dsp.h ****     return f;
  75:../../DaisySP/Source/Utility/dsp.h **** }
  76:../../DaisySP/Source/Utility/dsp.h **** 
  77:../../DaisySP/Source/Utility/dsp.h **** inline float fastroot(float f, int n)
  78:../../DaisySP/Source/Utility/dsp.h **** {
  79:../../DaisySP/Source/Utility/dsp.h ****     long *lp, l;
  80:../../DaisySP/Source/Utility/dsp.h ****     lp = (long *)(&f);
  81:../../DaisySP/Source/Utility/dsp.h ****     l  = *lp;
  82:../../DaisySP/Source/Utility/dsp.h ****     l -= 0x3F800000;
  83:../../DaisySP/Source/Utility/dsp.h ****     l >>= (n = 1);
  84:../../DaisySP/Source/Utility/dsp.h ****     l += 0x3F800000;
  85:../../DaisySP/Source/Utility/dsp.h ****     *lp = l;
  86:../../DaisySP/Source/Utility/dsp.h ****     return f;
  87:../../DaisySP/Source/Utility/dsp.h **** }
  88:../../DaisySP/Source/Utility/dsp.h **** 
  89:../../DaisySP/Source/Utility/dsp.h **** /** From http://openaudio.blogspot.com/2017/02/faster-log10-and-pow.html
  90:../../DaisySP/Source/Utility/dsp.h **** No approximation, pow10f(x) gives a 90% speed increase over powf(10.f, x)
  91:../../DaisySP/Source/Utility/dsp.h **** */
  92:../../DaisySP/Source/Utility/dsp.h **** inline float pow10f(float f)
  93:../../DaisySP/Source/Utility/dsp.h **** {
  94:../../DaisySP/Source/Utility/dsp.h ****     return expf(2.302585092994046f * f);
  95:../../DaisySP/Source/Utility/dsp.h **** }
  96:../../DaisySP/Source/Utility/dsp.h **** 
  97:../../DaisySP/Source/Utility/dsp.h **** /* Original code for fastlog2f by Dr. Paul Beckmann from the ARM community forum, adapted from the 
  98:../../DaisySP/Source/Utility/dsp.h **** About 25% performance increase over std::log10f
  99:../../DaisySP/Source/Utility/dsp.h **** */
 100:../../DaisySP/Source/Utility/dsp.h **** inline float fastlog2f(float f)
 101:../../DaisySP/Source/Utility/dsp.h **** {
 102:../../DaisySP/Source/Utility/dsp.h ****     float frac;
 103:../../DaisySP/Source/Utility/dsp.h ****     int   exp;
 104:../../DaisySP/Source/Utility/dsp.h ****     frac = frexpf(fabsf(f), &exp);
 105:../../DaisySP/Source/Utility/dsp.h ****     f    = 1.23149591368684f;
 106:../../DaisySP/Source/Utility/dsp.h ****     f *= frac;
 107:../../DaisySP/Source/Utility/dsp.h ****     f += -4.11852516267426f;
 108:../../DaisySP/Source/Utility/dsp.h ****     f *= frac;
ARM GAS  C:\Users\VINCIU~1\AppData\Local\Temp\ccUTXsQS.s 			page 122


 109:../../DaisySP/Source/Utility/dsp.h ****     f += 6.02197014179219f;
 110:../../DaisySP/Source/Utility/dsp.h ****     f *= frac;
 111:../../DaisySP/Source/Utility/dsp.h ****     f += -3.13396450166353f;
 112:../../DaisySP/Source/Utility/dsp.h ****     f += exp;
 113:../../DaisySP/Source/Utility/dsp.h ****     return (f);
 114:../../DaisySP/Source/Utility/dsp.h **** }
 115:../../DaisySP/Source/Utility/dsp.h **** 
 116:../../DaisySP/Source/Utility/dsp.h **** inline float fastlog10f(float f)
 117:../../DaisySP/Source/Utility/dsp.h **** {
 118:../../DaisySP/Source/Utility/dsp.h ****     return fastlog2f(f) * 0.3010299956639812f;
 119:../../DaisySP/Source/Utility/dsp.h **** }
 120:../../DaisySP/Source/Utility/dsp.h **** 
 121:../../DaisySP/Source/Utility/dsp.h **** /** Midi to frequency helper
 122:../../DaisySP/Source/Utility/dsp.h **** */
 123:../../DaisySP/Source/Utility/dsp.h **** inline float mtof(float m)
 124:../../DaisySP/Source/Utility/dsp.h **** {
 125:../../DaisySP/Source/Utility/dsp.h ****     return powf(2, (m - 69.0f) / 12.0f) * 440.0f;
 4009              		.loc 18 125 16 is_stmt 0 view .LVU940
 4010 0066 B2EE089A 		vmov.f32	s18, #1.2e+1
 4011              	.LBE907:
 4012              	.LBE906:
  50:SynthMenis.cpp ****                                         p.note,
 4013              		.loc 12 50 71 view .LVU941
 4014 006a D6ED246A 		vldr.32	s13, [r6, #144]	@ int
  56:SynthMenis.cpp ****                 freq2 = mtof(p.note + synthmenu.noteSemiAdd2)
 4015              		.loc 12 56 30 view .LVU942
 4016 006e B7EE008A 		vmov.f32	s16, #1.0e+0
  50:SynthMenis.cpp ****                                         p.note,
 4017              		.loc 12 50 48 view .LVU943
 4018 0072 07EE905A 		vmov	s15, r5	@ int
  50:SynthMenis.cpp ****                                         p.note,
 4019              		.loc 12 50 40 view .LVU944
 4020 0076 2068     		ldr	r0, [r4]
  50:SynthMenis.cpp ****                                         p.note,
 4021              		.loc 12 50 71 view .LVU945
 4022 0078 B8EEE66B 		vcvt.f64.s32	d6, s13
  50:SynthMenis.cpp ****                                         p.note,
 4023              		.loc 12 50 40 view .LVU946
 4024 007c DFED435A 		vldr.32	s11, .L307+16
  50:SynthMenis.cpp ****                                         p.note,
 4025              		.loc 12 50 48 view .LVU947
 4026 0080 B8EEE77B 		vcvt.f64.s32	d7, s15
  50:SynthMenis.cpp ****                                         p.note,
 4027              		.loc 12 50 40 view .LVU948
 4028 0084 96ED251A 		vldr.32	s2, [r6, #148]
 4029 0088 414B     		ldr	r3, .L307+20
 4030 008a C0EBC000 		rsb	r0, r0, r0, lsl #3
 4031 008e 81EE251A 		vdiv.f32	s2, s2, s11
 4032              	.LBB913:
 4033              	.LBB908:
 4034              		.loc 18 125 23 view .LVU949
 4035 0092 DFED409A 		vldr.32	s19, .L307+24
 4036              	.LBE908:
 4037              	.LBE913:
  50:SynthMenis.cpp ****                                         p.note,
 4038              		.loc 12 50 40 view .LVU950
 4039 0096 03EB8000 		add	r0, r3, r0, lsl #2
ARM GAS  C:\Users\VINCIU~1\AppData\Local\Temp\ccUTXsQS.s 			page 123


 4040              	.LBB914:
 4041              	.LBB909:
 4042              		.loc 18 125 43 view .LVU951
 4043 009a DFED3F8A 		vldr.32	s17, .L307+28
 4044              	.LBE909:
 4045              	.LBE914:
  55:SynthMenis.cpp ****                         * (1 + synthmenu.freqFine);
 4046              		.loc 12 55 23 view .LVU952
 4047 009e DFF80481 		ldr	r8, .L307+40
  57:SynthMenis.cpp ****                         * (1 + synthmenu.freqFine2);
 4048              		.loc 12 57 23 view .LVU953
 4049 00a2 3E4F     		ldr	r7, .L307+32
  50:SynthMenis.cpp ****                                         p.note,
 4050              		.loc 12 50 48 view .LVU954
 4051 00a4 A6EE047B 		vfma.f64	d7, d6, d4
  50:SynthMenis.cpp ****                                         p.note,
 4052              		.loc 12 50 40 view .LVU955
 4053 00a8 06EE905A 		vmov	s13, r5	@ int
 4054 00ac F8EE660A 		vcvt.f32.u32	s1, s13
 4055 00b0 B7EEC70B 		vcvt.f32.f64	s0, d7
 4056 00b4 FFF7FEFF 		bl	_ZN7daisysp4Line5StartEfff
 4057              	.LVL324:
  53:SynthMenis.cpp **** 
 4058              		.loc 12 53 17 is_stmt 1 view .LVU956
  55:SynthMenis.cpp ****                         * (1 + synthmenu.freqFine);
 4059              		.loc 12 55 37 is_stmt 0 view .LVU957
 4060 00b8 D6F86431 		ldr	r3, [r6, #356]
  53:SynthMenis.cpp **** 
 4061              		.loc 12 53 35 view .LVU958
 4062 00bc 2268     		ldr	r2, [r4]
 4063              	.LBB915:
 4064              	.LBB910:
 4065              		.loc 18 125 16 view .LVU959
 4066 00be B0EE000A 		vmov.f32	s0, #2.0e+0
 4067              	.LBE910:
 4068              	.LBE915:
  55:SynthMenis.cpp ****                         * (1 + synthmenu.freqFine);
 4069              		.loc 12 55 37 view .LVU960
 4070 00c2 EB18     		adds	r3, r5, r3
  53:SynthMenis.cpp **** 
 4071              		.loc 12 53 35 view .LVU961
 4072 00c4 2F49     		ldr	r1, .L307+8
  55:SynthMenis.cpp ****                         * (1 + synthmenu.freqFine);
 4073              		.loc 12 55 37 view .LVU962
 4074 00c6 00EE903A 		vmov	s1, r3	@ int
  53:SynthMenis.cpp **** 
 4075              		.loc 12 53 35 view .LVU963
 4076 00ca 0123     		movs	r3, #1
  55:SynthMenis.cpp ****                         * (1 + synthmenu.freqFine);
 4077              		.loc 12 55 29 view .LVU964
 4078 00cc F8EEE00A 		vcvt.f32.s32	s1, s1
  53:SynthMenis.cpp **** 
 4079              		.loc 12 53 35 view .LVU965
 4080 00d0 8B54     		strb	r3, [r1, r2]
  55:SynthMenis.cpp ****                         * (1 + synthmenu.freqFine);
 4081              		.loc 12 55 17 is_stmt 1 view .LVU966
 4082              	.LVL325:
ARM GAS  C:\Users\VINCIU~1\AppData\Local\Temp\ccUTXsQS.s 			page 124


 4083              	.LBB916:
 4084              	.LBI906:
 123:../../DaisySP/Source/Utility/dsp.h **** {
 4085              		.loc 18 123 14 view .LVU967
 4086              	.LBB911:
 4087              		.loc 18 125 5 view .LVU968
 4088              		.loc 18 125 23 is_stmt 0 view .LVU969
 4089 00d2 70EEE90A 		vsub.f32	s1, s1, s19
 4090              	.LVL326:
 4091              		.loc 18 125 16 view .LVU970
 4092 00d6 C0EE890A 		vdiv.f32	s1, s1, s18
 4093 00da FFF7FEFF 		bl	powf
 4094              	.LVL327:
 4095              		.loc 18 125 16 view .LVU971
 4096              	.LBE911:
 4097              	.LBE916:
  57:SynthMenis.cpp ****                         * (1 + synthmenu.freqFine2);
 4098              		.loc 12 57 37 view .LVU972
 4099 00de D6F86831 		ldr	r3, [r6, #360]
  56:SynthMenis.cpp ****                 freq2 = mtof(p.note + synthmenu.noteSemiAdd2)
 4100              		.loc 12 56 30 view .LVU973
 4101 00e2 D6ED5D7A 		vldr.32	s15, [r6, #372]
  57:SynthMenis.cpp ****                         * (1 + synthmenu.freqFine2);
 4102              		.loc 12 57 37 view .LVU974
 4103 00e6 EB18     		adds	r3, r5, r3
 4104 00e8 00EE903A 		vmov	s1, r3	@ int
 4105              	.LBB917:
 4106              	.LBB912:
 4107              		.loc 18 125 43 view .LVU975
 4108 00ec 20EE287A 		vmul.f32	s14, s0, s17
 4109              	.LBE912:
 4110              	.LBE917:
  56:SynthMenis.cpp ****                 freq2 = mtof(p.note + synthmenu.noteSemiAdd2)
 4111              		.loc 12 56 30 view .LVU976
 4112 00f0 77EE887A 		vadd.f32	s15, s15, s16
  57:SynthMenis.cpp ****                         * (1 + synthmenu.freqFine2);
 4113              		.loc 12 57 29 view .LVU977
 4114 00f4 F8EEE00A 		vcvt.f32.s32	s1, s1
 4115              	.LBB918:
 4116              	.LBB919:
 4117              		.loc 18 125 16 view .LVU978
 4118 00f8 B0EE000A 		vmov.f32	s0, #2.0e+0
 4119              	.LBE919:
 4120              	.LBE918:
  56:SynthMenis.cpp ****                 freq2 = mtof(p.note + synthmenu.noteSemiAdd2)
 4121              		.loc 12 56 25 view .LVU979
 4122 00fc 67EE877A 		vmul.f32	s15, s15, s14
 4123              	.LBB923:
 4124              	.LBB920:
 4125              		.loc 18 125 23 view .LVU980
 4126 0100 70EEE90A 		vsub.f32	s1, s1, s19
 4127              	.LBE920:
 4128              	.LBE923:
  55:SynthMenis.cpp ****                         * (1 + synthmenu.freqFine);
 4129              		.loc 12 55 23 view .LVU981
 4130 0104 C8ED007A 		vstr.32	s15, [r8]
  57:SynthMenis.cpp ****                         * (1 + synthmenu.freqFine2);
ARM GAS  C:\Users\VINCIU~1\AppData\Local\Temp\ccUTXsQS.s 			page 125


 4131              		.loc 12 57 17 is_stmt 1 view .LVU982
 4132              	.LVL328:
 4133              	.LBB924:
 4134              	.LBI918:
 123:../../DaisySP/Source/Utility/dsp.h **** {
 4135              		.loc 18 123 14 view .LVU983
 4136              	.LBB921:
 4137              		.loc 18 125 5 view .LVU984
 4138              		.loc 18 125 16 is_stmt 0 view .LVU985
 4139 0108 C0EE890A 		vdiv.f32	s1, s1, s18
 4140 010c FFF7FEFF 		bl	powf
 4141              	.LVL329:
 4142              		.loc 18 125 16 view .LVU986
 4143              	.LBE921:
 4144              	.LBE924:
  58:SynthMenis.cpp ****    osc[polyIndexOn].osc1.SetFreq(freq1);
 4145              		.loc 12 58 30 view .LVU987
 4146 0110 D6ED5E7A 		vldr.32	s15, [r6, #376]
  59:SynthMenis.cpp ****         osc[polyIndexOn].osc2.SetFreq(freq2);
 4147              		.loc 12 59 21 view .LVU988
 4148 0114 2568     		ldr	r5, [r4]
 4149              	.LBB925:
 4150              	.LBB926:
  60:../../DaisySP/Source/Synthesis/oscillator.h ****         phase_inc_ = CalcPhaseInc(f);
 4151              		.loc 15 60 20 view .LVU989
 4152 0116 224E     		ldr	r6, .L307+36
 4153 0118 05EB8505 		add	r5, r5, r5, lsl #2
 4154              	.LBE926:
 4155              	.LBE925:
 4156              	.LBB931:
 4157              	.LBB922:
 4158              		.loc 18 125 43 view .LVU990
 4159 011c 20EE287A 		vmul.f32	s14, s0, s17
 4160              	.LBE922:
 4161              	.LBE931:
  59:SynthMenis.cpp ****         osc[polyIndexOn].osc2.SetFreq(freq2);
 4162              		.loc 12 59 33 view .LVU991
 4163 0120 98ED000A 		vldr.32	s0, [r8]
  58:SynthMenis.cpp ****    osc[polyIndexOn].osc1.SetFreq(freq1);
 4164              		.loc 12 58 30 view .LVU992
 4165 0124 77EE887A 		vadd.f32	s15, s15, s16
 4166              	.LBB932:
 4167              	.LBB927:
  60:../../DaisySP/Source/Synthesis/oscillator.h ****         phase_inc_ = CalcPhaseInc(f);
 4168              		.loc 15 60 20 view .LVU993
 4169 0128 06EB0515 		add	r5, r6, r5, lsl #4
  61:../../DaisySP/Source/Synthesis/oscillator.h ****     }
 4170              		.loc 15 61 34 view .LVU994
 4171 012c 2846     		mov	r0, r5
  60:../../DaisySP/Source/Synthesis/oscillator.h ****         phase_inc_ = CalcPhaseInc(f);
 4172              		.loc 15 60 20 view .LVU995
 4173 012e 85ED020A 		vstr.32	s0, [r5, #8]
 4174              	.LBE927:
 4175              	.LBE932:
  58:SynthMenis.cpp ****    osc[polyIndexOn].osc1.SetFreq(freq1);
 4176              		.loc 12 58 25 view .LVU996
 4177 0132 67EE877A 		vmul.f32	s15, s15, s14
ARM GAS  C:\Users\VINCIU~1\AppData\Local\Temp\ccUTXsQS.s 			page 126


  57:SynthMenis.cpp ****                         * (1 + synthmenu.freqFine2);
 4178              		.loc 12 57 23 view .LVU997
 4179 0136 C7ED007A 		vstr.32	s15, [r7]
  59:SynthMenis.cpp ****         osc[polyIndexOn].osc2.SetFreq(freq2);
 4180              		.loc 12 59 4 is_stmt 1 view .LVU998
 4181              	.LVL330:
 4182              	.LBB933:
 4183              	.LBI925:
  58:../../DaisySP/Source/Synthesis/oscillator.h ****     {
 4184              		.loc 15 58 17 view .LVU999
 4185              	.LBB928:
  60:../../DaisySP/Source/Synthesis/oscillator.h ****         phase_inc_ = CalcPhaseInc(f);
 4186              		.loc 15 60 9 view .LVU1000
  61:../../DaisySP/Source/Synthesis/oscillator.h ****     }
 4187              		.loc 15 61 9 view .LVU1001
  61:../../DaisySP/Source/Synthesis/oscillator.h ****     }
 4188              		.loc 15 61 34 is_stmt 0 view .LVU1002
 4189 013a FFF7FEFF 		bl	_ZN7daisysp10Oscillator12CalcPhaseIncEf
 4190              	.LVL331:
  61:../../DaisySP/Source/Synthesis/oscillator.h ****     }
 4191              		.loc 15 61 34 view .LVU1003
 4192              	.LBE928:
 4193              	.LBE933:
  60:SynthMenis.cpp ****                 polyIndexOn = polyIndexOn + 1;
 4194              		.loc 12 60 26 view .LVU1004
 4195 013e 2368     		ldr	r3, [r4]
 4196              	.LBB934:
 4197              	.LBB929:
  61:../../DaisySP/Source/Synthesis/oscillator.h ****     }
 4198              		.loc 15 61 34 view .LVU1005
 4199 0140 F0EE407A 		vmov.f32	s15, s0
 4200              	.LBE929:
 4201              	.LBE934:
  60:SynthMenis.cpp ****                 polyIndexOn = polyIndexOn + 1;
 4202              		.loc 12 60 38 view .LVU1006
 4203 0144 97ED000A 		vldr.32	s0, [r7]
 4204              	.LBB935:
 4205              	.LBB936:
  60:../../DaisySP/Source/Synthesis/oscillator.h ****         phase_inc_ = CalcPhaseInc(f);
 4206              		.loc 15 60 20 view .LVU1007
 4207 0148 03EB8303 		add	r3, r3, r3, lsl #2
 4208              	.LBE936:
 4209              	.LBE935:
 4210              	.LBB940:
 4211              	.LBB930:
  61:../../DaisySP/Source/Synthesis/oscillator.h ****     }
 4212              		.loc 15 61 20 view .LVU1008
 4213 014c C5ED067A 		vstr.32	s15, [r5, #24]
  61:../../DaisySP/Source/Synthesis/oscillator.h ****     }
 4214              		.loc 15 61 20 view .LVU1009
 4215              	.LBE930:
 4216              	.LBE940:
  60:SynthMenis.cpp ****                 polyIndexOn = polyIndexOn + 1;
 4217              		.loc 12 60 9 is_stmt 1 view .LVU1010
 4218              	.LVL332:
 4219              	.LBB941:
 4220              	.LBI935:
ARM GAS  C:\Users\VINCIU~1\AppData\Local\Temp\ccUTXsQS.s 			page 127


  58:../../DaisySP/Source/Synthesis/oscillator.h ****     {
 4221              		.loc 15 58 17 view .LVU1011
 4222              	.LBB937:
  60:../../DaisySP/Source/Synthesis/oscillator.h ****         phase_inc_ = CalcPhaseInc(f);
 4223              		.loc 15 60 9 view .LVU1012
 4224              	.LBE937:
 4225              	.LBE941:
  60:SynthMenis.cpp ****                 polyIndexOn = polyIndexOn + 1;
 4226              		.loc 12 60 38 is_stmt 0 view .LVU1013
 4227 0150 06EB0310 		add	r0, r6, r3, lsl #4
 4228              	.LBB942:
 4229              	.LBB938:
  60:../../DaisySP/Source/Synthesis/oscillator.h ****         phase_inc_ = CalcPhaseInc(f);
 4230              		.loc 15 60 20 view .LVU1014
 4231 0154 0646     		mov	r6, r0
  61:../../DaisySP/Source/Synthesis/oscillator.h ****     }
 4232              		.loc 15 61 34 view .LVU1015
 4233 0156 2830     		adds	r0, r0, #40
  60:../../DaisySP/Source/Synthesis/oscillator.h ****         phase_inc_ = CalcPhaseInc(f);
 4234              		.loc 15 60 20 view .LVU1016
 4235 0158 86ED0C0A 		vstr.32	s0, [r6, #48]
  61:../../DaisySP/Source/Synthesis/oscillator.h ****     }
 4236              		.loc 15 61 9 is_stmt 1 view .LVU1017
  61:../../DaisySP/Source/Synthesis/oscillator.h ****     }
 4237              		.loc 15 61 34 is_stmt 0 view .LVU1018
 4238 015c FFF7FEFF 		bl	_ZN7daisysp10Oscillator12CalcPhaseIncEf
 4239              	.LVL333:
  61:../../DaisySP/Source/Synthesis/oscillator.h ****     }
 4240              		.loc 15 61 34 view .LVU1019
 4241              	.LBE938:
 4242              	.LBE942:
  61:SynthMenis.cpp ****             }
 4243              		.loc 12 61 43 view .LVU1020
 4244 0160 2368     		ldr	r3, [r4]
 4245              	.LBB943:
 4246              	.LBB939:
  61:../../DaisySP/Source/Synthesis/oscillator.h ****     }
 4247              		.loc 15 61 20 view .LVU1021
 4248 0162 86ED100A 		vstr.32	s0, [r6, #64]
  61:../../DaisySP/Source/Synthesis/oscillator.h ****     }
 4249              		.loc 15 61 20 view .LVU1022
 4250              	.LBE939:
 4251              	.LBE943:
  61:SynthMenis.cpp ****             }
 4252              		.loc 12 61 17 is_stmt 1 view .LVU1023
  61:SynthMenis.cpp ****             }
 4253              		.loc 12 61 43 is_stmt 0 view .LVU1024
 4254 0166 0133     		adds	r3, r3, #1
 4255              	.LBE944:
 4256              	.LBE947:
 4257              	.LBE952:
  81:SynthMenis.cpp **** 
 4258              		.loc 12 81 1 view .LVU1025
 4259 0168 BDEC048B 		vldm	sp!, {d8-d9}
 4260              		.cfi_remember_state
 4261              		.cfi_restore 82
 4262              		.cfi_restore 83
ARM GAS  C:\Users\VINCIU~1\AppData\Local\Temp\ccUTXsQS.s 			page 128


 4263              		.cfi_restore 80
 4264              		.cfi_restore 81
 4265              		.cfi_def_cfa_offset 40
 4266              	.LBB953:
 4267              	.LBB948:
 4268              	.LBB945:
  61:SynthMenis.cpp ****             }
 4269              		.loc 12 61 29 view .LVU1026
 4270 016c 2360     		str	r3, [r4]
 4271              	.LBE945:
 4272              	.LBE948:
 4273              	.LBE953:
  81:SynthMenis.cpp **** 
 4274              		.loc 12 81 1 view .LVU1027
 4275 016e BDE8F041 		pop	{r4, r5, r6, r7, r8, lr}
 4276              		.cfi_restore 14
 4277              		.cfi_restore 8
 4278              		.cfi_restore 7
 4279              		.cfi_restore 6
 4280              		.cfi_restore 5
 4281              		.cfi_restore 4
 4282              		.cfi_def_cfa_offset 16
 4283 0172 04B0     		add	sp, sp, #16
 4284              		.cfi_def_cfa_offset 0
 4285 0174 7047     		bx	lr
 4286              	.LVL334:
 4287              	.L301:
 4288              		.cfi_restore_state
 4289              	.LBB954:
 4290              	.LBB949:
  81:SynthMenis.cpp **** 
 4291              		.loc 12 81 1 view .LVU1028
 4292 0176 0124     		movs	r4, #1
 4293 0178 1A46     		mov	r2, r3
 4294 017a 65E7     		b	.L300
 4295              	.L308:
 4296              		.align	2
 4297              	.L307:
 4298 017c 00000000 		.word	.LANCHOR7
 4299 0180 00000000 		.word	.LANCHOR10
 4300 0184 00000000 		.word	.LANCHOR0
 4301 0188 00000000 		.word	.LANCHOR2
 4302 018c 0000C842 		.word	1120403456
 4303 0190 00000000 		.word	.LANCHOR4
 4304 0194 00008A42 		.word	1116340224
 4305 0198 0000DC43 		.word	1138491392
 4306 019c 00000000 		.word	.LANCHOR9
 4307 01a0 00000000 		.word	.LANCHOR3
 4308 01a4 00000000 		.word	.LANCHOR8
 4309              	.LBE949:
 4310              	.LBE954:
 4311              		.cfi_endproc
 4312              	.LFE4040:
 4314              		.section	.text._ZN5daisy13SSD130xDriverILj128ELj64ENS_24SSD130x4WireSpiTransportEE4InitENS2_6Confi
 4315              		.align	1
 4316              		.p2align 2,,3
 4317              		.weak	_ZN5daisy13SSD130xDriverILj128ELj64ENS_24SSD130x4WireSpiTransportEE4InitENS2_6ConfigE
ARM GAS  C:\Users\VINCIU~1\AppData\Local\Temp\ccUTXsQS.s 			page 129


 4318              		.syntax unified
 4319              		.thumb
 4320              		.thumb_func
 4321              		.fpu fpv5-d16
 4323              	_ZN5daisy13SSD130xDriverILj128ELj64ENS_24SSD130x4WireSpiTransportEE4InitENS2_6ConfigE:
 4324              	.LVL335:
 4325              	.LFB4487:
 140:../../libdaisy/src/dev/oled_ssd130x.h ****     {
 4326              		.loc 13 140 10 is_stmt 1 view -0
 4327              		.cfi_startproc
 4328              		@ args = 0, pretend = 0, frame = 48
 4329              		@ frame_needed = 0, uses_anonymous_args = 0
 140:../../libdaisy/src/dev/oled_ssd130x.h ****     {
 4330              		.loc 13 140 10 is_stmt 0 view .LVU1030
 4331 0000 2DE9F041 		push	{r4, r5, r6, r7, r8, lr}
 4332              		.cfi_def_cfa_offset 24
 4333              		.cfi_offset 4, -24
 4334              		.cfi_offset 5, -20
 4335              		.cfi_offset 6, -16
 4336              		.cfi_offset 7, -12
 4337              		.cfi_offset 8, -8
 4338              		.cfi_offset 14, -4
 4339              	.LBB1003:
 4340              	.LBB1004:
  79:../../libdaisy/src/dev/oled_ssd130x.h ****         pin_dc_.pin  = config.pin_config.dc;
 4341              		.loc 13 79 22 view .LVU1031
 4342 0004 0126     		movs	r6, #1
 4343              	.LBE1004:
 4344              	.LBE1003:
 140:../../libdaisy/src/dev/oled_ssd130x.h ****     {
 4345              		.loc 13 140 10 view .LVU1032
 4346 0006 8CB0     		sub	sp, sp, #48
 4347              		.cfi_def_cfa_offset 72
 4348              	.LBB1008:
 4349              	.LBB1005:
  80:../../libdaisy/src/dev/oled_ssd130x.h ****         dsy_gpio_init(&pin_dc_);
 4350              		.loc 13 80 22 view .LVU1033
 4351 0008 0746     		mov	r7, r0
 4352              	.LBE1005:
 4353              	.LBE1008:
 140:../../libdaisy/src/dev/oled_ssd130x.h ****     {
 4354              		.loc 13 140 10 view .LVU1034
 4355 000a 0446     		mov	r4, r0
 4356              	.LVL336:
 4357              	.LBB1009:
 4358              	.LBI1003:
  76:../../libdaisy/src/dev/oled_ssd130x.h ****     {
 4359              		.loc 13 76 10 is_stmt 1 view .LVU1035
 4360              	.LBB1006:
  79:../../libdaisy/src/dev/oled_ssd130x.h ****         pin_dc_.pin  = config.pin_config.dc;
 4361              		.loc 13 79 9 view .LVU1036
  83:../../libdaisy/src/dev/oled_ssd130x.h ****         dsy_gpio_init(&pin_reset_);
 4362              		.loc 13 83 25 is_stmt 0 view .LVU1037
 4363 000c 8046     		mov	r8, r0
 4364              	.LBE1006:
 4365              	.LBE1009:
 140:../../libdaisy/src/dev/oled_ssd130x.h ****     {
ARM GAS  C:\Users\VINCIU~1\AppData\Local\Temp\ccUTXsQS.s 			page 130


 4366              		.loc 13 140 10 view .LVU1038
 4367 000e 0191     		str	r1, [sp, #4]
 4368              	.LBB1010:
 4369              	.LBB1007:
  79:../../libdaisy/src/dev/oled_ssd130x.h ****         pin_dc_.pin  = config.pin_config.dc;
 4370              		.loc 13 79 22 view .LVU1039
 4371 0010 8672     		strb	r6, [r0, #10]
  80:../../libdaisy/src/dev/oled_ssd130x.h ****         dsy_gpio_init(&pin_dc_);
 4372              		.loc 13 80 9 is_stmt 1 view .LVU1040
  87:../../libdaisy/src/dev/oled_ssd130x.h ****         spi_config.mode      = SpiHandle::Config::Mode::MASTER;
 4373              		.loc 13 87 30 is_stmt 0 view .LVU1041
 4374 0012 0025     		movs	r5, #0
  80:../../libdaisy/src/dev/oled_ssd130x.h ****         dsy_gpio_init(&pin_dc_);
 4375              		.loc 13 80 22 view .LVU1042
 4376 0014 27F8081F 		strh	r1, [r7, #8]!	@ movhi
  81:../../libdaisy/src/dev/oled_ssd130x.h ****         pin_reset_.mode = DSY_GPIO_MODE_OUTPUT_PP;
 4377              		.loc 13 81 9 is_stmt 1 view .LVU1043
  81:../../libdaisy/src/dev/oled_ssd130x.h ****         pin_reset_.mode = DSY_GPIO_MODE_OUTPUT_PP;
 4378              		.loc 13 81 22 is_stmt 0 view .LVU1044
 4379 0018 3846     		mov	r0, r7
 4380              	.LVL337:
  81:../../libdaisy/src/dev/oled_ssd130x.h ****         pin_reset_.mode = DSY_GPIO_MODE_OUTPUT_PP;
 4381              		.loc 13 81 22 view .LVU1045
 4382 001a FFF7FEFF 		bl	dsy_gpio_init
 4383              	.LVL338:
  82:../../libdaisy/src/dev/oled_ssd130x.h ****         pin_reset_.pin  = config.pin_config.reset;
 4384              		.loc 13 82 9 is_stmt 1 view .LVU1046
  83:../../libdaisy/src/dev/oled_ssd130x.h ****         dsy_gpio_init(&pin_reset_);
 4385              		.loc 13 83 25 is_stmt 0 view .LVU1047
 4386 001e BDF80630 		ldrh	r3, [sp, #6]
  82:../../libdaisy/src/dev/oled_ssd130x.h ****         pin_reset_.pin  = config.pin_config.reset;
 4387              		.loc 13 82 25 view .LVU1048
 4388 0022 A671     		strb	r6, [r4, #6]
  83:../../libdaisy/src/dev/oled_ssd130x.h ****         dsy_gpio_init(&pin_reset_);
 4389              		.loc 13 83 9 is_stmt 1 view .LVU1049
  83:../../libdaisy/src/dev/oled_ssd130x.h ****         dsy_gpio_init(&pin_reset_);
 4390              		.loc 13 83 25 is_stmt 0 view .LVU1050
 4391 0024 28F8043F 		strh	r3, [r8, #4]!	@ movhi
  84:../../libdaisy/src/dev/oled_ssd130x.h ****         // Initialize SPI
 4392              		.loc 13 84 9 is_stmt 1 view .LVU1051
  84:../../libdaisy/src/dev/oled_ssd130x.h ****         // Initialize SPI
 4393              		.loc 13 84 22 is_stmt 0 view .LVU1052
 4394 0028 4046     		mov	r0, r8
 4395 002a FFF7FEFF 		bl	dsy_gpio_init
 4396              	.LVL339:
  86:../../libdaisy/src/dev/oled_ssd130x.h ****         spi_config.periph    = SpiHandle::Config::Peripheral::SPI_1;
 4397              		.loc 13 86 9 is_stmt 1 view .LVU1053
  87:../../libdaisy/src/dev/oled_ssd130x.h ****         spi_config.mode      = SpiHandle::Config::Mode::MASTER;
 4398              		.loc 13 87 9 view .LVU1054
  88:../../libdaisy/src/dev/oled_ssd130x.h ****         spi_config.direction = SpiHandle::Config::Direction::TWO_LINES_TX_ONLY;
 4399              		.loc 13 88 9 view .LVU1055
  89:../../libdaisy/src/dev/oled_ssd130x.h ****         spi_config.datasize  = 8;
 4400              		.loc 13 89 9 view .LVU1056
  90:../../libdaisy/src/dev/oled_ssd130x.h ****         spi_config.clock_polarity = SpiHandle::Config::ClockPolarity::LOW;
 4401              		.loc 13 90 9 view .LVU1057
  91:../../libdaisy/src/dev/oled_ssd130x.h ****         spi_config.clock_phase    = SpiHandle::Config::ClockPhase::ONE_EDGE;
 4402              		.loc 13 91 9 view .LVU1058
ARM GAS  C:\Users\VINCIU~1\AppData\Local\Temp\ccUTXsQS.s 			page 131


  92:../../libdaisy/src/dev/oled_ssd130x.h ****         spi_config.nss            = SpiHandle::Config::NSS::HARD_OUTPUT;
 4403              		.loc 13 92 9 view .LVU1059
  93:../../libdaisy/src/dev/oled_ssd130x.h ****         spi_config.baud_prescaler = SpiHandle::Config::BaudPrescaler::PS_8;
 4404              		.loc 13 93 9 view .LVU1060
  94:../../libdaisy/src/dev/oled_ssd130x.h **** 
 4405              		.loc 13 94 9 view .LVU1061
  96:../../libdaisy/src/dev/oled_ssd130x.h ****         spi_config.pin_config.miso = {DSY_GPIOX, 0};
 4406              		.loc 13 96 9 view .LVU1062
  97:../../libdaisy/src/dev/oled_ssd130x.h ****         spi_config.pin_config.mosi = {DSY_GPIOB, 5};
 4407              		.loc 13 97 9 view .LVU1063
  98:../../libdaisy/src/dev/oled_ssd130x.h ****         spi_config.pin_config.nss  = {DSY_GPIOG, 10};
 4408              		.loc 13 98 9 view .LVU1064
  99:../../libdaisy/src/dev/oled_ssd130x.h **** 
 4409              		.loc 13 99 9 view .LVU1065
  96:../../libdaisy/src/dev/oled_ssd130x.h ****         spi_config.pin_config.miso = {DSY_GPIOX, 0};
 4410              		.loc 13 96 36 is_stmt 0 view .LVU1066
 4411 002e A74B     		ldr	r3, .L311
 101:../../libdaisy/src/dev/oled_ssd130x.h **** 
 4412              		.loc 13 101 18 view .LVU1067
 4413 0030 2046     		mov	r0, r4
  89:../../libdaisy/src/dev/oled_ssd130x.h ****         spi_config.datasize  = 8;
 4414              		.loc 13 89 30 view .LVU1068
 4415 0032 0696     		str	r6, [sp, #24]
  96:../../libdaisy/src/dev/oled_ssd130x.h ****         spi_config.pin_config.miso = {DSY_GPIOX, 0};
 4416              		.loc 13 96 36 view .LVU1069
 4417 0034 0293     		str	r3, [sp, #8]
  87:../../libdaisy/src/dev/oled_ssd130x.h ****         spi_config.mode      = SpiHandle::Config::Mode::MASTER;
 4418              		.loc 13 87 30 view .LVU1070
 4419 0036 A64B     		ldr	r3, .L311+4
  88:../../libdaisy/src/dev/oled_ssd130x.h ****         spi_config.direction = SpiHandle::Config::Direction::TWO_LINES_TX_ONLY;
 4420              		.loc 13 88 30 view .LVU1071
 4421 0038 0595     		str	r5, [sp, #20]
  87:../../libdaisy/src/dev/oled_ssd130x.h ****         spi_config.mode      = SpiHandle::Config::Mode::MASTER;
 4422              		.loc 13 87 30 view .LVU1072
 4423 003a CDE90335 		strd	r3, r5, [sp, #12]
  93:../../libdaisy/src/dev/oled_ssd130x.h ****         spi_config.baud_prescaler = SpiHandle::Config::BaudPrescaler::PS_8;
 4424              		.loc 13 93 35 view .LVU1073
 4425 003e 0223     		movs	r3, #2
  94:../../libdaisy/src/dev/oled_ssd130x.h **** 
 4426              		.loc 13 94 35 view .LVU1074
 4427 0040 CDE90A33 		strd	r3, r3, [sp, #40]
 101:../../libdaisy/src/dev/oled_ssd130x.h **** 
 4428              		.loc 13 101 9 is_stmt 1 view .LVU1075
  90:../../libdaisy/src/dev/oled_ssd130x.h ****         spi_config.clock_polarity = SpiHandle::Config::ClockPolarity::LOW;
 4429              		.loc 13 90 30 is_stmt 0 view .LVU1076
 4430 0044 0823     		movs	r3, #8
 101:../../libdaisy/src/dev/oled_ssd130x.h **** 
 4431              		.loc 13 101 18 view .LVU1077
 4432 0046 0DEB0301 		add	r1, sp, r3
  90:../../libdaisy/src/dev/oled_ssd130x.h ****         spi_config.clock_polarity = SpiHandle::Config::ClockPolarity::LOW;
 4433              		.loc 13 90 30 view .LVU1078
 4434 004a 0793     		str	r3, [sp, #28]
  92:../../libdaisy/src/dev/oled_ssd130x.h ****         spi_config.nss            = SpiHandle::Config::NSS::HARD_OUTPUT;
 4435              		.loc 13 92 35 view .LVU1079
 4436 004c CDE90855 		strd	r5, r5, [sp, #32]
 101:../../libdaisy/src/dev/oled_ssd130x.h **** 
 4437              		.loc 13 101 18 view .LVU1080
ARM GAS  C:\Users\VINCIU~1\AppData\Local\Temp\ccUTXsQS.s 			page 132


 4438 0050 FFF7FEFF 		bl	_ZN5daisy9SpiHandle4InitERKNS0_6ConfigE
 4439              	.LVL340:
 104:../../libdaisy/src/dev/oled_ssd130x.h ****         System::Delay(10);
 4440              		.loc 13 104 9 is_stmt 1 view .LVU1081
 104:../../libdaisy/src/dev/oled_ssd130x.h ****         System::Delay(10);
 4441              		.loc 13 104 23 is_stmt 0 view .LVU1082
 4442 0054 2946     		mov	r1, r5
 4443 0056 4046     		mov	r0, r8
 4444 0058 FFF7FEFF 		bl	dsy_gpio_write
 4445              	.LVL341:
 105:../../libdaisy/src/dev/oled_ssd130x.h ****         dsy_gpio_write(&pin_reset_, 1);
 4446              		.loc 13 105 9 is_stmt 1 view .LVU1083
 105:../../libdaisy/src/dev/oled_ssd130x.h ****         dsy_gpio_write(&pin_reset_, 1);
 4447              		.loc 13 105 22 is_stmt 0 view .LVU1084
 4448 005c 0A20     		movs	r0, #10
 4449 005e FFF7FEFF 		bl	_ZN5daisy6System5DelayEm
 4450              	.LVL342:
 106:../../libdaisy/src/dev/oled_ssd130x.h ****         System::Delay(10);
 4451              		.loc 13 106 9 is_stmt 1 view .LVU1085
 106:../../libdaisy/src/dev/oled_ssd130x.h ****         System::Delay(10);
 4452              		.loc 13 106 23 is_stmt 0 view .LVU1086
 4453 0062 3146     		mov	r1, r6
 4454 0064 4046     		mov	r0, r8
 4455 0066 FFF7FEFF 		bl	dsy_gpio_write
 4456              	.LVL343:
 107:../../libdaisy/src/dev/oled_ssd130x.h ****     };
 4457              		.loc 13 107 9 is_stmt 1 view .LVU1087
 107:../../libdaisy/src/dev/oled_ssd130x.h ****     };
 4458              		.loc 13 107 22 is_stmt 0 view .LVU1088
 4459 006a 0A20     		movs	r0, #10
 4460 006c FFF7FEFF 		bl	_ZN5daisy6System5DelayEm
 4461              	.LVL344:
 107:../../libdaisy/src/dev/oled_ssd130x.h ****     };
 4462              		.loc 13 107 22 view .LVU1089
 4463 0070 AE23     		movs	r3, #174
 4464              	.LBE1007:
 4465              	.LBE1010:
 4466              	.LBB1011:
 4467              	.LBB1012:
 111:../../libdaisy/src/dev/oled_ssd130x.h ****         spi_.BlockingTransmit(&cmd, 1);
 4468              		.loc 13 111 23 view .LVU1090
 4469 0072 2946     		mov	r1, r5
 4470 0074 3846     		mov	r0, r7
 4471 0076 8DF80830 		strb	r3, [sp, #8]
 4472              	.LVL345:
 111:../../libdaisy/src/dev/oled_ssd130x.h ****         spi_.BlockingTransmit(&cmd, 1);
 4473              		.loc 13 111 23 view .LVU1091
 4474              	.LBE1012:
 4475              	.LBI1011:
 109:../../libdaisy/src/dev/oled_ssd130x.h ****     {
 4476              		.loc 13 109 10 is_stmt 1 view .LVU1092
 4477              	.LBB1013:
 111:../../libdaisy/src/dev/oled_ssd130x.h ****         spi_.BlockingTransmit(&cmd, 1);
 4478              		.loc 13 111 9 view .LVU1093
 111:../../libdaisy/src/dev/oled_ssd130x.h ****         spi_.BlockingTransmit(&cmd, 1);
 4479              		.loc 13 111 23 is_stmt 0 view .LVU1094
 4480 007a FFF7FEFF 		bl	dsy_gpio_write
ARM GAS  C:\Users\VINCIU~1\AppData\Local\Temp\ccUTXsQS.s 			page 133


 4481              	.LVL346:
 112:../../libdaisy/src/dev/oled_ssd130x.h ****     };
 4482              		.loc 13 112 9 is_stmt 1 view .LVU1095
 112:../../libdaisy/src/dev/oled_ssd130x.h ****     };
 4483              		.loc 13 112 30 is_stmt 0 view .LVU1096
 4484 007e 3246     		mov	r2, r6
 4485 0080 02A9     		add	r1, sp, #8
 4486 0082 6423     		movs	r3, #100
 4487 0084 2046     		mov	r0, r4
 4488 0086 FFF7FEFF 		bl	_ZN5daisy9SpiHandle16BlockingTransmitEPhjm
 4489              	.LVL347:
 112:../../libdaisy/src/dev/oled_ssd130x.h ****     };
 4490              		.loc 13 112 30 view .LVU1097
 4491 008a D523     		movs	r3, #213
 4492              	.LBE1013:
 4493              	.LBE1011:
 4494              	.LBB1014:
 4495              	.LBB1015:
 111:../../libdaisy/src/dev/oled_ssd130x.h ****         spi_.BlockingTransmit(&cmd, 1);
 4496              		.loc 13 111 23 view .LVU1098
 4497 008c 2946     		mov	r1, r5
 4498 008e 3846     		mov	r0, r7
 4499 0090 8DF80830 		strb	r3, [sp, #8]
 4500              	.LVL348:
 111:../../libdaisy/src/dev/oled_ssd130x.h ****         spi_.BlockingTransmit(&cmd, 1);
 4501              		.loc 13 111 23 view .LVU1099
 4502              	.LBE1015:
 4503              	.LBI1014:
 109:../../libdaisy/src/dev/oled_ssd130x.h ****     {
 4504              		.loc 13 109 10 is_stmt 1 view .LVU1100
 4505              	.LBB1016:
 111:../../libdaisy/src/dev/oled_ssd130x.h ****         spi_.BlockingTransmit(&cmd, 1);
 4506              		.loc 13 111 9 view .LVU1101
 111:../../libdaisy/src/dev/oled_ssd130x.h ****         spi_.BlockingTransmit(&cmd, 1);
 4507              		.loc 13 111 23 is_stmt 0 view .LVU1102
 4508 0094 FFF7FEFF 		bl	dsy_gpio_write
 4509              	.LVL349:
 112:../../libdaisy/src/dev/oled_ssd130x.h ****     };
 4510              		.loc 13 112 9 is_stmt 1 view .LVU1103
 112:../../libdaisy/src/dev/oled_ssd130x.h ****     };
 4511              		.loc 13 112 30 is_stmt 0 view .LVU1104
 4512 0098 3246     		mov	r2, r6
 4513 009a 02A9     		add	r1, sp, #8
 4514 009c 6423     		movs	r3, #100
 4515 009e 2046     		mov	r0, r4
 4516 00a0 FFF7FEFF 		bl	_ZN5daisy9SpiHandle16BlockingTransmitEPhjm
 4517              	.LVL350:
 112:../../libdaisy/src/dev/oled_ssd130x.h ****     };
 4518              		.loc 13 112 30 view .LVU1105
 4519 00a4 8023     		movs	r3, #128
 4520              	.LBE1016:
 4521              	.LBE1014:
 4522              	.LBB1017:
 4523              	.LBB1018:
 111:../../libdaisy/src/dev/oled_ssd130x.h ****         spi_.BlockingTransmit(&cmd, 1);
 4524              		.loc 13 111 23 view .LVU1106
 4525 00a6 2946     		mov	r1, r5
ARM GAS  C:\Users\VINCIU~1\AppData\Local\Temp\ccUTXsQS.s 			page 134


 4526 00a8 3846     		mov	r0, r7
 4527 00aa 8DF80830 		strb	r3, [sp, #8]
 4528              	.LVL351:
 111:../../libdaisy/src/dev/oled_ssd130x.h ****         spi_.BlockingTransmit(&cmd, 1);
 4529              		.loc 13 111 23 view .LVU1107
 4530              	.LBE1018:
 4531              	.LBI1017:
 109:../../libdaisy/src/dev/oled_ssd130x.h ****     {
 4532              		.loc 13 109 10 is_stmt 1 view .LVU1108
 4533              	.LBB1019:
 111:../../libdaisy/src/dev/oled_ssd130x.h ****         spi_.BlockingTransmit(&cmd, 1);
 4534              		.loc 13 111 9 view .LVU1109
 111:../../libdaisy/src/dev/oled_ssd130x.h ****         spi_.BlockingTransmit(&cmd, 1);
 4535              		.loc 13 111 23 is_stmt 0 view .LVU1110
 4536 00ae FFF7FEFF 		bl	dsy_gpio_write
 4537              	.LVL352:
 112:../../libdaisy/src/dev/oled_ssd130x.h ****     };
 4538              		.loc 13 112 9 is_stmt 1 view .LVU1111
 112:../../libdaisy/src/dev/oled_ssd130x.h ****     };
 4539              		.loc 13 112 30 is_stmt 0 view .LVU1112
 4540 00b2 3246     		mov	r2, r6
 4541 00b4 02A9     		add	r1, sp, #8
 4542 00b6 6423     		movs	r3, #100
 4543 00b8 2046     		mov	r0, r4
 4544 00ba FFF7FEFF 		bl	_ZN5daisy9SpiHandle16BlockingTransmitEPhjm
 4545              	.LVL353:
 112:../../libdaisy/src/dev/oled_ssd130x.h ****     };
 4546              		.loc 13 112 30 view .LVU1113
 4547 00be A823     		movs	r3, #168
 4548              	.LBE1019:
 4549              	.LBE1017:
 4550              	.LBB1020:
 4551              	.LBB1021:
 111:../../libdaisy/src/dev/oled_ssd130x.h ****         spi_.BlockingTransmit(&cmd, 1);
 4552              		.loc 13 111 23 view .LVU1114
 4553 00c0 2946     		mov	r1, r5
 4554 00c2 3846     		mov	r0, r7
 4555 00c4 8DF80830 		strb	r3, [sp, #8]
 4556              	.LVL354:
 111:../../libdaisy/src/dev/oled_ssd130x.h ****         spi_.BlockingTransmit(&cmd, 1);
 4557              		.loc 13 111 23 view .LVU1115
 4558              	.LBE1021:
 4559              	.LBI1020:
 109:../../libdaisy/src/dev/oled_ssd130x.h ****     {
 4560              		.loc 13 109 10 is_stmt 1 view .LVU1116
 4561              	.LBB1022:
 111:../../libdaisy/src/dev/oled_ssd130x.h ****         spi_.BlockingTransmit(&cmd, 1);
 4562              		.loc 13 111 9 view .LVU1117
 111:../../libdaisy/src/dev/oled_ssd130x.h ****         spi_.BlockingTransmit(&cmd, 1);
 4563              		.loc 13 111 23 is_stmt 0 view .LVU1118
 4564 00c8 FFF7FEFF 		bl	dsy_gpio_write
 4565              	.LVL355:
 112:../../libdaisy/src/dev/oled_ssd130x.h ****     };
 4566              		.loc 13 112 9 is_stmt 1 view .LVU1119
 112:../../libdaisy/src/dev/oled_ssd130x.h ****     };
 4567              		.loc 13 112 30 is_stmt 0 view .LVU1120
 4568 00cc 3246     		mov	r2, r6
ARM GAS  C:\Users\VINCIU~1\AppData\Local\Temp\ccUTXsQS.s 			page 135


 4569 00ce 02A9     		add	r1, sp, #8
 4570 00d0 6423     		movs	r3, #100
 4571 00d2 2046     		mov	r0, r4
 4572 00d4 FFF7FEFF 		bl	_ZN5daisy9SpiHandle16BlockingTransmitEPhjm
 4573              	.LVL356:
 112:../../libdaisy/src/dev/oled_ssd130x.h ****     };
 4574              		.loc 13 112 30 view .LVU1121
 4575 00d8 3F23     		movs	r3, #63
 4576              	.LBE1022:
 4577              	.LBE1020:
 4578              	.LBB1023:
 4579              	.LBB1024:
 111:../../libdaisy/src/dev/oled_ssd130x.h ****         spi_.BlockingTransmit(&cmd, 1);
 4580              		.loc 13 111 23 view .LVU1122
 4581 00da 2946     		mov	r1, r5
 4582 00dc 3846     		mov	r0, r7
 4583 00de 8DF80830 		strb	r3, [sp, #8]
 4584              	.LVL357:
 111:../../libdaisy/src/dev/oled_ssd130x.h ****         spi_.BlockingTransmit(&cmd, 1);
 4585              		.loc 13 111 23 view .LVU1123
 4586              	.LBE1024:
 4587              	.LBI1023:
 109:../../libdaisy/src/dev/oled_ssd130x.h ****     {
 4588              		.loc 13 109 10 is_stmt 1 view .LVU1124
 4589              	.LBB1025:
 111:../../libdaisy/src/dev/oled_ssd130x.h ****         spi_.BlockingTransmit(&cmd, 1);
 4590              		.loc 13 111 9 view .LVU1125
 111:../../libdaisy/src/dev/oled_ssd130x.h ****         spi_.BlockingTransmit(&cmd, 1);
 4591              		.loc 13 111 23 is_stmt 0 view .LVU1126
 4592 00e2 FFF7FEFF 		bl	dsy_gpio_write
 4593              	.LVL358:
 112:../../libdaisy/src/dev/oled_ssd130x.h ****     };
 4594              		.loc 13 112 9 is_stmt 1 view .LVU1127
 112:../../libdaisy/src/dev/oled_ssd130x.h ****     };
 4595              		.loc 13 112 30 is_stmt 0 view .LVU1128
 4596 00e6 3246     		mov	r2, r6
 4597 00e8 02A9     		add	r1, sp, #8
 4598 00ea 6423     		movs	r3, #100
 4599 00ec 2046     		mov	r0, r4
 4600 00ee FFF7FEFF 		bl	_ZN5daisy9SpiHandle16BlockingTransmitEPhjm
 4601              	.LVL359:
 112:../../libdaisy/src/dev/oled_ssd130x.h ****     };
 4602              		.loc 13 112 30 view .LVU1129
 4603 00f2 DA23     		movs	r3, #218
 4604              	.LBE1025:
 4605              	.LBE1023:
 4606              	.LBB1026:
 4607              	.LBB1027:
 111:../../libdaisy/src/dev/oled_ssd130x.h ****         spi_.BlockingTransmit(&cmd, 1);
 4608              		.loc 13 111 23 view .LVU1130
 4609 00f4 2946     		mov	r1, r5
 4610 00f6 3846     		mov	r0, r7
 4611 00f8 8DF80830 		strb	r3, [sp, #8]
 4612              	.LVL360:
 111:../../libdaisy/src/dev/oled_ssd130x.h ****         spi_.BlockingTransmit(&cmd, 1);
 4613              		.loc 13 111 23 view .LVU1131
 4614              	.LBE1027:
ARM GAS  C:\Users\VINCIU~1\AppData\Local\Temp\ccUTXsQS.s 			page 136


 4615              	.LBI1026:
 109:../../libdaisy/src/dev/oled_ssd130x.h ****     {
 4616              		.loc 13 109 10 is_stmt 1 view .LVU1132
 4617              	.LBB1028:
 111:../../libdaisy/src/dev/oled_ssd130x.h ****         spi_.BlockingTransmit(&cmd, 1);
 4618              		.loc 13 111 9 view .LVU1133
 111:../../libdaisy/src/dev/oled_ssd130x.h ****         spi_.BlockingTransmit(&cmd, 1);
 4619              		.loc 13 111 23 is_stmt 0 view .LVU1134
 4620 00fc FFF7FEFF 		bl	dsy_gpio_write
 4621              	.LVL361:
 112:../../libdaisy/src/dev/oled_ssd130x.h ****     };
 4622              		.loc 13 112 9 is_stmt 1 view .LVU1135
 112:../../libdaisy/src/dev/oled_ssd130x.h ****     };
 4623              		.loc 13 112 30 is_stmt 0 view .LVU1136
 4624 0100 3246     		mov	r2, r6
 4625 0102 02A9     		add	r1, sp, #8
 4626 0104 6423     		movs	r3, #100
 4627 0106 2046     		mov	r0, r4
 4628 0108 FFF7FEFF 		bl	_ZN5daisy9SpiHandle16BlockingTransmitEPhjm
 4629              	.LVL362:
 112:../../libdaisy/src/dev/oled_ssd130x.h ****     };
 4630              		.loc 13 112 30 view .LVU1137
 4631 010c 1223     		movs	r3, #18
 4632              	.LBE1028:
 4633              	.LBE1026:
 4634              	.LBB1029:
 4635              	.LBB1030:
 111:../../libdaisy/src/dev/oled_ssd130x.h ****         spi_.BlockingTransmit(&cmd, 1);
 4636              		.loc 13 111 23 view .LVU1138
 4637 010e 2946     		mov	r1, r5
 4638 0110 3846     		mov	r0, r7
 4639 0112 8DF80830 		strb	r3, [sp, #8]
 4640              	.LVL363:
 111:../../libdaisy/src/dev/oled_ssd130x.h ****         spi_.BlockingTransmit(&cmd, 1);
 4641              		.loc 13 111 23 view .LVU1139
 4642              	.LBE1030:
 4643              	.LBI1029:
 109:../../libdaisy/src/dev/oled_ssd130x.h ****     {
 4644              		.loc 13 109 10 is_stmt 1 view .LVU1140
 4645              	.LBB1031:
 111:../../libdaisy/src/dev/oled_ssd130x.h ****         spi_.BlockingTransmit(&cmd, 1);
 4646              		.loc 13 111 9 view .LVU1141
 111:../../libdaisy/src/dev/oled_ssd130x.h ****         spi_.BlockingTransmit(&cmd, 1);
 4647              		.loc 13 111 23 is_stmt 0 view .LVU1142
 4648 0116 FFF7FEFF 		bl	dsy_gpio_write
 4649              	.LVL364:
 112:../../libdaisy/src/dev/oled_ssd130x.h ****     };
 4650              		.loc 13 112 9 is_stmt 1 view .LVU1143
 112:../../libdaisy/src/dev/oled_ssd130x.h ****     };
 4651              		.loc 13 112 30 is_stmt 0 view .LVU1144
 4652 011a 3246     		mov	r2, r6
 4653 011c 02A9     		add	r1, sp, #8
 4654 011e 6423     		movs	r3, #100
 4655 0120 2046     		mov	r0, r4
 4656 0122 FFF7FEFF 		bl	_ZN5daisy9SpiHandle16BlockingTransmitEPhjm
 4657              	.LVL365:
 112:../../libdaisy/src/dev/oled_ssd130x.h ****     };
ARM GAS  C:\Users\VINCIU~1\AppData\Local\Temp\ccUTXsQS.s 			page 137


 4658              		.loc 13 112 30 view .LVU1145
 4659 0126 D323     		movs	r3, #211
 4660              	.LBE1031:
 4661              	.LBE1029:
 4662              	.LBB1032:
 4663              	.LBB1033:
 111:../../libdaisy/src/dev/oled_ssd130x.h ****         spi_.BlockingTransmit(&cmd, 1);
 4664              		.loc 13 111 23 view .LVU1146
 4665 0128 2946     		mov	r1, r5
 4666 012a 3846     		mov	r0, r7
 4667 012c 8DF80830 		strb	r3, [sp, #8]
 4668              	.LVL366:
 111:../../libdaisy/src/dev/oled_ssd130x.h ****         spi_.BlockingTransmit(&cmd, 1);
 4669              		.loc 13 111 23 view .LVU1147
 4670              	.LBE1033:
 4671              	.LBI1032:
 109:../../libdaisy/src/dev/oled_ssd130x.h ****     {
 4672              		.loc 13 109 10 is_stmt 1 view .LVU1148
 4673              	.LBB1034:
 111:../../libdaisy/src/dev/oled_ssd130x.h ****         spi_.BlockingTransmit(&cmd, 1);
 4674              		.loc 13 111 9 view .LVU1149
 111:../../libdaisy/src/dev/oled_ssd130x.h ****         spi_.BlockingTransmit(&cmd, 1);
 4675              		.loc 13 111 23 is_stmt 0 view .LVU1150
 4676 0130 FFF7FEFF 		bl	dsy_gpio_write
 4677              	.LVL367:
 112:../../libdaisy/src/dev/oled_ssd130x.h ****     };
 4678              		.loc 13 112 9 is_stmt 1 view .LVU1151
 112:../../libdaisy/src/dev/oled_ssd130x.h ****     };
 4679              		.loc 13 112 30 is_stmt 0 view .LVU1152
 4680 0134 3246     		mov	r2, r6
 4681 0136 6423     		movs	r3, #100
 4682 0138 02A9     		add	r1, sp, #8
 4683 013a 2046     		mov	r0, r4
 4684 013c FFF7FEFF 		bl	_ZN5daisy9SpiHandle16BlockingTransmitEPhjm
 4685              	.LVL368:
 112:../../libdaisy/src/dev/oled_ssd130x.h ****     };
 4686              		.loc 13 112 30 view .LVU1153
 4687              	.LBE1034:
 4688              	.LBE1032:
 4689              	.LBB1035:
 4690              	.LBB1036:
 111:../../libdaisy/src/dev/oled_ssd130x.h ****         spi_.BlockingTransmit(&cmd, 1);
 4691              		.loc 13 111 23 view .LVU1154
 4692 0140 2946     		mov	r1, r5
 4693 0142 3846     		mov	r0, r7
 4694 0144 8DF80850 		strb	r5, [sp, #8]
 4695              	.LVL369:
 111:../../libdaisy/src/dev/oled_ssd130x.h ****         spi_.BlockingTransmit(&cmd, 1);
 4696              		.loc 13 111 23 view .LVU1155
 4697              	.LBE1036:
 4698              	.LBI1035:
 109:../../libdaisy/src/dev/oled_ssd130x.h ****     {
 4699              		.loc 13 109 10 is_stmt 1 view .LVU1156
 4700              	.LBB1037:
 111:../../libdaisy/src/dev/oled_ssd130x.h ****         spi_.BlockingTransmit(&cmd, 1);
 4701              		.loc 13 111 9 view .LVU1157
 111:../../libdaisy/src/dev/oled_ssd130x.h ****         spi_.BlockingTransmit(&cmd, 1);
ARM GAS  C:\Users\VINCIU~1\AppData\Local\Temp\ccUTXsQS.s 			page 138


 4702              		.loc 13 111 23 is_stmt 0 view .LVU1158
 4703 0148 FFF7FEFF 		bl	dsy_gpio_write
 4704              	.LVL370:
 112:../../libdaisy/src/dev/oled_ssd130x.h ****     };
 4705              		.loc 13 112 9 is_stmt 1 view .LVU1159
 112:../../libdaisy/src/dev/oled_ssd130x.h ****     };
 4706              		.loc 13 112 30 is_stmt 0 view .LVU1160
 4707 014c 3246     		mov	r2, r6
 4708 014e 02A9     		add	r1, sp, #8
 4709 0150 6423     		movs	r3, #100
 4710 0152 2046     		mov	r0, r4
 4711 0154 FFF7FEFF 		bl	_ZN5daisy9SpiHandle16BlockingTransmitEPhjm
 4712              	.LVL371:
 112:../../libdaisy/src/dev/oled_ssd130x.h ****     };
 4713              		.loc 13 112 30 view .LVU1161
 4714 0158 4023     		movs	r3, #64
 4715              	.LBE1037:
 4716              	.LBE1035:
 4717              	.LBB1038:
 4718              	.LBB1039:
 111:../../libdaisy/src/dev/oled_ssd130x.h ****         spi_.BlockingTransmit(&cmd, 1);
 4719              		.loc 13 111 23 view .LVU1162
 4720 015a 2946     		mov	r1, r5
 4721 015c 3846     		mov	r0, r7
 4722 015e 8DF80830 		strb	r3, [sp, #8]
 4723              	.LVL372:
 111:../../libdaisy/src/dev/oled_ssd130x.h ****         spi_.BlockingTransmit(&cmd, 1);
 4724              		.loc 13 111 23 view .LVU1163
 4725              	.LBE1039:
 4726              	.LBI1038:
 109:../../libdaisy/src/dev/oled_ssd130x.h ****     {
 4727              		.loc 13 109 10 is_stmt 1 view .LVU1164
 4728              	.LBB1040:
 111:../../libdaisy/src/dev/oled_ssd130x.h ****         spi_.BlockingTransmit(&cmd, 1);
 4729              		.loc 13 111 9 view .LVU1165
 111:../../libdaisy/src/dev/oled_ssd130x.h ****         spi_.BlockingTransmit(&cmd, 1);
 4730              		.loc 13 111 23 is_stmt 0 view .LVU1166
 4731 0162 FFF7FEFF 		bl	dsy_gpio_write
 4732              	.LVL373:
 112:../../libdaisy/src/dev/oled_ssd130x.h ****     };
 4733              		.loc 13 112 9 is_stmt 1 view .LVU1167
 112:../../libdaisy/src/dev/oled_ssd130x.h ****     };
 4734              		.loc 13 112 30 is_stmt 0 view .LVU1168
 4735 0166 3246     		mov	r2, r6
 4736 0168 02A9     		add	r1, sp, #8
 4737 016a 6423     		movs	r3, #100
 4738 016c 2046     		mov	r0, r4
 4739 016e FFF7FEFF 		bl	_ZN5daisy9SpiHandle16BlockingTransmitEPhjm
 4740              	.LVL374:
 112:../../libdaisy/src/dev/oled_ssd130x.h ****     };
 4741              		.loc 13 112 30 view .LVU1169
 4742 0172 A623     		movs	r3, #166
 4743              	.LBE1040:
 4744              	.LBE1038:
 4745              	.LBB1041:
 4746              	.LBB1042:
 111:../../libdaisy/src/dev/oled_ssd130x.h ****         spi_.BlockingTransmit(&cmd, 1);
ARM GAS  C:\Users\VINCIU~1\AppData\Local\Temp\ccUTXsQS.s 			page 139


 4747              		.loc 13 111 23 view .LVU1170
 4748 0174 2946     		mov	r1, r5
 4749 0176 3846     		mov	r0, r7
 4750 0178 8DF80830 		strb	r3, [sp, #8]
 4751              	.LVL375:
 111:../../libdaisy/src/dev/oled_ssd130x.h ****         spi_.BlockingTransmit(&cmd, 1);
 4752              		.loc 13 111 23 view .LVU1171
 4753              	.LBE1042:
 4754              	.LBI1041:
 109:../../libdaisy/src/dev/oled_ssd130x.h ****     {
 4755              		.loc 13 109 10 is_stmt 1 view .LVU1172
 4756              	.LBB1043:
 111:../../libdaisy/src/dev/oled_ssd130x.h ****         spi_.BlockingTransmit(&cmd, 1);
 4757              		.loc 13 111 9 view .LVU1173
 111:../../libdaisy/src/dev/oled_ssd130x.h ****         spi_.BlockingTransmit(&cmd, 1);
 4758              		.loc 13 111 23 is_stmt 0 view .LVU1174
 4759 017c FFF7FEFF 		bl	dsy_gpio_write
 4760              	.LVL376:
 112:../../libdaisy/src/dev/oled_ssd130x.h ****     };
 4761              		.loc 13 112 9 is_stmt 1 view .LVU1175
 112:../../libdaisy/src/dev/oled_ssd130x.h ****     };
 4762              		.loc 13 112 30 is_stmt 0 view .LVU1176
 4763 0180 3246     		mov	r2, r6
 4764 0182 02A9     		add	r1, sp, #8
 4765 0184 6423     		movs	r3, #100
 4766 0186 2046     		mov	r0, r4
 4767 0188 FFF7FEFF 		bl	_ZN5daisy9SpiHandle16BlockingTransmitEPhjm
 4768              	.LVL377:
 112:../../libdaisy/src/dev/oled_ssd130x.h ****     };
 4769              		.loc 13 112 30 view .LVU1177
 4770 018c A423     		movs	r3, #164
 4771              	.LBE1043:
 4772              	.LBE1041:
 4773              	.LBB1044:
 4774              	.LBB1045:
 111:../../libdaisy/src/dev/oled_ssd130x.h ****         spi_.BlockingTransmit(&cmd, 1);
 4775              		.loc 13 111 23 view .LVU1178
 4776 018e 2946     		mov	r1, r5
 4777 0190 3846     		mov	r0, r7
 4778 0192 8DF80830 		strb	r3, [sp, #8]
 4779              	.LVL378:
 111:../../libdaisy/src/dev/oled_ssd130x.h ****         spi_.BlockingTransmit(&cmd, 1);
 4780              		.loc 13 111 23 view .LVU1179
 4781              	.LBE1045:
 4782              	.LBI1044:
 109:../../libdaisy/src/dev/oled_ssd130x.h ****     {
 4783              		.loc 13 109 10 is_stmt 1 view .LVU1180
 4784              	.LBB1046:
 111:../../libdaisy/src/dev/oled_ssd130x.h ****         spi_.BlockingTransmit(&cmd, 1);
 4785              		.loc 13 111 9 view .LVU1181
 111:../../libdaisy/src/dev/oled_ssd130x.h ****         spi_.BlockingTransmit(&cmd, 1);
 4786              		.loc 13 111 23 is_stmt 0 view .LVU1182
 4787 0196 FFF7FEFF 		bl	dsy_gpio_write
 4788              	.LVL379:
 112:../../libdaisy/src/dev/oled_ssd130x.h ****     };
 4789              		.loc 13 112 9 is_stmt 1 view .LVU1183
 112:../../libdaisy/src/dev/oled_ssd130x.h ****     };
ARM GAS  C:\Users\VINCIU~1\AppData\Local\Temp\ccUTXsQS.s 			page 140


 4790              		.loc 13 112 30 is_stmt 0 view .LVU1184
 4791 019a 3246     		mov	r2, r6
 4792 019c 02A9     		add	r1, sp, #8
 4793 019e 6423     		movs	r3, #100
 4794 01a0 2046     		mov	r0, r4
 4795 01a2 FFF7FEFF 		bl	_ZN5daisy9SpiHandle16BlockingTransmitEPhjm
 4796              	.LVL380:
 112:../../libdaisy/src/dev/oled_ssd130x.h ****     };
 4797              		.loc 13 112 30 view .LVU1185
 4798 01a6 8D23     		movs	r3, #141
 4799              	.LBE1046:
 4800              	.LBE1044:
 4801              	.LBB1047:
 4802              	.LBB1048:
 111:../../libdaisy/src/dev/oled_ssd130x.h ****         spi_.BlockingTransmit(&cmd, 1);
 4803              		.loc 13 111 23 view .LVU1186
 4804 01a8 2946     		mov	r1, r5
 4805 01aa 3846     		mov	r0, r7
 4806 01ac 8DF80830 		strb	r3, [sp, #8]
 4807              	.LVL381:
 111:../../libdaisy/src/dev/oled_ssd130x.h ****         spi_.BlockingTransmit(&cmd, 1);
 4808              		.loc 13 111 23 view .LVU1187
 4809              	.LBE1048:
 4810              	.LBI1047:
 109:../../libdaisy/src/dev/oled_ssd130x.h ****     {
 4811              		.loc 13 109 10 is_stmt 1 view .LVU1188
 4812              	.LBB1049:
 111:../../libdaisy/src/dev/oled_ssd130x.h ****         spi_.BlockingTransmit(&cmd, 1);
 4813              		.loc 13 111 9 view .LVU1189
 111:../../libdaisy/src/dev/oled_ssd130x.h ****         spi_.BlockingTransmit(&cmd, 1);
 4814              		.loc 13 111 23 is_stmt 0 view .LVU1190
 4815 01b0 FFF7FEFF 		bl	dsy_gpio_write
 4816              	.LVL382:
 112:../../libdaisy/src/dev/oled_ssd130x.h ****     };
 4817              		.loc 13 112 9 is_stmt 1 view .LVU1191
 112:../../libdaisy/src/dev/oled_ssd130x.h ****     };
 4818              		.loc 13 112 30 is_stmt 0 view .LVU1192
 4819 01b4 3246     		mov	r2, r6
 4820 01b6 02A9     		add	r1, sp, #8
 4821 01b8 6423     		movs	r3, #100
 4822 01ba 2046     		mov	r0, r4
 4823 01bc FFF7FEFF 		bl	_ZN5daisy9SpiHandle16BlockingTransmitEPhjm
 4824              	.LVL383:
 112:../../libdaisy/src/dev/oled_ssd130x.h ****     };
 4825              		.loc 13 112 30 view .LVU1193
 4826 01c0 1423     		movs	r3, #20
 4827              	.LBE1049:
 4828              	.LBE1047:
 4829              	.LBB1050:
 4830              	.LBB1051:
 111:../../libdaisy/src/dev/oled_ssd130x.h ****         spi_.BlockingTransmit(&cmd, 1);
 4831              		.loc 13 111 23 view .LVU1194
 4832 01c2 2946     		mov	r1, r5
 4833 01c4 3846     		mov	r0, r7
 4834 01c6 8DF80830 		strb	r3, [sp, #8]
 4835              	.LVL384:
 111:../../libdaisy/src/dev/oled_ssd130x.h ****         spi_.BlockingTransmit(&cmd, 1);
ARM GAS  C:\Users\VINCIU~1\AppData\Local\Temp\ccUTXsQS.s 			page 141


 4836              		.loc 13 111 23 view .LVU1195
 4837              	.LBE1051:
 4838              	.LBI1050:
 109:../../libdaisy/src/dev/oled_ssd130x.h ****     {
 4839              		.loc 13 109 10 is_stmt 1 view .LVU1196
 4840              	.LBB1052:
 111:../../libdaisy/src/dev/oled_ssd130x.h ****         spi_.BlockingTransmit(&cmd, 1);
 4841              		.loc 13 111 9 view .LVU1197
 111:../../libdaisy/src/dev/oled_ssd130x.h ****         spi_.BlockingTransmit(&cmd, 1);
 4842              		.loc 13 111 23 is_stmt 0 view .LVU1198
 4843 01ca FFF7FEFF 		bl	dsy_gpio_write
 4844              	.LVL385:
 112:../../libdaisy/src/dev/oled_ssd130x.h ****     };
 4845              		.loc 13 112 9 is_stmt 1 view .LVU1199
 112:../../libdaisy/src/dev/oled_ssd130x.h ****     };
 4846              		.loc 13 112 30 is_stmt 0 view .LVU1200
 4847 01ce 3246     		mov	r2, r6
 4848 01d0 02A9     		add	r1, sp, #8
 4849 01d2 6423     		movs	r3, #100
 4850 01d4 2046     		mov	r0, r4
 4851 01d6 FFF7FEFF 		bl	_ZN5daisy9SpiHandle16BlockingTransmitEPhjm
 4852              	.LVL386:
 112:../../libdaisy/src/dev/oled_ssd130x.h ****     };
 4853              		.loc 13 112 30 view .LVU1201
 4854 01da A123     		movs	r3, #161
 4855              	.LBE1052:
 4856              	.LBE1050:
 4857              	.LBB1053:
 4858              	.LBB1054:
 111:../../libdaisy/src/dev/oled_ssd130x.h ****         spi_.BlockingTransmit(&cmd, 1);
 4859              		.loc 13 111 23 view .LVU1202
 4860 01dc 2946     		mov	r1, r5
 4861 01de 3846     		mov	r0, r7
 4862 01e0 8DF80830 		strb	r3, [sp, #8]
 4863              	.LVL387:
 111:../../libdaisy/src/dev/oled_ssd130x.h ****         spi_.BlockingTransmit(&cmd, 1);
 4864              		.loc 13 111 23 view .LVU1203
 4865              	.LBE1054:
 4866              	.LBI1053:
 109:../../libdaisy/src/dev/oled_ssd130x.h ****     {
 4867              		.loc 13 109 10 is_stmt 1 view .LVU1204
 4868              	.LBB1055:
 111:../../libdaisy/src/dev/oled_ssd130x.h ****         spi_.BlockingTransmit(&cmd, 1);
 4869              		.loc 13 111 9 view .LVU1205
 111:../../libdaisy/src/dev/oled_ssd130x.h ****         spi_.BlockingTransmit(&cmd, 1);
 4870              		.loc 13 111 23 is_stmt 0 view .LVU1206
 4871 01e4 FFF7FEFF 		bl	dsy_gpio_write
 4872              	.LVL388:
 112:../../libdaisy/src/dev/oled_ssd130x.h ****     };
 4873              		.loc 13 112 9 is_stmt 1 view .LVU1207
 112:../../libdaisy/src/dev/oled_ssd130x.h ****     };
 4874              		.loc 13 112 30 is_stmt 0 view .LVU1208
 4875 01e8 3246     		mov	r2, r6
 4876 01ea 02A9     		add	r1, sp, #8
 4877 01ec 6423     		movs	r3, #100
 4878 01ee 2046     		mov	r0, r4
 4879 01f0 FFF7FEFF 		bl	_ZN5daisy9SpiHandle16BlockingTransmitEPhjm
ARM GAS  C:\Users\VINCIU~1\AppData\Local\Temp\ccUTXsQS.s 			page 142


 4880              	.LVL389:
 112:../../libdaisy/src/dev/oled_ssd130x.h ****     };
 4881              		.loc 13 112 30 view .LVU1209
 4882 01f4 C823     		movs	r3, #200
 4883              	.LBE1055:
 4884              	.LBE1053:
 4885              	.LBB1056:
 4886              	.LBB1057:
 111:../../libdaisy/src/dev/oled_ssd130x.h ****         spi_.BlockingTransmit(&cmd, 1);
 4887              		.loc 13 111 23 view .LVU1210
 4888 01f6 2946     		mov	r1, r5
 4889 01f8 3846     		mov	r0, r7
 4890 01fa 8DF80830 		strb	r3, [sp, #8]
 4891              	.LVL390:
 111:../../libdaisy/src/dev/oled_ssd130x.h ****         spi_.BlockingTransmit(&cmd, 1);
 4892              		.loc 13 111 23 view .LVU1211
 4893              	.LBE1057:
 4894              	.LBI1056:
 109:../../libdaisy/src/dev/oled_ssd130x.h ****     {
 4895              		.loc 13 109 10 is_stmt 1 view .LVU1212
 4896              	.LBB1058:
 111:../../libdaisy/src/dev/oled_ssd130x.h ****         spi_.BlockingTransmit(&cmd, 1);
 4897              		.loc 13 111 9 view .LVU1213
 111:../../libdaisy/src/dev/oled_ssd130x.h ****         spi_.BlockingTransmit(&cmd, 1);
 4898              		.loc 13 111 23 is_stmt 0 view .LVU1214
 4899 01fe FFF7FEFF 		bl	dsy_gpio_write
 4900              	.LVL391:
 112:../../libdaisy/src/dev/oled_ssd130x.h ****     };
 4901              		.loc 13 112 9 is_stmt 1 view .LVU1215
 112:../../libdaisy/src/dev/oled_ssd130x.h ****     };
 4902              		.loc 13 112 30 is_stmt 0 view .LVU1216
 4903 0202 3246     		mov	r2, r6
 4904 0204 02A9     		add	r1, sp, #8
 4905 0206 6423     		movs	r3, #100
 4906 0208 2046     		mov	r0, r4
 4907 020a FFF7FEFF 		bl	_ZN5daisy9SpiHandle16BlockingTransmitEPhjm
 4908              	.LVL392:
 112:../../libdaisy/src/dev/oled_ssd130x.h ****     };
 4909              		.loc 13 112 30 view .LVU1217
 4910 020e 8123     		movs	r3, #129
 4911              	.LBE1058:
 4912              	.LBE1056:
 4913              	.LBB1059:
 4914              	.LBB1060:
 111:../../libdaisy/src/dev/oled_ssd130x.h ****         spi_.BlockingTransmit(&cmd, 1);
 4915              		.loc 13 111 23 view .LVU1218
 4916 0210 2946     		mov	r1, r5
 4917 0212 3846     		mov	r0, r7
 4918 0214 8DF80830 		strb	r3, [sp, #8]
 4919              	.LVL393:
 111:../../libdaisy/src/dev/oled_ssd130x.h ****         spi_.BlockingTransmit(&cmd, 1);
 4920              		.loc 13 111 23 view .LVU1219
 4921              	.LBE1060:
 4922              	.LBI1059:
 109:../../libdaisy/src/dev/oled_ssd130x.h ****     {
 4923              		.loc 13 109 10 is_stmt 1 view .LVU1220
 4924              	.LBB1061:
ARM GAS  C:\Users\VINCIU~1\AppData\Local\Temp\ccUTXsQS.s 			page 143


 111:../../libdaisy/src/dev/oled_ssd130x.h ****         spi_.BlockingTransmit(&cmd, 1);
 4925              		.loc 13 111 9 view .LVU1221
 111:../../libdaisy/src/dev/oled_ssd130x.h ****         spi_.BlockingTransmit(&cmd, 1);
 4926              		.loc 13 111 23 is_stmt 0 view .LVU1222
 4927 0218 FFF7FEFF 		bl	dsy_gpio_write
 4928              	.LVL394:
 112:../../libdaisy/src/dev/oled_ssd130x.h ****     };
 4929              		.loc 13 112 9 is_stmt 1 view .LVU1223
 112:../../libdaisy/src/dev/oled_ssd130x.h ****     };
 4930              		.loc 13 112 30 is_stmt 0 view .LVU1224
 4931 021c 3246     		mov	r2, r6
 4932 021e 02A9     		add	r1, sp, #8
 4933 0220 6423     		movs	r3, #100
 4934 0222 2046     		mov	r0, r4
 4935 0224 FFF7FEFF 		bl	_ZN5daisy9SpiHandle16BlockingTransmitEPhjm
 4936              	.LVL395:
 112:../../libdaisy/src/dev/oled_ssd130x.h ****     };
 4937              		.loc 13 112 30 view .LVU1225
 4938 0228 8F23     		movs	r3, #143
 4939              	.LBE1061:
 4940              	.LBE1059:
 4941              	.LBB1062:
 4942              	.LBB1063:
 111:../../libdaisy/src/dev/oled_ssd130x.h ****         spi_.BlockingTransmit(&cmd, 1);
 4943              		.loc 13 111 23 view .LVU1226
 4944 022a 2946     		mov	r1, r5
 4945 022c 3846     		mov	r0, r7
 4946 022e 8DF80830 		strb	r3, [sp, #8]
 4947              	.LVL396:
 111:../../libdaisy/src/dev/oled_ssd130x.h ****         spi_.BlockingTransmit(&cmd, 1);
 4948              		.loc 13 111 23 view .LVU1227
 4949              	.LBE1063:
 4950              	.LBI1062:
 109:../../libdaisy/src/dev/oled_ssd130x.h ****     {
 4951              		.loc 13 109 10 is_stmt 1 view .LVU1228
 4952              	.LBB1064:
 111:../../libdaisy/src/dev/oled_ssd130x.h ****         spi_.BlockingTransmit(&cmd, 1);
 4953              		.loc 13 111 9 view .LVU1229
 111:../../libdaisy/src/dev/oled_ssd130x.h ****         spi_.BlockingTransmit(&cmd, 1);
 4954              		.loc 13 111 23 is_stmt 0 view .LVU1230
 4955 0232 FFF7FEFF 		bl	dsy_gpio_write
 4956              	.LVL397:
 112:../../libdaisy/src/dev/oled_ssd130x.h ****     };
 4957              		.loc 13 112 9 is_stmt 1 view .LVU1231
 112:../../libdaisy/src/dev/oled_ssd130x.h ****     };
 4958              		.loc 13 112 30 is_stmt 0 view .LVU1232
 4959 0236 3246     		mov	r2, r6
 4960 0238 02A9     		add	r1, sp, #8
 4961 023a 6423     		movs	r3, #100
 4962 023c 2046     		mov	r0, r4
 4963 023e FFF7FEFF 		bl	_ZN5daisy9SpiHandle16BlockingTransmitEPhjm
 4964              	.LVL398:
 112:../../libdaisy/src/dev/oled_ssd130x.h ****     };
 4965              		.loc 13 112 30 view .LVU1233
 4966 0242 D923     		movs	r3, #217
 4967              	.LBE1064:
 4968              	.LBE1062:
ARM GAS  C:\Users\VINCIU~1\AppData\Local\Temp\ccUTXsQS.s 			page 144


 4969              	.LBB1065:
 4970              	.LBB1066:
 111:../../libdaisy/src/dev/oled_ssd130x.h ****         spi_.BlockingTransmit(&cmd, 1);
 4971              		.loc 13 111 23 view .LVU1234
 4972 0244 2946     		mov	r1, r5
 4973 0246 3846     		mov	r0, r7
 4974 0248 8DF80830 		strb	r3, [sp, #8]
 4975              	.LVL399:
 111:../../libdaisy/src/dev/oled_ssd130x.h ****         spi_.BlockingTransmit(&cmd, 1);
 4976              		.loc 13 111 23 view .LVU1235
 4977              	.LBE1066:
 4978              	.LBI1065:
 109:../../libdaisy/src/dev/oled_ssd130x.h ****     {
 4979              		.loc 13 109 10 is_stmt 1 view .LVU1236
 4980              	.LBB1067:
 111:../../libdaisy/src/dev/oled_ssd130x.h ****         spi_.BlockingTransmit(&cmd, 1);
 4981              		.loc 13 111 9 view .LVU1237
 111:../../libdaisy/src/dev/oled_ssd130x.h ****         spi_.BlockingTransmit(&cmd, 1);
 4982              		.loc 13 111 23 is_stmt 0 view .LVU1238
 4983 024c FFF7FEFF 		bl	dsy_gpio_write
 4984              	.LVL400:
 112:../../libdaisy/src/dev/oled_ssd130x.h ****     };
 4985              		.loc 13 112 9 is_stmt 1 view .LVU1239
 112:../../libdaisy/src/dev/oled_ssd130x.h ****     };
 4986              		.loc 13 112 30 is_stmt 0 view .LVU1240
 4987 0250 3246     		mov	r2, r6
 4988 0252 02A9     		add	r1, sp, #8
 4989 0254 6423     		movs	r3, #100
 4990 0256 2046     		mov	r0, r4
 4991 0258 FFF7FEFF 		bl	_ZN5daisy9SpiHandle16BlockingTransmitEPhjm
 4992              	.LVL401:
 112:../../libdaisy/src/dev/oled_ssd130x.h ****     };
 4993              		.loc 13 112 30 view .LVU1241
 4994 025c 2523     		movs	r3, #37
 4995              	.LBE1067:
 4996              	.LBE1065:
 4997              	.LBB1068:
 4998              	.LBB1069:
 111:../../libdaisy/src/dev/oled_ssd130x.h ****         spi_.BlockingTransmit(&cmd, 1);
 4999              		.loc 13 111 23 view .LVU1242
 5000 025e 2946     		mov	r1, r5
 5001 0260 3846     		mov	r0, r7
 5002 0262 8DF80830 		strb	r3, [sp, #8]
 5003              	.LVL402:
 111:../../libdaisy/src/dev/oled_ssd130x.h ****         spi_.BlockingTransmit(&cmd, 1);
 5004              		.loc 13 111 23 view .LVU1243
 5005              	.LBE1069:
 5006              	.LBI1068:
 109:../../libdaisy/src/dev/oled_ssd130x.h ****     {
 5007              		.loc 13 109 10 is_stmt 1 view .LVU1244
 5008              	.LBB1070:
 111:../../libdaisy/src/dev/oled_ssd130x.h ****         spi_.BlockingTransmit(&cmd, 1);
 5009              		.loc 13 111 9 view .LVU1245
 111:../../libdaisy/src/dev/oled_ssd130x.h ****         spi_.BlockingTransmit(&cmd, 1);
 5010              		.loc 13 111 23 is_stmt 0 view .LVU1246
 5011 0266 FFF7FEFF 		bl	dsy_gpio_write
 5012              	.LVL403:
ARM GAS  C:\Users\VINCIU~1\AppData\Local\Temp\ccUTXsQS.s 			page 145


 112:../../libdaisy/src/dev/oled_ssd130x.h ****     };
 5013              		.loc 13 112 9 is_stmt 1 view .LVU1247
 112:../../libdaisy/src/dev/oled_ssd130x.h ****     };
 5014              		.loc 13 112 30 is_stmt 0 view .LVU1248
 5015 026a 3246     		mov	r2, r6
 5016 026c 02A9     		add	r1, sp, #8
 5017 026e 6423     		movs	r3, #100
 5018 0270 2046     		mov	r0, r4
 5019 0272 FFF7FEFF 		bl	_ZN5daisy9SpiHandle16BlockingTransmitEPhjm
 5020              	.LVL404:
 112:../../libdaisy/src/dev/oled_ssd130x.h ****     };
 5021              		.loc 13 112 30 view .LVU1249
 5022 0276 DB23     		movs	r3, #219
 5023              	.LBE1070:
 5024              	.LBE1068:
 5025              	.LBB1071:
 5026              	.LBB1072:
 111:../../libdaisy/src/dev/oled_ssd130x.h ****         spi_.BlockingTransmit(&cmd, 1);
 5027              		.loc 13 111 23 view .LVU1250
 5028 0278 2946     		mov	r1, r5
 5029 027a 3846     		mov	r0, r7
 5030 027c 8DF80830 		strb	r3, [sp, #8]
 5031              	.LVL405:
 111:../../libdaisy/src/dev/oled_ssd130x.h ****         spi_.BlockingTransmit(&cmd, 1);
 5032              		.loc 13 111 23 view .LVU1251
 5033              	.LBE1072:
 5034              	.LBI1071:
 109:../../libdaisy/src/dev/oled_ssd130x.h ****     {
 5035              		.loc 13 109 10 is_stmt 1 view .LVU1252
 5036              	.LBB1073:
 111:../../libdaisy/src/dev/oled_ssd130x.h ****         spi_.BlockingTransmit(&cmd, 1);
 5037              		.loc 13 111 9 view .LVU1253
 111:../../libdaisy/src/dev/oled_ssd130x.h ****         spi_.BlockingTransmit(&cmd, 1);
 5038              		.loc 13 111 23 is_stmt 0 view .LVU1254
 5039 0280 FFF7FEFF 		bl	dsy_gpio_write
 5040              	.LVL406:
 112:../../libdaisy/src/dev/oled_ssd130x.h ****     };
 5041              		.loc 13 112 9 is_stmt 1 view .LVU1255
 112:../../libdaisy/src/dev/oled_ssd130x.h ****     };
 5042              		.loc 13 112 30 is_stmt 0 view .LVU1256
 5043 0284 3246     		mov	r2, r6
 5044 0286 02A9     		add	r1, sp, #8
 5045 0288 6423     		movs	r3, #100
 5046 028a 2046     		mov	r0, r4
 5047 028c FFF7FEFF 		bl	_ZN5daisy9SpiHandle16BlockingTransmitEPhjm
 5048              	.LVL407:
 112:../../libdaisy/src/dev/oled_ssd130x.h ****     };
 5049              		.loc 13 112 30 view .LVU1257
 5050 0290 3423     		movs	r3, #52
 5051              	.LBE1073:
 5052              	.LBE1071:
 5053              	.LBB1074:
 5054              	.LBB1075:
 111:../../libdaisy/src/dev/oled_ssd130x.h ****         spi_.BlockingTransmit(&cmd, 1);
 5055              		.loc 13 111 23 view .LVU1258
 5056 0292 2946     		mov	r1, r5
 5057 0294 3846     		mov	r0, r7
ARM GAS  C:\Users\VINCIU~1\AppData\Local\Temp\ccUTXsQS.s 			page 146


 5058 0296 8DF80830 		strb	r3, [sp, #8]
 5059              	.LVL408:
 111:../../libdaisy/src/dev/oled_ssd130x.h ****         spi_.BlockingTransmit(&cmd, 1);
 5060              		.loc 13 111 23 view .LVU1259
 5061              	.LBE1075:
 5062              	.LBI1074:
 109:../../libdaisy/src/dev/oled_ssd130x.h ****     {
 5063              		.loc 13 109 10 is_stmt 1 view .LVU1260
 5064              	.LBB1076:
 111:../../libdaisy/src/dev/oled_ssd130x.h ****         spi_.BlockingTransmit(&cmd, 1);
 5065              		.loc 13 111 9 view .LVU1261
 111:../../libdaisy/src/dev/oled_ssd130x.h ****         spi_.BlockingTransmit(&cmd, 1);
 5066              		.loc 13 111 23 is_stmt 0 view .LVU1262
 5067 029a FFF7FEFF 		bl	dsy_gpio_write
 5068              	.LVL409:
 112:../../libdaisy/src/dev/oled_ssd130x.h ****     };
 5069              		.loc 13 112 9 is_stmt 1 view .LVU1263
 112:../../libdaisy/src/dev/oled_ssd130x.h ****     };
 5070              		.loc 13 112 30 is_stmt 0 view .LVU1264
 5071 029e 3246     		mov	r2, r6
 5072 02a0 02A9     		add	r1, sp, #8
 5073 02a2 6423     		movs	r3, #100
 5074 02a4 2046     		mov	r0, r4
 5075 02a6 FFF7FEFF 		bl	_ZN5daisy9SpiHandle16BlockingTransmitEPhjm
 5076              	.LVL410:
 112:../../libdaisy/src/dev/oled_ssd130x.h ****     };
 5077              		.loc 13 112 30 view .LVU1265
 5078 02aa AF23     		movs	r3, #175
 5079              	.LBE1076:
 5080              	.LBE1074:
 5081              	.LBB1077:
 5082              	.LBB1078:
 111:../../libdaisy/src/dev/oled_ssd130x.h ****         spi_.BlockingTransmit(&cmd, 1);
 5083              		.loc 13 111 23 view .LVU1266
 5084 02ac 2946     		mov	r1, r5
 5085 02ae 3846     		mov	r0, r7
 5086 02b0 8DF80830 		strb	r3, [sp, #8]
 5087              	.LVL411:
 111:../../libdaisy/src/dev/oled_ssd130x.h ****         spi_.BlockingTransmit(&cmd, 1);
 5088              		.loc 13 111 23 view .LVU1267
 5089              	.LBE1078:
 5090              	.LBI1077:
 109:../../libdaisy/src/dev/oled_ssd130x.h ****     {
 5091              		.loc 13 109 10 is_stmt 1 view .LVU1268
 5092              	.LBB1079:
 111:../../libdaisy/src/dev/oled_ssd130x.h ****         spi_.BlockingTransmit(&cmd, 1);
 5093              		.loc 13 111 9 view .LVU1269
 111:../../libdaisy/src/dev/oled_ssd130x.h ****         spi_.BlockingTransmit(&cmd, 1);
 5094              		.loc 13 111 23 is_stmt 0 view .LVU1270
 5095 02b4 FFF7FEFF 		bl	dsy_gpio_write
 5096              	.LVL412:
 112:../../libdaisy/src/dev/oled_ssd130x.h ****     };
 5097              		.loc 13 112 9 is_stmt 1 view .LVU1271
 112:../../libdaisy/src/dev/oled_ssd130x.h ****     };
 5098              		.loc 13 112 30 is_stmt 0 view .LVU1272
 5099 02b8 6423     		movs	r3, #100
 5100 02ba 3246     		mov	r2, r6
ARM GAS  C:\Users\VINCIU~1\AppData\Local\Temp\ccUTXsQS.s 			page 147


 5101 02bc 02A9     		add	r1, sp, #8
 5102 02be 2046     		mov	r0, r4
 5103 02c0 FFF7FEFF 		bl	_ZN5daisy9SpiHandle16BlockingTransmitEPhjm
 5104              	.LVL413:
 112:../../libdaisy/src/dev/oled_ssd130x.h ****     };
 5105              		.loc 13 112 30 view .LVU1273
 5106              	.LBE1079:
 5107              	.LBE1077:
 234:../../libdaisy/src/dev/oled_ssd130x.h **** 
 5108              		.loc 13 234 5 view .LVU1274
 5109 02c4 0CB0     		add	sp, sp, #48
 5110              		.cfi_def_cfa_offset 24
 5111              		@ sp needed
 5112 02c6 BDE8F081 		pop	{r4, r5, r6, r7, r8, pc}
 5113              	.LVL414:
 5114              	.L312:
 234:../../libdaisy/src/dev/oled_ssd130x.h **** 
 5115              		.loc 13 234 5 view .LVU1275
 5116 02ca 00BF     		.align	2
 5117              	.L311:
 5118 02cc 060B0B00 		.word	723718
 5119 02d0 0105060A 		.word	168166657
 5120              		.cfi_endproc
 5121              	.LFE4487:
 5123              		.section	.text._ZN5daisy11MidiHandlerINS_17MidiUartTransportEE5ParseEh,"axG",%progbits,_ZN5daisy11
 5124              		.align	1
 5125              		.p2align 2,,3
 5126              		.weak	_ZN5daisy11MidiHandlerINS_17MidiUartTransportEE5ParseEh
 5127              		.syntax unified
 5128              		.thumb
 5129              		.thumb_func
 5130              		.fpu fpv5-d16
 5132              	_ZN5daisy11MidiHandlerINS_17MidiUartTransportEE5ParseEh:
 5133              	.LVL415:
 5134              	.LFB4489:
  83:../../libdaisy/src/hid/midi.h **** 
  84:../../libdaisy/src/hid/midi.h ****     struct Config
  85:../../libdaisy/src/hid/midi.h ****     {
  86:../../libdaisy/src/hid/midi.h ****         typename Transport::Config transport_config;
  87:../../libdaisy/src/hid/midi.h ****     };
  88:../../libdaisy/src/hid/midi.h **** 
  89:../../libdaisy/src/hid/midi.h ****     /** Initializes the MidiHandler 
  90:../../libdaisy/src/hid/midi.h ****     \param in_mode Input mode
  91:../../libdaisy/src/hid/midi.h ****     \param out_mode Output mode
  92:../../libdaisy/src/hid/midi.h ****      */
  93:../../libdaisy/src/hid/midi.h ****     void Init(Config config)
  94:../../libdaisy/src/hid/midi.h ****     {
  95:../../libdaisy/src/hid/midi.h ****         config_ = config;
  96:../../libdaisy/src/hid/midi.h **** 
  97:../../libdaisy/src/hid/midi.h ****         transport_.Init(config_.transport_config);
  98:../../libdaisy/src/hid/midi.h **** 
  99:../../libdaisy/src/hid/midi.h ****         event_q_.Init();
 100:../../libdaisy/src/hid/midi.h ****         incoming_message_.type = MessageLast;
 101:../../libdaisy/src/hid/midi.h ****         pstate_                = ParserEmpty;
 102:../../libdaisy/src/hid/midi.h ****     }
 103:../../libdaisy/src/hid/midi.h **** 
 104:../../libdaisy/src/hid/midi.h ****     /** Starts listening on the selected input mode(s). MidiEvent Queue will begin to fill, and can
ARM GAS  C:\Users\VINCIU~1\AppData\Local\Temp\ccUTXsQS.s 			page 148


 105:../../libdaisy/src/hid/midi.h ****     void StartReceive() { transport_.StartRx(); }
 106:../../libdaisy/src/hid/midi.h **** 
 107:../../libdaisy/src/hid/midi.h ****     /** Start listening */
 108:../../libdaisy/src/hid/midi.h ****     void Listen()
 109:../../libdaisy/src/hid/midi.h ****     {
 110:../../libdaisy/src/hid/midi.h ****         uint32_t now;
 111:../../libdaisy/src/hid/midi.h ****         now = System::GetNow();
 112:../../libdaisy/src/hid/midi.h ****         while(transport_.Readable())
 113:../../libdaisy/src/hid/midi.h ****         {
 114:../../libdaisy/src/hid/midi.h ****             last_read_ = now;
 115:../../libdaisy/src/hid/midi.h ****             Parse(transport_.Rx());
 116:../../libdaisy/src/hid/midi.h ****         }
 117:../../libdaisy/src/hid/midi.h **** 
 118:../../libdaisy/src/hid/midi.h ****         // In case of UART Error, (particularly
 119:../../libdaisy/src/hid/midi.h ****         //  overrun error), UART disables itself.
 120:../../libdaisy/src/hid/midi.h ****         // Flush the buff, and restart.
 121:../../libdaisy/src/hid/midi.h ****         if(!transport_.RxActive())
 122:../../libdaisy/src/hid/midi.h ****         {
 123:../../libdaisy/src/hid/midi.h ****             pstate_ = ParserEmpty;
 124:../../libdaisy/src/hid/midi.h ****             transport_.FlushRx();
 125:../../libdaisy/src/hid/midi.h ****             StartReceive();
 126:../../libdaisy/src/hid/midi.h ****         }
 127:../../libdaisy/src/hid/midi.h ****     }
 128:../../libdaisy/src/hid/midi.h **** 
 129:../../libdaisy/src/hid/midi.h ****     /** Checks if there are unhandled messages in the queue 
 130:../../libdaisy/src/hid/midi.h ****     \return True if there are events to be handled, else false.
 131:../../libdaisy/src/hid/midi.h ****      */
 132:../../libdaisy/src/hid/midi.h ****     bool HasEvents() const { return event_q_.readable(); }
 133:../../libdaisy/src/hid/midi.h **** 
 134:../../libdaisy/src/hid/midi.h **** 
 135:../../libdaisy/src/hid/midi.h ****     /** Pops the oldest unhandled MidiEvent from the internal queue
 136:../../libdaisy/src/hid/midi.h ****     \return The event to be handled
 137:../../libdaisy/src/hid/midi.h ****      */
 138:../../libdaisy/src/hid/midi.h ****     MidiEvent PopEvent() { return event_q_.Read(); }
 139:../../libdaisy/src/hid/midi.h **** 
 140:../../libdaisy/src/hid/midi.h ****     /** SendMessage
 141:../../libdaisy/src/hid/midi.h ****     Send raw bytes as message
 142:../../libdaisy/src/hid/midi.h ****     */
 143:../../libdaisy/src/hid/midi.h ****     void SendMessage(uint8_t* bytes, size_t size)
 144:../../libdaisy/src/hid/midi.h ****     {
 145:../../libdaisy/src/hid/midi.h ****         transport_.Tx(bytes, size);
 146:../../libdaisy/src/hid/midi.h ****     }
 147:../../libdaisy/src/hid/midi.h **** 
 148:../../libdaisy/src/hid/midi.h ****     /** Feed in bytes to state machine from a queue.
 149:../../libdaisy/src/hid/midi.h ****     Populates internal FIFO queue with MIDI Messages
 150:../../libdaisy/src/hid/midi.h ****     For example with uart:
 151:../../libdaisy/src/hid/midi.h ****     midi.Parse(uart.PopRx());
 152:../../libdaisy/src/hid/midi.h ****     \param byte &
 153:../../libdaisy/src/hid/midi.h ****     */
 154:../../libdaisy/src/hid/midi.h ****     void Parse(uint8_t byte)
 5135              		.loc 14 154 10 is_stmt 1 view -0
 5136              		.cfi_startproc
 5137              		@ args = 0, pretend = 0, frame = 232
 5138              		@ frame_needed = 0, uses_anonymous_args = 0
 5139              		.loc 14 154 10 is_stmt 0 view .LVU1277
 5140 0000 0379     		ldrb	r3, [r0, #4]	@ zero_extendqisi2
 5141 0002 2DE9F041 		push	{r4, r5, r6, r7, r8, lr}
ARM GAS  C:\Users\VINCIU~1\AppData\Local\Temp\ccUTXsQS.s 			page 149


 5142              		.cfi_def_cfa_offset 24
 5143              		.cfi_offset 4, -24
 5144              		.cfi_offset 5, -20
 5145              		.cfi_offset 6, -16
 5146              		.cfi_offset 7, -12
 5147              		.cfi_offset 8, -8
 5148              		.cfi_offset 14, -4
 5149 0006 0546     		mov	r5, r0
 5150 0008 BAB0     		sub	sp, sp, #232
 5151              		.cfi_def_cfa_offset 256
 5152 000a 032B     		cmp	r3, #3
 5153 000c 0CD8     		bhi	.L313
 5154 000e DFE803F0 		tbb	[pc, r3]
 5155              	.L316:
 5156 0012 67       		.byte	(.L319-.L316)/2
 5157 0013 1C       		.byte	(.L318-.L316)/2
 5158 0014 02       		.byte	(.L317-.L316)/2
 5159 0015 0E       		.byte	(.L315-.L316)/2
 5160              		.p2align 1
 5161              	.L317:
 155:../../libdaisy/src/hid/midi.h ****     {
 156:../../libdaisy/src/hid/midi.h ****         switch(pstate_)
 157:../../libdaisy/src/hid/midi.h ****         {
 158:../../libdaisy/src/hid/midi.h ****             case ParserEmpty:
 159:../../libdaisy/src/hid/midi.h ****                 // check byte for valid Status Byte
 160:../../libdaisy/src/hid/midi.h ****                 if(byte & kStatusByteMask)
 161:../../libdaisy/src/hid/midi.h ****                 {
 162:../../libdaisy/src/hid/midi.h ****                     // Get MessageType, and Channel
 163:../../libdaisy/src/hid/midi.h ****                     incoming_message_.channel = byte & kChannelMask;
 164:../../libdaisy/src/hid/midi.h ****                     incoming_message_.type    = static_cast<MidiMessageType>(
 165:../../libdaisy/src/hid/midi.h ****                         (byte & kMessageMask) >> 4);
 166:../../libdaisy/src/hid/midi.h **** 
 167:../../libdaisy/src/hid/midi.h ****                     // Validate, and move on.
 168:../../libdaisy/src/hid/midi.h ****                     if(incoming_message_.type < MessageLast)
 169:../../libdaisy/src/hid/midi.h ****                     {
 170:../../libdaisy/src/hid/midi.h ****                         pstate_ = ParserHasStatus;
 171:../../libdaisy/src/hid/midi.h ****                         // Mark this status byte as running_status
 172:../../libdaisy/src/hid/midi.h ****                         running_status_ = incoming_message_.type;
 173:../../libdaisy/src/hid/midi.h **** 
 174:../../libdaisy/src/hid/midi.h ****                         if(running_status_ == SystemCommon)
 175:../../libdaisy/src/hid/midi.h ****                         {
 176:../../libdaisy/src/hid/midi.h ****                             incoming_message_.channel = 0;
 177:../../libdaisy/src/hid/midi.h ****                             //system real time = 1111 1xxx
 178:../../libdaisy/src/hid/midi.h ****                             if(byte & 0x08)
 179:../../libdaisy/src/hid/midi.h ****                             {
 180:../../libdaisy/src/hid/midi.h ****                                 incoming_message_.type = SystemRealTime;
 181:../../libdaisy/src/hid/midi.h ****                                 running_status_        = SystemRealTime;
 182:../../libdaisy/src/hid/midi.h ****                                 incoming_message_.srt_type
 183:../../libdaisy/src/hid/midi.h ****                                     = static_cast<SystemRealTimeType>(
 184:../../libdaisy/src/hid/midi.h ****                                         byte & kSystemRealTimeMask);
 185:../../libdaisy/src/hid/midi.h **** 
 186:../../libdaisy/src/hid/midi.h ****                                 //short circuit to start
 187:../../libdaisy/src/hid/midi.h ****                                 pstate_ = ParserEmpty;
 188:../../libdaisy/src/hid/midi.h ****                                 event_q_.Write(incoming_message_);
 189:../../libdaisy/src/hid/midi.h ****                             }
 190:../../libdaisy/src/hid/midi.h ****                             //system common
 191:../../libdaisy/src/hid/midi.h ****                             else
ARM GAS  C:\Users\VINCIU~1\AppData\Local\Temp\ccUTXsQS.s 			page 150


 192:../../libdaisy/src/hid/midi.h ****                             {
 193:../../libdaisy/src/hid/midi.h ****                                 incoming_message_.sc_type
 194:../../libdaisy/src/hid/midi.h ****                                     = static_cast<SystemCommonType>(byte
 195:../../libdaisy/src/hid/midi.h ****                                                                     & 0x07);
 196:../../libdaisy/src/hid/midi.h ****                                 //sysex
 197:../../libdaisy/src/hid/midi.h ****                                 if(incoming_message_.sc_type == SystemExclusive)
 198:../../libdaisy/src/hid/midi.h ****                                 {
 199:../../libdaisy/src/hid/midi.h ****                                     pstate_ = ParserSysEx;
 200:../../libdaisy/src/hid/midi.h ****                                     incoming_message_.sysex_message_len = 0;
 201:../../libdaisy/src/hid/midi.h ****                                 }
 202:../../libdaisy/src/hid/midi.h ****                                 //short circuit
 203:../../libdaisy/src/hid/midi.h ****                                 else if(incoming_message_.sc_type > SongSelect)
 204:../../libdaisy/src/hid/midi.h ****                                 {
 205:../../libdaisy/src/hid/midi.h ****                                     pstate_ = ParserEmpty;
 206:../../libdaisy/src/hid/midi.h ****                                     event_q_.Write(incoming_message_);
 207:../../libdaisy/src/hid/midi.h ****                                 }
 208:../../libdaisy/src/hid/midi.h ****                             }
 209:../../libdaisy/src/hid/midi.h ****                         }
 210:../../libdaisy/src/hid/midi.h ****                     }
 211:../../libdaisy/src/hid/midi.h ****                     // Else we'll keep waiting for a valid incoming status byte
 212:../../libdaisy/src/hid/midi.h ****                 }
 213:../../libdaisy/src/hid/midi.h ****                 else
 214:../../libdaisy/src/hid/midi.h ****                 {
 215:../../libdaisy/src/hid/midi.h ****                     // Handle as running status
 216:../../libdaisy/src/hid/midi.h ****                     incoming_message_.type    = running_status_;
 217:../../libdaisy/src/hid/midi.h ****                     incoming_message_.data[0] = byte & kDataByteMask;
 218:../../libdaisy/src/hid/midi.h ****                     pstate_                   = ParserHasData0;
 219:../../libdaisy/src/hid/midi.h ****                 }
 220:../../libdaisy/src/hid/midi.h ****                 break;
 221:../../libdaisy/src/hid/midi.h ****             case ParserHasStatus:
 222:../../libdaisy/src/hid/midi.h ****                 if((byte & kStatusByteMask) == 0)
 223:../../libdaisy/src/hid/midi.h ****                 {
 224:../../libdaisy/src/hid/midi.h ****                     incoming_message_.data[0] = byte & kDataByteMask;
 225:../../libdaisy/src/hid/midi.h ****                     if(running_status_ == ChannelPressure
 226:../../libdaisy/src/hid/midi.h ****                        || running_status_ == ProgramChange
 227:../../libdaisy/src/hid/midi.h ****                        || incoming_message_.sc_type == MTCQuarterFrame
 228:../../libdaisy/src/hid/midi.h ****                        || incoming_message_.sc_type == SongSelect)
 229:../../libdaisy/src/hid/midi.h ****                     {
 230:../../libdaisy/src/hid/midi.h ****                         //these are just one data byte, so we short circuit back to start
 231:../../libdaisy/src/hid/midi.h ****                         pstate_ = ParserEmpty;
 232:../../libdaisy/src/hid/midi.h ****                         event_q_.Write(incoming_message_);
 233:../../libdaisy/src/hid/midi.h ****                     }
 234:../../libdaisy/src/hid/midi.h ****                     else
 235:../../libdaisy/src/hid/midi.h ****                     {
 236:../../libdaisy/src/hid/midi.h ****                         pstate_ = ParserHasData0;
 237:../../libdaisy/src/hid/midi.h ****                     }
 238:../../libdaisy/src/hid/midi.h **** 
 239:../../libdaisy/src/hid/midi.h ****                     //ChannelModeMessages (reserved Control Changes)
 240:../../libdaisy/src/hid/midi.h ****                     if(running_status_ == ControlChange
 241:../../libdaisy/src/hid/midi.h ****                        && incoming_message_.data[0] > 119)
 242:../../libdaisy/src/hid/midi.h ****                     {
 243:../../libdaisy/src/hid/midi.h ****                         incoming_message_.type = ChannelMode;
 244:../../libdaisy/src/hid/midi.h ****                         running_status_        = ChannelMode;
 245:../../libdaisy/src/hid/midi.h ****                         incoming_message_.cm_type
 246:../../libdaisy/src/hid/midi.h ****                             = static_cast<ChannelModeType>(
 247:../../libdaisy/src/hid/midi.h ****                                 incoming_message_.data[0] - 120);
 248:../../libdaisy/src/hid/midi.h ****                     }
ARM GAS  C:\Users\VINCIU~1\AppData\Local\Temp\ccUTXsQS.s 			page 151


 249:../../libdaisy/src/hid/midi.h ****                 }
 250:../../libdaisy/src/hid/midi.h ****                 else
 251:../../libdaisy/src/hid/midi.h ****                 {
 252:../../libdaisy/src/hid/midi.h ****                     // invalid message go back to start ;p
 253:../../libdaisy/src/hid/midi.h ****                     pstate_ = ParserEmpty;
 254:../../libdaisy/src/hid/midi.h ****                 }
 255:../../libdaisy/src/hid/midi.h ****                 break;
 256:../../libdaisy/src/hid/midi.h ****             case ParserHasData0:
 257:../../libdaisy/src/hid/midi.h ****                 if((byte & kStatusByteMask) == 0)
 5162              		.loc 14 257 28 view .LVU1278
 5163 0016 00F5E044 		add	r4, r0, #28672
 5164              		.loc 14 257 26 view .LVU1279
 5165 001a 94F89834 		ldrb	r3, [r4, #1176]	@ zero_extendqisi2
 5166              		.loc 14 257 17 view .LVU1280
 5167 001e 1942     		tst	r1, r3
 5168 0020 00F09280 		beq	.L360
 5169              	.LVL416:
 5170              	.L327:
 253:../../libdaisy/src/hid/midi.h ****                 }
 5171              		.loc 14 253 29 view .LVU1281
 5172 0024 0023     		movs	r3, #0
 5173 0026 2B71     		strb	r3, [r5, #4]
 5174              	.L313:
 258:../../libdaisy/src/hid/midi.h ****                 {
 259:../../libdaisy/src/hid/midi.h ****                     incoming_message_.data[1] = byte & kDataByteMask;
 260:../../libdaisy/src/hid/midi.h ****                     // At this point the message is valid, and we can add this MidiEvent to the que
 261:../../libdaisy/src/hid/midi.h ****                     event_q_.Write(incoming_message_);
 262:../../libdaisy/src/hid/midi.h ****                 }
 263:../../libdaisy/src/hid/midi.h ****                 // Regardless, of whether the data was valid or not we go back to empty
 264:../../libdaisy/src/hid/midi.h ****                 // because either the message is queued for handling or its not.
 265:../../libdaisy/src/hid/midi.h ****                 pstate_ = ParserEmpty;
 266:../../libdaisy/src/hid/midi.h ****                 break;
 267:../../libdaisy/src/hid/midi.h ****             case ParserSysEx:
 268:../../libdaisy/src/hid/midi.h ****                 // end of sysex
 269:../../libdaisy/src/hid/midi.h ****                 if(byte == 0xf7
 270:../../libdaisy/src/hid/midi.h ****                    || incoming_message_.sysex_message_len >= SYSEX_BUFFER_LEN)
 271:../../libdaisy/src/hid/midi.h ****                 {
 272:../../libdaisy/src/hid/midi.h ****                     pstate_ = ParserEmpty;
 273:../../libdaisy/src/hid/midi.h ****                     event_q_.Write(incoming_message_);
 274:../../libdaisy/src/hid/midi.h ****                 }
 275:../../libdaisy/src/hid/midi.h ****                 else
 276:../../libdaisy/src/hid/midi.h ****                 {
 277:../../libdaisy/src/hid/midi.h ****                     incoming_message_
 278:../../libdaisy/src/hid/midi.h ****                         .sysex_data[incoming_message_.sysex_message_len]
 279:../../libdaisy/src/hid/midi.h ****                         = byte;
 280:../../libdaisy/src/hid/midi.h ****                     incoming_message_.sysex_message_len++;
 281:../../libdaisy/src/hid/midi.h ****                 }
 282:../../libdaisy/src/hid/midi.h ****                 break;
 283:../../libdaisy/src/hid/midi.h ****             default: break;
 284:../../libdaisy/src/hid/midi.h ****         }
 285:../../libdaisy/src/hid/midi.h ****     }
 5175              		.loc 14 285 5 view .LVU1282
 5176 0028 3AB0     		add	sp, sp, #232
 5177              		.cfi_remember_state
 5178              		.cfi_def_cfa_offset 24
 5179              		@ sp needed
 5180 002a BDE8F081 		pop	{r4, r5, r6, r7, r8, pc}
ARM GAS  C:\Users\VINCIU~1\AppData\Local\Temp\ccUTXsQS.s 			page 152


 5181              	.LVL417:
 5182              	.L315:
 5183              		.cfi_restore_state
 269:../../libdaisy/src/hid/midi.h ****                    || incoming_message_.sysex_message_len >= SYSEX_BUFFER_LEN)
 5184              		.loc 14 269 17 view .LVU1283
 5185 002e F729     		cmp	r1, #247
 5186 0030 00F0B280 		beq	.L333
 270:../../libdaisy/src/hid/midi.h ****                 {
 5187              		.loc 14 270 41 view .LVU1284
 5188 0034 90F87630 		ldrb	r3, [r0, #118]	@ zero_extendqisi2
 270:../../libdaisy/src/hid/midi.h ****                 {
 5189              		.loc 14 270 20 view .LVU1285
 5190 0038 632B     		cmp	r3, #99
 5191 003a 00F2AD80 		bhi	.L333
 279:../../libdaisy/src/hid/midi.h ****                     incoming_message_.sysex_message_len++;
 5192              		.loc 14 279 25 view .LVU1286
 5193 003e C218     		adds	r2, r0, r3
 280:../../libdaisy/src/hid/midi.h ****                 }
 5194              		.loc 14 280 21 view .LVU1287
 5195 0040 0133     		adds	r3, r3, #1
 279:../../libdaisy/src/hid/midi.h ****                     incoming_message_.sysex_message_len++;
 5196              		.loc 14 279 25 view .LVU1288
 5197 0042 9174     		strb	r1, [r2, #18]
 280:../../libdaisy/src/hid/midi.h ****                 }
 5198              		.loc 14 280 21 view .LVU1289
 5199 0044 80F87630 		strb	r3, [r0, #118]
 5200              		.loc 14 285 5 view .LVU1290
 5201 0048 EEE7     		b	.L313
 5202              	.L318:
 222:../../libdaisy/src/hid/midi.h ****                 {
 5203              		.loc 14 222 28 view .LVU1291
 5204 004a 00F5E044 		add	r4, r0, #28672
 222:../../libdaisy/src/hid/midi.h ****                 {
 5205              		.loc 14 222 26 view .LVU1292
 5206 004e 94F89834 		ldrb	r3, [r4, #1176]	@ zero_extendqisi2
 222:../../libdaisy/src/hid/midi.h ****                 {
 5207              		.loc 14 222 17 view .LVU1293
 5208 0052 1942     		tst	r1, r3
 5209 0054 E6D1     		bne	.L327
 224:../../libdaisy/src/hid/midi.h ****                     if(running_status_ == ChannelPressure
 5210              		.loc 14 224 54 view .LVU1294
 5211 0056 94F89A84 		ldrb	r8, [r4, #1178]	@ zero_extendqisi2
 5212 005a 01EA0808 		and	r8, r1, r8
 224:../../libdaisy/src/hid/midi.h ****                     if(running_status_ == ChannelPressure
 5213              		.loc 14 224 47 view .LVU1295
 5214 005e 80F81080 		strb	r8, [r0, #16]
 225:../../libdaisy/src/hid/midi.h ****                        || running_status_ == ProgramChange
 5215              		.loc 14 225 24 view .LVU1296
 5216 0062 94F88874 		ldrb	r7, [r4, #1160]	@ zero_extendqisi2
 225:../../libdaisy/src/hid/midi.h ****                        || running_status_ == ProgramChange
 5217              		.loc 14 225 21 view .LVU1297
 5218 0066 3B1F     		subs	r3, r7, #4
 5219 0068 012B     		cmp	r3, #1
 5220 006a 06D9     		bls	.L328
 227:../../libdaisy/src/hid/midi.h ****                        || incoming_message_.sc_type == SongSelect)
 5221              		.loc 14 227 24 view .LVU1298
 5222 006c 90F87730 		ldrb	r3, [r0, #119]	@ zero_extendqisi2
ARM GAS  C:\Users\VINCIU~1\AppData\Local\Temp\ccUTXsQS.s 			page 153


 228:../../libdaisy/src/hid/midi.h ****                     {
 5223              		.loc 14 228 24 view .LVU1299
 5224 0070 03F0FD03 		and	r3, r3, #253
 5225 0074 012B     		cmp	r3, #1
 5226 0076 40F0B980 		bne	.L329
 5227              	.L328:
 231:../../libdaisy/src/hid/midi.h ****                         event_q_.Write(incoming_message_);
 5228              		.loc 14 231 33 view .LVU1300
 5229 007a 0023     		movs	r3, #0
 5230 007c 6E46     		mov	r6, sp
 5231 007e 7422     		movs	r2, #116
 5232 0080 05F10801 		add	r1, r5, #8
 5233              	.LVL418:
 231:../../libdaisy/src/hid/midi.h ****                         event_q_.Write(incoming_message_);
 5234              		.loc 14 231 33 view .LVU1301
 5235 0084 3046     		mov	r0, r6
 5236              	.LVL419:
 231:../../libdaisy/src/hid/midi.h ****                         event_q_.Write(incoming_message_);
 5237              		.loc 14 231 33 view .LVU1302
 5238 0086 2B71     		strb	r3, [r5, #4]
 5239              	.LVL420:
 231:../../libdaisy/src/hid/midi.h ****                         event_q_.Write(incoming_message_);
 5240              		.loc 14 231 33 view .LVU1303
 5241 0088 FFF7FEFF 		bl	memcpy
 5242              	.LVL421:
 5243              	.LBB1110:
 5244              	.LBI1110:
 5245              		.file 19 "../../libdaisy/src/util/ringbuffer.h"
   1:../../libdaisy/src/util/ringbuffer.h **** #pragma once
   2:../../libdaisy/src/util/ringbuffer.h **** #ifndef DSY_RINGBUFFER_H
   3:../../libdaisy/src/util/ringbuffer.h **** #define DSY_RINGBUFFER_H
   4:../../libdaisy/src/util/ringbuffer.h **** 
   5:../../libdaisy/src/util/ringbuffer.h **** #include <algorithm>
   6:../../libdaisy/src/util/ringbuffer.h **** 
   7:../../libdaisy/src/util/ringbuffer.h **** namespace daisy
   8:../../libdaisy/src/util/ringbuffer.h **** {
   9:../../libdaisy/src/util/ringbuffer.h **** /** @addtogroup utility
  10:../../libdaisy/src/util/ringbuffer.h ****     @{
  11:../../libdaisy/src/util/ringbuffer.h **** */
  12:../../libdaisy/src/util/ringbuffer.h **** 
  13:../../libdaisy/src/util/ringbuffer.h **** /**
  14:../../libdaisy/src/util/ringbuffer.h **** Utility Ring Buffer \n 
  15:../../libdaisy/src/util/ringbuffer.h **** imported from pichenettes/stmlib
  16:../../libdaisy/src/util/ringbuffer.h **** */
  17:../../libdaisy/src/util/ringbuffer.h **** template <typename T, size_t size>
  18:../../libdaisy/src/util/ringbuffer.h **** class RingBuffer
  19:../../libdaisy/src/util/ringbuffer.h **** {
  20:../../libdaisy/src/util/ringbuffer.h ****   public:
  21:../../libdaisy/src/util/ringbuffer.h ****     RingBuffer() {}
  22:../../libdaisy/src/util/ringbuffer.h **** 
  23:../../libdaisy/src/util/ringbuffer.h ****     /** Initializes the Ring Buffer */
  24:../../libdaisy/src/util/ringbuffer.h ****     inline void Init() { read_ptr_ = write_ptr_ = 0; }
  25:../../libdaisy/src/util/ringbuffer.h **** 
  26:../../libdaisy/src/util/ringbuffer.h ****     /** \return The total size of the ring buffer */
  27:../../libdaisy/src/util/ringbuffer.h ****     inline size_t capacity() const { return size; }
  28:../../libdaisy/src/util/ringbuffer.h **** 
  29:../../libdaisy/src/util/ringbuffer.h ****     /** \return the number of samples that can be written to ring buffer without overwriting unread
ARM GAS  C:\Users\VINCIU~1\AppData\Local\Temp\ccUTXsQS.s 			page 154


  30:../../libdaisy/src/util/ringbuffer.h ****     inline size_t writable() const
  31:../../libdaisy/src/util/ringbuffer.h ****     {
  32:../../libdaisy/src/util/ringbuffer.h ****         return (read_ptr_ - write_ptr_ - 1) % size;
  33:../../libdaisy/src/util/ringbuffer.h ****     }
  34:../../libdaisy/src/util/ringbuffer.h **** 
  35:../../libdaisy/src/util/ringbuffer.h ****     /** \return number of unread elements in ring buffer */
  36:../../libdaisy/src/util/ringbuffer.h ****     inline size_t readable() const { return (write_ptr_ - read_ptr_) % size; }
  37:../../libdaisy/src/util/ringbuffer.h **** 
  38:../../libdaisy/src/util/ringbuffer.h ****     /** \returns True, if the buffer is empty. */
  39:../../libdaisy/src/util/ringbuffer.h ****     inline bool isEmpty() const { return write_ptr_ == read_ptr_; }
  40:../../libdaisy/src/util/ringbuffer.h **** 
  41:../../libdaisy/src/util/ringbuffer.h ****     /** Writes the value to the next available position in the ring buffer
  42:../../libdaisy/src/util/ringbuffer.h ****     \param v Value to write
  43:../../libdaisy/src/util/ringbuffer.h ****     */
  44:../../libdaisy/src/util/ringbuffer.h ****     inline void Write(T v)
 5246              		.loc 19 44 17 is_stmt 1 view .LVU1304
 5247              	.L330:
 5248              	.LBB1111:
  45:../../libdaisy/src/util/ringbuffer.h ****     {
  46:../../libdaisy/src/util/ringbuffer.h ****         while(!writable())
 5249              		.loc 19 46 24 view .LVU1305
 5250              	.LBB1112:
 5251              	.LBI1112:
  30:../../libdaisy/src/util/ringbuffer.h ****     {
 5252              		.loc 19 30 19 view .LVU1306
 5253              	.LBB1113:
  32:../../libdaisy/src/util/ringbuffer.h ****     }
 5254              		.loc 19 32 17 is_stmt 0 view .LVU1307
 5255 008c D4F87C34 		ldr	r3, [r4, #1148]
  32:../../libdaisy/src/util/ringbuffer.h ****     }
 5256              		.loc 19 32 29 view .LVU1308
 5257 0090 D4F88024 		ldr	r2, [r4, #1152]
 5258              	.LVL422:
  32:../../libdaisy/src/util/ringbuffer.h ****     }
 5259              		.loc 19 32 40 view .LVU1309
 5260 0094 013B     		subs	r3, r3, #1
 5261 0096 9B1A     		subs	r3, r3, r2
  32:../../libdaisy/src/util/ringbuffer.h ****     }
 5262              		.loc 19 32 47 view .LVU1310
 5263 0098 DBB2     		uxtb	r3, r3
 5264              	.LBE1113:
 5265              	.LBE1112:
 5266              		.loc 19 46 24 view .LVU1311
 5267 009a 002B     		cmp	r3, #0
 5268 009c F6D0     		beq	.L330
 5269              	.LVL423:
 5270              		.loc 19 46 24 view .LVU1312
 5271 009e 7422     		movs	r2, #116
 5272 00a0 3146     		mov	r1, r6
 5273 00a2 0DEB0200 		add	r0, sp, r2
 5274 00a6 FFF7FEFF 		bl	memcpy
 5275              	.LVL424:
 5276              	.LBB1114:
 5277              	.LBI1114:
  47:../../libdaisy/src/util/ringbuffer.h ****             ;
  48:../../libdaisy/src/util/ringbuffer.h ****         Overwrite(v);
  49:../../libdaisy/src/util/ringbuffer.h ****     }
ARM GAS  C:\Users\VINCIU~1\AppData\Local\Temp\ccUTXsQS.s 			page 155


  50:../../libdaisy/src/util/ringbuffer.h **** 
  51:../../libdaisy/src/util/ringbuffer.h ****     /** Writes the new element to the ring buffer, overwriting unread data if necessary. 
  52:../../libdaisy/src/util/ringbuffer.h ****     \param v Value to overwrite
  53:../../libdaisy/src/util/ringbuffer.h ****      */
  54:../../libdaisy/src/util/ringbuffer.h ****     inline void Overwrite(T v)
 5278              		.loc 19 54 17 is_stmt 1 view .LVU1313
 5279              	.LBB1115:
  55:../../libdaisy/src/util/ringbuffer.h ****     {
  56:../../libdaisy/src/util/ringbuffer.h ****         size_t w   = write_ptr_;
 5280              		.loc 19 56 16 is_stmt 0 view .LVU1314
 5281 00aa D4F88064 		ldr	r6, [r4, #1152]
 5282              	.LVL425:
  57:../../libdaisy/src/util/ringbuffer.h ****         buffer_[w] = v;
 5283              		.loc 19 57 9 view .LVU1315
 5284 00ae 7422     		movs	r2, #116
 5285 00b0 1DA9     		add	r1, sp, #116
 5286 00b2 02FB0650 		mla	r0, r2, r6, r5
  58:../../libdaisy/src/util/ringbuffer.h ****         write_ptr_ = (w + 1) % size;
 5287              		.loc 19 58 25 view .LVU1316
 5288 00b6 0136     		adds	r6, r6, #1
 5289              	.LVL426:
 5290              		.loc 19 58 30 view .LVU1317
 5291 00b8 F6B2     		uxtb	r6, r6
 5292              	.LVL427:
  57:../../libdaisy/src/util/ringbuffer.h ****         buffer_[w] = v;
 5293              		.loc 19 57 9 view .LVU1318
 5294 00ba 7C30     		adds	r0, r0, #124
 5295 00bc FFF7FEFF 		bl	memcpy
 5296              	.LVL428:
 5297              		.loc 19 58 20 view .LVU1319
 5298 00c0 C4F88064 		str	r6, [r4, #1152]
 5299              	.LVL429:
 5300              	.L331:
 5301              		.loc 19 58 20 view .LVU1320
 5302              	.LBE1115:
 5303              	.LBE1114:
 5304              	.LBE1111:
 5305              	.LBE1110:
 241:../../libdaisy/src/hid/midi.h ****                     {
 5306              		.loc 14 241 24 view .LVU1321
 5307 00c4 B8F1770F 		cmp	r8, #119
 5308 00c8 AED9     		bls	.L313
 5309 00ca 032F     		cmp	r7, #3
 5310 00cc ACD1     		bne	.L313
 243:../../libdaisy/src/hid/midi.h ****                         running_status_        = ChannelMode;
 5311              		.loc 14 243 48 view .LVU1322
 5312 00ce 0923     		movs	r3, #9
 247:../../libdaisy/src/hid/midi.h ****                     }
 5313              		.loc 14 247 59 view .LVU1323
 5314 00d0 A8F17801 		sub	r1, r8, #120
 243:../../libdaisy/src/hid/midi.h ****                         running_status_        = ChannelMode;
 5315              		.loc 14 243 48 view .LVU1324
 5316 00d4 2B72     		strb	r3, [r5, #8]
 244:../../libdaisy/src/hid/midi.h ****                         incoming_message_.cm_type
 5317              		.loc 14 244 48 view .LVU1325
 5318 00d6 84F88834 		strb	r3, [r4, #1160]
 246:../../libdaisy/src/hid/midi.h ****                                 incoming_message_.data[0] - 120);
ARM GAS  C:\Users\VINCIU~1\AppData\Local\Temp\ccUTXsQS.s 			page 156


 5319              		.loc 14 246 29 view .LVU1326
 5320 00da 85F87910 		strb	r1, [r5, #121]
 5321 00de A3E7     		b	.L313
 5322              	.LVL430:
 5323              	.L319:
 160:../../libdaisy/src/hid/midi.h ****                 {
 5324              		.loc 14 160 27 view .LVU1327
 5325 00e0 00F5E044 		add	r4, r0, #28672
 160:../../libdaisy/src/hid/midi.h ****                 {
 5326              		.loc 14 160 25 view .LVU1328
 5327 00e4 94F89834 		ldrb	r3, [r4, #1176]	@ zero_extendqisi2
 160:../../libdaisy/src/hid/midi.h ****                 {
 5328              		.loc 14 160 17 view .LVU1329
 5329 00e8 1942     		tst	r1, r3
 5330 00ea 21D0     		beq	.L320
 163:../../libdaisy/src/hid/midi.h ****                     incoming_message_.type    = static_cast<MidiMessageType>(
 5331              		.loc 14 163 54 view .LVU1330
 5332 00ec 94F89C34 		ldrb	r3, [r4, #1180]	@ zero_extendqisi2
 5333 00f0 0B40     		ands	r3, r3, r1
 5334 00f2 C360     		str	r3, [r0, #12]
 165:../../libdaisy/src/hid/midi.h **** 
 5335              		.loc 14 165 31 view .LVU1331
 5336 00f4 94F89934 		ldrb	r3, [r4, #1177]	@ zero_extendqisi2
 165:../../libdaisy/src/hid/midi.h **** 
 5337              		.loc 14 165 47 view .LVU1332
 5338 00f8 0B40     		ands	r3, r3, r1
 5339 00fa 1B09     		lsrs	r3, r3, #4
 168:../../libdaisy/src/hid/midi.h ****                     {
 5340              		.loc 14 168 21 view .LVU1333
 5341 00fc 092B     		cmp	r3, #9
 164:../../libdaisy/src/hid/midi.h ****                         (byte & kMessageMask) >> 4);
 5342              		.loc 14 164 47 view .LVU1334
 5343 00fe 0372     		strb	r3, [r0, #8]
 168:../../libdaisy/src/hid/midi.h ****                     {
 5344              		.loc 14 168 21 view .LVU1335
 5345 0100 92D8     		bhi	.L313
 170:../../libdaisy/src/hid/midi.h ****                         // Mark this status byte as running_status
 5346              		.loc 14 170 33 view .LVU1336
 5347 0102 0122     		movs	r2, #1
 174:../../libdaisy/src/hid/midi.h ****                         {
 5348              		.loc 14 174 25 view .LVU1337
 5349 0104 072B     		cmp	r3, #7
 170:../../libdaisy/src/hid/midi.h ****                         // Mark this status byte as running_status
 5350              		.loc 14 170 33 view .LVU1338
 5351 0106 0271     		strb	r2, [r0, #4]
 172:../../libdaisy/src/hid/midi.h **** 
 5352              		.loc 14 172 41 view .LVU1339
 5353 0108 84F88834 		strb	r3, [r4, #1160]
 174:../../libdaisy/src/hid/midi.h ****                         {
 5354              		.loc 14 174 25 view .LVU1340
 5355 010c 8CD1     		bne	.L313
 176:../../libdaisy/src/hid/midi.h ****                             //system real time = 1111 1xxx
 5356              		.loc 14 176 55 view .LVU1341
 5357 010e 0023     		movs	r3, #0
 5358 0110 C360     		str	r3, [r0, #12]
 178:../../libdaisy/src/hid/midi.h ****                             {
 5359              		.loc 14 178 29 view .LVU1342
ARM GAS  C:\Users\VINCIU~1\AppData\Local\Temp\ccUTXsQS.s 			page 157


 5360 0112 11F00800 		ands	r0, r1, #8
 5361              	.LVL431:
 178:../../libdaisy/src/hid/midi.h ****                             {
 5362              		.loc 14 178 29 view .LVU1343
 5363 0116 40F09480 		bne	.L361
 195:../../libdaisy/src/hid/midi.h ****                                 //sysex
 5364              		.loc 14 195 69 view .LVU1344
 5365 011a 01F00703 		and	r3, r1, #7
 194:../../libdaisy/src/hid/midi.h ****                                                                     & 0x07);
 5366              		.loc 14 194 37 view .LVU1345
 5367 011e 85F87730 		strb	r3, [r5, #119]
 197:../../libdaisy/src/hid/midi.h ****                                 {
 5368              		.loc 14 197 33 view .LVU1346
 5369 0122 002B     		cmp	r3, #0
 5370 0124 65D1     		bne	.L325
 199:../../libdaisy/src/hid/midi.h ****                                     incoming_message_.sysex_message_len = 0;
 5371              		.loc 14 199 45 view .LVU1347
 5372 0126 0322     		movs	r2, #3
 200:../../libdaisy/src/hid/midi.h ****                                 }
 5373              		.loc 14 200 73 view .LVU1348
 5374 0128 85F87630 		strb	r3, [r5, #118]
 199:../../libdaisy/src/hid/midi.h ****                                     incoming_message_.sysex_message_len = 0;
 5375              		.loc 14 199 45 view .LVU1349
 5376 012c 2A71     		strb	r2, [r5, #4]
 5377 012e 7BE7     		b	.L313
 5378              	.LVL432:
 5379              	.L320:
 216:../../libdaisy/src/hid/midi.h ****                     incoming_message_.data[0] = byte & kDataByteMask;
 5380              		.loc 14 216 47 view .LVU1350
 5381 0130 94F88834 		ldrb	r3, [r4, #1160]	@ zero_extendqisi2
 218:../../libdaisy/src/hid/midi.h ****                 }
 5382              		.loc 14 218 47 view .LVU1351
 5383 0134 0222     		movs	r2, #2
 216:../../libdaisy/src/hid/midi.h ****                     incoming_message_.data[0] = byte & kDataByteMask;
 5384              		.loc 14 216 47 view .LVU1352
 5385 0136 0372     		strb	r3, [r0, #8]
 217:../../libdaisy/src/hid/midi.h ****                     pstate_                   = ParserHasData0;
 5386              		.loc 14 217 54 view .LVU1353
 5387 0138 94F89A34 		ldrb	r3, [r4, #1178]	@ zero_extendqisi2
 218:../../libdaisy/src/hid/midi.h ****                 }
 5388              		.loc 14 218 47 view .LVU1354
 5389 013c 0271     		strb	r2, [r0, #4]
 217:../../libdaisy/src/hid/midi.h ****                     pstate_                   = ParserHasData0;
 5390              		.loc 14 217 54 view .LVU1355
 5391 013e 1940     		ands	r1, r1, r3
 5392              	.LVL433:
 217:../../libdaisy/src/hid/midi.h ****                     pstate_                   = ParserHasData0;
 5393              		.loc 14 217 47 view .LVU1356
 5394 0140 0174     		strb	r1, [r0, #16]
 5395              		.loc 14 285 5 view .LVU1357
 5396 0142 3AB0     		add	sp, sp, #232
 5397              		.cfi_remember_state
 5398              		.cfi_def_cfa_offset 24
 5399              		@ sp needed
 5400 0144 BDE8F081 		pop	{r4, r5, r6, r7, r8, pc}
 5401              	.LVL434:
 5402              	.L360:
ARM GAS  C:\Users\VINCIU~1\AppData\Local\Temp\ccUTXsQS.s 			page 158


 5403              		.cfi_restore_state
 259:../../libdaisy/src/hid/midi.h ****                     // At this point the message is valid, and we can add this MidiEvent to the que
 5404              		.loc 14 259 54 view .LVU1358
 5405 0148 94F89A34 		ldrb	r3, [r4, #1178]	@ zero_extendqisi2
 5406 014c 6E46     		mov	r6, sp
 5407 014e 7422     		movs	r2, #116
 5408 0150 1940     		ands	r1, r1, r3
 5409              	.LVL435:
 259:../../libdaisy/src/hid/midi.h ****                     // At this point the message is valid, and we can add this MidiEvent to the que
 5410              		.loc 14 259 47 view .LVU1359
 5411 0152 4174     		strb	r1, [r0, #17]
 5412              	.LVL436:
 259:../../libdaisy/src/hid/midi.h ****                     // At this point the message is valid, and we can add this MidiEvent to the que
 5413              		.loc 14 259 47 view .LVU1360
 5414 0154 00F10801 		add	r1, r0, #8
 5415 0158 3046     		mov	r0, r6
 5416              	.LVL437:
 259:../../libdaisy/src/hid/midi.h ****                     // At this point the message is valid, and we can add this MidiEvent to the que
 5417              		.loc 14 259 47 view .LVU1361
 5418 015a FFF7FEFF 		bl	memcpy
 5419              	.LVL438:
 5420              	.LBB1116:
 5421              	.LBI1116:
  44:../../libdaisy/src/util/ringbuffer.h ****     {
 5422              		.loc 19 44 17 is_stmt 1 view .LVU1362
 5423              	.L332:
 5424              	.LBB1117:
  46:../../libdaisy/src/util/ringbuffer.h ****             ;
 5425              		.loc 19 46 24 view .LVU1363
 5426              	.LBB1118:
 5427              	.LBI1118:
  30:../../libdaisy/src/util/ringbuffer.h ****     {
 5428              		.loc 19 30 19 view .LVU1364
 5429              	.LBB1119:
  32:../../libdaisy/src/util/ringbuffer.h ****     }
 5430              		.loc 19 32 17 is_stmt 0 view .LVU1365
 5431 015e D4F87C34 		ldr	r3, [r4, #1148]
  32:../../libdaisy/src/util/ringbuffer.h ****     }
 5432              		.loc 19 32 29 view .LVU1366
 5433 0162 D4F88024 		ldr	r2, [r4, #1152]
 5434              	.LVL439:
  32:../../libdaisy/src/util/ringbuffer.h ****     }
 5435              		.loc 19 32 40 view .LVU1367
 5436 0166 013B     		subs	r3, r3, #1
 5437 0168 9B1A     		subs	r3, r3, r2
  32:../../libdaisy/src/util/ringbuffer.h ****     }
 5438              		.loc 19 32 47 view .LVU1368
 5439 016a DBB2     		uxtb	r3, r3
 5440              	.LBE1119:
 5441              	.LBE1118:
  46:../../libdaisy/src/util/ringbuffer.h ****             ;
 5442              		.loc 19 46 24 view .LVU1369
 5443 016c 002B     		cmp	r3, #0
 5444 016e F6D0     		beq	.L332
 5445              	.LVL440:
  46:../../libdaisy/src/util/ringbuffer.h ****             ;
 5446              		.loc 19 46 24 view .LVU1370
ARM GAS  C:\Users\VINCIU~1\AppData\Local\Temp\ccUTXsQS.s 			page 159


 5447 0170 7422     		movs	r2, #116
 5448 0172 3146     		mov	r1, r6
 5449 0174 0DEB0200 		add	r0, sp, r2
 5450 0178 FFF7FEFF 		bl	memcpy
 5451              	.LVL441:
 5452              	.LBB1120:
 5453              	.LBI1120:
  54:../../libdaisy/src/util/ringbuffer.h ****     {
 5454              		.loc 19 54 17 is_stmt 1 view .LVU1371
 5455              	.LBB1121:
  56:../../libdaisy/src/util/ringbuffer.h ****         buffer_[w] = v;
 5456              		.loc 19 56 16 is_stmt 0 view .LVU1372
 5457 017c D4F88064 		ldr	r6, [r4, #1152]
 5458              	.LVL442:
  57:../../libdaisy/src/util/ringbuffer.h ****         write_ptr_ = (w + 1) % size;
 5459              		.loc 19 57 9 view .LVU1373
 5460 0180 7422     		movs	r2, #116
 5461 0182 1DA9     		add	r1, sp, #116
 5462 0184 02FB0650 		mla	r0, r2, r6, r5
 5463              		.loc 19 58 25 view .LVU1374
 5464 0188 0136     		adds	r6, r6, #1
 5465              	.LVL443:
 5466              		.loc 19 58 30 view .LVU1375
 5467 018a F6B2     		uxtb	r6, r6
 5468              	.LVL444:
  57:../../libdaisy/src/util/ringbuffer.h ****         write_ptr_ = (w + 1) % size;
 5469              		.loc 19 57 9 view .LVU1376
 5470 018c 7C30     		adds	r0, r0, #124
 5471 018e FFF7FEFF 		bl	memcpy
 5472              	.LVL445:
 5473              		.loc 19 58 20 view .LVU1377
 5474 0192 C4F88064 		str	r6, [r4, #1152]
 5475              	.LVL446:
 5476              		.loc 19 58 20 view .LVU1378
 5477              	.LBE1121:
 5478              	.LBE1120:
 5479              	.LBE1117:
 5480              	.LBE1116:
 5481 0196 45E7     		b	.L327
 5482              	.LVL447:
 5483              	.L333:
 272:../../libdaisy/src/hid/midi.h ****                     event_q_.Write(incoming_message_);
 5484              		.loc 14 272 29 view .LVU1379
 5485 0198 0023     		movs	r3, #0
 5486 019a 6E46     		mov	r6, sp
 5487 019c 7422     		movs	r2, #116
 5488 019e 05F10801 		add	r1, r5, #8
 5489              	.LVL448:
 272:../../libdaisy/src/hid/midi.h ****                     event_q_.Write(incoming_message_);
 5490              		.loc 14 272 29 view .LVU1380
 5491 01a2 3046     		mov	r0, r6
 5492              	.LVL449:
 272:../../libdaisy/src/hid/midi.h ****                     event_q_.Write(incoming_message_);
 5493              		.loc 14 272 29 view .LVU1381
 5494 01a4 2B71     		strb	r3, [r5, #4]
 5495              	.LVL450:
 272:../../libdaisy/src/hid/midi.h ****                     event_q_.Write(incoming_message_);
ARM GAS  C:\Users\VINCIU~1\AppData\Local\Temp\ccUTXsQS.s 			page 160


 5496              		.loc 14 272 29 view .LVU1382
 5497 01a6 05F5E044 		add	r4, r5, #28672
 5498 01aa FFF7FEFF 		bl	memcpy
 5499              	.LVL451:
 5500              	.LBB1122:
 5501              	.LBI1122:
  44:../../libdaisy/src/util/ringbuffer.h ****     {
 5502              		.loc 19 44 17 is_stmt 1 view .LVU1383
 5503              	.L335:
 5504              	.LBB1123:
  46:../../libdaisy/src/util/ringbuffer.h ****             ;
 5505              		.loc 19 46 24 view .LVU1384
 5506              	.LBB1124:
 5507              	.LBI1124:
  30:../../libdaisy/src/util/ringbuffer.h ****     {
 5508              		.loc 19 30 19 view .LVU1385
 5509              	.LBB1125:
  32:../../libdaisy/src/util/ringbuffer.h ****     }
 5510              		.loc 19 32 17 is_stmt 0 view .LVU1386
 5511 01ae D4F87C34 		ldr	r3, [r4, #1148]
  32:../../libdaisy/src/util/ringbuffer.h ****     }
 5512              		.loc 19 32 29 view .LVU1387
 5513 01b2 D4F88024 		ldr	r2, [r4, #1152]
 5514              	.LVL452:
  32:../../libdaisy/src/util/ringbuffer.h ****     }
 5515              		.loc 19 32 40 view .LVU1388
 5516 01b6 013B     		subs	r3, r3, #1
 5517 01b8 9B1A     		subs	r3, r3, r2
  32:../../libdaisy/src/util/ringbuffer.h ****     }
 5518              		.loc 19 32 47 view .LVU1389
 5519 01ba DBB2     		uxtb	r3, r3
 5520              	.LBE1125:
 5521              	.LBE1124:
  46:../../libdaisy/src/util/ringbuffer.h ****             ;
 5522              		.loc 19 46 24 view .LVU1390
 5523 01bc 002B     		cmp	r3, #0
 5524 01be F6D0     		beq	.L335
 5525              	.LVL453:
  46:../../libdaisy/src/util/ringbuffer.h ****             ;
 5526              		.loc 19 46 24 view .LVU1391
 5527 01c0 7422     		movs	r2, #116
 5528 01c2 3146     		mov	r1, r6
 5529 01c4 0DEB0200 		add	r0, sp, r2
 5530 01c8 FFF7FEFF 		bl	memcpy
 5531              	.LVL454:
 5532              	.LBB1126:
 5533              	.LBI1126:
  54:../../libdaisy/src/util/ringbuffer.h ****     {
 5534              		.loc 19 54 17 is_stmt 1 view .LVU1392
 5535              	.LBB1127:
  56:../../libdaisy/src/util/ringbuffer.h ****         buffer_[w] = v;
 5536              		.loc 19 56 16 is_stmt 0 view .LVU1393
 5537 01cc D4F88064 		ldr	r6, [r4, #1152]
 5538              	.LVL455:
  57:../../libdaisy/src/util/ringbuffer.h ****         write_ptr_ = (w + 1) % size;
 5539              		.loc 19 57 9 view .LVU1394
 5540 01d0 7422     		movs	r2, #116
ARM GAS  C:\Users\VINCIU~1\AppData\Local\Temp\ccUTXsQS.s 			page 161


 5541 01d2 1DA9     		add	r1, sp, #116
 5542 01d4 02FB0650 		mla	r0, r2, r6, r5
 5543              		.loc 19 58 25 view .LVU1395
 5544 01d8 0136     		adds	r6, r6, #1
 5545              	.LVL456:
 5546              		.loc 19 58 30 view .LVU1396
 5547 01da F6B2     		uxtb	r6, r6
 5548              	.LVL457:
  57:../../libdaisy/src/util/ringbuffer.h ****         write_ptr_ = (w + 1) % size;
 5549              		.loc 19 57 9 view .LVU1397
 5550 01dc 7C30     		adds	r0, r0, #124
 5551 01de FFF7FEFF 		bl	memcpy
 5552              	.LVL458:
 5553              		.loc 19 58 20 view .LVU1398
 5554 01e2 C4F88064 		str	r6, [r4, #1152]
 5555              	.LVL459:
 5556              		.loc 19 58 20 view .LVU1399
 5557              	.LBE1127:
 5558              	.LBE1126:
 5559              	.LBE1123:
 5560              	.LBE1122:
 5561              		.loc 14 285 5 view .LVU1400
 5562 01e6 3AB0     		add	sp, sp, #232
 5563              		.cfi_remember_state
 5564              		.cfi_def_cfa_offset 24
 5565              		@ sp needed
 5566 01e8 BDE8F081 		pop	{r4, r5, r6, r7, r8, pc}
 5567              	.LVL460:
 5568              	.L329:
 5569              		.cfi_restore_state
 236:../../libdaisy/src/hid/midi.h ****                     }
 5570              		.loc 14 236 33 view .LVU1401
 5571 01ec 0223     		movs	r3, #2
 5572 01ee 0371     		strb	r3, [r0, #4]
 5573 01f0 68E7     		b	.L331
 5574              	.LVL461:
 5575              	.L325:
 203:../../libdaisy/src/hid/midi.h ****                                 {
 5576              		.loc 14 203 38 view .LVU1402
 5577 01f2 4B07     		lsls	r3, r1, #29
 5578 01f4 7FF518AF 		bpl	.L313
 5579 01f8 6E46     		mov	r6, sp
 205:../../libdaisy/src/hid/midi.h ****                                     event_q_.Write(incoming_message_);
 5580              		.loc 14 205 45 view .LVU1403
 5581 01fa 2871     		strb	r0, [r5, #4]
 5582              	.LVL462:
 205:../../libdaisy/src/hid/midi.h ****                                     event_q_.Write(incoming_message_);
 5583              		.loc 14 205 45 view .LVU1404
 5584 01fc 7422     		movs	r2, #116
 5585 01fe 05F10801 		add	r1, r5, #8
 5586              	.LVL463:
 205:../../libdaisy/src/hid/midi.h ****                                     event_q_.Write(incoming_message_);
 5587              		.loc 14 205 45 view .LVU1405
 5588 0202 3046     		mov	r0, r6
 5589 0204 FFF7FEFF 		bl	memcpy
 5590              	.LVL464:
 5591              	.LBB1128:
ARM GAS  C:\Users\VINCIU~1\AppData\Local\Temp\ccUTXsQS.s 			page 162


 5592              	.LBI1128:
  44:../../libdaisy/src/util/ringbuffer.h ****     {
 5593              		.loc 19 44 17 is_stmt 1 view .LVU1406
 5594              	.L326:
 5595              	.LBB1129:
  46:../../libdaisy/src/util/ringbuffer.h ****             ;
 5596              		.loc 19 46 24 view .LVU1407
 5597              	.LBB1130:
 5598              	.LBI1130:
  30:../../libdaisy/src/util/ringbuffer.h ****     {
 5599              		.loc 19 30 19 view .LVU1408
 5600              	.LBB1131:
  32:../../libdaisy/src/util/ringbuffer.h ****     }
 5601              		.loc 19 32 17 is_stmt 0 view .LVU1409
 5602 0208 D4F87C34 		ldr	r3, [r4, #1148]
  32:../../libdaisy/src/util/ringbuffer.h ****     }
 5603              		.loc 19 32 29 view .LVU1410
 5604 020c D4F88024 		ldr	r2, [r4, #1152]
 5605              	.LVL465:
  32:../../libdaisy/src/util/ringbuffer.h ****     }
 5606              		.loc 19 32 40 view .LVU1411
 5607 0210 013B     		subs	r3, r3, #1
 5608 0212 9B1A     		subs	r3, r3, r2
  32:../../libdaisy/src/util/ringbuffer.h ****     }
 5609              		.loc 19 32 47 view .LVU1412
 5610 0214 DBB2     		uxtb	r3, r3
 5611              	.LBE1131:
 5612              	.LBE1130:
  46:../../libdaisy/src/util/ringbuffer.h ****             ;
 5613              		.loc 19 46 24 view .LVU1413
 5614 0216 002B     		cmp	r3, #0
 5615 0218 F6D0     		beq	.L326
 5616              	.LVL466:
 5617              	.L359:
  46:../../libdaisy/src/util/ringbuffer.h ****             ;
 5618              		.loc 19 46 24 view .LVU1414
 5619 021a 7422     		movs	r2, #116
 5620 021c 3146     		mov	r1, r6
 5621 021e 0DEB0200 		add	r0, sp, r2
 5622 0222 FFF7FEFF 		bl	memcpy
 5623              	.LVL467:
 5624              	.LBB1132:
 5625              	.LBI1132:
  54:../../libdaisy/src/util/ringbuffer.h ****     {
 5626              		.loc 19 54 17 is_stmt 1 view .LVU1415
 5627              	.LBB1133:
  56:../../libdaisy/src/util/ringbuffer.h ****         buffer_[w] = v;
 5628              		.loc 19 56 16 is_stmt 0 view .LVU1416
 5629 0226 D4F88064 		ldr	r6, [r4, #1152]
 5630              	.LVL468:
  57:../../libdaisy/src/util/ringbuffer.h ****         write_ptr_ = (w + 1) % size;
 5631              		.loc 19 57 9 view .LVU1417
 5632 022a 7422     		movs	r2, #116
 5633 022c 1DA9     		add	r1, sp, #116
 5634 022e 02FB0650 		mla	r0, r2, r6, r5
 5635 0232 7C30     		adds	r0, r0, #124
 5636 0234 FFF7FEFF 		bl	memcpy
ARM GAS  C:\Users\VINCIU~1\AppData\Local\Temp\ccUTXsQS.s 			page 163


 5637              	.LVL469:
 5638              		.loc 19 58 25 view .LVU1418
 5639 0238 731C     		adds	r3, r6, #1
 5640              		.loc 19 58 30 view .LVU1419
 5641 023a DBB2     		uxtb	r3, r3
 5642              		.loc 19 58 20 view .LVU1420
 5643 023c C4F88034 		str	r3, [r4, #1152]
 5644              	.LVL470:
 5645              		.loc 19 58 20 view .LVU1421
 5646              	.LBE1133:
 5647              	.LBE1132:
 5648              	.LBE1129:
 5649              	.LBE1128:
 5650 0240 F2E6     		b	.L313
 5651              	.LVL471:
 5652              	.L361:
 180:../../libdaisy/src/hid/midi.h ****                                 running_status_        = SystemRealTime;
 5653              		.loc 14 180 56 view .LVU1422
 5654 0242 0822     		movs	r2, #8
 5655 0244 6E46     		mov	r6, sp
 5656 0246 2A72     		strb	r2, [r5, #8]
 5657 0248 3046     		mov	r0, r6
 181:../../libdaisy/src/hid/midi.h ****                                 incoming_message_.srt_type
 5658              		.loc 14 181 56 view .LVU1423
 5659 024a 84F88824 		strb	r2, [r4, #1160]
 184:../../libdaisy/src/hid/midi.h **** 
 5660              		.loc 14 184 46 view .LVU1424
 5661 024e 94F89E24 		ldrb	r2, [r4, #1182]	@ zero_extendqisi2
 187:../../libdaisy/src/hid/midi.h ****                                 event_q_.Write(incoming_message_);
 5662              		.loc 14 187 41 view .LVU1425
 5663 0252 2B71     		strb	r3, [r5, #4]
 5664              	.LVL472:
 184:../../libdaisy/src/hid/midi.h **** 
 5665              		.loc 14 184 46 view .LVU1426
 5666 0254 1140     		ands	r1, r1, r2
 5667              	.LVL473:
 184:../../libdaisy/src/hid/midi.h **** 
 5668              		.loc 14 184 46 view .LVU1427
 5669 0256 7422     		movs	r2, #116
 183:../../libdaisy/src/hid/midi.h ****                                         byte & kSystemRealTimeMask);
 5670              		.loc 14 183 37 view .LVU1428
 5671 0258 85F87810 		strb	r1, [r5, #120]
 5672 025c 05F10801 		add	r1, r5, #8
 5673 0260 FFF7FEFF 		bl	memcpy
 5674              	.LVL474:
 5675              	.LBB1134:
 5676              	.LBI1134:
  44:../../libdaisy/src/util/ringbuffer.h ****     {
 5677              		.loc 19 44 17 is_stmt 1 view .LVU1429
 5678              	.L324:
 5679              	.LBB1135:
  46:../../libdaisy/src/util/ringbuffer.h ****             ;
 5680              		.loc 19 46 24 view .LVU1430
 5681              	.LBB1136:
 5682              	.LBI1136:
  30:../../libdaisy/src/util/ringbuffer.h ****     {
 5683              		.loc 19 30 19 view .LVU1431
ARM GAS  C:\Users\VINCIU~1\AppData\Local\Temp\ccUTXsQS.s 			page 164


 5684              	.LBB1137:
  32:../../libdaisy/src/util/ringbuffer.h ****     }
 5685              		.loc 19 32 17 is_stmt 0 view .LVU1432
 5686 0264 D4F87C34 		ldr	r3, [r4, #1148]
  32:../../libdaisy/src/util/ringbuffer.h ****     }
 5687              		.loc 19 32 29 view .LVU1433
 5688 0268 D4F88024 		ldr	r2, [r4, #1152]
 5689              	.LVL475:
  32:../../libdaisy/src/util/ringbuffer.h ****     }
 5690              		.loc 19 32 40 view .LVU1434
 5691 026c 013B     		subs	r3, r3, #1
 5692 026e 9B1A     		subs	r3, r3, r2
  32:../../libdaisy/src/util/ringbuffer.h ****     }
 5693              		.loc 19 32 47 view .LVU1435
 5694 0270 DBB2     		uxtb	r3, r3
 5695              	.LBE1137:
 5696              	.LBE1136:
  46:../../libdaisy/src/util/ringbuffer.h ****             ;
 5697              		.loc 19 46 24 view .LVU1436
 5698 0272 002B     		cmp	r3, #0
 5699 0274 F6D0     		beq	.L324
 5700 0276 D0E7     		b	.L359
 5701              	.LBE1135:
 5702              	.LBE1134:
 5703              		.cfi_endproc
 5704              	.LFE4489:
 5706              		.section	.rodata.main.str1.4,"aMS",%progbits,1
 5707              		.align	2
 5708              	.LC5:
 5709 0000 53656D69 		.ascii	"Semi_%dst\000"
 5709      5F256473 
 5709      7400
 5710 000a 0000     		.align	2
 5711              	.LC6:
 5712 000c 46696E65 		.ascii	"Fine_%d%%\000"
 5712      5F256425 
 5712      2500
 5713              		.section	.text.startup.main,"ax",%progbits
 5714              		.align	1
 5715              		.p2align 2,,3
 5716              		.global	main
 5717              		.syntax unified
 5718              		.thumb
 5719              		.thumb_func
 5720              		.fpu fpv5-d16
 5722              	main:
 5723              	.LFB4042:
 128:SynthMenis.cpp **** 
 129:SynthMenis.cpp **** int main(void)
 130:SynthMenis.cpp **** {
 5724              		.loc 12 130 1 is_stmt 1 view -0
 5725              		.cfi_startproc
 5726              		@ args = 0, pretend = 0, frame = 1280
 5727              		@ frame_needed = 0, uses_anonymous_args = 0
 131:SynthMenis.cpp ****     hw.Configure();
 5728              		.loc 12 131 5 view .LVU1438
 130:SynthMenis.cpp ****     hw.Configure();
ARM GAS  C:\Users\VINCIU~1\AppData\Local\Temp\ccUTXsQS.s 			page 165


 5729              		.loc 12 130 1 is_stmt 0 view .LVU1439
 5730 0000 2DE9F04F 		push	{r4, r5, r6, r7, r8, r9, r10, fp, lr}
 5731              		.cfi_def_cfa_offset 36
 5732              		.cfi_offset 4, -36
 5733              		.cfi_offset 5, -32
 5734              		.cfi_offset 6, -28
 5735              		.cfi_offset 7, -24
 5736              		.cfi_offset 8, -20
 5737              		.cfi_offset 9, -16
 5738              		.cfi_offset 10, -12
 5739              		.cfi_offset 11, -8
 5740              		.cfi_offset 14, -4
 5741              		.loc 12 131 17 view .LVU1440
 5742 0004 B648     		ldr	r0, .L398
 132:SynthMenis.cpp ****     hw.Init();
 133:SynthMenis.cpp ****     sprintf(synthmenu.buff, "Semi_%dst", synthmenu.noteSemiAdd);
 5743              		.loc 12 133 12 view .LVU1441
 5744 0006 B74E     		ldr	r6, .L398+4
 5745 0008 B74C     		ldr	r4, .L398+8
 130:SynthMenis.cpp ****     hw.Configure();
 5746              		.loc 12 130 1 view .LVU1442
 5747 000a 2DED048B 		vpush.64	{d8, d9}
 5748              		.cfi_def_cfa_offset 52
 5749              		.cfi_offset 80, -52
 5750              		.cfi_offset 81, -48
 5751              		.cfi_offset 82, -44
 5752              		.cfi_offset 83, -40
 5753 000e ADF26C5D 		subw	sp, sp, #1388
 5754              		.cfi_def_cfa_offset 1440
 134:SynthMenis.cpp ****     sprintf(synthmenu.buff2, "Semi_%dst", synthmenu.noteSemiAdd2);
 135:SynthMenis.cpp ****     sprintf(synthmenu.buffFine, "Fine_%d%%", (int)(synthmenu.freqFine * 100));
 5755              		.loc 12 135 71 view .LVU1443
 5756 0012 9FEDB68A 		vldr.32	s16, .L398+12
 131:SynthMenis.cpp ****     hw.Init();
 5757              		.loc 12 131 17 view .LVU1444
 5758 0016 FFF7FEFF 		bl	_ZN5daisy9DaisySeed9ConfigureEv
 5759              	.LVL476:
 132:SynthMenis.cpp ****     hw.Init();
 5760              		.loc 12 132 5 is_stmt 1 view .LVU1445
 132:SynthMenis.cpp ****     hw.Init();
 5761              		.loc 12 132 12 is_stmt 0 view .LVU1446
 5762 001a 0021     		movs	r1, #0
 5763 001c B048     		ldr	r0, .L398
 5764 001e 04F5487B 		add	fp, r4, #800
 5765 0022 FFF7FEFF 		bl	_ZN5daisy9DaisySeed4InitEb
 5766              	.LVL477:
 133:SynthMenis.cpp ****     sprintf(synthmenu.buff2, "Semi_%dst", synthmenu.noteSemiAdd2);
 5767              		.loc 12 133 5 is_stmt 1 view .LVU1447
 133:SynthMenis.cpp ****     sprintf(synthmenu.buff2, "Semi_%dst", synthmenu.noteSemiAdd2);
 5768              		.loc 12 133 12 is_stmt 0 view .LVU1448
 5769 0026 D6F86421 		ldr	r2, [r6, #356]
 5770 002a B149     		ldr	r1, .L398+16
 5771 002c 06F1A400 		add	r0, r6, #164
 5772 0030 FFF7FEFF 		bl	sprintf
 5773              	.LVL478:
 134:SynthMenis.cpp ****     sprintf(synthmenu.buff2, "Semi_%dst", synthmenu.noteSemiAdd2);
 5774              		.loc 12 134 5 is_stmt 1 view .LVU1449
ARM GAS  C:\Users\VINCIU~1\AppData\Local\Temp\ccUTXsQS.s 			page 166


 134:SynthMenis.cpp ****     sprintf(synthmenu.buff2, "Semi_%dst", synthmenu.noteSemiAdd2);
 5775              		.loc 12 134 12 is_stmt 0 view .LVU1450
 5776 0034 D6F86821 		ldr	r2, [r6, #360]
 5777 0038 AD49     		ldr	r1, .L398+16
 5778 003a 06F1BC00 		add	r0, r6, #188
 5779 003e FFF7FEFF 		bl	sprintf
 5780              	.LVL479:
 5781              		.loc 12 135 5 is_stmt 1 view .LVU1451
 5782              		.loc 12 135 71 is_stmt 0 view .LVU1452
 5783 0042 D6ED5D7A 		vldr.32	s15, [r6, #372]
 5784              		.loc 12 135 12 view .LVU1453
 5785 0046 AB49     		ldr	r1, .L398+20
 5786 0048 06F1D400 		add	r0, r6, #212
 5787              		.loc 12 135 71 view .LVU1454
 5788 004c 67EE887A 		vmul.f32	s15, s15, s16
 5789              		.loc 12 135 12 view .LVU1455
 5790 0050 FDEEE77A 		vcvt.s32.f32	s15, s15
 5791 0054 17EE902A 		vmov	r2, s15	@ int
 5792 0058 FFF7FEFF 		bl	sprintf
 5793              	.LVL480:
 136:SynthMenis.cpp ****     sprintf(synthmenu.buffFine2, "Fine_%d%%", (int)(synthmenu.freqFine2 * 100));
 5794              		.loc 12 136 5 is_stmt 1 view .LVU1456
 5795              		.loc 12 136 73 is_stmt 0 view .LVU1457
 5796 005c D6ED5E7A 		vldr.32	s15, [r6, #376]
 5797              		.loc 12 136 12 view .LVU1458
 5798 0060 A449     		ldr	r1, .L398+20
 5799 0062 06F1EC00 		add	r0, r6, #236
 5800              		.loc 12 136 73 view .LVU1459
 5801 0066 67EE887A 		vmul.f32	s15, s15, s16
 5802              		.loc 12 136 12 view .LVU1460
 5803 006a FDEEE77A 		vcvt.s32.f32	s15, s15
 5804 006e 17EE902A 		vmov	r2, s15	@ int
 5805 0072 FFF7FEFF 		bl	sprintf
 5806              	.LVL481:
 137:SynthMenis.cpp ****     hw.usb_handle.Init(UsbHandle::FS_INTERNAL);
 5807              		.loc 12 137 5 is_stmt 1 view .LVU1461
 5808              		.loc 12 137 23 is_stmt 0 view .LVU1462
 5809 0076 0021     		movs	r1, #0
 5810 0078 9F48     		ldr	r0, .L398+24
 5811 007a FFF7FEFF 		bl	_ZN5daisy9UsbHandle4InitENS0_9UsbPeriphE
 5812              	.LVL482:
 138:SynthMenis.cpp ****     System::Delay(250);
 5813              		.loc 12 138 5 is_stmt 1 view .LVU1463
 5814              		.loc 12 138 18 is_stmt 0 view .LVU1464
 5815 007e FA20     		movs	r0, #250
 5816 0080 FFF7FEFF 		bl	_ZN5daisy6System5DelayEm
 5817              	.LVL483:
 139:SynthMenis.cpp ****     //AdcChannelConfig adc_config[2];
 140:SynthMenis.cpp ****     //adc_config[0].InitSingle(hw.GetPin(24));
 141:SynthMenis.cpp ****     //adc_config[1].InitSingle(hw.GetPin(25));
 142:SynthMenis.cpp ****     //hw.adc.Init(adc_config, 2);
 143:SynthMenis.cpp ****     //hw.adc.Start();
 144:SynthMenis.cpp ****     float                           samplerate = hw.AudioSampleRate();
 5818              		.loc 12 144 5 is_stmt 1 view .LVU1465
 5819              		.loc 12 144 68 is_stmt 0 view .LVU1466
 5820 0084 9648     		ldr	r0, .L398
 5821 0086 FFF7FEFF 		bl	_ZN5daisy9DaisySeed15AudioSampleRateEv
ARM GAS  C:\Users\VINCIU~1\AppData\Local\Temp\ccUTXsQS.s 			page 167


 5822              	.LVL484:
 145:SynthMenis.cpp ****     OledDisplayExtravaganza::Config disp_cfg;
 146:SynthMenis.cpp ****     disp_cfg.driver_config.transport_config.pin_config.dc    = hw.GetPin(9);
 5823              		.loc 12 146 75 view .LVU1467
 5824 008a 0920     		movs	r0, #9
 144:SynthMenis.cpp ****     OledDisplayExtravaganza::Config disp_cfg;
 5825              		.loc 12 144 68 view .LVU1468
 5826 008c B0EE408A 		vmov.f32	s16, s0
 5827              	.LVL485:
 145:SynthMenis.cpp ****     OledDisplayExtravaganza::Config disp_cfg;
 5828              		.loc 12 145 5 is_stmt 1 view .LVU1469
 5829              		.loc 12 146 5 view .LVU1470
 5830              		.loc 12 146 75 is_stmt 0 view .LVU1471
 5831 0090 FFF7FEFF 		bl	_ZN5daisy9DaisySeed6GetPinEh
 5832              	.LVL486:
 5833              		.loc 12 146 75 view .LVU1472
 5834 0094 ADF88C00 		strh	r0, [sp, #140]	@ movhi
 147:SynthMenis.cpp ****     disp_cfg.driver_config.transport_config.pin_config.reset = hw.GetPin(30);
 5835              		.loc 12 147 5 is_stmt 1 view .LVU1473
 5836              		.loc 12 147 76 is_stmt 0 view .LVU1474
 5837 0098 1E20     		movs	r0, #30
 5838 009a FFF7FEFF 		bl	_ZN5daisy9DaisySeed6GetPinEh
 5839              	.LVL487:
 5840 009e ADF88E00 		strh	r0, [sp, #142]	@ movhi
 148:SynthMenis.cpp ****     screen.Init(disp_cfg);
 5841              		.loc 12 148 5 is_stmt 1 view .LVU1475
 5842              	.LVL488:
 5843              		.loc 12 148 5 is_stmt 0 view .LVU1476
 5844 00a2 2399     		ldr	r1, [sp, #140]
 5845              	.LBB1257:
 5846              	.LBB1258:
  24:../../libdaisy/src/hid/disp/oled_display.h **** 
 5847              		.loc 6 24 44 view .LVU1477
 5848 00a4 9548     		ldr	r0, .L398+28
 5849 00a6 5591     		str	r1, [sp, #340]
 5850              	.LBE1258:
 5851              	.LBI1257:
  24:../../libdaisy/src/hid/disp/oled_display.h **** 
 5852              		.loc 6 24 10 is_stmt 1 view .LVU1478
 5853              	.LBB1259:
  24:../../libdaisy/src/hid/disp/oled_display.h **** 
 5854              		.loc 6 24 44 is_stmt 0 view .LVU1479
 5855 00a8 FFF7FEFF 		bl	_ZN5daisy13SSD130xDriverILj128ELj64ENS_24SSD130x4WireSpiTransportEE4InitENS2_6ConfigE
 5856              	.LVL489:
  24:../../libdaisy/src/hid/disp/oled_display.h **** 
 5857              		.loc 6 24 44 view .LVU1480
 5858              	.LBE1259:
 5859              	.LBE1257:
 149:SynthMenis.cpp ****     synthmenu.buttonLeft.Init(hw.GetPin(27), (samplerate));
 5860              		.loc 12 149 5 is_stmt 1 view .LVU1481
 5861              		.loc 12 149 30 is_stmt 0 view .LVU1482
 5862 00ac 1B20     		movs	r0, #27
 5863 00ae FFF7FEFF 		bl	_ZN5daisy9DaisySeed6GetPinEh
 5864              	.LVL490:
 5865 00b2 ADF86C00 		strh	r0, [sp, #108]	@ movhi
 5866 00b6 B0EE480A 		vmov.f32	s0, s16
 5867 00ba 1B99     		ldr	r1, [sp, #108]
ARM GAS  C:\Users\VINCIU~1\AppData\Local\Temp\ccUTXsQS.s 			page 168


 5868 00bc 06F14C00 		add	r0, r6, #76
 5869 00c0 FFF7FEFF 		bl	_ZN5daisy6Switch4InitE12dsy_gpio_pinf
 5870              	.LVL491:
 150:SynthMenis.cpp ****     synthmenu.buttonRight.Init(hw.GetPin(26), (samplerate));
 5871              		.loc 12 150 5 is_stmt 1 view .LVU1483
 5872              		.loc 12 150 31 is_stmt 0 view .LVU1484
 5873 00c4 1A20     		movs	r0, #26
 5874 00c6 FFF7FEFF 		bl	_ZN5daisy9DaisySeed6GetPinEh
 5875              	.LVL492:
 5876 00ca ADF87000 		strh	r0, [sp, #112]	@ movhi
 5877 00ce B0EE480A 		vmov.f32	s0, s16
 5878 00d2 1C99     		ldr	r1, [sp, #112]
 5879 00d4 06F15C00 		add	r0, r6, #92
 5880 00d8 FFF7FEFF 		bl	_ZN5daisy6Switch4InitE12dsy_gpio_pinf
 5881              	.LVL493:
 151:SynthMenis.cpp ****     synthmenu.encoderLeft.Init(
 5882              		.loc 12 151 5 is_stmt 1 view .LVU1485
 5883              		.loc 12 151 31 is_stmt 0 view .LVU1486
 5884 00dc 1020     		movs	r0, #16
 5885 00de FFF7FEFF 		bl	_ZN5daisy9DaisySeed6GetPinEh
 5886              	.LVL494:
 5887 00e2 ADF87400 		strh	r0, [sp, #116]	@ movhi
 5888 00e6 1120     		movs	r0, #17
 5889 00e8 FFF7FEFF 		bl	_ZN5daisy9DaisySeed6GetPinEh
 5890              	.LVL495:
 5891 00ec ADF87800 		strh	r0, [sp, #120]	@ movhi
 5892 00f0 0F20     		movs	r0, #15
 5893 00f2 FFF7FEFF 		bl	_ZN5daisy9DaisySeed6GetPinEh
 5894              	.LVL496:
 5895 00f6 ADF87C00 		strh	r0, [sp, #124]	@ movhi
 5896 00fa B0EE480A 		vmov.f32	s0, s16
 5897 00fe 1F9B     		ldr	r3, [sp, #124]
 5898 0100 06F10C00 		add	r0, r6, #12
 5899 0104 DDE91D12 		ldrd	r1, r2, [sp, #116]
 5900 0108 FFF7FEFF 		bl	_ZN5daisy7Encoder4InitE12dsy_gpio_pinS1_S1_f
 5901              	.LVL497:
 152:SynthMenis.cpp ****         hw.GetPin(16), hw.GetPin(17), hw.GetPin(15), samplerate);
 153:SynthMenis.cpp ****     synthmenu.encoderRight.Init(
 5902              		.loc 12 153 5 is_stmt 1 view .LVU1487
 5903              		.loc 12 153 32 is_stmt 0 view .LVU1488
 5904 010c 1320     		movs	r0, #19
 5905 010e FFF7FEFF 		bl	_ZN5daisy9DaisySeed6GetPinEh
 5906              	.LVL498:
 5907 0112 ADF88000 		strh	r0, [sp, #128]	@ movhi
 5908 0116 1420     		movs	r0, #20
 5909 0118 FFF7FEFF 		bl	_ZN5daisy9DaisySeed6GetPinEh
 5910              	.LVL499:
 5911 011c ADF88400 		strh	r0, [sp, #132]	@ movhi
 5912 0120 1220     		movs	r0, #18
 5913 0122 FFF7FEFF 		bl	_ZN5daisy9DaisySeed6GetPinEh
 5914              	.LVL500:
 5915 0126 ADF88800 		strh	r0, [sp, #136]	@ movhi
 5916 012a B0EE480A 		vmov.f32	s0, s16
 5917 012e 229B     		ldr	r3, [sp, #136]
 5918 0130 06F12C00 		add	r0, r6, #44
 5919 0134 DDE92012 		ldrd	r1, r2, [sp, #128]
 5920 0138 FFF7FEFF 		bl	_ZN5daisy7Encoder4InitE12dsy_gpio_pinS1_S1_f
ARM GAS  C:\Users\VINCIU~1\AppData\Local\Temp\ccUTXsQS.s 			page 169


 5921              	.LVL501:
 154:SynthMenis.cpp ****         hw.GetPin(19), hw.GetPin(20), hw.GetPin(18), samplerate);
 155:SynthMenis.cpp ****     hw.StartAudio(AudioCallback);
 5922              		.loc 12 155 5 is_stmt 1 view .LVU1489
 5923              		.loc 12 155 18 is_stmt 0 view .LVU1490
 5924 013c 7049     		ldr	r1, .L398+32
 5925 013e 6848     		ldr	r0, .L398
 5926 0140 FFF7FEFF 		bl	_ZN5daisy9DaisySeed10StartAudioEPFvPKfPfjE
 5927              	.LVL502:
 156:SynthMenis.cpp **** 
 157:SynthMenis.cpp ****     for(size_t i = 0; i < poly; i++)
 5928              		.loc 12 157 5 is_stmt 1 view .LVU1491
 5929              	.LBB1260:
 5930              		.loc 12 157 25 view .LVU1492
 5931              	.LBB1261:
 5932              	.LBB1262:
  45:../../DaisySP/Source/Synthesis/oscillator.h ****         freq_      = 100.0f;
 5933              		.loc 15 45 27 is_stmt 0 view .LVU1493
 5934 0144 F7EE007A 		vmov.f32	s15, #1.0e+0
 5935 0148 C7EE889A 		vdiv.f32	s19, s15, s16
 5936              	.LVL503:
 5937              	.L363:
  45:../../DaisySP/Source/Synthesis/oscillator.h ****         freq_      = 100.0f;
 5938              		.loc 15 45 27 view .LVU1494
 5939              	.LBE1262:
 5940              	.LBE1261:
 158:SynthMenis.cpp ****     {
 159:SynthMenis.cpp ****         osc[i].osc1.Init(samplerate);
 5941              		.loc 12 159 9 is_stmt 1 discriminator 2 view .LVU1495
 5942              	.LBB1267:
 5943              	.LBI1261:
  42:../../DaisySP/Source/Synthesis/oscillator.h ****     {
 5944              		.loc 15 42 10 discriminator 2 view .LVU1496
 5945              	.LBB1263:
  44:../../DaisySP/Source/Synthesis/oscillator.h ****         sr_recip_  = 1.0f / sample_rate;
 5946              		.loc 15 44 9 discriminator 2 view .LVU1497
  47:../../DaisySP/Source/Synthesis/oscillator.h ****         phase_     = 0.0f;
 5947              		.loc 15 47 20 is_stmt 0 discriminator 2 view .LVU1498
 5948 014c 4FF07C55 		mov	r5, #1056964608
  46:../../DaisySP/Source/Synthesis/oscillator.h ****         amp_       = 0.5f;
 5949              		.loc 15 46 20 discriminator 2 view .LVU1499
 5950 0150 9FED669A 		vldr.32	s18, .L398+12
  48:../../DaisySP/Source/Synthesis/oscillator.h ****         phase_inc_ = CalcPhaseInc(freq_);
 5951              		.loc 15 48 20 discriminator 2 view .LVU1500
 5952 0154 4FF0000A 		mov	r10, #0
  49:../../DaisySP/Source/Synthesis/oscillator.h ****         waveform_  = WAVE_SIN;
 5953              		.loc 15 49 34 discriminator 2 view .LVU1501
 5954 0158 2046     		mov	r0, r4
  44:../../DaisySP/Source/Synthesis/oscillator.h ****         sr_recip_  = 1.0f / sample_rate;
 5955              		.loc 15 44 20 discriminator 2 view .LVU1502
 5956 015a 84ED038A 		vstr.32	s16, [r4, #12]
  45:../../DaisySP/Source/Synthesis/oscillator.h ****         freq_      = 100.0f;
 5957              		.loc 15 45 9 is_stmt 1 discriminator 2 view .LVU1503
  51:../../DaisySP/Source/Synthesis/oscillator.h ****         eor_       = true;
 5958              		.loc 15 51 20 is_stmt 0 discriminator 2 view .LVU1504
 5959 015e 0127     		movs	r7, #1
  45:../../DaisySP/Source/Synthesis/oscillator.h ****         freq_      = 100.0f;
ARM GAS  C:\Users\VINCIU~1\AppData\Local\Temp\ccUTXsQS.s 			page 170


 5960              		.loc 15 45 20 discriminator 2 view .LVU1505
 5961 0160 C4ED049A 		vstr.32	s19, [r4, #16]
  46:../../DaisySP/Source/Synthesis/oscillator.h ****         amp_       = 0.5f;
 5962              		.loc 15 46 9 is_stmt 1 discriminator 2 view .LVU1506
  50:../../DaisySP/Source/Synthesis/oscillator.h ****         eoc_       = true;
 5963              		.loc 15 50 20 is_stmt 0 discriminator 2 view .LVU1507
 5964 0164 4FF00008 		mov	r8, #0
  46:../../DaisySP/Source/Synthesis/oscillator.h ****         amp_       = 0.5f;
 5965              		.loc 15 46 20 discriminator 2 view .LVU1508
 5966 0168 84ED029A 		vstr.32	s18, [r4, #8]
  47:../../DaisySP/Source/Synthesis/oscillator.h ****         phase_     = 0.0f;
 5967              		.loc 15 47 9 is_stmt 1 discriminator 2 view .LVU1509
  49:../../DaisySP/Source/Synthesis/oscillator.h ****         waveform_  = WAVE_SIN;
 5968              		.loc 15 49 34 is_stmt 0 discriminator 2 view .LVU1510
 5969 016c B0EE490A 		vmov.f32	s0, s18
  47:../../DaisySP/Source/Synthesis/oscillator.h ****         phase_     = 0.0f;
 5970              		.loc 15 47 20 discriminator 2 view .LVU1511
 5971 0170 6560     		str	r5, [r4, #4]	@ float
  48:../../DaisySP/Source/Synthesis/oscillator.h ****         phase_inc_ = CalcPhaseInc(freq_);
 5972              		.loc 15 48 9 is_stmt 1 discriminator 2 view .LVU1512
 5973 0172 04F12809 		add	r9, r4, #40
  48:../../DaisySP/Source/Synthesis/oscillator.h ****         phase_inc_ = CalcPhaseInc(freq_);
 5974              		.loc 15 48 20 is_stmt 0 discriminator 2 view .LVU1513
 5975 0176 C4F814A0 		str	r10, [r4, #20]	@ float
  49:../../DaisySP/Source/Synthesis/oscillator.h ****         waveform_  = WAVE_SIN;
 5976              		.loc 15 49 9 is_stmt 1 discriminator 2 view .LVU1514
  49:../../DaisySP/Source/Synthesis/oscillator.h ****         waveform_  = WAVE_SIN;
 5977              		.loc 15 49 34 is_stmt 0 discriminator 2 view .LVU1515
 5978 017a FFF7FEFF 		bl	_ZN7daisysp10Oscillator12CalcPhaseIncEf
 5979              	.LVL504:
 5980 017e F0EE407A 		vmov.f32	s15, s0
 5981              	.LBE1263:
 5982              	.LBE1267:
 5983              	.LBB1268:
 5984              	.LBB1269:
  60:../../DaisySP/Source/Synthesis/oscillator.h ****         phase_inc_ = CalcPhaseInc(f);
 5985              		.loc 15 60 20 discriminator 2 view .LVU1516
 5986 0182 DFED608A 		vldr.32	s17, .L398+36
  61:../../DaisySP/Source/Synthesis/oscillator.h ****     }
 5987              		.loc 15 61 34 discriminator 2 view .LVU1517
 5988 0186 2046     		mov	r0, r4
 5989              	.LBE1269:
 5990              	.LBE1268:
 5991              	.LBB1273:
 5992              	.LBB1264:
  50:../../DaisySP/Source/Synthesis/oscillator.h ****         eoc_       = true;
 5993              		.loc 15 50 20 discriminator 2 view .LVU1518
 5994 0188 84F80080 		strb	r8, [r4]
 5995              	.LBE1264:
 5996              	.LBE1273:
 157:SynthMenis.cpp ****     {
 5997              		.loc 12 157 25 discriminator 2 view .LVU1519
 5998 018c 5034     		adds	r4, r4, #80
 5999              	.LVL505:
 6000              	.LBB1274:
 6001              	.LBB1265:
  49:../../DaisySP/Source/Synthesis/oscillator.h ****         waveform_  = WAVE_SIN;
ARM GAS  C:\Users\VINCIU~1\AppData\Local\Temp\ccUTXsQS.s 			page 171


 6002              		.loc 15 49 20 discriminator 2 view .LVU1520
 6003 018e 44ED0E7A 		vstr.32	s15, [r4, #-56]
  50:../../DaisySP/Source/Synthesis/oscillator.h ****         eoc_       = true;
 6004              		.loc 15 50 9 is_stmt 1 discriminator 2 view .LVU1521
  51:../../DaisySP/Source/Synthesis/oscillator.h ****         eor_       = true;
 6005              		.loc 15 51 9 discriminator 2 view .LVU1522
 6006              	.LBE1265:
 6007              	.LBE1274:
 6008              	.LBB1275:
 6009              	.LBB1270:
  61:../../DaisySP/Source/Synthesis/oscillator.h ****     }
 6010              		.loc 15 61 34 is_stmt 0 discriminator 2 view .LVU1523
 6011 0192 B0EE680A 		vmov.f32	s0, s17
 6012              	.LBE1270:
 6013              	.LBE1275:
 6014              	.LBB1276:
 6015              	.LBB1266:
  51:../../DaisySP/Source/Synthesis/oscillator.h ****         eor_       = true;
 6016              		.loc 15 51 20 discriminator 2 view .LVU1524
 6017 0196 04F82B7C 		strb	r7, [r4, #-43]
  52:../../DaisySP/Source/Synthesis/oscillator.h ****     }
 6018              		.loc 15 52 9 is_stmt 1 discriminator 2 view .LVU1525
  52:../../DaisySP/Source/Synthesis/oscillator.h ****     }
 6019              		.loc 15 52 20 is_stmt 0 discriminator 2 view .LVU1526
 6020 019a 04F82C7C 		strb	r7, [r4, #-44]
 6021              	.LVL506:
  52:../../DaisySP/Source/Synthesis/oscillator.h ****     }
 6022              		.loc 15 52 20 discriminator 2 view .LVU1527
 6023              	.LBE1266:
 6024              	.LBE1276:
 160:SynthMenis.cpp ****         osc[i].osc1.SetWaveform(osc[i].osc1.WAVE_SIN);
 6025              		.loc 12 160 9 is_stmt 1 discriminator 2 view .LVU1528
 6026              		.loc 12 160 9 is_stmt 0 discriminator 2 view .LVU1529
 6027              	.LBE1260:
  68:../../DaisySP/Source/Synthesis/oscillator.h ****     /** Sets the waveform to be synthesized by the Process() function.
  69:../../DaisySP/Source/Synthesis/oscillator.h ****     */
  70:../../DaisySP/Source/Synthesis/oscillator.h ****     inline void SetWaveform(const uint8_t wf)
  71:../../DaisySP/Source/Synthesis/oscillator.h ****     {
  72:../../DaisySP/Source/Synthesis/oscillator.h ****         waveform_ = wf < WAVE_LAST ? wf : WAVE_SIN;
 6028              		.loc 15 72 9 is_stmt 1 discriminator 2 view .LVU1530
 6029              	.LBB1299:
 161:SynthMenis.cpp ****         osc[i].osc1.SetAmp(0.5);
 6030              		.loc 12 161 9 discriminator 2 view .LVU1531
 6031              	.LBB1277:
 6032              	.LBI1277:
  67:../../DaisySP/Source/Synthesis/oscillator.h ****     /** Sets the waveform to be synthesized by the Process() function.
 6033              		.loc 15 67 17 discriminator 2 view .LVU1532
 6034              	.LBB1278:
  67:../../DaisySP/Source/Synthesis/oscillator.h ****     /** Sets the waveform to be synthesized by the Process() function.
 6035              		.loc 15 67 41 discriminator 2 view .LVU1533
  67:../../DaisySP/Source/Synthesis/oscillator.h ****     /** Sets the waveform to be synthesized by the Process() function.
 6036              		.loc 15 67 46 is_stmt 0 discriminator 2 view .LVU1534
 6037 019e 44F84C5C 		str	r5, [r4, #-76]	@ float
 6038              	.LVL507:
  67:../../DaisySP/Source/Synthesis/oscillator.h ****     /** Sets the waveform to be synthesized by the Process() function.
 6039              		.loc 15 67 46 discriminator 2 view .LVU1535
 6040              	.LBE1278:
ARM GAS  C:\Users\VINCIU~1\AppData\Local\Temp\ccUTXsQS.s 			page 172


 6041              	.LBE1277:
 162:SynthMenis.cpp ****         osc[i].osc1.SetFreq(440);
 6042              		.loc 12 162 9 is_stmt 1 discriminator 2 view .LVU1536
 6043              	.LBB1279:
 6044              	.LBI1268:
  58:../../DaisySP/Source/Synthesis/oscillator.h ****     {
 6045              		.loc 15 58 17 discriminator 2 view .LVU1537
 6046              	.LBB1271:
  60:../../DaisySP/Source/Synthesis/oscillator.h ****         phase_inc_ = CalcPhaseInc(f);
 6047              		.loc 15 60 9 discriminator 2 view .LVU1538
  60:../../DaisySP/Source/Synthesis/oscillator.h ****         phase_inc_ = CalcPhaseInc(f);
 6048              		.loc 15 60 20 is_stmt 0 discriminator 2 view .LVU1539
 6049 01a2 44ED128A 		vstr.32	s17, [r4, #-72]
  61:../../DaisySP/Source/Synthesis/oscillator.h ****     }
 6050              		.loc 15 61 9 is_stmt 1 discriminator 2 view .LVU1540
  61:../../DaisySP/Source/Synthesis/oscillator.h ****     }
 6051              		.loc 15 61 34 is_stmt 0 discriminator 2 view .LVU1541
 6052 01a6 FFF7FEFF 		bl	_ZN7daisysp10Oscillator12CalcPhaseIncEf
 6053              	.LVL508:
 6054 01aa F0EE407A 		vmov.f32	s15, s0
 6055              	.LBE1271:
 6056              	.LBE1279:
 6057              	.LBB1280:
 6058              	.LBB1281:
  44:../../DaisySP/Source/Synthesis/oscillator.h ****         sr_recip_  = 1.0f / sample_rate;
 6059              		.loc 15 44 20 discriminator 2 view .LVU1542
 6060 01ae 04ED078A 		vstr.32	s16, [r4, #-28]
  49:../../DaisySP/Source/Synthesis/oscillator.h ****         waveform_  = WAVE_SIN;
 6061              		.loc 15 49 34 discriminator 2 view .LVU1543
 6062 01b2 4846     		mov	r0, r9
  45:../../DaisySP/Source/Synthesis/oscillator.h ****         freq_      = 100.0f;
 6063              		.loc 15 45 20 discriminator 2 view .LVU1544
 6064 01b4 44ED069A 		vstr.32	s19, [r4, #-24]
  49:../../DaisySP/Source/Synthesis/oscillator.h ****         waveform_  = WAVE_SIN;
 6065              		.loc 15 49 34 discriminator 2 view .LVU1545
 6066 01b8 B0EE490A 		vmov.f32	s0, s18
 6067              	.LBE1281:
 6068              	.LBE1280:
 6069              	.LBB1285:
 6070              	.LBB1272:
  61:../../DaisySP/Source/Synthesis/oscillator.h ****     }
 6071              		.loc 15 61 20 discriminator 2 view .LVU1546
 6072 01bc 44ED0E7A 		vstr.32	s15, [r4, #-56]
 6073              	.LVL509:
  61:../../DaisySP/Source/Synthesis/oscillator.h ****     }
 6074              		.loc 15 61 20 discriminator 2 view .LVU1547
 6075              	.LBE1272:
 6076              	.LBE1285:
 163:SynthMenis.cpp ****         osc[i].osc2.Init(samplerate);
 6077              		.loc 12 163 9 is_stmt 1 discriminator 2 view .LVU1548
 6078              	.LBB1286:
 6079              	.LBI1280:
  42:../../DaisySP/Source/Synthesis/oscillator.h ****     {
 6080              		.loc 15 42 10 discriminator 2 view .LVU1549
 6081              	.LBB1282:
  44:../../DaisySP/Source/Synthesis/oscillator.h ****         sr_recip_  = 1.0f / sample_rate;
 6082              		.loc 15 44 9 discriminator 2 view .LVU1550
ARM GAS  C:\Users\VINCIU~1\AppData\Local\Temp\ccUTXsQS.s 			page 173


  45:../../DaisySP/Source/Synthesis/oscillator.h ****         freq_      = 100.0f;
 6083              		.loc 15 45 9 discriminator 2 view .LVU1551
  46:../../DaisySP/Source/Synthesis/oscillator.h ****         amp_       = 0.5f;
 6084              		.loc 15 46 9 discriminator 2 view .LVU1552
  46:../../DaisySP/Source/Synthesis/oscillator.h ****         amp_       = 0.5f;
 6085              		.loc 15 46 20 is_stmt 0 discriminator 2 view .LVU1553
 6086 01c0 04ED089A 		vstr.32	s18, [r4, #-32]
  47:../../DaisySP/Source/Synthesis/oscillator.h ****         phase_     = 0.0f;
 6087              		.loc 15 47 9 is_stmt 1 discriminator 2 view .LVU1554
  47:../../DaisySP/Source/Synthesis/oscillator.h ****         phase_     = 0.0f;
 6088              		.loc 15 47 20 is_stmt 0 discriminator 2 view .LVU1555
 6089 01c4 44F8245C 		str	r5, [r4, #-36]	@ float
  48:../../DaisySP/Source/Synthesis/oscillator.h ****         phase_inc_ = CalcPhaseInc(freq_);
 6090              		.loc 15 48 9 is_stmt 1 discriminator 2 view .LVU1556
  48:../../DaisySP/Source/Synthesis/oscillator.h ****         phase_inc_ = CalcPhaseInc(freq_);
 6091              		.loc 15 48 20 is_stmt 0 discriminator 2 view .LVU1557
 6092 01c8 44F814AC 		str	r10, [r4, #-20]	@ float
  49:../../DaisySP/Source/Synthesis/oscillator.h ****         waveform_  = WAVE_SIN;
 6093              		.loc 15 49 9 is_stmt 1 discriminator 2 view .LVU1558
  49:../../DaisySP/Source/Synthesis/oscillator.h ****         waveform_  = WAVE_SIN;
 6094              		.loc 15 49 34 is_stmt 0 discriminator 2 view .LVU1559
 6095 01cc FFF7FEFF 		bl	_ZN7daisysp10Oscillator12CalcPhaseIncEf
 6096              	.LVL510:
  49:../../DaisySP/Source/Synthesis/oscillator.h ****         waveform_  = WAVE_SIN;
 6097              		.loc 15 49 34 discriminator 2 view .LVU1560
 6098 01d0 F0EE407A 		vmov.f32	s15, s0
  50:../../DaisySP/Source/Synthesis/oscillator.h ****         eoc_       = true;
 6099              		.loc 15 50 20 discriminator 2 view .LVU1561
 6100 01d4 04F8288C 		strb	r8, [r4, #-40]
 6101              	.LBE1282:
 6102              	.LBE1286:
 6103              	.LBB1287:
 6104              	.LBB1288:
  61:../../DaisySP/Source/Synthesis/oscillator.h ****     }
 6105              		.loc 15 61 34 discriminator 2 view .LVU1562
 6106 01d8 B0EE680A 		vmov.f32	s0, s17
 6107              	.LBE1288:
 6108              	.LBE1287:
 6109              	.LBB1292:
 6110              	.LBB1283:
  51:../../DaisySP/Source/Synthesis/oscillator.h ****         eor_       = true;
 6111              		.loc 15 51 20 discriminator 2 view .LVU1563
 6112 01dc 04F8037C 		strb	r7, [r4, #-3]
 6113              	.LBE1283:
 6114              	.LBE1292:
 6115              	.LBB1293:
 6116              	.LBB1289:
  61:../../DaisySP/Source/Synthesis/oscillator.h ****     }
 6117              		.loc 15 61 34 discriminator 2 view .LVU1564
 6118 01e0 4846     		mov	r0, r9
 6119              	.LBE1289:
 6120              	.LBE1293:
 6121              	.LBB1294:
 6122              	.LBB1284:
  49:../../DaisySP/Source/Synthesis/oscillator.h ****         waveform_  = WAVE_SIN;
 6123              		.loc 15 49 20 discriminator 2 view .LVU1565
 6124 01e2 44ED047A 		vstr.32	s15, [r4, #-16]
ARM GAS  C:\Users\VINCIU~1\AppData\Local\Temp\ccUTXsQS.s 			page 174


  50:../../DaisySP/Source/Synthesis/oscillator.h ****         eoc_       = true;
 6125              		.loc 15 50 9 is_stmt 1 discriminator 2 view .LVU1566
  51:../../DaisySP/Source/Synthesis/oscillator.h ****         eor_       = true;
 6126              		.loc 15 51 9 discriminator 2 view .LVU1567
  52:../../DaisySP/Source/Synthesis/oscillator.h ****     }
 6127              		.loc 15 52 9 discriminator 2 view .LVU1568
  52:../../DaisySP/Source/Synthesis/oscillator.h ****     }
 6128              		.loc 15 52 20 is_stmt 0 discriminator 2 view .LVU1569
 6129 01e6 04F8047C 		strb	r7, [r4, #-4]
 6130              	.LVL511:
  52:../../DaisySP/Source/Synthesis/oscillator.h ****     }
 6131              		.loc 15 52 20 discriminator 2 view .LVU1570
 6132              	.LBE1284:
 6133              	.LBE1294:
 164:SynthMenis.cpp ****         osc[i].osc2.SetWaveform(osc[i].osc2.WAVE_SIN);
 6134              		.loc 12 164 9 is_stmt 1 discriminator 2 view .LVU1571
 6135              		.loc 12 164 9 is_stmt 0 discriminator 2 view .LVU1572
 6136              	.LBE1299:
 6137              		.loc 15 72 9 is_stmt 1 discriminator 2 view .LVU1573
 6138              	.LBB1300:
 165:SynthMenis.cpp ****         osc[i].osc2.SetAmp(0.5);
 6139              		.loc 12 165 9 discriminator 2 view .LVU1574
 6140              	.LBB1295:
 6141              	.LBI1295:
  67:../../DaisySP/Source/Synthesis/oscillator.h ****     /** Sets the waveform to be synthesized by the Process() function.
 6142              		.loc 15 67 17 discriminator 2 view .LVU1575
 6143              	.LBB1296:
  67:../../DaisySP/Source/Synthesis/oscillator.h ****     /** Sets the waveform to be synthesized by the Process() function.
 6144              		.loc 15 67 41 discriminator 2 view .LVU1576
  67:../../DaisySP/Source/Synthesis/oscillator.h ****     /** Sets the waveform to be synthesized by the Process() function.
 6145              		.loc 15 67 46 is_stmt 0 discriminator 2 view .LVU1577
 6146 01ea 44F8245C 		str	r5, [r4, #-36]	@ float
 6147              	.LVL512:
  67:../../DaisySP/Source/Synthesis/oscillator.h ****     /** Sets the waveform to be synthesized by the Process() function.
 6148              		.loc 15 67 46 discriminator 2 view .LVU1578
 6149              	.LBE1296:
 6150              	.LBE1295:
 166:SynthMenis.cpp ****         osc[i].osc2.SetFreq(440);
 6151              		.loc 12 166 9 is_stmt 1 discriminator 2 view .LVU1579
 6152              	.LBB1297:
 6153              	.LBI1287:
  58:../../DaisySP/Source/Synthesis/oscillator.h ****     {
 6154              		.loc 15 58 17 discriminator 2 view .LVU1580
 6155              	.LBB1290:
  60:../../DaisySP/Source/Synthesis/oscillator.h ****         phase_inc_ = CalcPhaseInc(f);
 6156              		.loc 15 60 9 discriminator 2 view .LVU1581
  60:../../DaisySP/Source/Synthesis/oscillator.h ****         phase_inc_ = CalcPhaseInc(f);
 6157              		.loc 15 60 20 is_stmt 0 discriminator 2 view .LVU1582
 6158 01ee 44ED088A 		vstr.32	s17, [r4, #-32]
  61:../../DaisySP/Source/Synthesis/oscillator.h ****     }
 6159              		.loc 15 61 9 is_stmt 1 discriminator 2 view .LVU1583
  61:../../DaisySP/Source/Synthesis/oscillator.h ****     }
 6160              		.loc 15 61 34 is_stmt 0 discriminator 2 view .LVU1584
 6161 01f2 FFF7FEFF 		bl	_ZN7daisysp10Oscillator12CalcPhaseIncEf
 6162              	.LVL513:
 6163              	.LBE1290:
 6164              	.LBE1297:
ARM GAS  C:\Users\VINCIU~1\AppData\Local\Temp\ccUTXsQS.s 			page 175


 157:SynthMenis.cpp ****     {
 6165              		.loc 12 157 25 discriminator 2 view .LVU1585
 6166 01f6 5C45     		cmp	r4, fp
 6167              	.LBB1298:
 6168              	.LBB1291:
  61:../../DaisySP/Source/Synthesis/oscillator.h ****     }
 6169              		.loc 15 61 20 discriminator 2 view .LVU1586
 6170 01f8 04ED040A 		vstr.32	s0, [r4, #-16]
 6171              	.LVL514:
  61:../../DaisySP/Source/Synthesis/oscillator.h ****     }
 6172              		.loc 15 61 20 discriminator 2 view .LVU1587
 6173              	.LBE1291:
 6174              	.LBE1298:
 157:SynthMenis.cpp ****     {
 6175              		.loc 12 157 5 is_stmt 1 discriminator 2 view .LVU1588
 157:SynthMenis.cpp ****     {
 6176              		.loc 12 157 25 discriminator 2 view .LVU1589
 6177 01fc A6D1     		bne	.L363
 6178              	.LBE1300:
 167:SynthMenis.cpp ****     }
 168:SynthMenis.cpp **** 
 169:SynthMenis.cpp **** 
 170:SynthMenis.cpp ****     line[0].Init(samplerate);
 6179              		.loc 12 170 5 view .LVU1590
 6180 01fe 424C     		ldr	r4, .L398+40
 6181              		.loc 12 170 17 is_stmt 0 view .LVU1591
 6182 0200 B0EE480A 		vmov.f32	s0, s16
 6183 0204 4148     		ldr	r0, .L398+44
 6184 0206 04F5F075 		add	r5, r4, #480
 6185 020a FFF7FEFF 		bl	_ZN7daisysp4Line4InitEf
 6186              	.LVL515:
 171:SynthMenis.cpp ****     for(size_t i = 0; i < poly; i++)
 6187              		.loc 12 171 5 is_stmt 1 view .LVU1592
 6188              	.LBB1301:
 6189              		.loc 12 171 25 view .LVU1593
 6190              	.L364:
 172:SynthMenis.cpp ****     {
 173:SynthMenis.cpp ****         env[i].Init(samplerate);
 6191              		.loc 12 173 9 discriminator 2 view .LVU1594
 6192              		.loc 12 173 20 is_stmt 0 discriminator 2 view .LVU1595
 6193 020e 2046     		mov	r0, r4
 6194 0210 B0EE480A 		vmov.f32	s0, s16
 6195 0214 0121     		movs	r1, #1
 6196 0216 FFF7FEFF 		bl	_ZN7daisysp4Adsr4InitEfi
 6197              	.LVL516:
 174:SynthMenis.cpp ****         env[i].SetTime(ADSR_SEG_ATTACK, .05);
 6198              		.loc 12 174 9 is_stmt 1 discriminator 2 view .LVU1596
 6199              		.loc 12 174 23 is_stmt 0 discriminator 2 view .LVU1597
 6200 021a 2046     		mov	r0, r4
 6201 021c 9FED3C0A 		vldr.32	s0, .L398+48
 6202 0220 0121     		movs	r1, #1
 6203 0222 FFF7FEFF 		bl	_ZN7daisysp4Adsr7SetTimeEif
 6204              	.LVL517:
 175:SynthMenis.cpp ****         env[i].SetTime(ADSR_SEG_DECAY, .1);
 6205              		.loc 12 175 9 is_stmt 1 discriminator 2 view .LVU1598
 6206              		.loc 12 175 23 is_stmt 0 discriminator 2 view .LVU1599
 6207 0226 2046     		mov	r0, r4
ARM GAS  C:\Users\VINCIU~1\AppData\Local\Temp\ccUTXsQS.s 			page 176


 6208 0228 9FED3A0A 		vldr.32	s0, .L398+52
 6209 022c 0221     		movs	r1, #2
 6210 022e FFF7FEFF 		bl	_ZN7daisysp4Adsr7SetTimeEif
 6211              	.LVL518:
 176:SynthMenis.cpp ****         env[i].SetTime(ADSR_SEG_RELEASE, .25);
 6212              		.loc 12 176 9 is_stmt 1 discriminator 2 view .LVU1600
 6213              		.loc 12 176 23 is_stmt 0 discriminator 2 view .LVU1601
 6214 0232 2046     		mov	r0, r4
 6215 0234 B5EE000A 		vmov.f32	s0, #2.5e-1
 6216 0238 0421     		movs	r1, #4
 6217 023a FFF7FEFF 		bl	_ZN7daisysp4Adsr7SetTimeEif
 6218              	.LVL519:
 177:SynthMenis.cpp ****         env[i].SetSustainLevel(.5);
 6219              		.loc 12 177 9 is_stmt 1 discriminator 2 view .LVU1602
 6220              	.LBB1302:
 6221              	.LBI1302:
 6222              		.file 20 "../../DaisySP/Source/Control/adsr.h"
   1:../../DaisySP/Source/Control/adsr.h **** #pragma once
   2:../../DaisySP/Source/Control/adsr.h **** #ifndef DSY_ADSR_H
   3:../../DaisySP/Source/Control/adsr.h **** #define DSY_ADSR_H
   4:../../DaisySP/Source/Control/adsr.h **** 
   5:../../DaisySP/Source/Control/adsr.h **** #include <stdint.h>
   6:../../DaisySP/Source/Control/adsr.h **** #ifdef __cplusplus
   7:../../DaisySP/Source/Control/adsr.h **** 
   8:../../DaisySP/Source/Control/adsr.h **** namespace daisysp
   9:../../DaisySP/Source/Control/adsr.h **** {
  10:../../DaisySP/Source/Control/adsr.h **** /** Distinct stages that the phase of the envelope can be located in.
  11:../../DaisySP/Source/Control/adsr.h **** - IDLE   = located at phase location 0, and not currently running
  12:../../DaisySP/Source/Control/adsr.h **** - ATTACK  = First segment of envelope where phase moves from 0 to 1
  13:../../DaisySP/Source/Control/adsr.h **** - DECAY   = Second segment of envelope where phase moves from 1 to SUSTAIN value
  14:../../DaisySP/Source/Control/adsr.h **** - RELEASE =     Fourth segment of envelop where phase moves from SUSTAIN to 0
  15:../../DaisySP/Source/Control/adsr.h **** */
  16:../../DaisySP/Source/Control/adsr.h **** enum
  17:../../DaisySP/Source/Control/adsr.h **** {
  18:../../DaisySP/Source/Control/adsr.h ****     ADSR_SEG_IDLE    = 0,
  19:../../DaisySP/Source/Control/adsr.h ****     ADSR_SEG_ATTACK  = 1,
  20:../../DaisySP/Source/Control/adsr.h ****     ADSR_SEG_DECAY   = 2,
  21:../../DaisySP/Source/Control/adsr.h ****     ADSR_SEG_RELEASE = 4
  22:../../DaisySP/Source/Control/adsr.h **** };
  23:../../DaisySP/Source/Control/adsr.h **** 
  24:../../DaisySP/Source/Control/adsr.h **** 
  25:../../DaisySP/Source/Control/adsr.h **** /** adsr envelope module
  26:../../DaisySP/Source/Control/adsr.h **** 
  27:../../DaisySP/Source/Control/adsr.h **** Original author(s) : Paul Batchelor
  28:../../DaisySP/Source/Control/adsr.h **** 
  29:../../DaisySP/Source/Control/adsr.h **** Ported from Soundpipe by Ben Sergentanis, May 2020
  30:../../DaisySP/Source/Control/adsr.h ****  
  31:../../DaisySP/Source/Control/adsr.h **** Remake by Steffan DIedrichsen, May 2021
  32:../../DaisySP/Source/Control/adsr.h **** */
  33:../../DaisySP/Source/Control/adsr.h **** class Adsr
  34:../../DaisySP/Source/Control/adsr.h **** {
  35:../../DaisySP/Source/Control/adsr.h ****   public:
  36:../../DaisySP/Source/Control/adsr.h ****     Adsr() {}
  37:../../DaisySP/Source/Control/adsr.h ****     ~Adsr() {}
  38:../../DaisySP/Source/Control/adsr.h ****     /** Initializes the Adsr module.
  39:../../DaisySP/Source/Control/adsr.h ****         \param sample_rate - The sample rate of the audio engine being run. 
  40:../../DaisySP/Source/Control/adsr.h ****     */
ARM GAS  C:\Users\VINCIU~1\AppData\Local\Temp\ccUTXsQS.s 			page 177


  41:../../DaisySP/Source/Control/adsr.h ****     void Init(float sample_rate, int blockSize = 1);
  42:../../DaisySP/Source/Control/adsr.h ****     /**
  43:../../DaisySP/Source/Control/adsr.h ****      \function Retrigger forces the envelope back to attack phase
  44:../../DaisySP/Source/Control/adsr.h ****      \param hard  resets the history to zero, results in a click.
  45:../../DaisySP/Source/Control/adsr.h ****      */
  46:../../DaisySP/Source/Control/adsr.h ****     void Retrigger(bool hard);
  47:../../DaisySP/Source/Control/adsr.h ****     /** Processes one sample through the filter and returns one sample.
  48:../../DaisySP/Source/Control/adsr.h ****         \param gate - trigger the envelope, hold it to sustain 
  49:../../DaisySP/Source/Control/adsr.h ****     */
  50:../../DaisySP/Source/Control/adsr.h ****     float Process(bool gate);
  51:../../DaisySP/Source/Control/adsr.h ****     /** Sets time
  52:../../DaisySP/Source/Control/adsr.h ****         Set time per segment in seconds
  53:../../DaisySP/Source/Control/adsr.h ****     */
  54:../../DaisySP/Source/Control/adsr.h ****     void SetTime(int seg, float time);
  55:../../DaisySP/Source/Control/adsr.h ****     void SetAttackTime(float timeInS, float shape = 0.0f);
  56:../../DaisySP/Source/Control/adsr.h ****     void SetDecayTime(float timeInS);
  57:../../DaisySP/Source/Control/adsr.h ****     void SetReleaseTime(float timeInS);
  58:../../DaisySP/Source/Control/adsr.h **** 
  59:../../DaisySP/Source/Control/adsr.h ****   private:
  60:../../DaisySP/Source/Control/adsr.h ****     void SetTimeConstant(float timeInS, float& time, float& coeff);
  61:../../DaisySP/Source/Control/adsr.h **** 
  62:../../DaisySP/Source/Control/adsr.h ****   public:
  63:../../DaisySP/Source/Control/adsr.h ****     /** Sustain level
  64:../../DaisySP/Source/Control/adsr.h ****         \param sus_level - sets sustain level, 0...1.0
  65:../../DaisySP/Source/Control/adsr.h ****     */
  66:../../DaisySP/Source/Control/adsr.h ****     inline void SetSustainLevel(float sus_level)
 6223              		.loc 20 66 17 discriminator 2 view .LVU1603
 6224              	.LBB1303:
  67:../../DaisySP/Source/Control/adsr.h ****     {
  68:../../DaisySP/Source/Control/adsr.h ****         sus_level = (sus_level <= 0.f) ? -0.01f // forces envelope into idle
 6225              		.loc 20 68 9 discriminator 2 view .LVU1604
  69:../../DaisySP/Source/Control/adsr.h ****                                        : (sus_level > 1.f) ? 1.f : sus_level;
  70:../../DaisySP/Source/Control/adsr.h ****         sus_level_ = sus_level;
 6226              		.loc 20 70 9 discriminator 2 view .LVU1605
 6227              		.loc 20 70 20 is_stmt 0 discriminator 2 view .LVU1606
 6228 023e 4FF07C53 		mov	r3, #1056964608
 6229 0242 44F8303B 		str	r3, [r4], #48	@ float
 6230              	.LVL520:
 6231              		.loc 20 70 20 discriminator 2 view .LVU1607
 6232              	.LBE1303:
 6233              	.LBE1302:
 171:SynthMenis.cpp ****     {
 6234              		.loc 12 171 5 is_stmt 1 discriminator 2 view .LVU1608
 171:SynthMenis.cpp ****     {
 6235              		.loc 12 171 25 discriminator 2 view .LVU1609
 6236 0246 A542     		cmp	r5, r4
 6237 0248 E1D1     		bne	.L364
 6238              	.LBE1301:
 178:SynthMenis.cpp ****     }
 179:SynthMenis.cpp ****     midi.Init(midi_cfg);
 6239              		.loc 12 179 5 view .LVU1610
 6240              	.LVL521:
 6241              		.loc 12 179 5 is_stmt 0 view .LVU1611
 6242 024a 334B     		ldr	r3, .L398+56
 6243              	.LBB1304:
 6244              	.LBB1305:
 6245              	.LBB1306:
ARM GAS  C:\Users\VINCIU~1\AppData\Local\Temp\ccUTXsQS.s 			page 178


 6246              	.LBB1307:
  47:../../libdaisy/src/hid/midi.h ****         uart_config.mode       = UartHandler::Config::Mode::TX_RX;
 6247              		.loc 14 47 32 view .LVU1612
 6248 024c 0025     		movs	r5, #0
 6249              	.LBE1307:
 6250              	.LBE1306:
  95:../../libdaisy/src/hid/midi.h **** 
 6251              		.loc 14 95 9 view .LVU1613
 6252 024e DFF8D0A0 		ldr	r10, .L398+64
 6253 0252 0DF1E008 		add	r8, sp, #224
 6254 0256 1A68     		ldr	r2, [r3]
 6255              	.LVL522:
  95:../../libdaisy/src/hid/midi.h **** 
 6256              		.loc 14 95 9 view .LVU1614
 6257 0258 0AF5E044 		add	r4, r10, #28672
 6258 025c 1979     		ldrb	r1, [r3, #4]	@ zero_extendqisi2
 6259              	.LVL523:
 6260              	.LBB1312:
 6261              	.LBB1308:
  52:../../libdaisy/src/hid/midi.h ****         uart_config.pin_config.rx = config.rx;
 6262              		.loc 14 52 35 view .LVU1615
 6263 025e 5692     		str	r2, [sp, #344]
 6264              	.LBE1308:
 6265              	.LBE1312:
  95:../../libdaisy/src/hid/midi.h **** 
 6266              		.loc 14 95 9 view .LVU1616
 6267 0260 C4F88C24 		str	r2, [r4, #1164]
 6268              	.LBB1313:
 6269              	.LBB1309:
  56:../../libdaisy/src/hid/midi.h ****     }
 6270              		.loc 14 56 19 view .LVU1617
 6271 0264 04F29440 		addw	r0, r4, #1172
 6272 0268 5A79     		ldrb	r2, [r3, #5]	@ zero_extendqisi2
 6273              	.LVL524:
  53:../../libdaisy/src/hid/midi.h ****         uart_config.pin_config.tx = config.tx;
 6274              		.loc 14 53 35 view .LVU1618
 6275 026a 8DF85611 		strb	r1, [sp, #342]
  56:../../libdaisy/src/hid/midi.h ****     }
 6276              		.loc 14 56 19 view .LVU1619
 6277 026e 55A9     		add	r1, sp, #340
 6278              	.LVL525:
  53:../../libdaisy/src/hid/midi.h ****         uart_config.pin_config.tx = config.tx;
 6279              		.loc 14 53 35 view .LVU1620
 6280 0270 8DF85721 		strb	r2, [sp, #343]
 6281 0274 9A79     		ldrb	r2, [r3, #6]	@ zero_extendqisi2
 6282              	.LVL526:
  47:../../libdaisy/src/hid/midi.h ****         uart_config.mode       = UartHandler::Config::Mode::TX_RX;
 6283              		.loc 14 47 32 view .LVU1621
 6284 0276 5895     		str	r5, [sp, #352]
  54:../../libdaisy/src/hid/midi.h **** 
 6285              		.loc 14 54 35 view .LVU1622
 6286 0278 8DF85421 		strb	r2, [sp, #340]
 6287 027c DA79     		ldrb	r2, [r3, #7]	@ zero_extendqisi2
 6288              	.LVL527:
  54:../../libdaisy/src/hid/midi.h **** 
 6289              		.loc 14 54 35 view .LVU1623
 6290 027e 5B68     		ldr	r3, [r3, #4]
ARM GAS  C:\Users\VINCIU~1\AppData\Local\Temp\ccUTXsQS.s 			page 179


 6291              	.LVL528:
  54:../../libdaisy/src/hid/midi.h **** 
 6292              		.loc 14 54 35 view .LVU1624
 6293              	.LBE1309:
 6294              	.LBE1313:
 6295              	.LBE1305:
 6296              	.LBI1304:
  93:../../libdaisy/src/hid/midi.h ****     {
 6297              		.loc 14 93 10 is_stmt 1 view .LVU1625
 6298              	.LBB1321:
 6299              	.LBB1314:
 6300              	.LBB1310:
  54:../../libdaisy/src/hid/midi.h **** 
 6301              		.loc 14 54 35 is_stmt 0 view .LVU1626
 6302 0280 8DF85521 		strb	r2, [sp, #341]
 6303              	.LBE1310:
 6304              	.LBE1314:
  95:../../libdaisy/src/hid/midi.h **** 
 6305              		.loc 14 95 9 view .LVU1627
 6306 0284 C4F89034 		str	r3, [r4, #1168]
 6307              	.LVL529:
 6308              	.LBB1315:
 6309              	.LBI1306:
  40:../../libdaisy/src/hid/midi.h ****     {
 6310              		.loc 14 40 17 is_stmt 1 view .LVU1628
 6311              	.LBB1311:
  42:../../libdaisy/src/hid/midi.h **** 
 6312              		.loc 14 42 9 view .LVU1629
  45:../../libdaisy/src/hid/midi.h ****         uart_config.stopbits   = UartHandler::Config::StopBits::BITS_1;
 6313              		.loc 14 45 9 view .LVU1630
  46:../../libdaisy/src/hid/midi.h ****         uart_config.parity     = UartHandler::Config::Parity::NONE;
 6314              		.loc 14 46 32 is_stmt 0 view .LVU1631
 6315 0288 0123     		movs	r3, #1
 6316 028a 244F     		ldr	r7, .L398+60
 6317 028c 5793     		str	r3, [sp, #348]
  49:../../libdaisy/src/hid/midi.h **** 
 6318              		.loc 14 49 32 view .LVU1632
 6319 028e 5A93     		str	r3, [sp, #360]
  45:../../libdaisy/src/hid/midi.h ****         uart_config.stopbits   = UartHandler::Config::StopBits::BITS_1;
 6320              		.loc 14 45 32 view .LVU1633
 6321 0290 47F61223 		movw	r3, #31250
 6322 0294 DFF88C90 		ldr	r9, .L398+68
 6323 0298 5B93     		str	r3, [sp, #364]
  46:../../libdaisy/src/hid/midi.h ****         uart_config.parity     = UartHandler::Config::Parity::NONE;
 6324              		.loc 14 46 9 is_stmt 1 view .LVU1634
  47:../../libdaisy/src/hid/midi.h ****         uart_config.mode       = UartHandler::Config::Mode::TX_RX;
 6325              		.loc 14 47 9 view .LVU1635
  48:../../libdaisy/src/hid/midi.h ****         uart_config.wordlength = UartHandler::Config::WordLength::BITS_8;
 6326              		.loc 14 48 9 view .LVU1636
  48:../../libdaisy/src/hid/midi.h ****         uart_config.wordlength = UartHandler::Config::WordLength::BITS_8;
 6327              		.loc 14 48 32 is_stmt 0 view .LVU1637
 6328 029a 0223     		movs	r3, #2
 6329 029c DFF888B0 		ldr	fp, .L398+72
 6330 02a0 5993     		str	r3, [sp, #356]
  49:../../libdaisy/src/hid/midi.h **** 
 6331              		.loc 14 49 9 is_stmt 1 view .LVU1638
  52:../../libdaisy/src/hid/midi.h ****         uart_config.pin_config.rx = config.rx;
ARM GAS  C:\Users\VINCIU~1\AppData\Local\Temp\ccUTXsQS.s 			page 180


 6332              		.loc 14 52 9 view .LVU1639
  53:../../libdaisy/src/hid/midi.h ****         uart_config.pin_config.tx = config.tx;
 6333              		.loc 14 53 9 view .LVU1640
  54:../../libdaisy/src/hid/midi.h **** 
 6334              		.loc 14 54 9 view .LVU1641
  56:../../libdaisy/src/hid/midi.h ****     }
 6335              		.loc 14 56 9 view .LVU1642
  56:../../libdaisy/src/hid/midi.h ****     }
 6336              		.loc 14 56 19 is_stmt 0 view .LVU1643
 6337 02a2 FFF7FEFF 		bl	_ZN5daisy11UartHandler4InitERKNS0_6ConfigE
 6338              	.LVL530:
  56:../../libdaisy/src/hid/midi.h ****     }
 6339              		.loc 14 56 19 view .LVU1644
 6340              	.LBE1311:
 6341              	.LBE1315:
 6342              	.LBB1316:
 6343              	.LBI1316:
  24:../../libdaisy/src/util/ringbuffer.h **** 
 6344              		.loc 19 24 17 is_stmt 1 view .LVU1645
 6345              	.LBE1316:
 100:../../libdaisy/src/hid/midi.h ****         pstate_                = ParserEmpty;
 6346              		.loc 14 100 32 is_stmt 0 view .LVU1646
 6347 02a6 0A23     		movs	r3, #10
 6348              	.LBB1319:
 6349              	.LBB1317:
  24:../../libdaisy/src/util/ringbuffer.h **** 
 6350              		.loc 19 24 49 view .LVU1647
 6351 02a8 C4F88054 		str	r5, [r4, #1152]
 6352              	.LBE1317:
 6353              	.LBE1319:
 6354              	.LBE1321:
 6355              	.LBE1304:
 6356              	.LBB1324:
 6357              	.LBB1325:
 6358              	.LBB1326:
 6359              	.LBB1327:
  59:../../libdaisy/src/hid/midi.h ****     inline size_t  Readable() { return uart_.Readable(); }
 6360              		.loc 14 59 45 view .LVU1648
 6361 02ac 04F29440 		addw	r0, r4, #1172
 6362              	.LBE1327:
 6363              	.LBE1326:
 6364              	.LBE1325:
 6365              	.LBE1324:
 6366              	.LBB1334:
 6367              	.LBB1322:
 6368              	.LBB1320:
 6369              	.LBB1318:
  24:../../libdaisy/src/util/ringbuffer.h **** 
 6370              		.loc 19 24 36 view .LVU1649
 6371 02b0 C4F87C54 		str	r5, [r4, #1148]
 6372              	.LVL531:
  24:../../libdaisy/src/util/ringbuffer.h **** 
 6373              		.loc 19 24 36 view .LVU1650
 6374              	.LBE1318:
 6375              	.LBE1320:
 6376              	.LBE1322:
 6377              	.LBE1334:
ARM GAS  C:\Users\VINCIU~1\AppData\Local\Temp\ccUTXsQS.s 			page 181


 180:SynthMenis.cpp ****     midi.StartReceive();
 6378              		.loc 12 180 5 is_stmt 1 view .LVU1651
 6379              	.LBB1335:
 6380              	.LBI1324:
 105:../../libdaisy/src/hid/midi.h **** 
 6381              		.loc 14 105 10 view .LVU1652
 6382              	.LBB1332:
 6383              	.LBB1330:
 6384              	.LBI1326:
  59:../../libdaisy/src/hid/midi.h ****     inline size_t  Readable() { return uart_.Readable(); }
 6385              		.loc 14 59 20 view .LVU1653
 6386              	.LBB1328:
  59:../../libdaisy/src/hid/midi.h ****     inline size_t  Readable() { return uart_.Readable(); }
 6387              		.loc 14 59 32 view .LVU1654
 6388              	.LBE1328:
 6389              	.LBE1330:
 6390              	.LBE1332:
 6391              	.LBE1335:
 6392              	.LBB1336:
 6393              	.LBB1323:
 101:../../libdaisy/src/hid/midi.h ****     }
 6394              		.loc 14 101 32 is_stmt 0 view .LVU1655
 6395 02b4 8AF80450 		strb	r5, [r10, #4]
 100:../../libdaisy/src/hid/midi.h ****         pstate_                = ParserEmpty;
 6396              		.loc 14 100 32 view .LVU1656
 6397 02b8 8AF80830 		strb	r3, [r10, #8]
 6398              	.LBE1323:
 6399              	.LBE1336:
 6400              	.LBB1337:
 6401              	.LBB1333:
 6402              	.LBB1331:
 6403              	.LBB1329:
  59:../../libdaisy/src/hid/midi.h ****     inline size_t  Readable() { return uart_.Readable(); }
 6404              		.loc 14 59 45 view .LVU1657
 6405 02bc FFF7FEFF 		bl	_ZN5daisy11UartHandler7StartRxEv
 6406              	.LVL532:
 6407              	.L382:
  59:../../libdaisy/src/hid/midi.h ****     inline size_t  Readable() { return uart_.Readable(); }
 6408              		.loc 14 59 45 view .LVU1658
 6409              	.LBE1329:
 6410              	.LBE1331:
 6411              	.LBE1333:
 6412              	.LBE1337:
 181:SynthMenis.cpp **** 
 182:SynthMenis.cpp **** 
 183:SynthMenis.cpp ****     while(1)
 6413              		.loc 12 183 5 is_stmt 1 view .LVU1659
 184:SynthMenis.cpp ****     {
 185:SynthMenis.cpp ****         if(synthmenu.analogRead > 1)
 6414              		.loc 12 185 9 view .LVU1660
 6415 02c0 F7EE007A 		vmov.f32	s15, #1.0e+0
 6416              		.loc 12 185 22 is_stmt 0 view .LVU1661
 6417 02c4 96ED007A 		vldr.32	s14, [r6]
 6418              		.loc 12 185 9 view .LVU1662
 6419 02c8 B4EEE77A 		vcmpe.f32	s14, s15
 6420 02cc F1EE10FA 		vmrs	APSR_nzcv, FPSCR
 6421 02d0 40F3A880 		ble	.L393
ARM GAS  C:\Users\VINCIU~1\AppData\Local\Temp\ccUTXsQS.s 			page 182


 186:SynthMenis.cpp ****         {
 187:SynthMenis.cpp ****             synthmenu.analogRead = 1;
 6422              		.loc 12 187 13 is_stmt 1 view .LVU1663
 6423              		.loc 12 187 34 is_stmt 0 view .LVU1664
 6424 02d4 C6ED007A 		vstr.32	s15, [r6]
 188:SynthMenis.cpp ****         }
 189:SynthMenis.cpp ****         if(synthmenu.analogRead < 0)
 6425              		.loc 12 189 9 is_stmt 1 view .LVU1665
 6426              	.L367:
 190:SynthMenis.cpp ****         {
 191:SynthMenis.cpp ****             synthmenu.analogRead = 0;
 192:SynthMenis.cpp ****         }
 193:SynthMenis.cpp **** 
 194:SynthMenis.cpp ****         midi.Listen();
 6427              		.loc 12 194 9 view .LVU1666
 6428              	.LVL533:
 6429              	.LBB1338:
 6430              	.LBI1338:
 108:../../libdaisy/src/hid/midi.h ****     {
 6431              		.loc 14 108 10 view .LVU1667
 6432              	.LBB1339:
 111:../../libdaisy/src/hid/midi.h ****         while(transport_.Readable())
 6433              		.loc 14 111 29 is_stmt 0 view .LVU1668
 6434 02d8 FFF7FEFF 		bl	_ZN5daisy6System6GetNowEv
 6435              	.LVL534:
 6436 02dc 0546     		mov	r5, r0
 6437              	.LVL535:
 111:../../libdaisy/src/hid/midi.h ****         while(transport_.Readable())
 6438              		.loc 14 111 29 view .LVU1669
 6439 02de 2DE0     		b	.L370
 6440              	.L399:
 6441              		.align	2
 6442              	.L398:
 6443 02e0 00000000 		.word	.LANCHOR11
 6444 02e4 00000000 		.word	.LANCHOR2
 6445 02e8 00000000 		.word	.LANCHOR3
 6446 02ec 0000C842 		.word	1120403456
 6447 02f0 00000000 		.word	.LC5
 6448 02f4 0C000000 		.word	.LC6
 6449 02f8 24000000 		.word	.LANCHOR11+36
 6450 02fc 08000000 		.word	.LANCHOR12+8
 6451 0300 00000000 		.word	_Z13AudioCallbackPKfPfj
 6452 0304 0000DC43 		.word	1138491392
 6453 0308 00000000 		.word	.LANCHOR1
 6454 030c 00000000 		.word	.LANCHOR4
 6455 0310 CDCC4C3D 		.word	1028443341
 6456 0314 CDCCCC3D 		.word	1036831949
 6457 0318 00000000 		.word	.LANCHOR13
 6458 031c 00000000 		.word	.LANCHOR14
 6459 0320 00000000 		.word	midi
 6460 0324 00000000 		.word	.LANCHOR15
 6461 0328 00000000 		.word	.LANCHOR12
 6462              	.LVL536:
 6463              	.L395:
 114:../../libdaisy/src/hid/midi.h ****             Parse(transport_.Rx());
 6464              		.loc 14 114 24 view .LVU1670
 6465 032c C4F88454 		str	r5, [r4, #1156]
ARM GAS  C:\Users\VINCIU~1\AppData\Local\Temp\ccUTXsQS.s 			page 183


 6466              	.LVL537:
 6467              	.LBB1340:
 6468              	.LBI1340:
  61:../../libdaisy/src/hid/midi.h ****     inline bool    RxActive() { return uart_.RxActive(); }
 6469              		.loc 14 61 20 is_stmt 1 view .LVU1671
 6470              	.LBB1341:
  61:../../libdaisy/src/hid/midi.h ****     inline bool    RxActive() { return uart_.RxActive(); }
 6471              		.loc 14 61 27 view .LVU1672
  61:../../libdaisy/src/hid/midi.h ****     inline bool    RxActive() { return uart_.RxActive(); }
 6472              		.loc 14 61 45 is_stmt 0 view .LVU1673
 6473 0330 FFF7FEFF 		bl	_ZN5daisy11UartHandler5PopRxEv
 6474              	.LVL538:
  61:../../libdaisy/src/hid/midi.h ****     inline bool    RxActive() { return uart_.RxActive(); }
 6475              		.loc 14 61 45 view .LVU1674
 6476 0334 0146     		mov	r1, r0
 6477              	.LBE1341:
 6478              	.LBE1340:
 115:../../libdaisy/src/hid/midi.h ****         }
 6479              		.loc 14 115 18 view .LVU1675
 6480 0336 5F48     		ldr	r0, .L400
 6481 0338 FFF7FEFF 		bl	_ZN5daisy11MidiHandlerINS_17MidiUartTransportEE5ParseEh
 6482              	.LVL539:
 6483              	.L370:
 112:../../libdaisy/src/hid/midi.h ****         {
 6484              		.loc 14 112 34 is_stmt 1 view .LVU1676
 6485              	.LBB1343:
 6486              	.LBI1343:
  60:../../libdaisy/src/hid/midi.h ****     inline uint8_t Rx() { return uart_.PopRx(); }
 6487              		.loc 14 60 20 view .LVU1677
 6488              	.LBB1344:
  60:../../libdaisy/src/hid/midi.h ****     inline uint8_t Rx() { return uart_.PopRx(); }
 6489              		.loc 14 60 33 view .LVU1678
  60:../../libdaisy/src/hid/midi.h ****     inline uint8_t Rx() { return uart_.PopRx(); }
 6490              		.loc 14 60 54 is_stmt 0 view .LVU1679
 6491 033c 5E48     		ldr	r0, .L400+4
 6492              	.LVL540:
  60:../../libdaisy/src/hid/midi.h ****     inline uint8_t Rx() { return uart_.PopRx(); }
 6493              		.loc 14 60 54 view .LVU1680
 6494 033e FFF7FEFF 		bl	_ZN5daisy11UartHandler8ReadableEv
 6495              	.LVL541:
  60:../../libdaisy/src/hid/midi.h ****     inline uint8_t Rx() { return uart_.PopRx(); }
 6496              		.loc 14 60 54 view .LVU1681
 6497 0342 0346     		mov	r3, r0
 6498              	.LBE1344:
 6499              	.LBE1343:
 6500              	.LBB1345:
 6501              	.LBB1342:
  61:../../libdaisy/src/hid/midi.h ****     inline bool    RxActive() { return uart_.RxActive(); }
 6502              		.loc 14 61 45 view .LVU1682
 6503 0344 5C48     		ldr	r0, .L400+4
 6504              	.LBE1342:
 6505              	.LBE1345:
 112:../../libdaisy/src/hid/midi.h ****         {
 6506              		.loc 14 112 34 view .LVU1683
 6507 0346 002B     		cmp	r3, #0
 6508 0348 F0D1     		bne	.L395
 6509              	.LVL542:
ARM GAS  C:\Users\VINCIU~1\AppData\Local\Temp\ccUTXsQS.s 			page 184


 6510              	.LBB1346:
 6511              	.LBI1346:
  62:../../libdaisy/src/hid/midi.h ****     inline void    FlushRx() { uart_.FlushRx(); }
 6512              		.loc 14 62 20 is_stmt 1 view .LVU1684
 6513              	.LBB1347:
  62:../../libdaisy/src/hid/midi.h ****     inline void    FlushRx() { uart_.FlushRx(); }
 6514              		.loc 14 62 33 view .LVU1685
  62:../../libdaisy/src/hid/midi.h ****     inline void    FlushRx() { uart_.FlushRx(); }
 6515              		.loc 14 62 54 is_stmt 0 view .LVU1686
 6516 034a 5B48     		ldr	r0, .L400+4
  62:../../libdaisy/src/hid/midi.h ****     inline void    FlushRx() { uart_.FlushRx(); }
 6517              		.loc 14 62 54 view .LVU1687
 6518 034c FFF7FEFF 		bl	_ZN5daisy11UartHandler8RxActiveEv
 6519              	.LVL543:
  62:../../libdaisy/src/hid/midi.h ****     inline void    FlushRx() { uart_.FlushRx(); }
 6520              		.loc 14 62 54 view .LVU1688
 6521              	.LBE1347:
 6522              	.LBE1346:
 121:../../libdaisy/src/hid/midi.h ****         {
 6523              		.loc 14 121 9 view .LVU1689
 6524 0350 0028     		cmp	r0, #0
 6525 0352 6FD0     		beq	.L396
 6526              	.L371:
 6527              	.LVL544:
 121:../../libdaisy/src/hid/midi.h ****         {
 6528              		.loc 14 121 9 view .LVU1690
 6529              	.LBE1339:
 6530              	.LBE1338:
 195:SynthMenis.cpp ****         synthmenu.buttonLeft.Debounce();
 6531              		.loc 12 195 9 is_stmt 1 view .LVU1691
 6532              		.loc 12 195 38 is_stmt 0 view .LVU1692
 6533 0354 5948     		ldr	r0, .L400+8
 6534 0356 FFF7FEFF 		bl	_ZN5daisy6Switch8DebounceEv
 6535              	.LVL545:
 196:SynthMenis.cpp ****         synthmenu.buttonRight.Debounce();
 6536              		.loc 12 196 9 is_stmt 1 view .LVU1693
 6537              		.loc 12 196 39 is_stmt 0 view .LVU1694
 6538 035a 5948     		ldr	r0, .L400+12
 6539 035c FFF7FEFF 		bl	_ZN5daisy6Switch8DebounceEv
 6540              	.LVL546:
 197:SynthMenis.cpp ****         synthmenu.encoderLeft.Debounce();
 6541              		.loc 12 197 9 is_stmt 1 view .LVU1695
 6542              		.loc 12 197 39 is_stmt 0 view .LVU1696
 6543 0360 5848     		ldr	r0, .L400+16
 6544 0362 FFF7FEFF 		bl	_ZN5daisy7Encoder8DebounceEv
 6545              	.LVL547:
 198:SynthMenis.cpp ****         synthmenu.encoderRight.Debounce();
 6546              		.loc 12 198 9 is_stmt 1 view .LVU1697
 6547              		.loc 12 198 40 is_stmt 0 view .LVU1698
 6548 0366 5848     		ldr	r0, .L400+20
 6549 0368 FFF7FEFF 		bl	_ZN5daisy7Encoder8DebounceEv
 6550              	.LVL548:
 199:SynthMenis.cpp ****         navigation += synthmenu.encoderLeft.Increment();
 6551              		.loc 12 199 9 is_stmt 1 view .LVU1699
 6552              	.LBB1355:
 6553              	.LBI1355:
  22:../../libdaisy/src/hid/encoder.h **** 
ARM GAS  C:\Users\VINCIU~1\AppData\Local\Temp\ccUTXsQS.s 			page 185


  23:../../libdaisy/src/hid/encoder.h ****     /** Initializes the encoder with the specified hardware pins.
  24:../../libdaisy/src/hid/encoder.h **** */
  25:../../libdaisy/src/hid/encoder.h ****     //
  26:../../libdaisy/src/hid/encoder.h ****     /** Update rate should be the rate at which Debounce() gets called
  27:../../libdaisy/src/hid/encoder.h **** in Hertz.
  28:../../libdaisy/src/hid/encoder.h **** */
  29:../../libdaisy/src/hid/encoder.h ****     //
  30:../../libdaisy/src/hid/encoder.h ****     void
  31:../../libdaisy/src/hid/encoder.h ****     Init(dsy_gpio_pin a, dsy_gpio_pin b, dsy_gpio_pin click, float update_rate);
  32:../../libdaisy/src/hid/encoder.h ****     /** Called at update_rate to debounce and handle timing for the switch.
  33:../../libdaisy/src/hid/encoder.h **** */
  34:../../libdaisy/src/hid/encoder.h ****     //
  35:../../libdaisy/src/hid/encoder.h ****     /** In order for events not to be missed, its important that the Edge/Pressed checks
  36:../../libdaisy/src/hid/encoder.h **** be made at the same rate as the debounce function is being called.
  37:../../libdaisy/src/hid/encoder.h **** */
  38:../../libdaisy/src/hid/encoder.h ****     void Debounce();
  39:../../libdaisy/src/hid/encoder.h ****     /** Returns +1 if the encoder was turned clockwise, -1 if it was turned counter-clockwise, or 0
  40:../../libdaisy/src/hid/encoder.h **** */
  41:../../libdaisy/src/hid/encoder.h ****     inline int32_t Increment() const { return inc_; }
 6554              		.loc 11 41 20 view .LVU1700
 6555              	.LBB1356:
 6556              		.loc 11 41 40 view .LVU1701
 6557              		.loc 11 41 40 is_stmt 0 view .LVU1702
 6558              	.LBE1356:
 6559              	.LBE1355:
 6560              		.loc 12 199 20 view .LVU1703
 6561 036c 3D68     		ldr	r5, [r7]
 6562 036e B36A     		ldr	r3, [r6, #40]
 6563 0370 1D44     		add	r5, r5, r3
 200:SynthMenis.cpp ****         if(splashInit == false)
 6564              		.loc 12 200 9 view .LVU1704
 6565 0372 99F80030 		ldrb	r3, [r9]	@ zero_extendqisi2
 199:SynthMenis.cpp ****         navigation += synthmenu.encoderLeft.Increment();
 6566              		.loc 12 199 20 view .LVU1705
 6567 0376 3D60     		str	r5, [r7]
 6568              		.loc 12 200 9 is_stmt 1 view .LVU1706
 6569 0378 002B     		cmp	r3, #0
 6570 037a 3AD1     		bne	.L372
 201:SynthMenis.cpp ****         {
 202:SynthMenis.cpp ****             if(navigation > 3)
 6571              		.loc 12 202 13 view .LVU1707
 6572 037c 032D     		cmp	r5, #3
 6573 037e 69DD     		ble	.L373
 203:SynthMenis.cpp ****             {
 204:SynthMenis.cpp ****                 navigation = 3;
 6574              		.loc 12 204 17 view .LVU1708
 6575              		.loc 12 204 28 is_stmt 0 view .LVU1709
 6576 0380 0323     		movs	r3, #3
 6577 0382 3B60     		str	r3, [r7]
 205:SynthMenis.cpp ****             }
 206:SynthMenis.cpp ****             if(navigation < 1)
 6578              		.loc 12 206 13 is_stmt 1 view .LVU1710
 207:SynthMenis.cpp ****             {
 208:SynthMenis.cpp ****                 navigation = 1;
 209:SynthMenis.cpp ****             }
 210:SynthMenis.cpp ****         }
 211:SynthMenis.cpp **** 
ARM GAS  C:\Users\VINCIU~1\AppData\Local\Temp\ccUTXsQS.s 			page 186


 212:SynthMenis.cpp ****         if(navigation == 0)
 6579              		.loc 12 212 9 view .LVU1711
 213:SynthMenis.cpp ****         {
 214:SynthMenis.cpp ****             synthmenu.SplashScreen(screen);
 215:SynthMenis.cpp ****             if(count > 1000)
 216:SynthMenis.cpp ****             {
 217:SynthMenis.cpp ****                 navigation = 1;
 218:SynthMenis.cpp ****                 count      = 0;
 219:SynthMenis.cpp ****                 splashInit = false;
 220:SynthMenis.cpp ****             }
 221:SynthMenis.cpp ****             count++;
 222:SynthMenis.cpp ****         }
 223:SynthMenis.cpp ****         else if(navigation == 1)
 6580              		.loc 12 223 14 view .LVU1712
 224:SynthMenis.cpp ****         {
 225:SynthMenis.cpp ****             synthmenu.Menu1(screen, osc);
 226:SynthMenis.cpp ****         }
 227:SynthMenis.cpp ****         else if(navigation == 2)
 6581              		.loc 12 227 14 view .LVU1713
 6582              	.L374:
 228:SynthMenis.cpp ****         {
 229:SynthMenis.cpp ****             synthmenu.Menu2(screen, osc[0]);
 230:SynthMenis.cpp ****         }
 231:SynthMenis.cpp ****         else if(navigation == 3)
 232:SynthMenis.cpp ****         {
 233:SynthMenis.cpp ****             synthmenu.Menu3(screen, env);
 6583              		.loc 12 233 13 view .LVU1714
 6584              	.LVL549:
 6585              	.LBB1357:
 6586              	.LBI1357:
 6587              		.loc 7 9 7 view .LVU1715
 6588              	.LBB1358:
 6589              	.LBB1359:
 6590              	.LBI1359:
  13:../../libdaisy/src/hid/disp/oled_display.h **** {
 6591              		.loc 6 13 7 view .LVU1716
 6592              	.LBB1360:
 6593              	.LBB1361:
 6594              	.LBB1362:
 6595              	.LBI1362:
 175:../../libdaisy/src/hid/disp/display.h **** {
 6596              		.loc 8 175 7 view .LVU1717
 6597              	.LBB1363:
 6598              	.LBI1363:
  18:../../libdaisy/src/hid/disp/display.h **** {
 6599              		.loc 8 18 7 view .LVU1718
 6600              	.LBB1364:
 6601              	.LBB1365:
 6602 0384 DBF80430 		ldr	r3, [fp, #4]
 6603              	.LBE1365:
 6604              	.LBE1364:
 6605              	.LBE1363:
 6606              	.LBE1362:
  13:../../libdaisy/src/hid/disp/oled_display.h **** {
 6607              		.loc 6 13 7 is_stmt 0 view .LVU1719
 6608 0388 40F20C42 		movw	r2, #1036
 6609 038c 4F49     		ldr	r1, .L400+24
ARM GAS  C:\Users\VINCIU~1\AppData\Local\Temp\ccUTXsQS.s 			page 187


 6610 038e 57A8     		add	r0, sp, #348
 6611              	.LBB1369:
 6612              	.LBB1368:
 6613              	.LBB1367:
 6614              	.LBB1366:
  18:../../libdaisy/src/hid/disp/display.h **** {
 6615              		.loc 8 18 7 view .LVU1720
 6616 0390 5693     		str	r3, [sp, #344]
 6617              	.LVL550:
  18:../../libdaisy/src/hid/disp/display.h **** {
 6618              		.loc 8 18 7 view .LVU1721
 6619              	.LBE1366:
 6620              	.LBE1367:
 6621              	.LBE1368:
 6622              	.LBE1369:
  13:../../libdaisy/src/hid/disp/oled_display.h **** {
 6623              		.loc 6 13 7 view .LVU1722
 6624 0392 FFF7FEFF 		bl	memcpy
 6625              	.LVL551:
  13:../../libdaisy/src/hid/disp/oled_display.h **** {
 6626              		.loc 6 13 7 view .LVU1723
 6627              	.LBE1361:
 6628              	.LBE1360:
 6629              	.LBE1359:
 6630              		.loc 7 9 7 view .LVU1724
 6631 0396 4E4B     		ldr	r3, .L400+28
 6632              	.LBE1358:
 6633              	.LBE1357:
 6634              		.loc 12 233 28 view .LVU1725
 6635 0398 55A9     		add	r1, sp, #340
 6636              	.LVL552:
 6637              		.loc 12 233 28 view .LVU1726
 6638 039a 4E4A     		ldr	r2, .L400+32
 6639 039c 4E48     		ldr	r0, .L400+36
 6640              	.LBB1371:
 6641              	.LBB1370:
 6642              		.loc 7 9 7 view .LVU1727
 6643 039e 5593     		str	r3, [sp, #340]
 6644              	.LVL553:
 6645              		.loc 7 9 7 view .LVU1728
 6646              	.LBE1370:
 6647              	.LBE1371:
 6648              		.loc 12 233 28 view .LVU1729
 6649 03a0 FFF7FEFF 		bl	_ZN5Menus5Menu3E23OledDisplayExtravaganzaPN7daisysp4AdsrE
 6650              	.LVL554:
 6651              	.LBB1372:
 6652              	.LBI1372:
 6653              		.loc 7 9 7 is_stmt 1 view .LVU1730
 6654              	.LBB1373:
 6655              	.LBB1374:
 6656              	.LBI1374:
  17:../../libdaisy/src/hid/disp/oled_display.h **** 
 6657              		.loc 6 17 13 view .LVU1731
 6658              	.LBB1375:
 6659              	.LBI1375:
 179:../../libdaisy/src/hid/disp/display.h **** 
 6660              		.loc 8 179 13 view .LVU1732
ARM GAS  C:\Users\VINCIU~1\AppData\Local\Temp\ccUTXsQS.s 			page 188


 6661              	.LBB1376:
 6662              	.LBI1376:
  22:../../libdaisy/src/hid/disp/display.h **** 
 6663              		.loc 8 22 13 view .LVU1733
 6664              	.L379:
  22:../../libdaisy/src/hid/disp/display.h **** 
 6665              		.loc 8 22 13 is_stmt 0 view .LVU1734
 6666              	.LBE1376:
 6667              	.LBE1375:
 6668              	.LBE1374:
 6669              	.LBE1373:
 6670              	.LBE1372:
 234:SynthMenis.cpp ****         }
 235:SynthMenis.cpp **** 
 236:SynthMenis.cpp **** 
 237:SynthMenis.cpp ****         if(midi.HasEvents())
 6671              		.loc 12 237 9 is_stmt 1 view .LVU1735
 6672              	.LBB1377:
 6673              	.LBI1377:
 132:../../libdaisy/src/hid/midi.h **** 
 6674              		.loc 14 132 10 view .LVU1736
 6675              	.LBB1378:
 6676              	.LBI1378:
  36:../../libdaisy/src/util/ringbuffer.h **** 
 6677              		.loc 19 36 19 view .LVU1737
 6678              	.LBB1379:
  36:../../libdaisy/src/util/ringbuffer.h **** 
 6679              		.loc 19 36 46 is_stmt 0 view .LVU1738
 6680 03a4 D4F88034 		ldr	r3, [r4, #1152]
  36:../../libdaisy/src/util/ringbuffer.h **** 
 6681              		.loc 19 36 59 view .LVU1739
 6682 03a8 D4F87C24 		ldr	r2, [r4, #1148]
 6683              	.LVL555:
  36:../../libdaisy/src/util/ringbuffer.h **** 
 6684              		.loc 19 36 57 view .LVU1740
 6685 03ac 9B1A     		subs	r3, r3, r2
  36:../../libdaisy/src/util/ringbuffer.h **** 
 6686              		.loc 19 36 72 view .LVU1741
 6687 03ae DBB2     		uxtb	r3, r3
 6688              	.LBE1379:
 6689              	.LBE1378:
 6690              	.LBE1377:
 6691              		.loc 12 237 9 view .LVU1742
 6692 03b0 002B     		cmp	r3, #0
 6693 03b2 85D0     		beq	.L382
 6694              	.L383:
 6695              	.LBB1380:
 6696              	.LBB1381:
 6697              	.LBB1382:
  59:../../libdaisy/src/util/ringbuffer.h ****     }
  60:../../libdaisy/src/util/ringbuffer.h **** 
  61:../../libdaisy/src/util/ringbuffer.h ****     /** Reads the first available element from the ring buffer
  62:../../libdaisy/src/util/ringbuffer.h ****     \return read value
  63:../../libdaisy/src/util/ringbuffer.h ****      */
  64:../../libdaisy/src/util/ringbuffer.h ****     inline T Read()
  65:../../libdaisy/src/util/ringbuffer.h ****     {
  66:../../libdaisy/src/util/ringbuffer.h ****         while(!readable())
ARM GAS  C:\Users\VINCIU~1\AppData\Local\Temp\ccUTXsQS.s 			page 189


 6698              		.loc 19 66 24 is_stmt 1 view .LVU1743
 6699              	.LVL556:
 6700              	.LBB1383:
 6701              	.LBI1383:
  36:../../libdaisy/src/util/ringbuffer.h **** 
 6702              		.loc 19 36 19 view .LVU1744
 6703              	.LBB1384:
  36:../../libdaisy/src/util/ringbuffer.h **** 
 6704              		.loc 19 36 46 is_stmt 0 view .LVU1745
 6705 03b4 D4F88034 		ldr	r3, [r4, #1152]
  36:../../libdaisy/src/util/ringbuffer.h **** 
 6706              		.loc 19 36 59 view .LVU1746
 6707 03b8 D4F87C24 		ldr	r2, [r4, #1148]
 6708              	.LVL557:
  36:../../libdaisy/src/util/ringbuffer.h **** 
 6709              		.loc 19 36 57 view .LVU1747
 6710 03bc 9B1A     		subs	r3, r3, r2
  36:../../libdaisy/src/util/ringbuffer.h **** 
 6711              		.loc 19 36 72 view .LVU1748
 6712 03be DBB2     		uxtb	r3, r3
 6713              	.LBE1384:
 6714              	.LBE1383:
 6715              		.loc 19 66 24 view .LVU1749
 6716 03c0 002B     		cmp	r3, #0
 6717 03c2 F7D0     		beq	.L383
 6718              	.LVL558:
 6719              	.LBB1385:
 6720              	.LBI1385:
  67:../../libdaisy/src/util/ringbuffer.h ****             ;
  68:../../libdaisy/src/util/ringbuffer.h ****         return ImmediateRead();
  69:../../libdaisy/src/util/ringbuffer.h ****     }
  70:../../libdaisy/src/util/ringbuffer.h **** 
  71:../../libdaisy/src/util/ringbuffer.h ****     /** Reads next element from ring buffer immediately
  72:../../libdaisy/src/util/ringbuffer.h ****     \return read value
  73:../../libdaisy/src/util/ringbuffer.h ****      */
  74:../../libdaisy/src/util/ringbuffer.h ****     inline T ImmediateRead()
 6721              		.loc 19 74 14 is_stmt 1 view .LVU1750
 6722              	.LBB1386:
  75:../../libdaisy/src/util/ringbuffer.h ****     {
  76:../../libdaisy/src/util/ringbuffer.h ****         size_t r      = read_ptr_;
 6723              		.loc 19 76 16 is_stmt 0 view .LVU1751
 6724 03c4 D4F87C54 		ldr	r5, [r4, #1148]
 6725              	.LVL559:
  77:../../libdaisy/src/util/ringbuffer.h ****         T      result = buffer_[r];
 6726              		.loc 19 77 16 view .LVU1752
 6727 03c8 7422     		movs	r2, #116
 6728              	.LVL560:
 6729              		.loc 19 77 16 view .LVU1753
 6730 03ca 4046     		mov	r0, r8
 6731 03cc 02FB05A1 		mla	r1, r2, r5, r10
  78:../../libdaisy/src/util/ringbuffer.h ****         read_ptr_     = (r + 1) % size;
 6732              		.loc 19 78 28 view .LVU1754
 6733 03d0 0135     		adds	r5, r5, #1
 6734              	.LVL561:
 6735              		.loc 19 78 33 view .LVU1755
 6736 03d2 EDB2     		uxtb	r5, r5
  77:../../libdaisy/src/util/ringbuffer.h ****         T      result = buffer_[r];
ARM GAS  C:\Users\VINCIU~1\AppData\Local\Temp\ccUTXsQS.s 			page 190


 6737              		.loc 19 77 16 view .LVU1756
 6738 03d4 7C31     		adds	r1, r1, #124
 6739 03d6 FFF7FEFF 		bl	memcpy
 6740              	.LVL562:
  77:../../libdaisy/src/util/ringbuffer.h ****         T      result = buffer_[r];
 6741              		.loc 19 77 16 view .LVU1757
 6742              	.LBE1386:
 6743              	.LBE1385:
 6744              	.LBE1382:
 6745              	.LBE1381:
 6746              	.LBE1380:
 238:SynthMenis.cpp ****         {
 239:SynthMenis.cpp ****             HandleMidiMessage(midi.PopEvent());
 6747              		.loc 12 239 30 view .LVU1758
 6748 03da 3CA9     		add	r1, sp, #240
 6749 03dc 6422     		movs	r2, #100
 6750 03de 6846     		mov	r0, sp
 6751              	.LBB1391:
 6752              	.LBB1390:
 6753              	.LBB1389:
 6754              	.LBB1388:
 6755              	.LBB1387:
 6756              		.loc 19 78 23 view .LVU1759
 6757 03e0 C4F87C54 		str	r5, [r4, #1148]
 6758              	.LVL563:
 6759              		.loc 19 78 23 view .LVU1760
 6760              	.LBE1387:
 6761              	.LBE1388:
 6762              	.LBE1389:
 6763              	.LBE1390:
 6764              	.LBE1391:
 6765              		.loc 12 239 30 view .LVU1761
 6766 03e4 FFF7FEFF 		bl	memcpy
 6767              	.LVL564:
 6768 03e8 98E80F00 		ldm	r8, {r0, r1, r2, r3}
 6769 03ec FFF7FEFF 		bl	_Z17HandleMidiMessage9MidiEvent
 6770              	.LVL565:
 6771 03f0 66E7     		b	.L382
 6772              	.L372:
 212:SynthMenis.cpp ****         {
 6773              		.loc 12 212 9 is_stmt 1 view .LVU1762
 6774 03f2 45BB     		cbnz	r5, .L375
 214:SynthMenis.cpp ****             if(count > 1000)
 6775              		.loc 12 214 13 view .LVU1763
 6776              	.LVL566:
 6777              	.LBB1392:
 6778              	.LBI1392:
 6779              		.loc 7 9 7 view .LVU1764
 6780              	.LBB1393:
 6781              	.LBB1394:
 6782              	.LBI1394:
  13:../../libdaisy/src/hid/disp/oled_display.h **** {
 6783              		.loc 6 13 7 view .LVU1765
 6784              	.LBB1395:
 6785              	.LBB1396:
 6786              	.LBB1397:
 6787              	.LBI1397:
ARM GAS  C:\Users\VINCIU~1\AppData\Local\Temp\ccUTXsQS.s 			page 191


 175:../../libdaisy/src/hid/disp/display.h **** {
 6788              		.loc 8 175 7 view .LVU1766
 6789              	.LBB1398:
 6790              	.LBI1398:
  18:../../libdaisy/src/hid/disp/display.h **** {
 6791              		.loc 8 18 7 view .LVU1767
 6792              	.LBB1399:
 6793              	.LBB1400:
 6794 03f4 DBF80430 		ldr	r3, [fp, #4]
 6795              	.LBE1400:
 6796              	.LBE1399:
 6797              	.LBE1398:
 6798              	.LBE1397:
  13:../../libdaisy/src/hid/disp/oled_display.h **** {
 6799              		.loc 6 13 7 is_stmt 0 view .LVU1768
 6800 03f8 40F20C42 		movw	r2, #1036
 6801 03fc 3349     		ldr	r1, .L400+24
 6802 03fe 57A8     		add	r0, sp, #348
 6803              	.LBB1404:
 6804              	.LBB1403:
 6805              	.LBB1402:
 6806              	.LBB1401:
  18:../../libdaisy/src/hid/disp/display.h **** {
 6807              		.loc 8 18 7 view .LVU1769
 6808 0400 5693     		str	r3, [sp, #344]
 6809              	.LVL567:
  18:../../libdaisy/src/hid/disp/display.h **** {
 6810              		.loc 8 18 7 view .LVU1770
 6811              	.LBE1401:
 6812              	.LBE1402:
 6813              	.LBE1403:
 6814              	.LBE1404:
  13:../../libdaisy/src/hid/disp/oled_display.h **** {
 6815              		.loc 6 13 7 view .LVU1771
 6816 0402 FFF7FEFF 		bl	memcpy
 6817              	.LVL568:
  13:../../libdaisy/src/hid/disp/oled_display.h **** {
 6818              		.loc 6 13 7 view .LVU1772
 6819              	.LBE1396:
 6820              	.LBE1395:
 6821              	.LBE1394:
 6822              		.loc 7 9 7 view .LVU1773
 6823 0406 324B     		ldr	r3, .L400+28
 6824              	.LBE1393:
 6825              	.LBE1392:
 214:SynthMenis.cpp ****             if(count > 1000)
 6826              		.loc 12 214 35 view .LVU1774
 6827 0408 55A9     		add	r1, sp, #340
 6828              	.LVL569:
 214:SynthMenis.cpp ****             if(count > 1000)
 6829              		.loc 12 214 35 view .LVU1775
 6830 040a 3348     		ldr	r0, .L400+36
 6831              	.LBB1406:
 6832              	.LBB1405:
 6833              		.loc 7 9 7 view .LVU1776
 6834 040c 5593     		str	r3, [sp, #340]
 6835              	.LVL570:
ARM GAS  C:\Users\VINCIU~1\AppData\Local\Temp\ccUTXsQS.s 			page 192


 6836              		.loc 7 9 7 view .LVU1777
 6837              	.LBE1405:
 6838              	.LBE1406:
 214:SynthMenis.cpp ****             if(count > 1000)
 6839              		.loc 12 214 35 view .LVU1778
 6840 040e FFF7FEFF 		bl	_ZN5Menus12SplashScreenE23OledDisplayExtravaganza
 6841              	.LVL571:
 6842              	.LBB1407:
 6843              	.LBI1407:
 6844              		.loc 7 9 7 is_stmt 1 view .LVU1779
 6845              	.LBB1408:
 6846              	.LBB1409:
 6847              	.LBI1409:
  17:../../libdaisy/src/hid/disp/oled_display.h **** 
 6848              		.loc 6 17 13 view .LVU1780
 6849              	.LBB1410:
 6850              	.LBI1410:
 179:../../libdaisy/src/hid/disp/display.h **** 
 6851              		.loc 8 179 13 view .LVU1781
 6852              	.LBB1411:
 6853              	.LBI1411:
  22:../../libdaisy/src/hid/disp/display.h **** 
 6854              		.loc 8 22 13 view .LVU1782
  22:../../libdaisy/src/hid/disp/display.h **** 
 6855              		.loc 8 22 13 is_stmt 0 view .LVU1783
 6856              	.LBE1411:
 6857              	.LBE1410:
 6858              	.LBE1409:
 6859              	.LBE1408:
 6860              	.LBE1407:
 215:SynthMenis.cpp ****             {
 6861              		.loc 12 215 13 is_stmt 1 view .LVU1784
 215:SynthMenis.cpp ****             {
 6862              		.loc 12 215 22 is_stmt 0 view .LVU1785
 6863 0412 324B     		ldr	r3, .L400+40
 6864 0414 1B68     		ldr	r3, [r3]
 215:SynthMenis.cpp ****             {
 6865              		.loc 12 215 13 view .LVU1786
 6866 0416 B3F57A7F 		cmp	r3, #1000
 6867 041a 30DC     		bgt	.L377
 221:SynthMenis.cpp ****         }
 6868              		.loc 12 221 18 view .LVU1787
 6869 041c 0133     		adds	r3, r3, #1
 6870              	.L378:
 221:SynthMenis.cpp ****         }
 6871              		.loc 12 221 13 is_stmt 1 view .LVU1788
 221:SynthMenis.cpp ****         }
 6872              		.loc 12 221 18 is_stmt 0 view .LVU1789
 6873 041e 2F4A     		ldr	r2, .L400+40
 6874 0420 1360     		str	r3, [r2]
 6875 0422 BFE7     		b	.L379
 6876              	.L393:
 189:SynthMenis.cpp ****         {
 6877              		.loc 12 189 9 is_stmt 1 view .LVU1790
 6878 0424 B5EEC07A 		vcmpe.f32	s14, #0
 6879 0428 0023     		movs	r3, #0
 6880 042a F1EE10FA 		vmrs	APSR_nzcv, FPSCR
ARM GAS  C:\Users\VINCIU~1\AppData\Local\Temp\ccUTXsQS.s 			page 193


 191:SynthMenis.cpp ****         }
 6881              		.loc 12 191 13 view .LVU1791
 191:SynthMenis.cpp ****         }
 6882              		.loc 12 191 34 is_stmt 0 view .LVU1792
 6883 042e 48BF     		it	mi
 6884 0430 3360     		strmi	r3, [r6]	@ float
 6885 0432 51E7     		b	.L367
 6886              	.LVL572:
 6887              	.L396:
 6888              	.LBB1412:
 6889              	.LBB1354:
 123:../../libdaisy/src/hid/midi.h ****             transport_.FlushRx();
 6890              		.loc 14 123 21 view .LVU1793
 6891 0434 8AF80400 		strb	r0, [r10, #4]
 6892              	.LVL573:
 6893              	.LBB1348:
 6894              	.LBI1348:
  63:../../libdaisy/src/hid/midi.h ****     inline void    Tx(uint8_t* buff, size_t size) { uart_.PollTx(buff, size); }
 6895              		.loc 14 63 20 is_stmt 1 view .LVU1794
 6896              	.LBB1349:
  63:../../libdaisy/src/hid/midi.h ****     inline void    Tx(uint8_t* buff, size_t size) { uart_.PollTx(buff, size); }
 6897              		.loc 14 63 32 view .LVU1795
  63:../../libdaisy/src/hid/midi.h ****     inline void    Tx(uint8_t* buff, size_t size) { uart_.PollTx(buff, size); }
 6898              		.loc 14 63 45 is_stmt 0 view .LVU1796
 6899 0438 1F48     		ldr	r0, .L400+4
 6900              	.LVL574:
  63:../../libdaisy/src/hid/midi.h ****     inline void    Tx(uint8_t* buff, size_t size) { uart_.PollTx(buff, size); }
 6901              		.loc 14 63 45 view .LVU1797
 6902 043a FFF7FEFF 		bl	_ZN5daisy11UartHandler7FlushRxEv
 6903              	.LVL575:
  63:../../libdaisy/src/hid/midi.h ****     inline void    Tx(uint8_t* buff, size_t size) { uart_.PollTx(buff, size); }
 6904              		.loc 14 63 45 view .LVU1798
 6905              	.LBE1349:
 6906              	.LBE1348:
 6907              	.LBB1350:
 6908              	.LBI1350:
 105:../../libdaisy/src/hid/midi.h **** 
 6909              		.loc 14 105 10 is_stmt 1 view .LVU1799
 6910              	.LBB1351:
 6911              	.LBB1352:
 6912              	.LBI1352:
  59:../../libdaisy/src/hid/midi.h ****     inline size_t  Readable() { return uart_.Readable(); }
 6913              		.loc 14 59 20 view .LVU1800
 6914              	.LBB1353:
  59:../../libdaisy/src/hid/midi.h ****     inline size_t  Readable() { return uart_.Readable(); }
 6915              		.loc 14 59 32 view .LVU1801
  59:../../libdaisy/src/hid/midi.h ****     inline size_t  Readable() { return uart_.Readable(); }
 6916              		.loc 14 59 45 is_stmt 0 view .LVU1802
 6917 043e 1E48     		ldr	r0, .L400+4
 6918              	.LVL576:
  59:../../libdaisy/src/hid/midi.h ****     inline size_t  Readable() { return uart_.Readable(); }
 6919              		.loc 14 59 45 view .LVU1803
 6920 0440 FFF7FEFF 		bl	_ZN5daisy11UartHandler7StartRxEv
 6921              	.LVL577:
  59:../../libdaisy/src/hid/midi.h ****     inline size_t  Readable() { return uart_.Readable(); }
 6922              		.loc 14 59 45 view .LVU1804
 6923              	.LBE1353:
ARM GAS  C:\Users\VINCIU~1\AppData\Local\Temp\ccUTXsQS.s 			page 194


 6924              	.LBE1352:
 105:../../libdaisy/src/hid/midi.h **** 
 6925              		.loc 14 105 49 view .LVU1805
 6926 0444 86E7     		b	.L371
 6927              	.LVL578:
 6928              	.L375:
 105:../../libdaisy/src/hid/midi.h **** 
 6929              		.loc 14 105 49 view .LVU1806
 6930              	.LBE1351:
 6931              	.LBE1350:
 6932              	.LBE1354:
 6933              	.LBE1412:
 223:SynthMenis.cpp ****         {
 6934              		.loc 12 223 14 is_stmt 1 view .LVU1807
 6935 0446 012D     		cmp	r5, #1
 6936 0448 08D0     		beq	.L376
 227:SynthMenis.cpp ****         {
 6937              		.loc 12 227 14 view .LVU1808
 6938 044a 022D     		cmp	r5, #2
 6939 044c 1CD0     		beq	.L397
 231:SynthMenis.cpp ****         {
 6940              		.loc 12 231 14 view .LVU1809
 6941 044e 032D     		cmp	r5, #3
 6942 0450 A8D1     		bne	.L379
 6943 0452 97E7     		b	.L374
 6944              	.L373:
 206:SynthMenis.cpp ****             {
 6945              		.loc 12 206 13 view .LVU1810
 6946 0454 002D     		cmp	r5, #0
 6947 0456 F6DC     		bgt	.L375
 208:SynthMenis.cpp ****             }
 6948              		.loc 12 208 17 view .LVU1811
 208:SynthMenis.cpp ****             }
 6949              		.loc 12 208 28 is_stmt 0 view .LVU1812
 6950 0458 0123     		movs	r3, #1
 6951 045a 3B60     		str	r3, [r7]
 212:SynthMenis.cpp ****         {
 6952              		.loc 12 212 9 is_stmt 1 view .LVU1813
 223:SynthMenis.cpp ****         {
 6953              		.loc 12 223 14 view .LVU1814
 6954              	.L376:
 225:SynthMenis.cpp ****         }
 6955              		.loc 12 225 13 view .LVU1815
 6956              	.LVL579:
 6957              	.LBB1413:
 6958              	.LBI1413:
 6959              		.loc 7 9 7 view .LVU1816
 6960              	.LBB1414:
 6961              	.LBB1415:
 6962              	.LBI1415:
  13:../../libdaisy/src/hid/disp/oled_display.h **** {
 6963              		.loc 6 13 7 view .LVU1817
 6964              	.LBB1416:
 6965              	.LBB1417:
 6966              	.LBB1418:
 6967              	.LBI1418:
 175:../../libdaisy/src/hid/disp/display.h **** {
ARM GAS  C:\Users\VINCIU~1\AppData\Local\Temp\ccUTXsQS.s 			page 195


 6968              		.loc 8 175 7 view .LVU1818
 6969              	.LBB1419:
 6970              	.LBI1419:
  18:../../libdaisy/src/hid/disp/display.h **** {
 6971              		.loc 8 18 7 view .LVU1819
 6972              	.LBB1420:
 6973              	.LBB1421:
 6974 045c DBF80430 		ldr	r3, [fp, #4]
 6975              	.LBE1421:
 6976              	.LBE1420:
 6977              	.LBE1419:
 6978              	.LBE1418:
  13:../../libdaisy/src/hid/disp/oled_display.h **** {
 6979              		.loc 6 13 7 is_stmt 0 view .LVU1820
 6980 0460 40F20C42 		movw	r2, #1036
 6981 0464 1949     		ldr	r1, .L400+24
 6982 0466 57A8     		add	r0, sp, #348
 6983              	.LBB1425:
 6984              	.LBB1424:
 6985              	.LBB1423:
 6986              	.LBB1422:
  18:../../libdaisy/src/hid/disp/display.h **** {
 6987              		.loc 8 18 7 view .LVU1821
 6988 0468 5693     		str	r3, [sp, #344]
 6989              	.LVL580:
  18:../../libdaisy/src/hid/disp/display.h **** {
 6990              		.loc 8 18 7 view .LVU1822
 6991              	.LBE1422:
 6992              	.LBE1423:
 6993              	.LBE1424:
 6994              	.LBE1425:
  13:../../libdaisy/src/hid/disp/oled_display.h **** {
 6995              		.loc 6 13 7 view .LVU1823
 6996 046a FFF7FEFF 		bl	memcpy
 6997              	.LVL581:
  13:../../libdaisy/src/hid/disp/oled_display.h **** {
 6998              		.loc 6 13 7 view .LVU1824
 6999              	.LBE1417:
 7000              	.LBE1416:
 7001              	.LBE1415:
 7002              		.loc 7 9 7 view .LVU1825
 7003 046e 184B     		ldr	r3, .L400+28
 7004              	.LBE1414:
 7005              	.LBE1413:
 225:SynthMenis.cpp ****         }
 7006              		.loc 12 225 28 view .LVU1826
 7007 0470 55A9     		add	r1, sp, #340
 7008              	.LVL582:
 225:SynthMenis.cpp ****         }
 7009              		.loc 12 225 28 view .LVU1827
 7010 0472 1B4A     		ldr	r2, .L400+44
 7011 0474 1848     		ldr	r0, .L400+36
 7012              	.LBB1427:
 7013              	.LBB1426:
 7014              		.loc 7 9 7 view .LVU1828
 7015 0476 5593     		str	r3, [sp, #340]
 7016              	.LVL583:
ARM GAS  C:\Users\VINCIU~1\AppData\Local\Temp\ccUTXsQS.s 			page 196


 7017              		.loc 7 9 7 view .LVU1829
 7018              	.LBE1426:
 7019              	.LBE1427:
 225:SynthMenis.cpp ****         }
 7020              		.loc 12 225 28 view .LVU1830
 7021 0478 FFF7FEFF 		bl	_ZN5Menus5Menu1E23OledDisplayExtravaganzaPNS_8oscVoiceE
 7022              	.LVL584:
 7023              	.LBB1428:
 7024              	.LBI1428:
 7025              		.loc 7 9 7 is_stmt 1 view .LVU1831
 7026              	.LBB1429:
 7027              	.LBB1430:
 7028              	.LBI1430:
  17:../../libdaisy/src/hid/disp/oled_display.h **** 
 7029              		.loc 6 17 13 view .LVU1832
 7030              	.LBB1431:
 7031              	.LBI1431:
 179:../../libdaisy/src/hid/disp/display.h **** 
 7032              		.loc 8 179 13 view .LVU1833
 7033              	.LBB1432:
 7034              	.LBI1432:
  22:../../libdaisy/src/hid/disp/display.h **** 
 7035              		.loc 8 22 13 view .LVU1834
  22:../../libdaisy/src/hid/disp/display.h **** 
 7036              		.loc 8 22 13 is_stmt 0 view .LVU1835
 7037              	.LBE1432:
 7038              	.LBE1431:
 7039              	.LBE1430:
 7040              	.LBE1429:
 7041              	.LBE1428:
 7042 047c 92E7     		b	.L379
 7043              	.L377:
 217:SynthMenis.cpp ****                 count      = 0;
 7044              		.loc 12 217 17 is_stmt 1 view .LVU1836
 217:SynthMenis.cpp ****                 count      = 0;
 7045              		.loc 12 217 28 is_stmt 0 view .LVU1837
 7046 047e 0123     		movs	r3, #1
 219:SynthMenis.cpp ****             }
 7047              		.loc 12 219 28 view .LVU1838
 7048 0480 89F80050 		strb	r5, [r9]
 217:SynthMenis.cpp ****                 count      = 0;
 7049              		.loc 12 217 28 view .LVU1839
 7050 0484 3B60     		str	r3, [r7]
 218:SynthMenis.cpp ****                 splashInit = false;
 7051              		.loc 12 218 17 is_stmt 1 view .LVU1840
 219:SynthMenis.cpp ****             }
 7052              		.loc 12 219 17 view .LVU1841
 7053 0486 CAE7     		b	.L378
 7054              	.L397:
 229:SynthMenis.cpp ****         }
 7055              		.loc 12 229 13 view .LVU1842
 7056              	.LVL585:
 7057              	.LBB1433:
 7058              	.LBI1433:
 7059              		.loc 7 9 7 view .LVU1843
 7060              	.LBB1434:
 7061              	.LBB1435:
ARM GAS  C:\Users\VINCIU~1\AppData\Local\Temp\ccUTXsQS.s 			page 197


 7062              	.LBI1435:
  13:../../libdaisy/src/hid/disp/oled_display.h **** {
 7063              		.loc 6 13 7 view .LVU1844
 7064              	.LBB1436:
 7065              	.LBB1437:
 7066              	.LBB1438:
 7067              	.LBI1438:
 175:../../libdaisy/src/hid/disp/display.h **** {
 7068              		.loc 8 175 7 view .LVU1845
 7069              	.LBB1439:
 7070              	.LBI1439:
  18:../../libdaisy/src/hid/disp/display.h **** {
 7071              		.loc 8 18 7 view .LVU1846
 7072              	.LBB1440:
 7073              	.LBB1441:
 7074 0488 DBF80430 		ldr	r3, [fp, #4]
 7075              	.LBE1441:
 7076              	.LBE1440:
 7077              	.LBE1439:
 7078              	.LBE1438:
  13:../../libdaisy/src/hid/disp/oled_display.h **** {
 7079              		.loc 6 13 7 is_stmt 0 view .LVU1847
 7080 048c 40F20C42 		movw	r2, #1036
 7081 0490 0E49     		ldr	r1, .L400+24
 7082 0492 57A8     		add	r0, sp, #348
 7083              	.LBB1445:
 7084              	.LBB1444:
 7085              	.LBB1443:
 7086              	.LBB1442:
  18:../../libdaisy/src/hid/disp/display.h **** {
 7087              		.loc 8 18 7 view .LVU1848
 7088 0494 5693     		str	r3, [sp, #344]
 7089              	.LVL586:
  18:../../libdaisy/src/hid/disp/display.h **** {
 7090              		.loc 8 18 7 view .LVU1849
 7091              	.LBE1442:
 7092              	.LBE1443:
 7093              	.LBE1444:
 7094              	.LBE1445:
  13:../../libdaisy/src/hid/disp/oled_display.h **** {
 7095              		.loc 6 13 7 view .LVU1850
 7096 0496 FFF7FEFF 		bl	memcpy
 7097              	.LVL587:
  13:../../libdaisy/src/hid/disp/oled_display.h **** {
 7098              		.loc 6 13 7 view .LVU1851
 7099              	.LBE1437:
 7100              	.LBE1436:
 7101              	.LBE1435:
 7102              		.loc 7 9 7 view .LVU1852
 7103 049a 0D4B     		ldr	r3, .L400+28
 7104              	.LBE1434:
 7105              	.LBE1433:
 229:SynthMenis.cpp ****         }
 7106              		.loc 12 229 42 view .LVU1853
 7107 049c 24A8     		add	r0, sp, #144
 7108 049e 5022     		movs	r2, #80
 7109 04a0 0F49     		ldr	r1, .L400+44
ARM GAS  C:\Users\VINCIU~1\AppData\Local\Temp\ccUTXsQS.s 			page 198


 7110              	.LBB1447:
 7111              	.LBB1446:
 7112              		.loc 7 9 7 view .LVU1854
 7113 04a2 5593     		str	r3, [sp, #340]
 7114              	.LVL588:
 7115              		.loc 7 9 7 view .LVU1855
 7116              	.LBE1446:
 7117              	.LBE1447:
 229:SynthMenis.cpp ****         }
 7118              		.loc 12 229 42 view .LVU1856
 7119 04a4 FFF7FEFF 		bl	memcpy
 7120              	.LVL589:
 229:SynthMenis.cpp ****         }
 7121              		.loc 12 229 28 view .LVU1857
 7122 04a8 24AA     		add	r2, sp, #144
 7123 04aa 55A9     		add	r1, sp, #340
 7124 04ac 0A48     		ldr	r0, .L400+36
 7125 04ae FFF7FEFF 		bl	_ZN5Menus5Menu2E23OledDisplayExtravaganzaNS_8oscVoiceE
 7126              	.LVL590:
 7127              	.LBB1448:
 7128              	.LBI1448:
   8:Menus.h       **** {
   9:Menus.h       ****   public:
  10:Menus.h       ****     struct oscVoice
 7129              		.loc 9 10 12 is_stmt 1 view .LVU1858
 7130              	.LBB1449:
 7131              	.LBB1450:
 7132              	.LBI1450:
  16:../../DaisySP/Source/Synthesis/oscillator.h ****     /** Choices for output waveforms, POLYBLEP are appropriately labeled. Others are naive forms.
 7133              		.loc 15 16 5 view .LVU1859
  16:../../DaisySP/Source/Synthesis/oscillator.h ****     /** Choices for output waveforms, POLYBLEP are appropriately labeled. Others are naive forms.
 7134              		.loc 15 16 5 is_stmt 0 view .LVU1860
 7135              	.LBE1450:
 7136              	.LBB1451:
 7137              	.LBI1451:
  16:../../DaisySP/Source/Synthesis/oscillator.h ****     /** Choices for output waveforms, POLYBLEP are appropriately labeled. Others are naive forms.
 7138              		.loc 15 16 5 is_stmt 1 view .LVU1861
  16:../../DaisySP/Source/Synthesis/oscillator.h ****     /** Choices for output waveforms, POLYBLEP are appropriately labeled. Others are naive forms.
 7139              		.loc 15 16 5 is_stmt 0 view .LVU1862
 7140              	.LBE1451:
 7141              	.LBE1449:
 7142              	.LBE1448:
 7143              	.LBB1452:
 7144              	.LBI1452:
 7145              		.loc 7 9 7 is_stmt 1 view .LVU1863
 7146              	.LBB1453:
 7147              	.LBB1454:
 7148              	.LBI1454:
  17:../../libdaisy/src/hid/disp/oled_display.h **** 
 7149              		.loc 6 17 13 view .LVU1864
 7150              	.LBB1455:
 7151              	.LBI1455:
 179:../../libdaisy/src/hid/disp/display.h **** 
 7152              		.loc 8 179 13 view .LVU1865
 7153              	.LBB1456:
 7154              	.LBI1456:
  22:../../libdaisy/src/hid/disp/display.h **** 
ARM GAS  C:\Users\VINCIU~1\AppData\Local\Temp\ccUTXsQS.s 			page 199


 7155              		.loc 8 22 13 view .LVU1866
  22:../../libdaisy/src/hid/disp/display.h **** 
 7156              		.loc 8 22 13 is_stmt 0 view .LVU1867
 7157              	.LBE1456:
 7158              	.LBE1455:
 7159              	.LBE1454:
 7160              	.LBE1453:
 7161              	.LBE1452:
 7162 04b2 77E7     		b	.L379
 7163              	.L401:
 7164              		.align	2
 7165              	.L400:
 7166 04b4 00000000 		.word	midi
 7167 04b8 94740000 		.word	midi+29844
 7168 04bc 4C000000 		.word	.LANCHOR2+76
 7169 04c0 5C000000 		.word	.LANCHOR2+92
 7170 04c4 0C000000 		.word	.LANCHOR2+12
 7171 04c8 2C000000 		.word	.LANCHOR2+44
 7172 04cc 08000000 		.word	.LANCHOR12+8
 7173 04d0 08000000 		.word	_ZTV23OledDisplayExtravaganza+8
 7174 04d4 00000000 		.word	.LANCHOR1
 7175 04d8 00000000 		.word	.LANCHOR2
 7176 04dc 00000000 		.word	.LANCHOR16
 7177 04e0 00000000 		.word	.LANCHOR3
 7178              		.cfi_endproc
 7179              	.LFE4042:
 7181              		.section	.text.startup._GLOBAL__sub_I_synthmenu,"ax",%progbits
 7182              		.align	1
 7183              		.p2align 2,,3
 7184              		.syntax unified
 7185              		.thumb
 7186              		.thumb_func
 7187              		.fpu fpv5-d16
 7189              	_GLOBAL__sub_I_synthmenu:
 7190              	.LFB4657:
 240:SynthMenis.cpp ****         }
 241:SynthMenis.cpp ****      
 242:SynthMenis.cpp ****     }
 243:SynthMenis.cpp **** }
 7191              		.loc 12 243 1 is_stmt 1 view -0
 7192              		.cfi_startproc
 7193              		@ args = 0, pretend = 0, frame = 0
 7194              		@ frame_needed = 0, uses_anonymous_args = 0
 7195              	.LBB1500:
 7196              	.LBI1500:
 7197              		.loc 12 243 1 view .LVU1869
 7198              	.LVL591:
 7199              		.loc 12 243 1 is_stmt 0 view .LVU1870
 7200              	.LBE1500:
 7201 0000 70B5     		push	{r4, r5, r6, lr}
 7202              		.cfi_def_cfa_offset 16
 7203              		.cfi_offset 4, -16
 7204              		.cfi_offset 5, -12
 7205              		.cfi_offset 6, -8
 7206              		.cfi_offset 14, -4
 7207              	.LBB1578:
 7208              	.LBB1501:
ARM GAS  C:\Users\VINCIU~1\AppData\Local\Temp\ccUTXsQS.s 			page 200


  13:SynthMenis.cpp **** DaisySeed                              hw;
 7209              		.loc 12 13 40 view .LVU1871
 7210 0002 3548     		ldr	r0, .L406
 7211              	.LBB1502:
 7212              	.LBB1503:
 7213              	.LBB1504:
 7214              	.LBB1505:
 7215              	.LBB1506:
  62:../../libdaisy/src/hid/audio.h ****     ~AudioHandle() {}
 7216              		.loc 5 62 35 view .LVU1872
 7217 0004 0024     		movs	r4, #0
 7218              	.LBE1506:
 7219              	.LBE1505:
 7220              	.LBE1504:
 7221              	.LBE1503:
 7222              	.LBE1502:
  13:SynthMenis.cpp **** DaisySeed                              hw;
 7223              		.loc 12 13 40 view .LVU1873
 7224 0006 FFF7FEFF 		bl	_ZN5MenusC1Ev
 7225              	.LVL592:
 7226 000a 344A     		ldr	r2, .L406+4
 7227 000c 3449     		ldr	r1, .L406+8
 7228 000e 3248     		ldr	r0, .L406
 7229 0010 FFF7FEFF 		bl	__aeabi_atexit
 7230              	.LVL593:
 7231              	.LBB1521:
 7232              	.LBI1502:
  21:../../libdaisy/src/daisy_seed.h ****     ~DaisySeed() {}
 7233              		.loc 1 21 5 is_stmt 1 view .LVU1874
 7234              	.LBB1519:
 7235              	.LBB1511:
 7236              	.LBI1504:
  62:../../libdaisy/src/hid/audio.h ****     ~AudioHandle() {}
 7237              		.loc 5 62 5 view .LVU1875
 7238              	.LBB1509:
 7239              	.LBB1507:
  62:../../libdaisy/src/hid/audio.h ****     ~AudioHandle() {}
 7240              		.loc 5 62 35 is_stmt 0 view .LVU1876
 7241 0014 3348     		ldr	r0, .L406+12
 7242              	.LBE1507:
 7243              	.LBE1509:
 7244              	.LBE1511:
 7245              	.LBE1519:
 7246              	.LBE1521:
  14:SynthMenis.cpp **** OledDisplayExtravaganza                screen;
 7247              		.loc 12 14 40 view .LVU1877
 7248 0016 314A     		ldr	r2, .L406+4
 7249 0018 3349     		ldr	r1, .L406+16
 7250              	.LBB1522:
 7251              	.LBB1520:
 7252              	.LBB1512:
 7253              	.LBB1510:
 7254              	.LBB1508:
  62:../../libdaisy/src/hid/audio.h ****     ~AudioHandle() {}
 7255              		.loc 5 62 35 view .LVU1878
 7256 001a 4461     		str	r4, [r0, #20]
 7257              	.LVL594:
ARM GAS  C:\Users\VINCIU~1\AppData\Local\Temp\ccUTXsQS.s 			page 201


  62:../../libdaisy/src/hid/audio.h ****     ~AudioHandle() {}
 7258              		.loc 5 62 35 view .LVU1879
 7259              	.LBE1508:
 7260              	.LBE1510:
 7261              	.LBE1512:
 7262              	.LBB1513:
 7263              	.LBI1513:
  84:../../libdaisy/src/per/adc.h ****     ~AdcHandle() {}
 7264              		.loc 4 84 5 is_stmt 1 view .LVU1880
  84:../../libdaisy/src/per/adc.h ****     ~AdcHandle() {}
 7265              		.loc 4 84 5 is_stmt 0 view .LVU1881
 7266              	.LBE1513:
 7267              	.LBB1514:
 7268              	.LBI1514:
 7269              		.file 21 "../../libdaisy/src/per/dac.h"
   1:../../libdaisy/src/per/dac.h **** #pragma once
   2:../../libdaisy/src/per/dac.h **** #ifndef DSY_DAC_H
   3:../../libdaisy/src/per/dac.h **** #define DSY_DAC_H
   4:../../libdaisy/src/per/dac.h **** 
   5:../../libdaisy/src/per/dac.h **** #include "daisy_core.h"
   6:../../libdaisy/src/per/dac.h **** 
   7:../../libdaisy/src/per/dac.h **** namespace daisy
   8:../../libdaisy/src/per/dac.h **** {
   9:../../libdaisy/src/per/dac.h **** /** DAC handle for Built-in DAC Peripheral 
  10:../../libdaisy/src/per/dac.h ****  ** 
  11:../../libdaisy/src/per/dac.h ****  ** For now only Normal Mode is supported,
  12:../../libdaisy/src/per/dac.h ****  ** Sample and hold mode provides reduced power consumption, but requires a bit more setup.
  13:../../libdaisy/src/per/dac.h ****  **
  14:../../libdaisy/src/per/dac.h ****  ** For now connecting the DAC through other internal periphearls is also not supported.
  15:../../libdaisy/src/per/dac.h ****  **
  16:../../libdaisy/src/per/dac.h ****  ** Since the DAC channels have dedicated pins we don't need to pass in a pin config like with
  17:../../libdaisy/src/per/dac.h ****  ** other modules. However, it is still important to not try to use the DAC pins for anything else.
  18:../../libdaisy/src/per/dac.h ****  ** DAC Channel 1 is on PA4, and DAC Channel 2 is on PA5
  19:../../libdaisy/src/per/dac.h ****  ***/
  20:../../libdaisy/src/per/dac.h **** class DacHandle
  21:../../libdaisy/src/per/dac.h **** {
  22:../../libdaisy/src/per/dac.h ****   public:
  23:../../libdaisy/src/per/dac.h ****     /** Return Values for the DacHandle class */
  24:../../libdaisy/src/per/dac.h ****     enum class Result
  25:../../libdaisy/src/per/dac.h ****     {
  26:../../libdaisy/src/per/dac.h ****         OK,
  27:../../libdaisy/src/per/dac.h ****         ERR,
  28:../../libdaisy/src/per/dac.h ****     };
  29:../../libdaisy/src/per/dac.h **** 
  30:../../libdaisy/src/per/dac.h ****     /** Selects which channel(s) will be configured for use. */
  31:../../libdaisy/src/per/dac.h ****     enum class Channel
  32:../../libdaisy/src/per/dac.h ****     {
  33:../../libdaisy/src/per/dac.h ****         ONE,
  34:../../libdaisy/src/per/dac.h ****         TWO,
  35:../../libdaisy/src/per/dac.h ****         BOTH,
  36:../../libdaisy/src/per/dac.h ****     };
  37:../../libdaisy/src/per/dac.h **** 
  38:../../libdaisy/src/per/dac.h ****     /** Sets the Mode for the DAC channels.
  39:../../libdaisy/src/per/dac.h ****      **
  40:../../libdaisy/src/per/dac.h ****      ** Polling mode uses the blocking mode to transmit a single value at a time.
  41:../../libdaisy/src/per/dac.h ****      **
  42:../../libdaisy/src/per/dac.h ****      ** DMA mode uses a buffer, and periodically transmits it triggering a 
ARM GAS  C:\Users\VINCIU~1\AppData\Local\Temp\ccUTXsQS.s 			page 202


  43:../../libdaisy/src/per/dac.h ****      ** callback to fill the buffer when it is ready for more samples.
  44:../../libdaisy/src/per/dac.h ****      ***/
  45:../../libdaisy/src/per/dac.h ****     enum class Mode
  46:../../libdaisy/src/per/dac.h ****     {
  47:../../libdaisy/src/per/dac.h ****         POLLING,
  48:../../libdaisy/src/per/dac.h ****         DMA,
  49:../../libdaisy/src/per/dac.h ****     };
  50:../../libdaisy/src/per/dac.h **** 
  51:../../libdaisy/src/per/dac.h ****     /** Sets the number of bits per sample transmitted out of the DAC.
  52:../../libdaisy/src/per/dac.h ****      ** The output range will be: 0V - VDDA
  53:../../libdaisy/src/per/dac.h ****      ** The resolution will be roughly: bitdepth / (VDDA - 0V) 
  54:../../libdaisy/src/per/dac.h ****      ***/
  55:../../libdaisy/src/per/dac.h ****     enum class BitDepth
  56:../../libdaisy/src/per/dac.h ****     {
  57:../../libdaisy/src/per/dac.h ****         BITS_8,
  58:../../libdaisy/src/per/dac.h ****         BITS_12
  59:../../libdaisy/src/per/dac.h ****     };
  60:../../libdaisy/src/per/dac.h **** 
  61:../../libdaisy/src/per/dac.h ****     /** Sets whether the DAC output is buffered for higher drive ability. */
  62:../../libdaisy/src/per/dac.h ****     enum class BufferState
  63:../../libdaisy/src/per/dac.h ****     {
  64:../../libdaisy/src/per/dac.h ****         ENABLED,
  65:../../libdaisy/src/per/dac.h ****         DISABLED,
  66:../../libdaisy/src/per/dac.h ****     };
  67:../../libdaisy/src/per/dac.h **** 
  68:../../libdaisy/src/per/dac.h ****     /** Configuration structure for initializing the DAC structure. */
  69:../../libdaisy/src/per/dac.h ****     struct Config
  70:../../libdaisy/src/per/dac.h ****     {
  71:../../libdaisy/src/per/dac.h ****         /** Target Samplerate in Hz used to configure the internal 
  72:../../libdaisy/src/per/dac.h ****          ** timebase for DMA mode. Does nothing in POLLING mode.
  73:../../libdaisy/src/per/dac.h ****          ** If the value is 0 at Init time this will default to 48000Hz 
  74:../../libdaisy/src/per/dac.h ****          ** otherwise the driver will attempt meet the target.*/
  75:../../libdaisy/src/per/dac.h ****         uint32_t target_samplerate;
  76:../../libdaisy/src/per/dac.h **** 
  77:../../libdaisy/src/per/dac.h ****         Channel     chn;
  78:../../libdaisy/src/per/dac.h ****         Mode        mode;
  79:../../libdaisy/src/per/dac.h ****         BitDepth    bitdepth;
  80:../../libdaisy/src/per/dac.h ****         BufferState buff_state;
  81:../../libdaisy/src/per/dac.h ****     };
  82:../../libdaisy/src/per/dac.h **** 
  83:../../libdaisy/src/per/dac.h ****     DacHandle() : pimpl_(nullptr) {}
 7270              		.loc 21 83 5 is_stmt 1 view .LVU1882
 7271              	.LBB1515:
 7272              	.LBB1516:
 7273              		.loc 21 83 33 is_stmt 0 view .LVU1883
 7274 001c 0462     		str	r4, [r0, #32]
 7275              	.LVL595:
 7276              		.loc 21 83 33 view .LVU1884
 7277              	.LBE1516:
 7278              	.LBE1515:
 7279              	.LBE1514:
 7280              	.LBB1517:
 7281              	.LBI1517:
  40:../../libdaisy/src/hid/usb.h **** 
 7282              		.loc 3 40 5 is_stmt 1 view .LVU1885
  40:../../libdaisy/src/hid/usb.h **** 
 7283              		.loc 3 40 5 is_stmt 0 view .LVU1886
ARM GAS  C:\Users\VINCIU~1\AppData\Local\Temp\ccUTXsQS.s 			page 203


 7284              	.LBE1517:
 7285              	.LBB1518:
 7286              	.LBI1518:
  58:../../libdaisy/src/sys/system.h ****     ~System() {}
 7287              		.loc 2 58 5 is_stmt 1 view .LVU1887
  58:../../libdaisy/src/sys/system.h ****     ~System() {}
 7288              		.loc 2 58 5 is_stmt 0 view .LVU1888
 7289              	.LBE1518:
 7290              	.LBE1520:
 7291              	.LBE1522:
  14:SynthMenis.cpp **** OledDisplayExtravaganza                screen;
 7292              		.loc 12 14 40 view .LVU1889
 7293 001e FFF7FEFF 		bl	__aeabi_atexit
 7294              	.LVL596:
  15:SynthMenis.cpp **** const int                              height = screen.Height();
 7295              		.loc 12 15 40 view .LVU1890
 7296 0022 3248     		ldr	r0, .L406+20
 7297 0024 FFF7FEFF 		bl	_ZN23OledDisplayExtravaganzaC1Ev
 7298              	.LVL597:
 7299 0028 2C4A     		ldr	r2, .L406+4
 7300 002a 3149     		ldr	r1, .L406+24
 7301 002c 2F48     		ldr	r0, .L406+20
 7302 002e FFF7FEFF 		bl	__aeabi_atexit
 7303              	.LVL598:
  19:SynthMenis.cpp **** Line                                   line[poly];
 7304              		.loc 12 19 48 is_stmt 1 view .LVU1891
  19:SynthMenis.cpp **** Line                                   line[poly];
 7305              		.loc 12 19 40 is_stmt 0 view .LVU1892
 7306 0032 2A4A     		ldr	r2, .L406+4
 7307 0034 2F49     		ldr	r1, .L406+28
 7308 0036 2046     		mov	r0, r4
 7309 0038 FFF7FEFF 		bl	__aeabi_atexit
 7310              	.LVL599:
  20:SynthMenis.cpp **** Adsr                                   env[poly];
 7311              		.loc 12 20 49 is_stmt 1 view .LVU1893
  20:SynthMenis.cpp **** Adsr                                   env[poly];
 7312              		.loc 12 20 40 is_stmt 0 view .LVU1894
 7313 003c 274A     		ldr	r2, .L406+4
 7314 003e 2E49     		ldr	r1, .L406+32
 7315 0040 2046     		mov	r0, r4
 7316 0042 FFF7FEFF 		bl	__aeabi_atexit
 7317              	.LVL600:
  21:SynthMenis.cpp **** bool                                   gate[poly];
 7318              		.loc 12 21 48 is_stmt 1 view .LVU1895
 7319 0046 2D4B     		ldr	r3, .L406+36
 7320 0048 03F5F070 		add	r0, r3, #480
 7321              	.L403:
 7322              	.LVL601:
 7323              	.LBB1523:
 7324              	.LBI1523:
  36:../../DaisySP/Source/Control/adsr.h ****     ~Adsr() {}
 7325              		.loc 20 36 5 view .LVU1896
 7326              	.LBE1523:
  21:SynthMenis.cpp **** bool                                   gate[poly];
 7327              		.loc 12 21 48 is_stmt 0 view .LVU1897
 7328 004c 3033     		adds	r3, r3, #48
 7329              	.LVL602:
ARM GAS  C:\Users\VINCIU~1\AppData\Local\Temp\ccUTXsQS.s 			page 204


 7330              	.LBB1526:
 7331              	.LBB1524:
  36:../../DaisySP/Source/Control/adsr.h ****     ~Adsr() {}
 7332              		.loc 20 36 12 view .LVU1898
 7333 004e 0022     		movs	r2, #0
 7334 0050 2B49     		ldr	r1, .L406+40
 7335 0052 0024     		movs	r4, #0
 7336              	.LBE1524:
 7337              	.LBE1526:
  21:SynthMenis.cpp **** bool                                   gate[poly];
 7338              		.loc 12 21 48 view .LVU1899
 7339 0054 8342     		cmp	r3, r0
 7340              	.LBB1527:
 7341              	.LBB1525:
  36:../../DaisySP/Source/Control/adsr.h ****     ~Adsr() {}
 7342              		.loc 20 36 12 view .LVU1900
 7343 0056 43F8302C 		str	r2, [r3, #-48]	@ float
 7344 005a 43F82C2C 		str	r2, [r3, #-44]	@ float
 7345 005e 43F8281C 		str	r1, [r3, #-40]	@ float
 7346 0062 43F8242C 		str	r2, [r3, #-36]	@ float
 7347 0066 43F8201C 		str	r1, [r3, #-32]	@ float
 7348 006a 43F81C1C 		str	r1, [r3, #-28]	@ float
 7349 006e 43F8181C 		str	r1, [r3, #-24]	@ float
 7350 0072 43F8142C 		str	r2, [r3, #-20]	@ float
 7351 0076 43F8102C 		str	r2, [r3, #-16]	@ float
 7352 007a 43F80C2C 		str	r2, [r3, #-12]	@ float
 7353 007e 03F8044C 		strb	r4, [r3, #-4]
 7354 0082 03F8034C 		strb	r4, [r3, #-3]
 7355              	.LVL603:
  36:../../DaisySP/Source/Control/adsr.h ****     ~Adsr() {}
 7356              		.loc 20 36 12 view .LVU1901
 7357              	.LBE1525:
 7358              	.LBE1527:
  21:SynthMenis.cpp **** bool                                   gate[poly];
 7359              		.loc 12 21 48 is_stmt 1 view .LVU1902
  21:SynthMenis.cpp **** bool                                   gate[poly];
 7360              		.loc 12 21 48 view .LVU1903
 7361 0086 E1D1     		bne	.L403
  21:SynthMenis.cpp **** bool                                   gate[poly];
 7362              		.loc 12 21 40 is_stmt 0 view .LVU1904
 7363 0088 144A     		ldr	r2, .L406+4
 7364 008a 2046     		mov	r0, r4
 7365 008c 1D49     		ldr	r1, .L406+44
 7366 008e FFF7FEFF 		bl	__aeabi_atexit
 7367              	.LVL604:
 7368              	.LBB1528:
 7369              	.LBI1528:
  81:../../libdaisy/src/hid/midi.h ****     ~MidiHandler() {}
 7370              		.loc 14 81 5 is_stmt 1 view .LVU1905
 7371              	.LBB1529:
 7372              	.LBB1530:
 7373              	.LBB1531:
 7374              	.LBI1531:
 7375              		.file 22 "../../libdaisy/src/per/uart.h"
   1:../../libdaisy/src/per/uart.h **** /* 
   2:../../libdaisy/src/per/uart.h **** TODO
   3:../../libdaisy/src/per/uart.h **** - Add flexible config for:
ARM GAS  C:\Users\VINCIU~1\AppData\Local\Temp\ccUTXsQS.s 			page 205


   4:../../libdaisy/src/per/uart.h ****   - data size, stop bits, parity, baud, etc.
   5:../../libdaisy/src/per/uart.h ****   - dma vs interrupt (or not).
   6:../../libdaisy/src/per/uart.h ****   - Error handling
   7:../../libdaisy/src/per/uart.h **** - Transmit function improvements.
   8:../../libdaisy/src/per/uart.h **** - Other UART Peripherals (currently only handles USART1 in UART mode.
   9:../../libdaisy/src/per/uart.h **** - Overflow handling, etc. for Rx Queue.
  10:../../libdaisy/src/per/uart.h **** */
  11:../../libdaisy/src/per/uart.h **** 
  12:../../libdaisy/src/per/uart.h **** #pragma once
  13:../../libdaisy/src/per/uart.h **** #ifndef DSY_UART_H
  14:../../libdaisy/src/per/uart.h **** #define DSY_UART_H /**< macro */
  15:../../libdaisy/src/per/uart.h **** #include "daisy_core.h"
  16:../../libdaisy/src/per/uart.h **** 
  17:../../libdaisy/src/per/uart.h **** 
  18:../../libdaisy/src/per/uart.h **** namespace daisy
  19:../../libdaisy/src/per/uart.h **** {
  20:../../libdaisy/src/per/uart.h **** /** @addtogroup serial
  21:../../libdaisy/src/per/uart.h ****     @{
  22:../../libdaisy/src/per/uart.h ****     */
  23:../../libdaisy/src/per/uart.h **** 
  24:../../libdaisy/src/per/uart.h **** /** 
  25:../../libdaisy/src/per/uart.h ****     Uart Peripheral
  26:../../libdaisy/src/per/uart.h ****     @author shensley
  27:../../libdaisy/src/per/uart.h ****     @date March 2020
  28:../../libdaisy/src/per/uart.h ****     */
  29:../../libdaisy/src/per/uart.h **** class UartHandler
  30:../../libdaisy/src/per/uart.h **** {
  31:../../libdaisy/src/per/uart.h ****   public:
  32:../../libdaisy/src/per/uart.h ****     struct Config
  33:../../libdaisy/src/per/uart.h ****     {
  34:../../libdaisy/src/per/uart.h ****         enum class Peripheral
  35:../../libdaisy/src/per/uart.h ****         {
  36:../../libdaisy/src/per/uart.h ****             USART_1,
  37:../../libdaisy/src/per/uart.h ****             USART_2,
  38:../../libdaisy/src/per/uart.h ****             USART_3,
  39:../../libdaisy/src/per/uart.h ****             UART_4,
  40:../../libdaisy/src/per/uart.h ****             UART_5,
  41:../../libdaisy/src/per/uart.h ****             USART_6,
  42:../../libdaisy/src/per/uart.h ****             UART_7,
  43:../../libdaisy/src/per/uart.h ****             UART_8,
  44:../../libdaisy/src/per/uart.h ****             LPUART_1,
  45:../../libdaisy/src/per/uart.h ****         };
  46:../../libdaisy/src/per/uart.h **** 
  47:../../libdaisy/src/per/uart.h ****         enum class StopBits
  48:../../libdaisy/src/per/uart.h ****         {
  49:../../libdaisy/src/per/uart.h ****             BITS_0_5,
  50:../../libdaisy/src/per/uart.h ****             BITS_1,
  51:../../libdaisy/src/per/uart.h ****             BITS_1_5,
  52:../../libdaisy/src/per/uart.h ****             BITS_2,
  53:../../libdaisy/src/per/uart.h ****         };
  54:../../libdaisy/src/per/uart.h **** 
  55:../../libdaisy/src/per/uart.h ****         enum class Parity
  56:../../libdaisy/src/per/uart.h ****         {
  57:../../libdaisy/src/per/uart.h ****             NONE,
  58:../../libdaisy/src/per/uart.h ****             EVEN,
  59:../../libdaisy/src/per/uart.h ****             ODD,
  60:../../libdaisy/src/per/uart.h ****         };
ARM GAS  C:\Users\VINCIU~1\AppData\Local\Temp\ccUTXsQS.s 			page 206


  61:../../libdaisy/src/per/uart.h **** 
  62:../../libdaisy/src/per/uart.h ****         enum class Mode
  63:../../libdaisy/src/per/uart.h ****         {
  64:../../libdaisy/src/per/uart.h ****             RX,
  65:../../libdaisy/src/per/uart.h ****             TX,
  66:../../libdaisy/src/per/uart.h ****             TX_RX,
  67:../../libdaisy/src/per/uart.h ****         };
  68:../../libdaisy/src/per/uart.h **** 
  69:../../libdaisy/src/per/uart.h ****         enum class WordLength
  70:../../libdaisy/src/per/uart.h ****         {
  71:../../libdaisy/src/per/uart.h ****             BITS_7,
  72:../../libdaisy/src/per/uart.h ****             BITS_8,
  73:../../libdaisy/src/per/uart.h ****             BITS_9,
  74:../../libdaisy/src/per/uart.h ****         };
  75:../../libdaisy/src/per/uart.h **** 
  76:../../libdaisy/src/per/uart.h ****         struct
  77:../../libdaisy/src/per/uart.h ****         {
  78:../../libdaisy/src/per/uart.h ****             dsy_gpio_pin tx; /**< & */
  79:../../libdaisy/src/per/uart.h ****             dsy_gpio_pin rx; /**< & */
  80:../../libdaisy/src/per/uart.h ****         } pin_config;        /**< & */
  81:../../libdaisy/src/per/uart.h **** 
  82:../../libdaisy/src/per/uart.h ****         Peripheral periph;
  83:../../libdaisy/src/per/uart.h ****         StopBits   stopbits;
  84:../../libdaisy/src/per/uart.h ****         Parity     parity;
  85:../../libdaisy/src/per/uart.h ****         Mode       mode;
  86:../../libdaisy/src/per/uart.h ****         WordLength wordlength;
  87:../../libdaisy/src/per/uart.h ****         uint32_t   baudrate;
  88:../../libdaisy/src/per/uart.h ****     };
  89:../../libdaisy/src/per/uart.h **** 
  90:../../libdaisy/src/per/uart.h **** 
  91:../../libdaisy/src/per/uart.h ****     UartHandler() : pimpl_(nullptr) {}
 7376              		.loc 22 91 5 view .LVU1906
 7377              	.LBB1532:
 7378              	.LBB1533:
 7379              		.loc 22 91 35 is_stmt 0 view .LVU1907
 7380 0092 1D48     		ldr	r0, .L406+48
 7381              	.LBE1533:
 7382              	.LBE1532:
 7383              	.LBE1531:
 7384              	.LBB1536:
 7385              	.LBB1537:
 7386              	.LBB1538:
 7387              	.LBB1539:
  35:../../libdaisy/src/hid/midi.h ****             tx     = {DSY_GPIOB, 6};
 7388              		.loc 14 35 20 view .LVU1908
 7389 0094 1D4A     		ldr	r2, .L406+52
  34:../../libdaisy/src/hid/midi.h ****             rx     = {DSY_GPIOB, 7};
 7390              		.loc 14 34 20 view .LVU1909
 7391 0096 00F5E043 		add	r3, r0, #28672
 7392              	.LBE1539:
 7393              	.LBE1538:
 7394              	.LBE1537:
 7395              	.LBE1536:
 7396              	.LBE1530:
 7397              	.LBE1529:
 7398              	.LBE1528:
  23:SynthMenis.cpp **** MidiHandler<MidiUartTransport>::Config midi_cfg;
ARM GAS  C:\Users\VINCIU~1\AppData\Local\Temp\ccUTXsQS.s 			page 207


 7399              		.loc 12 23 40 view .LVU1910
 7400 009a 1D49     		ldr	r1, .L406+56
 7401              	.LBB1572:
 7402              	.LBB1570:
 7403              	.LBB1568:
 7404              	.LBB1555:
 7405              	.LBB1550:
 7406              	.LBB1545:
 7407              	.LBB1540:
  35:../../libdaisy/src/hid/midi.h ****             tx     = {DSY_GPIOB, 6};
 7408              		.loc 14 35 20 view .LVU1911
 7409 009c 1688     		ldrh	r6, [r2]
  36:../../libdaisy/src/hid/midi.h ****         }
 7410              		.loc 14 36 20 view .LVU1912
 7411 009e 9588     		ldrh	r5, [r2, #4]
 7412              	.LBE1540:
 7413              	.LBE1545:
 7414              	.LBE1550:
 7415              	.LBE1555:
  81:../../libdaisy/src/hid/midi.h ****     ~MidiHandler() {}
 7416              		.loc 14 81 19 view .LVU1913
 7417 00a0 1C4A     		ldr	r2, .L406+60
 7418              	.LBB1556:
 7419              	.LBB1551:
 7420              	.LBB1546:
 7421              	.LBB1541:
  34:../../libdaisy/src/hid/midi.h ****             rx     = {DSY_GPIOB, 7};
 7422              		.loc 14 34 20 view .LVU1914
 7423 00a2 C3F88C44 		str	r4, [r3, #1164]
 7424              	.LBE1541:
 7425              	.LBE1546:
 7426              	.LBE1551:
 7427              	.LBE1556:
  81:../../libdaisy/src/hid/midi.h ****     ~MidiHandler() {}
 7428              		.loc 14 81 19 view .LVU1915
 7429 00a6 C3F89824 		str	r2, [r3, #1176]
 7430 00aa 4FF60F02 		movw	r2, #63503
 7431              	.LBB1557:
 7432              	.LBB1552:
 7433              	.LBB1547:
 7434              	.LBB1542:
  35:../../libdaisy/src/hid/midi.h ****             tx     = {DSY_GPIOB, 6};
 7435              		.loc 14 35 20 view .LVU1916
 7436 00ae A3F89064 		strh	r6, [r3, #1168]	@ movhi
 7437              	.LBE1542:
 7438              	.LBE1547:
 7439              	.LBE1552:
 7440              	.LBE1557:
  81:../../libdaisy/src/hid/midi.h ****     ~MidiHandler() {}
 7441              		.loc 14 81 19 view .LVU1917
 7442 00b2 A3F89C24 		strh	r2, [r3, #1180]	@ movhi
 7443 00b6 0722     		movs	r2, #7
 7444              	.LBB1558:
 7445              	.LBB1553:
 7446              	.LBB1548:
 7447              	.LBB1543:
  36:../../libdaisy/src/hid/midi.h ****         }
ARM GAS  C:\Users\VINCIU~1\AppData\Local\Temp\ccUTXsQS.s 			page 208


 7448              		.loc 14 36 20 view .LVU1918
 7449 00b8 A3F89254 		strh	r5, [r3, #1170]	@ movhi
 7450              	.LBE1543:
 7451              	.LBE1548:
 7452              	.LBE1553:
 7453              	.LBE1558:
  81:../../libdaisy/src/hid/midi.h ****     ~MidiHandler() {}
 7454              		.loc 14 81 19 view .LVU1919
 7455 00bc 83F89E24 		strb	r2, [r3, #1182]
 7456              	.LBB1559:
 7457              	.LBB1560:
 7458              	.LBB1561:
 7459              	.LBB1562:
 7460              		.loc 22 91 35 view .LVU1920
 7461 00c0 C3F89444 		str	r4, [r3, #1172]
 7462              	.LBE1562:
 7463              	.LBE1561:
 7464              	.LBE1560:
 7465              	.LBE1559:
 7466              	.LBE1568:
 7467              	.LBE1570:
 7468              	.LBE1572:
  23:SynthMenis.cpp **** MidiHandler<MidiUartTransport>::Config midi_cfg;
 7469              		.loc 12 23 40 view .LVU1921
 7470 00c4 054A     		ldr	r2, .L406+4
 7471              	.LBB1573:
 7472              	.LBB1571:
 7473              	.LBB1569:
 7474              	.LBB1564:
 7475              	.LBB1535:
 7476              	.LBB1534:
 7477              		.loc 22 91 35 view .LVU1922
 7478 00c6 0460     		str	r4, [r0]
 7479              	.LVL605:
 7480              		.loc 22 91 35 view .LVU1923
 7481              	.LBE1534:
 7482              	.LBE1535:
 7483              	.LBE1564:
 7484              	.LBB1565:
 7485              	.LBI1565:
  21:../../libdaisy/src/util/ringbuffer.h **** 
 7486              		.loc 19 21 5 is_stmt 1 view .LVU1924
  21:../../libdaisy/src/util/ringbuffer.h **** 
 7487              		.loc 19 21 5 is_stmt 0 view .LVU1925
 7488              	.LBE1565:
 7489              	.LBB1566:
 7490              	.LBI1536:
  84:../../libdaisy/src/hid/midi.h ****     {
 7491              		.loc 14 84 12 is_stmt 1 view .LVU1926
 7492              	.LBB1554:
 7493              	.LBI1537:
  32:../../libdaisy/src/hid/midi.h ****         {
 7494              		.loc 14 32 9 view .LVU1927
 7495              	.LBB1549:
 7496              	.LBB1544:
  34:../../libdaisy/src/hid/midi.h ****             rx     = {DSY_GPIOB, 7};
 7497              		.loc 14 34 13 view .LVU1928
ARM GAS  C:\Users\VINCIU~1\AppData\Local\Temp\ccUTXsQS.s 			page 209


  35:../../libdaisy/src/hid/midi.h ****             tx     = {DSY_GPIOB, 6};
 7498              		.loc 14 35 13 view .LVU1929
  36:../../libdaisy/src/hid/midi.h ****         }
 7499              		.loc 14 36 13 view .LVU1930
  36:../../libdaisy/src/hid/midi.h ****         }
 7500              		.loc 14 36 13 is_stmt 0 view .LVU1931
 7501              	.LBE1544:
 7502              	.LBE1549:
 7503              	.LBE1554:
 7504              	.LBE1566:
 7505              	.LBB1567:
 7506              	.LBI1559:
  23:../../libdaisy/src/hid/midi.h ****     ~MidiUartTransport() {}
 7507              		.loc 14 23 5 is_stmt 1 view .LVU1932
 7508              	.LBB1563:
 7509              	.LBI1560:
 7510              		.loc 22 91 5 view .LVU1933
 7511              		.loc 22 91 5 is_stmt 0 view .LVU1934
 7512              	.LBE1563:
 7513              	.LBE1567:
 7514              	.LBE1569:
 7515              	.LBE1571:
 7516              	.LBE1573:
  23:SynthMenis.cpp **** MidiHandler<MidiUartTransport>::Config midi_cfg;
 7517              		.loc 12 23 40 view .LVU1935
 7518 00c8 FFF7FEFF 		bl	__aeabi_atexit
 7519              	.LVL606:
 7520              	.LBB1574:
 7521              	.LBI1574:
  84:../../libdaisy/src/hid/midi.h ****     {
 7522              		.loc 14 84 12 is_stmt 1 view .LVU1936
 7523              	.LBB1575:
 7524              	.LBI1575:
  32:../../libdaisy/src/hid/midi.h ****         {
 7525              		.loc 14 32 9 view .LVU1937
 7526              	.LBB1576:
 7527              	.LBB1577:
  34:../../libdaisy/src/hid/midi.h ****             rx     = {DSY_GPIOB, 7};
 7528              		.loc 14 34 13 view .LVU1938
  34:../../libdaisy/src/hid/midi.h ****             rx     = {DSY_GPIOB, 7};
 7529              		.loc 14 34 20 is_stmt 0 view .LVU1939
 7530 00cc 124B     		ldr	r3, .L406+64
 7531 00ce 1C60     		str	r4, [r3]
  35:../../libdaisy/src/hid/midi.h ****             tx     = {DSY_GPIOB, 6};
 7532              		.loc 14 35 13 is_stmt 1 view .LVU1940
  35:../../libdaisy/src/hid/midi.h ****             tx     = {DSY_GPIOB, 6};
 7533              		.loc 14 35 20 is_stmt 0 view .LVU1941
 7534 00d0 9E80     		strh	r6, [r3, #4]	@ movhi
  36:../../libdaisy/src/hid/midi.h ****         }
 7535              		.loc 14 36 13 is_stmt 1 view .LVU1942
  36:../../libdaisy/src/hid/midi.h ****         }
 7536              		.loc 14 36 20 is_stmt 0 view .LVU1943
 7537 00d2 DD80     		strh	r5, [r3, #6]	@ movhi
 7538              	.LVL607:
  36:../../libdaisy/src/hid/midi.h ****         }
 7539              		.loc 14 36 20 view .LVU1944
 7540              	.LBE1577:
ARM GAS  C:\Users\VINCIU~1\AppData\Local\Temp\ccUTXsQS.s 			page 210


 7541              	.LBE1576:
 7542              	.LBE1575:
 7543              	.LBE1574:
 7544              	.LBE1501:
 7545              	.LBE1578:
 7546              		.loc 12 243 1 view .LVU1945
 7547 00d4 70BD     		pop	{r4, r5, r6, pc}
 7548              	.L407:
 7549 00d6 00BF     		.align	2
 7550              	.L406:
 7551 00d8 00000000 		.word	.LANCHOR2
 7552 00dc 00000000 		.word	__dso_handle
 7553 00e0 00000000 		.word	_ZN5MenusD1Ev
 7554 00e4 00000000 		.word	.LANCHOR11
 7555 00e8 00000000 		.word	_ZN5daisy9DaisySeedD1Ev
 7556 00ec 00000000 		.word	.LANCHOR12
 7557 00f0 00000000 		.word	_ZN23OledDisplayExtravaganzaD1Ev
 7558 00f4 00000000 		.word	__tcf_0
 7559 00f8 00000000 		.word	__tcf_1
 7560 00fc 00000000 		.word	.LANCHOR1
 7561 0100 000080BF 		.word	-1082130432
 7562 0104 00000000 		.word	__tcf_2
 7563 0108 00000000 		.word	midi
 7564 010c 00000000 		.word	.LANCHOR17
 7565 0110 00000000 		.word	_ZN5daisy11MidiHandlerINS_17MidiUartTransportEED1Ev
 7566 0114 80707FF0 		.word	-260083584
 7567 0118 00000000 		.word	.LANCHOR13
 7568              		.cfi_endproc
 7569              	.LFE4657:
 7571              		.section	.init_array,"aw",%init_array
 7572              		.align	2
 7573 0000 00000000 		.word	_GLOBAL__sub_I_synthmenu(target1)
 7574              		.weak	_ZTSN5daisy21OneBitGraphicsDisplayE
 7575              		.section	.rodata._ZTSN5daisy21OneBitGraphicsDisplayE,"aG",%progbits,_ZTSN5daisy21OneBitGraphicsDis
 7576              		.align	2
 7579              	_ZTSN5daisy21OneBitGraphicsDisplayE:
 7580 0000 4E356461 		.ascii	"N5daisy21OneBitGraphicsDisplayE\000"
 7580      69737932 
 7580      314F6E65 
 7580      42697447 
 7580      72617068 
 7581              		.weak	_ZTIN5daisy21OneBitGraphicsDisplayE
 7582              		.section	.rodata._ZTIN5daisy21OneBitGraphicsDisplayE,"aG",%progbits,_ZTIN5daisy21OneBitGraphicsDis
 7583              		.align	2
 7586              	_ZTIN5daisy21OneBitGraphicsDisplayE:
 7587 0000 08000000 		.word	_ZTVN10__cxxabiv117__class_type_infoE+8
 7588 0004 00000000 		.word	_ZTSN5daisy21OneBitGraphicsDisplayE
 7589              		.weak	_ZTSN5daisy25OneBitGraphicsDisplayImplINS_11OledDisplayINS_13SSD130xDriverILj128ELj64ENS_24S
 7590              		.section	.rodata._ZTSN5daisy25OneBitGraphicsDisplayImplINS_11OledDisplayINS_13SSD130xDriverILj128E
 7591              		.align	2
 7594              	_ZTSN5daisy25OneBitGraphicsDisplayImplINS_11OledDisplayINS_13SSD130xDriverILj128ELj64ENS_24SSD130x4
 7595 0000 4E356461 		.ascii	"N5daisy25OneBitGraphicsDisplayImplINS_11OledDisplay"
 7595      69737932 
 7595      354F6E65 
 7595      42697447 
 7595      72617068 
 7596 0033 494E535F 		.ascii	"INS_13SSD130xDriverILj128ELj64ENS_24SSD130x4WireSpi"
ARM GAS  C:\Users\VINCIU~1\AppData\Local\Temp\ccUTXsQS.s 			page 211


 7596      31335353 
 7596      44313330 
 7596      78447269 
 7596      76657249 
 7597 0066 5472616E 		.ascii	"TransportEEEEEEE\000"
 7597      73706F72 
 7597      74454545 
 7597      45454545 
 7597      00
 7598              		.weak	_ZTIN5daisy25OneBitGraphicsDisplayImplINS_11OledDisplayINS_13SSD130xDriverILj128ELj64ENS_24S
 7599              		.section	.rodata._ZTIN5daisy25OneBitGraphicsDisplayImplINS_11OledDisplayINS_13SSD130xDriverILj128E
 7600              		.align	2
 7603              	_ZTIN5daisy25OneBitGraphicsDisplayImplINS_11OledDisplayINS_13SSD130xDriverILj128ELj64ENS_24SSD130x4
 7604 0000 08000000 		.word	_ZTVN10__cxxabiv120__si_class_type_infoE+8
 7605 0004 00000000 		.word	_ZTSN5daisy25OneBitGraphicsDisplayImplINS_11OledDisplayINS_13SSD130xDriverILj128ELj64ENS_24S
 7606 0008 00000000 		.word	_ZTIN5daisy21OneBitGraphicsDisplayE
 7607              		.weak	_ZTSN5daisy11OledDisplayINS_13SSD130xDriverILj128ELj64ENS_24SSD130x4WireSpiTransportEEEEE
 7608              		.section	.rodata._ZTSN5daisy11OledDisplayINS_13SSD130xDriverILj128ELj64ENS_24SSD130x4WireSpiTransp
 7609              		.align	2
 7612              	_ZTSN5daisy11OledDisplayINS_13SSD130xDriverILj128ELj64ENS_24SSD130x4WireSpiTransportEEEEE:
 7613 0000 4E356461 		.ascii	"N5daisy11OledDisplayINS_13SSD130xDriverILj128ELj64E"
 7613      69737931 
 7613      314F6C65 
 7613      64446973 
 7613      706C6179 
 7614 0033 4E535F32 		.ascii	"NS_24SSD130x4WireSpiTransportEEEEE\000"
 7614      34535344 
 7614      31333078 
 7614      34576972 
 7614      65537069 
 7615              		.weak	_ZTIN5daisy11OledDisplayINS_13SSD130xDriverILj128ELj64ENS_24SSD130x4WireSpiTransportEEEEE
 7616              		.section	.rodata._ZTIN5daisy11OledDisplayINS_13SSD130xDriverILj128ELj64ENS_24SSD130x4WireSpiTransp
 7617              		.align	2
 7620              	_ZTIN5daisy11OledDisplayINS_13SSD130xDriverILj128ELj64ENS_24SSD130x4WireSpiTransportEEEEE:
 7621 0000 08000000 		.word	_ZTVN10__cxxabiv120__si_class_type_infoE+8
 7622 0004 00000000 		.word	_ZTSN5daisy11OledDisplayINS_13SSD130xDriverILj128ELj64ENS_24SSD130x4WireSpiTransportEEEEE
 7623 0008 00000000 		.word	_ZTIN5daisy25OneBitGraphicsDisplayImplINS_11OledDisplayINS_13SSD130xDriverILj128ELj64ENS_24S
 7624              		.weak	_ZTS23OledDisplayExtravaganza
 7625              		.section	.rodata._ZTS23OledDisplayExtravaganza,"aG",%progbits,_ZTS23OledDisplayExtravaganza,comdat
 7626              		.align	2
 7629              	_ZTS23OledDisplayExtravaganza:
 7630 0000 32334F6C 		.ascii	"23OledDisplayExtravaganza\000"
 7630      65644469 
 7630      73706C61 
 7630      79457874 
 7630      72617661 
 7631              		.weak	_ZTI23OledDisplayExtravaganza
 7632              		.section	.rodata._ZTI23OledDisplayExtravaganza,"aG",%progbits,_ZTI23OledDisplayExtravaganza,comdat
 7633              		.align	2
 7636              	_ZTI23OledDisplayExtravaganza:
 7637 0000 08000000 		.word	_ZTVN10__cxxabiv120__si_class_type_infoE+8
 7638 0004 00000000 		.word	_ZTS23OledDisplayExtravaganza
 7639 0008 00000000 		.word	_ZTIN5daisy11OledDisplayINS_13SSD130xDriverILj128ELj64ENS_24SSD130x4WireSpiTransportEEEEE
 7640              		.weak	_ZTV23OledDisplayExtravaganza
 7641              		.section	.rodata._ZTV23OledDisplayExtravaganza,"aG",%progbits,_ZTV23OledDisplayExtravaganza,comdat
 7642              		.align	2
 7645              	_ZTV23OledDisplayExtravaganza:
ARM GAS  C:\Users\VINCIU~1\AppData\Local\Temp\ccUTXsQS.s 			page 212


 7646 0000 00000000 		.word	0
 7647 0004 00000000 		.word	_ZTI23OledDisplayExtravaganza
 7648 0008 00000000 		.word	_ZN23OledDisplayExtravaganzaD1Ev
 7649 000c 00000000 		.word	_ZN23OledDisplayExtravaganzaD0Ev
 7650 0010 00000000 		.word	_ZNK5daisy11OledDisplayINS_13SSD130xDriverILj128ELj64ENS_24SSD130x4WireSpiTransportEEEE6Heig
 7651 0014 00000000 		.word	_ZNK5daisy11OledDisplayINS_13SSD130xDriverILj128ELj64ENS_24SSD130x4WireSpiTransportEEEE5Widt
 7652 0018 00000000 		.word	_ZN5daisy11OledDisplayINS_13SSD130xDriverILj128ELj64ENS_24SSD130x4WireSpiTransportEEEE4FillE
 7653 001c 00000000 		.word	_ZN5daisy11OledDisplayINS_13SSD130xDriverILj128ELj64ENS_24SSD130x4WireSpiTransportEEEE9DrawP
 7654 0020 00000000 		.word	_ZN5daisy25OneBitGraphicsDisplayImplINS_11OledDisplayINS_13SSD130xDriverILj128ELj64ENS_24SSD
 7655 0024 00000000 		.word	_ZN5daisy25OneBitGraphicsDisplayImplINS_11OledDisplayINS_13SSD130xDriverILj128ELj64ENS_24SSD
 7656 0028 00000000 		.word	_ZN5daisy25OneBitGraphicsDisplayImplINS_11OledDisplayINS_13SSD130xDriverILj128ELj64ENS_24SSD
 7657 002c 00000000 		.word	_ZN5daisy25OneBitGraphicsDisplayImplINS_11OledDisplayINS_13SSD130xDriverILj128ELj64ENS_24SSD
 7658 0030 00000000 		.word	_ZN5daisy25OneBitGraphicsDisplayImplINS_11OledDisplayINS_13SSD130xDriverILj128ELj64ENS_24SSD
 7659 0034 00000000 		.word	_ZN5daisy11OledDisplayINS_13SSD130xDriverILj128ELj64ENS_24SSD130x4WireSpiTransportEEEE6Updat
 7660              		.global	freq2
 7661              		.global	freq1
 7662              		.global	polyIndexOff
 7663              		.global	polyIndexOn
 7664              		.global	splashInit
 7665              		.global	count
 7666              		.global	navigation
 7667              		.global	finished
 7668              		.global	osc1Freq
 7669              		.global	semiMultiplier
 7670              		.global	midi_cfg
 7671              		.global	midi
 7672              		.global	gate
 7673              		.global	env
 7674              		.global	line
 7675              		.global	osc
 7676              		.global	screen
 7677              		.global	hw
 7678              		.global	synthmenu
 7679              		.section	.rodata
 7680              		.align	2
 7681              		.set	.LANCHOR17,. + 0
 7682              	.LC3:
 7683 0000 01       		.byte	1
 7684 0001 07       		.byte	7
 7685 0002 0000     		.space	2
 7686              	.LC4:
 7687 0004 01       		.byte	1
 7688 0005 06       		.byte	6
 7689              		.section	.bss.count,"aw",%nobits
 7690              		.align	2
 7691              		.set	.LANCHOR16,. + 0
 7694              	count:
 7695 0000 00000000 		.space	4
 7696              		.section	.bss.env,"aw",%nobits
 7697              		.align	2
 7698              		.set	.LANCHOR1,. + 0
 7701              	env:
 7702 0000 00000000 		.space	480
 7702      00000000 
 7702      00000000 
 7702      00000000 
 7702      00000000 
ARM GAS  C:\Users\VINCIU~1\AppData\Local\Temp\ccUTXsQS.s 			page 213


 7703              		.section	.bss.finished,"aw",%nobits
 7704              		.set	.LANCHOR6,. + 0
 7707              	finished:
 7708 0000 00       		.space	1
 7709              		.section	.bss.freq1,"aw",%nobits
 7710              		.align	2
 7711              		.set	.LANCHOR8,. + 0
 7714              	freq1:
 7715 0000 00000000 		.space	4
 7716              		.section	.bss.freq2,"aw",%nobits
 7717              		.align	2
 7718              		.set	.LANCHOR9,. + 0
 7721              	freq2:
 7722 0000 00000000 		.space	4
 7723              		.section	.bss.gate,"aw",%nobits
 7724              		.align	2
 7725              		.set	.LANCHOR0,. + 0
 7728              	gate:
 7729 0000 00000000 		.space	10
 7729      00000000 
 7729      0000
 7730              		.section	.bss.hw,"aw",%nobits
 7731              		.align	2
 7732              		.set	.LANCHOR11,. + 0
 7735              	hw:
 7736 0000 00000000 		.space	60
 7736      00000000 
 7736      00000000 
 7736      00000000 
 7736      00000000 
 7737              		.section	.bss.line,"aw",%nobits
 7738              		.align	2
 7739              		.set	.LANCHOR4,. + 0
 7742              	line:
 7743 0000 00000000 		.space	280
 7743      00000000 
 7743      00000000 
 7743      00000000 
 7743      00000000 
 7744              		.section	.bss.midi,"aw",%nobits
 7745              		.align	2
 7748              	midi:
 7749 0000 00000000 		.space	29856
 7749      00000000 
 7749      00000000 
 7749      00000000 
 7749      00000000 
 7750              		.section	.bss.midi_cfg,"aw",%nobits
 7751              		.align	2
 7752              		.set	.LANCHOR13,. + 0
 7755              	midi_cfg:
 7756 0000 00000000 		.space	8
 7756      00000000 
 7757              		.section	.bss.navigation,"aw",%nobits
 7758              		.align	2
 7759              		.set	.LANCHOR14,. + 0
 7762              	navigation:
ARM GAS  C:\Users\VINCIU~1\AppData\Local\Temp\ccUTXsQS.s 			page 214


 7763 0000 00000000 		.space	4
 7764              		.section	.bss.osc,"aw",%nobits
 7765              		.align	2
 7766              		.set	.LANCHOR3,. + 0
 7769              	osc:
 7770 0000 00000000 		.space	800
 7770      00000000 
 7770      00000000 
 7770      00000000 
 7770      00000000 
 7771              		.section	.bss.osc1Freq,"aw",%nobits
 7772              		.align	2
 7773              		.set	.LANCHOR5,. + 0
 7776              	osc1Freq:
 7777 0000 00000000 		.space	40
 7777      00000000 
 7777      00000000 
 7777      00000000 
 7777      00000000 
 7778              		.section	.bss.polyIndexOff,"aw",%nobits
 7779              		.align	2
 7780              		.set	.LANCHOR10,. + 0
 7783              	polyIndexOff:
 7784 0000 00000000 		.space	4
 7785              		.section	.bss.polyIndexOn,"aw",%nobits
 7786              		.align	2
 7787              		.set	.LANCHOR7,. + 0
 7790              	polyIndexOn:
 7791 0000 00000000 		.space	4
 7792              		.section	.bss.screen,"aw",%nobits
 7793              		.align	2
 7794              		.set	.LANCHOR12,. + 0
 7797              	screen:
 7798 0000 00000000 		.space	1044
 7798      00000000 
 7798      00000000 
 7798      00000000 
 7798      00000000 
 7799              		.section	.bss.synthmenu,"aw",%nobits
 7800              		.align	2
 7801              		.set	.LANCHOR2,. + 0
 7804              	synthmenu:
 7805 0000 00000000 		.space	496
 7805      00000000 
 7805      00000000 
 7805      00000000 
 7805      00000000 
 7806              		.section	.data.semiMultiplier,"aw"
 7807              		.align	2
 7810              	semiMultiplier:
 7811 0000 0000803F 		.word	1065353216
 7812              		.section	.data.splashInit,"aw"
 7813              		.set	.LANCHOR15,. + 0
 7816              	splashInit:
 7817 0000 01       		.byte	1
 7818              		.text
 7819              	.Letext0:
ARM GAS  C:\Users\VINCIU~1\AppData\Local\Temp\ccUTXsQS.s 			page 215


 7820              		.file 23 "c:\\users\\vin\355cius\\documents\\daisytoolchain-0.3.1\\windows\\arm-none-eabi\\include
 7821              		.file 24 "c:\\users\\vin\355cius\\documents\\daisytoolchain-0.3.1\\windows\\arm-none-eabi\\include
 7822              		.file 25 "c:\\users\\vin\355cius\\documents\\daisytoolchain-0.3.1\\windows\\arm-none-eabi\\include
 7823              		.file 26 "c:\\users\\vin\355cius\\documents\\daisytoolchain-0.3.1\\windows\\lib\\gcc\\arm-none-eab
 7824              		.file 27 "c:\\users\\vin\355cius\\documents\\daisytoolchain-0.3.1\\windows\\arm-none-eabi\\include
 7825              		.file 28 "c:\\users\\vin\355cius\\documents\\daisytoolchain-0.3.1\\windows\\arm-none-eabi\\include
 7826              		.file 29 "c:\\users\\vin\355cius\\documents\\daisytoolchain-0.3.1\\windows\\arm-none-eabi\\include
 7827              		.file 30 "c:\\users\\vin\355cius\\documents\\daisytoolchain-0.3.1\\windows\\arm-none-eabi\\include
 7828              		.file 31 "c:\\users\\vin\355cius\\documents\\daisytoolchain-0.3.1\\windows\\arm-none-eabi\\include
 7829              		.file 32 "c:\\users\\vin\355cius\\documents\\daisytoolchain-0.3.1\\windows\\arm-none-eabi\\include
 7830              		.file 33 "c:\\users\\vin\355cius\\documents\\daisytoolchain-0.3.1\\windows\\arm-none-eabi\\include
 7831              		.file 34 "c:\\users\\vin\355cius\\documents\\daisytoolchain-0.3.1\\windows\\arm-none-eabi\\include
 7832              		.file 35 "c:\\users\\vin\355cius\\documents\\daisytoolchain-0.3.1\\windows\\arm-none-eabi\\include
 7833              		.file 36 "c:\\users\\vin\355cius\\documents\\daisytoolchain-0.3.1\\windows\\arm-none-eabi\\include
 7834              		.file 37 "c:\\users\\vin\355cius\\documents\\daisytoolchain-0.3.1\\windows\\arm-none-eabi\\include
 7835              		.file 38 "c:\\users\\vin\355cius\\documents\\daisytoolchain-0.3.1\\windows\\arm-none-eabi\\include
 7836              		.file 39 "c:\\users\\vin\355cius\\documents\\daisytoolchain-0.3.1\\windows\\arm-none-eabi\\include
 7837              		.file 40 "c:\\users\\vin\355cius\\documents\\daisytoolchain-0.3.1\\windows\\arm-none-eabi\\include
 7838              		.file 41 "c:\\users\\vin\355cius\\documents\\daisytoolchain-0.3.1\\windows\\arm-none-eabi\\include
 7839              		.file 42 "c:\\users\\vin\355cius\\documents\\daisytoolchain-0.3.1\\windows\\arm-none-eabi\\include
 7840              		.file 43 "c:\\users\\vin\355cius\\documents\\daisytoolchain-0.3.1\\windows\\arm-none-eabi\\include
 7841              		.file 44 "c:\\users\\vin\355cius\\documents\\daisytoolchain-0.3.1\\windows\\arm-none-eabi\\include
 7842              		.file 45 "c:\\users\\vin\355cius\\documents\\daisytoolchain-0.3.1\\windows\\arm-none-eabi\\include
 7843              		.file 46 "c:\\users\\vin\355cius\\documents\\daisytoolchain-0.3.1\\windows\\arm-none-eabi\\include
 7844              		.file 47 "c:\\users\\vin\355cius\\documents\\daisytoolchain-0.3.1\\windows\\arm-none-eabi\\include
 7845              		.file 48 "c:\\users\\vin\355cius\\documents\\daisytoolchain-0.3.1\\windows\\arm-none-eabi\\include
 7846              		.file 49 "c:\\users\\vin\355cius\\documents\\daisytoolchain-0.3.1\\windows\\arm-none-eabi\\include
 7847              		.file 50 "c:\\users\\vin\355cius\\documents\\daisytoolchain-0.3.1\\windows\\lib\\gcc\\arm-none-eab
 7848              		.file 51 "c:\\users\\vin\355cius\\documents\\daisytoolchain-0.3.1\\windows\\arm-none-eabi\\include
 7849              		.file 52 "c:\\users\\vin\355cius\\documents\\daisytoolchain-0.3.1\\windows\\arm-none-eabi\\include
 7850              		.file 53 "../../libdaisy/src/daisy_core.h"
 7851              		.file 54 "../../libdaisy/src/per/tim.h"
 7852              		.file 55 "../../libdaisy/src/per/sai.h"
 7853              		.file 56 "../../libdaisy/src/per/spi.h"
 7854              		.file 57 "../../libdaisy/src/util/wav_format.h"
 7855              		.file 58 "../../libdaisy/src/hid/logger_impl.h"
 7856              		.file 59 "../../libdaisy/src/per/qspi.h"
 7857              		.file 60 "../../libdaisy/src/per/gpio.h"
 7858              		.file 61 "../../libdaisy/src/dev/sdram.h"
 7859              		.file 62 "../../libdaisy/src/util/oled_fonts.h"
 7860              		.file 63 "../../DaisySP/Source/Control/adenv.h"
 7861              		.file 64 "../../DaisySP/Source/Control/line.h"
 7862              		.file 65 "c:\\users\\vin\355cius\\documents\\daisytoolchain-0.3.1\\windows\\arm-none-eabi\\include
 7863              		.file 66 "c:\\users\\vin\355cius\\documents\\daisytoolchain-0.3.1\\windows\\arm-none-eabi\\include
 7864              		.file 67 "c:\\users\\vin\355cius\\documents\\daisytoolchain-0.3.1\\windows\\arm-none-eabi\\include
 7865              		.file 68 "../../libdaisy/src/dev/sr_595.h"
 7866              		.file 69 "c:\\users\\vin\355cius\\documents\\daisytoolchain-0.3.1\\windows\\arm-none-eabi\\include
 7867              		.file 70 "<built-in>"
ARM GAS  C:\Users\VINCIU~1\AppData\Local\Temp\ccUTXsQS.s 			page 216


DEFINED SYMBOLS
                            *ABS*:00000000 SynthMenis.cpp
C:\Users\VINCIU~1\AppData\Local\Temp\ccUTXsQS.s:17     .text._ZN5daisy9DaisySeedD2Ev:00000000 $t
C:\Users\VINCIU~1\AppData\Local\Temp\ccUTXsQS.s:26     .text._ZN5daisy9DaisySeedD2Ev:00000000 _ZN5daisy9DaisySeedD2Ev
C:\Users\VINCIU~1\AppData\Local\Temp\ccUTXsQS.s:26     .text._ZN5daisy9DaisySeedD2Ev:00000000 _ZN5daisy9DaisySeedD1Ev
C:\Users\VINCIU~1\AppData\Local\Temp\ccUTXsQS.s:67     .text._ZNK5daisy11OledDisplayINS_13SSD130xDriverILj128ELj64ENS_24SSD130x4WireSpiTransportEEEE6HeightEv:00000000 $t
C:\Users\VINCIU~1\AppData\Local\Temp\ccUTXsQS.s:75     .text._ZNK5daisy11OledDisplayINS_13SSD130xDriverILj128ELj64ENS_24SSD130x4WireSpiTransportEEEE6HeightEv:00000000 _ZNK5daisy11OledDisplayINS_13SSD130xDriverILj128ELj64ENS_24SSD130x4WireSpiTransportEEEE6HeightEv
C:\Users\VINCIU~1\AppData\Local\Temp\ccUTXsQS.s:93     .text._ZNK5daisy11OledDisplayINS_13SSD130xDriverILj128ELj64ENS_24SSD130x4WireSpiTransportEEEE5WidthEv:00000000 $t
C:\Users\VINCIU~1\AppData\Local\Temp\ccUTXsQS.s:101    .text._ZNK5daisy11OledDisplayINS_13SSD130xDriverILj128ELj64ENS_24SSD130x4WireSpiTransportEEEE5WidthEv:00000000 _ZNK5daisy11OledDisplayINS_13SSD130xDriverILj128ELj64ENS_24SSD130x4WireSpiTransportEEEE5WidthEv
C:\Users\VINCIU~1\AppData\Local\Temp\ccUTXsQS.s:118    .text._ZN23OledDisplayExtravaganzaD2Ev:00000000 $t
C:\Users\VINCIU~1\AppData\Local\Temp\ccUTXsQS.s:126    .text._ZN23OledDisplayExtravaganzaD2Ev:00000000 _ZN23OledDisplayExtravaganzaD2Ev
C:\Users\VINCIU~1\AppData\Local\Temp\ccUTXsQS.s:126    .text._ZN23OledDisplayExtravaganzaD2Ev:00000000 _ZN23OledDisplayExtravaganzaD1Ev
C:\Users\VINCIU~1\AppData\Local\Temp\ccUTXsQS.s:157    .text._ZN5MenusD2Ev:00000000 $t
C:\Users\VINCIU~1\AppData\Local\Temp\ccUTXsQS.s:165    .text._ZN5MenusD2Ev:00000000 _ZN5MenusD2Ev
C:\Users\VINCIU~1\AppData\Local\Temp\ccUTXsQS.s:165    .text._ZN5MenusD2Ev:00000000 _ZN5MenusD1Ev
C:\Users\VINCIU~1\AppData\Local\Temp\ccUTXsQS.s:212    .text.__tcf_0:00000000 $t
C:\Users\VINCIU~1\AppData\Local\Temp\ccUTXsQS.s:219    .text.__tcf_0:00000000 __tcf_0
C:\Users\VINCIU~1\AppData\Local\Temp\ccUTXsQS.s:233    .text._ZN5daisy11OledDisplayINS_13SSD130xDriverILj128ELj64ENS_24SSD130x4WireSpiTransportEEEE4FillEb:00000000 $t
C:\Users\VINCIU~1\AppData\Local\Temp\ccUTXsQS.s:241    .text._ZN5daisy11OledDisplayINS_13SSD130xDriverILj128ELj64ENS_24SSD130x4WireSpiTransportEEEE4FillEb:00000000 _ZN5daisy11OledDisplayINS_13SSD130xDriverILj128ELj64ENS_24SSD130x4WireSpiTransportEEEE4FillEb
C:\Users\VINCIU~1\AppData\Local\Temp\ccUTXsQS.s:273    .text._ZN5daisy11MidiHandlerINS_17MidiUartTransportEED2Ev:00000000 $t
C:\Users\VINCIU~1\AppData\Local\Temp\ccUTXsQS.s:281    .text._ZN5daisy11MidiHandlerINS_17MidiUartTransportEED2Ev:00000000 _ZN5daisy11MidiHandlerINS_17MidiUartTransportEED2Ev
C:\Users\VINCIU~1\AppData\Local\Temp\ccUTXsQS.s:281    .text._ZN5daisy11MidiHandlerINS_17MidiUartTransportEED2Ev:00000000 _ZN5daisy11MidiHandlerINS_17MidiUartTransportEED1Ev
C:\Users\VINCIU~1\AppData\Local\Temp\ccUTXsQS.s:303    .text._Z13AudioCallbackPKfPfj:00000000 $t
C:\Users\VINCIU~1\AppData\Local\Temp\ccUTXsQS.s:311    .text._Z13AudioCallbackPKfPfj:00000000 _Z13AudioCallbackPKfPfj
C:\Users\VINCIU~1\AppData\Local\Temp\ccUTXsQS.s:586    .text._Z13AudioCallbackPKfPfj:00000114 $d
C:\Users\VINCIU~1\AppData\Local\Temp\ccUTXsQS.s:600    .text._ZN23OledDisplayExtravaganzaD0Ev:00000000 $t
C:\Users\VINCIU~1\AppData\Local\Temp\ccUTXsQS.s:608    .text._ZN23OledDisplayExtravaganzaD0Ev:00000000 _ZN23OledDisplayExtravaganzaD0Ev
C:\Users\VINCIU~1\AppData\Local\Temp\ccUTXsQS.s:652    .text.__tcf_1:00000000 $t
C:\Users\VINCIU~1\AppData\Local\Temp\ccUTXsQS.s:659    .text.__tcf_1:00000000 __tcf_1
C:\Users\VINCIU~1\AppData\Local\Temp\ccUTXsQS.s:670    .text.__tcf_2:00000000 $t
C:\Users\VINCIU~1\AppData\Local\Temp\ccUTXsQS.s:677    .text.__tcf_2:00000000 __tcf_2
C:\Users\VINCIU~1\AppData\Local\Temp\ccUTXsQS.s:688    .text._ZN5daisy11OledDisplayINS_13SSD130xDriverILj128ELj64ENS_24SSD130x4WireSpiTransportEEEE6UpdateEv:00000000 $t
C:\Users\VINCIU~1\AppData\Local\Temp\ccUTXsQS.s:696    .text._ZN5daisy11OledDisplayINS_13SSD130xDriverILj128ELj64ENS_24SSD130x4WireSpiTransportEEEE6UpdateEv:00000000 _ZN5daisy11OledDisplayINS_13SSD130xDriverILj128ELj64ENS_24SSD130x4WireSpiTransportEEEE6UpdateEv
C:\Users\VINCIU~1\AppData\Local\Temp\ccUTXsQS.s:883    .text._ZN5daisy25OneBitGraphicsDisplayImplINS_11OledDisplayINS_13SSD130xDriverILj128ELj64ENS_24SSD130x4WireSpiTransportEEEEEE9WriteCharEc7FontDefb:00000000 $t
C:\Users\VINCIU~1\AppData\Local\Temp\ccUTXsQS.s:891    .text._ZN5daisy25OneBitGraphicsDisplayImplINS_11OledDisplayINS_13SSD130xDriverILj128ELj64ENS_24SSD130x4WireSpiTransportEEEEEE9WriteCharEc7FontDefb:00000000 _ZN5daisy25OneBitGraphicsDisplayImplINS_11OledDisplayINS_13SSD130xDriverILj128ELj64ENS_24SSD130x4WireSpiTransportEEEEEE9WriteCharEc7FontDefb
C:\Users\VINCIU~1\AppData\Local\Temp\ccUTXsQS.s:1317   .text._ZN5daisy25OneBitGraphicsDisplayImplINS_11OledDisplayINS_13SSD130xDriverILj128ELj64ENS_24SSD130x4WireSpiTransportEEEEEE9WriteCharEc7FontDefb:00000198 $d
C:\Users\VINCIU~1\AppData\Local\Temp\ccUTXsQS.s:1325   .text._ZN5daisy25OneBitGraphicsDisplayImplINS_11OledDisplayINS_13SSD130xDriverILj128ELj64ENS_24SSD130x4WireSpiTransportEEEEEE11WriteStringEPKc7FontDefb:00000000 $t
C:\Users\VINCIU~1\AppData\Local\Temp\ccUTXsQS.s:1333   .text._ZN5daisy25OneBitGraphicsDisplayImplINS_11OledDisplayINS_13SSD130xDriverILj128ELj64ENS_24SSD130x4WireSpiTransportEEEEEE11WriteStringEPKc7FontDefb:00000000 _ZN5daisy25OneBitGraphicsDisplayImplINS_11OledDisplayINS_13SSD130xDriverILj128ELj64ENS_24SSD130x4WireSpiTransportEEEEEE11WriteStringEPKc7FontDefb
C:\Users\VINCIU~1\AppData\Local\Temp\ccUTXsQS.s:1407   .text._ZN5daisy11OledDisplayINS_13SSD130xDriverILj128ELj64ENS_24SSD130x4WireSpiTransportEEEE9DrawPixelEjjb:00000000 $t
C:\Users\VINCIU~1\AppData\Local\Temp\ccUTXsQS.s:1415   .text._ZN5daisy11OledDisplayINS_13SSD130xDriverILj128ELj64ENS_24SSD130x4WireSpiTransportEEEE9DrawPixelEjjb:00000000 _ZN5daisy11OledDisplayINS_13SSD130xDriverILj128ELj64ENS_24SSD130x4WireSpiTransportEEEE9DrawPixelEjjb
C:\Users\VINCIU~1\AppData\Local\Temp\ccUTXsQS.s:1492   .text._ZN5daisy25OneBitGraphicsDisplayImplINS_11OledDisplayINS_13SSD130xDriverILj128ELj64ENS_24SSD130x4WireSpiTransportEEEEEE8DrawLineEjjjjb:00000000 $t
C:\Users\VINCIU~1\AppData\Local\Temp\ccUTXsQS.s:1500   .text._ZN5daisy25OneBitGraphicsDisplayImplINS_11OledDisplayINS_13SSD130xDriverILj128ELj64ENS_24SSD130x4WireSpiTransportEEEEEE8DrawLineEjjjjb:00000000 _ZN5daisy25OneBitGraphicsDisplayImplINS_11OledDisplayINS_13SSD130xDriverILj128ELj64ENS_24SSD130x4WireSpiTransportEEEEEE8DrawLineEjjjjb
C:\Users\VINCIU~1\AppData\Local\Temp\ccUTXsQS.s:1785   .text._ZN5daisy25OneBitGraphicsDisplayImplINS_11OledDisplayINS_13SSD130xDriverILj128ELj64ENS_24SSD130x4WireSpiTransportEEEEEE7DrawArcEjjjiib:00000000 $t
C:\Users\VINCIU~1\AppData\Local\Temp\ccUTXsQS.s:1793   .text._ZN5daisy25OneBitGraphicsDisplayImplINS_11OledDisplayINS_13SSD130xDriverILj128ELj64ENS_24SSD130x4WireSpiTransportEEEEEE7DrawArcEjjjiib:00000000 _ZN5daisy25OneBitGraphicsDisplayImplINS_11OledDisplayINS_13SSD130xDriverILj128ELj64ENS_24SSD130x4WireSpiTransportEEEEEE7DrawArcEjjjiib
C:\Users\VINCIU~1\AppData\Local\Temp\ccUTXsQS.s:2478   .text._ZN5daisy25OneBitGraphicsDisplayImplINS_11OledDisplayINS_13SSD130xDriverILj128ELj64ENS_24SSD130x4WireSpiTransportEEEEEE7DrawArcEjjjiib:00000368 $d
C:\Users\VINCIU~1\AppData\Local\Temp\ccUTXsQS.s:2492   .text._ZN5daisy25OneBitGraphicsDisplayImplINS_11OledDisplayINS_13SSD130xDriverILj128ELj64ENS_24SSD130x4WireSpiTransportEEEEEE7DrawArcEjjjiib:00000378 $t
C:\Users\VINCIU~1\AppData\Local\Temp\ccUTXsQS.s:2718   .text._ZN5daisy25OneBitGraphicsDisplayImplINS_11OledDisplayINS_13SSD130xDriverILj128ELj64ENS_24SSD130x4WireSpiTransportEEEEEE8DrawRectEjjjjbb:00000000 $t
C:\Users\VINCIU~1\AppData\Local\Temp\ccUTXsQS.s:2726   .text._ZN5daisy25OneBitGraphicsDisplayImplINS_11OledDisplayINS_13SSD130xDriverILj128ELj64ENS_24SSD130x4WireSpiTransportEEEEEE8DrawRectEjjjjbb:00000000 _ZN5daisy25OneBitGraphicsDisplayImplINS_11OledDisplayINS_13SSD130xDriverILj128ELj64ENS_24SSD130x4WireSpiTransportEEEEEE8DrawRectEjjjjbb
C:\Users\VINCIU~1\AppData\Local\Temp\ccUTXsQS.s:3836   .text._Z17HandleMidiMessage9MidiEvent:00000000 $t
C:\Users\VINCIU~1\AppData\Local\Temp\ccUTXsQS.s:3844   .text._Z17HandleMidiMessage9MidiEvent:00000000 _Z17HandleMidiMessage9MidiEvent
C:\Users\VINCIU~1\AppData\Local\Temp\ccUTXsQS.s:4298   .text._Z17HandleMidiMessage9MidiEvent:0000017c $d
C:\Users\VINCIU~1\AppData\Local\Temp\ccUTXsQS.s:4315   .text._ZN5daisy13SSD130xDriverILj128ELj64ENS_24SSD130x4WireSpiTransportEE4InitENS2_6ConfigE:00000000 $t
C:\Users\VINCIU~1\AppData\Local\Temp\ccUTXsQS.s:4323   .text._ZN5daisy13SSD130xDriverILj128ELj64ENS_24SSD130x4WireSpiTransportEE4InitENS2_6ConfigE:00000000 _ZN5daisy13SSD130xDriverILj128ELj64ENS_24SSD130x4WireSpiTransportEE4InitENS2_6ConfigE
C:\Users\VINCIU~1\AppData\Local\Temp\ccUTXsQS.s:5118   .text._ZN5daisy13SSD130xDriverILj128ELj64ENS_24SSD130x4WireSpiTransportEE4InitENS2_6ConfigE:000002cc $d
C:\Users\VINCIU~1\AppData\Local\Temp\ccUTXsQS.s:5124   .text._ZN5daisy11MidiHandlerINS_17MidiUartTransportEE5ParseEh:00000000 $t
C:\Users\VINCIU~1\AppData\Local\Temp\ccUTXsQS.s:5132   .text._ZN5daisy11MidiHandlerINS_17MidiUartTransportEE5ParseEh:00000000 _ZN5daisy11MidiHandlerINS_17MidiUartTransportEE5ParseEh
C:\Users\VINCIU~1\AppData\Local\Temp\ccUTXsQS.s:5156   .text._ZN5daisy11MidiHandlerINS_17MidiUartTransportEE5ParseEh:00000012 $d
ARM GAS  C:\Users\VINCIU~1\AppData\Local\Temp\ccUTXsQS.s 			page 217


C:\Users\VINCIU~1\AppData\Local\Temp\ccUTXsQS.s:5160   .text._ZN5daisy11MidiHandlerINS_17MidiUartTransportEE5ParseEh:00000016 $t
C:\Users\VINCIU~1\AppData\Local\Temp\ccUTXsQS.s:5707   .rodata.main.str1.4:00000000 $d
C:\Users\VINCIU~1\AppData\Local\Temp\ccUTXsQS.s:5714   .text.startup.main:00000000 $t
C:\Users\VINCIU~1\AppData\Local\Temp\ccUTXsQS.s:5722   .text.startup.main:00000000 main
C:\Users\VINCIU~1\AppData\Local\Temp\ccUTXsQS.s:6443   .text.startup.main:000002e0 $d
C:\Users\VINCIU~1\AppData\Local\Temp\ccUTXsQS.s:7748   .bss.midi:00000000 midi
C:\Users\VINCIU~1\AppData\Local\Temp\ccUTXsQS.s:6465   .text.startup.main:0000032c $t
C:\Users\VINCIU~1\AppData\Local\Temp\ccUTXsQS.s:7166   .text.startup.main:000004b4 $d
C:\Users\VINCIU~1\AppData\Local\Temp\ccUTXsQS.s:7645   .rodata._ZTV23OledDisplayExtravaganza:00000000 _ZTV23OledDisplayExtravaganza
C:\Users\VINCIU~1\AppData\Local\Temp\ccUTXsQS.s:7182   .text.startup._GLOBAL__sub_I_synthmenu:00000000 $t
C:\Users\VINCIU~1\AppData\Local\Temp\ccUTXsQS.s:7189   .text.startup._GLOBAL__sub_I_synthmenu:00000000 _GLOBAL__sub_I_synthmenu
C:\Users\VINCIU~1\AppData\Local\Temp\ccUTXsQS.s:7551   .text.startup._GLOBAL__sub_I_synthmenu:000000d8 $d
C:\Users\VINCIU~1\AppData\Local\Temp\ccUTXsQS.s:7572   .init_array:00000000 $d
C:\Users\VINCIU~1\AppData\Local\Temp\ccUTXsQS.s:7579   .rodata._ZTSN5daisy21OneBitGraphicsDisplayE:00000000 _ZTSN5daisy21OneBitGraphicsDisplayE
C:\Users\VINCIU~1\AppData\Local\Temp\ccUTXsQS.s:7576   .rodata._ZTSN5daisy21OneBitGraphicsDisplayE:00000000 $d
C:\Users\VINCIU~1\AppData\Local\Temp\ccUTXsQS.s:7586   .rodata._ZTIN5daisy21OneBitGraphicsDisplayE:00000000 _ZTIN5daisy21OneBitGraphicsDisplayE
C:\Users\VINCIU~1\AppData\Local\Temp\ccUTXsQS.s:7583   .rodata._ZTIN5daisy21OneBitGraphicsDisplayE:00000000 $d
C:\Users\VINCIU~1\AppData\Local\Temp\ccUTXsQS.s:7594   .rodata._ZTSN5daisy25OneBitGraphicsDisplayImplINS_11OledDisplayINS_13SSD130xDriverILj128ELj64ENS_24SSD130x4WireSpiTransportEEEEEEE:00000000 _ZTSN5daisy25OneBitGraphicsDisplayImplINS_11OledDisplayINS_13SSD130xDriverILj128ELj64ENS_24SSD130x4WireSpiTransportEEEEEEE
C:\Users\VINCIU~1\AppData\Local\Temp\ccUTXsQS.s:7591   .rodata._ZTSN5daisy25OneBitGraphicsDisplayImplINS_11OledDisplayINS_13SSD130xDriverILj128ELj64ENS_24SSD130x4WireSpiTransportEEEEEEE:00000000 $d
C:\Users\VINCIU~1\AppData\Local\Temp\ccUTXsQS.s:7603   .rodata._ZTIN5daisy25OneBitGraphicsDisplayImplINS_11OledDisplayINS_13SSD130xDriverILj128ELj64ENS_24SSD130x4WireSpiTransportEEEEEEE:00000000 _ZTIN5daisy25OneBitGraphicsDisplayImplINS_11OledDisplayINS_13SSD130xDriverILj128ELj64ENS_24SSD130x4WireSpiTransportEEEEEEE
C:\Users\VINCIU~1\AppData\Local\Temp\ccUTXsQS.s:7600   .rodata._ZTIN5daisy25OneBitGraphicsDisplayImplINS_11OledDisplayINS_13SSD130xDriverILj128ELj64ENS_24SSD130x4WireSpiTransportEEEEEEE:00000000 $d
C:\Users\VINCIU~1\AppData\Local\Temp\ccUTXsQS.s:7612   .rodata._ZTSN5daisy11OledDisplayINS_13SSD130xDriverILj128ELj64ENS_24SSD130x4WireSpiTransportEEEEE:00000000 _ZTSN5daisy11OledDisplayINS_13SSD130xDriverILj128ELj64ENS_24SSD130x4WireSpiTransportEEEEE
C:\Users\VINCIU~1\AppData\Local\Temp\ccUTXsQS.s:7609   .rodata._ZTSN5daisy11OledDisplayINS_13SSD130xDriverILj128ELj64ENS_24SSD130x4WireSpiTransportEEEEE:00000000 $d
C:\Users\VINCIU~1\AppData\Local\Temp\ccUTXsQS.s:7620   .rodata._ZTIN5daisy11OledDisplayINS_13SSD130xDriverILj128ELj64ENS_24SSD130x4WireSpiTransportEEEEE:00000000 _ZTIN5daisy11OledDisplayINS_13SSD130xDriverILj128ELj64ENS_24SSD130x4WireSpiTransportEEEEE
C:\Users\VINCIU~1\AppData\Local\Temp\ccUTXsQS.s:7617   .rodata._ZTIN5daisy11OledDisplayINS_13SSD130xDriverILj128ELj64ENS_24SSD130x4WireSpiTransportEEEEE:00000000 $d
C:\Users\VINCIU~1\AppData\Local\Temp\ccUTXsQS.s:7629   .rodata._ZTS23OledDisplayExtravaganza:00000000 _ZTS23OledDisplayExtravaganza
C:\Users\VINCIU~1\AppData\Local\Temp\ccUTXsQS.s:7626   .rodata._ZTS23OledDisplayExtravaganza:00000000 $d
C:\Users\VINCIU~1\AppData\Local\Temp\ccUTXsQS.s:7636   .rodata._ZTI23OledDisplayExtravaganza:00000000 _ZTI23OledDisplayExtravaganza
C:\Users\VINCIU~1\AppData\Local\Temp\ccUTXsQS.s:7633   .rodata._ZTI23OledDisplayExtravaganza:00000000 $d
C:\Users\VINCIU~1\AppData\Local\Temp\ccUTXsQS.s:7642   .rodata._ZTV23OledDisplayExtravaganza:00000000 $d
C:\Users\VINCIU~1\AppData\Local\Temp\ccUTXsQS.s:7721   .bss.freq2:00000000 freq2
C:\Users\VINCIU~1\AppData\Local\Temp\ccUTXsQS.s:7714   .bss.freq1:00000000 freq1
C:\Users\VINCIU~1\AppData\Local\Temp\ccUTXsQS.s:7783   .bss.polyIndexOff:00000000 polyIndexOff
C:\Users\VINCIU~1\AppData\Local\Temp\ccUTXsQS.s:7790   .bss.polyIndexOn:00000000 polyIndexOn
C:\Users\VINCIU~1\AppData\Local\Temp\ccUTXsQS.s:7816   .data.splashInit:00000000 splashInit
C:\Users\VINCIU~1\AppData\Local\Temp\ccUTXsQS.s:7694   .bss.count:00000000 count
C:\Users\VINCIU~1\AppData\Local\Temp\ccUTXsQS.s:7762   .bss.navigation:00000000 navigation
C:\Users\VINCIU~1\AppData\Local\Temp\ccUTXsQS.s:7707   .bss.finished:00000000 finished
C:\Users\VINCIU~1\AppData\Local\Temp\ccUTXsQS.s:7776   .bss.osc1Freq:00000000 osc1Freq
C:\Users\VINCIU~1\AppData\Local\Temp\ccUTXsQS.s:7810   .data.semiMultiplier:00000000 semiMultiplier
C:\Users\VINCIU~1\AppData\Local\Temp\ccUTXsQS.s:7755   .bss.midi_cfg:00000000 midi_cfg
C:\Users\VINCIU~1\AppData\Local\Temp\ccUTXsQS.s:7728   .bss.gate:00000000 gate
C:\Users\VINCIU~1\AppData\Local\Temp\ccUTXsQS.s:7701   .bss.env:00000000 env
C:\Users\VINCIU~1\AppData\Local\Temp\ccUTXsQS.s:7742   .bss.line:00000000 line
C:\Users\VINCIU~1\AppData\Local\Temp\ccUTXsQS.s:7769   .bss.osc:00000000 osc
C:\Users\VINCIU~1\AppData\Local\Temp\ccUTXsQS.s:7797   .bss.screen:00000000 screen
C:\Users\VINCIU~1\AppData\Local\Temp\ccUTXsQS.s:7735   .bss.hw:00000000 hw
C:\Users\VINCIU~1\AppData\Local\Temp\ccUTXsQS.s:7804   .bss.synthmenu:00000000 synthmenu
C:\Users\VINCIU~1\AppData\Local\Temp\ccUTXsQS.s:7680   .rodata:00000000 $d
C:\Users\VINCIU~1\AppData\Local\Temp\ccUTXsQS.s:7690   .bss.count:00000000 $d
C:\Users\VINCIU~1\AppData\Local\Temp\ccUTXsQS.s:7697   .bss.env:00000000 $d
C:\Users\VINCIU~1\AppData\Local\Temp\ccUTXsQS.s:7708   .bss.finished:00000000 $d
C:\Users\VINCIU~1\AppData\Local\Temp\ccUTXsQS.s:7710   .bss.freq1:00000000 $d
C:\Users\VINCIU~1\AppData\Local\Temp\ccUTXsQS.s:7717   .bss.freq2:00000000 $d
C:\Users\VINCIU~1\AppData\Local\Temp\ccUTXsQS.s:7724   .bss.gate:00000000 $d
C:\Users\VINCIU~1\AppData\Local\Temp\ccUTXsQS.s:7731   .bss.hw:00000000 $d
C:\Users\VINCIU~1\AppData\Local\Temp\ccUTXsQS.s:7738   .bss.line:00000000 $d
ARM GAS  C:\Users\VINCIU~1\AppData\Local\Temp\ccUTXsQS.s 			page 218


C:\Users\VINCIU~1\AppData\Local\Temp\ccUTXsQS.s:7745   .bss.midi:00000000 $d
C:\Users\VINCIU~1\AppData\Local\Temp\ccUTXsQS.s:7751   .bss.midi_cfg:00000000 $d
C:\Users\VINCIU~1\AppData\Local\Temp\ccUTXsQS.s:7758   .bss.navigation:00000000 $d
C:\Users\VINCIU~1\AppData\Local\Temp\ccUTXsQS.s:7765   .bss.osc:00000000 $d
C:\Users\VINCIU~1\AppData\Local\Temp\ccUTXsQS.s:7772   .bss.osc1Freq:00000000 $d
C:\Users\VINCIU~1\AppData\Local\Temp\ccUTXsQS.s:7779   .bss.polyIndexOff:00000000 $d
C:\Users\VINCIU~1\AppData\Local\Temp\ccUTXsQS.s:7786   .bss.polyIndexOn:00000000 $d
C:\Users\VINCIU~1\AppData\Local\Temp\ccUTXsQS.s:7793   .bss.screen:00000000 $d
C:\Users\VINCIU~1\AppData\Local\Temp\ccUTXsQS.s:7800   .bss.synthmenu:00000000 $d
C:\Users\VINCIU~1\AppData\Local\Temp\ccUTXsQS.s:7807   .data.semiMultiplier:00000000 $d
                           .group:00000000 _ZN5daisy9DaisySeedD5Ev
                           .group:00000000 _ZN23OledDisplayExtravaganzaD5Ev
                           .group:00000000 _ZN5MenusD5Ev
                           .group:00000000 _ZN5daisy11MidiHandlerINS_17MidiUartTransportEED5Ev

UNDEFINED SYMBOLS
memset
_ZN7daisysp4Adsr7ProcessEb
_ZN7daisysp10Oscillator7ProcessEv
_ZN7daisysp4Line7ProcessEPh
_ZdlPvj
dsy_gpio_write
_ZN5daisy9SpiHandle16BlockingTransmitEPhjm
cosf
sinf
_ZN7daisysp4Line5StartEfff
powf
_ZN7daisysp10Oscillator12CalcPhaseIncEf
dsy_gpio_init
_ZN5daisy9SpiHandle4InitERKNS0_6ConfigE
_ZN5daisy6System5DelayEm
memcpy
_ZN5daisy9DaisySeed9ConfigureEv
_ZN5daisy9DaisySeed4InitEb
sprintf
_ZN5daisy9UsbHandle4InitENS0_9UsbPeriphE
_ZN5daisy9DaisySeed15AudioSampleRateEv
_ZN5daisy9DaisySeed6GetPinEh
_ZN5daisy6Switch4InitE12dsy_gpio_pinf
_ZN5daisy7Encoder4InitE12dsy_gpio_pinS1_S1_f
_ZN5daisy9DaisySeed10StartAudioEPFvPKfPfjE
_ZN7daisysp4Line4InitEf
_ZN7daisysp4Adsr4InitEfi
_ZN7daisysp4Adsr7SetTimeEif
_ZN5daisy11UartHandler4InitERKNS0_6ConfigE
_ZN5daisy11UartHandler7StartRxEv
_ZN5daisy6System6GetNowEv
_ZN5daisy11UartHandler5PopRxEv
_ZN5daisy11UartHandler8ReadableEv
_ZN5daisy11UartHandler8RxActiveEv
_ZN5daisy6Switch8DebounceEv
_ZN5daisy7Encoder8DebounceEv
_ZN5Menus5Menu3E23OledDisplayExtravaganzaPN7daisysp4AdsrE
_ZN5Menus12SplashScreenE23OledDisplayExtravaganza
_ZN5daisy11UartHandler7FlushRxEv
_ZN5Menus5Menu1E23OledDisplayExtravaganzaPNS_8oscVoiceE
_ZN5Menus5Menu2E23OledDisplayExtravaganzaNS_8oscVoiceE
ARM GAS  C:\Users\VINCIU~1\AppData\Local\Temp\ccUTXsQS.s 			page 219


_ZN5MenusC1Ev
__aeabi_atexit
_ZN23OledDisplayExtravaganzaC1Ev
__dso_handle
_ZTVN10__cxxabiv117__class_type_infoE
_ZTVN10__cxxabiv120__si_class_type_infoE
