ARM GAS  C:\Users\VINCIU~1\AppData\Local\Temp\cc6Tz7la.s 			page 1


   1              		.cpu cortex-m7
   2              		.eabi_attribute 28, 1
   3              		.eabi_attribute 20, 1
   4              		.eabi_attribute 21, 1
   5              		.eabi_attribute 23, 3
   6              		.eabi_attribute 24, 1
   7              		.eabi_attribute 25, 1
   8              		.eabi_attribute 26, 1
   9              		.eabi_attribute 30, 2
  10              		.eabi_attribute 34, 1
  11              		.eabi_attribute 18, 4
  12              		.file	"SynthMenis.cpp"
  13              		.text
  14              	.Ltext0:
  15              		.cfi_sections	.debug_frame
  16              		.section	.text._ZN5daisy9DaisySeedD2Ev,"axG",%progbits,_ZN5daisy9DaisySeedD5Ev,comdat
  17              		.align	1
  18              		.p2align 2,,3
  19              		.weak	_ZN5daisy9DaisySeedD2Ev
  20              		.arch armv7e-m
  21              		.syntax unified
  22              		.thumb
  23              		.thumb_func
  24              		.fpu fpv5-d16
  26              	_ZN5daisy9DaisySeedD2Ev:
  27              	.LVL0:
  28              	.LFB1793:
  29              		.file 1 "../../libdaisy/src/daisy_seed.h"
   1:../../libdaisy/src/daisy_seed.h **** #pragma once
   2:../../libdaisy/src/daisy_seed.h **** #ifndef DSY_SEED_H
   3:../../libdaisy/src/daisy_seed.h **** #define DSY_SEED_H
   4:../../libdaisy/src/daisy_seed.h **** 
   5:../../libdaisy/src/daisy_seed.h **** #include "daisy.h"
   6:../../libdaisy/src/daisy_seed.h **** 
   7:../../libdaisy/src/daisy_seed.h **** //Uncomment this out if you're still using the rev2 hardware
   8:../../libdaisy/src/daisy_seed.h **** //#define SEED_REV2
   9:../../libdaisy/src/daisy_seed.h **** 
  10:../../libdaisy/src/daisy_seed.h **** namespace daisy
  11:../../libdaisy/src/daisy_seed.h **** {
  12:../../libdaisy/src/daisy_seed.h **** /**
  13:../../libdaisy/src/daisy_seed.h ****    @brief This is the higher-level interface for the Daisy board. \n 
  14:../../libdaisy/src/daisy_seed.h ****     All basic peripheral configuration/initialization is setup here. \n
  15:../../libdaisy/src/daisy_seed.h **** 
  16:../../libdaisy/src/daisy_seed.h ****    @ingroup boards
  17:../../libdaisy/src/daisy_seed.h **** */
  18:../../libdaisy/src/daisy_seed.h **** class DaisySeed
  19:../../libdaisy/src/daisy_seed.h **** {
  20:../../libdaisy/src/daisy_seed.h ****   public:
  21:../../libdaisy/src/daisy_seed.h ****     DaisySeed() {}
  22:../../libdaisy/src/daisy_seed.h ****     ~DaisySeed() {}
  30              		.loc 1 22 5 view -0
  31              		.cfi_startproc
  32              		@ args = 0, pretend = 0, frame = 0
  33              		@ frame_needed = 0, uses_anonymous_args = 0
  34              		@ link register save eliminated.
  35              	.LBB335:
  36              	.LBI335:
ARM GAS  C:\Users\VINCIU~1\AppData\Local\Temp\cc6Tz7la.s 			page 2


  37              		.file 2 "../../libdaisy/src/sys/system.h"
   1:../../libdaisy/src/sys/system.h **** #ifndef DSY_SYSTEM_H
   2:../../libdaisy/src/sys/system.h **** #define DSY_SYSTEM_H
   3:../../libdaisy/src/sys/system.h **** 
   4:../../libdaisy/src/sys/system.h **** #ifndef UNIT_TEST // for unit tests, a dummy implementation is provided below
   5:../../libdaisy/src/sys/system.h **** 
   6:../../libdaisy/src/sys/system.h **** #include <cstdint>
   7:../../libdaisy/src/sys/system.h **** #include "per/tim.h"
   8:../../libdaisy/src/sys/system.h **** 
   9:../../libdaisy/src/sys/system.h **** namespace daisy
  10:../../libdaisy/src/sys/system.h **** {
  11:../../libdaisy/src/sys/system.h **** /** A handle for interacting with the Core System. 
  12:../../libdaisy/src/sys/system.h ****  ** This includes the Clock tree, MPU, global DMA initialization,
  13:../../libdaisy/src/sys/system.h ****  ** cache handling, and any other necessary global initiailzation
  14:../../libdaisy/src/sys/system.h ****  **
  15:../../libdaisy/src/sys/system.h ****  ** @author shensley
  16:../../libdaisy/src/sys/system.h ****  ** @addtogroup system
  17:../../libdaisy/src/sys/system.h ****  */
  18:../../libdaisy/src/sys/system.h **** class System
  19:../../libdaisy/src/sys/system.h **** {
  20:../../libdaisy/src/sys/system.h ****   public:
  21:../../libdaisy/src/sys/system.h ****     /** Contains settings for initializing the System */
  22:../../libdaisy/src/sys/system.h ****     struct Config
  23:../../libdaisy/src/sys/system.h ****     {
  24:../../libdaisy/src/sys/system.h ****         /** Specifies the system clock frequency that feeds APB/AHB clocks, etc. */
  25:../../libdaisy/src/sys/system.h ****         enum class SysClkFreq
  26:../../libdaisy/src/sys/system.h ****         {
  27:../../libdaisy/src/sys/system.h ****             FREQ_400MHZ,
  28:../../libdaisy/src/sys/system.h ****             FREQ_480MHZ,
  29:../../libdaisy/src/sys/system.h ****         };
  30:../../libdaisy/src/sys/system.h **** 
  31:../../libdaisy/src/sys/system.h ****         /** Method to call on the struct to set to defaults
  32:../../libdaisy/src/sys/system.h ****          ** CPU Freq set to 400MHz
  33:../../libdaisy/src/sys/system.h ****          ** Cache Enabled 
  34:../../libdaisy/src/sys/system.h ****          ** */
  35:../../libdaisy/src/sys/system.h ****         void Defaults()
  36:../../libdaisy/src/sys/system.h ****         {
  37:../../libdaisy/src/sys/system.h ****             cpu_freq   = SysClkFreq::FREQ_400MHZ;
  38:../../libdaisy/src/sys/system.h ****             use_dcache = true;
  39:../../libdaisy/src/sys/system.h ****             use_icache = true;
  40:../../libdaisy/src/sys/system.h ****         }
  41:../../libdaisy/src/sys/system.h **** 
  42:../../libdaisy/src/sys/system.h ****         /** Method to call on the struct to set to boost mode:
  43:../../libdaisy/src/sys/system.h ****          ** CPU Freq set to 480MHz
  44:../../libdaisy/src/sys/system.h ****          ** Cache Enabled 
  45:../../libdaisy/src/sys/system.h ****          ** */
  46:../../libdaisy/src/sys/system.h ****         void Boost()
  47:../../libdaisy/src/sys/system.h ****         {
  48:../../libdaisy/src/sys/system.h ****             cpu_freq   = SysClkFreq::FREQ_480MHZ;
  49:../../libdaisy/src/sys/system.h ****             use_dcache = true;
  50:../../libdaisy/src/sys/system.h ****             use_icache = true;
  51:../../libdaisy/src/sys/system.h ****         }
  52:../../libdaisy/src/sys/system.h **** 
  53:../../libdaisy/src/sys/system.h ****         SysClkFreq cpu_freq;
  54:../../libdaisy/src/sys/system.h ****         bool       use_dcache;
  55:../../libdaisy/src/sys/system.h ****         bool       use_icache;
  56:../../libdaisy/src/sys/system.h ****     };
ARM GAS  C:\Users\VINCIU~1\AppData\Local\Temp\cc6Tz7la.s 			page 3


  57:../../libdaisy/src/sys/system.h **** 
  58:../../libdaisy/src/sys/system.h ****     System() {}
  59:../../libdaisy/src/sys/system.h ****     ~System() {}
  38              		.loc 2 59 5 view .LVU1
  39              		.loc 2 59 5 is_stmt 0 view .LVU2
  40              	.LBE335:
  41              	.LBB336:
  42              	.LBI336:
  43              		.file 3 "../../libdaisy/src/hid/usb.h"
   1:../../libdaisy/src/hid/usb.h **** #pragma once
   2:../../libdaisy/src/hid/usb.h **** #ifndef DSY_HID_USB_H
   3:../../libdaisy/src/hid/usb.h **** #define DSY_HID_USB_H
   4:../../libdaisy/src/hid/usb.h **** #include <stdint.h>
   5:../../libdaisy/src/hid/usb.h **** #include <stdlib.h>
   6:../../libdaisy/src/hid/usb.h **** 
   7:../../libdaisy/src/hid/usb.h **** namespace daisy
   8:../../libdaisy/src/hid/usb.h **** /** @addtogroup externals
   9:../../libdaisy/src/hid/usb.h ****     @{
  10:../../libdaisy/src/hid/usb.h **** */
  11:../../libdaisy/src/hid/usb.h **** 
  12:../../libdaisy/src/hid/usb.h **** {
  13:../../libdaisy/src/hid/usb.h **** /** 
  14:../../libdaisy/src/hid/usb.h ****     @brief Interface for initializing and using the USB Peripherals on the daisy
  15:../../libdaisy/src/hid/usb.h ****     @author Stephen Hensley
  16:../../libdaisy/src/hid/usb.h ****     @date December 2019
  17:../../libdaisy/src/hid/usb.h **** */
  18:../../libdaisy/src/hid/usb.h **** class UsbHandle
  19:../../libdaisy/src/hid/usb.h **** {
  20:../../libdaisy/src/hid/usb.h ****   public:
  21:../../libdaisy/src/hid/usb.h ****     /** Return values for USBHandle Functions */
  22:../../libdaisy/src/hid/usb.h ****     enum class Result
  23:../../libdaisy/src/hid/usb.h ****     {
  24:../../libdaisy/src/hid/usb.h ****         OK,
  25:../../libdaisy/src/hid/usb.h ****         ERR,
  26:../../libdaisy/src/hid/usb.h ****     };
  27:../../libdaisy/src/hid/usb.h **** 
  28:../../libdaisy/src/hid/usb.h ****     /** Specified which of the two USB Peripherals to initialize. */
  29:../../libdaisy/src/hid/usb.h ****     enum UsbPeriph
  30:../../libdaisy/src/hid/usb.h ****     {
  31:../../libdaisy/src/hid/usb.h ****         FS_INTERNAL, /**< Internal pin */
  32:../../libdaisy/src/hid/usb.h ****         FS_EXTERNAL, /**< FS External D+ pin is Pin 38 (GPIO32). FS External D- pin is Pin 37 (GPIO
  33:../../libdaisy/src/hid/usb.h ****         FS_BOTH,     /**< Both */
  34:../../libdaisy/src/hid/usb.h ****     };
  35:../../libdaisy/src/hid/usb.h **** 
  36:../../libdaisy/src/hid/usb.h **** 
  37:../../libdaisy/src/hid/usb.h ****     /** Function called upon reception of a buffer */
  38:../../libdaisy/src/hid/usb.h ****     typedef void (*ReceiveCallback)(uint8_t* buff, uint32_t* len);
  39:../../libdaisy/src/hid/usb.h **** 
  40:../../libdaisy/src/hid/usb.h ****     UsbHandle() {}
  41:../../libdaisy/src/hid/usb.h **** 
  42:../../libdaisy/src/hid/usb.h ****     ~UsbHandle() {}
  44              		.loc 3 42 5 is_stmt 1 view .LVU3
  45              		.loc 3 42 5 is_stmt 0 view .LVU4
  46              	.LBE336:
  47              	.LBB337:
  48              	.LBI337:
  49              		.file 4 "../../libdaisy/src/per/adc.h"
ARM GAS  C:\Users\VINCIU~1\AppData\Local\Temp\cc6Tz7la.s 			page 4


   1:../../libdaisy/src/per/adc.h **** #pragma once
   2:../../libdaisy/src/per/adc.h **** #ifndef DSY_ADC_H
   3:../../libdaisy/src/per/adc.h **** #define DSY_ADC_H /**< Macro */
   4:../../libdaisy/src/per/adc.h **** #include <stdint.h>
   5:../../libdaisy/src/per/adc.h **** #include <stdlib.h>
   6:../../libdaisy/src/per/adc.h **** #include "daisy_core.h"
   7:../../libdaisy/src/per/adc.h **** #include "per/gpio.h"
   8:../../libdaisy/src/per/adc.h **** 
   9:../../libdaisy/src/per/adc.h **** #define DSY_ADC_MAX_CHANNELS 14 /**< Maximum number of ADC channels */
  10:../../libdaisy/src/per/adc.h **** 
  11:../../libdaisy/src/per/adc.h **** namespace daisy
  12:../../libdaisy/src/per/adc.h **** {
  13:../../libdaisy/src/per/adc.h **** /** @addtogroup analog_digital_conversion
  14:../../libdaisy/src/per/adc.h ****     @{
  15:../../libdaisy/src/per/adc.h **** */
  16:../../libdaisy/src/per/adc.h **** 
  17:../../libdaisy/src/per/adc.h **** /* While there may not be many configuration options here,
  18:../../libdaisy/src/per/adc.h **** using a struct like this allows us to add more configuration
  19:../../libdaisy/src/per/adc.h **** later without breaking existing functionality.
  20:../../libdaisy/src/per/adc.h **** */
  21:../../libdaisy/src/per/adc.h **** 
  22:../../libdaisy/src/per/adc.h **** /** Configuration Structure for a given channel */
  23:../../libdaisy/src/per/adc.h **** struct AdcChannelConfig
  24:../../libdaisy/src/per/adc.h **** {
  25:../../libdaisy/src/per/adc.h ****     /** Which pin to use for multiplexing */
  26:../../libdaisy/src/per/adc.h ****     enum MuxPin
  27:../../libdaisy/src/per/adc.h ****     {
  28:../../libdaisy/src/per/adc.h ****         MUX_SEL_0,    /**< & */
  29:../../libdaisy/src/per/adc.h ****         MUX_SEL_1,    /**< & */
  30:../../libdaisy/src/per/adc.h ****         MUX_SEL_2,    /**< & */
  31:../../libdaisy/src/per/adc.h ****         MUX_SEL_LAST, /**< & */
  32:../../libdaisy/src/per/adc.h ****     };
  33:../../libdaisy/src/per/adc.h **** 
  34:../../libdaisy/src/per/adc.h ****     /** Initializes a single ADC pin as an ADC. 
  35:../../libdaisy/src/per/adc.h ****     \param pin Pin to init.
  36:../../libdaisy/src/per/adc.h ****      */
  37:../../libdaisy/src/per/adc.h ****     void InitSingle(dsy_gpio_pin pin);
  38:../../libdaisy/src/per/adc.h **** 
  39:../../libdaisy/src/per/adc.h ****     /** 
  40:../../libdaisy/src/per/adc.h ****     Initializes a single ADC pin as a Multiplexed ADC.
  41:../../libdaisy/src/per/adc.h ****     Requires a CD405X Multiplexer connected to the pin.
  42:../../libdaisy/src/per/adc.h ****     You only need to supply the mux pins that are required,
  43:../../libdaisy/src/per/adc.h ****     e.g. a 4052 mux would only require mux_0 and mux_1.
  44:../../libdaisy/src/per/adc.h ****     Internal Callbacks handle the pin addressing.
  45:../../libdaisy/src/per/adc.h ****     \param mux_channels must be 1-8
  46:../../libdaisy/src/per/adc.h ****     \param mux_0 First mux pin
  47:../../libdaisy/src/per/adc.h ****     \param mux_1 Second mux pin
  48:../../libdaisy/src/per/adc.h ****     \param mux_2 Third mux pin
  49:../../libdaisy/src/per/adc.h ****     \param adc_pin &
  50:../../libdaisy/src/per/adc.h ****     */
  51:../../libdaisy/src/per/adc.h ****     void InitMux(dsy_gpio_pin adc_pin,
  52:../../libdaisy/src/per/adc.h ****                  size_t       mux_channels,
  53:../../libdaisy/src/per/adc.h ****                  dsy_gpio_pin mux_0,
  54:../../libdaisy/src/per/adc.h ****                  dsy_gpio_pin mux_1 = {DSY_GPIOX, 0},
  55:../../libdaisy/src/per/adc.h ****                  dsy_gpio_pin mux_2 = {DSY_GPIOX, 0});
  56:../../libdaisy/src/per/adc.h **** 
  57:../../libdaisy/src/per/adc.h ****     dsy_gpio pin_;                   /**< & */
ARM GAS  C:\Users\VINCIU~1\AppData\Local\Temp\cc6Tz7la.s 			page 5


  58:../../libdaisy/src/per/adc.h ****     dsy_gpio mux_pin_[MUX_SEL_LAST]; /**< & */
  59:../../libdaisy/src/per/adc.h ****     uint8_t  mux_channels_;          /**< & */
  60:../../libdaisy/src/per/adc.h **** };
  61:../../libdaisy/src/per/adc.h **** 
  62:../../libdaisy/src/per/adc.h **** /**
  63:../../libdaisy/src/per/adc.h ****    Handler for analog to digital conversion
  64:../../libdaisy/src/per/adc.h **** */
  65:../../libdaisy/src/per/adc.h **** class AdcHandle
  66:../../libdaisy/src/per/adc.h **** {
  67:../../libdaisy/src/per/adc.h ****   public:
  68:../../libdaisy/src/per/adc.h ****     /** Supported oversampling amounts */
  69:../../libdaisy/src/per/adc.h ****     enum OverSampling
  70:../../libdaisy/src/per/adc.h ****     {
  71:../../libdaisy/src/per/adc.h ****         OVS_NONE, /**< & */
  72:../../libdaisy/src/per/adc.h ****         OVS_4,    /**< & */
  73:../../libdaisy/src/per/adc.h ****         OVS_8,    /**< & */
  74:../../libdaisy/src/per/adc.h ****         OVS_16,   /**< & */
  75:../../libdaisy/src/per/adc.h ****         OVS_32,   /**< & */
  76:../../libdaisy/src/per/adc.h ****         OVS_64,   /**< & */
  77:../../libdaisy/src/per/adc.h ****         OVS_128,  /**< & */
  78:../../libdaisy/src/per/adc.h ****         OVS_256,  /**< & */
  79:../../libdaisy/src/per/adc.h ****         OVS_512,  /**< & */
  80:../../libdaisy/src/per/adc.h ****         OVS_1024, /**< & */
  81:../../libdaisy/src/per/adc.h ****         OVS_LAST, /**< & */
  82:../../libdaisy/src/per/adc.h ****     };
  83:../../libdaisy/src/per/adc.h **** 
  84:../../libdaisy/src/per/adc.h ****     AdcHandle() {}
  85:../../libdaisy/src/per/adc.h ****     ~AdcHandle() {}
  50              		.loc 4 85 5 is_stmt 1 view .LVU5
  51              		.loc 4 85 5 is_stmt 0 view .LVU6
  52              	.LBE337:
  53              	.LBB338:
  54              	.LBI338:
  55              		.file 5 "../../libdaisy/src/hid/audio.h"
   1:../../libdaisy/src/hid/audio.h **** #ifndef DSY_AUDIO_H
   2:../../libdaisy/src/hid/audio.h **** #define DSY_AUDIO_H /**< & */
   3:../../libdaisy/src/hid/audio.h **** 
   4:../../libdaisy/src/hid/audio.h **** #include "per/sai.h"
   5:../../libdaisy/src/hid/audio.h **** 
   6:../../libdaisy/src/hid/audio.h **** namespace daisy
   7:../../libdaisy/src/hid/audio.h **** {
   8:../../libdaisy/src/hid/audio.h **** class AudioHandle
   9:../../libdaisy/src/hid/audio.h **** {
  10:../../libdaisy/src/hid/audio.h ****   public:
  11:../../libdaisy/src/hid/audio.h ****     /** Manually configurable details about the Audio Engine */
  12:../../libdaisy/src/hid/audio.h ****     /** TODO: Figure out how to get samplerate in here. */
  13:../../libdaisy/src/hid/audio.h ****     struct Config
  14:../../libdaisy/src/hid/audio.h ****     {
  15:../../libdaisy/src/hid/audio.h ****         size_t                        blocksize;
  16:../../libdaisy/src/hid/audio.h ****         SaiHandle::Config::SampleRate samplerate;
  17:../../libdaisy/src/hid/audio.h ****         float                         postgain;
  18:../../libdaisy/src/hid/audio.h ****     };
  19:../../libdaisy/src/hid/audio.h **** 
  20:../../libdaisy/src/hid/audio.h ****     enum class Result
  21:../../libdaisy/src/hid/audio.h ****     {
  22:../../libdaisy/src/hid/audio.h ****         OK,
  23:../../libdaisy/src/hid/audio.h ****         ERR,
ARM GAS  C:\Users\VINCIU~1\AppData\Local\Temp\cc6Tz7la.s 			page 6


  24:../../libdaisy/src/hid/audio.h ****     };
  25:../../libdaisy/src/hid/audio.h **** 
  26:../../libdaisy/src/hid/audio.h ****     /** Non-Interleaving input buffer
  27:../../libdaisy/src/hid/audio.h ****      * Buffer arranged by float[chn][sample] 
  28:../../libdaisy/src/hid/audio.h ****      * const so that the user can't modify the input
  29:../../libdaisy/src/hid/audio.h ****     */
  30:../../libdaisy/src/hid/audio.h ****     typedef const float* const* InputBuffer;
  31:../../libdaisy/src/hid/audio.h **** 
  32:../../libdaisy/src/hid/audio.h ****     /** Non-Interleaving output buffer
  33:../../libdaisy/src/hid/audio.h ****      * Arranged by float[chn][sample] 
  34:../../libdaisy/src/hid/audio.h ****     */
  35:../../libdaisy/src/hid/audio.h ****     typedef float** OutputBuffer;
  36:../../libdaisy/src/hid/audio.h **** 
  37:../../libdaisy/src/hid/audio.h ****     /** Type for a Non-Interleaving audio callback 
  38:../../libdaisy/src/hid/audio.h ****    * Non-Interleaving audio callbacks in daisy will be of this type
  39:../../libdaisy/src/hid/audio.h ****   */
  40:../../libdaisy/src/hid/audio.h ****     typedef void (*AudioCallback)(InputBuffer  in,
  41:../../libdaisy/src/hid/audio.h ****                                   OutputBuffer out,
  42:../../libdaisy/src/hid/audio.h ****                                   size_t       size);
  43:../../libdaisy/src/hid/audio.h **** 
  44:../../libdaisy/src/hid/audio.h ****     /** Interleaving Input buffer
  45:../../libdaisy/src/hid/audio.h ****      ** audio is prepared as { L0, R0, L1, R1, . . . LN, RN }]
  46:../../libdaisy/src/hid/audio.h ****      ** this is const, as the user shouldn't modify it
  47:../../libdaisy/src/hid/audio.h ****     */
  48:../../libdaisy/src/hid/audio.h ****     typedef const float* InterleavingInputBuffer;
  49:../../libdaisy/src/hid/audio.h **** 
  50:../../libdaisy/src/hid/audio.h ****     /** Interleaving Output buffer 
  51:../../libdaisy/src/hid/audio.h ****      ** audio is prepared as { L0, R0, L1, R1, . . . LN, RN }
  52:../../libdaisy/src/hid/audio.h ****     */
  53:../../libdaisy/src/hid/audio.h ****     typedef float* InterleavingOutputBuffer;
  54:../../libdaisy/src/hid/audio.h **** 
  55:../../libdaisy/src/hid/audio.h ****     /** Interleaving Audio Callback 
  56:../../libdaisy/src/hid/audio.h ****    * Interleaving audio callbacks in daisy must be of this type
  57:../../libdaisy/src/hid/audio.h ****   */
  58:../../libdaisy/src/hid/audio.h ****     typedef void (*InterleavingAudioCallback)(InterleavingInputBuffer  in,
  59:../../libdaisy/src/hid/audio.h ****                                               InterleavingOutputBuffer out,
  60:../../libdaisy/src/hid/audio.h ****                                               size_t                   size);
  61:../../libdaisy/src/hid/audio.h **** 
  62:../../libdaisy/src/hid/audio.h ****     AudioHandle() : pimpl_(nullptr) {}
  63:../../libdaisy/src/hid/audio.h ****     ~AudioHandle() {}
  56              		.loc 5 63 5 is_stmt 1 view .LVU7
  57              		.loc 5 63 5 is_stmt 0 view .LVU8
  58              	.LBE338:
  59              		.loc 1 22 19 view .LVU9
  60 0000 7047     		bx	lr
  61              		.cfi_endproc
  62              	.LFE1793:
  64              		.weak	_ZN5daisy9DaisySeedD1Ev
  65              		.thumb_set _ZN5daisy9DaisySeedD1Ev,_ZN5daisy9DaisySeedD2Ev
  66 0002 00BF     		.section	.text._ZN7daisysp4AdsrD2Ev,"axG",%progbits,_ZN7daisysp4AdsrD5Ev,comdat
  67              		.align	1
  68              		.p2align 2,,3
  69              		.weak	_ZN7daisysp4AdsrD2Ev
  70              		.syntax unified
  71              		.thumb
  72              		.thumb_func
  73              		.fpu fpv5-d16
ARM GAS  C:\Users\VINCIU~1\AppData\Local\Temp\cc6Tz7la.s 			page 7


  75              	_ZN7daisysp4AdsrD2Ev:
  76              	.LVL1:
  77              	.LFB1816:
  78              		.file 6 "../../DaisySP/Source/Control/adsr.h"
   1:../../DaisySP/Source/Control/adsr.h **** #pragma once
   2:../../DaisySP/Source/Control/adsr.h **** #ifndef DSY_ADSR_H
   3:../../DaisySP/Source/Control/adsr.h **** #define DSY_ADSR_H
   4:../../DaisySP/Source/Control/adsr.h **** 
   5:../../DaisySP/Source/Control/adsr.h **** #include <stdint.h>
   6:../../DaisySP/Source/Control/adsr.h **** #ifdef __cplusplus
   7:../../DaisySP/Source/Control/adsr.h **** 
   8:../../DaisySP/Source/Control/adsr.h **** namespace daisysp
   9:../../DaisySP/Source/Control/adsr.h **** {
  10:../../DaisySP/Source/Control/adsr.h **** /** Distinct stages that the phase of the envelope can be located in.
  11:../../DaisySP/Source/Control/adsr.h **** - IDLE   = located at phase location 0, and not currently running
  12:../../DaisySP/Source/Control/adsr.h **** - ATTACK  = First segment of envelope where phase moves from 0 to 1
  13:../../DaisySP/Source/Control/adsr.h **** - DECAY   = Second segment of envelope where phase moves from 1 to SUSTAIN value
  14:../../DaisySP/Source/Control/adsr.h **** - RELEASE =     Fourth segment of envelop where phase moves from SUSTAIN to 0
  15:../../DaisySP/Source/Control/adsr.h **** */
  16:../../DaisySP/Source/Control/adsr.h **** enum
  17:../../DaisySP/Source/Control/adsr.h **** {
  18:../../DaisySP/Source/Control/adsr.h ****     ADSR_SEG_IDLE    = 0,
  19:../../DaisySP/Source/Control/adsr.h ****     ADSR_SEG_ATTACK  = 1,
  20:../../DaisySP/Source/Control/adsr.h ****     ADSR_SEG_DECAY   = 2,
  21:../../DaisySP/Source/Control/adsr.h ****     ADSR_SEG_RELEASE = 4
  22:../../DaisySP/Source/Control/adsr.h **** };
  23:../../DaisySP/Source/Control/adsr.h **** 
  24:../../DaisySP/Source/Control/adsr.h **** 
  25:../../DaisySP/Source/Control/adsr.h **** /** adsr envelope module
  26:../../DaisySP/Source/Control/adsr.h **** 
  27:../../DaisySP/Source/Control/adsr.h **** Original author(s) : Paul Batchelor
  28:../../DaisySP/Source/Control/adsr.h **** 
  29:../../DaisySP/Source/Control/adsr.h **** Ported from Soundpipe by Ben Sergentanis, May 2020
  30:../../DaisySP/Source/Control/adsr.h ****  
  31:../../DaisySP/Source/Control/adsr.h **** Remake by Steffan DIedrichsen, May 2021
  32:../../DaisySP/Source/Control/adsr.h **** */
  33:../../DaisySP/Source/Control/adsr.h **** class Adsr
  34:../../DaisySP/Source/Control/adsr.h **** {
  35:../../DaisySP/Source/Control/adsr.h ****   public:
  36:../../DaisySP/Source/Control/adsr.h ****     Adsr() {}
  37:../../DaisySP/Source/Control/adsr.h ****     ~Adsr() {}
  79              		.loc 6 37 5 is_stmt 1 view -0
  80              		.cfi_startproc
  81              		@ args = 0, pretend = 0, frame = 0
  82              		@ frame_needed = 0, uses_anonymous_args = 0
  83              		@ link register save eliminated.
  84              		.loc 6 37 14 is_stmt 0 view .LVU11
  85 0000 7047     		bx	lr
  86              		.cfi_endproc
  87              	.LFE1816:
  89              		.weak	_ZN7daisysp4AdsrD1Ev
  90              		.thumb_set _ZN7daisysp4AdsrD1Ev,_ZN7daisysp4AdsrD2Ev
  91              		.section	.text._ZN7daisysp4LineD2Ev,"axG",%progbits,_ZN7daisysp4LineD5Ev,comdat
  92              		.align	1
  93              		.p2align 2,,3
  94              		.weak	_ZN7daisysp4LineD2Ev
  95              		.syntax unified
ARM GAS  C:\Users\VINCIU~1\AppData\Local\Temp\cc6Tz7la.s 			page 8


  96              		.thumb
  97              		.thumb_func
  98              		.fpu fpv5-d16
 100              	_ZN7daisysp4LineD2Ev:
 101              	.LVL2:
 102              	.LFB1825:
 103              		.file 7 "../../DaisySP/Source/Control/line.h"
   1:../../DaisySP/Source/Control/line.h **** #pragma once
   2:../../DaisySP/Source/Control/line.h **** #ifndef LINE_H
   3:../../DaisySP/Source/Control/line.h **** #define LINE_H
   4:../../DaisySP/Source/Control/line.h **** #include <stdint.h>
   5:../../DaisySP/Source/Control/line.h **** #ifdef __cplusplus
   6:../../DaisySP/Source/Control/line.h **** 
   7:../../DaisySP/Source/Control/line.h **** namespace daisysp
   8:../../DaisySP/Source/Control/line.h **** {
   9:../../DaisySP/Source/Control/line.h **** /** creates a Line segment signal
  10:../../DaisySP/Source/Control/line.h ****     */
  11:../../DaisySP/Source/Control/line.h **** class Line
  12:../../DaisySP/Source/Control/line.h **** {
  13:../../DaisySP/Source/Control/line.h ****   public:
  14:../../DaisySP/Source/Control/line.h ****     Line() {}
  15:../../DaisySP/Source/Control/line.h ****     ~Line() {}
 104              		.loc 7 15 5 is_stmt 1 view -0
 105              		.cfi_startproc
 106              		@ args = 0, pretend = 0, frame = 0
 107              		@ frame_needed = 0, uses_anonymous_args = 0
 108              		@ link register save eliminated.
 109              		.loc 7 15 14 is_stmt 0 view .LVU13
 110 0000 7047     		bx	lr
 111              		.cfi_endproc
 112              	.LFE1825:
 114              		.weak	_ZN7daisysp4LineD1Ev
 115              		.thumb_set _ZN7daisysp4LineD1Ev,_ZN7daisysp4LineD2Ev
 116              		.section	.text._ZNK5daisy11OledDisplayINS_13SSD130xDriverILj128ELj64ENS_24SSD130x4WireSpiTransport
 117              		.align	1
 118              		.p2align 2,,3
 119              		.weak	_ZNK5daisy11OledDisplayINS_13SSD130xDriverILj128ELj64ENS_24SSD130x4WireSpiTransportEEEE6Heig
 120              		.syntax unified
 121              		.thumb
 122              		.thumb_func
 123              		.fpu fpv5-d16
 125              	_ZNK5daisy11OledDisplayINS_13SSD130xDriverILj128ELj64ENS_24SSD130x4WireSpiTransportEEEE6HeightEv:
 126              	.LVL3:
 127              	.LFB4346:
 128              		.file 8 "../../libdaisy/src/hid/disp/oled_display.h"
   1:../../libdaisy/src/hid/disp/oled_display.h **** #pragma once
   2:../../libdaisy/src/hid/disp/oled_display.h **** #ifndef DSY_OLED_DISPLAY_H
   3:../../libdaisy/src/hid/disp/oled_display.h **** #define DSY_OLED_DISPLAY_H /**< Macro */
   4:../../libdaisy/src/hid/disp/oled_display.h **** 
   5:../../libdaisy/src/hid/disp/oled_display.h **** #include "display.h"
   6:../../libdaisy/src/hid/disp/oled_display.h **** 
   7:../../libdaisy/src/hid/disp/oled_display.h **** namespace daisy
   8:../../libdaisy/src/hid/disp/oled_display.h **** {
   9:../../libdaisy/src/hid/disp/oled_display.h **** /** 
  10:../../libdaisy/src/hid/disp/oled_display.h ****  * This class is for drawing to a monochrome OLED display. 
  11:../../libdaisy/src/hid/disp/oled_display.h **** */
  12:../../libdaisy/src/hid/disp/oled_display.h **** template <typename DisplayDriver>
ARM GAS  C:\Users\VINCIU~1\AppData\Local\Temp\cc6Tz7la.s 			page 9


  13:../../libdaisy/src/hid/disp/oled_display.h **** class OledDisplay : public OneBitGraphicsDisplayImpl<OledDisplay<DisplayDriver>>
  14:../../libdaisy/src/hid/disp/oled_display.h **** {
  15:../../libdaisy/src/hid/disp/oled_display.h ****   public:
  16:../../libdaisy/src/hid/disp/oled_display.h ****     OledDisplay() {}
  17:../../libdaisy/src/hid/disp/oled_display.h ****     virtual ~OledDisplay() {}
  18:../../libdaisy/src/hid/disp/oled_display.h **** 
  19:../../libdaisy/src/hid/disp/oled_display.h ****     struct Config
  20:../../libdaisy/src/hid/disp/oled_display.h ****     {
  21:../../libdaisy/src/hid/disp/oled_display.h ****         typename DisplayDriver::Config driver_config;
  22:../../libdaisy/src/hid/disp/oled_display.h ****     };
  23:../../libdaisy/src/hid/disp/oled_display.h **** 
  24:../../libdaisy/src/hid/disp/oled_display.h ****     void Init(Config config) { driver_.Init(config.driver_config); }
  25:../../libdaisy/src/hid/disp/oled_display.h **** 
  26:../../libdaisy/src/hid/disp/oled_display.h ****     uint16_t Height() const override { return driver_.Height(); }
 129              		.loc 8 26 14 is_stmt 1 view -0
 130              		.cfi_startproc
 131              		@ args = 0, pretend = 0, frame = 0
 132              		@ frame_needed = 0, uses_anonymous_args = 0
 133              		@ link register save eliminated.
 134              		.loc 8 26 65 is_stmt 0 view .LVU15
 135 0000 4020     		movs	r0, #64
 136              	.LVL4:
 137              		.loc 8 26 65 view .LVU16
 138 0002 7047     		bx	lr
 139              		.cfi_endproc
 140              	.LFE4346:
 142              		.section	.text._ZNK5daisy11OledDisplayINS_13SSD130xDriverILj128ELj64ENS_24SSD130x4WireSpiTransport
 143              		.align	1
 144              		.p2align 2,,3
 145              		.weak	_ZNK5daisy11OledDisplayINS_13SSD130xDriverILj128ELj64ENS_24SSD130x4WireSpiTransportEEEE5Widt
 146              		.syntax unified
 147              		.thumb
 148              		.thumb_func
 149              		.fpu fpv5-d16
 151              	_ZNK5daisy11OledDisplayINS_13SSD130xDriverILj128ELj64ENS_24SSD130x4WireSpiTransportEEEE5WidthEv:
 152              	.LVL5:
 153              	.LFB4347:
  27:../../libdaisy/src/hid/disp/oled_display.h ****     uint16_t Width() const override { return driver_.Width(); }
 154              		.loc 8 27 14 is_stmt 1 view -0
 155              		.cfi_startproc
 156              		@ args = 0, pretend = 0, frame = 0
 157              		@ frame_needed = 0, uses_anonymous_args = 0
 158              		@ link register save eliminated.
 159              		.loc 8 27 63 is_stmt 0 view .LVU18
 160 0000 8020     		movs	r0, #128
 161              	.LVL6:
 162              		.loc 8 27 63 view .LVU19
 163 0002 7047     		bx	lr
 164              		.cfi_endproc
 165              	.LFE4347:
 167              		.section	.text._ZN23OledDisplayExtravaganzaD2Ev,"axG",%progbits,_ZN23OledDisplayExtravaganzaD5Ev,c
 168              		.align	1
 169              		.p2align 2,,3
 170              		.weak	_ZN23OledDisplayExtravaganzaD2Ev
 171              		.syntax unified
 172              		.thumb
 173              		.thumb_func
ARM GAS  C:\Users\VINCIU~1\AppData\Local\Temp\cc6Tz7la.s 			page 10


 174              		.fpu fpv5-d16
 176              	_ZN23OledDisplayExtravaganzaD2Ev:
 177              	.LVL7:
 178              	.LFB4627:
 179              		.file 9 "OledDisplayExtravaganza.h"
   1:OledDisplayExtravaganza.h **** #ifndef OledDisplayExtravaganza_H
   2:OledDisplayExtravaganza.h **** #define OledDisplayExtravaganza_H
   3:OledDisplayExtravaganza.h **** #include "daisy_seed.h"
   4:OledDisplayExtravaganza.h **** #include "dev/oled_ssd130x.h"
   5:OledDisplayExtravaganza.h **** #include <stdio.h>
   6:OledDisplayExtravaganza.h **** #include <math.h>
   7:OledDisplayExtravaganza.h **** 
   8:OledDisplayExtravaganza.h **** 
   9:OledDisplayExtravaganza.h **** class OledDisplayExtravaganza
 180              		.loc 9 9 7 is_stmt 1 view -0
 181              		.cfi_startproc
 182              		@ args = 0, pretend = 0, frame = 0
 183              		@ frame_needed = 0, uses_anonymous_args = 0
 184              		@ link register save eliminated.
 185              	.LBB339:
 186              	.LBI339:
  17:../../libdaisy/src/hid/disp/oled_display.h **** 
 187              		.loc 8 17 13 view .LVU21
 188              	.LBB340:
 189              	.LBI340:
 190              		.file 10 "../../libdaisy/src/hid/disp/display.h"
   1:../../libdaisy/src/hid/disp/display.h **** #pragma once
   2:../../libdaisy/src/hid/disp/display.h **** #ifndef DSY_DISPLAY_H
   3:../../libdaisy/src/hid/disp/display.h **** #define DSY_DISPLAY_H /**< Macro */
   4:../../libdaisy/src/hid/disp/display.h **** #include <cmath>
   5:../../libdaisy/src/hid/disp/display.h **** #include "util/oled_fonts.h"
   6:../../libdaisy/src/hid/disp/display.h **** #include "daisy_core.h"
   7:../../libdaisy/src/hid/disp/display.h **** 
   8:../../libdaisy/src/hid/disp/display.h **** #ifndef deg2rad
   9:../../libdaisy/src/hid/disp/display.h **** #define deg2rad(deg) ((deg)*3.141592 / 180.0)
  10:../../libdaisy/src/hid/disp/display.h **** #endif
  11:../../libdaisy/src/hid/disp/display.h **** 
  12:../../libdaisy/src/hid/disp/display.h **** namespace daisy
  13:../../libdaisy/src/hid/disp/display.h **** {
  14:../../libdaisy/src/hid/disp/display.h **** /** 
  15:../../libdaisy/src/hid/disp/display.h ****  * This interface is used as a base class for all types of 1bit-per-pixel
  16:../../libdaisy/src/hid/disp/display.h ****  * graphics displays.
  17:../../libdaisy/src/hid/disp/display.h **** */
  18:../../libdaisy/src/hid/disp/display.h **** class OneBitGraphicsDisplay
  19:../../libdaisy/src/hid/disp/display.h **** {
  20:../../libdaisy/src/hid/disp/display.h ****   public:
  21:../../libdaisy/src/hid/disp/display.h ****     OneBitGraphicsDisplay() {}
  22:../../libdaisy/src/hid/disp/display.h ****     virtual ~OneBitGraphicsDisplay() {}
  23:../../libdaisy/src/hid/disp/display.h **** 
  24:../../libdaisy/src/hid/disp/display.h ****     virtual uint16_t Height() const = 0;
  25:../../libdaisy/src/hid/disp/display.h ****     virtual uint16_t Width() const  = 0;
  26:../../libdaisy/src/hid/disp/display.h **** 
  27:../../libdaisy/src/hid/disp/display.h ****     size_t CurrentX() { return currentX_; };
  28:../../libdaisy/src/hid/disp/display.h ****     size_t CurrentY() { return currentY_; };
  29:../../libdaisy/src/hid/disp/display.h **** 
  30:../../libdaisy/src/hid/disp/display.h ****     /** 
  31:../../libdaisy/src/hid/disp/display.h ****     Fills the entire display with either on/off.
ARM GAS  C:\Users\VINCIU~1\AppData\Local\Temp\cc6Tz7la.s 			page 11


  32:../../libdaisy/src/hid/disp/display.h ****     \param on Sets on or off.
  33:../../libdaisy/src/hid/disp/display.h ****     */
  34:../../libdaisy/src/hid/disp/display.h ****     virtual void Fill(bool on) = 0;
  35:../../libdaisy/src/hid/disp/display.h **** 
  36:../../libdaisy/src/hid/disp/display.h ****     /**
  37:../../libdaisy/src/hid/disp/display.h ****     Sets the pixel at the specified coordinate to be on/off.
  38:../../libdaisy/src/hid/disp/display.h ****     \param x   x Coordinate
  39:../../libdaisy/src/hid/disp/display.h ****     \param y   y coordinate
  40:../../libdaisy/src/hid/disp/display.h ****     \param on  on or off
  41:../../libdaisy/src/hid/disp/display.h ****     */
  42:../../libdaisy/src/hid/disp/display.h ****     virtual void DrawPixel(uint_fast8_t x, uint_fast8_t y, bool on) = 0;
  43:../../libdaisy/src/hid/disp/display.h **** 
  44:../../libdaisy/src/hid/disp/display.h ****     /**
  45:../../libdaisy/src/hid/disp/display.h ****     Draws a line from (x1, y1) to (y1, y2)
  46:../../libdaisy/src/hid/disp/display.h ****     \param x1  x Coordinate of the starting point
  47:../../libdaisy/src/hid/disp/display.h ****     \param y1  y Coordinate of the starting point
  48:../../libdaisy/src/hid/disp/display.h ****     \param x2  x Coordinate of the ending point
  49:../../libdaisy/src/hid/disp/display.h ****     \param y2  y Coordinate of the ending point
  50:../../libdaisy/src/hid/disp/display.h ****     \param on  on or off
  51:../../libdaisy/src/hid/disp/display.h ****     */
  52:../../libdaisy/src/hid/disp/display.h ****     virtual void DrawLine(uint_fast8_t x1,
  53:../../libdaisy/src/hid/disp/display.h ****                           uint_fast8_t y1,
  54:../../libdaisy/src/hid/disp/display.h ****                           uint_fast8_t x2,
  55:../../libdaisy/src/hid/disp/display.h ****                           uint_fast8_t y2,
  56:../../libdaisy/src/hid/disp/display.h ****                           bool         on)
  57:../../libdaisy/src/hid/disp/display.h ****         = 0;
  58:../../libdaisy/src/hid/disp/display.h **** 
  59:../../libdaisy/src/hid/disp/display.h ****     /**
  60:../../libdaisy/src/hid/disp/display.h ****     Draws a rectangle based on two coordinates.
  61:../../libdaisy/src/hid/disp/display.h ****     \param x1 x Coordinate of the first point
  62:../../libdaisy/src/hid/disp/display.h ****     \param y1 y Coordinate of the first point
  63:../../libdaisy/src/hid/disp/display.h ****     \param x2 x Coordinate of the second point
  64:../../libdaisy/src/hid/disp/display.h ****     \param y2 y Coordinate of the second point
  65:../../libdaisy/src/hid/disp/display.h ****     \param on on or off
  66:../../libdaisy/src/hid/disp/display.h ****     */
  67:../../libdaisy/src/hid/disp/display.h ****     virtual void DrawRect(uint_fast8_t x1,
  68:../../libdaisy/src/hid/disp/display.h ****                           uint_fast8_t y1,
  69:../../libdaisy/src/hid/disp/display.h ****                           uint_fast8_t x2,
  70:../../libdaisy/src/hid/disp/display.h ****                           uint_fast8_t y2,
  71:../../libdaisy/src/hid/disp/display.h ****                           bool         on,
  72:../../libdaisy/src/hid/disp/display.h ****                           bool         fill = false)
  73:../../libdaisy/src/hid/disp/display.h ****         = 0;
  74:../../libdaisy/src/hid/disp/display.h **** 
  75:../../libdaisy/src/hid/disp/display.h ****     /**
  76:../../libdaisy/src/hid/disp/display.h ****     Draws an arc around the specified coordinate
  77:../../libdaisy/src/hid/disp/display.h ****     \param x           x Coordinate of the center of the arc
  78:../../libdaisy/src/hid/disp/display.h ****     \param y           y Coordinate of the center of the arc
  79:../../libdaisy/src/hid/disp/display.h ****     \param radius      radius of the arc
  80:../../libdaisy/src/hid/disp/display.h ****     \param start_angle angle where to start the arc
  81:../../libdaisy/src/hid/disp/display.h ****     \param sweep       total angle of the arc
  82:../../libdaisy/src/hid/disp/display.h ****     \param on  on or off
  83:../../libdaisy/src/hid/disp/display.h ****     */
  84:../../libdaisy/src/hid/disp/display.h ****     virtual void DrawArc(uint_fast8_t x,
  85:../../libdaisy/src/hid/disp/display.h ****                          uint_fast8_t y,
  86:../../libdaisy/src/hid/disp/display.h ****                          uint_fast8_t radius,
  87:../../libdaisy/src/hid/disp/display.h ****                          int_fast16_t start_angle,
  88:../../libdaisy/src/hid/disp/display.h ****                          int_fast16_t sweep,
ARM GAS  C:\Users\VINCIU~1\AppData\Local\Temp\cc6Tz7la.s 			page 12


  89:../../libdaisy/src/hid/disp/display.h ****                          bool         on)
  90:../../libdaisy/src/hid/disp/display.h ****         = 0;
  91:../../libdaisy/src/hid/disp/display.h **** 
  92:../../libdaisy/src/hid/disp/display.h ****     /**
  93:../../libdaisy/src/hid/disp/display.h ****     Draws a circle around the specified coordinate
  94:../../libdaisy/src/hid/disp/display.h ****     \param x           x Coordinate of the center of the circle
  95:../../libdaisy/src/hid/disp/display.h ****     \param y           y Coordinate of the center of the circle
  96:../../libdaisy/src/hid/disp/display.h ****     \param radius      radius of the circle
  97:../../libdaisy/src/hid/disp/display.h ****     \param on  on or off
  98:../../libdaisy/src/hid/disp/display.h ****     */
  99:../../libdaisy/src/hid/disp/display.h ****     void
 100:../../libdaisy/src/hid/disp/display.h ****     DrawCircle(uint_fast8_t x, uint_fast8_t y, uint_fast8_t radius, bool on)
 101:../../libdaisy/src/hid/disp/display.h ****     {
 102:../../libdaisy/src/hid/disp/display.h ****         DrawArc(x, y, radius, 0, 360, on);
 103:../../libdaisy/src/hid/disp/display.h ****     };
 104:../../libdaisy/src/hid/disp/display.h **** 
 105:../../libdaisy/src/hid/disp/display.h ****     /** 
 106:../../libdaisy/src/hid/disp/display.h ****     Writes the character with the specific FontDef
 107:../../libdaisy/src/hid/disp/display.h ****     to the display buffer at the current Cursor position.
 108:../../libdaisy/src/hid/disp/display.h ****     \param ch character to be written
 109:../../libdaisy/src/hid/disp/display.h ****     \param font font to be written in
 110:../../libdaisy/src/hid/disp/display.h ****     \param on    on or off
 111:../../libdaisy/src/hid/disp/display.h ****     \return &
 112:../../libdaisy/src/hid/disp/display.h ****     */
 113:../../libdaisy/src/hid/disp/display.h ****     virtual char WriteChar(char ch, FontDef font, bool on) = 0;
 114:../../libdaisy/src/hid/disp/display.h **** 
 115:../../libdaisy/src/hid/disp/display.h ****     /** 
 116:../../libdaisy/src/hid/disp/display.h ****     Similar to WriteChar, except it will handle an entire String.
 117:../../libdaisy/src/hid/disp/display.h ****     Wrapping does not happen automatically, so the width
 118:../../libdaisy/src/hid/disp/display.h ****     of the string must be kept within the dimensions of the screen.
 119:../../libdaisy/src/hid/disp/display.h ****     \param str string to be written
 120:../../libdaisy/src/hid/disp/display.h ****     \param font font to use
 121:../../libdaisy/src/hid/disp/display.h ****     \param on  on or off
 122:../../libdaisy/src/hid/disp/display.h ****     \return &
 123:../../libdaisy/src/hid/disp/display.h ****     */
 124:../../libdaisy/src/hid/disp/display.h ****     virtual char WriteString(const char* str, FontDef font, bool on) = 0;
 125:../../libdaisy/src/hid/disp/display.h **** 
 126:../../libdaisy/src/hid/disp/display.h ****     /** 
 127:../../libdaisy/src/hid/disp/display.h ****     Moves the 'Cursor' position used for WriteChar, and WriteStr to the specified coordinate.
 128:../../libdaisy/src/hid/disp/display.h ****     \param x x pos
 129:../../libdaisy/src/hid/disp/display.h ****     \param y y pos
 130:../../libdaisy/src/hid/disp/display.h ****     */
 131:../../libdaisy/src/hid/disp/display.h ****     void SetCursor(uint16_t x, uint16_t y)
 132:../../libdaisy/src/hid/disp/display.h ****     {
 133:../../libdaisy/src/hid/disp/display.h ****         currentX_ = (x >= Width()) ? Width() - 1 : x;
 134:../../libdaisy/src/hid/disp/display.h ****         currentY_ = (y >= Height()) ? Height() - 1 : y;
 135:../../libdaisy/src/hid/disp/display.h ****     }
 136:../../libdaisy/src/hid/disp/display.h **** 
 137:../../libdaisy/src/hid/disp/display.h ****     /** 
 138:../../libdaisy/src/hid/disp/display.h ****     Writes the current display buffer to the OLED device using SPI or I2C depending on 
 139:../../libdaisy/src/hid/disp/display.h ****     how the object was initialized.
 140:../../libdaisy/src/hid/disp/display.h ****     */
 141:../../libdaisy/src/hid/disp/display.h ****     virtual void Update() = 0;
 142:../../libdaisy/src/hid/disp/display.h **** 
 143:../../libdaisy/src/hid/disp/display.h ****   protected:
 144:../../libdaisy/src/hid/disp/display.h ****     uint16_t currentX_;
 145:../../libdaisy/src/hid/disp/display.h ****     uint16_t currentY_;
ARM GAS  C:\Users\VINCIU~1\AppData\Local\Temp\cc6Tz7la.s 			page 13


 146:../../libdaisy/src/hid/disp/display.h **** };
 147:../../libdaisy/src/hid/disp/display.h **** 
 148:../../libdaisy/src/hid/disp/display.h **** /** This class is intended as a intermediary class for your actual implementation of the OneBitGrap
 149:../../libdaisy/src/hid/disp/display.h ****  *  interface. It uses the CRTP design pattern where the template argument is the child class. It p
 150:../../libdaisy/src/hid/disp/display.h ****  *  implementations for most of the functions, except DrawPixel(), Update() and Fill(), which you'l
 151:../../libdaisy/src/hid/disp/display.h ****  *  to provide in your child class.
 152:../../libdaisy/src/hid/disp/display.h ****  *  The main goal of this class is to provide common drawing functions without relying on massive a
 153:../../libdaisy/src/hid/disp/display.h ****  *  virtual function calls that would result in a performance loss. To achieve this, any drawing fu
 154:../../libdaisy/src/hid/disp/display.h ****  *  is implemented here and internally calls other drawing functions (e.g. DrawRect() which interna
 155:../../libdaisy/src/hid/disp/display.h ****  *  DrawPixel() and DrawLine()) makes these calls via the qualified name of these functions to expl
 156:../../libdaisy/src/hid/disp/display.h ****  *  suppress the virtual dispatch mechanism like this:
 157:../../libdaisy/src/hid/disp/display.h ****  * 
 158:../../libdaisy/src/hid/disp/display.h ****  *      ChildType::DrawPixel(...); // no virtual function call; direct call into the child class fu
 159:../../libdaisy/src/hid/disp/display.h ****  *  
 160:../../libdaisy/src/hid/disp/display.h ****  *  To create a custom OneBitGraphicsDisplay implementation, you can 
 161:../../libdaisy/src/hid/disp/display.h ****  *  A) inherit from OneBitGraphicsDisplay directly and provide all the drawing functions yourself
 162:../../libdaisy/src/hid/disp/display.h ****  *  B) Inherit from OneBitGraphicsDisplayImpl and only provide DrawPixel(), Fill() and Update()
 163:../../libdaisy/src/hid/disp/display.h ****  *     like this:
 164:../../libdaisy/src/hid/disp/display.h ****  *  
 165:../../libdaisy/src/hid/disp/display.h ****  *      class MyDisplayClass : public OneBitGraphicsDisplayImpl<MyDisplayClass> 
 166:../../libdaisy/src/hid/disp/display.h ****  *      {
 167:../../libdaisy/src/hid/disp/display.h ****  *      public:
 168:../../libdaisy/src/hid/disp/display.h ****  *          void Fill() override { ... };
 169:../../libdaisy/src/hid/disp/display.h ****  *          void DrawPixel(uint_fast8_t x, uint_fast8_t y, bool on) override { ... };
 170:../../libdaisy/src/hid/disp/display.h ****  *          void Update() override { ... }
 171:../../libdaisy/src/hid/disp/display.h ****  *      };
 172:../../libdaisy/src/hid/disp/display.h ****  *  
 173:../../libdaisy/src/hid/disp/display.h ****  */
 174:../../libdaisy/src/hid/disp/display.h **** template <class ChildType>
 175:../../libdaisy/src/hid/disp/display.h **** class OneBitGraphicsDisplayImpl : public OneBitGraphicsDisplay
 176:../../libdaisy/src/hid/disp/display.h **** {
 177:../../libdaisy/src/hid/disp/display.h ****   public:
 178:../../libdaisy/src/hid/disp/display.h ****     OneBitGraphicsDisplayImpl() {}
 179:../../libdaisy/src/hid/disp/display.h ****     virtual ~OneBitGraphicsDisplayImpl() {}
 191              		.loc 10 179 13 view .LVU22
 192              	.LBB341:
 193              	.LBI341:
  22:../../libdaisy/src/hid/disp/display.h **** 
 194              		.loc 10 22 13 view .LVU23
  22:../../libdaisy/src/hid/disp/display.h **** 
 195              		.loc 10 22 13 is_stmt 0 view .LVU24
 196              	.LBE341:
 197              	.LBE340:
 198              	.LBE339:
 199              		.loc 9 9 7 view .LVU25
 200 0000 7047     		bx	lr
 201              		.cfi_endproc
 202              	.LFE4627:
 204              		.weak	_ZN23OledDisplayExtravaganzaD1Ev
 205              		.thumb_set _ZN23OledDisplayExtravaganzaD1Ev,_ZN23OledDisplayExtravaganzaD2Ev
 206 0002 00BF     		.section	.text._ZN5MenusD2Ev,"axG",%progbits,_ZN5MenusD5Ev,comdat
 207              		.align	1
 208              		.p2align 2,,3
 209              		.weak	_ZN5MenusD2Ev
 210              		.syntax unified
 211              		.thumb
 212              		.thumb_func
ARM GAS  C:\Users\VINCIU~1\AppData\Local\Temp\cc6Tz7la.s 			page 14


 213              		.fpu fpv5-d16
 215              	_ZN5MenusD2Ev:
 216              	.LVL8:
 217              	.LFB4632:
 218              		.file 11 "Menus.h"
   1:Menus.h       **** #ifndef Menus_H
   2:Menus.h       **** #define Menus_H
   3:Menus.h       **** #include "OledDisplayExtravaganza.h"
   4:Menus.h       **** #include "daisy_seed.h"
   5:Menus.h       **** #include "daisysp.h"
   6:Menus.h       **** 
   7:Menus.h       **** class Menus
 219              		.loc 11 7 7 is_stmt 1 view -0
 220              		.cfi_startproc
 221              		@ args = 0, pretend = 0, frame = 0
 222              		@ frame_needed = 0, uses_anonymous_args = 0
 223              		@ link register save eliminated.
 224              	.LBB342:
 225              	.LBI342:
 226              		.file 12 "../../libdaisy/src/hid/switch.h"
   1:../../libdaisy/src/hid/switch.h **** #pragma once
   2:../../libdaisy/src/hid/switch.h **** #ifndef DSY_SWITCH_H
   3:../../libdaisy/src/hid/switch.h **** #define DSY_SWITCH_H
   4:../../libdaisy/src/hid/switch.h **** #include "daisy_core.h"
   5:../../libdaisy/src/hid/switch.h **** #include "per/gpio.h"
   6:../../libdaisy/src/hid/switch.h **** 
   7:../../libdaisy/src/hid/switch.h **** namespace daisy
   8:../../libdaisy/src/hid/switch.h **** {
   9:../../libdaisy/src/hid/switch.h **** /** 
  10:../../libdaisy/src/hid/switch.h ****     Generic Class for handling momentary/latching switches \n 
  11:../../libdaisy/src/hid/switch.h ****     Inspired/influenced by Mutable Instruments (pichenettes) Switch classes
  12:../../libdaisy/src/hid/switch.h ****     @author Stephen Hensley
  13:../../libdaisy/src/hid/switch.h ****     @date December 2019
  14:../../libdaisy/src/hid/switch.h ****     @ingroup controls
  15:../../libdaisy/src/hid/switch.h **** */
  16:../../libdaisy/src/hid/switch.h **** class Switch
  17:../../libdaisy/src/hid/switch.h **** {
  18:../../libdaisy/src/hid/switch.h ****   public:
  19:../../libdaisy/src/hid/switch.h ****     /** Specifies the expected behavior of the switch */
  20:../../libdaisy/src/hid/switch.h ****     enum Type
  21:../../libdaisy/src/hid/switch.h ****     {
  22:../../libdaisy/src/hid/switch.h ****         TYPE_TOGGLE,    /**< & */
  23:../../libdaisy/src/hid/switch.h ****         TYPE_MOMENTARY, /**< & */
  24:../../libdaisy/src/hid/switch.h ****     };
  25:../../libdaisy/src/hid/switch.h ****     /** Specifies whether the pressed is HIGH or LOW. */
  26:../../libdaisy/src/hid/switch.h ****     enum Polarity
  27:../../libdaisy/src/hid/switch.h ****     {
  28:../../libdaisy/src/hid/switch.h ****         POLARITY_NORMAL,   /**< & */
  29:../../libdaisy/src/hid/switch.h ****         POLARITY_INVERTED, /**< & */
  30:../../libdaisy/src/hid/switch.h ****     };
  31:../../libdaisy/src/hid/switch.h **** 
  32:../../libdaisy/src/hid/switch.h ****     /** Specifies whether to use built-in Pull Up/Down resistors to hold button at a given state wh
  33:../../libdaisy/src/hid/switch.h ****     enum Pull
  34:../../libdaisy/src/hid/switch.h ****     {
  35:../../libdaisy/src/hid/switch.h ****         PULL_UP,   /**< & */
  36:../../libdaisy/src/hid/switch.h ****         PULL_DOWN, /**< & */
  37:../../libdaisy/src/hid/switch.h ****         PULL_NONE, /**< & */
ARM GAS  C:\Users\VINCIU~1\AppData\Local\Temp\cc6Tz7la.s 			page 15


  38:../../libdaisy/src/hid/switch.h ****     };
  39:../../libdaisy/src/hid/switch.h **** 
  40:../../libdaisy/src/hid/switch.h ****     Switch() {}
  41:../../libdaisy/src/hid/switch.h ****     ~Switch() {}
 227              		.loc 12 41 5 view .LVU27
 228              		.loc 12 41 5 is_stmt 0 view .LVU28
 229              	.LBE342:
 230              	.LBB343:
 231              	.LBI343:
 232              		.loc 12 41 5 is_stmt 1 view .LVU29
 233              		.loc 12 41 5 is_stmt 0 view .LVU30
 234              	.LBE343:
 235              	.LBB344:
 236              	.LBI344:
 237              		.file 13 "../../libdaisy/src/hid/encoder.h"
   1:../../libdaisy/src/hid/encoder.h **** #pragma once
   2:../../libdaisy/src/hid/encoder.h **** #ifndef DSY_ENCODER_H
   3:../../libdaisy/src/hid/encoder.h **** #define DSY_ENCODER_H
   4:../../libdaisy/src/hid/encoder.h **** #include "daisy_core.h"
   5:../../libdaisy/src/hid/encoder.h **** #include "per/gpio.h"
   6:../../libdaisy/src/hid/encoder.h **** #include "hid/switch.h"
   7:../../libdaisy/src/hid/encoder.h **** 
   8:../../libdaisy/src/hid/encoder.h **** namespace daisy
   9:../../libdaisy/src/hid/encoder.h **** {
  10:../../libdaisy/src/hid/encoder.h **** /** 
  11:../../libdaisy/src/hid/encoder.h ****     @brief Generic Class for handling Quadrature Encoders \n 
  12:../../libdaisy/src/hid/encoder.h ****     Inspired/influenced by Mutable Instruments (pichenettes) Encoder classes
  13:../../libdaisy/src/hid/encoder.h ****     @author Stephen Hensley
  14:../../libdaisy/src/hid/encoder.h ****     @date December 2019
  15:../../libdaisy/src/hid/encoder.h ****     @ingroup controls
  16:../../libdaisy/src/hid/encoder.h **** */
  17:../../libdaisy/src/hid/encoder.h **** class Encoder
  18:../../libdaisy/src/hid/encoder.h **** {
  19:../../libdaisy/src/hid/encoder.h ****   public:
  20:../../libdaisy/src/hid/encoder.h ****     Encoder() {}
  21:../../libdaisy/src/hid/encoder.h ****     ~Encoder() {}
 238              		.loc 13 21 5 is_stmt 1 view .LVU31
 239              	.LBB345:
 240              	.LBI345:
 241              		.loc 12 41 5 view .LVU32
 242              		.loc 12 41 5 is_stmt 0 view .LVU33
 243              	.LBE345:
 244              	.LBE344:
 245              	.LBB346:
 246              	.LBI346:
 247              		.loc 13 21 5 is_stmt 1 view .LVU34
 248              	.LBB347:
 249              	.LBI347:
 250              		.loc 12 41 5 view .LVU35
 251              		.loc 12 41 5 is_stmt 0 view .LVU36
 252              	.LBE347:
 253              	.LBE346:
 254              		.loc 11 7 7 view .LVU37
 255 0000 7047     		bx	lr
 256              		.cfi_endproc
 257              	.LFE4632:
 259              		.weak	_ZN5MenusD1Ev
ARM GAS  C:\Users\VINCIU~1\AppData\Local\Temp\cc6Tz7la.s 			page 16


 260              		.thumb_set _ZN5MenusD1Ev,_ZN5MenusD2Ev
 261 0002 00BF     		.section	.text.__tcf_0,"ax",%progbits
 262              		.align	1
 263              		.p2align 2,,3
 264              		.syntax unified
 265              		.thumb
 266              		.thumb_func
 267              		.fpu fpv5-d16
 269              	__tcf_0:
 270              	.LFB4634:
 271              		.file 14 "SynthMenis.cpp"
   1:SynthMenis.cpp **** #include <stdio.h>
   2:SynthMenis.cpp **** #include <string.h>
   3:SynthMenis.cpp **** #include "daisy_seed.h"
   4:SynthMenis.cpp **** #include "daisysp.h"
   5:SynthMenis.cpp **** #include "dev/oled_ssd130x.h"
   6:SynthMenis.cpp **** #include "OledDisplayExtravaganza.h"
   7:SynthMenis.cpp **** #include "Menus.h"
   8:SynthMenis.cpp **** 
   9:SynthMenis.cpp **** using namespace daisy;
  10:SynthMenis.cpp **** using namespace daisysp;
  11:SynthMenis.cpp **** 
  12:SynthMenis.cpp **** 
  13:SynthMenis.cpp **** Menus                                  synthmenu;
  14:SynthMenis.cpp **** DaisySeed                              hw;
  15:SynthMenis.cpp **** OledDisplayExtravaganza                screen;
  16:SynthMenis.cpp **** const int                              height = screen.Height();
  17:SynthMenis.cpp **** const int                              width  = screen.Width();
  18:SynthMenis.cpp **** Oscillator                             osc[2];
 272              		.loc 14 18 40 is_stmt 1 view -0
 273              		.cfi_startproc
 274              		@ args = 0, pretend = 0, frame = 0
 275              		@ frame_needed = 0, uses_anonymous_args = 0
 276              		@ link register save eliminated.
 277              		.loc 14 18 40 is_stmt 0 view .LVU39
 278 0000 7047     		bx	lr
 279              		.cfi_endproc
 280              	.LFE4634:
 282 0002 00BF     		.section	.text._ZN5daisy11OledDisplayINS_13SSD130xDriverILj128ELj64ENS_24SSD130x4WireSpiTransportE
 283              		.align	1
 284              		.p2align 2,,3
 285              		.weak	_ZN5daisy11OledDisplayINS_13SSD130xDriverILj128ELj64ENS_24SSD130x4WireSpiTransportEEEE4FillE
 286              		.syntax unified
 287              		.thumb
 288              		.thumb_func
 289              		.fpu fpv5-d16
 291              	_ZN5daisy11OledDisplayINS_13SSD130xDriverILj128ELj64ENS_24SSD130x4WireSpiTransportEEEE4FillEb:
 292              	.LVL9:
 293              	.LFB4635:
  28:../../libdaisy/src/hid/disp/oled_display.h **** 
  29:../../libdaisy/src/hid/disp/oled_display.h ****     /** 
  30:../../libdaisy/src/hid/disp/oled_display.h ****     Fills the entire display with either on/off.
  31:../../libdaisy/src/hid/disp/oled_display.h ****     \param on Sets on or off.
  32:../../libdaisy/src/hid/disp/oled_display.h ****     */
  33:../../libdaisy/src/hid/disp/oled_display.h ****     void Fill(bool on) override { driver_.Fill(on); }
 294              		.loc 8 33 10 is_stmt 1 view -0
 295              		.cfi_startproc
ARM GAS  C:\Users\VINCIU~1\AppData\Local\Temp\cc6Tz7la.s 			page 17


 296              		@ args = 0, pretend = 0, frame = 0
 297              		@ frame_needed = 0, uses_anonymous_args = 0
 298              		@ link register save eliminated.
 299              	.LBB348:
 300              	.LBI348:
 301              		.file 15 "../../libdaisy/src/dev/oled_ssd130x.h"
   1:../../libdaisy/src/dev/oled_ssd130x.h **** #pragma once
   2:../../libdaisy/src/dev/oled_ssd130x.h **** #ifndef SA_OLED_SSD130X_H
   3:../../libdaisy/src/dev/oled_ssd130x.h **** #define SA_OLED_SSD130X_H /**< & */
   4:../../libdaisy/src/dev/oled_ssd130x.h **** 
   5:../../libdaisy/src/dev/oled_ssd130x.h **** #include "per/i2c.h"
   6:../../libdaisy/src/dev/oled_ssd130x.h **** #include "per/spi.h"
   7:../../libdaisy/src/dev/oled_ssd130x.h **** #include "per/gpio.h"
   8:../../libdaisy/src/dev/oled_ssd130x.h **** #include "sys/system.h"
   9:../../libdaisy/src/dev/oled_ssd130x.h **** 
  10:../../libdaisy/src/dev/oled_ssd130x.h **** namespace daisy
  11:../../libdaisy/src/dev/oled_ssd130x.h **** {
  12:../../libdaisy/src/dev/oled_ssd130x.h **** /**
  13:../../libdaisy/src/dev/oled_ssd130x.h ****  * I2C Transport for SSD1306 / SSD1309 OLED display devices
  14:../../libdaisy/src/dev/oled_ssd130x.h ****  */
  15:../../libdaisy/src/dev/oled_ssd130x.h **** class SSD130xI2CTransport
  16:../../libdaisy/src/dev/oled_ssd130x.h **** {
  17:../../libdaisy/src/dev/oled_ssd130x.h ****   public:
  18:../../libdaisy/src/dev/oled_ssd130x.h ****     struct Config
  19:../../libdaisy/src/dev/oled_ssd130x.h ****     {
  20:../../libdaisy/src/dev/oled_ssd130x.h ****         I2CHandle::Config i2c_config;
  21:../../libdaisy/src/dev/oled_ssd130x.h ****         uint8_t           i2c_address;
  22:../../libdaisy/src/dev/oled_ssd130x.h ****         void              Defaults()
  23:../../libdaisy/src/dev/oled_ssd130x.h ****         {
  24:../../libdaisy/src/dev/oled_ssd130x.h ****             i2c_config.periph         = I2CHandle::Config::Peripheral::I2C_1;
  25:../../libdaisy/src/dev/oled_ssd130x.h ****             i2c_config.speed          = I2CHandle::Config::Speed::I2C_1MHZ;
  26:../../libdaisy/src/dev/oled_ssd130x.h ****             i2c_config.mode           = I2CHandle::Config::Mode::I2C_MASTER;
  27:../../libdaisy/src/dev/oled_ssd130x.h ****             i2c_config.pin_config.scl = {DSY_GPIOB, 8};
  28:../../libdaisy/src/dev/oled_ssd130x.h ****             i2c_config.pin_config.sda = {DSY_GPIOB, 9};
  29:../../libdaisy/src/dev/oled_ssd130x.h ****             i2c_address               = 0x3C;
  30:../../libdaisy/src/dev/oled_ssd130x.h ****         }
  31:../../libdaisy/src/dev/oled_ssd130x.h ****     };
  32:../../libdaisy/src/dev/oled_ssd130x.h ****     void Init(const Config& config)
  33:../../libdaisy/src/dev/oled_ssd130x.h ****     {
  34:../../libdaisy/src/dev/oled_ssd130x.h ****         i2c_address_ = config.i2c_address;
  35:../../libdaisy/src/dev/oled_ssd130x.h ****         i2c_.Init(config.i2c_config);
  36:../../libdaisy/src/dev/oled_ssd130x.h ****     };
  37:../../libdaisy/src/dev/oled_ssd130x.h ****     void SendCommand(uint8_t cmd)
  38:../../libdaisy/src/dev/oled_ssd130x.h ****     {
  39:../../libdaisy/src/dev/oled_ssd130x.h ****         uint8_t buf[2] = {0X00, cmd};
  40:../../libdaisy/src/dev/oled_ssd130x.h ****         i2c_.TransmitBlocking(i2c_address_, buf, 2, 1000);
  41:../../libdaisy/src/dev/oled_ssd130x.h ****     };
  42:../../libdaisy/src/dev/oled_ssd130x.h **** 
  43:../../libdaisy/src/dev/oled_ssd130x.h ****     void SendData(uint8_t* buff, size_t size)
  44:../../libdaisy/src/dev/oled_ssd130x.h ****     {
  45:../../libdaisy/src/dev/oled_ssd130x.h ****         for(size_t i = 0; i < size; i++)
  46:../../libdaisy/src/dev/oled_ssd130x.h ****         {
  47:../../libdaisy/src/dev/oled_ssd130x.h ****             uint8_t buf[2] = {0X40, buff[i]};
  48:../../libdaisy/src/dev/oled_ssd130x.h ****             i2c_.TransmitBlocking(i2c_address_, buf, 2, 1000);
  49:../../libdaisy/src/dev/oled_ssd130x.h ****         }
  50:../../libdaisy/src/dev/oled_ssd130x.h ****     };
  51:../../libdaisy/src/dev/oled_ssd130x.h **** 
ARM GAS  C:\Users\VINCIU~1\AppData\Local\Temp\cc6Tz7la.s 			page 18


  52:../../libdaisy/src/dev/oled_ssd130x.h ****   private:
  53:../../libdaisy/src/dev/oled_ssd130x.h ****     daisy::I2CHandle i2c_;
  54:../../libdaisy/src/dev/oled_ssd130x.h ****     uint8_t          i2c_address_;
  55:../../libdaisy/src/dev/oled_ssd130x.h **** };
  56:../../libdaisy/src/dev/oled_ssd130x.h **** 
  57:../../libdaisy/src/dev/oled_ssd130x.h **** /**
  58:../../libdaisy/src/dev/oled_ssd130x.h ****  * 4 Wire SPI Transport for SSD1306 / SSD1309 OLED display devices
  59:../../libdaisy/src/dev/oled_ssd130x.h ****  */
  60:../../libdaisy/src/dev/oled_ssd130x.h **** class SSD130x4WireSpiTransport
  61:../../libdaisy/src/dev/oled_ssd130x.h **** {
  62:../../libdaisy/src/dev/oled_ssd130x.h ****   public:
  63:../../libdaisy/src/dev/oled_ssd130x.h ****     struct Config
  64:../../libdaisy/src/dev/oled_ssd130x.h ****     {
  65:../../libdaisy/src/dev/oled_ssd130x.h ****         struct
  66:../../libdaisy/src/dev/oled_ssd130x.h ****         {
  67:../../libdaisy/src/dev/oled_ssd130x.h ****             dsy_gpio_pin dc;    /**< & */
  68:../../libdaisy/src/dev/oled_ssd130x.h ****             dsy_gpio_pin reset; /**< & */
  69:../../libdaisy/src/dev/oled_ssd130x.h ****         } pin_config;
  70:../../libdaisy/src/dev/oled_ssd130x.h ****         void Defaults()
  71:../../libdaisy/src/dev/oled_ssd130x.h ****         {
  72:../../libdaisy/src/dev/oled_ssd130x.h ****             pin_config.dc    = {DSY_GPIOB, 4};
  73:../../libdaisy/src/dev/oled_ssd130x.h ****             pin_config.reset = {DSY_GPIOB, 15};
  74:../../libdaisy/src/dev/oled_ssd130x.h ****         }
  75:../../libdaisy/src/dev/oled_ssd130x.h ****     };
  76:../../libdaisy/src/dev/oled_ssd130x.h ****     void Init(const Config& config)
  77:../../libdaisy/src/dev/oled_ssd130x.h ****     {
  78:../../libdaisy/src/dev/oled_ssd130x.h ****         // Initialize both GPIO
  79:../../libdaisy/src/dev/oled_ssd130x.h ****         pin_dc_.mode = DSY_GPIO_MODE_OUTPUT_PP;
  80:../../libdaisy/src/dev/oled_ssd130x.h ****         pin_dc_.pin  = config.pin_config.dc;
  81:../../libdaisy/src/dev/oled_ssd130x.h ****         dsy_gpio_init(&pin_dc_);
  82:../../libdaisy/src/dev/oled_ssd130x.h ****         pin_reset_.mode = DSY_GPIO_MODE_OUTPUT_PP;
  83:../../libdaisy/src/dev/oled_ssd130x.h ****         pin_reset_.pin  = config.pin_config.reset;
  84:../../libdaisy/src/dev/oled_ssd130x.h ****         dsy_gpio_init(&pin_reset_);
  85:../../libdaisy/src/dev/oled_ssd130x.h ****         // Initialize SPI
  86:../../libdaisy/src/dev/oled_ssd130x.h ****         SpiHandle::Config spi_config;
  87:../../libdaisy/src/dev/oled_ssd130x.h ****         spi_config.periph    = SpiHandle::Config::Peripheral::SPI_1;
  88:../../libdaisy/src/dev/oled_ssd130x.h ****         spi_config.mode      = SpiHandle::Config::Mode::MASTER;
  89:../../libdaisy/src/dev/oled_ssd130x.h ****         spi_config.direction = SpiHandle::Config::Direction::TWO_LINES_TX_ONLY;
  90:../../libdaisy/src/dev/oled_ssd130x.h ****         spi_config.datasize  = 8;
  91:../../libdaisy/src/dev/oled_ssd130x.h ****         spi_config.clock_polarity = SpiHandle::Config::ClockPolarity::LOW;
  92:../../libdaisy/src/dev/oled_ssd130x.h ****         spi_config.clock_phase    = SpiHandle::Config::ClockPhase::ONE_EDGE;
  93:../../libdaisy/src/dev/oled_ssd130x.h ****         spi_config.nss            = SpiHandle::Config::NSS::HARD_OUTPUT;
  94:../../libdaisy/src/dev/oled_ssd130x.h ****         spi_config.baud_prescaler = SpiHandle::Config::BaudPrescaler::PS_8;
  95:../../libdaisy/src/dev/oled_ssd130x.h **** 
  96:../../libdaisy/src/dev/oled_ssd130x.h ****         spi_config.pin_config.sclk = {DSY_GPIOG, 11};
  97:../../libdaisy/src/dev/oled_ssd130x.h ****         spi_config.pin_config.miso = {DSY_GPIOX, 0};
  98:../../libdaisy/src/dev/oled_ssd130x.h ****         spi_config.pin_config.mosi = {DSY_GPIOB, 5};
  99:../../libdaisy/src/dev/oled_ssd130x.h ****         spi_config.pin_config.nss  = {DSY_GPIOG, 10};
 100:../../libdaisy/src/dev/oled_ssd130x.h **** 
 101:../../libdaisy/src/dev/oled_ssd130x.h ****         spi_.Init(spi_config);
 102:../../libdaisy/src/dev/oled_ssd130x.h **** 
 103:../../libdaisy/src/dev/oled_ssd130x.h ****         // Reset and Configure OLED.
 104:../../libdaisy/src/dev/oled_ssd130x.h ****         dsy_gpio_write(&pin_reset_, 0);
 105:../../libdaisy/src/dev/oled_ssd130x.h ****         System::Delay(10);
 106:../../libdaisy/src/dev/oled_ssd130x.h ****         dsy_gpio_write(&pin_reset_, 1);
 107:../../libdaisy/src/dev/oled_ssd130x.h ****         System::Delay(10);
 108:../../libdaisy/src/dev/oled_ssd130x.h ****     };
ARM GAS  C:\Users\VINCIU~1\AppData\Local\Temp\cc6Tz7la.s 			page 19


 109:../../libdaisy/src/dev/oled_ssd130x.h ****     void SendCommand(uint8_t cmd)
 110:../../libdaisy/src/dev/oled_ssd130x.h ****     {
 111:../../libdaisy/src/dev/oled_ssd130x.h ****         dsy_gpio_write(&pin_dc_, 0);
 112:../../libdaisy/src/dev/oled_ssd130x.h ****         spi_.BlockingTransmit(&cmd, 1);
 113:../../libdaisy/src/dev/oled_ssd130x.h ****     };
 114:../../libdaisy/src/dev/oled_ssd130x.h **** 
 115:../../libdaisy/src/dev/oled_ssd130x.h ****     void SendData(uint8_t* buff, size_t size)
 116:../../libdaisy/src/dev/oled_ssd130x.h ****     {
 117:../../libdaisy/src/dev/oled_ssd130x.h ****         dsy_gpio_write(&pin_dc_, 1);
 118:../../libdaisy/src/dev/oled_ssd130x.h ****         spi_.BlockingTransmit(buff, size);
 119:../../libdaisy/src/dev/oled_ssd130x.h ****     };
 120:../../libdaisy/src/dev/oled_ssd130x.h **** 
 121:../../libdaisy/src/dev/oled_ssd130x.h ****   private:
 122:../../libdaisy/src/dev/oled_ssd130x.h ****     SpiHandle spi_;
 123:../../libdaisy/src/dev/oled_ssd130x.h ****     dsy_gpio  pin_reset_;
 124:../../libdaisy/src/dev/oled_ssd130x.h ****     dsy_gpio  pin_dc_;
 125:../../libdaisy/src/dev/oled_ssd130x.h **** };
 126:../../libdaisy/src/dev/oled_ssd130x.h **** 
 127:../../libdaisy/src/dev/oled_ssd130x.h **** 
 128:../../libdaisy/src/dev/oled_ssd130x.h **** /**
 129:../../libdaisy/src/dev/oled_ssd130x.h ****  * A driver implementation for the SSD1306/SSD1309
 130:../../libdaisy/src/dev/oled_ssd130x.h ****  */
 131:../../libdaisy/src/dev/oled_ssd130x.h **** template <size_t width, size_t height, typename Transport>
 132:../../libdaisy/src/dev/oled_ssd130x.h **** class SSD130xDriver
 133:../../libdaisy/src/dev/oled_ssd130x.h **** {
 134:../../libdaisy/src/dev/oled_ssd130x.h ****   public:
 135:../../libdaisy/src/dev/oled_ssd130x.h ****     struct Config
 136:../../libdaisy/src/dev/oled_ssd130x.h ****     {
 137:../../libdaisy/src/dev/oled_ssd130x.h ****         typename Transport::Config transport_config;
 138:../../libdaisy/src/dev/oled_ssd130x.h ****     };
 139:../../libdaisy/src/dev/oled_ssd130x.h **** 
 140:../../libdaisy/src/dev/oled_ssd130x.h ****     void Init(Config config)
 141:../../libdaisy/src/dev/oled_ssd130x.h ****     {
 142:../../libdaisy/src/dev/oled_ssd130x.h ****         transport_.Init(config.transport_config);
 143:../../libdaisy/src/dev/oled_ssd130x.h **** 
 144:../../libdaisy/src/dev/oled_ssd130x.h ****         // Init routine...
 145:../../libdaisy/src/dev/oled_ssd130x.h **** 
 146:../../libdaisy/src/dev/oled_ssd130x.h ****         // Display Off
 147:../../libdaisy/src/dev/oled_ssd130x.h ****         transport_.SendCommand(0xaE);
 148:../../libdaisy/src/dev/oled_ssd130x.h ****         // Dimension dependent commands...
 149:../../libdaisy/src/dev/oled_ssd130x.h ****         switch(height)
 150:../../libdaisy/src/dev/oled_ssd130x.h ****         {
 151:../../libdaisy/src/dev/oled_ssd130x.h ****             case 16:
 152:../../libdaisy/src/dev/oled_ssd130x.h ****                 // Display Clock Divide Ratio
 153:../../libdaisy/src/dev/oled_ssd130x.h ****                 transport_.SendCommand(0xD5);
 154:../../libdaisy/src/dev/oled_ssd130x.h ****                 transport_.SendCommand(0x60);
 155:../../libdaisy/src/dev/oled_ssd130x.h ****                 // Multiplex Ratio
 156:../../libdaisy/src/dev/oled_ssd130x.h ****                 transport_.SendCommand(0xA8);
 157:../../libdaisy/src/dev/oled_ssd130x.h ****                 transport_.SendCommand(0x0F);
 158:../../libdaisy/src/dev/oled_ssd130x.h ****                 // COM Pins
 159:../../libdaisy/src/dev/oled_ssd130x.h ****                 transport_.SendCommand(0xDA);
 160:../../libdaisy/src/dev/oled_ssd130x.h ****                 transport_.SendCommand(0x02);
 161:../../libdaisy/src/dev/oled_ssd130x.h ****                 break;
 162:../../libdaisy/src/dev/oled_ssd130x.h ****             case 32:
 163:../../libdaisy/src/dev/oled_ssd130x.h ****                 // Display Clock Divide Ratio
 164:../../libdaisy/src/dev/oled_ssd130x.h ****                 transport_.SendCommand(0xD5);
 165:../../libdaisy/src/dev/oled_ssd130x.h ****                 transport_.SendCommand(0x80);
ARM GAS  C:\Users\VINCIU~1\AppData\Local\Temp\cc6Tz7la.s 			page 20


 166:../../libdaisy/src/dev/oled_ssd130x.h ****                 // Multiplex Ratio
 167:../../libdaisy/src/dev/oled_ssd130x.h ****                 transport_.SendCommand(0xA8);
 168:../../libdaisy/src/dev/oled_ssd130x.h ****                 transport_.SendCommand(0x1F);
 169:../../libdaisy/src/dev/oled_ssd130x.h ****                 // COM Pins
 170:../../libdaisy/src/dev/oled_ssd130x.h ****                 transport_.SendCommand(0xDA);
 171:../../libdaisy/src/dev/oled_ssd130x.h ****                 if(width == 64)
 172:../../libdaisy/src/dev/oled_ssd130x.h ****                 {
 173:../../libdaisy/src/dev/oled_ssd130x.h ****                     transport_.SendCommand(0x12);
 174:../../libdaisy/src/dev/oled_ssd130x.h ****                 }
 175:../../libdaisy/src/dev/oled_ssd130x.h ****                 else
 176:../../libdaisy/src/dev/oled_ssd130x.h ****                 {
 177:../../libdaisy/src/dev/oled_ssd130x.h ****                     transport_.SendCommand(0x02);
 178:../../libdaisy/src/dev/oled_ssd130x.h ****                 }
 179:../../libdaisy/src/dev/oled_ssd130x.h **** 
 180:../../libdaisy/src/dev/oled_ssd130x.h ****                 break;
 181:../../libdaisy/src/dev/oled_ssd130x.h ****             case 48:
 182:../../libdaisy/src/dev/oled_ssd130x.h ****                 // Display Clock Divide Ratio
 183:../../libdaisy/src/dev/oled_ssd130x.h ****                 transport_.SendCommand(0xD5);
 184:../../libdaisy/src/dev/oled_ssd130x.h ****                 transport_.SendCommand(0x80);
 185:../../libdaisy/src/dev/oled_ssd130x.h ****                 // Multiplex Ratio
 186:../../libdaisy/src/dev/oled_ssd130x.h ****                 transport_.SendCommand(0xA8);
 187:../../libdaisy/src/dev/oled_ssd130x.h ****                 transport_.SendCommand(0x2F);
 188:../../libdaisy/src/dev/oled_ssd130x.h ****                 // COM Pins
 189:../../libdaisy/src/dev/oled_ssd130x.h ****                 transport_.SendCommand(0xDA);
 190:../../libdaisy/src/dev/oled_ssd130x.h ****                 transport_.SendCommand(0x12);
 191:../../libdaisy/src/dev/oled_ssd130x.h ****                 break;
 192:../../libdaisy/src/dev/oled_ssd130x.h ****             default: // 128
 193:../../libdaisy/src/dev/oled_ssd130x.h ****                 // Display Clock Divide Ratio
 194:../../libdaisy/src/dev/oled_ssd130x.h ****                 transport_.SendCommand(0xD5);
 195:../../libdaisy/src/dev/oled_ssd130x.h ****                 transport_.SendCommand(0x80);
 196:../../libdaisy/src/dev/oled_ssd130x.h ****                 // Multiplex Ratio
 197:../../libdaisy/src/dev/oled_ssd130x.h ****                 transport_.SendCommand(0xA8);
 198:../../libdaisy/src/dev/oled_ssd130x.h ****                 transport_.SendCommand(0x3F);
 199:../../libdaisy/src/dev/oled_ssd130x.h ****                 // COM Pins
 200:../../libdaisy/src/dev/oled_ssd130x.h ****                 transport_.SendCommand(0xDA);
 201:../../libdaisy/src/dev/oled_ssd130x.h ****                 transport_.SendCommand(0x12);
 202:../../libdaisy/src/dev/oled_ssd130x.h ****                 break;
 203:../../libdaisy/src/dev/oled_ssd130x.h ****         }
 204:../../libdaisy/src/dev/oled_ssd130x.h **** 
 205:../../libdaisy/src/dev/oled_ssd130x.h ****         // Display Offset
 206:../../libdaisy/src/dev/oled_ssd130x.h ****         transport_.SendCommand(0xD3);
 207:../../libdaisy/src/dev/oled_ssd130x.h ****         transport_.SendCommand(0x00);
 208:../../libdaisy/src/dev/oled_ssd130x.h ****         // Start Line Address
 209:../../libdaisy/src/dev/oled_ssd130x.h ****         transport_.SendCommand(0x40);
 210:../../libdaisy/src/dev/oled_ssd130x.h ****         // Normal Display
 211:../../libdaisy/src/dev/oled_ssd130x.h ****         transport_.SendCommand(0xA6);
 212:../../libdaisy/src/dev/oled_ssd130x.h ****         // All On Resume
 213:../../libdaisy/src/dev/oled_ssd130x.h ****         transport_.SendCommand(0xA4);
 214:../../libdaisy/src/dev/oled_ssd130x.h ****         // Charge Pump
 215:../../libdaisy/src/dev/oled_ssd130x.h ****         transport_.SendCommand(0x8D);
 216:../../libdaisy/src/dev/oled_ssd130x.h ****         transport_.SendCommand(0x14);
 217:../../libdaisy/src/dev/oled_ssd130x.h ****         // Set Segment Remap
 218:../../libdaisy/src/dev/oled_ssd130x.h ****         transport_.SendCommand(0xA1);
 219:../../libdaisy/src/dev/oled_ssd130x.h ****         // COM Output Scan Direction
 220:../../libdaisy/src/dev/oled_ssd130x.h ****         transport_.SendCommand(0xC8);
 221:../../libdaisy/src/dev/oled_ssd130x.h ****         // Contrast Control
 222:../../libdaisy/src/dev/oled_ssd130x.h ****         transport_.SendCommand(0x81);
ARM GAS  C:\Users\VINCIU~1\AppData\Local\Temp\cc6Tz7la.s 			page 21


 223:../../libdaisy/src/dev/oled_ssd130x.h ****         transport_.SendCommand(0x8F);
 224:../../libdaisy/src/dev/oled_ssd130x.h ****         // Pre Charge
 225:../../libdaisy/src/dev/oled_ssd130x.h ****         transport_.SendCommand(0xD9);
 226:../../libdaisy/src/dev/oled_ssd130x.h ****         transport_.SendCommand(0x25);
 227:../../libdaisy/src/dev/oled_ssd130x.h ****         // VCOM Detect
 228:../../libdaisy/src/dev/oled_ssd130x.h ****         transport_.SendCommand(0xDB);
 229:../../libdaisy/src/dev/oled_ssd130x.h ****         transport_.SendCommand(0x34);
 230:../../libdaisy/src/dev/oled_ssd130x.h **** 
 231:../../libdaisy/src/dev/oled_ssd130x.h **** 
 232:../../libdaisy/src/dev/oled_ssd130x.h ****         // Display On
 233:../../libdaisy/src/dev/oled_ssd130x.h ****         transport_.SendCommand(0xAF); //--turn on oled panel
 234:../../libdaisy/src/dev/oled_ssd130x.h ****     };
 235:../../libdaisy/src/dev/oled_ssd130x.h **** 
 236:../../libdaisy/src/dev/oled_ssd130x.h ****     size_t Width() const { return width; };
 237:../../libdaisy/src/dev/oled_ssd130x.h ****     size_t Height() const { return height; };
 238:../../libdaisy/src/dev/oled_ssd130x.h **** 
 239:../../libdaisy/src/dev/oled_ssd130x.h ****     void DrawPixel(uint_fast8_t x, uint_fast8_t y, bool on)
 240:../../libdaisy/src/dev/oled_ssd130x.h ****     {
 241:../../libdaisy/src/dev/oled_ssd130x.h ****         if(x >= width || y >= height)
 242:../../libdaisy/src/dev/oled_ssd130x.h ****             return;
 243:../../libdaisy/src/dev/oled_ssd130x.h ****         if(on)
 244:../../libdaisy/src/dev/oled_ssd130x.h ****             buffer_[x + (y / 8) * width] |= (1 << (y % 8));
 245:../../libdaisy/src/dev/oled_ssd130x.h ****         else
 246:../../libdaisy/src/dev/oled_ssd130x.h ****             buffer_[x + (y / 8) * width] &= ~(1 << (y % 8));
 247:../../libdaisy/src/dev/oled_ssd130x.h ****     }
 248:../../libdaisy/src/dev/oled_ssd130x.h **** 
 249:../../libdaisy/src/dev/oled_ssd130x.h ****     void Fill(bool on)
 302              		.loc 15 249 10 view .LVU41
 303              	.LBB349:
 250:../../libdaisy/src/dev/oled_ssd130x.h ****     {
 251:../../libdaisy/src/dev/oled_ssd130x.h ****         for(size_t i = 0; i < sizeof(buffer_); i++)
 304              		.loc 15 251 29 view .LVU42
 252:../../libdaisy/src/dev/oled_ssd130x.h ****         {
 253:../../libdaisy/src/dev/oled_ssd130x.h ****             buffer_[i] = on ? 0xff : 0x00;
 305              		.loc 15 253 24 is_stmt 0 view .LVU43
 306 0000 4942     		rsbs	r1, r1, #0
 307              	.LVL10:
 308              		.loc 15 253 24 view .LVU44
 309 0002 4FF48062 		mov	r2, #1024
 310 0006 1430     		adds	r0, r0, #20
 311              	.LVL11:
 312              		.loc 15 253 24 view .LVU45
 313 0008 C9B2     		uxtb	r1, r1
 314 000a FFF7FEBF 		b	memset
 315              	.LVL12:
 316              		.loc 15 253 24 view .LVU46
 317              	.LBE349:
 318              	.LBE348:
 319              		.cfi_endproc
 320              	.LFE4635:
 322 000e 00BF     		.section	.text._ZN5daisy11MidiHandlerINS_17MidiUartTransportEED2Ev,"axG",%progbits,_ZN5daisy11Midi
 323              		.align	1
 324              		.p2align 2,,3
 325              		.weak	_ZN5daisy11MidiHandlerINS_17MidiUartTransportEED2Ev
 326              		.syntax unified
 327              		.thumb
 328              		.thumb_func
ARM GAS  C:\Users\VINCIU~1\AppData\Local\Temp\cc6Tz7la.s 			page 22


 329              		.fpu fpv5-d16
 331              	_ZN5daisy11MidiHandlerINS_17MidiUartTransportEED2Ev:
 332              	.LVL13:
 333              	.LFB4644:
 334              		.file 16 "../../libdaisy/src/hid/midi.h"
   1:../../libdaisy/src/hid/midi.h **** #pragma once
   2:../../libdaisy/src/hid/midi.h **** #ifndef DSY_MIDI_H
   3:../../libdaisy/src/hid/midi.h **** #define DSY_MIDI_H
   4:../../libdaisy/src/hid/midi.h **** 
   5:../../libdaisy/src/hid/midi.h **** // TODO: make this adjustable
   6:../../libdaisy/src/hid/midi.h **** #define SYSEX_BUFFER_LEN 100
   7:../../libdaisy/src/hid/midi.h **** 
   8:../../libdaisy/src/hid/midi.h **** #include <stdint.h>
   9:../../libdaisy/src/hid/midi.h **** #include <stdlib.h>
  10:../../libdaisy/src/hid/midi.h **** #include "per/uart.h"
  11:../../libdaisy/src/hid/midi.h **** #include "util/ringbuffer.h"
  12:../../libdaisy/src/hid/midi.h **** #include "hid/MidiEvent.h"
  13:../../libdaisy/src/hid/midi.h **** 
  14:../../libdaisy/src/hid/midi.h **** namespace daisy
  15:../../libdaisy/src/hid/midi.h **** {
  16:../../libdaisy/src/hid/midi.h **** /** @addtogroup external 
  17:../../libdaisy/src/hid/midi.h ****     @{ 
  18:../../libdaisy/src/hid/midi.h **** */
  19:../../libdaisy/src/hid/midi.h **** 
  20:../../libdaisy/src/hid/midi.h **** class MidiUartTransport
  21:../../libdaisy/src/hid/midi.h **** {
  22:../../libdaisy/src/hid/midi.h ****   public:
  23:../../libdaisy/src/hid/midi.h ****     MidiUartTransport() {}
  24:../../libdaisy/src/hid/midi.h ****     ~MidiUartTransport() {}
  25:../../libdaisy/src/hid/midi.h **** 
  26:../../libdaisy/src/hid/midi.h ****     struct Config
  27:../../libdaisy/src/hid/midi.h ****     {
  28:../../libdaisy/src/hid/midi.h ****         UartHandler::Config::Peripheral periph;
  29:../../libdaisy/src/hid/midi.h ****         dsy_gpio_pin                    rx;
  30:../../libdaisy/src/hid/midi.h ****         dsy_gpio_pin                    tx;
  31:../../libdaisy/src/hid/midi.h **** 
  32:../../libdaisy/src/hid/midi.h ****         Config()
  33:../../libdaisy/src/hid/midi.h ****         {
  34:../../libdaisy/src/hid/midi.h ****             periph = UartHandler::Config::Peripheral::USART_1;
  35:../../libdaisy/src/hid/midi.h ****             rx     = {DSY_GPIOB, 7};
  36:../../libdaisy/src/hid/midi.h ****             tx     = {DSY_GPIOB, 6};
  37:../../libdaisy/src/hid/midi.h ****         }
  38:../../libdaisy/src/hid/midi.h ****     };
  39:../../libdaisy/src/hid/midi.h **** 
  40:../../libdaisy/src/hid/midi.h ****     inline void Init(Config config)
  41:../../libdaisy/src/hid/midi.h ****     {
  42:../../libdaisy/src/hid/midi.h ****         UartHandler::Config uart_config;
  43:../../libdaisy/src/hid/midi.h **** 
  44:../../libdaisy/src/hid/midi.h ****         //defaults
  45:../../libdaisy/src/hid/midi.h ****         uart_config.baudrate   = 31250;
  46:../../libdaisy/src/hid/midi.h ****         uart_config.stopbits   = UartHandler::Config::StopBits::BITS_1;
  47:../../libdaisy/src/hid/midi.h ****         uart_config.parity     = UartHandler::Config::Parity::NONE;
  48:../../libdaisy/src/hid/midi.h ****         uart_config.mode       = UartHandler::Config::Mode::TX_RX;
  49:../../libdaisy/src/hid/midi.h ****         uart_config.wordlength = UartHandler::Config::WordLength::BITS_8;
  50:../../libdaisy/src/hid/midi.h **** 
  51:../../libdaisy/src/hid/midi.h ****         //user settings
  52:../../libdaisy/src/hid/midi.h ****         uart_config.periph        = config.periph;
ARM GAS  C:\Users\VINCIU~1\AppData\Local\Temp\cc6Tz7la.s 			page 23


  53:../../libdaisy/src/hid/midi.h ****         uart_config.pin_config.rx = config.rx;
  54:../../libdaisy/src/hid/midi.h ****         uart_config.pin_config.tx = config.tx;
  55:../../libdaisy/src/hid/midi.h **** 
  56:../../libdaisy/src/hid/midi.h ****         uart_.Init(uart_config);
  57:../../libdaisy/src/hid/midi.h ****     }
  58:../../libdaisy/src/hid/midi.h **** 
  59:../../libdaisy/src/hid/midi.h ****     inline void    StartRx() { uart_.StartRx(); }
  60:../../libdaisy/src/hid/midi.h ****     inline size_t  Readable() { return uart_.Readable(); }
  61:../../libdaisy/src/hid/midi.h ****     inline uint8_t Rx() { return uart_.PopRx(); }
  62:../../libdaisy/src/hid/midi.h ****     inline bool    RxActive() { return uart_.RxActive(); }
  63:../../libdaisy/src/hid/midi.h ****     inline void    FlushRx() { uart_.FlushRx(); }
  64:../../libdaisy/src/hid/midi.h ****     inline void    Tx(uint8_t* buff, size_t size) { uart_.PollTx(buff, size); }
  65:../../libdaisy/src/hid/midi.h **** 
  66:../../libdaisy/src/hid/midi.h ****   private:
  67:../../libdaisy/src/hid/midi.h ****     UartHandler uart_;
  68:../../libdaisy/src/hid/midi.h **** };
  69:../../libdaisy/src/hid/midi.h **** 
  70:../../libdaisy/src/hid/midi.h **** /** 
  71:../../libdaisy/src/hid/midi.h ****     @brief Simple MIDI Handler \n 
  72:../../libdaisy/src/hid/midi.h ****     Parses bytes from an input into valid MidiEvents. \n 
  73:../../libdaisy/src/hid/midi.h ****     The MidiEvents fill a FIFO queue that the user can pop messages from.
  74:../../libdaisy/src/hid/midi.h ****     @author shensley
  75:../../libdaisy/src/hid/midi.h ****     @date March 2020
  76:../../libdaisy/src/hid/midi.h **** */
  77:../../libdaisy/src/hid/midi.h **** template <typename Transport>
  78:../../libdaisy/src/hid/midi.h **** class MidiHandler
  79:../../libdaisy/src/hid/midi.h **** {
  80:../../libdaisy/src/hid/midi.h ****   public:
  81:../../libdaisy/src/hid/midi.h ****     MidiHandler() {}
  82:../../libdaisy/src/hid/midi.h ****     ~MidiHandler() {}
 335              		.loc 16 82 5 is_stmt 1 view -0
 336              		.cfi_startproc
 337              		@ args = 0, pretend = 0, frame = 0
 338              		@ frame_needed = 0, uses_anonymous_args = 0
 339              		@ link register save eliminated.
 340              	.LBB350:
 341              	.LBI350:
  24:../../libdaisy/src/hid/midi.h **** 
 342              		.loc 16 24 5 view .LVU48
  24:../../libdaisy/src/hid/midi.h **** 
 343              		.loc 16 24 5 is_stmt 0 view .LVU49
 344              	.LBE350:
 345              		.loc 16 82 21 view .LVU50
 346 0000 7047     		bx	lr
 347              		.cfi_endproc
 348              	.LFE4644:
 350              		.weak	_ZN5daisy11MidiHandlerINS_17MidiUartTransportEED1Ev
 351              		.thumb_set _ZN5daisy11MidiHandlerINS_17MidiUartTransportEED1Ev,_ZN5daisy11MidiHandlerINS_17MidiUar
 352 0002 00BF     		.section	.text._Z13AudioCallbackPKfPfj,"ax",%progbits
 353              		.align	1
 354              		.p2align 2,,3
 355              		.global	_Z13AudioCallbackPKfPfj
 356              		.syntax unified
 357              		.thumb
 358              		.thumb_func
 359              		.fpu fpv5-d16
 361              	_Z13AudioCallbackPKfPfj:
ARM GAS  C:\Users\VINCIU~1\AppData\Local\Temp\cc6Tz7la.s 			page 24


 362              	.LVL14:
 363              	.LFB4038:
  19:SynthMenis.cpp **** Line                                   line;
  20:SynthMenis.cpp **** Adsr                                   env;
  21:SynthMenis.cpp **** bool                                   gate;
  22:SynthMenis.cpp **** MidiHandler<MidiUartTransport>         midi;
  23:SynthMenis.cpp **** MidiHandler<MidiUartTransport>::Config midi_cfg;
  24:SynthMenis.cpp **** float                                  semiMultiplier = 1;
  25:SynthMenis.cpp **** float                                  osc1Freq       = 0;
  26:SynthMenis.cpp **** uint8_t                                finished;
  27:SynthMenis.cpp **** int                                    navigation = 0;
  28:SynthMenis.cpp **** 
  29:SynthMenis.cpp **** void HandleMidiMessage(MidiEvent m)
  30:SynthMenis.cpp **** {
  31:SynthMenis.cpp ****     switch(m.type)
  32:SynthMenis.cpp ****     {
  33:SynthMenis.cpp ****         case NoteOn:
  34:SynthMenis.cpp ****         {
  35:SynthMenis.cpp ****             NoteOnEvent p = m.AsNoteOn();
  36:SynthMenis.cpp ****             char        buff[512];
  37:SynthMenis.cpp ****             sprintf(buff,
  38:SynthMenis.cpp ****                     "Note Received:\t%d\t%d\t%d\r\n",
  39:SynthMenis.cpp ****                     m.channel,
  40:SynthMenis.cpp ****                     m.data[0],
  41:SynthMenis.cpp ****                     m.data[1]);
  42:SynthMenis.cpp ****             hw.usb_handle.TransmitInternal((uint8_t *)buff, strlen(buff));
  43:SynthMenis.cpp ****             // This is to avoid Max/MSP Note outs for now..
  44:SynthMenis.cpp ****             if(m.data[1] != 0)
  45:SynthMenis.cpp ****             {
  46:SynthMenis.cpp ****                 //osc1Freq = p.note;
  47:SynthMenis.cpp ****                 line.Start(p.note + (synthmenu.glideInit * 0.25),
  48:SynthMenis.cpp ****                            p.note,
  49:SynthMenis.cpp ****                            synthmenu.glideTime / 100);
  50:SynthMenis.cpp ****                 gate = true;
  51:SynthMenis.cpp ****                 //env.Retrigger(true);
  52:SynthMenis.cpp ****             }
  53:SynthMenis.cpp ****         }
  54:SynthMenis.cpp ****         break;
  55:SynthMenis.cpp **** 
  56:SynthMenis.cpp ****         case NoteOff:
  57:SynthMenis.cpp ****         {
  58:SynthMenis.cpp ****             char buff[512];
  59:SynthMenis.cpp ****             sprintf(buff,
  60:SynthMenis.cpp ****                     "NoteOff Received:\t%d\t%d\t%d\r\n",
  61:SynthMenis.cpp ****                     m.channel,
  62:SynthMenis.cpp ****                     m.data[0],
  63:SynthMenis.cpp ****                     m.data[1]);
  64:SynthMenis.cpp ****             hw.usb_handle.TransmitInternal((uint8_t *)buff, strlen(buff));
  65:SynthMenis.cpp ****             // This is to avoid Max/MSP Note outs for now..
  66:SynthMenis.cpp ****             if(m.data[1] != 0)
  67:SynthMenis.cpp ****             {
  68:SynthMenis.cpp ****                 gate = false;
  69:SynthMenis.cpp ****             }
  70:SynthMenis.cpp ****         }
  71:SynthMenis.cpp ****         break;
  72:SynthMenis.cpp ****         default: break;
  73:SynthMenis.cpp ****     }
ARM GAS  C:\Users\VINCIU~1\AppData\Local\Temp\cc6Tz7la.s 			page 25


  74:SynthMenis.cpp **** }
  75:SynthMenis.cpp **** 
  76:SynthMenis.cpp **** 
  77:SynthMenis.cpp **** void AudioCallback(AudioHandle::InterleavingInputBuffer  in,
  78:SynthMenis.cpp ****                    AudioHandle::InterleavingOutputBuffer out,
  79:SynthMenis.cpp ****                    size_t                                size)
  80:SynthMenis.cpp **** {
 364              		.loc 14 80 1 is_stmt 1 view -0
 365              		.cfi_startproc
 366              		@ args = 0, pretend = 0, frame = 0
 367              		@ frame_needed = 0, uses_anonymous_args = 0
  81:SynthMenis.cpp ****     float osc_out;
 368              		.loc 14 81 5 view .LVU52
  82:SynthMenis.cpp ****     float env_out;
 369              		.loc 14 82 5 view .LVU53
  83:SynthMenis.cpp ****     for(size_t i = 0; i < size; i += 2)
 370              		.loc 14 83 5 view .LVU54
 371              	.LBB351:
 372              		.loc 14 83 25 view .LVU55
 373 0000 002A     		cmp	r2, #0
 374 0002 4AD0     		beq	.L20
 375 0004 013A     		subs	r2, r2, #1
 376              	.LVL15:
 377              		.loc 14 83 25 is_stmt 0 view .LVU56
 378              	.LBE351:
  80:SynthMenis.cpp ****     float osc_out;
 379              		.loc 14 80 1 view .LVU57
 380 0006 2DE9F047 		push	{r4, r5, r6, r7, r8, r9, r10, lr}
 381              		.cfi_def_cfa_offset 32
 382              		.cfi_offset 4, -32
 383              		.cfi_offset 5, -28
 384              		.cfi_offset 6, -24
 385              		.cfi_offset 7, -20
 386              		.cfi_offset 8, -16
 387              		.cfi_offset 9, -12
 388              		.cfi_offset 10, -8
 389              		.cfi_offset 14, -4
 390 000a 0C46     		mov	r4, r1
 391              	.LBB356:
 392              		.loc 14 83 25 view .LVU58
 393 000c 0025     		movs	r5, #0
 394 000e DFF8A090 		ldr	r9, .L23+20
 395 0012 5708     		lsrs	r7, r2, #1
 396 0014 214E     		ldr	r6, .L23
 397 0016 DFF89CA0 		ldr	r10, .L23+24
 398 001a DFF89C80 		ldr	r8, .L23+28
 399              	.LBE356:
  80:SynthMenis.cpp ****     float osc_out;
 400              		.loc 14 80 1 view .LVU59
 401 001e 2DED028B 		vpush.64	{d8}
 402              		.cfi_def_cfa_offset 40
 403              		.cfi_offset 80, -40
 404              		.cfi_offset 81, -36
 405              	.LVL16:
 406              	.L14:
 407              	.LBB357:
  84:SynthMenis.cpp ****     {
ARM GAS  C:\Users\VINCIU~1\AppData\Local\Temp\cc6Tz7la.s 			page 26


  85:SynthMenis.cpp ****         env_out = env.Process(gate);
 408              		.loc 14 85 9 is_stmt 1 discriminator 2 view .LVU60
 409              		.loc 14 85 30 is_stmt 0 discriminator 2 view .LVU61
 410 0022 99F80010 		ldrb	r1, [r9]	@ zero_extendqisi2
  83:SynthMenis.cpp ****     {
 411              		.loc 14 83 25 discriminator 2 view .LVU62
 412 0026 0834     		adds	r4, r4, #8
 413              		.loc 14 85 30 discriminator 2 view .LVU63
 414 0028 1D48     		ldr	r0, .L23+4
 415 002a FFF7FEFF 		bl	_ZN7daisysp4Adsr7ProcessEb
 416              	.LVL17:
  86:SynthMenis.cpp **** 
  87:SynthMenis.cpp ****         osc[0].SetAmp((env_out * 0.5) * synthmenu.synthOn);
 417              		.loc 14 87 9 is_stmt 1 discriminator 2 view .LVU64
 418              		.loc 14 87 32 is_stmt 0 discriminator 2 view .LVU65
 419 002e B6EE005B 		vmov.f64	d5, #5.0e-1
 420              		.loc 14 87 24 discriminator 2 view .LVU66
 421 0032 B7EEC00A 		vcvt.f64.f32	d0, s0
 422              	.LVL18:
 423              		.loc 14 87 39 discriminator 2 view .LVU67
 424 0036 DAED5B7A 		vldr.32	s15, [r10, #364]	@ int
  88:SynthMenis.cpp ****         osc[1].SetAmp((env_out * 0.5) * synthmenu.synthOn2);
  89:SynthMenis.cpp ****         osc_out    = osc[0].Process() + osc[1].Process();
 425              		.loc 14 89 36 discriminator 2 view .LVU68
 426 003a 1848     		ldr	r0, .L23
  87:SynthMenis.cpp ****         osc[1].SetAmp((env_out * 0.5) * synthmenu.synthOn2);
 427              		.loc 14 87 39 discriminator 2 view .LVU69
 428 003c B8EEE76B 		vcvt.f64.s32	d6, s15
  88:SynthMenis.cpp ****         osc[1].SetAmp((env_out * 0.5) * synthmenu.synthOn2);
 429              		.loc 14 88 39 discriminator 2 view .LVU70
 430 0040 DAED5C7A 		vldr.32	s15, [r10, #368]	@ int
  87:SynthMenis.cpp ****         osc[1].SetAmp((env_out * 0.5) * synthmenu.synthOn2);
 431              		.loc 14 87 32 discriminator 2 view .LVU71
 432 0044 20EE050B 		vmul.f64	d0, d0, d5
 433              	.LVL19:
 434              	.LBB352:
 435              	.LBI352:
 436              		.file 17 "../../DaisySP/Source/Synthesis/oscillator.h"
   1:../../DaisySP/Source/Synthesis/oscillator.h **** #pragma once
   2:../../DaisySP/Source/Synthesis/oscillator.h **** #ifndef DSY_OSCILLATOR_H
   3:../../DaisySP/Source/Synthesis/oscillator.h **** #define DSY_OSCILLATOR_H
   4:../../DaisySP/Source/Synthesis/oscillator.h **** #include <stdint.h>
   5:../../DaisySP/Source/Synthesis/oscillator.h **** #include "Utility/dsp.h"
   6:../../DaisySP/Source/Synthesis/oscillator.h **** #ifdef __cplusplus
   7:../../DaisySP/Source/Synthesis/oscillator.h **** 
   8:../../DaisySP/Source/Synthesis/oscillator.h **** namespace daisysp
   9:../../DaisySP/Source/Synthesis/oscillator.h **** {
  10:../../DaisySP/Source/Synthesis/oscillator.h **** /** Synthesis of several waveforms, including polyBLEP bandlimited waveforms.
  11:../../DaisySP/Source/Synthesis/oscillator.h **** */
  12:../../DaisySP/Source/Synthesis/oscillator.h **** class Oscillator
  13:../../DaisySP/Source/Synthesis/oscillator.h **** {
  14:../../DaisySP/Source/Synthesis/oscillator.h ****   public:
  15:../../DaisySP/Source/Synthesis/oscillator.h ****     Oscillator() {}
  16:../../DaisySP/Source/Synthesis/oscillator.h ****     ~Oscillator() {}
  17:../../DaisySP/Source/Synthesis/oscillator.h ****     /** Choices for output waveforms, POLYBLEP are appropriately labeled. Others are naive forms.
  18:../../DaisySP/Source/Synthesis/oscillator.h ****     */
  19:../../DaisySP/Source/Synthesis/oscillator.h ****     enum
ARM GAS  C:\Users\VINCIU~1\AppData\Local\Temp\cc6Tz7la.s 			page 27


  20:../../DaisySP/Source/Synthesis/oscillator.h ****     {
  21:../../DaisySP/Source/Synthesis/oscillator.h ****         WAVE_SIN,
  22:../../DaisySP/Source/Synthesis/oscillator.h ****         WAVE_TRI,
  23:../../DaisySP/Source/Synthesis/oscillator.h ****         WAVE_SAW,
  24:../../DaisySP/Source/Synthesis/oscillator.h ****         WAVE_RAMP,
  25:../../DaisySP/Source/Synthesis/oscillator.h ****         WAVE_SQUARE,
  26:../../DaisySP/Source/Synthesis/oscillator.h ****         WAVE_POLYBLEP_TRI,
  27:../../DaisySP/Source/Synthesis/oscillator.h ****         WAVE_POLYBLEP_SAW,
  28:../../DaisySP/Source/Synthesis/oscillator.h ****         WAVE_POLYBLEP_SQUARE,
  29:../../DaisySP/Source/Synthesis/oscillator.h ****         WAVE_LAST,
  30:../../DaisySP/Source/Synthesis/oscillator.h ****     };
  31:../../DaisySP/Source/Synthesis/oscillator.h **** 
  32:../../DaisySP/Source/Synthesis/oscillator.h **** 
  33:../../DaisySP/Source/Synthesis/oscillator.h ****     /** Initializes the Oscillator
  34:../../DaisySP/Source/Synthesis/oscillator.h **** 
  35:../../DaisySP/Source/Synthesis/oscillator.h ****         \param sample_rate - sample rate of the audio engine being run, and the frequency that the 
  36:../../DaisySP/Source/Synthesis/oscillator.h **** 
  37:../../DaisySP/Source/Synthesis/oscillator.h ****         Defaults:
  38:../../DaisySP/Source/Synthesis/oscillator.h ****         - freq_ = 100 Hz
  39:../../DaisySP/Source/Synthesis/oscillator.h ****         - amp_ = 0.5
  40:../../DaisySP/Source/Synthesis/oscillator.h ****         - waveform_ = sine wave.
  41:../../DaisySP/Source/Synthesis/oscillator.h ****     */
  42:../../DaisySP/Source/Synthesis/oscillator.h ****     void Init(float sample_rate)
  43:../../DaisySP/Source/Synthesis/oscillator.h ****     {
  44:../../DaisySP/Source/Synthesis/oscillator.h ****         sr_        = sample_rate;
  45:../../DaisySP/Source/Synthesis/oscillator.h ****         sr_recip_  = 1.0f / sample_rate;
  46:../../DaisySP/Source/Synthesis/oscillator.h ****         freq_      = 100.0f;
  47:../../DaisySP/Source/Synthesis/oscillator.h ****         amp_       = 0.5f;
  48:../../DaisySP/Source/Synthesis/oscillator.h ****         phase_     = 0.0f;
  49:../../DaisySP/Source/Synthesis/oscillator.h ****         phase_inc_ = CalcPhaseInc(freq_);
  50:../../DaisySP/Source/Synthesis/oscillator.h ****         waveform_  = WAVE_SIN;
  51:../../DaisySP/Source/Synthesis/oscillator.h ****         eoc_       = true;
  52:../../DaisySP/Source/Synthesis/oscillator.h ****         eor_       = true;
  53:../../DaisySP/Source/Synthesis/oscillator.h ****     }
  54:../../DaisySP/Source/Synthesis/oscillator.h **** 
  55:../../DaisySP/Source/Synthesis/oscillator.h **** 
  56:../../DaisySP/Source/Synthesis/oscillator.h ****     /** Changes the frequency of the Oscillator, and recalculates phase increment.
  57:../../DaisySP/Source/Synthesis/oscillator.h ****     */
  58:../../DaisySP/Source/Synthesis/oscillator.h ****     inline void SetFreq(const float f)
  59:../../DaisySP/Source/Synthesis/oscillator.h ****     {
  60:../../DaisySP/Source/Synthesis/oscillator.h ****         freq_      = f;
  61:../../DaisySP/Source/Synthesis/oscillator.h ****         phase_inc_ = CalcPhaseInc(f);
  62:../../DaisySP/Source/Synthesis/oscillator.h ****     }
  63:../../DaisySP/Source/Synthesis/oscillator.h **** 
  64:../../DaisySP/Source/Synthesis/oscillator.h **** 
  65:../../DaisySP/Source/Synthesis/oscillator.h ****     /** Sets the amplitude of the waveform.
  66:../../DaisySP/Source/Synthesis/oscillator.h ****     */
  67:../../DaisySP/Source/Synthesis/oscillator.h ****     inline void SetAmp(const float a) { amp_ = a; }
 437              		.loc 17 67 17 is_stmt 1 discriminator 2 view .LVU72
 438              	.LBB353:
 439              		.loc 17 67 41 discriminator 2 view .LVU73
 440              	.LBE353:
 441              	.LBE352:
  88:SynthMenis.cpp ****         osc_out    = osc[0].Process() + osc[1].Process();
 442              		.loc 14 88 39 is_stmt 0 discriminator 2 view .LVU74
 443 0048 B8EEE77B 		vcvt.f64.s32	d7, s15
  87:SynthMenis.cpp ****         osc[1].SetAmp((env_out * 0.5) * synthmenu.synthOn2);
ARM GAS  C:\Users\VINCIU~1\AppData\Local\Temp\cc6Tz7la.s 			page 28


 444              		.loc 14 87 39 discriminator 2 view .LVU75
 445 004c 26EE006B 		vmul.f64	d6, d6, d0
  88:SynthMenis.cpp ****         osc_out    = osc[0].Process() + osc[1].Process();
 446              		.loc 14 88 39 discriminator 2 view .LVU76
 447 0050 27EE000B 		vmul.f64	d0, d7, d0
 448              	.LVL20:
  87:SynthMenis.cpp ****         osc[1].SetAmp((env_out * 0.5) * synthmenu.synthOn2);
 449              		.loc 14 87 22 discriminator 2 view .LVU77
 450 0054 B7EEC66B 		vcvt.f32.f64	s12, d6
 451              	.LVL21:
  88:SynthMenis.cpp ****         osc_out    = osc[0].Process() + osc[1].Process();
 452              		.loc 14 88 22 discriminator 2 view .LVU78
 453 0058 B7EEC00B 		vcvt.f32.f64	s0, d0
  87:SynthMenis.cpp ****         osc[1].SetAmp((env_out * 0.5) * synthmenu.synthOn2);
 454              		.loc 14 87 22 discriminator 2 view .LVU79
 455 005c 86ED016A 		vstr.32	s12, [r6, #4]
 456              	.LVL22:
  88:SynthMenis.cpp ****         osc_out    = osc[0].Process() + osc[1].Process();
 457              		.loc 14 88 9 is_stmt 1 discriminator 2 view .LVU80
 458              	.LBB354:
 459              	.LBI354:
 460              		.loc 17 67 17 discriminator 2 view .LVU81
 461              	.LBB355:
 462              		.loc 17 67 41 discriminator 2 view .LVU82
 463              	.LBE355:
 464              	.LBE354:
  88:SynthMenis.cpp ****         osc_out    = osc[0].Process() + osc[1].Process();
 465              		.loc 14 88 22 is_stmt 0 discriminator 2 view .LVU83
 466 0060 86ED0B0A 		vstr.32	s0, [r6, #44]
 467              	.LVL23:
 468              		.loc 14 89 9 is_stmt 1 discriminator 2 view .LVU84
 469              		.loc 14 89 36 is_stmt 0 discriminator 2 view .LVU85
 470 0064 FFF7FEFF 		bl	_ZN7daisysp10Oscillator7ProcessEv
 471              	.LVL24:
 472 0068 B0EE408A 		vmov.f32	s16, s0
 473              		.loc 14 89 55 discriminator 2 view .LVU86
 474 006c 0D48     		ldr	r0, .L23+8
 475 006e FFF7FEFF 		bl	_ZN7daisysp10Oscillator7ProcessEv
 476              	.LVL25:
  90:SynthMenis.cpp ****         osc1Freq   = line.Process(&finished);
 477              		.loc 14 90 34 discriminator 2 view .LVU87
 478 0072 0D49     		ldr	r1, .L23+12
 479 0074 0D48     		ldr	r0, .L23+16
  89:SynthMenis.cpp ****         osc1Freq   = line.Process(&finished);
 480              		.loc 14 89 20 discriminator 2 view .LVU88
 481 0076 38EE008A 		vadd.f32	s16, s16, s0
 482              	.LVL26:
 483              		.loc 14 90 9 is_stmt 1 discriminator 2 view .LVU89
 484              		.loc 14 90 34 is_stmt 0 discriminator 2 view .LVU90
 485 007a FFF7FEFF 		bl	_ZN7daisysp4Line7ProcessEPh
 486              	.LVL27:
  83:SynthMenis.cpp ****     {
 487              		.loc 14 83 25 discriminator 2 view .LVU91
 488 007e AF42     		cmp	r7, r5
 489              		.loc 14 90 20 discriminator 2 view .LVU92
 490 0080 88ED000A 		vstr.32	s0, [r8]
  91:SynthMenis.cpp ****         out[i]     = osc_out;
ARM GAS  C:\Users\VINCIU~1\AppData\Local\Temp\cc6Tz7la.s 			page 29


 491              		.loc 14 91 9 is_stmt 1 discriminator 2 view .LVU93
  83:SynthMenis.cpp ****     {
 492              		.loc 14 83 25 is_stmt 0 discriminator 2 view .LVU94
 493 0084 05F10105 		add	r5, r5, #1
 494              	.LVL28:
 495              		.loc 14 91 20 discriminator 2 view .LVU95
 496 0088 04ED028A 		vstr.32	s16, [r4, #-8]
  92:SynthMenis.cpp ****         out[i + 1] = osc_out;
 497              		.loc 14 92 9 is_stmt 1 discriminator 2 view .LVU96
 498              		.loc 14 92 20 is_stmt 0 discriminator 2 view .LVU97
 499 008c 04ED018A 		vstr.32	s16, [r4, #-4]
  83:SynthMenis.cpp ****     {
 500              		.loc 14 83 5 is_stmt 1 discriminator 2 view .LVU98
 501              	.LVL29:
  83:SynthMenis.cpp ****     {
 502              		.loc 14 83 25 discriminator 2 view .LVU99
 503 0090 C7D1     		bne	.L14
 504              	.LBE357:
  93:SynthMenis.cpp ****     }
  94:SynthMenis.cpp **** }
 505              		.loc 14 94 1 is_stmt 0 view .LVU100
 506 0092 BDEC028B 		vldm	sp!, {d8}
 507              		.cfi_restore 80
 508              		.cfi_restore 81
 509              		.cfi_def_cfa_offset 32
 510              	.LVL30:
 511              		.loc 14 94 1 view .LVU101
 512 0096 BDE8F087 		pop	{r4, r5, r6, r7, r8, r9, r10, pc}
 513              	.LVL31:
 514              	.L20:
 515              		.cfi_def_cfa_offset 0
 516              		.cfi_restore 4
 517              		.cfi_restore 5
 518              		.cfi_restore 6
 519              		.cfi_restore 7
 520              		.cfi_restore 8
 521              		.cfi_restore 9
 522              		.cfi_restore 10
 523              		.cfi_restore 14
 524              		.loc 14 94 1 view .LVU102
 525 009a 7047     		bx	lr
 526              	.L24:
 527              		.align	2
 528              	.L23:
 529 009c 00000000 		.word	.LANCHOR2
 530 00a0 00000000 		.word	.LANCHOR1
 531 00a4 28000000 		.word	.LANCHOR2+40
 532 00a8 00000000 		.word	.LANCHOR4
 533 00ac 00000000 		.word	.LANCHOR5
 534 00b0 00000000 		.word	.LANCHOR0
 535 00b4 00000000 		.word	.LANCHOR3
 536 00b8 00000000 		.word	.LANCHOR6
 537              		.cfi_endproc
 538              	.LFE4038:
 540              		.section	.text._ZN23OledDisplayExtravaganzaD0Ev,"axG",%progbits,_ZN23OledDisplayExtravaganzaD5Ev,c
 541              		.align	1
 542              		.p2align 2,,3
ARM GAS  C:\Users\VINCIU~1\AppData\Local\Temp\cc6Tz7la.s 			page 30


 543              		.weak	_ZN23OledDisplayExtravaganzaD0Ev
 544              		.syntax unified
 545              		.thumb
 546              		.thumb_func
 547              		.fpu fpv5-d16
 549              	_ZN23OledDisplayExtravaganzaD0Ev:
 550              	.LVL32:
 551              	.LFB4629:
 552              		.loc 9 9 7 is_stmt 1 view -0
 553              		.cfi_startproc
 554              		@ args = 0, pretend = 0, frame = 0
 555              		@ frame_needed = 0, uses_anonymous_args = 0
 556              		.loc 9 9 7 is_stmt 0 view .LVU104
 557 0000 10B5     		push	{r4, lr}
 558              		.cfi_def_cfa_offset 8
 559              		.cfi_offset 4, -8
 560              		.cfi_offset 14, -4
 561              		.loc 9 9 7 view .LVU105
 562 0002 0446     		mov	r4, r0
 563              	.LVL33:
 564              	.LBB358:
 565              	.LBI358:
 566              		.loc 9 9 7 is_stmt 1 view .LVU106
 567              	.LBB359:
 568              	.LBI359:
  17:../../libdaisy/src/hid/disp/oled_display.h **** 
 569              		.loc 8 17 13 view .LVU107
 570              	.LBB360:
 571              	.LBI360:
 572              		.loc 10 179 13 view .LVU108
 573              	.LBB361:
 574              	.LBI361:
  22:../../libdaisy/src/hid/disp/display.h **** 
 575              		.loc 10 22 13 view .LVU109
  22:../../libdaisy/src/hid/disp/display.h **** 
 576              		.loc 10 22 13 is_stmt 0 view .LVU110
 577              	.LBE361:
 578              	.LBE360:
 579              	.LBE359:
 580              	.LBE358:
 581              		.loc 9 9 7 view .LVU111
 582 0004 40F21441 		movw	r1, #1044
 583 0008 FFF7FEFF 		bl	_ZdlPvj
 584              	.LVL34:
 585              		.loc 9 9 7 view .LVU112
 586 000c 2046     		mov	r0, r4
 587 000e 10BD     		pop	{r4, pc}
 588              		.loc 9 9 7 view .LVU113
 589              		.cfi_endproc
 590              	.LFE4629:
 592              		.section	.text._ZN5daisy11OledDisplayINS_13SSD130xDriverILj128ELj64ENS_24SSD130x4WireSpiTransportE
 593              		.align	1
 594              		.p2align 2,,3
 595              		.weak	_ZN5daisy11OledDisplayINS_13SSD130xDriverILj128ELj64ENS_24SSD130x4WireSpiTransportEEEE6Updat
 596              		.syntax unified
 597              		.thumb
 598              		.thumb_func
ARM GAS  C:\Users\VINCIU~1\AppData\Local\Temp\cc6Tz7la.s 			page 31


 599              		.fpu fpv5-d16
 601              	_ZN5daisy11OledDisplayINS_13SSD130xDriverILj128ELj64ENS_24SSD130x4WireSpiTransportEEEE6UpdateEv:
 602              	.LVL35:
 603              	.LFB4642:
  34:../../libdaisy/src/hid/disp/oled_display.h **** 
  35:../../libdaisy/src/hid/disp/oled_display.h ****     /**
  36:../../libdaisy/src/hid/disp/oled_display.h ****     Sets the pixel at the specified coordinate to be on/off.
  37:../../libdaisy/src/hid/disp/oled_display.h ****     \param x   x Coordinate
  38:../../libdaisy/src/hid/disp/oled_display.h ****     \param y   y coordinate
  39:../../libdaisy/src/hid/disp/oled_display.h ****     \param on  on or off
  40:../../libdaisy/src/hid/disp/oled_display.h ****     */
  41:../../libdaisy/src/hid/disp/oled_display.h ****     void DrawPixel(uint_fast8_t x, uint_fast8_t y, bool on) override
  42:../../libdaisy/src/hid/disp/oled_display.h ****     {
  43:../../libdaisy/src/hid/disp/oled_display.h ****         driver_.DrawPixel(x, y, on);
  44:../../libdaisy/src/hid/disp/oled_display.h ****     }
  45:../../libdaisy/src/hid/disp/oled_display.h **** 
  46:../../libdaisy/src/hid/disp/oled_display.h ****     /** 
  47:../../libdaisy/src/hid/disp/oled_display.h ****     Writes the current display buffer to the OLED device using SPI or I2C depending on 
  48:../../libdaisy/src/hid/disp/oled_display.h ****     how the object was initialized.
  49:../../libdaisy/src/hid/disp/oled_display.h ****     */
  50:../../libdaisy/src/hid/disp/oled_display.h ****     void Update() override { driver_.Update(); }
 604              		.loc 8 50 10 is_stmt 1 view -0
 605              		.cfi_startproc
 606              		@ args = 0, pretend = 0, frame = 8
 607              		@ frame_needed = 0, uses_anonymous_args = 0
 608              	.LBB372:
 609              	.LBI372:
 254:../../libdaisy/src/dev/oled_ssd130x.h ****         }
 255:../../libdaisy/src/dev/oled_ssd130x.h ****     };
 256:../../libdaisy/src/dev/oled_ssd130x.h **** 
 257:../../libdaisy/src/dev/oled_ssd130x.h ****     /**
 258:../../libdaisy/src/dev/oled_ssd130x.h ****      * Update the display 
 259:../../libdaisy/src/dev/oled_ssd130x.h ****     */
 260:../../libdaisy/src/dev/oled_ssd130x.h ****     void Update()
 610              		.loc 15 260 10 view .LVU115
 611              	.LBB373:
 261:../../libdaisy/src/dev/oled_ssd130x.h ****     {
 262:../../libdaisy/src/dev/oled_ssd130x.h ****         uint8_t i;
 263:../../libdaisy/src/dev/oled_ssd130x.h ****         uint8_t high_column_addr;
 264:../../libdaisy/src/dev/oled_ssd130x.h ****         switch(height)
 265:../../libdaisy/src/dev/oled_ssd130x.h ****         {
 266:../../libdaisy/src/dev/oled_ssd130x.h ****             case 32: high_column_addr = 0x12; break;
 267:../../libdaisy/src/dev/oled_ssd130x.h **** 
 268:../../libdaisy/src/dev/oled_ssd130x.h ****             default: high_column_addr = 0x10; break;
 269:../../libdaisy/src/dev/oled_ssd130x.h ****         }
 270:../../libdaisy/src/dev/oled_ssd130x.h ****         for(i = 0; i < (height / 8); i++)
 612              		.loc 15 270 22 view .LVU116
 613              	.LBE373:
 614              	.LBE372:
 615              		.loc 8 50 10 is_stmt 0 view .LVU117
 616 0000 2DE9F041 		push	{r4, r5, r6, r7, r8, lr}
 617              		.cfi_def_cfa_offset 24
 618              		.cfi_offset 4, -24
 619              		.cfi_offset 5, -20
 620              		.cfi_offset 6, -16
 621              		.cfi_offset 7, -12
 622              		.cfi_offset 8, -8
ARM GAS  C:\Users\VINCIU~1\AppData\Local\Temp\cc6Tz7la.s 			page 32


 623              		.cfi_offset 14, -4
 624              	.LBB395:
 625              	.LBB393:
 626              	.LBB374:
 627              	.LBB375:
 112:../../libdaisy/src/dev/oled_ssd130x.h ****     };
 628              		.loc 15 112 30 view .LVU118
 629 0004 B024     		movs	r4, #176
 630              	.LBE375:
 631              	.LBE374:
 632              	.LBE393:
 633              	.LBE395:
 634              		.loc 8 50 10 view .LVU119
 635 0006 82B0     		sub	sp, sp, #8
 636              		.cfi_def_cfa_offset 32
 637              	.LBB396:
 638              	.LBB394:
 639              	.LBB380:
 640              	.LBB376:
 111:../../libdaisy/src/dev/oled_ssd130x.h ****         spi_.BlockingTransmit(&cmd, 1);
 641              		.loc 15 111 24 view .LVU120
 642 0008 00F10806 		add	r6, r0, #8
 643 000c 00F11005 		add	r5, r0, #16
 644 0010 00F11408 		add	r8, r0, #20
 645              	.LVL36:
 646              	.L28:
 111:../../libdaisy/src/dev/oled_ssd130x.h ****         spi_.BlockingTransmit(&cmd, 1);
 647              		.loc 15 111 24 view .LVU121
 648 0014 0027     		movs	r7, #0
 111:../../libdaisy/src/dev/oled_ssd130x.h ****         spi_.BlockingTransmit(&cmd, 1);
 649              		.loc 15 111 23 view .LVU122
 650 0016 2846     		mov	r0, r5
 651 0018 8DF80740 		strb	r4, [sp, #7]
 652              	.LVL37:
 111:../../libdaisy/src/dev/oled_ssd130x.h ****         spi_.BlockingTransmit(&cmd, 1);
 653              		.loc 15 111 23 view .LVU123
 654              	.LBE376:
 655              	.LBI374:
 109:../../libdaisy/src/dev/oled_ssd130x.h ****     {
 656              		.loc 15 109 10 is_stmt 1 view .LVU124
 657              	.LBB377:
 111:../../libdaisy/src/dev/oled_ssd130x.h ****         spi_.BlockingTransmit(&cmd, 1);
 658              		.loc 15 111 9 view .LVU125
 659              	.LBE377:
 660              	.LBE380:
 661              		.loc 15 270 22 is_stmt 0 view .LVU126
 662 001c 0134     		adds	r4, r4, #1
 663              	.LVL38:
 664              	.LBB381:
 665              	.LBB378:
 111:../../libdaisy/src/dev/oled_ssd130x.h ****         spi_.BlockingTransmit(&cmd, 1);
 666              		.loc 15 111 23 view .LVU127
 667 001e 3946     		mov	r1, r7
 668 0020 FFF7FEFF 		bl	dsy_gpio_write
 669              	.LVL39:
 112:../../libdaisy/src/dev/oled_ssd130x.h ****     };
 670              		.loc 15 112 9 is_stmt 1 view .LVU128
ARM GAS  C:\Users\VINCIU~1\AppData\Local\Temp\cc6Tz7la.s 			page 33


 112:../../libdaisy/src/dev/oled_ssd130x.h ****     };
 671              		.loc 15 112 30 is_stmt 0 view .LVU129
 672 0024 6423     		movs	r3, #100
 673 0026 0122     		movs	r2, #1
 674 0028 0DF10701 		add	r1, sp, #7
 675 002c 3046     		mov	r0, r6
 676              	.LBE378:
 677              	.LBE381:
 678              		.loc 15 270 22 view .LVU130
 679 002e E4B2     		uxtb	r4, r4
 680              	.LBB382:
 681              	.LBB379:
 112:../../libdaisy/src/dev/oled_ssd130x.h ****     };
 682              		.loc 15 112 30 view .LVU131
 683 0030 FFF7FEFF 		bl	_ZN5daisy9SpiHandle16BlockingTransmitEPhjm
 684              	.LVL40:
 112:../../libdaisy/src/dev/oled_ssd130x.h ****     };
 685              		.loc 15 112 30 view .LVU132
 686              	.LBE379:
 687              	.LBE382:
 688              	.LBB383:
 689              	.LBB384:
 111:../../libdaisy/src/dev/oled_ssd130x.h ****         spi_.BlockingTransmit(&cmd, 1);
 690              		.loc 15 111 23 view .LVU133
 691 0034 3946     		mov	r1, r7
 692 0036 2846     		mov	r0, r5
 693 0038 8DF80770 		strb	r7, [sp, #7]
 694              	.LVL41:
 111:../../libdaisy/src/dev/oled_ssd130x.h ****         spi_.BlockingTransmit(&cmd, 1);
 695              		.loc 15 111 23 view .LVU134
 696              	.LBE384:
 697              	.LBI383:
 109:../../libdaisy/src/dev/oled_ssd130x.h ****     {
 698              		.loc 15 109 10 is_stmt 1 view .LVU135
 699              	.LBB385:
 111:../../libdaisy/src/dev/oled_ssd130x.h ****         spi_.BlockingTransmit(&cmd, 1);
 700              		.loc 15 111 9 view .LVU136
 111:../../libdaisy/src/dev/oled_ssd130x.h ****         spi_.BlockingTransmit(&cmd, 1);
 701              		.loc 15 111 23 is_stmt 0 view .LVU137
 702 003c FFF7FEFF 		bl	dsy_gpio_write
 703              	.LVL42:
 112:../../libdaisy/src/dev/oled_ssd130x.h ****     };
 704              		.loc 15 112 9 is_stmt 1 view .LVU138
 112:../../libdaisy/src/dev/oled_ssd130x.h ****     };
 705              		.loc 15 112 30 is_stmt 0 view .LVU139
 706 0040 0122     		movs	r2, #1
 707 0042 6423     		movs	r3, #100
 708 0044 0DF10701 		add	r1, sp, #7
 709 0048 3046     		mov	r0, r6
 710 004a FFF7FEFF 		bl	_ZN5daisy9SpiHandle16BlockingTransmitEPhjm
 711              	.LVL43:
 112:../../libdaisy/src/dev/oled_ssd130x.h ****     };
 712              		.loc 15 112 30 view .LVU140
 713 004e 1023     		movs	r3, #16
 714              	.LBE385:
 715              	.LBE383:
 716              	.LBB386:
ARM GAS  C:\Users\VINCIU~1\AppData\Local\Temp\cc6Tz7la.s 			page 34


 717              	.LBB387:
 111:../../libdaisy/src/dev/oled_ssd130x.h ****         spi_.BlockingTransmit(&cmd, 1);
 718              		.loc 15 111 23 view .LVU141
 719 0050 3946     		mov	r1, r7
 720 0052 2846     		mov	r0, r5
 721 0054 8DF80730 		strb	r3, [sp, #7]
 722              	.LVL44:
 111:../../libdaisy/src/dev/oled_ssd130x.h ****         spi_.BlockingTransmit(&cmd, 1);
 723              		.loc 15 111 23 view .LVU142
 724              	.LBE387:
 725              	.LBI386:
 109:../../libdaisy/src/dev/oled_ssd130x.h ****     {
 726              		.loc 15 109 10 is_stmt 1 view .LVU143
 727              	.LBB388:
 111:../../libdaisy/src/dev/oled_ssd130x.h ****         spi_.BlockingTransmit(&cmd, 1);
 728              		.loc 15 111 9 view .LVU144
 111:../../libdaisy/src/dev/oled_ssd130x.h ****         spi_.BlockingTransmit(&cmd, 1);
 729              		.loc 15 111 23 is_stmt 0 view .LVU145
 730 0058 FFF7FEFF 		bl	dsy_gpio_write
 731              	.LVL45:
 112:../../libdaisy/src/dev/oled_ssd130x.h ****     };
 732              		.loc 15 112 9 is_stmt 1 view .LVU146
 112:../../libdaisy/src/dev/oled_ssd130x.h ****     };
 733              		.loc 15 112 30 is_stmt 0 view .LVU147
 734 005c 6423     		movs	r3, #100
 735 005e 0122     		movs	r2, #1
 736 0060 0DF10701 		add	r1, sp, #7
 737 0064 3046     		mov	r0, r6
 738 0066 FFF7FEFF 		bl	_ZN5daisy9SpiHandle16BlockingTransmitEPhjm
 739              	.LVL46:
 112:../../libdaisy/src/dev/oled_ssd130x.h ****     };
 740              		.loc 15 112 30 view .LVU148
 741              	.LBE388:
 742              	.LBE386:
 743              	.LBB389:
 744              	.LBI389:
 115:../../libdaisy/src/dev/oled_ssd130x.h ****     {
 745              		.loc 15 115 10 is_stmt 1 view .LVU149
 746              	.LBB390:
 117:../../libdaisy/src/dev/oled_ssd130x.h ****         spi_.BlockingTransmit(buff, size);
 747              		.loc 15 117 9 view .LVU150
 117:../../libdaisy/src/dev/oled_ssd130x.h ****         spi_.BlockingTransmit(buff, size);
 748              		.loc 15 117 23 is_stmt 0 view .LVU151
 749 006a 0121     		movs	r1, #1
 750 006c 2846     		mov	r0, r5
 751 006e FFF7FEFF 		bl	dsy_gpio_write
 752              	.LVL47:
 118:../../libdaisy/src/dev/oled_ssd130x.h ****     };
 753              		.loc 15 118 9 is_stmt 1 view .LVU152
 118:../../libdaisy/src/dev/oled_ssd130x.h ****     };
 754              		.loc 15 118 30 is_stmt 0 view .LVU153
 755 0072 8022     		movs	r2, #128
 756 0074 4146     		mov	r1, r8
 757 0076 6423     		movs	r3, #100
 758 0078 3046     		mov	r0, r6
 759              	.LBE390:
 760              	.LBE389:
ARM GAS  C:\Users\VINCIU~1\AppData\Local\Temp\cc6Tz7la.s 			page 35


 761              		.loc 15 270 22 view .LVU154
 762 007a 9044     		add	r8, r8, r2
 763              	.LVL48:
 764              	.LBB392:
 765              	.LBB391:
 118:../../libdaisy/src/dev/oled_ssd130x.h ****     };
 766              		.loc 15 118 30 view .LVU155
 767 007c FFF7FEFF 		bl	_ZN5daisy9SpiHandle16BlockingTransmitEPhjm
 768              	.LVL49:
 118:../../libdaisy/src/dev/oled_ssd130x.h ****     };
 769              		.loc 15 118 30 view .LVU156
 770              	.LBE391:
 771              	.LBE392:
 772              		.loc 15 270 9 is_stmt 1 view .LVU157
 773              		.loc 15 270 22 view .LVU158
 774 0080 B82C     		cmp	r4, #184
 775 0082 C7D1     		bne	.L28
 776              	.LBE394:
 777              	.LBE396:
 778              		.loc 8 50 48 is_stmt 0 view .LVU159
 779 0084 02B0     		add	sp, sp, #8
 780              		.cfi_def_cfa_offset 24
 781              		@ sp needed
 782 0086 BDE8F081 		pop	{r4, r5, r6, r7, r8, pc}
 783              		.loc 8 50 48 view .LVU160
 784              		.cfi_endproc
 785              	.LFE4642:
 787 008a 00BF     		.section	.text._ZN5daisy25OneBitGraphicsDisplayImplINS_11OledDisplayINS_13SSD130xDriverILj128ELj64
 788              		.align	1
 789              		.p2align 2,,3
 790              		.weak	_ZN5daisy25OneBitGraphicsDisplayImplINS_11OledDisplayINS_13SSD130xDriverILj128ELj64ENS_24SSD
 791              		.syntax unified
 792              		.thumb
 793              		.thumb_func
 794              		.fpu fpv5-d16
 796              	_ZN5daisy25OneBitGraphicsDisplayImplINS_11OledDisplayINS_13SSD130xDriverILj128ELj64ENS_24SSD130x4Wi
 797              	.LVL50:
 798              	.LFB4640:
 180:../../libdaisy/src/hid/disp/display.h **** 
 181:../../libdaisy/src/hid/disp/display.h ****     void DrawLine(uint_fast8_t x1,
 182:../../libdaisy/src/hid/disp/display.h ****                   uint_fast8_t y1,
 183:../../libdaisy/src/hid/disp/display.h ****                   uint_fast8_t x2,
 184:../../libdaisy/src/hid/disp/display.h ****                   uint_fast8_t y2,
 185:../../libdaisy/src/hid/disp/display.h ****                   bool         on) override
 186:../../libdaisy/src/hid/disp/display.h ****     {
 187:../../libdaisy/src/hid/disp/display.h ****         int_fast16_t deltaX = abs((int_fast16_t)x2 - (int_fast16_t)x1);
 188:../../libdaisy/src/hid/disp/display.h ****         int_fast16_t deltaY = abs((int_fast16_t)y2 - (int_fast16_t)y1);
 189:../../libdaisy/src/hid/disp/display.h ****         int_fast16_t signX  = ((x1 < x2) ? 1 : -1);
 190:../../libdaisy/src/hid/disp/display.h ****         int_fast16_t signY  = ((y1 < y2) ? 1 : -1);
 191:../../libdaisy/src/hid/disp/display.h ****         int_fast16_t error  = deltaX - deltaY;
 192:../../libdaisy/src/hid/disp/display.h ****         int_fast16_t error2;
 193:../../libdaisy/src/hid/disp/display.h **** 
 194:../../libdaisy/src/hid/disp/display.h ****         // If we write "ChildType::DrawPixel(x2, y2, on);", we end up with
 195:../../libdaisy/src/hid/disp/display.h ****         // all sorts of weird compiler errors when the Child class is a template
 196:../../libdaisy/src/hid/disp/display.h ****         // class. The only way around this is to use this very verbose syntax:
 197:../../libdaisy/src/hid/disp/display.h ****         ((ChildType*)(this))->ChildType::DrawPixel(x2, y2, on);
 198:../../libdaisy/src/hid/disp/display.h **** 
ARM GAS  C:\Users\VINCIU~1\AppData\Local\Temp\cc6Tz7la.s 			page 36


 199:../../libdaisy/src/hid/disp/display.h ****         while((x1 != x2) || (y1 != y2))
 200:../../libdaisy/src/hid/disp/display.h ****         {
 201:../../libdaisy/src/hid/disp/display.h ****             ((ChildType*)(this))->ChildType::DrawPixel(x1, y1, on);
 202:../../libdaisy/src/hid/disp/display.h ****             error2 = error * 2;
 203:../../libdaisy/src/hid/disp/display.h ****             if(error2 > -deltaY)
 204:../../libdaisy/src/hid/disp/display.h ****             {
 205:../../libdaisy/src/hid/disp/display.h ****                 error -= deltaY;
 206:../../libdaisy/src/hid/disp/display.h ****                 x1 += signX;
 207:../../libdaisy/src/hid/disp/display.h ****             }
 208:../../libdaisy/src/hid/disp/display.h **** 
 209:../../libdaisy/src/hid/disp/display.h ****             if(error2 < deltaX)
 210:../../libdaisy/src/hid/disp/display.h ****             {
 211:../../libdaisy/src/hid/disp/display.h ****                 error += deltaX;
 212:../../libdaisy/src/hid/disp/display.h ****                 y1 += signY;
 213:../../libdaisy/src/hid/disp/display.h ****             }
 214:../../libdaisy/src/hid/disp/display.h ****         }
 215:../../libdaisy/src/hid/disp/display.h ****     }
 216:../../libdaisy/src/hid/disp/display.h **** 
 217:../../libdaisy/src/hid/disp/display.h ****     void DrawRect(uint_fast8_t x1,
 218:../../libdaisy/src/hid/disp/display.h ****                   uint_fast8_t y1,
 219:../../libdaisy/src/hid/disp/display.h ****                   uint_fast8_t x2,
 220:../../libdaisy/src/hid/disp/display.h ****                   uint_fast8_t y2,
 221:../../libdaisy/src/hid/disp/display.h ****                   bool         on,
 222:../../libdaisy/src/hid/disp/display.h ****                   bool         fill = false) override
 223:../../libdaisy/src/hid/disp/display.h ****     {
 224:../../libdaisy/src/hid/disp/display.h ****         if(fill)
 225:../../libdaisy/src/hid/disp/display.h ****         {
 226:../../libdaisy/src/hid/disp/display.h ****             for(uint_fast8_t x = x1; x <= x2; x++)
 227:../../libdaisy/src/hid/disp/display.h ****             {
 228:../../libdaisy/src/hid/disp/display.h ****                 for(uint_fast8_t y = y1; y <= y2; y++)
 229:../../libdaisy/src/hid/disp/display.h ****                 {
 230:../../libdaisy/src/hid/disp/display.h ****                     ((ChildType*)(this))->ChildType::DrawPixel(x, y, on);
 231:../../libdaisy/src/hid/disp/display.h ****                 }
 232:../../libdaisy/src/hid/disp/display.h ****             }
 233:../../libdaisy/src/hid/disp/display.h ****         }
 234:../../libdaisy/src/hid/disp/display.h ****         else
 235:../../libdaisy/src/hid/disp/display.h ****         {
 236:../../libdaisy/src/hid/disp/display.h ****             ((ChildType*)(this))->ChildType::DrawLine(x1, y1, x2, y1, on);
 237:../../libdaisy/src/hid/disp/display.h ****             ((ChildType*)(this))->ChildType::DrawLine(x2, y1, x2, y2, on);
 238:../../libdaisy/src/hid/disp/display.h ****             ((ChildType*)(this))->ChildType::DrawLine(x2, y2, x1, y2, on);
 239:../../libdaisy/src/hid/disp/display.h ****             ((ChildType*)(this))->ChildType::DrawLine(x1, y2, x1, y1, on);
 240:../../libdaisy/src/hid/disp/display.h ****         }
 241:../../libdaisy/src/hid/disp/display.h ****     }
 242:../../libdaisy/src/hid/disp/display.h **** 
 243:../../libdaisy/src/hid/disp/display.h ****     void DrawArc(uint_fast8_t x,
 244:../../libdaisy/src/hid/disp/display.h ****                  uint_fast8_t y,
 245:../../libdaisy/src/hid/disp/display.h ****                  uint_fast8_t radius,
 246:../../libdaisy/src/hid/disp/display.h ****                  int_fast16_t start_angle,
 247:../../libdaisy/src/hid/disp/display.h ****                  int_fast16_t sweep,
 248:../../libdaisy/src/hid/disp/display.h ****                  bool         on) override
 249:../../libdaisy/src/hid/disp/display.h ****     {
 250:../../libdaisy/src/hid/disp/display.h ****         // Values to calculate the circle
 251:../../libdaisy/src/hid/disp/display.h ****         int_fast16_t t_x, t_y, err, e2;
 252:../../libdaisy/src/hid/disp/display.h **** 
 253:../../libdaisy/src/hid/disp/display.h ****         // Temporary values to speed up comparisons
 254:../../libdaisy/src/hid/disp/display.h ****         float t_sxy, t_syx, t_sxny, t_synx;
 255:../../libdaisy/src/hid/disp/display.h ****         float t_exy, t_eyx, t_exny, t_eynx;
ARM GAS  C:\Users\VINCIU~1\AppData\Local\Temp\cc6Tz7la.s 			page 37


 256:../../libdaisy/src/hid/disp/display.h **** 
 257:../../libdaisy/src/hid/disp/display.h ****         float start_angle_rad, end_angle_rad;
 258:../../libdaisy/src/hid/disp/display.h ****         float start_x, start_y, end_x, end_y;
 259:../../libdaisy/src/hid/disp/display.h **** 
 260:../../libdaisy/src/hid/disp/display.h ****         bool d1, d2, d3, d4;
 261:../../libdaisy/src/hid/disp/display.h **** 
 262:../../libdaisy/src/hid/disp/display.h ****         d1 = d2 = d3 = d4 = true;
 263:../../libdaisy/src/hid/disp/display.h **** 
 264:../../libdaisy/src/hid/disp/display.h ****         bool circle = false;
 265:../../libdaisy/src/hid/disp/display.h **** 
 266:../../libdaisy/src/hid/disp/display.h ****         if(sweep < 0)
 267:../../libdaisy/src/hid/disp/display.h ****         {
 268:../../libdaisy/src/hid/disp/display.h ****             start_angle += sweep;
 269:../../libdaisy/src/hid/disp/display.h ****             sweep = -sweep;
 270:../../libdaisy/src/hid/disp/display.h ****         }
 271:../../libdaisy/src/hid/disp/display.h **** 
 272:../../libdaisy/src/hid/disp/display.h ****         start_angle_rad = deg2rad(start_angle);
 273:../../libdaisy/src/hid/disp/display.h ****         end_angle_rad   = deg2rad(start_angle + sweep);
 274:../../libdaisy/src/hid/disp/display.h **** 
 275:../../libdaisy/src/hid/disp/display.h ****         start_x = cos(start_angle_rad) * radius;
 276:../../libdaisy/src/hid/disp/display.h ****         start_y = -sin(start_angle_rad) * radius;
 277:../../libdaisy/src/hid/disp/display.h ****         end_x   = cos(end_angle_rad) * radius;
 278:../../libdaisy/src/hid/disp/display.h ****         end_y   = -sin(end_angle_rad) * radius;
 279:../../libdaisy/src/hid/disp/display.h **** 
 280:../../libdaisy/src/hid/disp/display.h ****         // Check if start and endpoint are very near
 281:../../libdaisy/src/hid/disp/display.h ****         if((end_x - start_x) * (end_x - start_x)
 282:../../libdaisy/src/hid/disp/display.h ****                + (end_y - start_y) * (end_y - start_y)
 283:../../libdaisy/src/hid/disp/display.h ****            < 2.0f)
 284:../../libdaisy/src/hid/disp/display.h ****         {
 285:../../libdaisy/src/hid/disp/display.h ****             if(sweep > 180)
 286:../../libdaisy/src/hid/disp/display.h ****                 circle = true;
 287:../../libdaisy/src/hid/disp/display.h ****             else
 288:../../libdaisy/src/hid/disp/display.h ****                 // Nothing to draw
 289:../../libdaisy/src/hid/disp/display.h ****                 return;
 290:../../libdaisy/src/hid/disp/display.h ****         }
 291:../../libdaisy/src/hid/disp/display.h **** 
 292:../../libdaisy/src/hid/disp/display.h ****         t_x = -radius;
 293:../../libdaisy/src/hid/disp/display.h ****         t_y = 0;
 294:../../libdaisy/src/hid/disp/display.h ****         err = 2 - 2 * radius;
 295:../../libdaisy/src/hid/disp/display.h **** 
 296:../../libdaisy/src/hid/disp/display.h ****         do
 297:../../libdaisy/src/hid/disp/display.h ****         {
 298:../../libdaisy/src/hid/disp/display.h ****             if(!circle)
 299:../../libdaisy/src/hid/disp/display.h ****             {
 300:../../libdaisy/src/hid/disp/display.h ****                 t_sxy  = start_x * t_y;
 301:../../libdaisy/src/hid/disp/display.h ****                 t_syx  = start_y * t_x;
 302:../../libdaisy/src/hid/disp/display.h ****                 t_sxny = start_x * -t_y;
 303:../../libdaisy/src/hid/disp/display.h ****                 t_synx = start_y * -t_x;
 304:../../libdaisy/src/hid/disp/display.h ****                 t_exy  = end_x * t_y;
 305:../../libdaisy/src/hid/disp/display.h ****                 t_eyx  = end_y * t_x;
 306:../../libdaisy/src/hid/disp/display.h ****                 t_exny = end_x * -t_y;
 307:../../libdaisy/src/hid/disp/display.h ****                 t_eynx = end_y * -t_x;
 308:../../libdaisy/src/hid/disp/display.h **** 
 309:../../libdaisy/src/hid/disp/display.h ****                 if(sweep > 180)
 310:../../libdaisy/src/hid/disp/display.h ****                 {
 311:../../libdaisy/src/hid/disp/display.h ****                     d1 = (t_sxy - t_synx < 0 || t_exy - t_eynx > 0);
 312:../../libdaisy/src/hid/disp/display.h ****                     d2 = (t_sxy - t_syx < 0 || t_exy - t_eyx > 0);
ARM GAS  C:\Users\VINCIU~1\AppData\Local\Temp\cc6Tz7la.s 			page 38


 313:../../libdaisy/src/hid/disp/display.h ****                     d3 = (t_sxny - t_syx < 0 || t_exny - t_eyx > 0);
 314:../../libdaisy/src/hid/disp/display.h ****                     d4 = (t_sxny - t_synx < 0 || t_exny - t_eynx > 0);
 315:../../libdaisy/src/hid/disp/display.h ****                 }
 316:../../libdaisy/src/hid/disp/display.h ****                 else
 317:../../libdaisy/src/hid/disp/display.h ****                 {
 318:../../libdaisy/src/hid/disp/display.h ****                     d1 = (t_sxy - t_synx < 0 && t_exy - t_eynx > 0);
 319:../../libdaisy/src/hid/disp/display.h ****                     d2 = (t_sxy - t_syx < 0 && t_exy - t_eyx > 0);
 320:../../libdaisy/src/hid/disp/display.h ****                     d3 = (t_sxny - t_syx < 0 && t_exny - t_eyx > 0);
 321:../../libdaisy/src/hid/disp/display.h ****                     d4 = (t_sxny - t_synx < 0 && t_exny - t_eynx > 0);
 322:../../libdaisy/src/hid/disp/display.h ****                 }
 323:../../libdaisy/src/hid/disp/display.h ****             }
 324:../../libdaisy/src/hid/disp/display.h **** 
 325:../../libdaisy/src/hid/disp/display.h ****             if(d1)
 326:../../libdaisy/src/hid/disp/display.h ****                 ((ChildType*)(this))
 327:../../libdaisy/src/hid/disp/display.h ****                     ->ChildType::DrawPixel(x - t_x, y + t_y, on);
 328:../../libdaisy/src/hid/disp/display.h ****             if(d2)
 329:../../libdaisy/src/hid/disp/display.h ****                 ((ChildType*)(this))
 330:../../libdaisy/src/hid/disp/display.h ****                     ->ChildType::DrawPixel(x + t_x, y + t_y, on);
 331:../../libdaisy/src/hid/disp/display.h ****             if(d3)
 332:../../libdaisy/src/hid/disp/display.h ****                 ((ChildType*)(this))
 333:../../libdaisy/src/hid/disp/display.h ****                     ->ChildType::DrawPixel(x + t_x, y - t_y, on);
 334:../../libdaisy/src/hid/disp/display.h ****             if(d4)
 335:../../libdaisy/src/hid/disp/display.h ****                 ((ChildType*)(this))
 336:../../libdaisy/src/hid/disp/display.h ****                     ->ChildType::DrawPixel(x - t_x, y - t_y, on);
 337:../../libdaisy/src/hid/disp/display.h **** 
 338:../../libdaisy/src/hid/disp/display.h ****             e2 = err;
 339:../../libdaisy/src/hid/disp/display.h ****             if(e2 <= t_y)
 340:../../libdaisy/src/hid/disp/display.h ****             {
 341:../../libdaisy/src/hid/disp/display.h ****                 t_y++;
 342:../../libdaisy/src/hid/disp/display.h ****                 err = err + (t_y * 2 + 1);
 343:../../libdaisy/src/hid/disp/display.h ****                 if(-t_x == t_y && e2 <= t_x)
 344:../../libdaisy/src/hid/disp/display.h ****                 {
 345:../../libdaisy/src/hid/disp/display.h ****                     e2 = 0;
 346:../../libdaisy/src/hid/disp/display.h ****                 }
 347:../../libdaisy/src/hid/disp/display.h ****             }
 348:../../libdaisy/src/hid/disp/display.h ****             if(e2 > t_x)
 349:../../libdaisy/src/hid/disp/display.h ****             {
 350:../../libdaisy/src/hid/disp/display.h ****                 t_x++;
 351:../../libdaisy/src/hid/disp/display.h ****                 err = err + (t_x * 2 + 1);
 352:../../libdaisy/src/hid/disp/display.h ****             }
 353:../../libdaisy/src/hid/disp/display.h ****         } while(t_x <= 0);
 354:../../libdaisy/src/hid/disp/display.h ****     }
 355:../../libdaisy/src/hid/disp/display.h **** 
 356:../../libdaisy/src/hid/disp/display.h ****     char WriteChar(char ch, FontDef font, bool on) override
 799              		.loc 10 356 10 is_stmt 1 view -0
 800              		.cfi_startproc
 801              		@ args = 4, pretend = 0, frame = 16
 802              		@ frame_needed = 0, uses_anonymous_args = 0
 803              		.loc 10 356 10 is_stmt 0 view .LVU162
 804 0000 2DE9F04F 		push	{r4, r5, r6, r7, r8, r9, r10, fp, lr}
 805              		.cfi_def_cfa_offset 36
 806              		.cfi_offset 4, -36
 807              		.cfi_offset 5, -32
 808              		.cfi_offset 6, -28
 809              		.cfi_offset 7, -24
 810              		.cfi_offset 8, -20
 811              		.cfi_offset 9, -16
ARM GAS  C:\Users\VINCIU~1\AppData\Local\Temp\cc6Tz7la.s 			page 39


 812              		.cfi_offset 10, -12
 813              		.cfi_offset 11, -8
 814              		.cfi_offset 14, -4
 815 0004 85B0     		sub	sp, sp, #20
 816              		.cfi_def_cfa_offset 56
 817              	.LVL51:
 357:../../libdaisy/src/hid/disp/display.h ****     {
 358:../../libdaisy/src/hid/disp/display.h ****         uint32_t i, b, j;
 359:../../libdaisy/src/hid/disp/display.h **** 
 360:../../libdaisy/src/hid/disp/display.h ****         // Check if character is valid
 361:../../libdaisy/src/hid/disp/display.h ****         if(ch < 32 || ch > 126)
 818              		.loc 10 361 20 view .LVU163
 819 0006 A1F12005 		sub	r5, r1, #32
 356:../../libdaisy/src/hid/disp/display.h ****     {
 820              		.loc 10 356 10 view .LVU164
 821 000a 04AC     		add	r4, sp, #16
 822 000c 9DF83870 		ldrb	r7, [sp, #56]	@ zero_extendqisi2
 823 0010 0091     		str	r1, [sp]
 824 0012 04E90C00 		stmdb	r4, {r2, r3}
 825              	.LVL52:
 826              		.loc 10 361 9 view .LVU165
 827 0016 EBB2     		uxtb	r3, r5
 828 0018 5E2B     		cmp	r3, #94
 829 001a 00F29580 		bhi	.L35
 362:../../libdaisy/src/hid/disp/display.h ****             return 0;
 363:../../libdaisy/src/hid/disp/display.h **** 
 364:../../libdaisy/src/hid/disp/display.h ****         // Check remaining space on current line
 365:../../libdaisy/src/hid/disp/display.h ****         if(Width() < (currentX_ + font.FontWidth)
 830              		.loc 10 365 17 view .LVU166
 831 001e 0368     		ldr	r3, [r0]
 832 0020 8046     		mov	r8, r0
 833 0022 5D4A     		ldr	r2, .L70
 834 0024 DB68     		ldr	r3, [r3, #12]
 835 0026 9DF80840 		ldrb	r4, [sp, #8]	@ zero_extendqisi2
 836 002a 9342     		cmp	r3, r2
 837 002c 9DF80960 		ldrb	r6, [sp, #9]	@ zero_extendqisi2
 838 0030 40F09480 		bne	.L62
 839 0034 8020     		movs	r0, #128
 840              	.LVL53:
 841              	.L34:
 842              		.loc 10 365 23 view .LVU167
 843 0036 B8F80430 		ldrh	r3, [r8, #4]
 844              		.loc 10 365 33 view .LVU168
 845 003a 2344     		add	r3, r3, r4
 366:../../libdaisy/src/hid/disp/display.h ****            || Height() < (currentY_ + font.FontHeight))
 846              		.loc 10 366 12 view .LVU169
 847 003c 8342     		cmp	r3, r0
 848 003e 00F38380 		bgt	.L35
 849              		.loc 10 366 21 discriminator 2 view .LVU170
 850 0042 D8F80030 		ldr	r3, [r8]
 851 0046 554A     		ldr	r2, .L70+4
 852 0048 9B68     		ldr	r3, [r3, #8]
 853 004a 9342     		cmp	r3, r2
 854 004c 40F08880 		bne	.L63
 855              		.loc 10 366 21 view .LVU171
 856 0050 4020     		movs	r0, #64
 857              	.L36:
ARM GAS  C:\Users\VINCIU~1\AppData\Local\Temp\cc6Tz7la.s 			page 40


 858              		.loc 10 366 27 discriminator 2 view .LVU172
 859 0052 B8F80620 		ldrh	r2, [r8, #6]
 860              		.loc 10 366 37 discriminator 2 view .LVU173
 861 0056 9319     		adds	r3, r2, r6
 862              		.loc 10 366 27 discriminator 2 view .LVU174
 863 0058 0192     		str	r2, [sp, #4]
 864              		.loc 10 366 12 discriminator 2 view .LVU175
 865 005a 8342     		cmp	r3, r0
 866 005c 74DC     		bgt	.L35
 867              	.LVL54:
 367:../../libdaisy/src/hid/disp/display.h ****         {
 368:../../libdaisy/src/hid/disp/display.h ****             // Not enough space on current line
 369:../../libdaisy/src/hid/disp/display.h ****             return 0;
 370:../../libdaisy/src/hid/disp/display.h ****         }
 371:../../libdaisy/src/hid/disp/display.h **** 
 372:../../libdaisy/src/hid/disp/display.h ****         // Use the font to write
 373:../../libdaisy/src/hid/disp/display.h ****         for(i = 0; i < font.FontHeight; i++)
 868              		.loc 10 373 22 is_stmt 1 view .LVU176
 869 005e 002E     		cmp	r6, #0
 870 0060 00F08980 		beq	.L37
 374:../../libdaisy/src/hid/disp/display.h ****         {
 375:../../libdaisy/src/hid/disp/display.h ****             b = font.data[(ch - 32) * font.FontHeight + i];
 871              		.loc 10 375 37 is_stmt 0 view .LVU177
 872 0064 06FB05F5 		mul	r5, r6, r5
 873 0068 6FF00040 		mvn	r0, #-2147483648
 874              		.loc 10 375 22 view .LVU178
 875 006c 039B     		ldr	r3, [sp, #12]
 876 006e 9646     		mov	lr, r2
 877 0070 2844     		add	r0, r0, r5
 878 0072 2E44     		add	r6, r6, r5
 376:../../libdaisy/src/hid/disp/display.h ****             for(j = 0; j < font.FontWidth; j++)
 377:../../libdaisy/src/hid/disp/display.h ****             {
 378:../../libdaisy/src/hid/disp/display.h ****                 if((b << j) & 0x8000)
 379:../../libdaisy/src/hid/disp/display.h ****                 {
 380:../../libdaisy/src/hid/disp/display.h ****                     ((ChildType*)(this))
 381:../../libdaisy/src/hid/disp/display.h ****                         ->ChildType::DrawPixel(
 382:../../libdaisy/src/hid/disp/display.h ****                             currentX_ + j, (currentY_ + i), on);
 383:../../libdaisy/src/hid/disp/display.h ****                 }
 384:../../libdaisy/src/hid/disp/display.h ****                 else
 385:../../libdaisy/src/hid/disp/display.h ****                 {
 386:../../libdaisy/src/hid/disp/display.h ****                     ((ChildType*)(this))
 387:../../libdaisy/src/hid/disp/display.h ****                         ->ChildType::DrawPixel(
 388:../../libdaisy/src/hid/disp/display.h ****                             currentX_ + j, (currentY_ + i), !on);
 389:../../libdaisy/src/hid/disp/display.h ****                 }
 390:../../libdaisy/src/hid/disp/display.h ****             }
 391:../../libdaisy/src/hid/disp/display.h ****         }
 392:../../libdaisy/src/hid/disp/display.h **** 
 393:../../libdaisy/src/hid/disp/display.h ****         // The current space is now taken
 394:../../libdaisy/src/hid/disp/display.h ****         SetCursor(currentX_ + font.FontWidth, currentY_);
 879              		.loc 10 394 19 view .LVU179
 880 0074 B8F804A0 		ldrh	r10, [r8, #4]
 881 0078 03EB4000 		add	r0, r3, r0, lsl #1
 882 007c 023B     		subs	r3, r3, #2
 883 007e 03EB460B 		add	fp, r3, r6, lsl #1
 884              	.LVL55:
 885              	.L40:
 375:../../libdaisy/src/hid/disp/display.h ****             for(j = 0; j < font.FontWidth; j++)
ARM GAS  C:\Users\VINCIU~1\AppData\Local\Temp\cc6Tz7la.s 			page 41


 886              		.loc 10 375 15 view .LVU180
 887 0082 30F8026F 		ldrh	r6, [r0, #2]!
 888              	.LVL56:
 376:../../libdaisy/src/hid/disp/display.h ****             for(j = 0; j < font.FontWidth; j++)
 889              		.loc 10 376 26 is_stmt 1 view .LVU181
 890 0086 BCB3     		cbz	r4, .L45
 891              	.LBB423:
 892              	.LBB424:
 893              	.LBB425:
 894              	.LBB426:
 895              	.LBB427:
 246:../../libdaisy/src/dev/oled_ssd130x.h ****     }
 896              		.loc 15 246 55 is_stmt 0 view .LVU182
 897 0088 0EF00703 		and	r3, lr, #7
 246:../../libdaisy/src/dev/oled_ssd130x.h ****     }
 898              		.loc 15 246 49 view .LVU183
 899 008c 4FF0010C 		mov	ip, #1
 246:../../libdaisy/src/dev/oled_ssd130x.h ****     }
 900              		.loc 15 246 28 view .LVU184
 901 0090 4FEADE02 		lsr	r2, lr, #3
 902 0094 5146     		mov	r1, r10
 246:../../libdaisy/src/dev/oled_ssd130x.h ****     }
 903              		.loc 15 246 49 view .LVU185
 904 0096 0CFA03FC 		lsl	ip, ip, r3
 905 009a 0AF11403 		add	r3, r10, #20
 246:../../libdaisy/src/dev/oled_ssd130x.h ****     }
 906              		.loc 15 246 42 view .LVU186
 907 009e 4FFA8CFC 		sxtb	ip, ip
 908 00a2 03EBC212 		add	r2, r3, r2, lsl #7
 909              	.LBE427:
 910              	.LBE426:
 911              	.LBE425:
 912              	.LBE424:
 913              	.LBE423:
 376:../../libdaisy/src/hid/disp/display.h ****             for(j = 0; j < font.FontWidth; j++)
 914              		.loc 10 376 19 view .LVU187
 915 00a6 0023     		movs	r3, #0
 916              	.LBB445:
 917              	.LBB440:
 918              	.LBB435:
 919              	.LBB431:
 920              	.LBB428:
 246:../../libdaisy/src/dev/oled_ssd130x.h ****     }
 921              		.loc 15 246 42 view .LVU188
 922 00a8 6FEA0C09 		mvn	r9, ip
 923 00ac 4244     		add	r2, r2, r8
 924 00ae 0EE0     		b	.L46
 925              	.LVL57:
 926              	.L64:
 246:../../libdaisy/src/dev/oled_ssd130x.h ****     }
 927              		.loc 15 246 42 view .LVU189
 928              	.LBE428:
 929              	.LBE431:
 930              	.LBE435:
 931              	.LBE440:
 932              	.LBE445:
 933              	.LBB446:
ARM GAS  C:\Users\VINCIU~1\AppData\Local\Temp\cc6Tz7la.s 			page 42


 934              	.LBI446:
  41:../../libdaisy/src/hid/disp/oled_display.h ****     {
 935              		.loc 8 41 10 is_stmt 1 view .LVU190
 936              	.LBB447:
 937              	.LBI447:
 239:../../libdaisy/src/dev/oled_ssd130x.h ****     {
 938              		.loc 15 239 10 view .LVU191
 939              	.LBB448:
 241:../../libdaisy/src/dev/oled_ssd130x.h ****             return;
 940              		.loc 15 241 9 is_stmt 0 view .LVU192
 941 00b0 7F29     		cmp	r1, #127
 942 00b2 07D8     		bhi	.L42
 943 00b4 BEF13F0F 		cmp	lr, #63
 944 00b8 04D8     		bhi	.L42
 244:../../libdaisy/src/dev/oled_ssd130x.h ****         else
 945              		.loc 15 244 42 view .LVU193
 946 00ba 1578     		ldrb	r5, [r2]	@ zero_extendqisi2
 243:../../libdaisy/src/dev/oled_ssd130x.h ****             buffer_[x + (y / 8) * width] |= (1 << (y % 8));
 947              		.loc 15 243 9 view .LVU194
 948 00bc 9FB1     		cbz	r7, .L44
 949              	.L61:
 243:../../libdaisy/src/dev/oled_ssd130x.h ****             buffer_[x + (y / 8) * width] |= (1 << (y % 8));
 950              		.loc 15 243 9 view .LVU195
 951              	.LBE448:
 952              	.LBE447:
 953              	.LBE446:
 954              	.LBB449:
 955              	.LBB441:
 956              	.LBB436:
 244:../../libdaisy/src/dev/oled_ssd130x.h ****         else
 957              		.loc 15 244 42 view .LVU196
 958 00be 4CEA0505 		orr	r5, ip, r5
 959 00c2 1570     		strb	r5, [r2]
 960              	.L42:
 961              	.LBE436:
 962              	.LBE441:
 963              	.LBE449:
 376:../../libdaisy/src/hid/disp/display.h ****             {
 964              		.loc 10 376 13 is_stmt 1 discriminator 2 view .LVU197
 965 00c4 0133     		adds	r3, r3, #1
 966              	.LVL58:
 376:../../libdaisy/src/hid/disp/display.h ****             {
 967              		.loc 10 376 26 discriminator 2 view .LVU198
 968 00c6 0132     		adds	r2, r2, #1
 969 00c8 0131     		adds	r1, r1, #1
 970 00ca 9C42     		cmp	r4, r3
 971 00cc 14D0     		beq	.L45
 972              	.LVL59:
 973              	.L46:
 378:../../libdaisy/src/hid/disp/display.h ****                 {
 974              		.loc 10 378 23 is_stmt 0 view .LVU199
 975 00ce 06FA03F5 		lsl	r5, r6, r3
 378:../../libdaisy/src/hid/disp/display.h ****                 {
 976              		.loc 10 378 17 view .LVU200
 977 00d2 2D04     		lsls	r5, r5, #16
 978 00d4 ECD4     		bmi	.L64
 979              	.LVL60:
ARM GAS  C:\Users\VINCIU~1\AppData\Local\Temp\cc6Tz7la.s 			page 43


 980              	.LBB450:
 981              	.LBI423:
  41:../../libdaisy/src/hid/disp/oled_display.h ****     {
 982              		.loc 8 41 10 is_stmt 1 view .LVU201
 983              	.LBB442:
 984              	.LBI424:
 239:../../libdaisy/src/dev/oled_ssd130x.h ****     {
 985              		.loc 15 239 10 view .LVU202
 986              	.LBB437:
 241:../../libdaisy/src/dev/oled_ssd130x.h ****             return;
 987              		.loc 15 241 9 is_stmt 0 view .LVU203
 988 00d6 7F29     		cmp	r1, #127
 989 00d8 F4D8     		bhi	.L42
 990 00da BEF13F0F 		cmp	lr, #63
 991 00de F1D8     		bhi	.L42
 244:../../libdaisy/src/dev/oled_ssd130x.h ****         else
 992              		.loc 15 244 42 view .LVU204
 993 00e0 1578     		ldrb	r5, [r2]	@ zero_extendqisi2
 243:../../libdaisy/src/dev/oled_ssd130x.h ****             buffer_[x + (y / 8) * width] |= (1 << (y % 8));
 994              		.loc 15 243 9 view .LVU205
 995 00e2 002F     		cmp	r7, #0
 996 00e4 EBD0     		beq	.L61
 997              	.L44:
 998              	.LVL61:
 999              	.LBB432:
 1000              	.LBI426:
 239:../../libdaisy/src/dev/oled_ssd130x.h ****     {
 1001              		.loc 15 239 10 is_stmt 1 view .LVU206
 239:../../libdaisy/src/dev/oled_ssd130x.h ****     {
 1002              		.loc 15 239 10 is_stmt 0 view .LVU207
 1003              	.LBE432:
 1004              	.LBE437:
 1005              	.LBE442:
 1006              	.LBE450:
 376:../../libdaisy/src/hid/disp/display.h ****             {
 1007              		.loc 10 376 13 view .LVU208
 1008 00e6 0133     		adds	r3, r3, #1
 1009              	.LVL62:
 1010              	.LBB451:
 1011              	.LBB443:
 1012              	.LBB438:
 1013              	.LBB433:
 1014              	.LBB429:
 246:../../libdaisy/src/dev/oled_ssd130x.h ****     }
 1015              		.loc 15 246 42 view .LVU209
 1016 00e8 09EA0505 		and	r5, r9, r5
 1017              	.LBE429:
 1018              	.LBE433:
 1019              	.LBE438:
 1020              	.LBE443:
 1021              	.LBE451:
 376:../../libdaisy/src/hid/disp/display.h ****             {
 1022              		.loc 10 376 26 view .LVU210
 1023 00ec 0132     		adds	r2, r2, #1
 1024 00ee 0131     		adds	r1, r1, #1
 1025 00f0 9C42     		cmp	r4, r3
 1026              	.LBB452:
ARM GAS  C:\Users\VINCIU~1\AppData\Local\Temp\cc6Tz7la.s 			page 44


 1027              	.LBB444:
 1028              	.LBB439:
 1029              	.LBB434:
 1030              	.LBB430:
 246:../../libdaisy/src/dev/oled_ssd130x.h ****     }
 1031              		.loc 15 246 42 view .LVU211
 1032 00f2 02F8015C 		strb	r5, [r2, #-1]
 246:../../libdaisy/src/dev/oled_ssd130x.h ****     }
 1033              		.loc 15 246 42 view .LVU212
 1034              	.LBE430:
 1035              	.LBE434:
 1036              	.LBE439:
 1037              	.LBE444:
 1038              	.LBE452:
 376:../../libdaisy/src/hid/disp/display.h ****             {
 1039              		.loc 10 376 13 is_stmt 1 view .LVU213
 1040              	.LVL63:
 376:../../libdaisy/src/hid/disp/display.h ****             {
 1041              		.loc 10 376 26 view .LVU214
 1042 00f6 EAD1     		bne	.L46
 1043              	.LVL64:
 1044              	.L45:
 373:../../libdaisy/src/hid/disp/display.h ****         {
 1045              		.loc 10 373 9 view .LVU215
 373:../../libdaisy/src/hid/disp/display.h ****         {
 1046              		.loc 10 373 22 view .LVU216
 1047 00f8 5845     		cmp	r0, fp
 1048 00fa 0EF1010E 		add	lr, lr, #1
 1049 00fe C0D1     		bne	.L40
 1050              	.LVL65:
 1051              	.L39:
 1052              	.LBB453:
 1053              	.LBB454:
 133:../../libdaisy/src/hid/disp/display.h ****         currentY_ = (y >= Height()) ? Height() - 1 : y;
 1054              		.loc 10 133 33 is_stmt 0 view .LVU217
 1055 0100 D8F80030 		ldr	r3, [r8]
 1056              	.LBE454:
 1057              	.LBE453:
 1058              		.loc 10 394 18 view .LVU218
 1059 0104 5444     		add	r4, r4, r10
 1060 0106 2449     		ldr	r1, .L70
 1061              	.LBB460:
 1062              	.LBB455:
 133:../../libdaisy/src/hid/disp/display.h ****         currentY_ = (y >= Height()) ? Height() - 1 : y;
 1063              		.loc 10 133 33 view .LVU219
 1064 0108 DA68     		ldr	r2, [r3, #12]
 1065              	.LBE455:
 1066              	.LBE460:
 1067              		.loc 10 394 18 view .LVU220
 1068 010a A4B2     		uxth	r4, r4
 1069              	.LVL66:
 1070              	.LBB461:
 1071              	.LBI453:
 131:../../libdaisy/src/hid/disp/display.h ****     {
 1072              		.loc 10 131 10 is_stmt 1 view .LVU221
 1073              	.LBB456:
 133:../../libdaisy/src/hid/disp/display.h ****         currentY_ = (y >= Height()) ? Height() - 1 : y;
ARM GAS  C:\Users\VINCIU~1\AppData\Local\Temp\cc6Tz7la.s 			page 45


 1074              		.loc 10 133 9 view .LVU222
 1075 010c 8A42     		cmp	r2, r1
 1076 010e 2DD1     		bne	.L65
 133:../../libdaisy/src/hid/disp/display.h ****         currentY_ = (y >= Height()) ? Height() - 1 : y;
 1077              		.loc 10 133 33 is_stmt 0 view .LVU223
 1078 0110 8020     		movs	r0, #128
 1079              	.L47:
 133:../../libdaisy/src/hid/disp/display.h ****         currentY_ = (y >= Height()) ? Height() - 1 : y;
 1080              		.loc 10 133 19 view .LVU224
 1081 0112 8442     		cmp	r4, r0
 1082 0114 1CD2     		bcs	.L66
 1083              	.LVL67:
 1084              	.L48:
 134:../../libdaisy/src/hid/disp/display.h ****     }
 1085              		.loc 10 134 34 view .LVU225
 1086 0116 9B68     		ldr	r3, [r3, #8]
 1087 0118 204A     		ldr	r2, .L70+4
 133:../../libdaisy/src/hid/disp/display.h ****         currentY_ = (y >= Height()) ? Height() - 1 : y;
 1088              		.loc 10 133 19 view .LVU226
 1089 011a A8F80440 		strh	r4, [r8, #4]	@ movhi
 134:../../libdaisy/src/hid/disp/display.h ****     }
 1090              		.loc 10 134 9 is_stmt 1 view .LVU227
 1091 011e 9342     		cmp	r3, r2
 1092 0120 21D1     		bne	.L67
 134:../../libdaisy/src/hid/disp/display.h ****     }
 1093              		.loc 10 134 34 is_stmt 0 view .LVU228
 1094 0122 4020     		movs	r0, #64
 1095              	.L50:
 134:../../libdaisy/src/hid/disp/display.h ****     }
 1096              		.loc 10 134 19 view .LVU229
 1097 0124 019B     		ldr	r3, [sp, #4]
 1098 0126 8342     		cmp	r3, r0
 1099 0128 07D3     		bcc	.L51
 134:../../libdaisy/src/hid/disp/display.h ****     }
 1100              		.loc 10 134 46 view .LVU230
 1101 012a D8F80030 		ldr	r3, [r8]
 1102 012e 1B4A     		ldr	r2, .L70+4
 1103 0130 9B68     		ldr	r3, [r3, #8]
 1104 0132 9342     		cmp	r3, r2
 1105 0134 29D1     		bne	.L68
 1106 0136 3F23     		movs	r3, #63
 1107 0138 0193     		str	r3, [sp, #4]
 1108              	.LVL68:
 1109              	.L51:
 134:../../libdaisy/src/hid/disp/display.h ****     }
 1110              		.loc 10 134 19 view .LVU231
 1111 013a DDE90003 		ldrd	r0, r3, [sp]
 1112 013e A8F80630 		strh	r3, [r8, #6]	@ movhi
 1113              	.LVL69:
 134:../../libdaisy/src/hid/disp/display.h ****     }
 1114              		.loc 10 134 19 view .LVU232
 1115              	.LBE456:
 1116              	.LBE461:
 395:../../libdaisy/src/hid/disp/display.h **** 
 396:../../libdaisy/src/hid/disp/display.h ****         // Return written char for validation
 397:../../libdaisy/src/hid/disp/display.h ****         return ch;
 398:../../libdaisy/src/hid/disp/display.h ****     }
ARM GAS  C:\Users\VINCIU~1\AppData\Local\Temp\cc6Tz7la.s 			page 46


 1117              		.loc 10 398 5 view .LVU233
 1118 0142 05B0     		add	sp, sp, #20
 1119              		.cfi_remember_state
 1120              		.cfi_def_cfa_offset 36
 1121              		@ sp needed
 1122 0144 BDE8F08F 		pop	{r4, r5, r6, r7, r8, r9, r10, fp, pc}
 1123              	.LVL70:
 1124              	.L35:
 1125              		.cfi_restore_state
 362:../../libdaisy/src/hid/disp/display.h **** 
 1126              		.loc 10 362 20 view .LVU234
 1127 0148 0020     		movs	r0, #0
 1128              		.loc 10 398 5 view .LVU235
 1129 014a 05B0     		add	sp, sp, #20
 1130              		.cfi_remember_state
 1131              		.cfi_def_cfa_offset 36
 1132              		@ sp needed
 1133 014c BDE8F08F 		pop	{r4, r5, r6, r7, r8, r9, r10, fp, pc}
 1134              	.LVL71:
 1135              	.L66:
 1136              		.cfi_restore_state
 1137              	.LBB462:
 1138              	.LBB457:
 133:../../libdaisy/src/hid/disp/display.h ****         currentY_ = (y >= Height()) ? Height() - 1 : y;
 1139              		.loc 10 133 44 view .LVU236
 1140 0150 DA68     		ldr	r2, [r3, #12]
 1141 0152 1149     		ldr	r1, .L70
 1142 0154 8A42     		cmp	r2, r1
 1143 0156 11D1     		bne	.L69
 1144 0158 7F24     		movs	r4, #127
 1145              	.LVL72:
 133:../../libdaisy/src/hid/disp/display.h ****         currentY_ = (y >= Height()) ? Height() - 1 : y;
 1146              		.loc 10 133 44 view .LVU237
 1147 015a DCE7     		b	.L48
 1148              	.LVL73:
 1149              	.L62:
 133:../../libdaisy/src/hid/disp/display.h ****         currentY_ = (y >= Height()) ? Height() - 1 : y;
 1150              		.loc 10 133 44 view .LVU238
 1151              	.LBE457:
 1152              	.LBE462:
 365:../../libdaisy/src/hid/disp/display.h ****            || Height() < (currentY_ + font.FontHeight))
 1153              		.loc 10 365 17 view .LVU239
 1154 015c 9847     		blx	r3
 1155              	.LVL74:
 365:../../libdaisy/src/hid/disp/display.h ****            || Height() < (currentY_ + font.FontHeight))
 1156              		.loc 10 365 17 view .LVU240
 1157 015e 6AE7     		b	.L34
 1158              	.L63:
 366:../../libdaisy/src/hid/disp/display.h ****         {
 1159              		.loc 10 366 21 discriminator 2 view .LVU241
 1160 0160 4046     		mov	r0, r8
 1161 0162 9847     		blx	r3
 1162              	.LVL75:
 1163 0164 75E7     		b	.L36
 1164              	.LVL76:
 1165              	.L67:
 1166              	.LBB463:
ARM GAS  C:\Users\VINCIU~1\AppData\Local\Temp\cc6Tz7la.s 			page 47


 1167              	.LBB458:
 134:../../libdaisy/src/hid/disp/display.h ****     }
 1168              		.loc 10 134 33 view .LVU242
 1169 0166 4046     		mov	r0, r8
 1170 0168 9847     		blx	r3
 1171              	.LVL77:
 1172 016a DBE7     		b	.L50
 1173              	.LVL78:
 1174              	.L65:
 133:../../libdaisy/src/hid/disp/display.h ****         currentY_ = (y >= Height()) ? Height() - 1 : y;
 1175              		.loc 10 133 32 view .LVU243
 1176 016c 4046     		mov	r0, r8
 1177 016e 9047     		blx	r2
 1178              	.LVL79:
 133:../../libdaisy/src/hid/disp/display.h ****         currentY_ = (y >= Height()) ? Height() - 1 : y;
 1179              		.loc 10 133 44 view .LVU244
 1180 0170 D8F80030 		ldr	r3, [r8]
 1181 0174 CDE7     		b	.L47
 1182              	.LVL80:
 1183              	.L37:
 133:../../libdaisy/src/hid/disp/display.h ****         currentY_ = (y >= Height()) ? Height() - 1 : y;
 1184              		.loc 10 133 44 view .LVU245
 1185              	.LBE458:
 1186              	.LBE463:
 394:../../libdaisy/src/hid/disp/display.h **** 
 1187              		.loc 10 394 19 view .LVU246
 1188 0176 B8F804A0 		ldrh	r10, [r8, #4]
 1189 017a C1E7     		b	.L39
 1190              	.LVL81:
 1191              	.L69:
 1192              	.LBB464:
 1193              	.LBB459:
 133:../../libdaisy/src/hid/disp/display.h ****         currentY_ = (y >= Height()) ? Height() - 1 : y;
 1194              		.loc 10 133 43 view .LVU247
 1195 017c 4046     		mov	r0, r8
 1196 017e 9047     		blx	r2
 1197              	.LVL82:
 133:../../libdaisy/src/hid/disp/display.h ****         currentY_ = (y >= Height()) ? Height() - 1 : y;
 1198              		.loc 10 133 19 view .LVU248
 1199 0180 0138     		subs	r0, r0, #1
 134:../../libdaisy/src/hid/disp/display.h ****     }
 1200              		.loc 10 134 34 view .LVU249
 1201 0182 D8F80030 		ldr	r3, [r8]
 133:../../libdaisy/src/hid/disp/display.h ****         currentY_ = (y >= Height()) ? Height() - 1 : y;
 1202              		.loc 10 133 19 view .LVU250
 1203 0186 84B2     		uxth	r4, r0
 1204              	.LVL83:
 133:../../libdaisy/src/hid/disp/display.h ****         currentY_ = (y >= Height()) ? Height() - 1 : y;
 1205              		.loc 10 133 19 view .LVU251
 1206 0188 C5E7     		b	.L48
 1207              	.L68:
 134:../../libdaisy/src/hid/disp/display.h ****     }
 1208              		.loc 10 134 45 view .LVU252
 1209 018a 4046     		mov	r0, r8
 1210 018c 9847     		blx	r3
 1211              	.LVL84:
 134:../../libdaisy/src/hid/disp/display.h ****     }
ARM GAS  C:\Users\VINCIU~1\AppData\Local\Temp\cc6Tz7la.s 			page 48


 1212              		.loc 10 134 19 view .LVU253
 1213 018e 0138     		subs	r0, r0, #1
 1214 0190 83B2     		uxth	r3, r0
 1215 0192 0193     		str	r3, [sp, #4]
 1216              	.LVL85:
 134:../../libdaisy/src/hid/disp/display.h ****     }
 1217              		.loc 10 134 19 view .LVU254
 1218 0194 D1E7     		b	.L51
 1219              	.L71:
 1220 0196 00BF     		.align	2
 1221              	.L70:
 1222 0198 00000000 		.word	_ZNK5daisy11OledDisplayINS_13SSD130xDriverILj128ELj64ENS_24SSD130x4WireSpiTransportEEEE5Widt
 1223 019c 00000000 		.word	_ZNK5daisy11OledDisplayINS_13SSD130xDriverILj128ELj64ENS_24SSD130x4WireSpiTransportEEEE6Heig
 1224              	.LBE459:
 1225              	.LBE464:
 1226              		.cfi_endproc
 1227              	.LFE4640:
 1229              		.section	.text._ZN5daisy25OneBitGraphicsDisplayImplINS_11OledDisplayINS_13SSD130xDriverILj128ELj64
 1230              		.align	1
 1231              		.p2align 2,,3
 1232              		.weak	_ZN5daisy25OneBitGraphicsDisplayImplINS_11OledDisplayINS_13SSD130xDriverILj128ELj64ENS_24SSD
 1233              		.syntax unified
 1234              		.thumb
 1235              		.thumb_func
 1236              		.fpu fpv5-d16
 1238              	_ZN5daisy25OneBitGraphicsDisplayImplINS_11OledDisplayINS_13SSD130xDriverILj128ELj64ENS_24SSD130x4Wi
 1239              	.LVL86:
 1240              	.LFB4641:
 399:../../libdaisy/src/hid/disp/display.h **** 
 400:../../libdaisy/src/hid/disp/display.h ****     char WriteString(const char* str, FontDef font, bool on) override
 1241              		.loc 10 400 10 is_stmt 1 view -0
 1242              		.cfi_startproc
 1243              		@ args = 4, pretend = 0, frame = 8
 1244              		@ frame_needed = 0, uses_anonymous_args = 0
 1245              		.loc 10 400 10 is_stmt 0 view .LVU256
 1246 0000 F0B5     		push	{r4, r5, r6, r7, lr}
 1247              		.cfi_def_cfa_offset 20
 1248              		.cfi_offset 4, -20
 1249              		.cfi_offset 5, -16
 1250              		.cfi_offset 6, -12
 1251              		.cfi_offset 7, -8
 1252              		.cfi_offset 14, -4
 1253 0002 85B0     		sub	sp, sp, #20
 1254              		.cfi_def_cfa_offset 40
 1255              		.loc 10 400 10 view .LVU257
 1256 0004 0C46     		mov	r4, r1
 401:../../libdaisy/src/hid/disp/display.h ****     {
 402:../../libdaisy/src/hid/disp/display.h ****         // Write until null-byte
 403:../../libdaisy/src/hid/disp/display.h ****         while(*str)
 1257              		.loc 10 403 9 is_stmt 1 view .LVU258
 1258 0006 0978     		ldrb	r1, [r1]	@ zero_extendqisi2
 1259              	.LVL87:
 400:../../libdaisy/src/hid/disp/display.h ****     {
 1260              		.loc 10 400 10 is_stmt 0 view .LVU259
 1261 0008 02AD     		add	r5, sp, #8
 1262 000a 9DF82870 		ldrb	r7, [sp, #40]	@ zero_extendqisi2
 1263 000e 85E80C00 		stm	r5, {r2, r3}
ARM GAS  C:\Users\VINCIU~1\AppData\Local\Temp\cc6Tz7la.s 			page 49


 1264              		.loc 10 403 9 view .LVU260
 1265 0012 81B1     		cbz	r1, .L75
 1266 0014 0646     		mov	r6, r0
 1267 0016 02E0     		b	.L76
 1268              	.LVL88:
 1269              	.L82:
 1270              		.loc 10 403 9 view .LVU261
 1271 0018 14F8011F 		ldrb	r1, [r4, #1]!	@ zero_extendqisi2
 1272              	.LVL89:
 1273              		.loc 10 403 9 view .LVU262
 1274 001c 59B1     		cbz	r1, .L75
 1275              	.LVL90:
 1276              	.L76:
 404:../../libdaisy/src/hid/disp/display.h ****         {
 405:../../libdaisy/src/hid/disp/display.h ****             if(((ChildType*)(this))->ChildType::WriteChar(*str, font, on)
 1277              		.loc 10 405 58 view .LVU263
 1278 001e 3046     		mov	r0, r6
 1279 0020 95E80C00 		ldm	r5, {r2, r3}
 1280 0024 0097     		str	r7, [sp]
 1281 0026 FFF7FEFF 		bl	_ZN5daisy25OneBitGraphicsDisplayImplINS_11OledDisplayINS_13SSD130xDriverILj128ELj64ENS_24SSD130
 1282              	.LVL91:
 403:../../libdaisy/src/hid/disp/display.h ****         {
 1283              		.loc 10 403 9 is_stmt 1 view .LVU264
 406:../../libdaisy/src/hid/disp/display.h ****                != *str)
 1284              		.loc 10 406 16 is_stmt 0 view .LVU265
 1285 002a 2378     		ldrb	r3, [r4]	@ zero_extendqisi2
 405:../../libdaisy/src/hid/disp/display.h ****                != *str)
 1286              		.loc 10 405 13 view .LVU266
 1287 002c 9842     		cmp	r0, r3
 1288 002e F3D0     		beq	.L82
 407:../../libdaisy/src/hid/disp/display.h ****             {
 408:../../libdaisy/src/hid/disp/display.h ****                 // Char could not be written
 409:../../libdaisy/src/hid/disp/display.h ****                 return *str;
 410:../../libdaisy/src/hid/disp/display.h ****             }
 411:../../libdaisy/src/hid/disp/display.h **** 
 412:../../libdaisy/src/hid/disp/display.h ****             // Next char
 413:../../libdaisy/src/hid/disp/display.h ****             str++;
 414:../../libdaisy/src/hid/disp/display.h ****         }
 415:../../libdaisy/src/hid/disp/display.h **** 
 416:../../libdaisy/src/hid/disp/display.h ****         // Everything ok
 417:../../libdaisy/src/hid/disp/display.h ****         return *str;
 418:../../libdaisy/src/hid/disp/display.h ****     }
 1289              		.loc 10 418 5 view .LVU267
 1290 0030 1846     		mov	r0, r3
 1291 0032 05B0     		add	sp, sp, #20
 1292              		.cfi_remember_state
 1293              		.cfi_def_cfa_offset 20
 1294              		@ sp needed
 1295 0034 F0BD     		pop	{r4, r5, r6, r7, pc}
 1296              	.LVL92:
 1297              	.L75:
 1298              		.cfi_restore_state
 400:../../libdaisy/src/hid/disp/display.h ****     {
 1299              		.loc 10 400 10 view .LVU268
 1300 0036 0023     		movs	r3, #0
 1301              		.loc 10 418 5 view .LVU269
 1302 0038 1846     		mov	r0, r3
ARM GAS  C:\Users\VINCIU~1\AppData\Local\Temp\cc6Tz7la.s 			page 50


 1303 003a 05B0     		add	sp, sp, #20
 1304              		.cfi_def_cfa_offset 20
 1305              		@ sp needed
 1306 003c F0BD     		pop	{r4, r5, r6, r7, pc}
 1307              		.loc 10 418 5 view .LVU270
 1308              		.cfi_endproc
 1309              	.LFE4641:
 1311 003e 00BF     		.section	.text._ZN5daisy11OledDisplayINS_13SSD130xDriverILj128ELj64ENS_24SSD130x4WireSpiTransportE
 1312              		.align	1
 1313              		.p2align 2,,3
 1314              		.weak	_ZN5daisy11OledDisplayINS_13SSD130xDriverILj128ELj64ENS_24SSD130x4WireSpiTransportEEEE9DrawP
 1315              		.syntax unified
 1316              		.thumb
 1317              		.thumb_func
 1318              		.fpu fpv5-d16
 1320              	_ZN5daisy11OledDisplayINS_13SSD130xDriverILj128ELj64ENS_24SSD130x4WireSpiTransportEEEE9DrawPixelEjj
 1321              	.LVL93:
 1322              	.LFB4636:
  41:../../libdaisy/src/hid/disp/oled_display.h ****     {
 1323              		.loc 8 41 10 is_stmt 1 view -0
 1324              		.cfi_startproc
 1325              		@ args = 0, pretend = 0, frame = 0
 1326              		@ frame_needed = 0, uses_anonymous_args = 0
 1327              		@ link register save eliminated.
 1328              	.LBB469:
 1329              	.LBI469:
 239:../../libdaisy/src/dev/oled_ssd130x.h ****     {
 1330              		.loc 15 239 10 view .LVU272
 1331              	.LBB470:
 241:../../libdaisy/src/dev/oled_ssd130x.h ****             return;
 1332              		.loc 15 241 9 is_stmt 0 view .LVU273
 1333 0000 7F29     		cmp	r1, #127
 1334 0002 1ED8     		bhi	.L83
 1335 0004 3F2A     		cmp	r2, #63
 1336 0006 1CD8     		bhi	.L83
 243:../../libdaisy/src/dev/oled_ssd130x.h ****             buffer_[x + (y / 8) * width] |= (1 << (y % 8));
 1337              		.loc 15 243 9 view .LVU274
 1338 0008 6BB1     		cbz	r3, .L85
 244:../../libdaisy/src/dev/oled_ssd130x.h ****         else
 1339              		.loc 15 244 28 view .LVU275
 1340 000a D308     		lsrs	r3, r2, #3
 1341              	.LVL94:
 244:../../libdaisy/src/dev/oled_ssd130x.h ****         else
 1342              		.loc 15 244 48 view .LVU276
 1343 000c 4FF0010C 		mov	ip, #1
 244:../../libdaisy/src/dev/oled_ssd130x.h ****         else
 1344              		.loc 15 244 54 view .LVU277
 1345 0010 02F00702 		and	r2, r2, #7
 1346              	.LVL95:
 244:../../libdaisy/src/dev/oled_ssd130x.h ****         else
 1347              		.loc 15 244 42 view .LVU278
 1348 0014 01EBC313 		add	r3, r1, r3, lsl #7
 244:../../libdaisy/src/dev/oled_ssd130x.h ****         else
 1349              		.loc 15 244 48 view .LVU279
 1350 0018 0CFA02F2 		lsl	r2, ip, r2
 244:../../libdaisy/src/dev/oled_ssd130x.h ****         else
 1351              		.loc 15 244 42 view .LVU280
ARM GAS  C:\Users\VINCIU~1\AppData\Local\Temp\cc6Tz7la.s 			page 51


 1352 001c C118     		adds	r1, r0, r3
 1353              	.LVL96:
 244:../../libdaisy/src/dev/oled_ssd130x.h ****         else
 1354              		.loc 15 244 42 view .LVU281
 1355 001e 0B7D     		ldrb	r3, [r1, #20]	@ zero_extendqisi2
 1356 0020 1A43     		orrs	r2, r2, r3
 1357 0022 0A75     		strb	r2, [r1, #20]
 1358 0024 7047     		bx	lr
 1359              	.LVL97:
 1360              	.L85:
 1361              	.LBB471:
 1362              	.LBI471:
 239:../../libdaisy/src/dev/oled_ssd130x.h ****     {
 1363              		.loc 15 239 10 is_stmt 1 view .LVU282
 1364              	.LBB472:
 246:../../libdaisy/src/dev/oled_ssd130x.h ****     }
 1365              		.loc 15 246 28 is_stmt 0 view .LVU283
 1366 0026 D308     		lsrs	r3, r2, #3
 1367              	.LVL98:
 246:../../libdaisy/src/dev/oled_ssd130x.h ****     }
 1368              		.loc 15 246 49 view .LVU284
 1369 0028 4FF0010C 		mov	ip, #1
 246:../../libdaisy/src/dev/oled_ssd130x.h ****     }
 1370              		.loc 15 246 55 view .LVU285
 1371 002c 02F00702 		and	r2, r2, #7
 1372              	.LVL99:
 246:../../libdaisy/src/dev/oled_ssd130x.h ****     }
 1373              		.loc 15 246 42 view .LVU286
 1374 0030 01EBC313 		add	r3, r1, r3, lsl #7
 246:../../libdaisy/src/dev/oled_ssd130x.h ****     }
 1375              		.loc 15 246 49 view .LVU287
 1376 0034 0CFA02FC 		lsl	ip, ip, r2
 246:../../libdaisy/src/dev/oled_ssd130x.h ****     }
 1377              		.loc 15 246 42 view .LVU288
 1378 0038 C118     		adds	r1, r0, r3
 1379              	.LVL100:
 246:../../libdaisy/src/dev/oled_ssd130x.h ****     }
 1380              		.loc 15 246 42 view .LVU289
 1381 003a 0A7D     		ldrb	r2, [r1, #20]	@ zero_extendqisi2
 1382 003c 22EA0C02 		bic	r2, r2, ip
 1383 0040 0A75     		strb	r2, [r1, #20]
 1384              	.LVL101:
 1385              	.L83:
 246:../../libdaisy/src/dev/oled_ssd130x.h ****     }
 1386              		.loc 15 246 42 view .LVU290
 1387              	.LBE472:
 1388              	.LBE471:
 1389              	.LBE470:
 1390              	.LBE469:
  44:../../libdaisy/src/hid/disp/oled_display.h **** 
 1391              		.loc 8 44 5 view .LVU291
 1392 0042 7047     		bx	lr
 1393              		.cfi_endproc
 1394              	.LFE4636:
 1396              		.section	.text._ZN5daisy25OneBitGraphicsDisplayImplINS_11OledDisplayINS_13SSD130xDriverILj128ELj64
 1397              		.align	1
 1398              		.p2align 2,,3
ARM GAS  C:\Users\VINCIU~1\AppData\Local\Temp\cc6Tz7la.s 			page 52


 1399              		.weak	_ZN5daisy25OneBitGraphicsDisplayImplINS_11OledDisplayINS_13SSD130xDriverILj128ELj64ENS_24SSD
 1400              		.syntax unified
 1401              		.thumb
 1402              		.thumb_func
 1403              		.fpu fpv5-d16
 1405              	_ZN5daisy25OneBitGraphicsDisplayImplINS_11OledDisplayINS_13SSD130xDriverILj128ELj64ENS_24SSD130x4Wi
 1406              	.LVL102:
 1407              	.LFB4637:
 181:../../libdaisy/src/hid/disp/display.h ****                   uint_fast8_t y1,
 1408              		.loc 10 181 10 is_stmt 1 view -0
 1409              		.cfi_startproc
 1410              		@ args = 8, pretend = 0, frame = 8
 1411              		@ frame_needed = 0, uses_anonymous_args = 0
 181:../../libdaisy/src/hid/disp/display.h ****                   uint_fast8_t y1,
 1412              		.loc 10 181 10 is_stmt 0 view .LVU293
 1413 0000 2DE9F04F 		push	{r4, r5, r6, r7, r8, r9, r10, fp, lr}
 1414              		.cfi_def_cfa_offset 36
 1415              		.cfi_offset 4, -36
 1416              		.cfi_offset 5, -32
 1417              		.cfi_offset 6, -28
 1418              		.cfi_offset 7, -24
 1419              		.cfi_offset 8, -20
 1420              		.cfi_offset 9, -16
 1421              		.cfi_offset 10, -12
 1422              		.cfi_offset 11, -8
 1423              		.cfi_offset 14, -4
 1424 0004 83B0     		sub	sp, sp, #12
 1425              		.cfi_def_cfa_offset 48
 187:../../libdaisy/src/hid/disp/display.h ****         int_fast16_t deltaY = abs((int_fast16_t)y2 - (int_fast16_t)y1);
 1426              		.loc 10 187 52 view .LVU294
 1427 0006 5C1A     		subs	r4, r3, r1
 181:../../libdaisy/src/hid/disp/display.h ****                   uint_fast8_t y1,
 1428              		.loc 10 181 10 view .LVU295
 1429 0008 0C9E     		ldr	r6, [sp, #48]
 187:../../libdaisy/src/hid/disp/display.h ****         int_fast16_t deltaY = abs((int_fast16_t)y2 - (int_fast16_t)y1);
 1430              		.loc 10 187 22 view .LVU296
 1431 000a 002C     		cmp	r4, #0
 181:../../libdaisy/src/hid/disp/display.h ****                   uint_fast8_t y1,
 1432              		.loc 10 181 10 view .LVU297
 1433 000c 9DF83490 		ldrb	r9, [sp, #52]	@ zero_extendqisi2
 188:../../libdaisy/src/hid/disp/display.h ****         int_fast16_t signX  = ((x1 < x2) ? 1 : -1);
 1434              		.loc 10 188 52 view .LVU298
 1435 0010 A6EB0208 		sub	r8, r6, r2
 187:../../libdaisy/src/hid/disp/display.h ****         int_fast16_t deltaY = abs((int_fast16_t)y2 - (int_fast16_t)y1);
 1436              		.loc 10 187 22 view .LVU299
 1437 0014 B8BF     		it	lt
 1438 0016 6442     		rsblt	r4, r4, #0
 1439              	.LVL103:
 188:../../libdaisy/src/hid/disp/display.h ****         int_fast16_t signX  = ((x1 < x2) ? 1 : -1);
 1440              		.loc 10 188 22 view .LVU300
 1441 0018 B8F1000F 		cmp	r8, #0
 1442 001c B8BF     		it	lt
 1443 001e C8F10008 		rsblt	r8, r8, #0
 1444              	.LVL104:
 189:../../libdaisy/src/hid/disp/display.h ****         int_fast16_t signY  = ((y1 < y2) ? 1 : -1);
 1445              		.loc 10 189 42 view .LVU301
 1446 0022 8B42     		cmp	r3, r1
ARM GAS  C:\Users\VINCIU~1\AppData\Local\Temp\cc6Tz7la.s 			page 53


 1447 0024 8CBF     		ite	hi
 1448 0026 4FF0010A 		movhi	r10, #1
 1449 002a 4FF0FF3A 		movls	r10, #-1
 1450              	.LVL105:
 190:../../libdaisy/src/hid/disp/display.h ****         int_fast16_t error  = deltaX - deltaY;
 1451              		.loc 10 190 42 view .LVU302
 1452 002e 9642     		cmp	r6, r2
 191:../../libdaisy/src/hid/disp/display.h ****         int_fast16_t error2;
 1453              		.loc 10 191 22 view .LVU303
 1454 0030 A4EB080C 		sub	ip, r4, r8
 190:../../libdaisy/src/hid/disp/display.h ****         int_fast16_t error  = deltaX - deltaY;
 1455              		.loc 10 190 42 view .LVU304
 1456 0034 51D8     		bhi	.L88
 1457              	.LVL106:
 1458              	.LBB489:
 1459              	.LBI489:
  41:../../libdaisy/src/hid/disp/oled_display.h ****     {
 1460              		.loc 8 41 10 is_stmt 1 discriminator 4 view .LVU305
 1461              	.LBB490:
 1462              	.LBI490:
 239:../../libdaisy/src/dev/oled_ssd130x.h ****     {
 1463              		.loc 15 239 10 discriminator 4 view .LVU306
 1464              	.LBE490:
 1465              	.LBE489:
 190:../../libdaisy/src/hid/disp/display.h ****         int_fast16_t error  = deltaX - deltaY;
 1466              		.loc 10 190 42 is_stmt 0 discriminator 4 view .LVU307
 1467 0036 4FF0FF35 		mov	r5, #-1
 1468              	.LBB506:
 1469              	.LBB500:
 1470              	.LBB491:
 241:../../libdaisy/src/dev/oled_ssd130x.h ****             return;
 1471              		.loc 15 241 9 discriminator 4 view .LVU308
 1472 003a 7F2B     		cmp	r3, #127
 1473              	.LBE491:
 1474              	.LBE500:
 1475              	.LBE506:
 190:../../libdaisy/src/hid/disp/display.h ****         int_fast16_t error  = deltaX - deltaY;
 1476              		.loc 10 190 42 discriminator 4 view .LVU309
 1477 003c 0195     		str	r5, [sp, #4]
 1478              	.LBB507:
 1479              	.LBB501:
 1480              	.LBB496:
 241:../../libdaisy/src/dev/oled_ssd130x.h ****             return;
 1481              		.loc 15 241 9 discriminator 4 view .LVU310
 1482 003e 12D8     		bhi	.L89
 1483 0040 3F2E     		cmp	r6, #63
 1484 0042 10D8     		bhi	.L89
 1485              	.LVL107:
 1486              	.L100:
 244:../../libdaisy/src/dev/oled_ssd130x.h ****         else
 1487              		.loc 15 244 28 view .LVU311
 1488 0044 F508     		lsrs	r5, r6, #3
 244:../../libdaisy/src/dev/oled_ssd130x.h ****         else
 1489              		.loc 15 244 54 view .LVU312
 1490 0046 06F0070E 		and	lr, r6, #7
 244:../../libdaisy/src/dev/oled_ssd130x.h ****         else
 1491              		.loc 15 244 48 view .LVU313
ARM GAS  C:\Users\VINCIU~1\AppData\Local\Temp\cc6Tz7la.s 			page 54


 1492 004a 0127     		movs	r7, #1
 244:../../libdaisy/src/dev/oled_ssd130x.h ****         else
 1493              		.loc 15 244 42 view .LVU314
 1494 004c 03EBC515 		add	r5, r3, r5, lsl #7
 1495 0050 0544     		add	r5, r5, r0
 243:../../libdaisy/src/dev/oled_ssd130x.h ****             buffer_[x + (y / 8) * width] |= (1 << (y % 8));
 1496              		.loc 15 243 9 view .LVU315
 1497 0052 B9F1000F 		cmp	r9, #0
 1498 0056 47D0     		beq	.L90
 244:../../libdaisy/src/dev/oled_ssd130x.h ****         else
 1499              		.loc 15 244 48 view .LVU316
 1500 0058 07FA0EF7 		lsl	r7, r7, lr
 244:../../libdaisy/src/dev/oled_ssd130x.h ****         else
 1501              		.loc 15 244 42 view .LVU317
 1502 005c 95F814E0 		ldrb	lr, [r5, #20]	@ zero_extendqisi2
 1503 0060 47EA0E07 		orr	r7, r7, lr
 1504 0064 2F75     		strb	r7, [r5, #20]
 1505              	.LVL108:
 1506              	.L89:
 244:../../libdaisy/src/dev/oled_ssd130x.h ****         else
 1507              		.loc 15 244 42 view .LVU318
 1508              	.LBE496:
 1509              	.LBE501:
 1510              	.LBE507:
 199:../../libdaisy/src/hid/disp/display.h ****         {
 1511              		.loc 10 199 26 is_stmt 1 view .LVU319
 1512 0066 9642     		cmp	r6, r2
 1513 0068 01D1     		bne	.L93
 1514              	.L112:
 199:../../libdaisy/src/hid/disp/display.h ****         {
 1515              		.loc 10 199 26 is_stmt 0 view .LVU320
 1516 006a 8B42     		cmp	r3, r1
 1517 006c 29D0     		beq	.L86
 1518              	.L93:
 1519              	.LVL109:
 203:../../libdaisy/src/hid/disp/display.h ****             {
 1520              		.loc 10 203 23 view .LVU321
 1521 006e C8F10007 		rsb	r7, r8, #0
 1522              	.L95:
 1523              	.LVL110:
 1524              	.LBB508:
 1525              	.LBI508:
  41:../../libdaisy/src/hid/disp/oled_display.h ****     {
 1526              		.loc 8 41 10 is_stmt 1 view .LVU322
 1527              	.LBB509:
 1528              	.LBI509:
 239:../../libdaisy/src/dev/oled_ssd130x.h ****     {
 1529              		.loc 15 239 10 view .LVU323
 1530              	.LBB510:
 241:../../libdaisy/src/dev/oled_ssd130x.h ****             return;
 1531              		.loc 15 241 9 is_stmt 0 view .LVU324
 1532 0072 7F29     		cmp	r1, #127
 1533 0074 14D8     		bhi	.L96
 1534 0076 3F2A     		cmp	r2, #63
 1535 0078 12D8     		bhi	.L96
 244:../../libdaisy/src/dev/oled_ssd130x.h ****         else
 1536              		.loc 15 244 28 view .LVU325
ARM GAS  C:\Users\VINCIU~1\AppData\Local\Temp\cc6Tz7la.s 			page 55


 1537 007a D508     		lsrs	r5, r2, #3
 244:../../libdaisy/src/dev/oled_ssd130x.h ****         else
 1538              		.loc 15 244 54 view .LVU326
 1539 007c 02F0070B 		and	fp, r2, #7
 244:../../libdaisy/src/dev/oled_ssd130x.h ****         else
 1540              		.loc 15 244 48 view .LVU327
 1541 0080 4FF0010E 		mov	lr, #1
 244:../../libdaisy/src/dev/oled_ssd130x.h ****         else
 1542              		.loc 15 244 42 view .LVU328
 1543 0084 01EBC515 		add	r5, r1, r5, lsl #7
 1544 0088 0544     		add	r5, r5, r0
 243:../../libdaisy/src/dev/oled_ssd130x.h ****             buffer_[x + (y / 8) * width] |= (1 << (y % 8));
 1545              		.loc 15 243 9 view .LVU329
 1546 008a B9F1000F 		cmp	r9, #0
 1547 008e 1BD0     		beq	.L97
 244:../../libdaisy/src/dev/oled_ssd130x.h ****         else
 1548              		.loc 15 244 48 view .LVU330
 1549 0090 0EFA0BFE 		lsl	lr, lr, fp
 244:../../libdaisy/src/dev/oled_ssd130x.h ****         else
 1550              		.loc 15 244 42 view .LVU331
 1551 0094 95F814B0 		ldrb	fp, [r5, #20]	@ zero_extendqisi2
 1552 0098 4EEA0B0E 		orr	lr, lr, fp
 1553 009c 85F814E0 		strb	lr, [r5, #20]
 1554              	.L96:
 1555              	.LVL111:
 244:../../libdaisy/src/dev/oled_ssd130x.h ****         else
 1556              		.loc 15 244 42 view .LVU332
 1557              	.LBE510:
 1558              	.LBE509:
 1559              	.LBE508:
 203:../../libdaisy/src/hid/disp/display.h ****             {
 1560              		.loc 10 203 13 view .LVU333
 1561 00a0 B7EB4C0F 		cmp	r7, ip, lsl #1
 202:../../libdaisy/src/hid/disp/display.h ****             if(error2 > -deltaY)
 1562              		.loc 10 202 20 view .LVU334
 1563 00a4 4FEA4C05 		lsl	r5, ip, #1
 1564              	.LVL112:
 203:../../libdaisy/src/hid/disp/display.h ****             {
 1565              		.loc 10 203 13 view .LVU335
 1566 00a8 02DA     		bge	.L98
 205:../../libdaisy/src/hid/disp/display.h ****                 x1 += signX;
 1567              		.loc 10 205 23 view .LVU336
 1568 00aa ACEB080C 		sub	ip, ip, r8
 1569              	.LVL113:
 206:../../libdaisy/src/hid/disp/display.h ****             }
 1570              		.loc 10 206 20 view .LVU337
 1571 00ae 5144     		add	r1, r1, r10
 1572              	.LVL114:
 1573              	.L98:
 209:../../libdaisy/src/hid/disp/display.h ****             {
 1574              		.loc 10 209 13 view .LVU338
 1575 00b0 AC42     		cmp	r4, r5
 1576 00b2 02DD     		ble	.L99
 212:../../libdaisy/src/hid/disp/display.h ****             }
 1577              		.loc 10 212 20 view .LVU339
 1578 00b4 019D     		ldr	r5, [sp, #4]
 1579              	.LVL115:
ARM GAS  C:\Users\VINCIU~1\AppData\Local\Temp\cc6Tz7la.s 			page 56


 211:../../libdaisy/src/hid/disp/display.h ****                 y1 += signY;
 1580              		.loc 10 211 23 view .LVU340
 1581 00b6 A444     		add	ip, ip, r4
 1582              	.LVL116:
 212:../../libdaisy/src/hid/disp/display.h ****             }
 1583              		.loc 10 212 20 view .LVU341
 1584 00b8 2A44     		add	r2, r2, r5
 1585              	.LVL117:
 1586              	.L99:
 199:../../libdaisy/src/hid/disp/display.h ****         {
 1587              		.loc 10 199 26 is_stmt 1 view .LVU342
 1588 00ba 9942     		cmp	r1, r3
 1589 00bc D9D1     		bne	.L95
 199:../../libdaisy/src/hid/disp/display.h ****         {
 1590              		.loc 10 199 26 is_stmt 0 view .LVU343
 1591 00be 9642     		cmp	r6, r2
 1592 00c0 D7D1     		bne	.L95
 1593              	.L86:
 215:../../libdaisy/src/hid/disp/display.h **** 
 1594              		.loc 10 215 5 view .LVU344
 1595 00c2 03B0     		add	sp, sp, #12
 1596              		.cfi_remember_state
 1597              		.cfi_def_cfa_offset 36
 1598              		@ sp needed
 1599 00c4 BDE8F08F 		pop	{r4, r5, r6, r7, r8, r9, r10, fp, pc}
 1600              	.LVL118:
 1601              	.L97:
 1602              		.cfi_restore_state
 1603              	.LBB515:
 1604              	.LBB514:
 1605              	.LBB513:
 1606              	.LBB511:
 1607              	.LBI511:
 239:../../libdaisy/src/dev/oled_ssd130x.h ****     {
 1608              		.loc 15 239 10 is_stmt 1 view .LVU345
 1609              	.LBB512:
 246:../../libdaisy/src/dev/oled_ssd130x.h ****     }
 1610              		.loc 15 246 49 is_stmt 0 view .LVU346
 1611 00c8 0EFA0BFB 		lsl	fp, lr, fp
 246:../../libdaisy/src/dev/oled_ssd130x.h ****     }
 1612              		.loc 15 246 42 view .LVU347
 1613 00cc 95F814E0 		ldrb	lr, [r5, #20]	@ zero_extendqisi2
 1614 00d0 2EEA0B0E 		bic	lr, lr, fp
 1615 00d4 85F814E0 		strb	lr, [r5, #20]
 1616 00d8 E2E7     		b	.L96
 1617              	.LVL119:
 1618              	.L88:
 246:../../libdaisy/src/dev/oled_ssd130x.h ****     }
 1619              		.loc 15 246 42 view .LVU348
 1620              	.LBE512:
 1621              	.LBE511:
 1622              	.LBE513:
 1623              	.LBE514:
 1624              	.LBE515:
 1625              	.LBB516:
  41:../../libdaisy/src/hid/disp/oled_display.h ****     {
 1626              		.loc 8 41 10 is_stmt 1 view .LVU349
ARM GAS  C:\Users\VINCIU~1\AppData\Local\Temp\cc6Tz7la.s 			page 57


 1627              	.LBB502:
 239:../../libdaisy/src/dev/oled_ssd130x.h ****     {
 1628              		.loc 15 239 10 view .LVU350
 1629              	.LBE502:
 1630              	.LBE516:
 190:../../libdaisy/src/hid/disp/display.h ****         int_fast16_t error  = deltaX - deltaY;
 1631              		.loc 10 190 42 is_stmt 0 view .LVU351
 1632 00da 0125     		movs	r5, #1
 1633              	.LBB517:
 1634              	.LBB503:
 1635              	.LBB497:
 241:../../libdaisy/src/dev/oled_ssd130x.h ****             return;
 1636              		.loc 15 241 9 view .LVU352
 1637 00dc 7F2B     		cmp	r3, #127
 1638              	.LBE497:
 1639              	.LBE503:
 1640              	.LBE517:
 190:../../libdaisy/src/hid/disp/display.h ****         int_fast16_t error  = deltaX - deltaY;
 1641              		.loc 10 190 42 view .LVU353
 1642 00de 0195     		str	r5, [sp, #4]
 1643              	.LBB518:
 1644              	.LBB504:
 1645              	.LBB498:
 241:../../libdaisy/src/dev/oled_ssd130x.h ****             return;
 1646              		.loc 15 241 9 view .LVU354
 1647 00e0 C5D8     		bhi	.L93
 1648 00e2 3F2E     		cmp	r6, #63
 1649 00e4 AED9     		bls	.L100
 1650 00e6 C2E7     		b	.L93
 1651              	.LVL120:
 1652              	.L90:
 1653              	.LBB492:
 1654              	.LBI492:
 239:../../libdaisy/src/dev/oled_ssd130x.h ****     {
 1655              		.loc 15 239 10 is_stmt 1 view .LVU355
 1656              	.LBB493:
 246:../../libdaisy/src/dev/oled_ssd130x.h ****     }
 1657              		.loc 15 246 49 is_stmt 0 view .LVU356
 1658 00e8 07FA0EFE 		lsl	lr, r7, lr
 246:../../libdaisy/src/dev/oled_ssd130x.h ****     }
 1659              		.loc 15 246 42 view .LVU357
 1660 00ec 2F7D     		ldrb	r7, [r5, #20]	@ zero_extendqisi2
 1661              	.LBE493:
 1662              	.LBE492:
 1663              	.LBE498:
 1664              	.LBE504:
 1665              	.LBE518:
 199:../../libdaisy/src/hid/disp/display.h ****         {
 1666              		.loc 10 199 26 view .LVU358
 1667 00ee 9642     		cmp	r6, r2
 1668              	.LBB519:
 1669              	.LBB505:
 1670              	.LBB499:
 1671              	.LBB495:
 1672              	.LBB494:
 246:../../libdaisy/src/dev/oled_ssd130x.h ****     }
 1673              		.loc 15 246 42 view .LVU359
ARM GAS  C:\Users\VINCIU~1\AppData\Local\Temp\cc6Tz7la.s 			page 58


 1674 00f0 27EA0E07 		bic	r7, r7, lr
 1675 00f4 2F75     		strb	r7, [r5, #20]
 1676              	.LVL121:
 246:../../libdaisy/src/dev/oled_ssd130x.h ****     }
 1677              		.loc 15 246 42 view .LVU360
 1678              	.LBE494:
 1679              	.LBE495:
 1680              	.LBE499:
 1681              	.LBE505:
 1682              	.LBE519:
 199:../../libdaisy/src/hid/disp/display.h ****         {
 1683              		.loc 10 199 26 is_stmt 1 view .LVU361
 1684 00f6 B8D0     		beq	.L112
 1685 00f8 B9E7     		b	.L93
 1686              		.cfi_endproc
 1687              	.LFE4637:
 1689 00fa 00BF     		.section	.text._ZN5daisy25OneBitGraphicsDisplayImplINS_11OledDisplayINS_13SSD130xDriverILj128ELj64
 1690              		.align	1
 1691              		.p2align 2,,3
 1692              		.weak	_ZN5daisy25OneBitGraphicsDisplayImplINS_11OledDisplayINS_13SSD130xDriverILj128ELj64ENS_24SSD
 1693              		.syntax unified
 1694              		.thumb
 1695              		.thumb_func
 1696              		.fpu fpv5-d16
 1698              	_ZN5daisy25OneBitGraphicsDisplayImplINS_11OledDisplayINS_13SSD130xDriverILj128ELj64ENS_24SSD130x4Wi
 1699              	.LVL122:
 1700              	.LFB4639:
 243:../../libdaisy/src/hid/disp/display.h ****                  uint_fast8_t y,
 1701              		.loc 10 243 10 view -0
 1702              		.cfi_startproc
 1703              		@ args = 12, pretend = 0, frame = 8
 1704              		@ frame_needed = 0, uses_anonymous_args = 0
 243:../../libdaisy/src/hid/disp/display.h ****                  uint_fast8_t y,
 1705              		.loc 10 243 10 is_stmt 0 view .LVU363
 1706 0000 2DE9F04F 		push	{r4, r5, r6, r7, r8, r9, r10, fp, lr}
 1707              		.cfi_def_cfa_offset 36
 1708              		.cfi_offset 4, -36
 1709              		.cfi_offset 5, -32
 1710              		.cfi_offset 6, -28
 1711              		.cfi_offset 7, -24
 1712              		.cfi_offset 8, -20
 1713              		.cfi_offset 9, -16
 1714              		.cfi_offset 10, -12
 1715              		.cfi_offset 11, -8
 1716              		.cfi_offset 14, -4
 1717 0004 2DED068B 		vpush.64	{d8, d9, d10}
 1718              		.cfi_def_cfa_offset 60
 1719              		.cfi_offset 80, -60
 1720              		.cfi_offset 81, -56
 1721              		.cfi_offset 82, -52
 1722              		.cfi_offset 83, -48
 1723              		.cfi_offset 84, -44
 1724              		.cfi_offset 85, -40
 1725 0008 83B0     		sub	sp, sp, #12
 1726              		.cfi_def_cfa_offset 72
 243:../../libdaisy/src/hid/disp/display.h ****                  uint_fast8_t y,
 1727              		.loc 10 243 10 view .LVU364
ARM GAS  C:\Users\VINCIU~1\AppData\Local\Temp\cc6Tz7la.s 			page 59


 1728 000a 1F46     		mov	r7, r3
 1729 000c 8046     		mov	r8, r0
 1730 000e 0D46     		mov	r5, r1
 1731 0010 9DF85030 		ldrb	r3, [sp, #80]	@ zero_extendqisi2
 1732              	.LVL123:
 243:../../libdaisy/src/hid/disp/display.h ****                  uint_fast8_t y,
 1733              		.loc 10 243 10 view .LVU365
 1734 0014 1646     		mov	r6, r2
 1735 0016 0193     		str	r3, [sp, #4]
 266:../../libdaisy/src/hid/disp/display.h ****         {
 1736              		.loc 10 266 9 view .LVU366
 1737 0018 139B     		ldr	r3, [sp, #76]
 1738 001a 002B     		cmp	r3, #0
 1739 001c C0F22182 		blt	.L114
 273:../../libdaisy/src/hid/disp/display.h **** 
 1740              		.loc 10 273 27 view .LVU367
 1741 0020 129A     		ldr	r2, [sp, #72]
 1742              	.LVL124:
 273:../../libdaisy/src/hid/disp/display.h **** 
 1743              		.loc 10 273 27 view .LVU368
 1744 0022 1344     		add	r3, r3, r2
 1745 0024 06EE103A 		vmov	s12, r3	@ int
 1746              	.LVL125:
 1747              	.L115:
 272:../../libdaisy/src/hid/disp/display.h ****         end_angle_rad   = deg2rad(start_angle + sweep);
 1748              		.loc 10 272 27 view .LVU369
 1749 0028 DDED127A 		vldr.32	s15, [sp, #72]	@ int
 273:../../libdaisy/src/hid/disp/display.h **** 
 1750              		.loc 10 273 27 view .LVU370
 1751 002c B8EEC66B 		vcvt.f64.s32	d6, s12
 272:../../libdaisy/src/hid/disp/display.h ****         end_angle_rad   = deg2rad(start_angle + sweep);
 1752              		.loc 10 272 27 view .LVU371
 1753 0030 9FEDCD4B 		vldr.64	d4, .L190
 1754 0034 B8EEE77B 		vcvt.f64.s32	d7, s15
 1755 0038 9FEDCD5B 		vldr.64	d5, .L190+8
 1756 003c 27EE047B 		vmul.f64	d7, d7, d4
 273:../../libdaisy/src/hid/disp/display.h **** 
 1757              		.loc 10 273 27 view .LVU372
 1758 0040 26EE046B 		vmul.f64	d6, d6, d4
 272:../../libdaisy/src/hid/disp/display.h ****         end_angle_rad   = deg2rad(start_angle + sweep);
 1759              		.loc 10 272 27 view .LVU373
 1760 0044 87EE050B 		vdiv.f64	d0, d7, d5
 273:../../libdaisy/src/hid/disp/display.h **** 
 1761              		.loc 10 273 27 view .LVU374
 1762 0048 86EE05AB 		vdiv.f64	d10, d6, d5
 272:../../libdaisy/src/hid/disp/display.h ****         end_angle_rad   = deg2rad(start_angle + sweep);
 1763              		.loc 10 272 25 view .LVU375
 1764 004c F7EEC08B 		vcvt.f32.f64	s17, d0
 1765              	.LVL126:
 1766              	.LBB552:
 1767              	.LBB553:
 1768              		.file 18 "c:\\users\\vin\355cius\\documents\\daisytoolchain-0.3.1\\windows\\arm-none-eabi\\include
   1:c:\users\vincius\documents\daisytoolchain-0.3.1\windows\arm-none-eabi\include\c++\10.2.1\cmath **** // -*- C++ -*- C forwarding header.
   2:c:\users\vincius\documents\daisytoolchain-0.3.1\windows\arm-none-eabi\include\c++\10.2.1\cmath **** 
   3:c:\users\vincius\documents\daisytoolchain-0.3.1\windows\arm-none-eabi\include\c++\10.2.1\cmath **** // Copyright (C) 1997-2020 Free Software Foundation, Inc.
   4:c:\users\vincius\documents\daisytoolchain-0.3.1\windows\arm-none-eabi\include\c++\10.2.1\cmath **** //
   5:c:\users\vincius\documents\daisytoolchain-0.3.1\windows\arm-none-eabi\include\c++\10.2.1\cmath **** // This file is part of the GNU ISO C++ Library.  This library is free
ARM GAS  C:\Users\VINCIU~1\AppData\Local\Temp\cc6Tz7la.s 			page 60


   6:c:\users\vincius\documents\daisytoolchain-0.3.1\windows\arm-none-eabi\include\c++\10.2.1\cmath **** // software; you can redistribute it and/or modify it under the
   7:c:\users\vincius\documents\daisytoolchain-0.3.1\windows\arm-none-eabi\include\c++\10.2.1\cmath **** // terms of the GNU General Public License as published by the
   8:c:\users\vincius\documents\daisytoolchain-0.3.1\windows\arm-none-eabi\include\c++\10.2.1\cmath **** // Free Software Foundation; either version 3, or (at your option)
   9:c:\users\vincius\documents\daisytoolchain-0.3.1\windows\arm-none-eabi\include\c++\10.2.1\cmath **** // any later version.
  10:c:\users\vincius\documents\daisytoolchain-0.3.1\windows\arm-none-eabi\include\c++\10.2.1\cmath **** 
  11:c:\users\vincius\documents\daisytoolchain-0.3.1\windows\arm-none-eabi\include\c++\10.2.1\cmath **** // This library is distributed in the hope that it will be useful,
  12:c:\users\vincius\documents\daisytoolchain-0.3.1\windows\arm-none-eabi\include\c++\10.2.1\cmath **** // but WITHOUT ANY WARRANTY; without even the implied warranty of
  13:c:\users\vincius\documents\daisytoolchain-0.3.1\windows\arm-none-eabi\include\c++\10.2.1\cmath **** // MERCHANTABILITY or FITNESS FOR A PARTICULAR PURPOSE.  See the
  14:c:\users\vincius\documents\daisytoolchain-0.3.1\windows\arm-none-eabi\include\c++\10.2.1\cmath **** // GNU General Public License for more details.
  15:c:\users\vincius\documents\daisytoolchain-0.3.1\windows\arm-none-eabi\include\c++\10.2.1\cmath **** 
  16:c:\users\vincius\documents\daisytoolchain-0.3.1\windows\arm-none-eabi\include\c++\10.2.1\cmath **** // Under Section 7 of GPL version 3, you are granted additional
  17:c:\users\vincius\documents\daisytoolchain-0.3.1\windows\arm-none-eabi\include\c++\10.2.1\cmath **** // permissions described in the GCC Runtime Library Exception, version
  18:c:\users\vincius\documents\daisytoolchain-0.3.1\windows\arm-none-eabi\include\c++\10.2.1\cmath **** // 3.1, as published by the Free Software Foundation.
  19:c:\users\vincius\documents\daisytoolchain-0.3.1\windows\arm-none-eabi\include\c++\10.2.1\cmath **** 
  20:c:\users\vincius\documents\daisytoolchain-0.3.1\windows\arm-none-eabi\include\c++\10.2.1\cmath **** // You should have received a copy of the GNU General Public License and
  21:c:\users\vincius\documents\daisytoolchain-0.3.1\windows\arm-none-eabi\include\c++\10.2.1\cmath **** // a copy of the GCC Runtime Library Exception along with this program;
  22:c:\users\vincius\documents\daisytoolchain-0.3.1\windows\arm-none-eabi\include\c++\10.2.1\cmath **** // see the files COPYING3 and COPYING.RUNTIME respectively.  If not, see
  23:c:\users\vincius\documents\daisytoolchain-0.3.1\windows\arm-none-eabi\include\c++\10.2.1\cmath **** // <http://www.gnu.org/licenses/>.
  24:c:\users\vincius\documents\daisytoolchain-0.3.1\windows\arm-none-eabi\include\c++\10.2.1\cmath **** 
  25:c:\users\vincius\documents\daisytoolchain-0.3.1\windows\arm-none-eabi\include\c++\10.2.1\cmath **** /** @file include/cmath
  26:c:\users\vincius\documents\daisytoolchain-0.3.1\windows\arm-none-eabi\include\c++\10.2.1\cmath ****  *  This is a Standard C++ Library file.  You should @c \#include this file
  27:c:\users\vincius\documents\daisytoolchain-0.3.1\windows\arm-none-eabi\include\c++\10.2.1\cmath ****  *  in your programs, rather than any of the @a *.h implementation files.
  28:c:\users\vincius\documents\daisytoolchain-0.3.1\windows\arm-none-eabi\include\c++\10.2.1\cmath ****  *
  29:c:\users\vincius\documents\daisytoolchain-0.3.1\windows\arm-none-eabi\include\c++\10.2.1\cmath ****  *  This is the C++ version of the Standard C Library header @c math.h,
  30:c:\users\vincius\documents\daisytoolchain-0.3.1\windows\arm-none-eabi\include\c++\10.2.1\cmath ****  *  and its contents are (mostly) the same as that header, but are all
  31:c:\users\vincius\documents\daisytoolchain-0.3.1\windows\arm-none-eabi\include\c++\10.2.1\cmath ****  *  contained in the namespace @c std (except for names which are defined
  32:c:\users\vincius\documents\daisytoolchain-0.3.1\windows\arm-none-eabi\include\c++\10.2.1\cmath ****  *  as macros in C).
  33:c:\users\vincius\documents\daisytoolchain-0.3.1\windows\arm-none-eabi\include\c++\10.2.1\cmath ****  */
  34:c:\users\vincius\documents\daisytoolchain-0.3.1\windows\arm-none-eabi\include\c++\10.2.1\cmath **** 
  35:c:\users\vincius\documents\daisytoolchain-0.3.1\windows\arm-none-eabi\include\c++\10.2.1\cmath **** //
  36:c:\users\vincius\documents\daisytoolchain-0.3.1\windows\arm-none-eabi\include\c++\10.2.1\cmath **** // ISO C++ 14882: 26.5  C library
  37:c:\users\vincius\documents\daisytoolchain-0.3.1\windows\arm-none-eabi\include\c++\10.2.1\cmath **** //
  38:c:\users\vincius\documents\daisytoolchain-0.3.1\windows\arm-none-eabi\include\c++\10.2.1\cmath **** 
  39:c:\users\vincius\documents\daisytoolchain-0.3.1\windows\arm-none-eabi\include\c++\10.2.1\cmath **** #pragma GCC system_header
  40:c:\users\vincius\documents\daisytoolchain-0.3.1\windows\arm-none-eabi\include\c++\10.2.1\cmath **** 
  41:c:\users\vincius\documents\daisytoolchain-0.3.1\windows\arm-none-eabi\include\c++\10.2.1\cmath **** #include <bits/c++config.h>
  42:c:\users\vincius\documents\daisytoolchain-0.3.1\windows\arm-none-eabi\include\c++\10.2.1\cmath **** #include <bits/cpp_type_traits.h>
  43:c:\users\vincius\documents\daisytoolchain-0.3.1\windows\arm-none-eabi\include\c++\10.2.1\cmath **** #include <ext/type_traits.h>
  44:c:\users\vincius\documents\daisytoolchain-0.3.1\windows\arm-none-eabi\include\c++\10.2.1\cmath **** #define _GLIBCXX_INCLUDE_NEXT_C_HEADERS
  45:c:\users\vincius\documents\daisytoolchain-0.3.1\windows\arm-none-eabi\include\c++\10.2.1\cmath **** #include_next <math.h>
  46:c:\users\vincius\documents\daisytoolchain-0.3.1\windows\arm-none-eabi\include\c++\10.2.1\cmath **** #undef _GLIBCXX_INCLUDE_NEXT_C_HEADERS
  47:c:\users\vincius\documents\daisytoolchain-0.3.1\windows\arm-none-eabi\include\c++\10.2.1\cmath **** #include <bits/std_abs.h>
  48:c:\users\vincius\documents\daisytoolchain-0.3.1\windows\arm-none-eabi\include\c++\10.2.1\cmath **** 
  49:c:\users\vincius\documents\daisytoolchain-0.3.1\windows\arm-none-eabi\include\c++\10.2.1\cmath **** #ifndef _GLIBCXX_CMATH
  50:c:\users\vincius\documents\daisytoolchain-0.3.1\windows\arm-none-eabi\include\c++\10.2.1\cmath **** #define _GLIBCXX_CMATH 1
  51:c:\users\vincius\documents\daisytoolchain-0.3.1\windows\arm-none-eabi\include\c++\10.2.1\cmath **** 
  52:c:\users\vincius\documents\daisytoolchain-0.3.1\windows\arm-none-eabi\include\c++\10.2.1\cmath **** // Get rid of those macros defined in <math.h> in lieu of real functions.
  53:c:\users\vincius\documents\daisytoolchain-0.3.1\windows\arm-none-eabi\include\c++\10.2.1\cmath **** #undef div
  54:c:\users\vincius\documents\daisytoolchain-0.3.1\windows\arm-none-eabi\include\c++\10.2.1\cmath **** #undef acos
  55:c:\users\vincius\documents\daisytoolchain-0.3.1\windows\arm-none-eabi\include\c++\10.2.1\cmath **** #undef asin
  56:c:\users\vincius\documents\daisytoolchain-0.3.1\windows\arm-none-eabi\include\c++\10.2.1\cmath **** #undef atan
  57:c:\users\vincius\documents\daisytoolchain-0.3.1\windows\arm-none-eabi\include\c++\10.2.1\cmath **** #undef atan2
  58:c:\users\vincius\documents\daisytoolchain-0.3.1\windows\arm-none-eabi\include\c++\10.2.1\cmath **** #undef ceil
  59:c:\users\vincius\documents\daisytoolchain-0.3.1\windows\arm-none-eabi\include\c++\10.2.1\cmath **** #undef cos
  60:c:\users\vincius\documents\daisytoolchain-0.3.1\windows\arm-none-eabi\include\c++\10.2.1\cmath **** #undef cosh
  61:c:\users\vincius\documents\daisytoolchain-0.3.1\windows\arm-none-eabi\include\c++\10.2.1\cmath **** #undef exp
  62:c:\users\vincius\documents\daisytoolchain-0.3.1\windows\arm-none-eabi\include\c++\10.2.1\cmath **** #undef fabs
ARM GAS  C:\Users\VINCIU~1\AppData\Local\Temp\cc6Tz7la.s 			page 61


  63:c:\users\vincius\documents\daisytoolchain-0.3.1\windows\arm-none-eabi\include\c++\10.2.1\cmath **** #undef floor
  64:c:\users\vincius\documents\daisytoolchain-0.3.1\windows\arm-none-eabi\include\c++\10.2.1\cmath **** #undef fmod
  65:c:\users\vincius\documents\daisytoolchain-0.3.1\windows\arm-none-eabi\include\c++\10.2.1\cmath **** #undef frexp
  66:c:\users\vincius\documents\daisytoolchain-0.3.1\windows\arm-none-eabi\include\c++\10.2.1\cmath **** #undef ldexp
  67:c:\users\vincius\documents\daisytoolchain-0.3.1\windows\arm-none-eabi\include\c++\10.2.1\cmath **** #undef log
  68:c:\users\vincius\documents\daisytoolchain-0.3.1\windows\arm-none-eabi\include\c++\10.2.1\cmath **** #undef log10
  69:c:\users\vincius\documents\daisytoolchain-0.3.1\windows\arm-none-eabi\include\c++\10.2.1\cmath **** #undef modf
  70:c:\users\vincius\documents\daisytoolchain-0.3.1\windows\arm-none-eabi\include\c++\10.2.1\cmath **** #undef pow
  71:c:\users\vincius\documents\daisytoolchain-0.3.1\windows\arm-none-eabi\include\c++\10.2.1\cmath **** #undef sin
  72:c:\users\vincius\documents\daisytoolchain-0.3.1\windows\arm-none-eabi\include\c++\10.2.1\cmath **** #undef sinh
  73:c:\users\vincius\documents\daisytoolchain-0.3.1\windows\arm-none-eabi\include\c++\10.2.1\cmath **** #undef sqrt
  74:c:\users\vincius\documents\daisytoolchain-0.3.1\windows\arm-none-eabi\include\c++\10.2.1\cmath **** #undef tan
  75:c:\users\vincius\documents\daisytoolchain-0.3.1\windows\arm-none-eabi\include\c++\10.2.1\cmath **** #undef tanh
  76:c:\users\vincius\documents\daisytoolchain-0.3.1\windows\arm-none-eabi\include\c++\10.2.1\cmath **** 
  77:c:\users\vincius\documents\daisytoolchain-0.3.1\windows\arm-none-eabi\include\c++\10.2.1\cmath **** extern "C++"
  78:c:\users\vincius\documents\daisytoolchain-0.3.1\windows\arm-none-eabi\include\c++\10.2.1\cmath **** {
  79:c:\users\vincius\documents\daisytoolchain-0.3.1\windows\arm-none-eabi\include\c++\10.2.1\cmath **** namespace std _GLIBCXX_VISIBILITY(default)
  80:c:\users\vincius\documents\daisytoolchain-0.3.1\windows\arm-none-eabi\include\c++\10.2.1\cmath **** {
  81:c:\users\vincius\documents\daisytoolchain-0.3.1\windows\arm-none-eabi\include\c++\10.2.1\cmath **** _GLIBCXX_BEGIN_NAMESPACE_VERSION
  82:c:\users\vincius\documents\daisytoolchain-0.3.1\windows\arm-none-eabi\include\c++\10.2.1\cmath **** 
  83:c:\users\vincius\documents\daisytoolchain-0.3.1\windows\arm-none-eabi\include\c++\10.2.1\cmath ****   using ::acos;
  84:c:\users\vincius\documents\daisytoolchain-0.3.1\windows\arm-none-eabi\include\c++\10.2.1\cmath **** 
  85:c:\users\vincius\documents\daisytoolchain-0.3.1\windows\arm-none-eabi\include\c++\10.2.1\cmath **** #ifndef __CORRECT_ISO_CPP_MATH_H_PROTO
  86:c:\users\vincius\documents\daisytoolchain-0.3.1\windows\arm-none-eabi\include\c++\10.2.1\cmath ****   inline _GLIBCXX_CONSTEXPR float
  87:c:\users\vincius\documents\daisytoolchain-0.3.1\windows\arm-none-eabi\include\c++\10.2.1\cmath ****   acos(float __x)
  88:c:\users\vincius\documents\daisytoolchain-0.3.1\windows\arm-none-eabi\include\c++\10.2.1\cmath ****   { return __builtin_acosf(__x); }
  89:c:\users\vincius\documents\daisytoolchain-0.3.1\windows\arm-none-eabi\include\c++\10.2.1\cmath **** 
  90:c:\users\vincius\documents\daisytoolchain-0.3.1\windows\arm-none-eabi\include\c++\10.2.1\cmath ****   inline _GLIBCXX_CONSTEXPR long double
  91:c:\users\vincius\documents\daisytoolchain-0.3.1\windows\arm-none-eabi\include\c++\10.2.1\cmath ****   acos(long double __x)
  92:c:\users\vincius\documents\daisytoolchain-0.3.1\windows\arm-none-eabi\include\c++\10.2.1\cmath ****   { return __builtin_acosl(__x); }
  93:c:\users\vincius\documents\daisytoolchain-0.3.1\windows\arm-none-eabi\include\c++\10.2.1\cmath **** #endif
  94:c:\users\vincius\documents\daisytoolchain-0.3.1\windows\arm-none-eabi\include\c++\10.2.1\cmath **** 
  95:c:\users\vincius\documents\daisytoolchain-0.3.1\windows\arm-none-eabi\include\c++\10.2.1\cmath ****   template<typename _Tp>
  96:c:\users\vincius\documents\daisytoolchain-0.3.1\windows\arm-none-eabi\include\c++\10.2.1\cmath ****     inline _GLIBCXX_CONSTEXPR
  97:c:\users\vincius\documents\daisytoolchain-0.3.1\windows\arm-none-eabi\include\c++\10.2.1\cmath ****     typename __gnu_cxx::__enable_if<__is_integer<_Tp>::__value, 
  98:c:\users\vincius\documents\daisytoolchain-0.3.1\windows\arm-none-eabi\include\c++\10.2.1\cmath ****                                     double>::__type
  99:c:\users\vincius\documents\daisytoolchain-0.3.1\windows\arm-none-eabi\include\c++\10.2.1\cmath ****     acos(_Tp __x)
 100:c:\users\vincius\documents\daisytoolchain-0.3.1\windows\arm-none-eabi\include\c++\10.2.1\cmath ****     { return __builtin_acos(__x); }
 101:c:\users\vincius\documents\daisytoolchain-0.3.1\windows\arm-none-eabi\include\c++\10.2.1\cmath **** 
 102:c:\users\vincius\documents\daisytoolchain-0.3.1\windows\arm-none-eabi\include\c++\10.2.1\cmath ****   using ::asin;
 103:c:\users\vincius\documents\daisytoolchain-0.3.1\windows\arm-none-eabi\include\c++\10.2.1\cmath **** 
 104:c:\users\vincius\documents\daisytoolchain-0.3.1\windows\arm-none-eabi\include\c++\10.2.1\cmath **** #ifndef __CORRECT_ISO_CPP_MATH_H_PROTO
 105:c:\users\vincius\documents\daisytoolchain-0.3.1\windows\arm-none-eabi\include\c++\10.2.1\cmath ****   inline _GLIBCXX_CONSTEXPR float
 106:c:\users\vincius\documents\daisytoolchain-0.3.1\windows\arm-none-eabi\include\c++\10.2.1\cmath ****   asin(float __x)
 107:c:\users\vincius\documents\daisytoolchain-0.3.1\windows\arm-none-eabi\include\c++\10.2.1\cmath ****   { return __builtin_asinf(__x); }
 108:c:\users\vincius\documents\daisytoolchain-0.3.1\windows\arm-none-eabi\include\c++\10.2.1\cmath **** 
 109:c:\users\vincius\documents\daisytoolchain-0.3.1\windows\arm-none-eabi\include\c++\10.2.1\cmath ****   inline _GLIBCXX_CONSTEXPR long double
 110:c:\users\vincius\documents\daisytoolchain-0.3.1\windows\arm-none-eabi\include\c++\10.2.1\cmath ****   asin(long double __x)
 111:c:\users\vincius\documents\daisytoolchain-0.3.1\windows\arm-none-eabi\include\c++\10.2.1\cmath ****   { return __builtin_asinl(__x); }
 112:c:\users\vincius\documents\daisytoolchain-0.3.1\windows\arm-none-eabi\include\c++\10.2.1\cmath **** #endif
 113:c:\users\vincius\documents\daisytoolchain-0.3.1\windows\arm-none-eabi\include\c++\10.2.1\cmath **** 
 114:c:\users\vincius\documents\daisytoolchain-0.3.1\windows\arm-none-eabi\include\c++\10.2.1\cmath ****   template<typename _Tp>
 115:c:\users\vincius\documents\daisytoolchain-0.3.1\windows\arm-none-eabi\include\c++\10.2.1\cmath ****     inline _GLIBCXX_CONSTEXPR
 116:c:\users\vincius\documents\daisytoolchain-0.3.1\windows\arm-none-eabi\include\c++\10.2.1\cmath ****     typename __gnu_cxx::__enable_if<__is_integer<_Tp>::__value,
 117:c:\users\vincius\documents\daisytoolchain-0.3.1\windows\arm-none-eabi\include\c++\10.2.1\cmath ****                                     double>::__type
 118:c:\users\vincius\documents\daisytoolchain-0.3.1\windows\arm-none-eabi\include\c++\10.2.1\cmath ****     asin(_Tp __x)
 119:c:\users\vincius\documents\daisytoolchain-0.3.1\windows\arm-none-eabi\include\c++\10.2.1\cmath ****     { return __builtin_asin(__x); }
ARM GAS  C:\Users\VINCIU~1\AppData\Local\Temp\cc6Tz7la.s 			page 62


 120:c:\users\vincius\documents\daisytoolchain-0.3.1\windows\arm-none-eabi\include\c++\10.2.1\cmath **** 
 121:c:\users\vincius\documents\daisytoolchain-0.3.1\windows\arm-none-eabi\include\c++\10.2.1\cmath ****   using ::atan;
 122:c:\users\vincius\documents\daisytoolchain-0.3.1\windows\arm-none-eabi\include\c++\10.2.1\cmath **** 
 123:c:\users\vincius\documents\daisytoolchain-0.3.1\windows\arm-none-eabi\include\c++\10.2.1\cmath **** #ifndef __CORRECT_ISO_CPP_MATH_H_PROTO
 124:c:\users\vincius\documents\daisytoolchain-0.3.1\windows\arm-none-eabi\include\c++\10.2.1\cmath ****   inline _GLIBCXX_CONSTEXPR float
 125:c:\users\vincius\documents\daisytoolchain-0.3.1\windows\arm-none-eabi\include\c++\10.2.1\cmath ****   atan(float __x)
 126:c:\users\vincius\documents\daisytoolchain-0.3.1\windows\arm-none-eabi\include\c++\10.2.1\cmath ****   { return __builtin_atanf(__x); }
 127:c:\users\vincius\documents\daisytoolchain-0.3.1\windows\arm-none-eabi\include\c++\10.2.1\cmath **** 
 128:c:\users\vincius\documents\daisytoolchain-0.3.1\windows\arm-none-eabi\include\c++\10.2.1\cmath ****   inline _GLIBCXX_CONSTEXPR long double
 129:c:\users\vincius\documents\daisytoolchain-0.3.1\windows\arm-none-eabi\include\c++\10.2.1\cmath ****   atan(long double __x)
 130:c:\users\vincius\documents\daisytoolchain-0.3.1\windows\arm-none-eabi\include\c++\10.2.1\cmath ****   { return __builtin_atanl(__x); }
 131:c:\users\vincius\documents\daisytoolchain-0.3.1\windows\arm-none-eabi\include\c++\10.2.1\cmath **** #endif
 132:c:\users\vincius\documents\daisytoolchain-0.3.1\windows\arm-none-eabi\include\c++\10.2.1\cmath **** 
 133:c:\users\vincius\documents\daisytoolchain-0.3.1\windows\arm-none-eabi\include\c++\10.2.1\cmath ****   template<typename _Tp>
 134:c:\users\vincius\documents\daisytoolchain-0.3.1\windows\arm-none-eabi\include\c++\10.2.1\cmath ****     inline _GLIBCXX_CONSTEXPR
 135:c:\users\vincius\documents\daisytoolchain-0.3.1\windows\arm-none-eabi\include\c++\10.2.1\cmath ****     typename __gnu_cxx::__enable_if<__is_integer<_Tp>::__value,
 136:c:\users\vincius\documents\daisytoolchain-0.3.1\windows\arm-none-eabi\include\c++\10.2.1\cmath ****                                     double>::__type
 137:c:\users\vincius\documents\daisytoolchain-0.3.1\windows\arm-none-eabi\include\c++\10.2.1\cmath ****     atan(_Tp __x)
 138:c:\users\vincius\documents\daisytoolchain-0.3.1\windows\arm-none-eabi\include\c++\10.2.1\cmath ****     { return __builtin_atan(__x); }
 139:c:\users\vincius\documents\daisytoolchain-0.3.1\windows\arm-none-eabi\include\c++\10.2.1\cmath **** 
 140:c:\users\vincius\documents\daisytoolchain-0.3.1\windows\arm-none-eabi\include\c++\10.2.1\cmath ****   using ::atan2;
 141:c:\users\vincius\documents\daisytoolchain-0.3.1\windows\arm-none-eabi\include\c++\10.2.1\cmath **** 
 142:c:\users\vincius\documents\daisytoolchain-0.3.1\windows\arm-none-eabi\include\c++\10.2.1\cmath **** #ifndef __CORRECT_ISO_CPP_MATH_H_PROTO
 143:c:\users\vincius\documents\daisytoolchain-0.3.1\windows\arm-none-eabi\include\c++\10.2.1\cmath ****   inline _GLIBCXX_CONSTEXPR float
 144:c:\users\vincius\documents\daisytoolchain-0.3.1\windows\arm-none-eabi\include\c++\10.2.1\cmath ****   atan2(float __y, float __x)
 145:c:\users\vincius\documents\daisytoolchain-0.3.1\windows\arm-none-eabi\include\c++\10.2.1\cmath ****   { return __builtin_atan2f(__y, __x); }
 146:c:\users\vincius\documents\daisytoolchain-0.3.1\windows\arm-none-eabi\include\c++\10.2.1\cmath **** 
 147:c:\users\vincius\documents\daisytoolchain-0.3.1\windows\arm-none-eabi\include\c++\10.2.1\cmath ****   inline _GLIBCXX_CONSTEXPR long double
 148:c:\users\vincius\documents\daisytoolchain-0.3.1\windows\arm-none-eabi\include\c++\10.2.1\cmath ****   atan2(long double __y, long double __x)
 149:c:\users\vincius\documents\daisytoolchain-0.3.1\windows\arm-none-eabi\include\c++\10.2.1\cmath ****   { return __builtin_atan2l(__y, __x); }
 150:c:\users\vincius\documents\daisytoolchain-0.3.1\windows\arm-none-eabi\include\c++\10.2.1\cmath **** #endif
 151:c:\users\vincius\documents\daisytoolchain-0.3.1\windows\arm-none-eabi\include\c++\10.2.1\cmath **** 
 152:c:\users\vincius\documents\daisytoolchain-0.3.1\windows\arm-none-eabi\include\c++\10.2.1\cmath ****   template<typename _Tp, typename _Up>
 153:c:\users\vincius\documents\daisytoolchain-0.3.1\windows\arm-none-eabi\include\c++\10.2.1\cmath ****     inline _GLIBCXX_CONSTEXPR
 154:c:\users\vincius\documents\daisytoolchain-0.3.1\windows\arm-none-eabi\include\c++\10.2.1\cmath ****     typename __gnu_cxx::__promote_2<_Tp, _Up>::__type
 155:c:\users\vincius\documents\daisytoolchain-0.3.1\windows\arm-none-eabi\include\c++\10.2.1\cmath ****     atan2(_Tp __y, _Up __x)
 156:c:\users\vincius\documents\daisytoolchain-0.3.1\windows\arm-none-eabi\include\c++\10.2.1\cmath ****     {
 157:c:\users\vincius\documents\daisytoolchain-0.3.1\windows\arm-none-eabi\include\c++\10.2.1\cmath ****       typedef typename __gnu_cxx::__promote_2<_Tp, _Up>::__type __type;
 158:c:\users\vincius\documents\daisytoolchain-0.3.1\windows\arm-none-eabi\include\c++\10.2.1\cmath ****       return atan2(__type(__y), __type(__x));
 159:c:\users\vincius\documents\daisytoolchain-0.3.1\windows\arm-none-eabi\include\c++\10.2.1\cmath ****     }
 160:c:\users\vincius\documents\daisytoolchain-0.3.1\windows\arm-none-eabi\include\c++\10.2.1\cmath **** 
 161:c:\users\vincius\documents\daisytoolchain-0.3.1\windows\arm-none-eabi\include\c++\10.2.1\cmath ****   using ::ceil;
 162:c:\users\vincius\documents\daisytoolchain-0.3.1\windows\arm-none-eabi\include\c++\10.2.1\cmath **** 
 163:c:\users\vincius\documents\daisytoolchain-0.3.1\windows\arm-none-eabi\include\c++\10.2.1\cmath **** #ifndef __CORRECT_ISO_CPP_MATH_H_PROTO
 164:c:\users\vincius\documents\daisytoolchain-0.3.1\windows\arm-none-eabi\include\c++\10.2.1\cmath ****   inline _GLIBCXX_CONSTEXPR float
 165:c:\users\vincius\documents\daisytoolchain-0.3.1\windows\arm-none-eabi\include\c++\10.2.1\cmath ****   ceil(float __x)
 166:c:\users\vincius\documents\daisytoolchain-0.3.1\windows\arm-none-eabi\include\c++\10.2.1\cmath ****   { return __builtin_ceilf(__x); }
 167:c:\users\vincius\documents\daisytoolchain-0.3.1\windows\arm-none-eabi\include\c++\10.2.1\cmath **** 
 168:c:\users\vincius\documents\daisytoolchain-0.3.1\windows\arm-none-eabi\include\c++\10.2.1\cmath ****   inline _GLIBCXX_CONSTEXPR long double
 169:c:\users\vincius\documents\daisytoolchain-0.3.1\windows\arm-none-eabi\include\c++\10.2.1\cmath ****   ceil(long double __x)
 170:c:\users\vincius\documents\daisytoolchain-0.3.1\windows\arm-none-eabi\include\c++\10.2.1\cmath ****   { return __builtin_ceill(__x); }
 171:c:\users\vincius\documents\daisytoolchain-0.3.1\windows\arm-none-eabi\include\c++\10.2.1\cmath **** #endif
 172:c:\users\vincius\documents\daisytoolchain-0.3.1\windows\arm-none-eabi\include\c++\10.2.1\cmath **** 
 173:c:\users\vincius\documents\daisytoolchain-0.3.1\windows\arm-none-eabi\include\c++\10.2.1\cmath ****   template<typename _Tp>
 174:c:\users\vincius\documents\daisytoolchain-0.3.1\windows\arm-none-eabi\include\c++\10.2.1\cmath ****     inline _GLIBCXX_CONSTEXPR
 175:c:\users\vincius\documents\daisytoolchain-0.3.1\windows\arm-none-eabi\include\c++\10.2.1\cmath ****     typename __gnu_cxx::__enable_if<__is_integer<_Tp>::__value, 
 176:c:\users\vincius\documents\daisytoolchain-0.3.1\windows\arm-none-eabi\include\c++\10.2.1\cmath ****                                     double>::__type
ARM GAS  C:\Users\VINCIU~1\AppData\Local\Temp\cc6Tz7la.s 			page 63


 177:c:\users\vincius\documents\daisytoolchain-0.3.1\windows\arm-none-eabi\include\c++\10.2.1\cmath ****     ceil(_Tp __x)
 178:c:\users\vincius\documents\daisytoolchain-0.3.1\windows\arm-none-eabi\include\c++\10.2.1\cmath ****     { return __builtin_ceil(__x); }
 179:c:\users\vincius\documents\daisytoolchain-0.3.1\windows\arm-none-eabi\include\c++\10.2.1\cmath **** 
 180:c:\users\vincius\documents\daisytoolchain-0.3.1\windows\arm-none-eabi\include\c++\10.2.1\cmath ****   using ::cos;
 181:c:\users\vincius\documents\daisytoolchain-0.3.1\windows\arm-none-eabi\include\c++\10.2.1\cmath **** 
 182:c:\users\vincius\documents\daisytoolchain-0.3.1\windows\arm-none-eabi\include\c++\10.2.1\cmath **** #ifndef __CORRECT_ISO_CPP_MATH_H_PROTO
 183:c:\users\vincius\documents\daisytoolchain-0.3.1\windows\arm-none-eabi\include\c++\10.2.1\cmath ****   inline _GLIBCXX_CONSTEXPR float
 184:c:\users\vincius\documents\daisytoolchain-0.3.1\windows\arm-none-eabi\include\c++\10.2.1\cmath ****   cos(float __x)
 185:c:\users\vincius\documents\daisytoolchain-0.3.1\windows\arm-none-eabi\include\c++\10.2.1\cmath ****   { return __builtin_cosf(__x); }
 1769              		.loc 18 185 26 view .LVU376
 1770 0050 B0EE680A 		vmov.f32	s0, s17
 1771 0054 FFF7FEFF 		bl	cosf
 1772              	.LVL127:
 1773              		.loc 18 185 26 view .LVU377
 1774              	.LBE553:
 1775              	.LBE552:
 275:../../libdaisy/src/hid/disp/display.h ****         start_y = -sin(start_angle_rad) * radius;
 1776              		.loc 10 275 17 view .LVU378
 1777 0058 07EE907A 		vmov	s15, r7	@ int
 273:../../libdaisy/src/hid/disp/display.h **** 
 1778              		.loc 10 273 25 view .LVU379
 1779 005c B7EECAAB 		vcvt.f32.f64	s20, d10
 1780              	.LVL128:
 1781              	.LBB556:
 1782              	.LBI552:
 184:c:\users\vincius\documents\daisytoolchain-0.3.1\windows\arm-none-eabi\include\c++\10.2.1\cmath ****   { return __builtin_cosf(__x); }
 1783              		.loc 18 184 3 is_stmt 1 view .LVU380
 1784              	.LBB554:
 1785              		.loc 18 185 5 view .LVU381
 1786              		.loc 18 185 5 is_stmt 0 view .LVU382
 1787              	.LBE554:
 1788              	.LBE556:
 275:../../libdaisy/src/hid/disp/display.h ****         start_y = -sin(start_angle_rad) * radius;
 1789              		.loc 10 275 17 view .LVU383
 1790 0060 F8EE679A 		vcvt.f32.u32	s19, s15
 1791              	.LBB557:
 1792              	.LBB555:
 1793              		.loc 18 185 26 view .LVU384
 1794 0064 B0EE408A 		vmov.f32	s16, s0
 1795              	.LBE555:
 1796              	.LBE557:
 1797              	.LBB558:
 1798              	.LBB559:
 186:c:\users\vincius\documents\daisytoolchain-0.3.1\windows\arm-none-eabi\include\c++\10.2.1\cmath **** 
 187:c:\users\vincius\documents\daisytoolchain-0.3.1\windows\arm-none-eabi\include\c++\10.2.1\cmath ****   inline _GLIBCXX_CONSTEXPR long double
 188:c:\users\vincius\documents\daisytoolchain-0.3.1\windows\arm-none-eabi\include\c++\10.2.1\cmath ****   cos(long double __x)
 189:c:\users\vincius\documents\daisytoolchain-0.3.1\windows\arm-none-eabi\include\c++\10.2.1\cmath ****   { return __builtin_cosl(__x); }
 190:c:\users\vincius\documents\daisytoolchain-0.3.1\windows\arm-none-eabi\include\c++\10.2.1\cmath **** #endif
 191:c:\users\vincius\documents\daisytoolchain-0.3.1\windows\arm-none-eabi\include\c++\10.2.1\cmath **** 
 192:c:\users\vincius\documents\daisytoolchain-0.3.1\windows\arm-none-eabi\include\c++\10.2.1\cmath ****   template<typename _Tp>
 193:c:\users\vincius\documents\daisytoolchain-0.3.1\windows\arm-none-eabi\include\c++\10.2.1\cmath ****     inline _GLIBCXX_CONSTEXPR
 194:c:\users\vincius\documents\daisytoolchain-0.3.1\windows\arm-none-eabi\include\c++\10.2.1\cmath ****     typename __gnu_cxx::__enable_if<__is_integer<_Tp>::__value,
 195:c:\users\vincius\documents\daisytoolchain-0.3.1\windows\arm-none-eabi\include\c++\10.2.1\cmath ****                                     double>::__type
 196:c:\users\vincius\documents\daisytoolchain-0.3.1\windows\arm-none-eabi\include\c++\10.2.1\cmath ****     cos(_Tp __x)
 197:c:\users\vincius\documents\daisytoolchain-0.3.1\windows\arm-none-eabi\include\c++\10.2.1\cmath ****     { return __builtin_cos(__x); }
 198:c:\users\vincius\documents\daisytoolchain-0.3.1\windows\arm-none-eabi\include\c++\10.2.1\cmath **** 
 199:c:\users\vincius\documents\daisytoolchain-0.3.1\windows\arm-none-eabi\include\c++\10.2.1\cmath ****   using ::cosh;
ARM GAS  C:\Users\VINCIU~1\AppData\Local\Temp\cc6Tz7la.s 			page 64


 200:c:\users\vincius\documents\daisytoolchain-0.3.1\windows\arm-none-eabi\include\c++\10.2.1\cmath **** 
 201:c:\users\vincius\documents\daisytoolchain-0.3.1\windows\arm-none-eabi\include\c++\10.2.1\cmath **** #ifndef __CORRECT_ISO_CPP_MATH_H_PROTO
 202:c:\users\vincius\documents\daisytoolchain-0.3.1\windows\arm-none-eabi\include\c++\10.2.1\cmath ****   inline _GLIBCXX_CONSTEXPR float
 203:c:\users\vincius\documents\daisytoolchain-0.3.1\windows\arm-none-eabi\include\c++\10.2.1\cmath ****   cosh(float __x)
 204:c:\users\vincius\documents\daisytoolchain-0.3.1\windows\arm-none-eabi\include\c++\10.2.1\cmath ****   { return __builtin_coshf(__x); }
 205:c:\users\vincius\documents\daisytoolchain-0.3.1\windows\arm-none-eabi\include\c++\10.2.1\cmath **** 
 206:c:\users\vincius\documents\daisytoolchain-0.3.1\windows\arm-none-eabi\include\c++\10.2.1\cmath ****   inline _GLIBCXX_CONSTEXPR long double
 207:c:\users\vincius\documents\daisytoolchain-0.3.1\windows\arm-none-eabi\include\c++\10.2.1\cmath ****   cosh(long double __x)
 208:c:\users\vincius\documents\daisytoolchain-0.3.1\windows\arm-none-eabi\include\c++\10.2.1\cmath ****   { return __builtin_coshl(__x); }
 209:c:\users\vincius\documents\daisytoolchain-0.3.1\windows\arm-none-eabi\include\c++\10.2.1\cmath **** #endif
 210:c:\users\vincius\documents\daisytoolchain-0.3.1\windows\arm-none-eabi\include\c++\10.2.1\cmath **** 
 211:c:\users\vincius\documents\daisytoolchain-0.3.1\windows\arm-none-eabi\include\c++\10.2.1\cmath ****   template<typename _Tp>
 212:c:\users\vincius\documents\daisytoolchain-0.3.1\windows\arm-none-eabi\include\c++\10.2.1\cmath ****     inline _GLIBCXX_CONSTEXPR
 213:c:\users\vincius\documents\daisytoolchain-0.3.1\windows\arm-none-eabi\include\c++\10.2.1\cmath ****     typename __gnu_cxx::__enable_if<__is_integer<_Tp>::__value,
 214:c:\users\vincius\documents\daisytoolchain-0.3.1\windows\arm-none-eabi\include\c++\10.2.1\cmath ****                                     double>::__type
 215:c:\users\vincius\documents\daisytoolchain-0.3.1\windows\arm-none-eabi\include\c++\10.2.1\cmath ****     cosh(_Tp __x)
 216:c:\users\vincius\documents\daisytoolchain-0.3.1\windows\arm-none-eabi\include\c++\10.2.1\cmath ****     { return __builtin_cosh(__x); }
 217:c:\users\vincius\documents\daisytoolchain-0.3.1\windows\arm-none-eabi\include\c++\10.2.1\cmath **** 
 218:c:\users\vincius\documents\daisytoolchain-0.3.1\windows\arm-none-eabi\include\c++\10.2.1\cmath ****   using ::exp;
 219:c:\users\vincius\documents\daisytoolchain-0.3.1\windows\arm-none-eabi\include\c++\10.2.1\cmath **** 
 220:c:\users\vincius\documents\daisytoolchain-0.3.1\windows\arm-none-eabi\include\c++\10.2.1\cmath **** #ifndef __CORRECT_ISO_CPP_MATH_H_PROTO
 221:c:\users\vincius\documents\daisytoolchain-0.3.1\windows\arm-none-eabi\include\c++\10.2.1\cmath ****   inline _GLIBCXX_CONSTEXPR float
 222:c:\users\vincius\documents\daisytoolchain-0.3.1\windows\arm-none-eabi\include\c++\10.2.1\cmath ****   exp(float __x)
 223:c:\users\vincius\documents\daisytoolchain-0.3.1\windows\arm-none-eabi\include\c++\10.2.1\cmath ****   { return __builtin_expf(__x); }
 224:c:\users\vincius\documents\daisytoolchain-0.3.1\windows\arm-none-eabi\include\c++\10.2.1\cmath **** 
 225:c:\users\vincius\documents\daisytoolchain-0.3.1\windows\arm-none-eabi\include\c++\10.2.1\cmath ****   inline _GLIBCXX_CONSTEXPR long double
 226:c:\users\vincius\documents\daisytoolchain-0.3.1\windows\arm-none-eabi\include\c++\10.2.1\cmath ****   exp(long double __x)
 227:c:\users\vincius\documents\daisytoolchain-0.3.1\windows\arm-none-eabi\include\c++\10.2.1\cmath ****   { return __builtin_expl(__x); }
 228:c:\users\vincius\documents\daisytoolchain-0.3.1\windows\arm-none-eabi\include\c++\10.2.1\cmath **** #endif
 229:c:\users\vincius\documents\daisytoolchain-0.3.1\windows\arm-none-eabi\include\c++\10.2.1\cmath **** 
 230:c:\users\vincius\documents\daisytoolchain-0.3.1\windows\arm-none-eabi\include\c++\10.2.1\cmath ****   template<typename _Tp>
 231:c:\users\vincius\documents\daisytoolchain-0.3.1\windows\arm-none-eabi\include\c++\10.2.1\cmath ****     inline _GLIBCXX_CONSTEXPR
 232:c:\users\vincius\documents\daisytoolchain-0.3.1\windows\arm-none-eabi\include\c++\10.2.1\cmath ****     typename __gnu_cxx::__enable_if<__is_integer<_Tp>::__value,
 233:c:\users\vincius\documents\daisytoolchain-0.3.1\windows\arm-none-eabi\include\c++\10.2.1\cmath ****                                     double>::__type
 234:c:\users\vincius\documents\daisytoolchain-0.3.1\windows\arm-none-eabi\include\c++\10.2.1\cmath ****     exp(_Tp __x)
 235:c:\users\vincius\documents\daisytoolchain-0.3.1\windows\arm-none-eabi\include\c++\10.2.1\cmath ****     { return __builtin_exp(__x); }
 236:c:\users\vincius\documents\daisytoolchain-0.3.1\windows\arm-none-eabi\include\c++\10.2.1\cmath **** 
 237:c:\users\vincius\documents\daisytoolchain-0.3.1\windows\arm-none-eabi\include\c++\10.2.1\cmath ****   using ::fabs;
 238:c:\users\vincius\documents\daisytoolchain-0.3.1\windows\arm-none-eabi\include\c++\10.2.1\cmath **** 
 239:c:\users\vincius\documents\daisytoolchain-0.3.1\windows\arm-none-eabi\include\c++\10.2.1\cmath **** #ifndef __CORRECT_ISO_CPP_MATH_H_PROTO
 240:c:\users\vincius\documents\daisytoolchain-0.3.1\windows\arm-none-eabi\include\c++\10.2.1\cmath ****   inline _GLIBCXX_CONSTEXPR float
 241:c:\users\vincius\documents\daisytoolchain-0.3.1\windows\arm-none-eabi\include\c++\10.2.1\cmath ****   fabs(float __x)
 242:c:\users\vincius\documents\daisytoolchain-0.3.1\windows\arm-none-eabi\include\c++\10.2.1\cmath ****   { return __builtin_fabsf(__x); }
 243:c:\users\vincius\documents\daisytoolchain-0.3.1\windows\arm-none-eabi\include\c++\10.2.1\cmath **** 
 244:c:\users\vincius\documents\daisytoolchain-0.3.1\windows\arm-none-eabi\include\c++\10.2.1\cmath ****   inline _GLIBCXX_CONSTEXPR long double
 245:c:\users\vincius\documents\daisytoolchain-0.3.1\windows\arm-none-eabi\include\c++\10.2.1\cmath ****   fabs(long double __x)
 246:c:\users\vincius\documents\daisytoolchain-0.3.1\windows\arm-none-eabi\include\c++\10.2.1\cmath ****   { return __builtin_fabsl(__x); }
 247:c:\users\vincius\documents\daisytoolchain-0.3.1\windows\arm-none-eabi\include\c++\10.2.1\cmath **** #endif
 248:c:\users\vincius\documents\daisytoolchain-0.3.1\windows\arm-none-eabi\include\c++\10.2.1\cmath **** 
 249:c:\users\vincius\documents\daisytoolchain-0.3.1\windows\arm-none-eabi\include\c++\10.2.1\cmath ****   template<typename _Tp>
 250:c:\users\vincius\documents\daisytoolchain-0.3.1\windows\arm-none-eabi\include\c++\10.2.1\cmath ****     inline _GLIBCXX_CONSTEXPR
 251:c:\users\vincius\documents\daisytoolchain-0.3.1\windows\arm-none-eabi\include\c++\10.2.1\cmath ****     typename __gnu_cxx::__enable_if<__is_integer<_Tp>::__value,
 252:c:\users\vincius\documents\daisytoolchain-0.3.1\windows\arm-none-eabi\include\c++\10.2.1\cmath ****                                     double>::__type
 253:c:\users\vincius\documents\daisytoolchain-0.3.1\windows\arm-none-eabi\include\c++\10.2.1\cmath ****     fabs(_Tp __x)
 254:c:\users\vincius\documents\daisytoolchain-0.3.1\windows\arm-none-eabi\include\c++\10.2.1\cmath ****     { return __builtin_fabs(__x); }
 255:c:\users\vincius\documents\daisytoolchain-0.3.1\windows\arm-none-eabi\include\c++\10.2.1\cmath **** 
 256:c:\users\vincius\documents\daisytoolchain-0.3.1\windows\arm-none-eabi\include\c++\10.2.1\cmath ****   using ::floor;
ARM GAS  C:\Users\VINCIU~1\AppData\Local\Temp\cc6Tz7la.s 			page 65


 257:c:\users\vincius\documents\daisytoolchain-0.3.1\windows\arm-none-eabi\include\c++\10.2.1\cmath **** 
 258:c:\users\vincius\documents\daisytoolchain-0.3.1\windows\arm-none-eabi\include\c++\10.2.1\cmath **** #ifndef __CORRECT_ISO_CPP_MATH_H_PROTO
 259:c:\users\vincius\documents\daisytoolchain-0.3.1\windows\arm-none-eabi\include\c++\10.2.1\cmath ****   inline _GLIBCXX_CONSTEXPR float
 260:c:\users\vincius\documents\daisytoolchain-0.3.1\windows\arm-none-eabi\include\c++\10.2.1\cmath ****   floor(float __x)
 261:c:\users\vincius\documents\daisytoolchain-0.3.1\windows\arm-none-eabi\include\c++\10.2.1\cmath ****   { return __builtin_floorf(__x); }
 262:c:\users\vincius\documents\daisytoolchain-0.3.1\windows\arm-none-eabi\include\c++\10.2.1\cmath **** 
 263:c:\users\vincius\documents\daisytoolchain-0.3.1\windows\arm-none-eabi\include\c++\10.2.1\cmath ****   inline _GLIBCXX_CONSTEXPR long double
 264:c:\users\vincius\documents\daisytoolchain-0.3.1\windows\arm-none-eabi\include\c++\10.2.1\cmath ****   floor(long double __x)
 265:c:\users\vincius\documents\daisytoolchain-0.3.1\windows\arm-none-eabi\include\c++\10.2.1\cmath ****   { return __builtin_floorl(__x); }
 266:c:\users\vincius\documents\daisytoolchain-0.3.1\windows\arm-none-eabi\include\c++\10.2.1\cmath **** #endif
 267:c:\users\vincius\documents\daisytoolchain-0.3.1\windows\arm-none-eabi\include\c++\10.2.1\cmath **** 
 268:c:\users\vincius\documents\daisytoolchain-0.3.1\windows\arm-none-eabi\include\c++\10.2.1\cmath ****   template<typename _Tp>
 269:c:\users\vincius\documents\daisytoolchain-0.3.1\windows\arm-none-eabi\include\c++\10.2.1\cmath ****     inline _GLIBCXX_CONSTEXPR
 270:c:\users\vincius\documents\daisytoolchain-0.3.1\windows\arm-none-eabi\include\c++\10.2.1\cmath ****     typename __gnu_cxx::__enable_if<__is_integer<_Tp>::__value,
 271:c:\users\vincius\documents\daisytoolchain-0.3.1\windows\arm-none-eabi\include\c++\10.2.1\cmath ****                                     double>::__type
 272:c:\users\vincius\documents\daisytoolchain-0.3.1\windows\arm-none-eabi\include\c++\10.2.1\cmath ****     floor(_Tp __x)
 273:c:\users\vincius\documents\daisytoolchain-0.3.1\windows\arm-none-eabi\include\c++\10.2.1\cmath ****     { return __builtin_floor(__x); }
 274:c:\users\vincius\documents\daisytoolchain-0.3.1\windows\arm-none-eabi\include\c++\10.2.1\cmath **** 
 275:c:\users\vincius\documents\daisytoolchain-0.3.1\windows\arm-none-eabi\include\c++\10.2.1\cmath ****   using ::fmod;
 276:c:\users\vincius\documents\daisytoolchain-0.3.1\windows\arm-none-eabi\include\c++\10.2.1\cmath **** 
 277:c:\users\vincius\documents\daisytoolchain-0.3.1\windows\arm-none-eabi\include\c++\10.2.1\cmath **** #ifndef __CORRECT_ISO_CPP_MATH_H_PROTO
 278:c:\users\vincius\documents\daisytoolchain-0.3.1\windows\arm-none-eabi\include\c++\10.2.1\cmath ****   inline _GLIBCXX_CONSTEXPR float
 279:c:\users\vincius\documents\daisytoolchain-0.3.1\windows\arm-none-eabi\include\c++\10.2.1\cmath ****   fmod(float __x, float __y)
 280:c:\users\vincius\documents\daisytoolchain-0.3.1\windows\arm-none-eabi\include\c++\10.2.1\cmath ****   { return __builtin_fmodf(__x, __y); }
 281:c:\users\vincius\documents\daisytoolchain-0.3.1\windows\arm-none-eabi\include\c++\10.2.1\cmath **** 
 282:c:\users\vincius\documents\daisytoolchain-0.3.1\windows\arm-none-eabi\include\c++\10.2.1\cmath ****   inline _GLIBCXX_CONSTEXPR long double
 283:c:\users\vincius\documents\daisytoolchain-0.3.1\windows\arm-none-eabi\include\c++\10.2.1\cmath ****   fmod(long double __x, long double __y)
 284:c:\users\vincius\documents\daisytoolchain-0.3.1\windows\arm-none-eabi\include\c++\10.2.1\cmath ****   { return __builtin_fmodl(__x, __y); }
 285:c:\users\vincius\documents\daisytoolchain-0.3.1\windows\arm-none-eabi\include\c++\10.2.1\cmath **** #endif
 286:c:\users\vincius\documents\daisytoolchain-0.3.1\windows\arm-none-eabi\include\c++\10.2.1\cmath **** 
 287:c:\users\vincius\documents\daisytoolchain-0.3.1\windows\arm-none-eabi\include\c++\10.2.1\cmath ****   template<typename _Tp, typename _Up>
 288:c:\users\vincius\documents\daisytoolchain-0.3.1\windows\arm-none-eabi\include\c++\10.2.1\cmath ****     inline _GLIBCXX_CONSTEXPR
 289:c:\users\vincius\documents\daisytoolchain-0.3.1\windows\arm-none-eabi\include\c++\10.2.1\cmath ****     typename __gnu_cxx::__promote_2<_Tp, _Up>::__type
 290:c:\users\vincius\documents\daisytoolchain-0.3.1\windows\arm-none-eabi\include\c++\10.2.1\cmath ****     fmod(_Tp __x, _Up __y)
 291:c:\users\vincius\documents\daisytoolchain-0.3.1\windows\arm-none-eabi\include\c++\10.2.1\cmath ****     {
 292:c:\users\vincius\documents\daisytoolchain-0.3.1\windows\arm-none-eabi\include\c++\10.2.1\cmath ****       typedef typename __gnu_cxx::__promote_2<_Tp, _Up>::__type __type;
 293:c:\users\vincius\documents\daisytoolchain-0.3.1\windows\arm-none-eabi\include\c++\10.2.1\cmath ****       return fmod(__type(__x), __type(__y));
 294:c:\users\vincius\documents\daisytoolchain-0.3.1\windows\arm-none-eabi\include\c++\10.2.1\cmath ****     }
 295:c:\users\vincius\documents\daisytoolchain-0.3.1\windows\arm-none-eabi\include\c++\10.2.1\cmath **** 
 296:c:\users\vincius\documents\daisytoolchain-0.3.1\windows\arm-none-eabi\include\c++\10.2.1\cmath ****   using ::frexp;
 297:c:\users\vincius\documents\daisytoolchain-0.3.1\windows\arm-none-eabi\include\c++\10.2.1\cmath **** 
 298:c:\users\vincius\documents\daisytoolchain-0.3.1\windows\arm-none-eabi\include\c++\10.2.1\cmath **** #ifndef __CORRECT_ISO_CPP_MATH_H_PROTO
 299:c:\users\vincius\documents\daisytoolchain-0.3.1\windows\arm-none-eabi\include\c++\10.2.1\cmath ****   inline float
 300:c:\users\vincius\documents\daisytoolchain-0.3.1\windows\arm-none-eabi\include\c++\10.2.1\cmath ****   frexp(float __x, int* __exp)
 301:c:\users\vincius\documents\daisytoolchain-0.3.1\windows\arm-none-eabi\include\c++\10.2.1\cmath ****   { return __builtin_frexpf(__x, __exp); }
 302:c:\users\vincius\documents\daisytoolchain-0.3.1\windows\arm-none-eabi\include\c++\10.2.1\cmath **** 
 303:c:\users\vincius\documents\daisytoolchain-0.3.1\windows\arm-none-eabi\include\c++\10.2.1\cmath ****   inline long double
 304:c:\users\vincius\documents\daisytoolchain-0.3.1\windows\arm-none-eabi\include\c++\10.2.1\cmath ****   frexp(long double __x, int* __exp)
 305:c:\users\vincius\documents\daisytoolchain-0.3.1\windows\arm-none-eabi\include\c++\10.2.1\cmath ****   { return __builtin_frexpl(__x, __exp); }
 306:c:\users\vincius\documents\daisytoolchain-0.3.1\windows\arm-none-eabi\include\c++\10.2.1\cmath **** #endif
 307:c:\users\vincius\documents\daisytoolchain-0.3.1\windows\arm-none-eabi\include\c++\10.2.1\cmath **** 
 308:c:\users\vincius\documents\daisytoolchain-0.3.1\windows\arm-none-eabi\include\c++\10.2.1\cmath ****   template<typename _Tp>
 309:c:\users\vincius\documents\daisytoolchain-0.3.1\windows\arm-none-eabi\include\c++\10.2.1\cmath ****     inline _GLIBCXX_CONSTEXPR
 310:c:\users\vincius\documents\daisytoolchain-0.3.1\windows\arm-none-eabi\include\c++\10.2.1\cmath ****     typename __gnu_cxx::__enable_if<__is_integer<_Tp>::__value, 
 311:c:\users\vincius\documents\daisytoolchain-0.3.1\windows\arm-none-eabi\include\c++\10.2.1\cmath ****                                     double>::__type
 312:c:\users\vincius\documents\daisytoolchain-0.3.1\windows\arm-none-eabi\include\c++\10.2.1\cmath ****     frexp(_Tp __x, int* __exp)
 313:c:\users\vincius\documents\daisytoolchain-0.3.1\windows\arm-none-eabi\include\c++\10.2.1\cmath ****     { return __builtin_frexp(__x, __exp); }
ARM GAS  C:\Users\VINCIU~1\AppData\Local\Temp\cc6Tz7la.s 			page 66


 314:c:\users\vincius\documents\daisytoolchain-0.3.1\windows\arm-none-eabi\include\c++\10.2.1\cmath **** 
 315:c:\users\vincius\documents\daisytoolchain-0.3.1\windows\arm-none-eabi\include\c++\10.2.1\cmath ****   using ::ldexp;
 316:c:\users\vincius\documents\daisytoolchain-0.3.1\windows\arm-none-eabi\include\c++\10.2.1\cmath **** 
 317:c:\users\vincius\documents\daisytoolchain-0.3.1\windows\arm-none-eabi\include\c++\10.2.1\cmath **** #ifndef __CORRECT_ISO_CPP_MATH_H_PROTO
 318:c:\users\vincius\documents\daisytoolchain-0.3.1\windows\arm-none-eabi\include\c++\10.2.1\cmath ****   inline _GLIBCXX_CONSTEXPR float
 319:c:\users\vincius\documents\daisytoolchain-0.3.1\windows\arm-none-eabi\include\c++\10.2.1\cmath ****   ldexp(float __x, int __exp)
 320:c:\users\vincius\documents\daisytoolchain-0.3.1\windows\arm-none-eabi\include\c++\10.2.1\cmath ****   { return __builtin_ldexpf(__x, __exp); }
 321:c:\users\vincius\documents\daisytoolchain-0.3.1\windows\arm-none-eabi\include\c++\10.2.1\cmath **** 
 322:c:\users\vincius\documents\daisytoolchain-0.3.1\windows\arm-none-eabi\include\c++\10.2.1\cmath ****   inline _GLIBCXX_CONSTEXPR long double
 323:c:\users\vincius\documents\daisytoolchain-0.3.1\windows\arm-none-eabi\include\c++\10.2.1\cmath ****   ldexp(long double __x, int __exp)
 324:c:\users\vincius\documents\daisytoolchain-0.3.1\windows\arm-none-eabi\include\c++\10.2.1\cmath ****   { return __builtin_ldexpl(__x, __exp); }
 325:c:\users\vincius\documents\daisytoolchain-0.3.1\windows\arm-none-eabi\include\c++\10.2.1\cmath **** #endif
 326:c:\users\vincius\documents\daisytoolchain-0.3.1\windows\arm-none-eabi\include\c++\10.2.1\cmath **** 
 327:c:\users\vincius\documents\daisytoolchain-0.3.1\windows\arm-none-eabi\include\c++\10.2.1\cmath ****   template<typename _Tp>
 328:c:\users\vincius\documents\daisytoolchain-0.3.1\windows\arm-none-eabi\include\c++\10.2.1\cmath ****     inline _GLIBCXX_CONSTEXPR
 329:c:\users\vincius\documents\daisytoolchain-0.3.1\windows\arm-none-eabi\include\c++\10.2.1\cmath ****     typename __gnu_cxx::__enable_if<__is_integer<_Tp>::__value, 
 330:c:\users\vincius\documents\daisytoolchain-0.3.1\windows\arm-none-eabi\include\c++\10.2.1\cmath ****                                     double>::__type
 331:c:\users\vincius\documents\daisytoolchain-0.3.1\windows\arm-none-eabi\include\c++\10.2.1\cmath ****     ldexp(_Tp __x, int __exp)
 332:c:\users\vincius\documents\daisytoolchain-0.3.1\windows\arm-none-eabi\include\c++\10.2.1\cmath ****     { return __builtin_ldexp(__x, __exp); }
 333:c:\users\vincius\documents\daisytoolchain-0.3.1\windows\arm-none-eabi\include\c++\10.2.1\cmath **** 
 334:c:\users\vincius\documents\daisytoolchain-0.3.1\windows\arm-none-eabi\include\c++\10.2.1\cmath ****   using ::log;
 335:c:\users\vincius\documents\daisytoolchain-0.3.1\windows\arm-none-eabi\include\c++\10.2.1\cmath **** 
 336:c:\users\vincius\documents\daisytoolchain-0.3.1\windows\arm-none-eabi\include\c++\10.2.1\cmath **** #ifndef __CORRECT_ISO_CPP_MATH_H_PROTO
 337:c:\users\vincius\documents\daisytoolchain-0.3.1\windows\arm-none-eabi\include\c++\10.2.1\cmath ****   inline _GLIBCXX_CONSTEXPR float
 338:c:\users\vincius\documents\daisytoolchain-0.3.1\windows\arm-none-eabi\include\c++\10.2.1\cmath ****   log(float __x)
 339:c:\users\vincius\documents\daisytoolchain-0.3.1\windows\arm-none-eabi\include\c++\10.2.1\cmath ****   { return __builtin_logf(__x); }
 340:c:\users\vincius\documents\daisytoolchain-0.3.1\windows\arm-none-eabi\include\c++\10.2.1\cmath **** 
 341:c:\users\vincius\documents\daisytoolchain-0.3.1\windows\arm-none-eabi\include\c++\10.2.1\cmath ****   inline _GLIBCXX_CONSTEXPR long double
 342:c:\users\vincius\documents\daisytoolchain-0.3.1\windows\arm-none-eabi\include\c++\10.2.1\cmath ****   log(long double __x)
 343:c:\users\vincius\documents\daisytoolchain-0.3.1\windows\arm-none-eabi\include\c++\10.2.1\cmath ****   { return __builtin_logl(__x); }
 344:c:\users\vincius\documents\daisytoolchain-0.3.1\windows\arm-none-eabi\include\c++\10.2.1\cmath **** #endif
 345:c:\users\vincius\documents\daisytoolchain-0.3.1\windows\arm-none-eabi\include\c++\10.2.1\cmath **** 
 346:c:\users\vincius\documents\daisytoolchain-0.3.1\windows\arm-none-eabi\include\c++\10.2.1\cmath ****   template<typename _Tp>
 347:c:\users\vincius\documents\daisytoolchain-0.3.1\windows\arm-none-eabi\include\c++\10.2.1\cmath ****     inline _GLIBCXX_CONSTEXPR
 348:c:\users\vincius\documents\daisytoolchain-0.3.1\windows\arm-none-eabi\include\c++\10.2.1\cmath ****     typename __gnu_cxx::__enable_if<__is_integer<_Tp>::__value, 
 349:c:\users\vincius\documents\daisytoolchain-0.3.1\windows\arm-none-eabi\include\c++\10.2.1\cmath ****                                     double>::__type
 350:c:\users\vincius\documents\daisytoolchain-0.3.1\windows\arm-none-eabi\include\c++\10.2.1\cmath ****     log(_Tp __x)
 351:c:\users\vincius\documents\daisytoolchain-0.3.1\windows\arm-none-eabi\include\c++\10.2.1\cmath ****     { return __builtin_log(__x); }
 352:c:\users\vincius\documents\daisytoolchain-0.3.1\windows\arm-none-eabi\include\c++\10.2.1\cmath **** 
 353:c:\users\vincius\documents\daisytoolchain-0.3.1\windows\arm-none-eabi\include\c++\10.2.1\cmath ****   using ::log10;
 354:c:\users\vincius\documents\daisytoolchain-0.3.1\windows\arm-none-eabi\include\c++\10.2.1\cmath **** 
 355:c:\users\vincius\documents\daisytoolchain-0.3.1\windows\arm-none-eabi\include\c++\10.2.1\cmath **** #ifndef __CORRECT_ISO_CPP_MATH_H_PROTO
 356:c:\users\vincius\documents\daisytoolchain-0.3.1\windows\arm-none-eabi\include\c++\10.2.1\cmath ****   inline _GLIBCXX_CONSTEXPR float
 357:c:\users\vincius\documents\daisytoolchain-0.3.1\windows\arm-none-eabi\include\c++\10.2.1\cmath ****   log10(float __x)
 358:c:\users\vincius\documents\daisytoolchain-0.3.1\windows\arm-none-eabi\include\c++\10.2.1\cmath ****   { return __builtin_log10f(__x); }
 359:c:\users\vincius\documents\daisytoolchain-0.3.1\windows\arm-none-eabi\include\c++\10.2.1\cmath **** 
 360:c:\users\vincius\documents\daisytoolchain-0.3.1\windows\arm-none-eabi\include\c++\10.2.1\cmath ****   inline _GLIBCXX_CONSTEXPR long double
 361:c:\users\vincius\documents\daisytoolchain-0.3.1\windows\arm-none-eabi\include\c++\10.2.1\cmath ****   log10(long double __x)
 362:c:\users\vincius\documents\daisytoolchain-0.3.1\windows\arm-none-eabi\include\c++\10.2.1\cmath ****   { return __builtin_log10l(__x); }
 363:c:\users\vincius\documents\daisytoolchain-0.3.1\windows\arm-none-eabi\include\c++\10.2.1\cmath **** #endif
 364:c:\users\vincius\documents\daisytoolchain-0.3.1\windows\arm-none-eabi\include\c++\10.2.1\cmath **** 
 365:c:\users\vincius\documents\daisytoolchain-0.3.1\windows\arm-none-eabi\include\c++\10.2.1\cmath ****   template<typename _Tp>
 366:c:\users\vincius\documents\daisytoolchain-0.3.1\windows\arm-none-eabi\include\c++\10.2.1\cmath ****     inline _GLIBCXX_CONSTEXPR
 367:c:\users\vincius\documents\daisytoolchain-0.3.1\windows\arm-none-eabi\include\c++\10.2.1\cmath ****     typename __gnu_cxx::__enable_if<__is_integer<_Tp>::__value,
 368:c:\users\vincius\documents\daisytoolchain-0.3.1\windows\arm-none-eabi\include\c++\10.2.1\cmath ****                                     double>::__type
 369:c:\users\vincius\documents\daisytoolchain-0.3.1\windows\arm-none-eabi\include\c++\10.2.1\cmath ****     log10(_Tp __x)
 370:c:\users\vincius\documents\daisytoolchain-0.3.1\windows\arm-none-eabi\include\c++\10.2.1\cmath ****     { return __builtin_log10(__x); }
ARM GAS  C:\Users\VINCIU~1\AppData\Local\Temp\cc6Tz7la.s 			page 67


 371:c:\users\vincius\documents\daisytoolchain-0.3.1\windows\arm-none-eabi\include\c++\10.2.1\cmath **** 
 372:c:\users\vincius\documents\daisytoolchain-0.3.1\windows\arm-none-eabi\include\c++\10.2.1\cmath ****   using ::modf;
 373:c:\users\vincius\documents\daisytoolchain-0.3.1\windows\arm-none-eabi\include\c++\10.2.1\cmath **** 
 374:c:\users\vincius\documents\daisytoolchain-0.3.1\windows\arm-none-eabi\include\c++\10.2.1\cmath **** #ifndef __CORRECT_ISO_CPP_MATH_H_PROTO
 375:c:\users\vincius\documents\daisytoolchain-0.3.1\windows\arm-none-eabi\include\c++\10.2.1\cmath ****   inline float
 376:c:\users\vincius\documents\daisytoolchain-0.3.1\windows\arm-none-eabi\include\c++\10.2.1\cmath ****   modf(float __x, float* __iptr)
 377:c:\users\vincius\documents\daisytoolchain-0.3.1\windows\arm-none-eabi\include\c++\10.2.1\cmath ****   { return __builtin_modff(__x, __iptr); }
 378:c:\users\vincius\documents\daisytoolchain-0.3.1\windows\arm-none-eabi\include\c++\10.2.1\cmath **** 
 379:c:\users\vincius\documents\daisytoolchain-0.3.1\windows\arm-none-eabi\include\c++\10.2.1\cmath ****   inline long double
 380:c:\users\vincius\documents\daisytoolchain-0.3.1\windows\arm-none-eabi\include\c++\10.2.1\cmath ****   modf(long double __x, long double* __iptr)
 381:c:\users\vincius\documents\daisytoolchain-0.3.1\windows\arm-none-eabi\include\c++\10.2.1\cmath ****   { return __builtin_modfl(__x, __iptr); }
 382:c:\users\vincius\documents\daisytoolchain-0.3.1\windows\arm-none-eabi\include\c++\10.2.1\cmath **** #endif
 383:c:\users\vincius\documents\daisytoolchain-0.3.1\windows\arm-none-eabi\include\c++\10.2.1\cmath **** 
 384:c:\users\vincius\documents\daisytoolchain-0.3.1\windows\arm-none-eabi\include\c++\10.2.1\cmath ****   using ::pow;
 385:c:\users\vincius\documents\daisytoolchain-0.3.1\windows\arm-none-eabi\include\c++\10.2.1\cmath **** 
 386:c:\users\vincius\documents\daisytoolchain-0.3.1\windows\arm-none-eabi\include\c++\10.2.1\cmath **** #ifndef __CORRECT_ISO_CPP_MATH_H_PROTO
 387:c:\users\vincius\documents\daisytoolchain-0.3.1\windows\arm-none-eabi\include\c++\10.2.1\cmath ****   inline _GLIBCXX_CONSTEXPR float
 388:c:\users\vincius\documents\daisytoolchain-0.3.1\windows\arm-none-eabi\include\c++\10.2.1\cmath ****   pow(float __x, float __y)
 389:c:\users\vincius\documents\daisytoolchain-0.3.1\windows\arm-none-eabi\include\c++\10.2.1\cmath ****   { return __builtin_powf(__x, __y); }
 390:c:\users\vincius\documents\daisytoolchain-0.3.1\windows\arm-none-eabi\include\c++\10.2.1\cmath **** 
 391:c:\users\vincius\documents\daisytoolchain-0.3.1\windows\arm-none-eabi\include\c++\10.2.1\cmath ****   inline _GLIBCXX_CONSTEXPR long double
 392:c:\users\vincius\documents\daisytoolchain-0.3.1\windows\arm-none-eabi\include\c++\10.2.1\cmath ****   pow(long double __x, long double __y)
 393:c:\users\vincius\documents\daisytoolchain-0.3.1\windows\arm-none-eabi\include\c++\10.2.1\cmath ****   { return __builtin_powl(__x, __y); }
 394:c:\users\vincius\documents\daisytoolchain-0.3.1\windows\arm-none-eabi\include\c++\10.2.1\cmath **** 
 395:c:\users\vincius\documents\daisytoolchain-0.3.1\windows\arm-none-eabi\include\c++\10.2.1\cmath **** #if __cplusplus < 201103L
 396:c:\users\vincius\documents\daisytoolchain-0.3.1\windows\arm-none-eabi\include\c++\10.2.1\cmath ****   // _GLIBCXX_RESOLVE_LIB_DEFECTS
 397:c:\users\vincius\documents\daisytoolchain-0.3.1\windows\arm-none-eabi\include\c++\10.2.1\cmath ****   // DR 550. What should the return type of pow(float,int) be?
 398:c:\users\vincius\documents\daisytoolchain-0.3.1\windows\arm-none-eabi\include\c++\10.2.1\cmath ****   inline double
 399:c:\users\vincius\documents\daisytoolchain-0.3.1\windows\arm-none-eabi\include\c++\10.2.1\cmath ****   pow(double __x, int __i)
 400:c:\users\vincius\documents\daisytoolchain-0.3.1\windows\arm-none-eabi\include\c++\10.2.1\cmath ****   { return __builtin_powi(__x, __i); }
 401:c:\users\vincius\documents\daisytoolchain-0.3.1\windows\arm-none-eabi\include\c++\10.2.1\cmath **** 
 402:c:\users\vincius\documents\daisytoolchain-0.3.1\windows\arm-none-eabi\include\c++\10.2.1\cmath ****   inline float
 403:c:\users\vincius\documents\daisytoolchain-0.3.1\windows\arm-none-eabi\include\c++\10.2.1\cmath ****   pow(float __x, int __n)
 404:c:\users\vincius\documents\daisytoolchain-0.3.1\windows\arm-none-eabi\include\c++\10.2.1\cmath ****   { return __builtin_powif(__x, __n); }
 405:c:\users\vincius\documents\daisytoolchain-0.3.1\windows\arm-none-eabi\include\c++\10.2.1\cmath **** 
 406:c:\users\vincius\documents\daisytoolchain-0.3.1\windows\arm-none-eabi\include\c++\10.2.1\cmath ****   inline long double
 407:c:\users\vincius\documents\daisytoolchain-0.3.1\windows\arm-none-eabi\include\c++\10.2.1\cmath ****   pow(long double __x, int __n)
 408:c:\users\vincius\documents\daisytoolchain-0.3.1\windows\arm-none-eabi\include\c++\10.2.1\cmath ****   { return __builtin_powil(__x, __n); }
 409:c:\users\vincius\documents\daisytoolchain-0.3.1\windows\arm-none-eabi\include\c++\10.2.1\cmath **** #endif
 410:c:\users\vincius\documents\daisytoolchain-0.3.1\windows\arm-none-eabi\include\c++\10.2.1\cmath **** #endif
 411:c:\users\vincius\documents\daisytoolchain-0.3.1\windows\arm-none-eabi\include\c++\10.2.1\cmath **** 
 412:c:\users\vincius\documents\daisytoolchain-0.3.1\windows\arm-none-eabi\include\c++\10.2.1\cmath ****   template<typename _Tp, typename _Up>
 413:c:\users\vincius\documents\daisytoolchain-0.3.1\windows\arm-none-eabi\include\c++\10.2.1\cmath ****     inline _GLIBCXX_CONSTEXPR
 414:c:\users\vincius\documents\daisytoolchain-0.3.1\windows\arm-none-eabi\include\c++\10.2.1\cmath ****     typename __gnu_cxx::__promote_2<_Tp, _Up>::__type
 415:c:\users\vincius\documents\daisytoolchain-0.3.1\windows\arm-none-eabi\include\c++\10.2.1\cmath ****     pow(_Tp __x, _Up __y)
 416:c:\users\vincius\documents\daisytoolchain-0.3.1\windows\arm-none-eabi\include\c++\10.2.1\cmath ****     {
 417:c:\users\vincius\documents\daisytoolchain-0.3.1\windows\arm-none-eabi\include\c++\10.2.1\cmath ****       typedef typename __gnu_cxx::__promote_2<_Tp, _Up>::__type __type;
 418:c:\users\vincius\documents\daisytoolchain-0.3.1\windows\arm-none-eabi\include\c++\10.2.1\cmath ****       return pow(__type(__x), __type(__y));
 419:c:\users\vincius\documents\daisytoolchain-0.3.1\windows\arm-none-eabi\include\c++\10.2.1\cmath ****     }
 420:c:\users\vincius\documents\daisytoolchain-0.3.1\windows\arm-none-eabi\include\c++\10.2.1\cmath **** 
 421:c:\users\vincius\documents\daisytoolchain-0.3.1\windows\arm-none-eabi\include\c++\10.2.1\cmath ****   using ::sin;
 422:c:\users\vincius\documents\daisytoolchain-0.3.1\windows\arm-none-eabi\include\c++\10.2.1\cmath **** 
 423:c:\users\vincius\documents\daisytoolchain-0.3.1\windows\arm-none-eabi\include\c++\10.2.1\cmath **** #ifndef __CORRECT_ISO_CPP_MATH_H_PROTO
 424:c:\users\vincius\documents\daisytoolchain-0.3.1\windows\arm-none-eabi\include\c++\10.2.1\cmath ****   inline _GLIBCXX_CONSTEXPR float
 425:c:\users\vincius\documents\daisytoolchain-0.3.1\windows\arm-none-eabi\include\c++\10.2.1\cmath ****   sin(float __x)
 426:c:\users\vincius\documents\daisytoolchain-0.3.1\windows\arm-none-eabi\include\c++\10.2.1\cmath ****   { return __builtin_sinf(__x); }
 1799              		.loc 18 426 26 view .LVU385
ARM GAS  C:\Users\VINCIU~1\AppData\Local\Temp\cc6Tz7la.s 			page 68


 1800 0068 B0EE680A 		vmov.f32	s0, s17
 1801 006c FFF7FEFF 		bl	sinf
 1802              	.LVL129:
 1803              	.LBE559:
 1804              	.LBE558:
 276:../../libdaisy/src/hid/disp/display.h ****         end_x   = cos(end_angle_rad) * radius;
 1805              		.loc 10 276 17 view .LVU386
 1806 0070 60EE698A 		vnmul.f32	s17, s0, s19
 1807              	.LVL130:
 1808              	.LBB561:
 1809              	.LBB562:
 185:c:\users\vincius\documents\daisytoolchain-0.3.1\windows\arm-none-eabi\include\c++\10.2.1\cmath **** 
 1810              		.loc 18 185 26 view .LVU387
 1811 0074 B0EE4A0A 		vmov.f32	s0, s20
 1812 0078 FFF7FEFF 		bl	cosf
 1813              	.LVL131:
 1814 007c B0EE409A 		vmov.f32	s18, s0
 1815              	.LBE562:
 1816              	.LBE561:
 1817              	.LBB564:
 1818              	.LBB565:
 1819              		.loc 18 426 26 view .LVU388
 1820 0080 B0EE4A0A 		vmov.f32	s0, s20
 1821 0084 FFF7FEFF 		bl	sinf
 1822              	.LVL132:
 1823              	.LBE565:
 1824              	.LBE564:
 278:../../libdaisy/src/hid/disp/display.h **** 
 1825              		.loc 10 278 17 view .LVU389
 1826 0088 20EE690A 		vnmul.f32	s0, s0, s19
 275:../../libdaisy/src/hid/disp/display.h ****         start_y = -sin(start_angle_rad) * radius;
 1827              		.loc 10 275 17 view .LVU390
 1828 008c 29EE888A 		vmul.f32	s16, s19, s16
 1829              	.LVL133:
 1830              	.LBB567:
 1831              	.LBI558:
 425:c:\users\vincius\documents\daisytoolchain-0.3.1\windows\arm-none-eabi\include\c++\10.2.1\cmath ****   { return __builtin_sinf(__x); }
 1832              		.loc 18 425 3 is_stmt 1 view .LVU391
 1833              	.LBB560:
 1834              		.loc 18 426 5 view .LVU392
 1835              		.loc 18 426 5 is_stmt 0 view .LVU393
 1836              	.LBE560:
 1837              	.LBE567:
 1838              	.LBB568:
 1839              	.LBI561:
 184:c:\users\vincius\documents\daisytoolchain-0.3.1\windows\arm-none-eabi\include\c++\10.2.1\cmath ****   { return __builtin_cosf(__x); }
 1840              		.loc 18 184 3 is_stmt 1 view .LVU394
 1841              	.LBB563:
 185:c:\users\vincius\documents\daisytoolchain-0.3.1\windows\arm-none-eabi\include\c++\10.2.1\cmath **** 
 1842              		.loc 18 185 5 view .LVU395
 185:c:\users\vincius\documents\daisytoolchain-0.3.1\windows\arm-none-eabi\include\c++\10.2.1\cmath **** 
 1843              		.loc 18 185 5 is_stmt 0 view .LVU396
 1844              	.LBE563:
 1845              	.LBE568:
 277:../../libdaisy/src/hid/disp/display.h ****         end_y   = -sin(end_angle_rad) * radius;
 1846              		.loc 10 277 17 view .LVU397
 1847 0090 29EE899A 		vmul.f32	s18, s19, s18
ARM GAS  C:\Users\VINCIU~1\AppData\Local\Temp\cc6Tz7la.s 			page 69


 1848              	.LVL134:
 1849              	.LBB569:
 1850              	.LBI564:
 425:c:\users\vincius\documents\daisytoolchain-0.3.1\windows\arm-none-eabi\include\c++\10.2.1\cmath ****   { return __builtin_sinf(__x); }
 1851              		.loc 18 425 3 is_stmt 1 view .LVU398
 1852              	.LBB566:
 1853              		.loc 18 426 5 view .LVU399
 1854              		.loc 18 426 5 is_stmt 0 view .LVU400
 1855              	.LBE566:
 1856              	.LBE569:
 282:../../libdaisy/src/hid/disp/display.h ****            < 2.0f)
 1857              		.loc 10 282 25 view .LVU401
 1858 0094 70EE687A 		vsub.f32	s15, s0, s17
 281:../../libdaisy/src/hid/disp/display.h ****                + (end_y - start_y) * (end_y - start_y)
 1859              		.loc 10 281 9 view .LVU402
 1860 0098 F0EE006A 		vmov.f32	s13, #2.0e+0
 281:../../libdaisy/src/hid/disp/display.h ****                + (end_y - start_y) * (end_y - start_y)
 1861              		.loc 10 281 19 view .LVU403
 1862 009c 39EE487A 		vsub.f32	s14, s18, s16
 282:../../libdaisy/src/hid/disp/display.h ****            < 2.0f)
 1863              		.loc 10 282 36 view .LVU404
 1864 00a0 67EEA77A 		vmul.f32	s15, s15, s15
 282:../../libdaisy/src/hid/disp/display.h ****            < 2.0f)
 1865              		.loc 10 282 16 view .LVU405
 1866 00a4 E7EE077A 		vfma.f32	s15, s14, s14
 281:../../libdaisy/src/hid/disp/display.h ****                + (end_y - start_y) * (end_y - start_y)
 1867              		.loc 10 281 9 view .LVU406
 1868 00a8 F4EEE67A 		vcmpe.f32	s15, s13
 1869 00ac F1EE10FA 		vmrs	APSR_nzcv, FPSCR
 1870 00b0 06D5     		bpl	.L172
 285:../../libdaisy/src/hid/disp/display.h ****                 circle = true;
 1871              		.loc 10 285 13 view .LVU407
 1872 00b2 139B     		ldr	r3, [sp, #76]
 1873 00b4 B42B     		cmp	r3, #180
 1874 00b6 40F39680 		ble	.L113
 286:../../libdaisy/src/hid/disp/display.h ****             else
 1875              		.loc 10 286 24 view .LVU408
 1876 00ba 4FF00109 		mov	r9, #1
 1877 00be 01E0     		b	.L116
 1878              	.L172:
 264:../../libdaisy/src/hid/disp/display.h **** 
 1879              		.loc 10 264 14 view .LVU409
 1880 00c0 4FF00009 		mov	r9, #0
 1881              	.L116:
 1882              	.LVL135:
 262:../../libdaisy/src/hid/disp/display.h **** 
 1883              		.loc 10 262 27 view .LVU410
 1884 00c4 0124     		movs	r4, #1
 292:../../libdaisy/src/hid/disp/display.h ****         t_y = 0;
 1885              		.loc 10 292 13 view .LVU411
 1886 00c6 7842     		rsbs	r0, r7, #0
 1887              	.LVL136:
 293:../../libdaisy/src/hid/disp/display.h ****         err = 2 - 2 * radius;
 1888              		.loc 10 293 13 view .LVU412
 1889 00c8 4FF0000C 		mov	ip, #0
 1890 00cc 0095     		str	r5, [sp]
 294:../../libdaisy/src/hid/disp/display.h **** 
ARM GAS  C:\Users\VINCIU~1\AppData\Local\Temp\cc6Tz7la.s 			page 70


 1891              		.loc 10 294 17 view .LVU413
 1892 00ce E31B     		subs	r3, r4, r7
 262:../../libdaisy/src/hid/disp/display.h **** 
 1893              		.loc 10 262 17 view .LVU414
 1894 00d0 2146     		mov	r1, r4
 262:../../libdaisy/src/hid/disp/display.h **** 
 1895              		.loc 10 262 22 view .LVU415
 1896 00d2 2746     		mov	r7, r4
 1897              	.LVL137:
 262:../../libdaisy/src/hid/disp/display.h **** 
 1898              		.loc 10 262 12 view .LVU416
 1899 00d4 2246     		mov	r2, r4
 294:../../libdaisy/src/hid/disp/display.h **** 
 1900              		.loc 10 294 17 view .LVU417
 1901 00d6 A340     		lsls	r3, r3, r4
 1902              	.LVL138:
 1903              	.L142:
 298:../../libdaisy/src/hid/disp/display.h ****             {
 1904              		.loc 10 298 13 view .LVU418
 1905 00d8 B9F1000F 		cmp	r9, #0
 1906 00dc 6AD1     		bne	.L118
 303:../../libdaisy/src/hid/disp/display.h ****                 t_exy  = end_x * t_y;
 1907              		.loc 10 303 34 view .LVU419
 1908 00de 4242     		rsbs	r2, r0, #0
 1909              	.LVL139:
 300:../../libdaisy/src/hid/disp/display.h ****                 t_syx  = start_y * t_x;
 1910              		.loc 10 300 24 view .LVU420
 1911 00e0 06EE90CA 		vmov	s13, ip	@ int
 302:../../libdaisy/src/hid/disp/display.h ****                 t_synx = start_y * -t_x;
 1912              		.loc 10 302 34 view .LVU421
 1913 00e4 CCF10001 		rsb	r1, ip, #0
 1914              	.LVL140:
 303:../../libdaisy/src/hid/disp/display.h ****                 t_exy  = end_x * t_y;
 1915              		.loc 10 303 34 view .LVU422
 1916 00e8 07EE102A 		vmov	s14, r2	@ int
 300:../../libdaisy/src/hid/disp/display.h ****                 t_syx  = start_y * t_x;
 1917              		.loc 10 300 24 view .LVU423
 1918 00ec B8EEE66A 		vcvt.f32.s32	s12, s13
 302:../../libdaisy/src/hid/disp/display.h ****                 t_synx = start_y * -t_x;
 1919              		.loc 10 302 34 view .LVU424
 1920 00f0 07EE901A 		vmov	s15, r1	@ int
 301:../../libdaisy/src/hid/disp/display.h ****                 t_sxny = start_x * -t_y;
 1921              		.loc 10 301 24 view .LVU425
 1922 00f4 06EE900A 		vmov	s13, r0	@ int
 303:../../libdaisy/src/hid/disp/display.h ****                 t_exy  = end_x * t_y;
 1923              		.loc 10 303 34 view .LVU426
 1924 00f8 B8EEC77A 		vcvt.f32.s32	s14, s14
 309:../../libdaisy/src/hid/disp/display.h ****                 {
 1925              		.loc 10 309 17 view .LVU427
 1926 00fc 139A     		ldr	r2, [sp, #76]
 300:../../libdaisy/src/hid/disp/display.h ****                 t_syx  = start_y * t_x;
 1927              		.loc 10 300 24 view .LVU428
 1928 00fe 66EE084A 		vmul.f32	s9, s12, s16
 1929              	.LVL141:
 302:../../libdaisy/src/hid/disp/display.h ****                 t_synx = start_y * -t_x;
 1930              		.loc 10 302 34 view .LVU429
 1931 0102 F8EEE77A 		vcvt.f32.s32	s15, s15
ARM GAS  C:\Users\VINCIU~1\AppData\Local\Temp\cc6Tz7la.s 			page 71


 309:../../libdaisy/src/hid/disp/display.h ****                 {
 1932              		.loc 10 309 17 view .LVU430
 1933 0106 B42A     		cmp	r2, #180
 303:../../libdaisy/src/hid/disp/display.h ****                 t_exy  = end_x * t_y;
 1934              		.loc 10 303 24 view .LVU431
 1935 0108 27EE284A 		vmul.f32	s8, s14, s17
 301:../../libdaisy/src/hid/disp/display.h ****                 t_sxny = start_x * -t_y;
 1936              		.loc 10 301 24 view .LVU432
 1937 010c F8EEE66A 		vcvt.f32.s32	s13, s13
 302:../../libdaisy/src/hid/disp/display.h ****                 t_synx = start_y * -t_x;
 1938              		.loc 10 302 24 view .LVU433
 1939 0110 67EE885A 		vmul.f32	s11, s15, s16
 311:../../libdaisy/src/hid/disp/display.h ****                     d2 = (t_sxy - t_syx < 0 || t_exy - t_eyx > 0);
 1940              		.loc 10 311 33 view .LVU434
 1941 0114 74EEC43A 		vsub.f32	s7, s9, s8
 301:../../libdaisy/src/hid/disp/display.h ****                 t_sxny = start_x * -t_y;
 1942              		.loc 10 301 24 view .LVU435
 1943 0118 26EEA85A 		vmul.f32	s10, s13, s17
 1944              	.LVL142:
 304:../../libdaisy/src/hid/disp/display.h ****                 t_eyx  = end_y * t_x;
 1945              		.loc 10 304 24 view .LVU436
 1946 011c 26EE096A 		vmul.f32	s12, s12, s18
 1947              	.LVL143:
 305:../../libdaisy/src/hid/disp/display.h ****                 t_exny = end_x * -t_y;
 1948              		.loc 10 305 24 view .LVU437
 1949 0120 66EE806A 		vmul.f32	s13, s13, s0
 1950              	.LVL144:
 306:../../libdaisy/src/hid/disp/display.h ****                 t_eynx = end_y * -t_x;
 1951              		.loc 10 306 24 view .LVU438
 1952 0124 67EE897A 		vmul.f32	s15, s15, s18
 1953              	.LVL145:
 307:../../libdaisy/src/hid/disp/display.h **** 
 1954              		.loc 10 307 24 view .LVU439
 1955 0128 27EE007A 		vmul.f32	s14, s14, s0
 1956              	.LVL146:
 311:../../libdaisy/src/hid/disp/display.h ****                     d2 = (t_sxy - t_syx < 0 || t_exy - t_eyx > 0);
 1957              		.loc 10 311 46 view .LVU440
 1958 012c F5EEC03A 		vcmpe.f32	s7, #0
 309:../../libdaisy/src/hid/disp/display.h ****                 {
 1959              		.loc 10 309 17 view .LVU441
 1960 0130 40F3F280 		ble	.L119
 311:../../libdaisy/src/hid/disp/display.h ****                     d2 = (t_sxy - t_syx < 0 || t_exy - t_eyx > 0);
 1961              		.loc 10 311 46 view .LVU442
 1962 0134 F1EE10FA 		vmrs	APSR_nzcv, FPSCR
 1963 0138 00F17F81 		bmi	.L145
 311:../../libdaisy/src/hid/disp/display.h ****                     d2 = (t_sxy - t_syx < 0 || t_exy - t_eyx > 0);
 1964              		.loc 10 311 55 discriminator 2 view .LVU443
 1965 013c 76EE473A 		vsub.f32	s7, s12, s14
 312:../../libdaisy/src/hid/disp/display.h ****                     d3 = (t_sxny - t_syx < 0 || t_exny - t_eyx > 0);
 1966              		.loc 10 312 33 discriminator 2 view .LVU444
 1967 0140 74EEC54A 		vsub.f32	s9, s9, s10
 1968              	.LVL147:
 311:../../libdaisy/src/hid/disp/display.h ****                     d2 = (t_sxy - t_syx < 0 || t_exy - t_eyx > 0);
 1969              		.loc 10 311 46 discriminator 2 view .LVU445
 1970 0144 F5EEC03A 		vcmpe.f32	s7, #0
 1971 0148 F1EE10FA 		vmrs	APSR_nzcv, FPSCR
 312:../../libdaisy/src/hid/disp/display.h ****                     d3 = (t_sxny - t_syx < 0 || t_exny - t_eyx > 0);
ARM GAS  C:\Users\VINCIU~1\AppData\Local\Temp\cc6Tz7la.s 			page 72


 1972              		.loc 10 312 45 discriminator 2 view .LVU446
 1973 014c F5EEC04A 		vcmpe.f32	s9, #0
 311:../../libdaisy/src/hid/disp/display.h ****                     d2 = (t_sxy - t_syx < 0 || t_exy - t_eyx > 0);
 1974              		.loc 10 311 46 discriminator 2 view .LVU447
 1975 0150 CCBF     		ite	gt
 1976 0152 0122     		movgt	r2, #1
 1977 0154 0022     		movle	r2, #0
 1978              	.LVL148:
 312:../../libdaisy/src/hid/disp/display.h ****                     d3 = (t_sxny - t_syx < 0 || t_exny - t_eyx > 0);
 1979              		.loc 10 312 45 discriminator 2 view .LVU448
 1980 0156 F1EE10FA 		vmrs	APSR_nzcv, FPSCR
 1981 015a 00F17781 		bmi	.L146
 1982              	.L188:
 312:../../libdaisy/src/hid/disp/display.h ****                     d3 = (t_sxny - t_syx < 0 || t_exny - t_eyx > 0);
 1983              		.loc 10 312 54 discriminator 2 view .LVU449
 1984 015e 36EE666A 		vsub.f32	s12, s12, s13
 1985              	.LVL149:
 313:../../libdaisy/src/hid/disp/display.h ****                     d4 = (t_sxny - t_synx < 0 || t_exny - t_eynx > 0);
 1986              		.loc 10 313 34 discriminator 2 view .LVU450
 1987 0162 35EEC55A 		vsub.f32	s10, s11, s10
 1988              	.LVL150:
 312:../../libdaisy/src/hid/disp/display.h ****                     d3 = (t_sxny - t_syx < 0 || t_exny - t_eyx > 0);
 1989              		.loc 10 312 45 discriminator 2 view .LVU451
 1990 0166 B5EEC06A 		vcmpe.f32	s12, #0
 1991 016a F1EE10FA 		vmrs	APSR_nzcv, FPSCR
 313:../../libdaisy/src/hid/disp/display.h ****                     d4 = (t_sxny - t_synx < 0 || t_exny - t_eynx > 0);
 1992              		.loc 10 313 46 discriminator 2 view .LVU452
 1993 016e B5EEC05A 		vcmpe.f32	s10, #0
 312:../../libdaisy/src/hid/disp/display.h ****                     d3 = (t_sxny - t_syx < 0 || t_exny - t_eyx > 0);
 1994              		.loc 10 312 45 discriminator 2 view .LVU453
 1995 0172 CCBF     		ite	gt
 1996 0174 0121     		movgt	r1, #1
 1997 0176 0021     		movle	r1, #0
 1998              	.LVL151:
 313:../../libdaisy/src/hid/disp/display.h ****                     d4 = (t_sxny - t_synx < 0 || t_exny - t_eynx > 0);
 1999              		.loc 10 313 46 discriminator 2 view .LVU454
 2000 0178 F1EE10FA 		vmrs	APSR_nzcv, FPSCR
 2001 017c 00F16F81 		bmi	.L147
 2002              	.L189:
 313:../../libdaisy/src/hid/disp/display.h ****                     d4 = (t_sxny - t_synx < 0 || t_exny - t_eynx > 0);
 2003              		.loc 10 313 56 discriminator 2 view .LVU455
 2004 0180 77EEE66A 		vsub.f32	s13, s15, s13
 2005              	.LVL152:
 313:../../libdaisy/src/hid/disp/display.h ****                     d4 = (t_sxny - t_synx < 0 || t_exny - t_eynx > 0);
 2006              		.loc 10 313 46 discriminator 2 view .LVU456
 2007 0184 F5EEC06A 		vcmpe.f32	s13, #0
 2008 0188 F1EE10FA 		vmrs	APSR_nzcv, FPSCR
 2009 018c CCBF     		ite	gt
 2010 018e 0127     		movgt	r7, #1
 2011              	.LVL153:
 313:../../libdaisy/src/hid/disp/display.h ****                     d4 = (t_sxny - t_synx < 0 || t_exny - t_eynx > 0);
 2012              		.loc 10 313 46 discriminator 2 view .LVU457
 2013 0190 0027     		movle	r7, #0
 2014              	.L122:
 2015              	.LVL154:
 314:../../libdaisy/src/hid/disp/display.h ****                 }
 2016              		.loc 10 314 34 discriminator 6 view .LVU458
ARM GAS  C:\Users\VINCIU~1\AppData\Local\Temp\cc6Tz7la.s 			page 73


 2017 0192 75EEC45A 		vsub.f32	s11, s11, s8
 2018              	.LVL155:
 314:../../libdaisy/src/hid/disp/display.h ****                 }
 2019              		.loc 10 314 47 discriminator 6 view .LVU459
 2020 0196 F5EEC05A 		vcmpe.f32	s11, #0
 2021 019a F1EE10FA 		vmrs	APSR_nzcv, FPSCR
 2022 019e 00F14781 		bmi	.L148
 2023              	.L178:
 321:../../libdaisy/src/hid/disp/display.h ****                 }
 2024              		.loc 10 321 57 discriminator 1 view .LVU460
 2025 01a2 77EEC77A 		vsub.f32	s15, s15, s14
 2026              	.LVL156:
 321:../../libdaisy/src/hid/disp/display.h ****                 }
 2027              		.loc 10 321 47 discriminator 1 view .LVU461
 2028 01a6 F5EEC07A 		vcmpe.f32	s15, #0
 2029 01aa F1EE10FA 		vmrs	APSR_nzcv, FPSCR
 2030 01ae CCBF     		ite	gt
 2031 01b0 0124     		movgt	r4, #1
 2032              	.LVL157:
 321:../../libdaisy/src/hid/disp/display.h ****                 }
 2033              		.loc 10 321 47 discriminator 1 view .LVU462
 2034 01b2 0024     		movle	r4, #0
 2035              	.LVL158:
 2036              	.L118:
 325:../../libdaisy/src/hid/disp/display.h ****                 ((ChildType*)(this))
 2037              		.loc 10 325 13 view .LVU463
 2038 01b4 002A     		cmp	r2, #0
 2039 01b6 40F08A80 		bne	.L179
 2040              	.L130:
 328:../../libdaisy/src/hid/disp/display.h ****                 ((ChildType*)(this))
 2041              		.loc 10 328 13 view .LVU464
 2042 01ba 0029     		cmp	r1, #0
 2043 01bc 64D1     		bne	.L180
 2044              	.L132:
 331:../../libdaisy/src/hid/disp/display.h ****                 ((ChildType*)(this))
 2045              		.loc 10 331 13 view .LVU465
 2046 01be BFB9     		cbnz	r7, .L181
 2047              	.L134:
 334:../../libdaisy/src/hid/disp/display.h ****                 ((ChildType*)(this))
 2048              		.loc 10 334 13 view .LVU466
 2049 01c0 C4BB     		cbnz	r4, .L182
 2050              	.L136:
 2051              	.LVL159:
 339:../../libdaisy/src/hid/disp/display.h ****             {
 2052              		.loc 10 339 13 view .LVU467
 2053 01c2 9C45     		cmp	ip, r3
 2054 01c4 58DB     		blt	.L153
 2055              	.L184:
 341:../../libdaisy/src/hid/disp/display.h ****                 err = err + (t_y * 2 + 1);
 2056              		.loc 10 341 17 view .LVU468
 2057 01c6 0CF1010C 		add	ip, ip, #1
 2058              	.LVL160:
 342:../../libdaisy/src/hid/disp/display.h ****                 if(-t_x == t_y && e2 <= t_x)
 2059              		.loc 10 342 38 view .LVU469
 2060 01ca 03EB4C0E 		add	lr, r3, ip, lsl #1
 343:../../libdaisy/src/hid/disp/display.h ****                 {
 2061              		.loc 10 343 17 view .LVU470
ARM GAS  C:\Users\VINCIU~1\AppData\Local\Temp\cc6Tz7la.s 			page 74


 2062 01ce 1CEB000F 		cmn	ip, r0
 342:../../libdaisy/src/hid/disp/display.h ****                 if(-t_x == t_y && e2 <= t_x)
 2063              		.loc 10 342 21 view .LVU471
 2064 01d2 0EF1010E 		add	lr, lr, #1
 2065              	.LVL161:
 343:../../libdaisy/src/hid/disp/display.h ****                 {
 2066              		.loc 10 343 17 view .LVU472
 2067 01d6 00F0C080 		beq	.L183
 2068              	.LVL162:
 2069              	.L138:
 348:../../libdaisy/src/hid/disp/display.h ****             {
 2070              		.loc 10 348 13 view .LVU473
 2071 01da 9842     		cmp	r0, r3
 2072 01dc 4FDB     		blt	.L139
 2073              	.L154:
 348:../../libdaisy/src/hid/disp/display.h ****             {
 2074              		.loc 10 348 13 view .LVU474
 2075 01de 7346     		mov	r3, lr
 2076              	.LVL163:
 2077              	.L140:
 353:../../libdaisy/src/hid/disp/display.h ****     }
 2078              		.loc 10 353 21 is_stmt 1 view .LVU475
 2079 01e0 0028     		cmp	r0, #0
 2080 01e2 7FF779AF 		ble	.L142
 2081              	.LVL164:
 2082              	.L113:
 354:../../libdaisy/src/hid/disp/display.h **** 
 2083              		.loc 10 354 5 is_stmt 0 view .LVU476
 2084 01e6 03B0     		add	sp, sp, #12
 2085              		.cfi_remember_state
 2086              		.cfi_def_cfa_offset 60
 2087              		@ sp needed
 2088 01e8 BDEC068B 		vldm	sp!, {d8-d10}
 2089              		.cfi_restore 84
 2090              		.cfi_restore 85
 2091              		.cfi_restore 82
 2092              		.cfi_restore 83
 2093              		.cfi_restore 80
 2094              		.cfi_restore 81
 2095              		.cfi_def_cfa_offset 36
 2096              	.LVL165:
 354:../../libdaisy/src/hid/disp/display.h **** 
 2097              		.loc 10 354 5 view .LVU477
 2098 01ec BDE8F08F 		pop	{r4, r5, r6, r7, r8, r9, r10, fp, pc}
 2099              	.LVL166:
 2100              	.L181:
 2101              		.cfi_restore_state
 333:../../libdaisy/src/hid/disp/display.h ****             if(d4)
 2102              		.loc 10 333 43 view .LVU478
 2103 01f0 009D     		ldr	r5, [sp]
 2104 01f2 A6EB0C0E 		sub	lr, r6, ip
 2105 01f6 00EB050A 		add	r10, r0, r5
 2106              	.LVL167:
 2107              	.LBB570:
 2108              	.LBI570:
  41:../../libdaisy/src/hid/disp/oled_display.h ****     {
 2109              		.loc 8 41 10 is_stmt 1 view .LVU479
ARM GAS  C:\Users\VINCIU~1\AppData\Local\Temp\cc6Tz7la.s 			page 75


 2110              	.LBB571:
 2111              	.LBI571:
 239:../../libdaisy/src/dev/oled_ssd130x.h ****     {
 2112              		.loc 15 239 10 view .LVU480
 2113              	.LBB572:
 241:../../libdaisy/src/dev/oled_ssd130x.h ****             return;
 2114              		.loc 15 241 9 is_stmt 0 view .LVU481
 2115 01fa BAF17F0F 		cmp	r10, #127
 2116 01fe DFD8     		bhi	.L134
 2117 0200 BEF13F0F 		cmp	lr, #63
 2118 0204 DCD8     		bhi	.L134
 244:../../libdaisy/src/dev/oled_ssd130x.h ****         else
 2119              		.loc 15 244 28 view .LVU482
 2120 0206 4FEADE0B 		lsr	fp, lr, #3
 243:../../libdaisy/src/dev/oled_ssd130x.h ****             buffer_[x + (y / 8) * width] |= (1 << (y % 8));
 2121              		.loc 15 243 9 view .LVU483
 2122 020a 019D     		ldr	r5, [sp, #4]
 244:../../libdaisy/src/dev/oled_ssd130x.h ****         else
 2123              		.loc 15 244 42 view .LVU484
 2124 020c 0AEBCB1A 		add	r10, r10, fp, lsl #7
 2125              	.LVL168:
 243:../../libdaisy/src/dev/oled_ssd130x.h ****             buffer_[x + (y / 8) * width] |= (1 << (y % 8));
 2126              		.loc 15 243 9 view .LVU485
 2127 0210 002D     		cmp	r5, #0
 2128 0212 00F0B180 		beq	.L135
 244:../../libdaisy/src/dev/oled_ssd130x.h ****         else
 2129              		.loc 15 244 54 view .LVU486
 2130 0216 0EF0070B 		and	fp, lr, #7
 244:../../libdaisy/src/dev/oled_ssd130x.h ****         else
 2131              		.loc 15 244 42 view .LVU487
 2132 021a C244     		add	r10, r10, r8
 244:../../libdaisy/src/dev/oled_ssd130x.h ****         else
 2133              		.loc 15 244 48 view .LVU488
 2134 021c 4FF0010E 		mov	lr, #1
 2135              	.LVL169:
 244:../../libdaisy/src/dev/oled_ssd130x.h ****         else
 2136              		.loc 15 244 48 view .LVU489
 2137 0220 0EFA0BFE 		lsl	lr, lr, fp
 244:../../libdaisy/src/dev/oled_ssd130x.h ****         else
 2138              		.loc 15 244 42 view .LVU490
 2139 0224 9AF814B0 		ldrb	fp, [r10, #20]	@ zero_extendqisi2
 2140 0228 4EEA0B0E 		orr	lr, lr, fp
 2141 022c 8AF814E0 		strb	lr, [r10, #20]
 2142              	.LVL170:
 244:../../libdaisy/src/dev/oled_ssd130x.h ****         else
 2143              		.loc 15 244 42 view .LVU491
 2144              	.LBE572:
 2145              	.LBE571:
 2146              	.LBE570:
 334:../../libdaisy/src/hid/disp/display.h ****                 ((ChildType*)(this))
 2147              		.loc 10 334 13 view .LVU492
 2148 0230 002C     		cmp	r4, #0
 2149 0232 C6D0     		beq	.L136
 2150              	.L182:
 336:../../libdaisy/src/hid/disp/display.h **** 
 2151              		.loc 10 336 43 view .LVU493
 2152 0234 009D     		ldr	r5, [sp]
ARM GAS  C:\Users\VINCIU~1\AppData\Local\Temp\cc6Tz7la.s 			page 76


 2153 0236 A6EB0C0E 		sub	lr, r6, ip
 2154 023a A5EB000A 		sub	r10, r5, r0
 2155              	.LVL171:
 2156              	.LBB577:
 2157              	.LBI577:
  41:../../libdaisy/src/hid/disp/oled_display.h ****     {
 2158              		.loc 8 41 10 is_stmt 1 view .LVU494
 2159              	.LBB578:
 2160              	.LBI578:
 239:../../libdaisy/src/dev/oled_ssd130x.h ****     {
 2161              		.loc 15 239 10 view .LVU495
 2162              	.LBB579:
 241:../../libdaisy/src/dev/oled_ssd130x.h ****             return;
 2163              		.loc 15 241 9 is_stmt 0 view .LVU496
 2164 023e BAF17F0F 		cmp	r10, #127
 2165 0242 BED8     		bhi	.L136
 2166 0244 BEF13F0F 		cmp	lr, #63
 2167 0248 BBD8     		bhi	.L136
 244:../../libdaisy/src/dev/oled_ssd130x.h ****         else
 2168              		.loc 15 244 28 view .LVU497
 2169 024a 4FEADE0B 		lsr	fp, lr, #3
 243:../../libdaisy/src/dev/oled_ssd130x.h ****             buffer_[x + (y / 8) * width] |= (1 << (y % 8));
 2170              		.loc 15 243 9 view .LVU498
 2171 024e 019D     		ldr	r5, [sp, #4]
 244:../../libdaisy/src/dev/oled_ssd130x.h ****         else
 2172              		.loc 15 244 42 view .LVU499
 2173 0250 0AEBCB1A 		add	r10, r10, fp, lsl #7
 2174              	.LVL172:
 243:../../libdaisy/src/dev/oled_ssd130x.h ****             buffer_[x + (y / 8) * width] |= (1 << (y % 8));
 2175              		.loc 15 243 9 view .LVU500
 2176 0254 002D     		cmp	r5, #0
 2177 0256 00F0AE80 		beq	.L137
 244:../../libdaisy/src/dev/oled_ssd130x.h ****         else
 2178              		.loc 15 244 54 view .LVU501
 2179 025a 0EF0070B 		and	fp, lr, #7
 244:../../libdaisy/src/dev/oled_ssd130x.h ****         else
 2180              		.loc 15 244 42 view .LVU502
 2181 025e C244     		add	r10, r10, r8
 244:../../libdaisy/src/dev/oled_ssd130x.h ****         else
 2182              		.loc 15 244 48 view .LVU503
 2183 0260 4FF0010E 		mov	lr, #1
 2184              	.LVL173:
 244:../../libdaisy/src/dev/oled_ssd130x.h ****         else
 2185              		.loc 15 244 48 view .LVU504
 2186              	.LBE579:
 2187              	.LBE578:
 2188              	.LBE577:
 339:../../libdaisy/src/hid/disp/display.h ****             {
 2189              		.loc 10 339 13 view .LVU505
 2190 0264 9C45     		cmp	ip, r3
 2191              	.LBB586:
 2192              	.LBB584:
 2193              	.LBB582:
 244:../../libdaisy/src/dev/oled_ssd130x.h ****         else
 2194              		.loc 15 244 48 view .LVU506
 2195 0266 0EFA0BFE 		lsl	lr, lr, fp
 244:../../libdaisy/src/dev/oled_ssd130x.h ****         else
ARM GAS  C:\Users\VINCIU~1\AppData\Local\Temp\cc6Tz7la.s 			page 77


 2196              		.loc 15 244 42 view .LVU507
 2197 026a 9AF814B0 		ldrb	fp, [r10, #20]	@ zero_extendqisi2
 2198 026e 4EEA0B0E 		orr	lr, lr, fp
 2199 0272 8AF814E0 		strb	lr, [r10, #20]
 2200              	.LVL174:
 244:../../libdaisy/src/dev/oled_ssd130x.h ****         else
 2201              		.loc 15 244 42 view .LVU508
 2202              	.LBE582:
 2203              	.LBE584:
 2204              	.LBE586:
 339:../../libdaisy/src/hid/disp/display.h ****             {
 2205              		.loc 10 339 13 view .LVU509
 2206 0276 A6DA     		bge	.L184
 2207              	.L153:
 348:../../libdaisy/src/hid/disp/display.h ****             {
 2208              		.loc 10 348 13 view .LVU510
 2209 0278 9842     		cmp	r0, r3
 2210 027a 9E46     		mov	lr, r3
 2211              	.LVL175:
 348:../../libdaisy/src/hid/disp/display.h ****             {
 2212              		.loc 10 348 13 view .LVU511
 2213 027c AFDA     		bge	.L154
 2214              	.LVL176:
 2215              	.L139:
 350:../../libdaisy/src/hid/disp/display.h ****                 err = err + (t_x * 2 + 1);
 2216              		.loc 10 350 17 view .LVU512
 2217 027e 0130     		adds	r0, r0, #1
 2218              	.LVL177:
 351:../../libdaisy/src/hid/disp/display.h ****             }
 2219              		.loc 10 351 38 view .LVU513
 2220 0280 0EEB4003 		add	r3, lr, r0, lsl #1
 351:../../libdaisy/src/hid/disp/display.h ****             }
 2221              		.loc 10 351 21 view .LVU514
 2222 0284 0133     		adds	r3, r3, #1
 2223              	.LVL178:
 351:../../libdaisy/src/hid/disp/display.h ****             }
 2224              		.loc 10 351 21 view .LVU515
 2225 0286 ABE7     		b	.L140
 2226              	.L180:
 330:../../libdaisy/src/hid/disp/display.h ****             if(d3)
 2227              		.loc 10 330 43 view .LVU516
 2228 0288 009D     		ldr	r5, [sp]
 2229 028a 0CEB060E 		add	lr, ip, r6
 2230 028e 00EB050A 		add	r10, r0, r5
 2231              	.LVL179:
 2232              	.LBB587:
 2233              	.LBI587:
  41:../../libdaisy/src/hid/disp/oled_display.h ****     {
 2234              		.loc 8 41 10 is_stmt 1 view .LVU517
 2235              	.LBB588:
 2236              	.LBI588:
 239:../../libdaisy/src/dev/oled_ssd130x.h ****     {
 2237              		.loc 15 239 10 view .LVU518
 2238              	.LBB589:
 241:../../libdaisy/src/dev/oled_ssd130x.h ****             return;
 2239              		.loc 15 241 9 is_stmt 0 view .LVU519
 2240 0292 BAF17F0F 		cmp	r10, #127
ARM GAS  C:\Users\VINCIU~1\AppData\Local\Temp\cc6Tz7la.s 			page 78


 2241 0296 92D8     		bhi	.L132
 2242 0298 BEF13F0F 		cmp	lr, #63
 2243 029c 8FD8     		bhi	.L132
 244:../../libdaisy/src/dev/oled_ssd130x.h ****         else
 2244              		.loc 15 244 28 view .LVU520
 2245 029e 4FEADE0B 		lsr	fp, lr, #3
 243:../../libdaisy/src/dev/oled_ssd130x.h ****             buffer_[x + (y / 8) * width] |= (1 << (y % 8));
 2246              		.loc 15 243 9 view .LVU521
 2247 02a2 019D     		ldr	r5, [sp, #4]
 244:../../libdaisy/src/dev/oled_ssd130x.h ****         else
 2248              		.loc 15 244 42 view .LVU522
 2249 02a4 0AEBCB1A 		add	r10, r10, fp, lsl #7
 2250              	.LVL180:
 243:../../libdaisy/src/dev/oled_ssd130x.h ****             buffer_[x + (y / 8) * width] |= (1 << (y % 8));
 2251              		.loc 15 243 9 view .LVU523
 2252 02a8 002D     		cmp	r5, #0
 2253 02aa 73D0     		beq	.L133
 244:../../libdaisy/src/dev/oled_ssd130x.h ****         else
 2254              		.loc 15 244 54 view .LVU524
 2255 02ac 0EF0070B 		and	fp, lr, #7
 244:../../libdaisy/src/dev/oled_ssd130x.h ****         else
 2256              		.loc 15 244 42 view .LVU525
 2257 02b0 C244     		add	r10, r10, r8
 244:../../libdaisy/src/dev/oled_ssd130x.h ****         else
 2258              		.loc 15 244 48 view .LVU526
 2259 02b2 4FF0010E 		mov	lr, #1
 2260              	.LVL181:
 244:../../libdaisy/src/dev/oled_ssd130x.h ****         else
 2261              		.loc 15 244 48 view .LVU527
 2262 02b6 0EFA0BFE 		lsl	lr, lr, fp
 244:../../libdaisy/src/dev/oled_ssd130x.h ****         else
 2263              		.loc 15 244 42 view .LVU528
 2264 02ba 9AF814B0 		ldrb	fp, [r10, #20]	@ zero_extendqisi2
 2265 02be 4EEA0B0E 		orr	lr, lr, fp
 2266 02c2 8AF814E0 		strb	lr, [r10, #20]
 2267              	.LVL182:
 244:../../libdaisy/src/dev/oled_ssd130x.h ****         else
 2268              		.loc 15 244 42 view .LVU529
 2269              	.LBE589:
 2270              	.LBE588:
 2271              	.LBE587:
 331:../../libdaisy/src/hid/disp/display.h ****                 ((ChildType*)(this))
 2272              		.loc 10 331 13 view .LVU530
 2273 02c6 002F     		cmp	r7, #0
 2274 02c8 3FF47AAF 		beq	.L134
 2275 02cc 90E7     		b	.L181
 2276              	.L179:
 327:../../libdaisy/src/hid/disp/display.h ****             if(d2)
 2277              		.loc 10 327 43 view .LVU531
 2278 02ce 009D     		ldr	r5, [sp]
 2279 02d0 0CEB060E 		add	lr, ip, r6
 2280 02d4 A5EB000A 		sub	r10, r5, r0
 2281              	.LVL183:
 2282              	.LBB594:
 2283              	.LBI594:
  41:../../libdaisy/src/hid/disp/oled_display.h ****     {
 2284              		.loc 8 41 10 is_stmt 1 view .LVU532
ARM GAS  C:\Users\VINCIU~1\AppData\Local\Temp\cc6Tz7la.s 			page 79


 2285              	.LBB595:
 2286              	.LBI595:
 239:../../libdaisy/src/dev/oled_ssd130x.h ****     {
 2287              		.loc 15 239 10 view .LVU533
 2288              	.LBB596:
 241:../../libdaisy/src/dev/oled_ssd130x.h ****             return;
 2289              		.loc 15 241 9 is_stmt 0 view .LVU534
 2290 02d8 BAF17F0F 		cmp	r10, #127
 2291 02dc 3FF66DAF 		bhi	.L130
 2292 02e0 BEF13F0F 		cmp	lr, #63
 2293 02e4 3FF669AF 		bhi	.L130
 244:../../libdaisy/src/dev/oled_ssd130x.h ****         else
 2294              		.loc 15 244 28 view .LVU535
 2295 02e8 4FEADE0B 		lsr	fp, lr, #3
 243:../../libdaisy/src/dev/oled_ssd130x.h ****             buffer_[x + (y / 8) * width] |= (1 << (y % 8));
 2296              		.loc 15 243 9 view .LVU536
 2297 02ec 019D     		ldr	r5, [sp, #4]
 244:../../libdaisy/src/dev/oled_ssd130x.h ****         else
 2298              		.loc 15 244 42 view .LVU537
 2299 02ee 0AEBCB1A 		add	r10, r10, fp, lsl #7
 2300              	.LVL184:
 243:../../libdaisy/src/dev/oled_ssd130x.h ****             buffer_[x + (y / 8) * width] |= (1 << (y % 8));
 2301              		.loc 15 243 9 view .LVU538
 2302 02f2 002D     		cmp	r5, #0
 2303 02f4 6DD0     		beq	.L131
 244:../../libdaisy/src/dev/oled_ssd130x.h ****         else
 2304              		.loc 15 244 54 view .LVU539
 2305 02f6 0EF0070B 		and	fp, lr, #7
 244:../../libdaisy/src/dev/oled_ssd130x.h ****         else
 2306              		.loc 15 244 42 view .LVU540
 2307 02fa C244     		add	r10, r10, r8
 244:../../libdaisy/src/dev/oled_ssd130x.h ****         else
 2308              		.loc 15 244 48 view .LVU541
 2309 02fc 4FF0010E 		mov	lr, #1
 2310              	.LVL185:
 244:../../libdaisy/src/dev/oled_ssd130x.h ****         else
 2311              		.loc 15 244 48 view .LVU542
 2312 0300 0EFA0BFE 		lsl	lr, lr, fp
 244:../../libdaisy/src/dev/oled_ssd130x.h ****         else
 2313              		.loc 15 244 42 view .LVU543
 2314 0304 9AF814B0 		ldrb	fp, [r10, #20]	@ zero_extendqisi2
 2315 0308 4EEA0B0E 		orr	lr, lr, fp
 2316 030c 8AF814E0 		strb	lr, [r10, #20]
 2317              	.LVL186:
 244:../../libdaisy/src/dev/oled_ssd130x.h ****         else
 2318              		.loc 15 244 42 view .LVU544
 2319              	.LBE596:
 2320              	.LBE595:
 2321              	.LBE594:
 328:../../libdaisy/src/hid/disp/display.h ****                 ((ChildType*)(this))
 2322              		.loc 10 328 13 view .LVU545
 2323 0310 0029     		cmp	r1, #0
 2324 0312 3FF454AF 		beq	.L132
 2325 0316 B7E7     		b	.L180
 2326              	.LVL187:
 2327              	.L119:
 318:../../libdaisy/src/hid/disp/display.h ****                     d2 = (t_sxy - t_syx < 0 && t_exy - t_eyx > 0);
ARM GAS  C:\Users\VINCIU~1\AppData\Local\Temp\cc6Tz7la.s 			page 80


 2328              		.loc 10 318 46 view .LVU546
 2329 0318 F1EE10FA 		vmrs	APSR_nzcv, FPSCR
 2330 031c 7ED4     		bmi	.L185
 2331 031e 4A46     		mov	r2, r9
 2332              	.L123:
 2333              	.LVL188:
 319:../../libdaisy/src/hid/disp/display.h ****                     d3 = (t_sxny - t_syx < 0 && t_exny - t_eyx > 0);
 2334              		.loc 10 319 33 discriminator 6 view .LVU547
 2335 0320 74EEC54A 		vsub.f32	s9, s9, s10
 2336              	.LVL189:
 319:../../libdaisy/src/hid/disp/display.h ****                     d3 = (t_sxny - t_syx < 0 && t_exny - t_eyx > 0);
 2337              		.loc 10 319 45 discriminator 6 view .LVU548
 2338 0324 F5EEC04A 		vcmpe.f32	s9, #0
 2339 0328 F1EE10FA 		vmrs	APSR_nzcv, FPSCR
 2340 032c 6CD4     		bmi	.L186
 319:../../libdaisy/src/hid/disp/display.h ****                     d3 = (t_sxny - t_syx < 0 && t_exny - t_eyx > 0);
 2341              		.loc 10 319 45 view .LVU549
 2342 032e 0021     		movs	r1, #0
 2343              	.LVL190:
 2344              	.L125:
 320:../../libdaisy/src/hid/disp/display.h ****                     d4 = (t_sxny - t_synx < 0 && t_exny - t_eynx > 0);
 2345              		.loc 10 320 34 discriminator 6 view .LVU550
 2346 0330 35EEC55A 		vsub.f32	s10, s11, s10
 2347              	.LVL191:
 320:../../libdaisy/src/hid/disp/display.h ****                     d4 = (t_sxny - t_synx < 0 && t_exny - t_eynx > 0);
 2348              		.loc 10 320 46 discriminator 6 view .LVU551
 2349 0334 B5EEC05A 		vcmpe.f32	s10, #0
 2350 0338 F1EE10FA 		vmrs	APSR_nzcv, FPSCR
 2351 033c 5AD4     		bmi	.L187
 320:../../libdaisy/src/hid/disp/display.h ****                     d4 = (t_sxny - t_synx < 0 && t_exny - t_eynx > 0);
 2352              		.loc 10 320 46 view .LVU552
 2353 033e 0027     		movs	r7, #0
 2354              	.LVL192:
 2355              	.L127:
 321:../../libdaisy/src/hid/disp/display.h ****                 }
 2356              		.loc 10 321 34 discriminator 6 view .LVU553
 2357 0340 75EEC45A 		vsub.f32	s11, s11, s8
 2358              	.LVL193:
 321:../../libdaisy/src/hid/disp/display.h ****                 }
 2359              		.loc 10 321 47 discriminator 6 view .LVU554
 2360 0344 F5EEC05A 		vcmpe.f32	s11, #0
 2361 0348 F1EE10FA 		vmrs	APSR_nzcv, FPSCR
 2362 034c 3FF529AF 		bmi	.L178
 321:../../libdaisy/src/hid/disp/display.h ****                 }
 2363              		.loc 10 321 47 view .LVU555
 2364 0350 0024     		movs	r4, #0
 2365              	.LVL194:
 325:../../libdaisy/src/hid/disp/display.h ****                 ((ChildType*)(this))
 2366              		.loc 10 325 13 view .LVU556
 2367 0352 002A     		cmp	r2, #0
 2368 0354 3FF431AF 		beq	.L130
 2369 0358 B9E7     		b	.L179
 2370              	.LVL195:
 2371              	.L183:
 343:../../libdaisy/src/hid/disp/display.h ****                 {
 2372              		.loc 10 343 32 discriminator 1 view .LVU557
 2373 035a 9842     		cmp	r0, r3
ARM GAS  C:\Users\VINCIU~1\AppData\Local\Temp\cc6Tz7la.s 			page 81


 2374 035c 8FDB     		blt	.L139
 345:../../libdaisy/src/hid/disp/display.h ****                 }
 2375              		.loc 10 345 24 view .LVU558
 2376 035e 0023     		movs	r3, #0
 2377              	.LVL196:
 345:../../libdaisy/src/hid/disp/display.h ****                 }
 2378              		.loc 10 345 24 view .LVU559
 2379 0360 3BE7     		b	.L138
 2380              	.L191:
 2381 0362 00BFAFF3 		.align	3
 2381      0080
 2382              	.L190:
 2383 0368 7A008BFC 		.word	-57999238
 2384 036c FA210940 		.word	1074340346
 2385 0370 00000000 		.word	0
 2386 0374 00806640 		.word	1080459264
 2387              	.LVL197:
 2388              	.L135:
 2389              	.LBB601:
 2390              	.LBB576:
 2391              	.LBB575:
 2392              	.LBB573:
 2393              	.LBI573:
 239:../../libdaisy/src/dev/oled_ssd130x.h ****     {
 2394              		.loc 15 239 10 is_stmt 1 view .LVU560
 2395              	.LBB574:
 246:../../libdaisy/src/dev/oled_ssd130x.h ****     }
 2396              		.loc 15 246 42 is_stmt 0 view .LVU561
 2397 0378 C244     		add	r10, r10, r8
 2398              	.LVL198:
 246:../../libdaisy/src/dev/oled_ssd130x.h ****     }
 2399              		.loc 15 246 49 view .LVU562
 2400 037a 4FF0010B 		mov	fp, #1
 2401              	.LVL199:
 246:../../libdaisy/src/dev/oled_ssd130x.h ****     }
 2402              		.loc 15 246 55 view .LVU563
 2403 037e 0EF0070E 		and	lr, lr, #7
 2404              	.LVL200:
 246:../../libdaisy/src/dev/oled_ssd130x.h ****     }
 2405              		.loc 15 246 49 view .LVU564
 2406 0382 0BFA0EFE 		lsl	lr, fp, lr
 246:../../libdaisy/src/dev/oled_ssd130x.h ****     }
 2407              		.loc 15 246 42 view .LVU565
 2408 0386 9AF814B0 		ldrb	fp, [r10, #20]	@ zero_extendqisi2
 2409 038a 2BEA0E0E 		bic	lr, fp, lr
 2410 038e 8AF814E0 		strb	lr, [r10, #20]
 2411              	.LVL201:
 246:../../libdaisy/src/dev/oled_ssd130x.h ****     }
 2412              		.loc 15 246 42 view .LVU566
 2413 0392 15E7     		b	.L134
 2414              	.LVL202:
 2415              	.L133:
 246:../../libdaisy/src/dev/oled_ssd130x.h ****     }
 2416              		.loc 15 246 42 view .LVU567
 2417              	.LBE574:
 2418              	.LBE573:
 2419              	.LBE575:
ARM GAS  C:\Users\VINCIU~1\AppData\Local\Temp\cc6Tz7la.s 			page 82


 2420              	.LBE576:
 2421              	.LBE601:
 2422              	.LBB602:
 2423              	.LBB593:
 2424              	.LBB592:
 2425              	.LBB590:
 2426              	.LBI590:
 239:../../libdaisy/src/dev/oled_ssd130x.h ****     {
 2427              		.loc 15 239 10 is_stmt 1 view .LVU568
 2428              	.LBB591:
 246:../../libdaisy/src/dev/oled_ssd130x.h ****     }
 2429              		.loc 15 246 42 is_stmt 0 view .LVU569
 2430 0394 C244     		add	r10, r10, r8
 2431              	.LVL203:
 246:../../libdaisy/src/dev/oled_ssd130x.h ****     }
 2432              		.loc 15 246 49 view .LVU570
 2433 0396 4FF0010B 		mov	fp, #1
 2434              	.LVL204:
 246:../../libdaisy/src/dev/oled_ssd130x.h ****     }
 2435              		.loc 15 246 55 view .LVU571
 2436 039a 0EF0070E 		and	lr, lr, #7
 2437              	.LVL205:
 246:../../libdaisy/src/dev/oled_ssd130x.h ****     }
 2438              		.loc 15 246 49 view .LVU572
 2439 039e 0BFA0EFE 		lsl	lr, fp, lr
 246:../../libdaisy/src/dev/oled_ssd130x.h ****     }
 2440              		.loc 15 246 42 view .LVU573
 2441 03a2 9AF814B0 		ldrb	fp, [r10, #20]	@ zero_extendqisi2
 2442 03a6 2BEA0E0E 		bic	lr, fp, lr
 2443 03aa 8AF814E0 		strb	lr, [r10, #20]
 2444              	.LVL206:
 246:../../libdaisy/src/dev/oled_ssd130x.h ****     }
 2445              		.loc 15 246 42 view .LVU574
 2446              	.LBE591:
 2447              	.LBE590:
 2448              	.LBE592:
 2449              	.LBE593:
 2450              	.LBE602:
 331:../../libdaisy/src/hid/disp/display.h ****                 ((ChildType*)(this))
 2451              		.loc 10 331 13 view .LVU575
 2452 03ae 002F     		cmp	r7, #0
 2453 03b0 3FF406AF 		beq	.L134
 2454 03b4 1CE7     		b	.L181
 2455              	.LVL207:
 2456              	.L137:
 2457              	.LBB603:
 2458              	.LBB585:
 2459              	.LBB583:
 2460              	.LBB580:
 2461              	.LBI580:
 239:../../libdaisy/src/dev/oled_ssd130x.h ****     {
 2462              		.loc 15 239 10 is_stmt 1 view .LVU576
 2463              	.LBB581:
 246:../../libdaisy/src/dev/oled_ssd130x.h ****     }
 2464              		.loc 15 246 42 is_stmt 0 view .LVU577
 2465 03b6 C244     		add	r10, r10, r8
 2466              	.LVL208:
ARM GAS  C:\Users\VINCIU~1\AppData\Local\Temp\cc6Tz7la.s 			page 83


 246:../../libdaisy/src/dev/oled_ssd130x.h ****     }
 2467              		.loc 15 246 49 view .LVU578
 2468 03b8 4FF0010B 		mov	fp, #1
 2469              	.LVL209:
 246:../../libdaisy/src/dev/oled_ssd130x.h ****     }
 2470              		.loc 15 246 55 view .LVU579
 2471 03bc 0EF0070E 		and	lr, lr, #7
 2472              	.LVL210:
 246:../../libdaisy/src/dev/oled_ssd130x.h ****     }
 2473              		.loc 15 246 49 view .LVU580
 2474 03c0 0BFA0EFE 		lsl	lr, fp, lr
 246:../../libdaisy/src/dev/oled_ssd130x.h ****     }
 2475              		.loc 15 246 42 view .LVU581
 2476 03c4 9AF814B0 		ldrb	fp, [r10, #20]	@ zero_extendqisi2
 2477 03c8 2BEA0E0E 		bic	lr, fp, lr
 2478 03cc 8AF814E0 		strb	lr, [r10, #20]
 2479              	.LVL211:
 246:../../libdaisy/src/dev/oled_ssd130x.h ****     }
 2480              		.loc 15 246 42 view .LVU582
 2481 03d0 F7E6     		b	.L136
 2482              	.LVL212:
 2483              	.L131:
 246:../../libdaisy/src/dev/oled_ssd130x.h ****     }
 2484              		.loc 15 246 42 view .LVU583
 2485              	.LBE581:
 2486              	.LBE580:
 2487              	.LBE583:
 2488              	.LBE585:
 2489              	.LBE603:
 2490              	.LBB604:
 2491              	.LBB600:
 2492              	.LBB599:
 2493              	.LBB597:
 2494              	.LBI597:
 239:../../libdaisy/src/dev/oled_ssd130x.h ****     {
 2495              		.loc 15 239 10 is_stmt 1 view .LVU584
 2496              	.LBB598:
 246:../../libdaisy/src/dev/oled_ssd130x.h ****     }
 2497              		.loc 15 246 42 is_stmt 0 view .LVU585
 2498 03d2 C244     		add	r10, r10, r8
 2499              	.LVL213:
 246:../../libdaisy/src/dev/oled_ssd130x.h ****     }
 2500              		.loc 15 246 49 view .LVU586
 2501 03d4 4FF0010B 		mov	fp, #1
 2502              	.LVL214:
 246:../../libdaisy/src/dev/oled_ssd130x.h ****     }
 2503              		.loc 15 246 55 view .LVU587
 2504 03d8 0EF0070E 		and	lr, lr, #7
 2505              	.LVL215:
 246:../../libdaisy/src/dev/oled_ssd130x.h ****     }
 2506              		.loc 15 246 49 view .LVU588
 2507 03dc 0BFA0EFE 		lsl	lr, fp, lr
 246:../../libdaisy/src/dev/oled_ssd130x.h ****     }
 2508              		.loc 15 246 42 view .LVU589
 2509 03e0 9AF814B0 		ldrb	fp, [r10, #20]	@ zero_extendqisi2
 2510 03e4 2BEA0E0E 		bic	lr, fp, lr
 2511 03e8 8AF814E0 		strb	lr, [r10, #20]
ARM GAS  C:\Users\VINCIU~1\AppData\Local\Temp\cc6Tz7la.s 			page 84


 2512              	.LVL216:
 246:../../libdaisy/src/dev/oled_ssd130x.h ****     }
 2513              		.loc 15 246 42 view .LVU590
 2514              	.LBE598:
 2515              	.LBE597:
 2516              	.LBE599:
 2517              	.LBE600:
 2518              	.LBE604:
 328:../../libdaisy/src/hid/disp/display.h ****                 ((ChildType*)(this))
 2519              		.loc 10 328 13 view .LVU591
 2520 03ec 0029     		cmp	r1, #0
 2521 03ee 3FF4E6AE 		beq	.L132
 2522 03f2 49E7     		b	.L180
 2523              	.LVL217:
 2524              	.L187:
 320:../../libdaisy/src/hid/disp/display.h ****                     d4 = (t_sxny - t_synx < 0 && t_exny - t_eynx > 0);
 2525              		.loc 10 320 56 discriminator 1 view .LVU592
 2526 03f4 77EEE66A 		vsub.f32	s13, s15, s13
 2527              	.LVL218:
 320:../../libdaisy/src/hid/disp/display.h ****                     d4 = (t_sxny - t_synx < 0 && t_exny - t_eynx > 0);
 2528              		.loc 10 320 46 discriminator 1 view .LVU593
 2529 03f8 F5EEC06A 		vcmpe.f32	s13, #0
 2530 03fc F1EE10FA 		vmrs	APSR_nzcv, FPSCR
 2531 0400 CCBF     		ite	gt
 2532 0402 0127     		movgt	r7, #1
 2533              	.LVL219:
 320:../../libdaisy/src/hid/disp/display.h ****                     d4 = (t_sxny - t_synx < 0 && t_exny - t_eynx > 0);
 2534              		.loc 10 320 46 discriminator 1 view .LVU594
 2535 0404 0027     		movle	r7, #0
 2536 0406 9BE7     		b	.L127
 2537              	.LVL220:
 2538              	.L186:
 319:../../libdaisy/src/hid/disp/display.h ****                     d3 = (t_sxny - t_syx < 0 && t_exny - t_eyx > 0);
 2539              		.loc 10 319 54 discriminator 1 view .LVU595
 2540 0408 36EE666A 		vsub.f32	s12, s12, s13
 2541              	.LVL221:
 319:../../libdaisy/src/hid/disp/display.h ****                     d3 = (t_sxny - t_syx < 0 && t_exny - t_eyx > 0);
 2542              		.loc 10 319 45 discriminator 1 view .LVU596
 2543 040c B5EEC06A 		vcmpe.f32	s12, #0
 2544 0410 F1EE10FA 		vmrs	APSR_nzcv, FPSCR
 2545 0414 CCBF     		ite	gt
 2546 0416 0121     		movgt	r1, #1
 2547 0418 0021     		movle	r1, #0
 2548 041a 89E7     		b	.L125
 2549              	.LVL222:
 2550              	.L185:
 318:../../libdaisy/src/hid/disp/display.h ****                     d2 = (t_sxy - t_syx < 0 && t_exy - t_eyx > 0);
 2551              		.loc 10 318 55 discriminator 1 view .LVU597
 2552 041c 76EE473A 		vsub.f32	s7, s12, s14
 318:../../libdaisy/src/hid/disp/display.h ****                     d2 = (t_sxy - t_syx < 0 && t_exy - t_eyx > 0);
 2553              		.loc 10 318 46 discriminator 1 view .LVU598
 2554 0420 F5EEC03A 		vcmpe.f32	s7, #0
 2555 0424 F1EE10FA 		vmrs	APSR_nzcv, FPSCR
 2556 0428 CCBF     		ite	gt
 2557 042a 0122     		movgt	r2, #1
 2558 042c 0022     		movle	r2, #0
 2559 042e 77E7     		b	.L123
ARM GAS  C:\Users\VINCIU~1\AppData\Local\Temp\cc6Tz7la.s 			page 85


 2560              	.LVL223:
 2561              	.L148:
 314:../../libdaisy/src/hid/disp/display.h ****                 }
 2562              		.loc 10 314 47 view .LVU599
 2563 0430 0124     		movs	r4, #1
 2564              	.LVL224:
 325:../../libdaisy/src/hid/disp/display.h ****                 ((ChildType*)(this))
 2565              		.loc 10 325 13 view .LVU600
 2566 0432 002A     		cmp	r2, #0
 2567 0434 3FF4C1AE 		beq	.L130
 325:../../libdaisy/src/hid/disp/display.h ****                 ((ChildType*)(this))
 2568              		.loc 10 325 13 view .LVU601
 2569 0438 49E7     		b	.L179
 2570              	.LVL225:
 2571              	.L145:
 312:../../libdaisy/src/hid/disp/display.h ****                     d3 = (t_sxny - t_syx < 0 || t_exny - t_eyx > 0);
 2572              		.loc 10 312 33 view .LVU602
 2573 043a 74EEC54A 		vsub.f32	s9, s9, s10
 2574              	.LVL226:
 311:../../libdaisy/src/hid/disp/display.h ****                     d2 = (t_sxy - t_syx < 0 || t_exy - t_eyx > 0);
 2575              		.loc 10 311 46 view .LVU603
 2576 043e 0122     		movs	r2, #1
 2577              	.LVL227:
 312:../../libdaisy/src/hid/disp/display.h ****                     d3 = (t_sxny - t_syx < 0 || t_exny - t_eyx > 0);
 2578              		.loc 10 312 45 view .LVU604
 2579 0440 F5EEC04A 		vcmpe.f32	s9, #0
 2580 0444 F1EE10FA 		vmrs	APSR_nzcv, FPSCR
 2581 0448 7FF589AE 		bpl	.L188
 2582              	.L146:
 313:../../libdaisy/src/hid/disp/display.h ****                     d4 = (t_sxny - t_synx < 0 || t_exny - t_eynx > 0);
 2583              		.loc 10 313 34 view .LVU605
 2584 044c 35EEC55A 		vsub.f32	s10, s11, s10
 2585              	.LVL228:
 312:../../libdaisy/src/hid/disp/display.h ****                     d3 = (t_sxny - t_syx < 0 || t_exny - t_eyx > 0);
 2586              		.loc 10 312 45 view .LVU606
 2587 0450 0121     		movs	r1, #1
 2588              	.LVL229:
 313:../../libdaisy/src/hid/disp/display.h ****                     d4 = (t_sxny - t_synx < 0 || t_exny - t_eynx > 0);
 2589              		.loc 10 313 46 view .LVU607
 2590 0452 B5EEC05A 		vcmpe.f32	s10, #0
 2591 0456 F1EE10FA 		vmrs	APSR_nzcv, FPSCR
 2592 045a 7FF591AE 		bpl	.L189
 2593              	.LVL230:
 2594              	.L147:
 313:../../libdaisy/src/hid/disp/display.h ****                     d4 = (t_sxny - t_synx < 0 || t_exny - t_eynx > 0);
 2595              		.loc 10 313 46 view .LVU608
 2596 045e 0127     		movs	r7, #1
 2597              	.LVL231:
 313:../../libdaisy/src/hid/disp/display.h ****                     d4 = (t_sxny - t_synx < 0 || t_exny - t_eynx > 0);
 2598              		.loc 10 313 46 view .LVU609
 2599 0460 97E6     		b	.L122
 2600              	.LVL232:
 2601              	.L114:
 268:../../libdaisy/src/hid/disp/display.h ****             sweep = -sweep;
 2602              		.loc 10 268 25 view .LVU610
 2603 0462 DDE91223 		ldrd	r2, r3, [sp, #72]
 2604              	.LVL233:
ARM GAS  C:\Users\VINCIU~1\AppData\Local\Temp\cc6Tz7la.s 			page 86


 268:../../libdaisy/src/hid/disp/display.h ****             sweep = -sweep;
 2605              		.loc 10 268 25 view .LVU611
 2606 0466 1344     		add	r3, r3, r2
 2607              	.LVL234:
 268:../../libdaisy/src/hid/disp/display.h ****             sweep = -sweep;
 2608              		.loc 10 268 25 view .LVU612
 2609 0468 06EE102A 		vmov	s12, r2	@ int
 2610 046c 1293     		str	r3, [sp, #72]
 2611 046e 139B     		ldr	r3, [sp, #76]
 2612              	.LVL235:
 268:../../libdaisy/src/hid/disp/display.h ****             sweep = -sweep;
 2613              		.loc 10 268 25 view .LVU613
 2614 0470 5B42     		rsbs	r3, r3, #0
 2615 0472 1393     		str	r3, [sp, #76]
 2616              	.LVL236:
 268:../../libdaisy/src/hid/disp/display.h ****             sweep = -sweep;
 2617              		.loc 10 268 25 view .LVU614
 2618 0474 D8E5     		b	.L115
 2619              		.cfi_endproc
 2620              	.LFE4639:
 2622 0476 00BF     		.section	.text._ZN5daisy25OneBitGraphicsDisplayImplINS_11OledDisplayINS_13SSD130xDriverILj128ELj64
 2623              		.align	1
 2624              		.p2align 2,,3
 2625              		.weak	_ZN5daisy25OneBitGraphicsDisplayImplINS_11OledDisplayINS_13SSD130xDriverILj128ELj64ENS_24SSD
 2626              		.syntax unified
 2627              		.thumb
 2628              		.thumb_func
 2629              		.fpu fpv5-d16
 2631              	_ZN5daisy25OneBitGraphicsDisplayImplINS_11OledDisplayINS_13SSD130xDriverILj128ELj64ENS_24SSD130x4Wi
 2632              	.LVL237:
 2633              	.LFB4638:
 217:../../libdaisy/src/hid/disp/display.h ****                   uint_fast8_t y1,
 2634              		.loc 10 217 10 is_stmt 1 view -0
 2635              		.cfi_startproc
 2636              		@ args = 12, pretend = 0, frame = 24
 2637              		@ frame_needed = 0, uses_anonymous_args = 0
 217:../../libdaisy/src/hid/disp/display.h ****                   uint_fast8_t y1,
 2638              		.loc 10 217 10 is_stmt 0 view .LVU616
 2639 0000 2DE9F04F 		push	{r4, r5, r6, r7, r8, r9, r10, fp, lr}
 2640              		.cfi_def_cfa_offset 36
 2641              		.cfi_offset 4, -36
 2642              		.cfi_offset 5, -32
 2643              		.cfi_offset 6, -28
 2644              		.cfi_offset 7, -24
 2645              		.cfi_offset 8, -20
 2646              		.cfi_offset 9, -16
 2647              		.cfi_offset 10, -12
 2648              		.cfi_offset 11, -8
 2649              		.cfi_offset 14, -4
 2650 0004 87B0     		sub	sp, sp, #28
 2651              		.cfi_def_cfa_offset 64
 217:../../libdaisy/src/hid/disp/display.h ****                   uint_fast8_t y1,
 2652              		.loc 10 217 10 view .LVU617
 2653 0006 9DF84850 		ldrb	r5, [sp, #72]	@ zero_extendqisi2
 2654 000a 109C     		ldr	r4, [sp, #64]
 2655 000c 2E46     		mov	r6, r5
 2656 000e 0195     		str	r5, [sp, #4]
ARM GAS  C:\Users\VINCIU~1\AppData\Local\Temp\cc6Tz7la.s 			page 87


 2657 0010 9DF84450 		ldrb	r5, [sp, #68]	@ zero_extendqisi2
 2658              	.LBB674:
 224:../../libdaisy/src/hid/disp/display.h ****         {
 2659              		.loc 10 224 9 view .LVU618
 2660 0014 9EB3     		cbz	r6, .L193
 2661              	.LVL238:
 224:../../libdaisy/src/hid/disp/display.h ****         {
 2662              		.loc 10 224 9 view .LVU619
 2663              	.LBE674:
 2664              	.LBB796:
 2665              	.LBB797:
 226:../../libdaisy/src/hid/disp/display.h ****             {
 2666              		.loc 10 226 40 is_stmt 1 view .LVU620
 2667 0016 9942     		cmp	r1, r3
 2668 0018 2ED8     		bhi	.L192
 2669 001a 9946     		mov	r9, r3
 2670              	.LVL239:
 2671              	.L196:
 2672              	.LBB798:
 228:../../libdaisy/src/hid/disp/display.h ****                 {
 2673              		.loc 10 228 44 view .LVU621
 2674 001c A242     		cmp	r2, r4
 2675 001e 28D8     		bhi	.L199
 2676              	.LBB799:
 2677              	.LBB800:
 2678              	.LBB801:
 241:../../libdaisy/src/dev/oled_ssd130x.h ****             return;
 2679              		.loc 15 241 14 is_stmt 0 view .LVU622
 2680 0020 7F29     		cmp	r1, #127
 2681 0022 1646     		mov	r6, r2
 2682 0024 94BF     		ite	ls
 2683 0026 0023     		movls	r3, #0
 2684 0028 0123     		movhi	r3, #1
 2685 002a 08E0     		b	.L200
 2686              	.LVL240:
 2687              	.L283:
 244:../../libdaisy/src/dev/oled_ssd130x.h ****         else
 2688              		.loc 15 244 42 view .LVU623
 2689 002c 9CF81480 		ldrb	r8, [ip, #20]	@ zero_extendqisi2
 2690 0030 4EEA080E 		orr	lr, lr, r8
 2691 0034 8CF814E0 		strb	lr, [ip, #20]
 2692              	.LVL241:
 2693              	.L197:
 244:../../libdaisy/src/dev/oled_ssd130x.h ****         else
 2694              		.loc 15 244 42 view .LVU624
 2695              	.LBE801:
 2696              	.LBE800:
 2697              	.LBE799:
 228:../../libdaisy/src/hid/disp/display.h ****                 {
 2698              		.loc 10 228 17 is_stmt 1 view .LVU625
 2699 0038 0136     		adds	r6, r6, #1
 2700              	.LVL242:
 228:../../libdaisy/src/hid/disp/display.h ****                 {
 2701              		.loc 10 228 44 view .LVU626
 2702 003a B442     		cmp	r4, r6
 2703 003c 19D3     		bcc	.L199
 2704              	.L200:
ARM GAS  C:\Users\VINCIU~1\AppData\Local\Temp\cc6Tz7la.s 			page 88


 2705              	.LVL243:
 2706              	.LBB815:
 2707              	.LBI799:
  41:../../libdaisy/src/hid/disp/oled_display.h ****     {
 2708              		.loc 8 41 10 view .LVU627
 2709              	.LBB812:
 2710              	.LBI800:
 239:../../libdaisy/src/dev/oled_ssd130x.h ****     {
 2711              		.loc 15 239 10 view .LVU628
 2712              	.LBB809:
 241:../../libdaisy/src/dev/oled_ssd130x.h ****             return;
 2713              		.loc 15 241 9 is_stmt 0 view .LVU629
 2714 003e 3F2E     		cmp	r6, #63
 2715 0040 FAD8     		bhi	.L197
 241:../../libdaisy/src/dev/oled_ssd130x.h ****             return;
 2716              		.loc 15 241 9 view .LVU630
 2717 0042 002B     		cmp	r3, #0
 2718 0044 F8D1     		bne	.L197
 2719              	.LVL244:
 2720              	.LBB802:
 2721              	.LBI802:
 239:../../libdaisy/src/dev/oled_ssd130x.h ****     {
 2722              		.loc 15 239 10 is_stmt 1 view .LVU631
 239:../../libdaisy/src/dev/oled_ssd130x.h ****     {
 2723              		.loc 15 239 10 is_stmt 0 view .LVU632
 2724              	.LBE802:
 244:../../libdaisy/src/dev/oled_ssd130x.h ****         else
 2725              		.loc 15 244 28 view .LVU633
 2726 0046 4FEAD60C 		lsr	ip, r6, #3
 244:../../libdaisy/src/dev/oled_ssd130x.h ****         else
 2727              		.loc 15 244 54 view .LVU634
 2728 004a 06F0070E 		and	lr, r6, #7
 244:../../libdaisy/src/dev/oled_ssd130x.h ****         else
 2729              		.loc 15 244 48 view .LVU635
 2730 004e 4FF00108 		mov	r8, #1
 244:../../libdaisy/src/dev/oled_ssd130x.h ****         else
 2731              		.loc 15 244 42 view .LVU636
 2732 0052 01EBCC1C 		add	ip, r1, ip, lsl #7
 244:../../libdaisy/src/dev/oled_ssd130x.h ****         else
 2733              		.loc 15 244 48 view .LVU637
 2734 0056 08FA0EFE 		lsl	lr, r8, lr
 244:../../libdaisy/src/dev/oled_ssd130x.h ****         else
 2735              		.loc 15 244 42 view .LVU638
 2736 005a 8444     		add	ip, ip, r0
 243:../../libdaisy/src/dev/oled_ssd130x.h ****             buffer_[x + (y / 8) * width] |= (1 << (y % 8));
 2737              		.loc 15 243 9 view .LVU639
 2738 005c 002D     		cmp	r5, #0
 2739 005e E5D1     		bne	.L283
 2740              	.LBB806:
 2741              	.LBB803:
 246:../../libdaisy/src/dev/oled_ssd130x.h ****     }
 2742              		.loc 15 246 42 view .LVU640
 2743 0060 9CF814B0 		ldrb	fp, [ip, #20]	@ zero_extendqisi2
 2744              	.LBE803:
 2745              	.LBE806:
 2746              	.LBE809:
 2747              	.LBE812:
ARM GAS  C:\Users\VINCIU~1\AppData\Local\Temp\cc6Tz7la.s 			page 89


 2748              	.LBE815:
 228:../../libdaisy/src/hid/disp/display.h ****                 {
 2749              		.loc 10 228 17 view .LVU641
 2750 0064 0136     		adds	r6, r6, #1
 2751              	.LVL245:
 2752              	.LBB816:
 2753              	.LBB813:
 2754              	.LBB810:
 2755              	.LBB807:
 2756              	.LBB804:
 246:../../libdaisy/src/dev/oled_ssd130x.h ****     }
 2757              		.loc 15 246 42 view .LVU642
 2758 0066 2BEA0E0A 		bic	r10, fp, lr
 2759              	.LBE804:
 2760              	.LBE807:
 2761              	.LBE810:
 2762              	.LBE813:
 2763              	.LBE816:
 228:../../libdaisy/src/hid/disp/display.h ****                 {
 2764              		.loc 10 228 44 view .LVU643
 2765 006a B442     		cmp	r4, r6
 2766              	.LBB817:
 2767              	.LBB814:
 2768              	.LBB811:
 2769              	.LBB808:
 2770              	.LBB805:
 246:../../libdaisy/src/dev/oled_ssd130x.h ****     }
 2771              		.loc 15 246 42 view .LVU644
 2772 006c 8CF814A0 		strb	r10, [ip, #20]
 2773              	.LVL246:
 246:../../libdaisy/src/dev/oled_ssd130x.h ****     }
 2774              		.loc 15 246 42 view .LVU645
 2775              	.LBE805:
 2776              	.LBE808:
 2777              	.LBE811:
 2778              	.LBE814:
 2779              	.LBE817:
 228:../../libdaisy/src/hid/disp/display.h ****                 {
 2780              		.loc 10 228 17 is_stmt 1 view .LVU646
 228:../../libdaisy/src/hid/disp/display.h ****                 {
 2781              		.loc 10 228 44 view .LVU647
 2782 0070 E5D2     		bcs	.L200
 2783              	.LVL247:
 2784              	.L199:
 228:../../libdaisy/src/hid/disp/display.h ****                 {
 2785              		.loc 10 228 44 is_stmt 0 view .LVU648
 2786              	.LBE798:
 226:../../libdaisy/src/hid/disp/display.h ****             {
 2787              		.loc 10 226 13 is_stmt 1 view .LVU649
 2788 0072 0131     		adds	r1, r1, #1
 2789              	.LVL248:
 226:../../libdaisy/src/hid/disp/display.h ****             {
 2790              		.loc 10 226 40 view .LVU650
 2791 0074 8945     		cmp	r9, r1
 2792 0076 D1D2     		bcs	.L196
 2793              	.LVL249:
 2794              	.L192:
ARM GAS  C:\Users\VINCIU~1\AppData\Local\Temp\cc6Tz7la.s 			page 90


 226:../../libdaisy/src/hid/disp/display.h ****             {
 2795              		.loc 10 226 40 is_stmt 0 view .LVU651
 2796              	.LBE797:
 2797              	.LBE796:
 241:../../libdaisy/src/hid/disp/display.h **** 
 2798              		.loc 10 241 5 view .LVU652
 2799 0078 07B0     		add	sp, sp, #28
 2800              		.cfi_remember_state
 2801              		.cfi_def_cfa_offset 36
 2802              		@ sp needed
 2803 007a BDE8F08F 		pop	{r4, r5, r6, r7, r8, r9, r10, fp, pc}
 2804              	.LVL250:
 2805              	.L193:
 2806              		.cfi_restore_state
 2807              	.LBB818:
 2808              	.LBB675:
 2809              	.LBI675:
 181:../../libdaisy/src/hid/disp/display.h ****                   uint_fast8_t y1,
 2810              		.loc 10 181 10 is_stmt 1 view .LVU653
 2811              	.LBB676:
 187:../../libdaisy/src/hid/disp/display.h ****         int_fast16_t deltaY = abs((int_fast16_t)y2 - (int_fast16_t)y1);
 2812              		.loc 10 187 52 is_stmt 0 view .LVU654
 2813 007e A3EB0108 		sub	r8, r3, r1
 187:../../libdaisy/src/hid/disp/display.h ****         int_fast16_t deltaY = abs((int_fast16_t)y2 - (int_fast16_t)y1);
 2814              		.loc 10 187 22 view .LVU655
 2815 0082 B8F1000F 		cmp	r8, #0
 2816 0086 B8BF     		it	lt
 2817 0088 C8F10008 		rsblt	r8, r8, #0
 2818              	.LVL251:
 189:../../libdaisy/src/hid/disp/display.h ****         int_fast16_t signY  = ((y1 < y2) ? 1 : -1);
 2819              		.loc 10 189 42 view .LVU656
 2820 008c 9942     		cmp	r1, r3
 2821 008e C0F04E81 		bcc	.L201
 2822              	.LVL252:
 2823              	.LBB677:
 2824              	.LBI677:
  41:../../libdaisy/src/hid/disp/oled_display.h ****     {
 2825              		.loc 8 41 10 is_stmt 1 view .LVU657
 2826              	.LBB678:
 2827              	.LBI678:
 239:../../libdaisy/src/dev/oled_ssd130x.h ****     {
 2828              		.loc 15 239 10 view .LVU658
 2829              	.LBB679:
 241:../../libdaisy/src/dev/oled_ssd130x.h ****             return;
 2830              		.loc 15 241 14 is_stmt 0 view .LVU659
 2831 0092 7F2B     		cmp	r3, #127
 2832              	.LBE679:
 2833              	.LBE678:
 2834              	.LBE677:
 189:../../libdaisy/src/hid/disp/display.h ****         int_fast16_t signY  = ((y1 < y2) ? 1 : -1);
 2835              		.loc 10 189 42 view .LVU660
 2836 0094 4FF0FF3A 		mov	r10, #-1
 2837              	.LBB690:
 2838              	.LBB686:
 2839              	.LBB682:
 241:../../libdaisy/src/dev/oled_ssd130x.h ****             return;
 2840              		.loc 15 241 14 view .LVU661
ARM GAS  C:\Users\VINCIU~1\AppData\Local\Temp\cc6Tz7la.s 			page 91


 2841 0098 94BF     		ite	ls
 2842 009a 0026     		movls	r6, #0
 2843 009c 0126     		movhi	r6, #1
 241:../../libdaisy/src/dev/oled_ssd130x.h ****             return;
 2844              		.loc 15 241 28 view .LVU662
 2845 009e 3F2A     		cmp	r2, #63
 241:../../libdaisy/src/dev/oled_ssd130x.h ****             return;
 2846              		.loc 15 241 14 view .LVU663
 2847 00a0 0096     		str	r6, [sp]
 241:../../libdaisy/src/dev/oled_ssd130x.h ****             return;
 2848              		.loc 15 241 28 view .LVU664
 2849 00a2 94BF     		ite	ls
 2850 00a4 0027     		movls	r7, #0
 2851 00a6 0127     		movhi	r7, #1
 2852 00a8 0297     		str	r7, [sp, #8]
 241:../../libdaisy/src/dev/oled_ssd130x.h ****             return;
 2853              		.loc 15 241 9 view .LVU665
 2854 00aa A6B9     		cbnz	r6, .L202
 2855 00ac 9FB9     		cbnz	r7, .L202
 2856              	.LVL253:
 2857              	.L243:
 244:../../libdaisy/src/dev/oled_ssd130x.h ****         else
 2858              		.loc 15 244 28 view .LVU666
 2859 00ae D608     		lsrs	r6, r2, #3
 244:../../libdaisy/src/dev/oled_ssd130x.h ****         else
 2860              		.loc 15 244 54 view .LVU667
 2861 00b0 02F0070C 		and	ip, r2, #7
 244:../../libdaisy/src/dev/oled_ssd130x.h ****         else
 2862              		.loc 15 244 48 view .LVU668
 2863 00b4 0127     		movs	r7, #1
 244:../../libdaisy/src/dev/oled_ssd130x.h ****         else
 2864              		.loc 15 244 42 view .LVU669
 2865 00b6 03EBC616 		add	r6, r3, r6, lsl #7
 2866 00ba 0644     		add	r6, r6, r0
 243:../../libdaisy/src/dev/oled_ssd130x.h ****             buffer_[x + (y / 8) * width] |= (1 << (y % 8));
 2867              		.loc 15 243 9 view .LVU670
 2868 00bc 002D     		cmp	r5, #0
 2869 00be 00F09481 		beq	.L203
 244:../../libdaisy/src/dev/oled_ssd130x.h ****         else
 2870              		.loc 15 244 48 view .LVU671
 2871 00c2 07FA0CF7 		lsl	r7, r7, ip
 244:../../libdaisy/src/dev/oled_ssd130x.h ****         else
 2872              		.loc 15 244 42 view .LVU672
 2873 00c6 96F814C0 		ldrb	ip, [r6, #20]	@ zero_extendqisi2
 2874 00ca 47EA0C07 		orr	r7, r7, ip
 2875 00ce 3775     		strb	r7, [r6, #20]
 2876 00d0 0026     		movs	r6, #0
 2877 00d2 0296     		str	r6, [sp, #8]
 2878 00d4 0096     		str	r6, [sp]
 2879              	.L202:
 2880              	.LVL254:
 244:../../libdaisy/src/dev/oled_ssd130x.h ****         else
 2881              		.loc 15 244 42 view .LVU673
 2882              	.LBE682:
 2883              	.LBE686:
 2884              	.LBE690:
 199:../../libdaisy/src/hid/disp/display.h ****         {
ARM GAS  C:\Users\VINCIU~1\AppData\Local\Temp\cc6Tz7la.s 			page 92


 2885              		.loc 10 199 26 is_stmt 1 view .LVU674
 2886 00d6 9942     		cmp	r1, r3
 2887 00d8 00F09781 		beq	.L284
 2888              	.L205:
 2889              	.LVL255:
 187:../../libdaisy/src/hid/disp/display.h ****         int_fast16_t deltaY = abs((int_fast16_t)y2 - (int_fast16_t)y1);
 2890              		.loc 10 187 22 is_stmt 0 view .LVU675
 2891 00dc 4646     		mov	r6, r8
 2892 00de 9446     		mov	ip, r2
 2893 00e0 8E46     		mov	lr, r1
 2894              	.LVL256:
 2895              	.L207:
 2896              	.LBB691:
 2897              	.LBI691:
  41:../../libdaisy/src/hid/disp/oled_display.h ****     {
 2898              		.loc 8 41 10 is_stmt 1 view .LVU676
 2899              	.LBB692:
 2900              	.LBI692:
 239:../../libdaisy/src/dev/oled_ssd130x.h ****     {
 2901              		.loc 15 239 10 view .LVU677
 2902              	.LBB693:
 241:../../libdaisy/src/dev/oled_ssd130x.h ****             return;
 2903              		.loc 15 241 9 is_stmt 0 view .LVU678
 2904 00e2 BEF17F0F 		cmp	lr, #127
 2905 00e6 16D8     		bhi	.L208
 2906 00e8 BCF13F0F 		cmp	ip, #63
 2907 00ec 13D8     		bhi	.L208
 244:../../libdaisy/src/dev/oled_ssd130x.h ****         else
 2908              		.loc 15 244 28 view .LVU679
 2909 00ee 4FEADC07 		lsr	r7, ip, #3
 244:../../libdaisy/src/dev/oled_ssd130x.h ****         else
 2910              		.loc 15 244 54 view .LVU680
 2911 00f2 0CF0070B 		and	fp, ip, #7
 244:../../libdaisy/src/dev/oled_ssd130x.h ****         else
 2912              		.loc 15 244 48 view .LVU681
 2913 00f6 4FF00109 		mov	r9, #1
 244:../../libdaisy/src/dev/oled_ssd130x.h ****         else
 2914              		.loc 15 244 42 view .LVU682
 2915 00fa 0EEBC717 		add	r7, lr, r7, lsl #7
 2916 00fe 0744     		add	r7, r7, r0
 243:../../libdaisy/src/dev/oled_ssd130x.h ****             buffer_[x + (y / 8) * width] |= (1 << (y % 8));
 2917              		.loc 15 243 9 view .LVU683
 2918 0100 002D     		cmp	r5, #0
 2919 0102 00F03981 		beq	.L209
 244:../../libdaisy/src/dev/oled_ssd130x.h ****         else
 2920              		.loc 15 244 48 view .LVU684
 2921 0106 09FA0BF9 		lsl	r9, r9, fp
 244:../../libdaisy/src/dev/oled_ssd130x.h ****         else
 2922              		.loc 15 244 42 view .LVU685
 2923 010a 97F814B0 		ldrb	fp, [r7, #20]	@ zero_extendqisi2
 2924 010e 49EA0B09 		orr	r9, r9, fp
 2925 0112 87F81490 		strb	r9, [r7, #20]
 2926              	.L208:
 2927              	.LVL257:
 244:../../libdaisy/src/dev/oled_ssd130x.h ****         else
 2928              		.loc 15 244 42 view .LVU686
 2929              	.LBE693:
ARM GAS  C:\Users\VINCIU~1\AppData\Local\Temp\cc6Tz7la.s 			page 93


 2930              	.LBE692:
 2931              	.LBE691:
 203:../../libdaisy/src/hid/disp/display.h ****             {
 2932              		.loc 10 203 13 view .LVU687
 2933 0116 7700     		lsls	r7, r6, #1
 2934              	.LVL258:
 206:../../libdaisy/src/hid/disp/display.h ****             }
 2935              		.loc 10 206 20 view .LVU688
 2936 0118 18BF     		it	ne
 2937 011a D644     		addne	lr, lr, r10
 2938              	.LVL259:
 209:../../libdaisy/src/hid/disp/display.h ****             {
 2939              		.loc 10 209 13 view .LVU689
 2940 011c B845     		cmp	r8, r7
 2941 011e 02DD     		ble	.L211
 211:../../libdaisy/src/hid/disp/display.h ****                 y1 += signY;
 2942              		.loc 10 211 23 view .LVU690
 2943 0120 4644     		add	r6, r6, r8
 2944              	.LVL260:
 212:../../libdaisy/src/hid/disp/display.h ****             }
 2945              		.loc 10 212 20 view .LVU691
 2946 0122 0CF1FF3C 		add	ip, ip, #-1
 2947              	.LVL261:
 2948              	.L211:
 199:../../libdaisy/src/hid/disp/display.h ****         {
 2949              		.loc 10 199 26 is_stmt 1 view .LVU692
 2950 0126 7345     		cmp	r3, lr
 2951 0128 DBD1     		bne	.L207
 199:../../libdaisy/src/hid/disp/display.h ****         {
 2952              		.loc 10 199 26 is_stmt 0 view .LVU693
 2953 012a 6245     		cmp	r2, ip
 2954 012c D9D1     		bne	.L207
 2955 012e 0026     		movs	r6, #0
 2956              	.LVL262:
 199:../../libdaisy/src/hid/disp/display.h ****         {
 2957              		.loc 10 199 26 view .LVU694
 2958 0130 0496     		str	r6, [sp, #16]
 2959              	.LVL263:
 2960              	.L204:
 199:../../libdaisy/src/hid/disp/display.h ****         {
 2961              		.loc 10 199 26 view .LVU695
 2962              	.LBE676:
 2963              	.LBE675:
 2964              	.LBB706:
 2965              	.LBI706:
 181:../../libdaisy/src/hid/disp/display.h ****                   uint_fast8_t y1,
 2966              		.loc 10 181 10 is_stmt 1 view .LVU696
 2967              	.LBB707:
 188:../../libdaisy/src/hid/disp/display.h ****         int_fast16_t signX  = ((x1 < x2) ? 1 : -1);
 2968              		.loc 10 188 52 is_stmt 0 view .LVU697
 2969 0132 A4EB0209 		sub	r9, r4, r2
 2970              	.LBB708:
 2971              	.LBB709:
 2972              	.LBB710:
 241:../../libdaisy/src/dev/oled_ssd130x.h ****             return;
 2973              		.loc 15 241 9 view .LVU698
 2974 0136 009F     		ldr	r7, [sp]
ARM GAS  C:\Users\VINCIU~1\AppData\Local\Temp\cc6Tz7la.s 			page 94


 2975              	.LBE710:
 2976              	.LBE709:
 2977              	.LBE708:
 188:../../libdaisy/src/hid/disp/display.h ****         int_fast16_t signX  = ((x1 < x2) ? 1 : -1);
 2978              		.loc 10 188 22 view .LVU699
 2979 0138 B9F1000F 		cmp	r9, #0
 2980 013c B8BF     		it	lt
 2981 013e C9F10009 		rsblt	r9, r9, #0
 2982              	.LVL264:
 2983              	.LBB725:
 2984              	.LBB719:
 2985              	.LBB713:
 241:../../libdaisy/src/dev/oled_ssd130x.h ****             return;
 2986              		.loc 15 241 28 view .LVU700
 2987 0142 3F2C     		cmp	r4, #63
 2988 0144 94BF     		ite	ls
 2989 0146 0026     		movls	r6, #0
 2990 0148 0126     		movhi	r6, #1
 2991              	.LBE713:
 2992              	.LBE719:
 2993              	.LBE725:
 190:../../libdaisy/src/hid/disp/display.h ****         int_fast16_t error  = deltaX - deltaY;
 2994              		.loc 10 190 42 view .LVU701
 2995 014a A242     		cmp	r2, r4
 191:../../libdaisy/src/hid/disp/display.h ****         int_fast16_t error2;
 2996              		.loc 10 191 22 view .LVU702
 2997 014c C9F10008 		rsb	r8, r9, #0
 2998              	.LVL265:
 2999              	.LBB726:
 3000              	.LBI708:
  41:../../libdaisy/src/hid/disp/oled_display.h ****     {
 3001              		.loc 8 41 10 is_stmt 1 view .LVU703
 3002              	.LBB720:
 3003              	.LBI709:
 239:../../libdaisy/src/dev/oled_ssd130x.h ****     {
 3004              		.loc 15 239 10 view .LVU704
 3005              	.LBB714:
 241:../../libdaisy/src/dev/oled_ssd130x.h ****             return;
 3006              		.loc 15 241 28 is_stmt 0 view .LVU705
 3007 0150 0396     		str	r6, [sp, #12]
 3008              	.LBE714:
 3009              	.LBE720:
 3010              	.LBE726:
 190:../../libdaisy/src/hid/disp/display.h ****         int_fast16_t error  = deltaX - deltaY;
 3011              		.loc 10 190 42 view .LVU706
 3012 0152 C0F02381 		bcc	.L212
 3013              	.LVL266:
 3014              	.LBB727:
 3015              	.LBB721:
 3016              	.LBB715:
 241:../../libdaisy/src/dev/oled_ssd130x.h ****             return;
 3017              		.loc 15 241 9 view .LVU707
 3018 0156 002F     		cmp	r7, #0
 3019 0158 40F05081 		bne	.L247
 3020 015c 002E     		cmp	r6, #0
 3021 015e 40F04D81 		bne	.L247
 3022              	.LBE715:
ARM GAS  C:\Users\VINCIU~1\AppData\Local\Temp\cc6Tz7la.s 			page 95


 3023              	.LBE721:
 3024              	.LBE727:
 190:../../libdaisy/src/hid/disp/display.h ****         int_fast16_t error  = deltaX - deltaY;
 3025              		.loc 10 190 42 view .LVU708
 3026 0162 4FF0FF36 		mov	r6, #-1
 3027 0166 0096     		str	r6, [sp]
 3028              	.LBB728:
 3029              	.LBB722:
 3030              	.LBB716:
 244:../../libdaisy/src/dev/oled_ssd130x.h ****         else
 3031              		.loc 15 244 28 view .LVU709
 3032 0168 E608     		lsrs	r6, r4, #3
 244:../../libdaisy/src/dev/oled_ssd130x.h ****         else
 3033              		.loc 15 244 42 view .LVU710
 3034 016a 03EBC616 		add	r6, r3, r6, lsl #7
 3035 016e 0644     		add	r6, r6, r0
 243:../../libdaisy/src/dev/oled_ssd130x.h ****             buffer_[x + (y / 8) * width] |= (1 << (y % 8));
 3036              		.loc 15 243 9 view .LVU711
 3037 0170 002D     		cmp	r5, #0
 3038 0172 00F01E81 		beq	.L214
 3039              	.LVL267:
 3040              	.L286:
 244:../../libdaisy/src/dev/oled_ssd130x.h ****         else
 3041              		.loc 15 244 48 view .LVU712
 3042 0176 4FF0010C 		mov	ip, #1
 244:../../libdaisy/src/dev/oled_ssd130x.h ****         else
 3043              		.loc 15 244 54 view .LVU713
 3044 017a 04F00707 		and	r7, r4, #7
 244:../../libdaisy/src/dev/oled_ssd130x.h ****         else
 3045              		.loc 15 244 48 view .LVU714
 3046 017e 0CFA07F7 		lsl	r7, ip, r7
 244:../../libdaisy/src/dev/oled_ssd130x.h ****         else
 3047              		.loc 15 244 42 view .LVU715
 3048 0182 96F814C0 		ldrb	ip, [r6, #20]	@ zero_extendqisi2
 3049 0186 47EA0C07 		orr	r7, r7, ip
 3050 018a 3775     		strb	r7, [r6, #20]
 3051 018c 0026     		movs	r6, #0
 3052 018e 0396     		str	r6, [sp, #12]
 3053              	.L213:
 3054              	.LVL268:
 244:../../libdaisy/src/dev/oled_ssd130x.h ****         else
 3055              		.loc 15 244 42 view .LVU716
 3056              	.LBE716:
 3057              	.LBE722:
 3058              	.LBE728:
 199:../../libdaisy/src/hid/disp/display.h ****         {
 3059              		.loc 10 199 26 is_stmt 1 view .LVU717
 3060 0190 A242     		cmp	r2, r4
 3061 0192 00F03D81 		beq	.L285
 3062              	.L216:
 3063              	.LVL269:
 190:../../libdaisy/src/hid/disp/display.h ****         int_fast16_t error  = deltaX - deltaY;
 3064              		.loc 10 190 42 is_stmt 0 view .LVU718
 3065 0196 C446     		mov	ip, r8
 3066 0198 1646     		mov	r6, r2
 3067 019a 1F46     		mov	r7, r3
 3068 019c 0592     		str	r2, [sp, #20]
ARM GAS  C:\Users\VINCIU~1\AppData\Local\Temp\cc6Tz7la.s 			page 96


 3069              	.LVL270:
 3070              	.L218:
 3071              	.LBB729:
 3072              	.LBI729:
  41:../../libdaisy/src/hid/disp/oled_display.h ****     {
 3073              		.loc 8 41 10 is_stmt 1 view .LVU719
 3074              	.LBB730:
 3075              	.LBI730:
 239:../../libdaisy/src/dev/oled_ssd130x.h ****     {
 3076              		.loc 15 239 10 view .LVU720
 3077              	.LBB731:
 241:../../libdaisy/src/dev/oled_ssd130x.h ****             return;
 3078              		.loc 15 241 9 is_stmt 0 view .LVU721
 3079 019e 7F2F     		cmp	r7, #127
 3080 01a0 15D8     		bhi	.L219
 3081 01a2 3F2E     		cmp	r6, #63
 3082 01a4 13D8     		bhi	.L219
 244:../../libdaisy/src/dev/oled_ssd130x.h ****         else
 3083              		.loc 15 244 28 view .LVU722
 3084 01a6 4FEAD60E 		lsr	lr, r6, #3
 244:../../libdaisy/src/dev/oled_ssd130x.h ****         else
 3085              		.loc 15 244 54 view .LVU723
 3086 01aa 06F0070B 		and	fp, r6, #7
 244:../../libdaisy/src/dev/oled_ssd130x.h ****         else
 3087              		.loc 15 244 48 view .LVU724
 3088 01ae 4FF0010A 		mov	r10, #1
 244:../../libdaisy/src/dev/oled_ssd130x.h ****         else
 3089              		.loc 15 244 42 view .LVU725
 3090 01b2 07EBCE1E 		add	lr, r7, lr, lsl #7
 3091 01b6 8644     		add	lr, lr, r0
 243:../../libdaisy/src/dev/oled_ssd130x.h ****             buffer_[x + (y / 8) * width] |= (1 << (y % 8));
 3092              		.loc 15 243 9 view .LVU726
 3093 01b8 002D     		cmp	r5, #0
 3094 01ba 00F0E680 		beq	.L220
 244:../../libdaisy/src/dev/oled_ssd130x.h ****         else
 3095              		.loc 15 244 48 view .LVU727
 3096 01be 0AFA0BFA 		lsl	r10, r10, fp
 244:../../libdaisy/src/dev/oled_ssd130x.h ****         else
 3097              		.loc 15 244 42 view .LVU728
 3098 01c2 9EF814B0 		ldrb	fp, [lr, #20]	@ zero_extendqisi2
 3099 01c6 4AEA0B0A 		orr	r10, r10, fp
 3100 01ca 8EF814A0 		strb	r10, [lr, #20]
 3101              	.L219:
 3102              	.LVL271:
 244:../../libdaisy/src/dev/oled_ssd130x.h ****         else
 3103              		.loc 15 244 42 view .LVU729
 3104              	.LBE731:
 3105              	.LBE730:
 3106              	.LBE729:
 203:../../libdaisy/src/hid/disp/display.h ****             {
 3107              		.loc 10 203 13 view .LVU730
 3108 01ce B8EB4C0F 		cmp	r8, ip, lsl #1
 202:../../libdaisy/src/hid/disp/display.h ****             if(error2 > -deltaY)
 3109              		.loc 10 202 20 view .LVU731
 3110 01d2 4FEA4C0E 		lsl	lr, ip, #1
 3111              	.LVL272:
 203:../../libdaisy/src/hid/disp/display.h ****             {
ARM GAS  C:\Users\VINCIU~1\AppData\Local\Temp\cc6Tz7la.s 			page 97


 3112              		.loc 10 203 13 view .LVU732
 3113 01d6 02DA     		bge	.L221
 205:../../libdaisy/src/hid/disp/display.h ****                 x1 += signX;
 3114              		.loc 10 205 23 view .LVU733
 3115 01d8 ACEB090C 		sub	ip, ip, r9
 3116              	.LVL273:
 206:../../libdaisy/src/hid/disp/display.h ****             }
 3117              		.loc 10 206 20 view .LVU734
 3118 01dc 013F     		subs	r7, r7, #1
 3119              	.LVL274:
 3120              	.L221:
 209:../../libdaisy/src/hid/disp/display.h ****             {
 3121              		.loc 10 209 13 view .LVU735
 3122 01de BEF1000F 		cmp	lr, #0
 3123 01e2 01D0     		beq	.L222
 212:../../libdaisy/src/hid/disp/display.h ****             }
 3124              		.loc 10 212 20 view .LVU736
 3125 01e4 009A     		ldr	r2, [sp]
 3126 01e6 1644     		add	r6, r6, r2
 3127              	.LVL275:
 3128              	.L222:
 199:../../libdaisy/src/hid/disp/display.h ****         {
 3129              		.loc 10 199 26 is_stmt 1 view .LVU737
 3130 01e8 BB42     		cmp	r3, r7
 3131 01ea D8D1     		bne	.L218
 199:../../libdaisy/src/hid/disp/display.h ****         {
 3132              		.loc 10 199 26 is_stmt 0 view .LVU738
 3133 01ec B442     		cmp	r4, r6
 3134 01ee D6D1     		bne	.L218
 3135 01f0 059A     		ldr	r2, [sp, #20]
 3136              	.LVL276:
 3137              	.L215:
 199:../../libdaisy/src/hid/disp/display.h ****         {
 3138              		.loc 10 199 26 view .LVU739
 3139              	.LBE707:
 3140              	.LBE706:
 3141              	.LBB742:
 3142              	.LBI742:
 181:../../libdaisy/src/hid/disp/display.h ****                   uint_fast8_t y1,
 3143              		.loc 10 181 10 is_stmt 1 view .LVU740
 3144              	.LBB743:
 187:../../libdaisy/src/hid/disp/display.h ****         int_fast16_t deltaY = abs((int_fast16_t)y2 - (int_fast16_t)y1);
 3145              		.loc 10 187 52 is_stmt 0 view .LVU741
 3146 01f2 A1EB030E 		sub	lr, r1, r3
 187:../../libdaisy/src/hid/disp/display.h ****         int_fast16_t deltaY = abs((int_fast16_t)y2 - (int_fast16_t)y1);
 3147              		.loc 10 187 22 view .LVU742
 3148 01f6 BEF1000F 		cmp	lr, #0
 3149 01fa B8BF     		it	lt
 3150 01fc CEF1000E 		rsblt	lr, lr, #0
 3151              	.LVL277:
 3152              	.LBB744:
 3153              	.LBB745:
 3154              	.LBB746:
 241:../../libdaisy/src/dev/oled_ssd130x.h ****             return;
 3155              		.loc 15 241 14 view .LVU743
 3156 0200 7F29     		cmp	r1, #127
 3157 0202 94BF     		ite	ls
ARM GAS  C:\Users\VINCIU~1\AppData\Local\Temp\cc6Tz7la.s 			page 98


 3158 0204 4FF0000A 		movls	r10, #0
 3159 0208 4FF0010A 		movhi	r10, #1
 3160              	.LBE746:
 3161              	.LBE745:
 3162              	.LBE744:
 189:../../libdaisy/src/hid/disp/display.h ****         int_fast16_t signY  = ((y1 < y2) ? 1 : -1);
 3163              		.loc 10 189 42 view .LVU744
 3164 020c 9942     		cmp	r1, r3
 3165 020e 8CBF     		ite	hi
 3166 0210 4FF00109 		movhi	r9, #1
 3167 0214 4FF0FF39 		movls	r9, #-1
 3168              	.LVL278:
 3169              	.LBB753:
 3170              	.LBI744:
  41:../../libdaisy/src/hid/disp/oled_display.h ****     {
 3171              		.loc 8 41 10 is_stmt 1 view .LVU745
 3172              	.LBB751:
 3173              	.LBI745:
 239:../../libdaisy/src/dev/oled_ssd130x.h ****     {
 3174              		.loc 15 239 10 view .LVU746
 3175              	.LBB749:
 241:../../libdaisy/src/dev/oled_ssd130x.h ****             return;
 3176              		.loc 15 241 9 is_stmt 0 view .LVU747
 3177 0218 BAF1000F 		cmp	r10, #0
 3178 021c 13D1     		bne	.L224
 3179 021e 039E     		ldr	r6, [sp, #12]
 3180 0220 8EB9     		cbnz	r6, .L224
 244:../../libdaisy/src/dev/oled_ssd130x.h ****         else
 3181              		.loc 15 244 28 view .LVU748
 3182 0222 E608     		lsrs	r6, r4, #3
 244:../../libdaisy/src/dev/oled_ssd130x.h ****         else
 3183              		.loc 15 244 42 view .LVU749
 3184 0224 01EBC616 		add	r6, r1, r6, lsl #7
 3185 0228 0644     		add	r6, r6, r0
 243:../../libdaisy/src/dev/oled_ssd130x.h ****             buffer_[x + (y / 8) * width] |= (1 << (y % 8));
 3186              		.loc 15 243 9 view .LVU750
 3187 022a 002D     		cmp	r5, #0
 3188 022c 00F0D380 		beq	.L225
 244:../../libdaisy/src/dev/oled_ssd130x.h ****         else
 3189              		.loc 15 244 48 view .LVU751
 3190 0230 4FF0010C 		mov	ip, #1
 244:../../libdaisy/src/dev/oled_ssd130x.h ****         else
 3191              		.loc 15 244 54 view .LVU752
 3192 0234 04F00707 		and	r7, r4, #7
 244:../../libdaisy/src/dev/oled_ssd130x.h ****         else
 3193              		.loc 15 244 48 view .LVU753
 3194 0238 0CFA07F7 		lsl	r7, ip, r7
 244:../../libdaisy/src/dev/oled_ssd130x.h ****         else
 3195              		.loc 15 244 42 view .LVU754
 3196 023c 96F814C0 		ldrb	ip, [r6, #20]	@ zero_extendqisi2
 3197 0240 47EA0C07 		orr	r7, r7, ip
 3198 0244 3775     		strb	r7, [r6, #20]
 3199              	.L224:
 3200              	.LVL279:
 244:../../libdaisy/src/dev/oled_ssd130x.h ****         else
 3201              		.loc 15 244 42 view .LVU755
 3202              	.LBE749:
ARM GAS  C:\Users\VINCIU~1\AppData\Local\Temp\cc6Tz7la.s 			page 99


 3203              	.LBE751:
 3204              	.LBE753:
 199:../../libdaisy/src/hid/disp/display.h ****         {
 3205              		.loc 10 199 26 is_stmt 1 view .LVU756
 3206 0246 049E     		ldr	r6, [sp, #16]
 3207 0248 26BB     		cbnz	r6, .L226
 187:../../libdaisy/src/hid/disp/display.h ****         int_fast16_t deltaY = abs((int_fast16_t)y2 - (int_fast16_t)y1);
 3208              		.loc 10 187 22 is_stmt 0 view .LVU757
 3209 024a 7746     		mov	r7, lr
 199:../../libdaisy/src/hid/disp/display.h ****         {
 3210              		.loc 10 199 26 view .LVU758
 3211 024c 2646     		mov	r6, r4
 3212              	.LVL280:
 3213              	.L227:
 3214              	.LBB754:
 3215              	.LBI754:
  41:../../libdaisy/src/hid/disp/oled_display.h ****     {
 3216              		.loc 8 41 10 is_stmt 1 view .LVU759
 3217              	.LBB755:
 3218              	.LBI755:
 239:../../libdaisy/src/dev/oled_ssd130x.h ****     {
 3219              		.loc 15 239 10 view .LVU760
 3220              	.LBB756:
 241:../../libdaisy/src/dev/oled_ssd130x.h ****             return;
 3221              		.loc 15 241 9 is_stmt 0 view .LVU761
 3222 024e 7F2B     		cmp	r3, #127
 3223 0250 14D8     		bhi	.L229
 241:../../libdaisy/src/dev/oled_ssd130x.h ****             return;
 3224              		.loc 15 241 9 view .LVU762
 3225 0252 3F2E     		cmp	r6, #63
 3226 0254 12D8     		bhi	.L229
 244:../../libdaisy/src/dev/oled_ssd130x.h ****         else
 3227              		.loc 15 244 28 view .LVU763
 3228 0256 4FEAD60C 		lsr	ip, r6, #3
 244:../../libdaisy/src/dev/oled_ssd130x.h ****         else
 3229              		.loc 15 244 54 view .LVU764
 3230 025a 06F0070B 		and	fp, r6, #7
 244:../../libdaisy/src/dev/oled_ssd130x.h ****         else
 3231              		.loc 15 244 48 view .LVU765
 3232 025e 4FF00108 		mov	r8, #1
 244:../../libdaisy/src/dev/oled_ssd130x.h ****         else
 3233              		.loc 15 244 42 view .LVU766
 3234 0262 03EBCC1C 		add	ip, r3, ip, lsl #7
 3235 0266 8444     		add	ip, ip, r0
 243:../../libdaisy/src/dev/oled_ssd130x.h ****             buffer_[x + (y / 8) * width] |= (1 << (y % 8));
 3236              		.loc 15 243 9 view .LVU767
 3237 0268 002D     		cmp	r5, #0
 3238 026a 73D0     		beq	.L230
 244:../../libdaisy/src/dev/oled_ssd130x.h ****         else
 3239              		.loc 15 244 48 view .LVU768
 3240 026c 08FA0BF8 		lsl	r8, r8, fp
 244:../../libdaisy/src/dev/oled_ssd130x.h ****         else
 3241              		.loc 15 244 42 view .LVU769
 3242 0270 9CF814B0 		ldrb	fp, [ip, #20]	@ zero_extendqisi2
 3243 0274 48EA0B08 		orr	r8, r8, fp
 3244 0278 8CF81480 		strb	r8, [ip, #20]
 3245              	.L229:
ARM GAS  C:\Users\VINCIU~1\AppData\Local\Temp\cc6Tz7la.s 			page 100


 3246              	.LVL281:
 244:../../libdaisy/src/dev/oled_ssd130x.h ****         else
 3247              		.loc 15 244 42 view .LVU770
 3248              	.LBE756:
 3249              	.LBE755:
 3250              	.LBE754:
 203:../../libdaisy/src/hid/disp/display.h ****             {
 3251              		.loc 10 203 13 view .LVU771
 3252 027c 5FEA470C 		lsls	ip, r7, #1
 3253              	.LVL282:
 206:../../libdaisy/src/hid/disp/display.h ****             }
 3254              		.loc 10 206 20 view .LVU772
 3255 0280 18BF     		it	ne
 3256 0282 4B44     		addne	r3, r3, r9
 3257              	.LVL283:
 209:../../libdaisy/src/hid/disp/display.h ****             {
 3258              		.loc 10 209 13 view .LVU773
 3259 0284 E645     		cmp	lr, ip
 3260 0286 01DD     		ble	.L232
 211:../../libdaisy/src/hid/disp/display.h ****                 y1 += signY;
 3261              		.loc 10 211 23 view .LVU774
 3262 0288 7744     		add	r7, r7, lr
 3263              	.LVL284:
 212:../../libdaisy/src/hid/disp/display.h ****             }
 3264              		.loc 10 212 20 view .LVU775
 3265 028a 013E     		subs	r6, r6, #1
 3266              	.LVL285:
 3267              	.L232:
 199:../../libdaisy/src/hid/disp/display.h ****         {
 3268              		.loc 10 199 26 is_stmt 1 view .LVU776
 3269 028c 9942     		cmp	r1, r3
 3270 028e DED1     		bne	.L227
 199:../../libdaisy/src/hid/disp/display.h ****         {
 3271              		.loc 10 199 26 is_stmt 0 view .LVU777
 3272 0290 B442     		cmp	r4, r6
 3273 0292 DCD1     		bne	.L227
 3274              	.LVL286:
 3275              	.L226:
 199:../../libdaisy/src/hid/disp/display.h ****         {
 3276              		.loc 10 199 26 view .LVU778
 3277              	.LBE743:
 3278              	.LBE742:
 3279              	.LBB765:
 3280              	.LBI765:
 181:../../libdaisy/src/hid/disp/display.h ****                   uint_fast8_t y1,
 3281              		.loc 10 181 10 is_stmt 1 view .LVU779
 3282              	.LBB766:
 188:../../libdaisy/src/hid/disp/display.h ****         int_fast16_t signX  = ((x1 < x2) ? 1 : -1);
 3283              		.loc 10 188 52 is_stmt 0 view .LVU780
 3284 0294 A2EB040E 		sub	lr, r2, r4
 188:../../libdaisy/src/hid/disp/display.h ****         int_fast16_t signX  = ((x1 < x2) ? 1 : -1);
 3285              		.loc 10 188 22 view .LVU781
 3286 0298 BEF1000F 		cmp	lr, #0
 3287 029c B8BF     		it	lt
 3288 029e CEF1000E 		rsblt	lr, lr, #0
 3289              	.LVL287:
 190:../../libdaisy/src/hid/disp/display.h ****         int_fast16_t error  = deltaX - deltaY;
ARM GAS  C:\Users\VINCIU~1\AppData\Local\Temp\cc6Tz7la.s 			page 101


 3290              		.loc 10 190 42 view .LVU782
 3291 02a2 A242     		cmp	r2, r4
 3292 02a4 8CBF     		ite	hi
 3293 02a6 4FF00108 		movhi	r8, #1
 3294 02aa 4FF0FF38 		movls	r8, #-1
 3295              	.LVL288:
 191:../../libdaisy/src/hid/disp/display.h ****         int_fast16_t error2;
 3296              		.loc 10 191 22 view .LVU783
 3297 02ae CEF1000C 		rsb	ip, lr, #0
 3298              	.LVL289:
 3299              	.LBB767:
 3300              	.LBI767:
  41:../../libdaisy/src/hid/disp/oled_display.h ****     {
 3301              		.loc 8 41 10 is_stmt 1 view .LVU784
 3302              	.LBB768:
 3303              	.LBI768:
 239:../../libdaisy/src/dev/oled_ssd130x.h ****     {
 3304              		.loc 15 239 10 view .LVU785
 3305              	.LBB769:
 241:../../libdaisy/src/dev/oled_ssd130x.h ****             return;
 3306              		.loc 15 241 9 is_stmt 0 view .LVU786
 3307 02b2 BAF1000F 		cmp	r10, #0
 3308 02b6 0ED1     		bne	.L234
 3309 02b8 029B     		ldr	r3, [sp, #8]
 3310 02ba 63B9     		cbnz	r3, .L234
 244:../../libdaisy/src/dev/oled_ssd130x.h ****         else
 3311              		.loc 15 244 28 view .LVU787
 3312 02bc D308     		lsrs	r3, r2, #3
 244:../../libdaisy/src/dev/oled_ssd130x.h ****         else
 3313              		.loc 15 244 54 view .LVU788
 3314 02be 02F00707 		and	r7, r2, #7
 244:../../libdaisy/src/dev/oled_ssd130x.h ****         else
 3315              		.loc 15 244 48 view .LVU789
 3316 02c2 0126     		movs	r6, #1
 244:../../libdaisy/src/dev/oled_ssd130x.h ****         else
 3317              		.loc 15 244 42 view .LVU790
 3318 02c4 01EBC313 		add	r3, r1, r3, lsl #7
 3319 02c8 0344     		add	r3, r3, r0
 243:../../libdaisy/src/dev/oled_ssd130x.h ****             buffer_[x + (y / 8) * width] |= (1 << (y % 8));
 3320              		.loc 15 243 9 view .LVU791
 3321 02ca 002D     		cmp	r5, #0
 3322 02cc 7CD0     		beq	.L235
 244:../../libdaisy/src/dev/oled_ssd130x.h ****         else
 3323              		.loc 15 244 48 view .LVU792
 3324 02ce BE40     		lsls	r6, r6, r7
 244:../../libdaisy/src/dev/oled_ssd130x.h ****         else
 3325              		.loc 15 244 42 view .LVU793
 3326 02d0 1F7D     		ldrb	r7, [r3, #20]	@ zero_extendqisi2
 3327 02d2 3E43     		orrs	r6, r6, r7
 3328 02d4 1E75     		strb	r6, [r3, #20]
 3329              	.L234:
 3330              	.LVL290:
 244:../../libdaisy/src/dev/oled_ssd130x.h ****         else
 3331              		.loc 15 244 42 view .LVU794
 3332              	.LBE769:
 3333              	.LBE768:
 3334              	.LBE767:
ARM GAS  C:\Users\VINCIU~1\AppData\Local\Temp\cc6Tz7la.s 			page 102


 199:../../libdaisy/src/hid/disp/display.h ****         {
 3335              		.loc 10 199 26 is_stmt 1 view .LVU795
 3336 02d6 019B     		ldr	r3, [sp, #4]
 3337 02d8 002B     		cmp	r3, #0
 3338 02da 7FF4CDAE 		bne	.L192
 3339 02de 6646     		mov	r6, ip
 3340 02e0 0B46     		mov	r3, r1
 3341              	.LVL291:
 3342              	.L236:
 3343              	.LBB774:
 3344              	.LBI774:
  41:../../libdaisy/src/hid/disp/oled_display.h ****     {
 3345              		.loc 8 41 10 view .LVU796
 3346              	.LBB775:
 3347              	.LBI775:
 239:../../libdaisy/src/dev/oled_ssd130x.h ****     {
 3348              		.loc 15 239 10 view .LVU797
 3349              	.LBB776:
 241:../../libdaisy/src/dev/oled_ssd130x.h ****             return;
 3350              		.loc 15 241 9 is_stmt 0 view .LVU798
 3351 02e2 7F2B     		cmp	r3, #127
 3352 02e4 12D8     		bhi	.L238
 241:../../libdaisy/src/dev/oled_ssd130x.h ****             return;
 3353              		.loc 15 241 9 view .LVU799
 3354 02e6 3F2C     		cmp	r4, #63
 3355 02e8 10D8     		bhi	.L238
 244:../../libdaisy/src/dev/oled_ssd130x.h ****         else
 3356              		.loc 15 244 28 view .LVU800
 3357 02ea E708     		lsrs	r7, r4, #3
 244:../../libdaisy/src/dev/oled_ssd130x.h ****         else
 3358              		.loc 15 244 54 view .LVU801
 3359 02ec 04F0070A 		and	r10, r4, #7
 244:../../libdaisy/src/dev/oled_ssd130x.h ****         else
 3360              		.loc 15 244 48 view .LVU802
 3361 02f0 4FF00109 		mov	r9, #1
 244:../../libdaisy/src/dev/oled_ssd130x.h ****         else
 3362              		.loc 15 244 42 view .LVU803
 3363 02f4 03EBC717 		add	r7, r3, r7, lsl #7
 3364 02f8 0744     		add	r7, r7, r0
 243:../../libdaisy/src/dev/oled_ssd130x.h ****             buffer_[x + (y / 8) * width] |= (1 << (y % 8));
 3365              		.loc 15 243 9 view .LVU804
 3366 02fa A5B3     		cbz	r5, .L239
 244:../../libdaisy/src/dev/oled_ssd130x.h ****         else
 3367              		.loc 15 244 48 view .LVU805
 3368 02fc 09FA0AF9 		lsl	r9, r9, r10
 244:../../libdaisy/src/dev/oled_ssd130x.h ****         else
 3369              		.loc 15 244 42 view .LVU806
 3370 0300 97F814A0 		ldrb	r10, [r7, #20]	@ zero_extendqisi2
 3371 0304 49EA0A09 		orr	r9, r9, r10
 3372 0308 87F81490 		strb	r9, [r7, #20]
 3373              	.L238:
 3374              	.LVL292:
 244:../../libdaisy/src/dev/oled_ssd130x.h ****         else
 3375              		.loc 15 244 42 view .LVU807
 3376              	.LBE776:
 3377              	.LBE775:
 3378              	.LBE774:
ARM GAS  C:\Users\VINCIU~1\AppData\Local\Temp\cc6Tz7la.s 			page 103


 203:../../libdaisy/src/hid/disp/display.h ****             {
 3379              		.loc 10 203 13 view .LVU808
 3380 030c BCEB460F 		cmp	ip, r6, lsl #1
 202:../../libdaisy/src/hid/disp/display.h ****             if(error2 > -deltaY)
 3381              		.loc 10 202 20 view .LVU809
 3382 0310 4FEA4607 		lsl	r7, r6, #1
 3383              	.LVL293:
 203:../../libdaisy/src/hid/disp/display.h ****             {
 3384              		.loc 10 203 13 view .LVU810
 3385 0314 02DA     		bge	.L240
 205:../../libdaisy/src/hid/disp/display.h ****                 x1 += signX;
 3386              		.loc 10 205 23 view .LVU811
 3387 0316 A6EB0E06 		sub	r6, r6, lr
 3388              	.LVL294:
 206:../../libdaisy/src/hid/disp/display.h ****             }
 3389              		.loc 10 206 20 view .LVU812
 3390 031a 013B     		subs	r3, r3, #1
 3391              	.LVL295:
 3392              	.L240:
 209:../../libdaisy/src/hid/disp/display.h ****             {
 3393              		.loc 10 209 13 view .LVU813
 3394 031c 07B1     		cbz	r7, .L241
 212:../../libdaisy/src/hid/disp/display.h ****             }
 3395              		.loc 10 212 20 view .LVU814
 3396 031e 4444     		add	r4, r4, r8
 3397              	.LVL296:
 3398              	.L241:
 199:../../libdaisy/src/hid/disp/display.h ****         {
 3399              		.loc 10 199 26 is_stmt 1 view .LVU815
 3400 0320 9942     		cmp	r1, r3
 3401 0322 DED1     		bne	.L236
 199:../../libdaisy/src/hid/disp/display.h ****         {
 3402              		.loc 10 199 26 is_stmt 0 view .LVU816
 3403 0324 A242     		cmp	r2, r4
 3404 0326 DCD1     		bne	.L236
 3405              	.LBE766:
 3406              	.LBE765:
 3407              	.LBE818:
 241:../../libdaisy/src/hid/disp/display.h **** 
 3408              		.loc 10 241 5 view .LVU817
 3409 0328 07B0     		add	sp, sp, #28
 3410              		.cfi_remember_state
 3411              		.cfi_def_cfa_offset 36
 3412              		@ sp needed
 3413 032a BDE8F08F 		pop	{r4, r5, r6, r7, r8, r9, r10, fp, pc}
 3414              	.LVL297:
 3415              	.L201:
 3416              		.cfi_restore_state
 3417              	.LBB819:
 3418              	.LBB785:
 3419              	.LBB702:
 3420              	.LBB698:
  41:../../libdaisy/src/hid/disp/oled_display.h ****     {
 3421              		.loc 8 41 10 is_stmt 1 view .LVU818
 3422              	.LBB687:
 239:../../libdaisy/src/dev/oled_ssd130x.h ****     {
 3423              		.loc 15 239 10 view .LVU819
ARM GAS  C:\Users\VINCIU~1\AppData\Local\Temp\cc6Tz7la.s 			page 104


 3424              	.LBB683:
 241:../../libdaisy/src/dev/oled_ssd130x.h ****             return;
 3425              		.loc 15 241 28 is_stmt 0 view .LVU820
 3426 032e 3F2A     		cmp	r2, #63
 3427              	.LBE683:
 3428              	.LBE687:
 3429              	.LBE698:
 189:../../libdaisy/src/hid/disp/display.h ****         int_fast16_t signY  = ((y1 < y2) ? 1 : -1);
 3430              		.loc 10 189 42 view .LVU821
 3431 0330 4FF0010A 		mov	r10, #1
 3432              	.LBB699:
 3433              	.LBB688:
 3434              	.LBB684:
 241:../../libdaisy/src/dev/oled_ssd130x.h ****             return;
 3435              		.loc 15 241 28 view .LVU822
 3436 0334 94BF     		ite	ls
 3437 0336 0026     		movls	r6, #0
 3438 0338 0126     		movhi	r6, #1
 241:../../libdaisy/src/dev/oled_ssd130x.h ****             return;
 3439              		.loc 15 241 14 view .LVU823
 3440 033a 7F2B     		cmp	r3, #127
 241:../../libdaisy/src/dev/oled_ssd130x.h ****             return;
 3441              		.loc 15 241 28 view .LVU824
 3442 033c 0296     		str	r6, [sp, #8]
 241:../../libdaisy/src/dev/oled_ssd130x.h ****             return;
 3443              		.loc 15 241 14 view .LVU825
 3444 033e 94BF     		ite	ls
 3445 0340 0027     		movls	r7, #0
 3446 0342 0127     		movhi	r7, #1
 3447 0344 0097     		str	r7, [sp]
 241:../../libdaisy/src/dev/oled_ssd130x.h ****             return;
 3448              		.loc 15 241 9 view .LVU826
 3449 0346 002E     		cmp	r6, #0
 3450 0348 7FF4C8AE 		bne	.L205
 3451 034c 002F     		cmp	r7, #0
 3452 034e 3FF4AEAE 		beq	.L243
 3453 0352 C3E6     		b	.L205
 3454              	.LVL298:
 3455              	.L230:
 241:../../libdaisy/src/dev/oled_ssd130x.h ****             return;
 3456              		.loc 15 241 9 view .LVU827
 3457              	.LBE684:
 3458              	.LBE688:
 3459              	.LBE699:
 3460              	.LBE702:
 3461              	.LBE785:
 3462              	.LBB786:
 3463              	.LBB763:
 3464              	.LBB761:
 3465              	.LBB760:
 3466              	.LBB759:
 3467              	.LBB757:
 3468              	.LBI757:
 239:../../libdaisy/src/dev/oled_ssd130x.h ****     {
 3469              		.loc 15 239 10 is_stmt 1 view .LVU828
 3470              	.LBB758:
 246:../../libdaisy/src/dev/oled_ssd130x.h ****     }
ARM GAS  C:\Users\VINCIU~1\AppData\Local\Temp\cc6Tz7la.s 			page 105


 3471              		.loc 15 246 49 is_stmt 0 view .LVU829
 3472 0354 08FA0BFB 		lsl	fp, r8, fp
 246:../../libdaisy/src/dev/oled_ssd130x.h ****     }
 3473              		.loc 15 246 42 view .LVU830
 3474 0358 9CF81480 		ldrb	r8, [ip, #20]	@ zero_extendqisi2
 3475 035c 28EA0B08 		bic	r8, r8, fp
 3476 0360 8CF81480 		strb	r8, [ip, #20]
 3477 0364 8AE7     		b	.L229
 3478              	.LVL299:
 3479              	.L239:
 246:../../libdaisy/src/dev/oled_ssd130x.h ****     }
 3480              		.loc 15 246 42 view .LVU831
 3481              	.LBE758:
 3482              	.LBE757:
 3483              	.LBE759:
 3484              	.LBE760:
 3485              	.LBE761:
 3486              	.LBE763:
 3487              	.LBE786:
 3488              	.LBB787:
 3489              	.LBB783:
 3490              	.LBB781:
 3491              	.LBB780:
 3492              	.LBB779:
 3493              	.LBB777:
 3494              	.LBI777:
 239:../../libdaisy/src/dev/oled_ssd130x.h ****     {
 3495              		.loc 15 239 10 is_stmt 1 view .LVU832
 3496              	.LBB778:
 246:../../libdaisy/src/dev/oled_ssd130x.h ****     }
 3497              		.loc 15 246 49 is_stmt 0 view .LVU833
 3498 0366 09FA0AFA 		lsl	r10, r9, r10
 246:../../libdaisy/src/dev/oled_ssd130x.h ****     }
 3499              		.loc 15 246 42 view .LVU834
 3500 036a 97F81490 		ldrb	r9, [r7, #20]	@ zero_extendqisi2
 3501 036e 29EA0A09 		bic	r9, r9, r10
 3502 0372 87F81490 		strb	r9, [r7, #20]
 3503 0376 C9E7     		b	.L238
 3504              	.LVL300:
 3505              	.L209:
 246:../../libdaisy/src/dev/oled_ssd130x.h ****     }
 3506              		.loc 15 246 42 view .LVU835
 3507              	.LBE778:
 3508              	.LBE777:
 3509              	.LBE779:
 3510              	.LBE780:
 3511              	.LBE781:
 3512              	.LBE783:
 3513              	.LBE787:
 3514              	.LBB788:
 3515              	.LBB703:
 3516              	.LBB700:
 3517              	.LBB697:
 3518              	.LBB696:
 3519              	.LBB694:
 3520              	.LBI694:
 239:../../libdaisy/src/dev/oled_ssd130x.h ****     {
ARM GAS  C:\Users\VINCIU~1\AppData\Local\Temp\cc6Tz7la.s 			page 106


 3521              		.loc 15 239 10 is_stmt 1 view .LVU836
 3522              	.LBB695:
 246:../../libdaisy/src/dev/oled_ssd130x.h ****     }
 3523              		.loc 15 246 49 is_stmt 0 view .LVU837
 3524 0378 09FA0BFB 		lsl	fp, r9, fp
 246:../../libdaisy/src/dev/oled_ssd130x.h ****     }
 3525              		.loc 15 246 42 view .LVU838
 3526 037c 97F81490 		ldrb	r9, [r7, #20]	@ zero_extendqisi2
 3527 0380 29EA0B09 		bic	r9, r9, fp
 3528 0384 87F81490 		strb	r9, [r7, #20]
 3529 0388 C5E6     		b	.L208
 3530              	.LVL301:
 3531              	.L220:
 246:../../libdaisy/src/dev/oled_ssd130x.h ****     }
 3532              		.loc 15 246 42 view .LVU839
 3533              	.LBE695:
 3534              	.LBE694:
 3535              	.LBE696:
 3536              	.LBE697:
 3537              	.LBE700:
 3538              	.LBE703:
 3539              	.LBE788:
 3540              	.LBB789:
 3541              	.LBB739:
 3542              	.LBB736:
 3543              	.LBB735:
 3544              	.LBB734:
 3545              	.LBB732:
 3546              	.LBI732:
 239:../../libdaisy/src/dev/oled_ssd130x.h ****     {
 3547              		.loc 15 239 10 is_stmt 1 view .LVU840
 3548              	.LBB733:
 246:../../libdaisy/src/dev/oled_ssd130x.h ****     }
 3549              		.loc 15 246 49 is_stmt 0 view .LVU841
 3550 038a 0AFA0BFB 		lsl	fp, r10, fp
 246:../../libdaisy/src/dev/oled_ssd130x.h ****     }
 3551              		.loc 15 246 42 view .LVU842
 3552 038e 9EF814A0 		ldrb	r10, [lr, #20]	@ zero_extendqisi2
 3553 0392 2AEA0B0A 		bic	r10, r10, fp
 3554 0396 8EF814A0 		strb	r10, [lr, #20]
 3555 039a 18E7     		b	.L219
 3556              	.LVL302:
 3557              	.L212:
 246:../../libdaisy/src/dev/oled_ssd130x.h ****     }
 3558              		.loc 15 246 42 view .LVU843
 3559              	.LBE733:
 3560              	.LBE732:
 3561              	.LBE734:
 3562              	.LBE735:
 3563              	.LBE736:
 3564              	.LBB737:
 3565              	.LBB723:
 3566              	.LBB717:
 241:../../libdaisy/src/dev/oled_ssd130x.h ****             return;
 3567              		.loc 15 241 9 view .LVU844
 3568 039c 97BB     		cbnz	r7, .L251
 3569 039e 8EBB     		cbnz	r6, .L251
ARM GAS  C:\Users\VINCIU~1\AppData\Local\Temp\cc6Tz7la.s 			page 107


 3570              	.LBE717:
 3571              	.LBE723:
 3572              	.LBE737:
 190:../../libdaisy/src/hid/disp/display.h ****         int_fast16_t error  = deltaX - deltaY;
 3573              		.loc 10 190 42 view .LVU845
 3574 03a0 0126     		movs	r6, #1
 3575 03a2 0096     		str	r6, [sp]
 3576              	.LBB738:
 3577              	.LBB724:
 3578              	.LBB718:
 244:../../libdaisy/src/dev/oled_ssd130x.h ****         else
 3579              		.loc 15 244 28 view .LVU846
 3580 03a4 E608     		lsrs	r6, r4, #3
 244:../../libdaisy/src/dev/oled_ssd130x.h ****         else
 3581              		.loc 15 244 42 view .LVU847
 3582 03a6 03EBC616 		add	r6, r3, r6, lsl #7
 3583 03aa 0644     		add	r6, r6, r0
 243:../../libdaisy/src/dev/oled_ssd130x.h ****             buffer_[x + (y / 8) * width] |= (1 << (y % 8));
 3584              		.loc 15 243 9 view .LVU848
 3585 03ac 002D     		cmp	r5, #0
 3586 03ae 7FF4E2AE 		bne	.L286
 3587              	.LVL303:
 3588              	.L214:
 3589              	.LBB711:
 3590              	.LBI711:
 239:../../libdaisy/src/dev/oled_ssd130x.h ****     {
 3591              		.loc 15 239 10 is_stmt 1 view .LVU849
 3592              	.LBB712:
 246:../../libdaisy/src/dev/oled_ssd130x.h ****     }
 3593              		.loc 15 246 49 is_stmt 0 view .LVU850
 3594 03b2 0127     		movs	r7, #1
 246:../../libdaisy/src/dev/oled_ssd130x.h ****     }
 3595              		.loc 15 246 55 view .LVU851
 3596 03b4 04F0070C 		and	ip, r4, #7
 246:../../libdaisy/src/dev/oled_ssd130x.h ****     }
 3597              		.loc 15 246 42 view .LVU852
 3598 03b8 0395     		str	r5, [sp, #12]
 246:../../libdaisy/src/dev/oled_ssd130x.h ****     }
 3599              		.loc 15 246 49 view .LVU853
 3600 03ba 07FA0CFC 		lsl	ip, r7, ip
 246:../../libdaisy/src/dev/oled_ssd130x.h ****     }
 3601              		.loc 15 246 42 view .LVU854
 3602 03be 377D     		ldrb	r7, [r6, #20]	@ zero_extendqisi2
 3603 03c0 27EA0C07 		bic	r7, r7, ip
 3604 03c4 3775     		strb	r7, [r6, #20]
 3605 03c6 E3E6     		b	.L213
 3606              	.LVL304:
 3607              	.L235:
 246:../../libdaisy/src/dev/oled_ssd130x.h ****     }
 3608              		.loc 15 246 42 view .LVU855
 3609              	.LBE712:
 3610              	.LBE711:
 3611              	.LBE718:
 3612              	.LBE724:
 3613              	.LBE738:
 3614              	.LBE739:
 3615              	.LBE789:
ARM GAS  C:\Users\VINCIU~1\AppData\Local\Temp\cc6Tz7la.s 			page 108


 3616              	.LBB790:
 3617              	.LBB784:
 3618              	.LBB782:
 3619              	.LBB773:
 3620              	.LBB772:
 3621              	.LBB770:
 3622              	.LBI770:
 239:../../libdaisy/src/dev/oled_ssd130x.h ****     {
 3623              		.loc 15 239 10 is_stmt 1 view .LVU856
 3624              	.LBB771:
 246:../../libdaisy/src/dev/oled_ssd130x.h ****     }
 3625              		.loc 15 246 49 is_stmt 0 view .LVU857
 3626 03c8 06FA07F7 		lsl	r7, r6, r7
 246:../../libdaisy/src/dev/oled_ssd130x.h ****     }
 3627              		.loc 15 246 42 view .LVU858
 3628 03cc 1E7D     		ldrb	r6, [r3, #20]	@ zero_extendqisi2
 3629 03ce 26EA0706 		bic	r6, r6, r7
 3630 03d2 1E75     		strb	r6, [r3, #20]
 3631 03d4 7FE7     		b	.L234
 3632              	.LVL305:
 3633              	.L225:
 246:../../libdaisy/src/dev/oled_ssd130x.h ****     }
 3634              		.loc 15 246 42 view .LVU859
 3635              	.LBE771:
 3636              	.LBE770:
 3637              	.LBE772:
 3638              	.LBE773:
 3639              	.LBE782:
 3640              	.LBE784:
 3641              	.LBE790:
 3642              	.LBB791:
 3643              	.LBB764:
 3644              	.LBB762:
 3645              	.LBB752:
 3646              	.LBB750:
 3647              	.LBB747:
 3648              	.LBI747:
 239:../../libdaisy/src/dev/oled_ssd130x.h ****     {
 3649              		.loc 15 239 10 is_stmt 1 view .LVU860
 3650              	.LBB748:
 246:../../libdaisy/src/dev/oled_ssd130x.h ****     }
 3651              		.loc 15 246 49 is_stmt 0 view .LVU861
 3652 03d6 0127     		movs	r7, #1
 246:../../libdaisy/src/dev/oled_ssd130x.h ****     }
 3653              		.loc 15 246 55 view .LVU862
 3654 03d8 04F0070C 		and	ip, r4, #7
 246:../../libdaisy/src/dev/oled_ssd130x.h ****     }
 3655              		.loc 15 246 49 view .LVU863
 3656 03dc 07FA0CFC 		lsl	ip, r7, ip
 246:../../libdaisy/src/dev/oled_ssd130x.h ****     }
 3657              		.loc 15 246 42 view .LVU864
 3658 03e0 377D     		ldrb	r7, [r6, #20]	@ zero_extendqisi2
 3659 03e2 27EA0C07 		bic	r7, r7, ip
 3660 03e6 3775     		strb	r7, [r6, #20]
 3661 03e8 2DE7     		b	.L224
 3662              	.LVL306:
 3663              	.L203:
ARM GAS  C:\Users\VINCIU~1\AppData\Local\Temp\cc6Tz7la.s 			page 109


 246:../../libdaisy/src/dev/oled_ssd130x.h ****     }
 3664              		.loc 15 246 42 view .LVU865
 3665              	.LBE748:
 3666              	.LBE747:
 3667              	.LBE750:
 3668              	.LBE752:
 3669              	.LBE762:
 3670              	.LBE764:
 3671              	.LBE791:
 3672              	.LBB792:
 3673              	.LBB704:
 3674              	.LBB701:
 3675              	.LBB689:
 3676              	.LBB685:
 3677              	.LBB680:
 3678              	.LBI680:
 239:../../libdaisy/src/dev/oled_ssd130x.h ****     {
 3679              		.loc 15 239 10 is_stmt 1 view .LVU866
 3680              	.LBB681:
 246:../../libdaisy/src/dev/oled_ssd130x.h ****     }
 3681              		.loc 15 246 49 is_stmt 0 view .LVU867
 3682 03ea 07FA0CFC 		lsl	ip, r7, ip
 246:../../libdaisy/src/dev/oled_ssd130x.h ****     }
 3683              		.loc 15 246 42 view .LVU868
 3684 03ee 377D     		ldrb	r7, [r6, #20]	@ zero_extendqisi2
 3685 03f0 0295     		str	r5, [sp, #8]
 3686 03f2 27EA0C07 		bic	r7, r7, ip
 3687 03f6 0095     		str	r5, [sp]
 3688 03f8 3775     		strb	r7, [r6, #20]
 3689 03fa 6CE6     		b	.L202
 3690              	.LVL307:
 3691              	.L247:
 246:../../libdaisy/src/dev/oled_ssd130x.h ****     }
 3692              		.loc 15 246 42 view .LVU869
 3693              	.LBE681:
 3694              	.LBE680:
 3695              	.LBE685:
 3696              	.LBE689:
 3697              	.LBE701:
 3698              	.LBE704:
 3699              	.LBE792:
 3700              	.LBB793:
 3701              	.LBB740:
 190:../../libdaisy/src/hid/disp/display.h ****         int_fast16_t error  = deltaX - deltaY;
 3702              		.loc 10 190 42 view .LVU870
 3703 03fc 4FF0FF36 		mov	r6, #-1
 3704 0400 0096     		str	r6, [sp]
 3705 0402 C5E6     		b	.L213
 3706              	.LVL308:
 3707              	.L251:
 190:../../libdaisy/src/hid/disp/display.h ****         int_fast16_t error  = deltaX - deltaY;
 3708              		.loc 10 190 42 view .LVU871
 3709 0404 0126     		movs	r6, #1
 3710 0406 0096     		str	r6, [sp]
 3711 0408 C5E6     		b	.L216
 3712              	.LVL309:
 3713              	.L284:
ARM GAS  C:\Users\VINCIU~1\AppData\Local\Temp\cc6Tz7la.s 			page 110


 190:../../libdaisy/src/hid/disp/display.h ****         int_fast16_t error  = deltaX - deltaY;
 3714              		.loc 10 190 42 view .LVU872
 3715              	.LBE740:
 3716              	.LBE793:
 3717              	.LBB794:
 3718              	.LBB705:
 199:../../libdaisy/src/hid/disp/display.h ****         {
 3719              		.loc 10 199 19 view .LVU873
 3720 040a 0126     		movs	r6, #1
 3721 040c 0496     		str	r6, [sp, #16]
 3722 040e 90E6     		b	.L204
 3723              	.LVL310:
 3724              	.L285:
 199:../../libdaisy/src/hid/disp/display.h ****         {
 3725              		.loc 10 199 19 view .LVU874
 3726              	.LBE705:
 3727              	.LBE794:
 3728              	.LBB795:
 3729              	.LBB741:
 199:../../libdaisy/src/hid/disp/display.h ****         {
 3730              		.loc 10 199 33 view .LVU875
 3731 0410 0126     		movs	r6, #1
 3732 0412 0196     		str	r6, [sp, #4]
 3733 0414 EDE6     		b	.L215
 3734              	.LBE741:
 3735              	.LBE795:
 3736              	.LBE819:
 3737              		.cfi_endproc
 3738              	.LFE4638:
 3740 0416 00BF     		.section	.rodata._Z17HandleMidiMessage9MidiEvent.str1.4,"aMS",%progbits,1
 3741              		.align	2
 3742              	.LC5:
 3743 0000 4E6F7465 		.ascii	"Note Received:\011%d\011%d\011%d\015\012\000"
 3743      20526563 
 3743      65697665 
 3743      643A0925 
 3743      64092564 
 3744 001a 0000     		.align	2
 3745              	.LC6:
 3746 001c 4E6F7465 		.ascii	"NoteOff Received:\011%d\011%d\011%d\015\012\000"
 3746      4F666620 
 3746      52656365 
 3746      69766564 
 3746      3A092564 
 3747              		.section	.text._Z17HandleMidiMessage9MidiEvent,"ax",%progbits
 3748              		.align	1
 3749              		.p2align 2,,3
 3750              		.global	_Z17HandleMidiMessage9MidiEvent
 3751              		.syntax unified
 3752              		.thumb
 3753              		.thumb_func
 3754              		.fpu fpv5-d16
 3756              	_Z17HandleMidiMessage9MidiEvent:
 3757              	.LFB4037:
  30:SynthMenis.cpp ****     switch(m.type)
 3758              		.loc 14 30 1 is_stmt 1 view -0
 3759              		.cfi_startproc
ARM GAS  C:\Users\VINCIU~1\AppData\Local\Temp\cc6Tz7la.s 			page 111


 3760              		@ args = 116, pretend = 16, frame = 512
 3761              		@ frame_needed = 0, uses_anonymous_args = 0
 3762 0000 84B0     		sub	sp, sp, #16
 3763              		.cfi_def_cfa_offset 16
 3764 0002 70B5     		push	{r4, r5, r6, lr}
 3765              		.cfi_def_cfa_offset 32
 3766              		.cfi_offset 4, -32
 3767              		.cfi_offset 5, -28
 3768              		.cfi_offset 6, -24
 3769              		.cfi_offset 14, -20
 3770 0004 ADF5027D 		sub	sp, sp, #520
 3771              		.cfi_def_cfa_offset 552
  30:SynthMenis.cpp ****     switch(m.type)
 3772              		.loc 14 30 1 is_stmt 0 view .LVU877
 3773 0008 86AC     		add	r4, sp, #536
 3774 000a 84E80F00 		stm	r4, {r0, r1, r2, r3}
 3775              	.LBB820:
  31:SynthMenis.cpp ****     {
 3776              		.loc 14 31 14 view .LVU878
 3777 000e 9DF81842 		ldrb	r4, [sp, #536]	@ zero_extendqisi2
 3778 0012 0A46     		mov	r2, r1
 3779              	.LVL311:
  31:SynthMenis.cpp ****     {
 3780              		.loc 14 31 14 view .LVU879
 3781 0014 9DF82062 		ldrb	r6, [sp, #544]	@ zero_extendqisi2
 3782              	.LVL312:
  31:SynthMenis.cpp ****     {
 3783              		.loc 14 31 14 view .LVU880
 3784 0018 9DF82152 		ldrb	r5, [sp, #545]	@ zero_extendqisi2
 3785              	.LVL313:
  31:SynthMenis.cpp ****     {
 3786              		.loc 14 31 14 view .LVU881
 3787              	.LBE820:
  31:SynthMenis.cpp ****     {
 3788              		.loc 14 31 5 is_stmt 1 view .LVU882
 3789              	.LBB829:
 3790 001c B4B1     		cbz	r4, .L288
 3791 001e 012C     		cmp	r4, #1
 3792 0020 0ED1     		bne	.L287
 3793              	.LBB821:
  33:SynthMenis.cpp ****         {
 3794              		.loc 14 33 9 view .LVU883
  34:SynthMenis.cpp ****             NoteOnEvent p = m.AsNoteOn();
 3795              		.loc 14 34 9 view .LVU884
 3796              	.LBB822:
  35:SynthMenis.cpp ****             char        buff[512];
 3797              		.loc 14 35 13 view .LVU885
 3798              	.LVL314:
 3799              	.LBB823:
 3800              	.LBI823:
 3801              		.file 19 "../../libdaisy/src/hid/MidiEvent.h"
   1:../../libdaisy/src/hid/MidiEvent.h **** /** Parsed from the Status Byte, these are the common Midi Messages that can be handled. \n
   2:../../libdaisy/src/hid/MidiEvent.h **** At this time only 3-byte messages are correctly parsed into MidiEvents.
   3:../../libdaisy/src/hid/MidiEvent.h **** */
   4:../../libdaisy/src/hid/MidiEvent.h **** enum MidiMessageType
   5:../../libdaisy/src/hid/MidiEvent.h **** {
   6:../../libdaisy/src/hid/MidiEvent.h ****     NoteOff,               /**< & */
ARM GAS  C:\Users\VINCIU~1\AppData\Local\Temp\cc6Tz7la.s 			page 112


   7:../../libdaisy/src/hid/MidiEvent.h ****     NoteOn,                /**< & */
   8:../../libdaisy/src/hid/MidiEvent.h ****     PolyphonicKeyPressure, /**< & */
   9:../../libdaisy/src/hid/MidiEvent.h ****     ControlChange,         /**< & */
  10:../../libdaisy/src/hid/MidiEvent.h ****     ProgramChange,         /**< & */
  11:../../libdaisy/src/hid/MidiEvent.h ****     ChannelPressure,       /**< & */
  12:../../libdaisy/src/hid/MidiEvent.h ****     PitchBend,             /**< & */
  13:../../libdaisy/src/hid/MidiEvent.h ****     SystemCommon,          /**< & */
  14:../../libdaisy/src/hid/MidiEvent.h ****     SystemRealTime,        /**< & */
  15:../../libdaisy/src/hid/MidiEvent.h ****     ChannelMode,           /**< & */
  16:../../libdaisy/src/hid/MidiEvent.h ****     MessageLast,           /**< & */
  17:../../libdaisy/src/hid/MidiEvent.h **** };
  18:../../libdaisy/src/hid/MidiEvent.h **** 
  19:../../libdaisy/src/hid/MidiEvent.h **** enum SystemCommonType
  20:../../libdaisy/src/hid/MidiEvent.h **** {
  21:../../libdaisy/src/hid/MidiEvent.h ****     SystemExclusive,     /**< & */
  22:../../libdaisy/src/hid/MidiEvent.h ****     MTCQuarterFrame,     /**< & */
  23:../../libdaisy/src/hid/MidiEvent.h ****     SongPositionPointer, /**< & */
  24:../../libdaisy/src/hid/MidiEvent.h ****     SongSelect,          /**< & */
  25:../../libdaisy/src/hid/MidiEvent.h ****     SCUndefined0,        /**< & */
  26:../../libdaisy/src/hid/MidiEvent.h ****     SCUndefined1,        /**< & */
  27:../../libdaisy/src/hid/MidiEvent.h ****     TuneRequest,         /**< & */
  28:../../libdaisy/src/hid/MidiEvent.h ****     SysExEnd,            /**< & */
  29:../../libdaisy/src/hid/MidiEvent.h ****     SystemCommonLast,    /**< & */
  30:../../libdaisy/src/hid/MidiEvent.h **** };
  31:../../libdaisy/src/hid/MidiEvent.h **** 
  32:../../libdaisy/src/hid/MidiEvent.h **** enum SystemRealTimeType
  33:../../libdaisy/src/hid/MidiEvent.h **** {
  34:../../libdaisy/src/hid/MidiEvent.h ****     TimingClock,        /**< & */
  35:../../libdaisy/src/hid/MidiEvent.h ****     SRTUndefined0,      /**< & */
  36:../../libdaisy/src/hid/MidiEvent.h ****     Start,              /**< & */
  37:../../libdaisy/src/hid/MidiEvent.h ****     Continue,           /**< & */
  38:../../libdaisy/src/hid/MidiEvent.h ****     Stop,               /**< & */
  39:../../libdaisy/src/hid/MidiEvent.h ****     SRTUndefined1,      /**< & */
  40:../../libdaisy/src/hid/MidiEvent.h ****     ActiveSensing,      /**< & */
  41:../../libdaisy/src/hid/MidiEvent.h ****     Reset,              /**< & */
  42:../../libdaisy/src/hid/MidiEvent.h ****     SystemRealTimeLast, /**< & */
  43:../../libdaisy/src/hid/MidiEvent.h **** };
  44:../../libdaisy/src/hid/MidiEvent.h **** 
  45:../../libdaisy/src/hid/MidiEvent.h **** enum ChannelModeType
  46:../../libdaisy/src/hid/MidiEvent.h **** {
  47:../../libdaisy/src/hid/MidiEvent.h ****     AllSoundOff,         /**< & */
  48:../../libdaisy/src/hid/MidiEvent.h ****     ResetAllControllers, /**< & */
  49:../../libdaisy/src/hid/MidiEvent.h ****     LocalControl,        /**< & */
  50:../../libdaisy/src/hid/MidiEvent.h ****     AllNotesOff,         /**< & */
  51:../../libdaisy/src/hid/MidiEvent.h ****     OmniModeOff,         /**< & */
  52:../../libdaisy/src/hid/MidiEvent.h ****     OmniModeOn,          /**< & */
  53:../../libdaisy/src/hid/MidiEvent.h ****     MonoModeOn,          /**< & */
  54:../../libdaisy/src/hid/MidiEvent.h ****     PolyModeOn,          /**< & */
  55:../../libdaisy/src/hid/MidiEvent.h ****     ChannelModeLast,     /**< & */
  56:../../libdaisy/src/hid/MidiEvent.h **** };
  57:../../libdaisy/src/hid/MidiEvent.h **** 
  58:../../libdaisy/src/hid/MidiEvent.h **** /** Struct containing note, and velocity data for a given channel.
  59:../../libdaisy/src/hid/MidiEvent.h **** Can be made from MidiEvent
  60:../../libdaisy/src/hid/MidiEvent.h **** */
  61:../../libdaisy/src/hid/MidiEvent.h **** struct NoteOffEvent
  62:../../libdaisy/src/hid/MidiEvent.h **** {
  63:../../libdaisy/src/hid/MidiEvent.h ****     int     channel;  /**< & */
ARM GAS  C:\Users\VINCIU~1\AppData\Local\Temp\cc6Tz7la.s 			page 113


  64:../../libdaisy/src/hid/MidiEvent.h ****     uint8_t note;     /**< & */
  65:../../libdaisy/src/hid/MidiEvent.h ****     uint8_t velocity; /**< & */
  66:../../libdaisy/src/hid/MidiEvent.h **** };
  67:../../libdaisy/src/hid/MidiEvent.h **** 
  68:../../libdaisy/src/hid/MidiEvent.h **** 
  69:../../libdaisy/src/hid/MidiEvent.h **** /** Struct containing note, and velocity data for a given channel.
  70:../../libdaisy/src/hid/MidiEvent.h **** Can be made from MidiEvent
  71:../../libdaisy/src/hid/MidiEvent.h **** */
  72:../../libdaisy/src/hid/MidiEvent.h **** struct NoteOnEvent
  73:../../libdaisy/src/hid/MidiEvent.h **** {
  74:../../libdaisy/src/hid/MidiEvent.h ****     int     channel;  /**< & */
  75:../../libdaisy/src/hid/MidiEvent.h ****     uint8_t note;     /**< & */
  76:../../libdaisy/src/hid/MidiEvent.h ****     uint8_t velocity; /**< & */
  77:../../libdaisy/src/hid/MidiEvent.h **** };
  78:../../libdaisy/src/hid/MidiEvent.h **** /** Struct containing note, and pressure data for a given channel.
  79:../../libdaisy/src/hid/MidiEvent.h **** Can be made from MidiEvent
  80:../../libdaisy/src/hid/MidiEvent.h **** */
  81:../../libdaisy/src/hid/MidiEvent.h **** struct PolyphonicKeyPressureEvent
  82:../../libdaisy/src/hid/MidiEvent.h **** {
  83:../../libdaisy/src/hid/MidiEvent.h ****     int     channel;
  84:../../libdaisy/src/hid/MidiEvent.h ****     uint8_t note;
  85:../../libdaisy/src/hid/MidiEvent.h ****     uint8_t pressure;
  86:../../libdaisy/src/hid/MidiEvent.h **** };
  87:../../libdaisy/src/hid/MidiEvent.h **** /** Struct containing control number, and value for a given channel.
  88:../../libdaisy/src/hid/MidiEvent.h **** Can be made from MidiEvent
  89:../../libdaisy/src/hid/MidiEvent.h **** */
  90:../../libdaisy/src/hid/MidiEvent.h **** struct ControlChangeEvent
  91:../../libdaisy/src/hid/MidiEvent.h **** {
  92:../../libdaisy/src/hid/MidiEvent.h ****     int     channel;        /**< & */
  93:../../libdaisy/src/hid/MidiEvent.h ****     uint8_t control_number; /**< & */
  94:../../libdaisy/src/hid/MidiEvent.h ****     uint8_t value;          /**< & */
  95:../../libdaisy/src/hid/MidiEvent.h **** };
  96:../../libdaisy/src/hid/MidiEvent.h **** /** Struct containing new program number, for a given channel.
  97:../../libdaisy/src/hid/MidiEvent.h **** Can be made from MidiEvent
  98:../../libdaisy/src/hid/MidiEvent.h **** */
  99:../../libdaisy/src/hid/MidiEvent.h **** struct ProgramChangeEvent
 100:../../libdaisy/src/hid/MidiEvent.h **** {
 101:../../libdaisy/src/hid/MidiEvent.h ****     int     channel; /**< & */
 102:../../libdaisy/src/hid/MidiEvent.h ****     uint8_t program; /**< & */
 103:../../libdaisy/src/hid/MidiEvent.h **** };
 104:../../libdaisy/src/hid/MidiEvent.h **** /** Struct containing pressure (aftertouch), for a given channel.
 105:../../libdaisy/src/hid/MidiEvent.h **** Can be made from MidiEvent
 106:../../libdaisy/src/hid/MidiEvent.h **** */
 107:../../libdaisy/src/hid/MidiEvent.h **** struct ChannelPressureEvent
 108:../../libdaisy/src/hid/MidiEvent.h **** {
 109:../../libdaisy/src/hid/MidiEvent.h ****     int     channel;  /**< & */
 110:../../libdaisy/src/hid/MidiEvent.h ****     uint8_t pressure; /**< & */
 111:../../libdaisy/src/hid/MidiEvent.h **** };
 112:../../libdaisy/src/hid/MidiEvent.h **** /** Struct containing pitch bend value for a given channel.
 113:../../libdaisy/src/hid/MidiEvent.h **** Can be made from MidiEvent
 114:../../libdaisy/src/hid/MidiEvent.h **** */
 115:../../libdaisy/src/hid/MidiEvent.h **** struct PitchBendEvent
 116:../../libdaisy/src/hid/MidiEvent.h **** {
 117:../../libdaisy/src/hid/MidiEvent.h ****     int     channel; /**< & */
 118:../../libdaisy/src/hid/MidiEvent.h ****     int16_t value;   /**< & */
 119:../../libdaisy/src/hid/MidiEvent.h **** };
 120:../../libdaisy/src/hid/MidiEvent.h **** /** Struct containing sysex data.
ARM GAS  C:\Users\VINCIU~1\AppData\Local\Temp\cc6Tz7la.s 			page 114


 121:../../libdaisy/src/hid/MidiEvent.h **** Can be made from MidiEvent
 122:../../libdaisy/src/hid/MidiEvent.h **** */
 123:../../libdaisy/src/hid/MidiEvent.h **** struct SystemExclusiveEvent
 124:../../libdaisy/src/hid/MidiEvent.h **** {
 125:../../libdaisy/src/hid/MidiEvent.h ****     int     length;
 126:../../libdaisy/src/hid/MidiEvent.h ****     uint8_t data[SYSEX_BUFFER_LEN]; /**< & */
 127:../../libdaisy/src/hid/MidiEvent.h **** };
 128:../../libdaisy/src/hid/MidiEvent.h **** /** Struct containing QuarterFrame data.
 129:../../libdaisy/src/hid/MidiEvent.h **** Can be made from MidiEvent
 130:../../libdaisy/src/hid/MidiEvent.h **** */
 131:../../libdaisy/src/hid/MidiEvent.h **** struct MTCQuarterFrameEvent
 132:../../libdaisy/src/hid/MidiEvent.h **** {
 133:../../libdaisy/src/hid/MidiEvent.h ****     uint8_t message_type; /**< & */
 134:../../libdaisy/src/hid/MidiEvent.h ****     uint8_t value;        /**< & */
 135:../../libdaisy/src/hid/MidiEvent.h **** };
 136:../../libdaisy/src/hid/MidiEvent.h **** /** Struct containing song position data.
 137:../../libdaisy/src/hid/MidiEvent.h **** Can be made from MidiEvent
 138:../../libdaisy/src/hid/MidiEvent.h **** */
 139:../../libdaisy/src/hid/MidiEvent.h **** struct SongPositionPointerEvent
 140:../../libdaisy/src/hid/MidiEvent.h **** {
 141:../../libdaisy/src/hid/MidiEvent.h ****     uint16_t position; /**< & */
 142:../../libdaisy/src/hid/MidiEvent.h **** };
 143:../../libdaisy/src/hid/MidiEvent.h **** /** Struct containing song select data.
 144:../../libdaisy/src/hid/MidiEvent.h **** Can be made from MidiEvent
 145:../../libdaisy/src/hid/MidiEvent.h **** */
 146:../../libdaisy/src/hid/MidiEvent.h **** struct SongSelectEvent
 147:../../libdaisy/src/hid/MidiEvent.h **** {
 148:../../libdaisy/src/hid/MidiEvent.h ****     uint8_t song; /**< & */
 149:../../libdaisy/src/hid/MidiEvent.h **** };
 150:../../libdaisy/src/hid/MidiEvent.h **** /** Struct containing sound off data.
 151:../../libdaisy/src/hid/MidiEvent.h **** Can be made from MidiEvent
 152:../../libdaisy/src/hid/MidiEvent.h **** */
 153:../../libdaisy/src/hid/MidiEvent.h **** struct AllSoundOffEvent
 154:../../libdaisy/src/hid/MidiEvent.h **** {
 155:../../libdaisy/src/hid/MidiEvent.h ****     int channel; /**< & */
 156:../../libdaisy/src/hid/MidiEvent.h **** };
 157:../../libdaisy/src/hid/MidiEvent.h **** /** Struct containing ResetAllControllersEvent data.
 158:../../libdaisy/src/hid/MidiEvent.h **** Can be made from MidiEvent
 159:../../libdaisy/src/hid/MidiEvent.h **** */
 160:../../libdaisy/src/hid/MidiEvent.h **** struct ResetAllControllersEvent
 161:../../libdaisy/src/hid/MidiEvent.h **** {
 162:../../libdaisy/src/hid/MidiEvent.h ****     int     channel; /**< & */
 163:../../libdaisy/src/hid/MidiEvent.h ****     uint8_t value;   /**< & */
 164:../../libdaisy/src/hid/MidiEvent.h **** };
 165:../../libdaisy/src/hid/MidiEvent.h **** /** Struct containing LocalControlEvent data.
 166:../../libdaisy/src/hid/MidiEvent.h **** Can be made from MidiEvent
 167:../../libdaisy/src/hid/MidiEvent.h **** */
 168:../../libdaisy/src/hid/MidiEvent.h **** struct LocalControlEvent
 169:../../libdaisy/src/hid/MidiEvent.h **** {
 170:../../libdaisy/src/hid/MidiEvent.h ****     int  channel;           /**< & */
 171:../../libdaisy/src/hid/MidiEvent.h ****     bool local_control_off; /**< & */
 172:../../libdaisy/src/hid/MidiEvent.h ****     bool local_control_on;  /**< & */
 173:../../libdaisy/src/hid/MidiEvent.h **** };
 174:../../libdaisy/src/hid/MidiEvent.h **** /** Struct containing AllNotesOffEvent data.
 175:../../libdaisy/src/hid/MidiEvent.h **** Can be made from MidiEvent
 176:../../libdaisy/src/hid/MidiEvent.h **** */
 177:../../libdaisy/src/hid/MidiEvent.h **** struct AllNotesOffEvent
ARM GAS  C:\Users\VINCIU~1\AppData\Local\Temp\cc6Tz7la.s 			page 115


 178:../../libdaisy/src/hid/MidiEvent.h **** {
 179:../../libdaisy/src/hid/MidiEvent.h ****     int channel; /**< & */
 180:../../libdaisy/src/hid/MidiEvent.h **** };
 181:../../libdaisy/src/hid/MidiEvent.h **** /** Struct containing OmniModeOffEvent data. 
 182:../../libdaisy/src/hid/MidiEvent.h ****  * Can be made from MidiEvent
 183:../../libdaisy/src/hid/MidiEvent.h **** */
 184:../../libdaisy/src/hid/MidiEvent.h **** struct OmniModeOffEvent
 185:../../libdaisy/src/hid/MidiEvent.h **** {
 186:../../libdaisy/src/hid/MidiEvent.h ****     int channel; /**< & */
 187:../../libdaisy/src/hid/MidiEvent.h **** };
 188:../../libdaisy/src/hid/MidiEvent.h **** /** Struct containing OmniModeOnEvent data.
 189:../../libdaisy/src/hid/MidiEvent.h **** Can be made from MidiEvent
 190:../../libdaisy/src/hid/MidiEvent.h **** */
 191:../../libdaisy/src/hid/MidiEvent.h **** struct OmniModeOnEvent
 192:../../libdaisy/src/hid/MidiEvent.h **** {
 193:../../libdaisy/src/hid/MidiEvent.h ****     int channel; /**< & */
 194:../../libdaisy/src/hid/MidiEvent.h **** };
 195:../../libdaisy/src/hid/MidiEvent.h **** /** Struct containing MonoModeOnEvent data.
 196:../../libdaisy/src/hid/MidiEvent.h **** Can be made from MidiEvent
 197:../../libdaisy/src/hid/MidiEvent.h **** */
 198:../../libdaisy/src/hid/MidiEvent.h **** struct MonoModeOnEvent
 199:../../libdaisy/src/hid/MidiEvent.h **** {
 200:../../libdaisy/src/hid/MidiEvent.h ****     int     channel;      /**< & */
 201:../../libdaisy/src/hid/MidiEvent.h ****     uint8_t num_channels; /**< & */
 202:../../libdaisy/src/hid/MidiEvent.h **** };
 203:../../libdaisy/src/hid/MidiEvent.h **** /** Struct containing PolyModeOnEvent data.
 204:../../libdaisy/src/hid/MidiEvent.h **** Can be made from MidiEvent
 205:../../libdaisy/src/hid/MidiEvent.h **** */
 206:../../libdaisy/src/hid/MidiEvent.h **** struct PolyModeOnEvent
 207:../../libdaisy/src/hid/MidiEvent.h **** {
 208:../../libdaisy/src/hid/MidiEvent.h ****     int channel; /**< & */
 209:../../libdaisy/src/hid/MidiEvent.h **** };
 210:../../libdaisy/src/hid/MidiEvent.h **** 
 211:../../libdaisy/src/hid/MidiEvent.h **** 
 212:../../libdaisy/src/hid/MidiEvent.h **** /** Simple MidiEvent with message type, channel, and data[2] members.
 213:../../libdaisy/src/hid/MidiEvent.h **** */
 214:../../libdaisy/src/hid/MidiEvent.h **** struct MidiEvent
 215:../../libdaisy/src/hid/MidiEvent.h **** {
 216:../../libdaisy/src/hid/MidiEvent.h ****     // Newer ish.
 217:../../libdaisy/src/hid/MidiEvent.h ****     MidiMessageType    type;                         /**< & */
 218:../../libdaisy/src/hid/MidiEvent.h ****     int                channel;                      /**< & */
 219:../../libdaisy/src/hid/MidiEvent.h ****     uint8_t            data[2];                      /**< & */
 220:../../libdaisy/src/hid/MidiEvent.h ****     uint8_t            sysex_data[SYSEX_BUFFER_LEN]; /**< & */
 221:../../libdaisy/src/hid/MidiEvent.h ****     uint8_t            sysex_message_len;
 222:../../libdaisy/src/hid/MidiEvent.h ****     SystemCommonType   sc_type;
 223:../../libdaisy/src/hid/MidiEvent.h ****     SystemRealTimeType srt_type;
 224:../../libdaisy/src/hid/MidiEvent.h ****     ChannelModeType    cm_type;
 225:../../libdaisy/src/hid/MidiEvent.h **** 
 226:../../libdaisy/src/hid/MidiEvent.h ****     /** Returns the data within the MidiEvent as a NoteOffEvent struct */
 227:../../libdaisy/src/hid/MidiEvent.h ****     NoteOffEvent AsNoteOff()
 228:../../libdaisy/src/hid/MidiEvent.h ****     {
 229:../../libdaisy/src/hid/MidiEvent.h ****         NoteOffEvent m;
 230:../../libdaisy/src/hid/MidiEvent.h ****         m.channel  = channel;
 231:../../libdaisy/src/hid/MidiEvent.h ****         m.note     = data[0];
 232:../../libdaisy/src/hid/MidiEvent.h ****         m.velocity = data[1];
 233:../../libdaisy/src/hid/MidiEvent.h ****         return m;
 234:../../libdaisy/src/hid/MidiEvent.h ****     }
ARM GAS  C:\Users\VINCIU~1\AppData\Local\Temp\cc6Tz7la.s 			page 116


 235:../../libdaisy/src/hid/MidiEvent.h **** 
 236:../../libdaisy/src/hid/MidiEvent.h ****     /** Returns the data within the MidiEvent as a NoteOnEvent struct */
 237:../../libdaisy/src/hid/MidiEvent.h ****     NoteOnEvent AsNoteOn()
 3802              		.loc 19 237 17 view .LVU886
 3803              	.LBB824:
 238:../../libdaisy/src/hid/MidiEvent.h ****     {
 239:../../libdaisy/src/hid/MidiEvent.h ****         NoteOnEvent m;
 3804              		.loc 19 239 9 view .LVU887
 240:../../libdaisy/src/hid/MidiEvent.h ****         m.channel  = channel;
 3805              		.loc 19 240 9 view .LVU888
 241:../../libdaisy/src/hid/MidiEvent.h ****         m.note     = data[0];
 3806              		.loc 19 241 9 view .LVU889
 242:../../libdaisy/src/hid/MidiEvent.h ****         m.velocity = data[1];
 3807              		.loc 19 242 9 view .LVU890
 243:../../libdaisy/src/hid/MidiEvent.h ****         return m;
 3808              		.loc 19 243 9 view .LVU891
 3809              		.loc 19 243 9 is_stmt 0 view .LVU892
 3810              	.LBE824:
 3811              	.LBE823:
  36:SynthMenis.cpp ****             sprintf(buff,
 3812              		.loc 14 36 13 is_stmt 1 view .LVU893
  37:SynthMenis.cpp ****                     "Note Received:\t%d\t%d\t%d\r\n",
 3813              		.loc 14 37 13 view .LVU894
  37:SynthMenis.cpp ****                     "Note Received:\t%d\t%d\t%d\r\n",
 3814              		.loc 14 37 20 is_stmt 0 view .LVU895
 3815 0022 2849     		ldr	r1, .L300
 3816              	.LVL315:
  37:SynthMenis.cpp ****                     "Note Received:\t%d\t%d\t%d\r\n",
 3817              		.loc 14 37 20 view .LVU896
 3818 0024 3346     		mov	r3, r6
 3819 0026 02A8     		add	r0, sp, #8
 3820 0028 0095     		str	r5, [sp]
 3821 002a FFF7FEFF 		bl	sprintf
 3822              	.LVL316:
  42:SynthMenis.cpp ****             // This is to avoid Max/MSP Note outs for now..
 3823              		.loc 14 42 13 is_stmt 1 view .LVU897
  42:SynthMenis.cpp ****             // This is to avoid Max/MSP Note outs for now..
 3824              		.loc 14 42 43 is_stmt 0 view .LVU898
 3825 002e 02A8     		add	r0, sp, #8
 3826 0030 FFF7FEFF 		bl	strlen
 3827              	.LVL317:
 3828 0034 02A9     		add	r1, sp, #8
 3829 0036 0246     		mov	r2, r0
 3830 0038 2348     		ldr	r0, .L300+4
 3831 003a FFF7FEFF 		bl	_ZN5daisy9UsbHandle16TransmitInternalEPhj
 3832              	.LVL318:
  44:SynthMenis.cpp ****             {
 3833              		.loc 14 44 13 is_stmt 1 view .LVU899
 3834 003e EDB9     		cbnz	r5, .L299
 3835              	.LVL319:
 3836              	.L287:
  44:SynthMenis.cpp ****             {
 3837              		.loc 14 44 13 is_stmt 0 view .LVU900
 3838              	.LBE822:
 3839              	.LBE821:
 3840              	.LBE829:
  74:SynthMenis.cpp **** 
ARM GAS  C:\Users\VINCIU~1\AppData\Local\Temp\cc6Tz7la.s 			page 117


 3841              		.loc 14 74 1 view .LVU901
 3842 0040 0DF5027D 		add	sp, sp, #520
 3843              		.cfi_remember_state
 3844              		.cfi_def_cfa_offset 32
 3845              		@ sp needed
 3846 0044 BDE87040 		pop	{r4, r5, r6, lr}
 3847              		.cfi_restore 14
 3848              		.cfi_restore 6
 3849              		.cfi_restore 5
 3850              		.cfi_restore 4
 3851              		.cfi_def_cfa_offset 16
 3852              	.LVL320:
  74:SynthMenis.cpp **** 
 3853              		.loc 14 74 1 view .LVU902
 3854 0048 04B0     		add	sp, sp, #16
 3855              		.cfi_def_cfa_offset 0
 3856 004a 7047     		bx	lr
 3857              	.LVL321:
 3858              	.L288:
 3859              		.cfi_restore_state
 3860              	.LBB830:
 3861              	.LBB827:
  56:SynthMenis.cpp ****         {
 3862              		.loc 14 56 9 is_stmt 1 view .LVU903
  57:SynthMenis.cpp ****             char buff[512];
 3863              		.loc 14 57 9 view .LVU904
 3864              	.LBB825:
  58:SynthMenis.cpp ****             sprintf(buff,
 3865              		.loc 14 58 13 view .LVU905
  59:SynthMenis.cpp ****                     "NoteOff Received:\t%d\t%d\t%d\r\n",
 3866              		.loc 14 59 13 view .LVU906
  59:SynthMenis.cpp ****                     "NoteOff Received:\t%d\t%d\t%d\r\n",
 3867              		.loc 14 59 20 is_stmt 0 view .LVU907
 3868 004c 1F49     		ldr	r1, .L300+8
 3869              	.LVL322:
  59:SynthMenis.cpp ****                     "NoteOff Received:\t%d\t%d\t%d\r\n",
 3870              		.loc 14 59 20 view .LVU908
 3871 004e 3346     		mov	r3, r6
 3872 0050 02A8     		add	r0, sp, #8
 3873 0052 0095     		str	r5, [sp]
 3874 0054 FFF7FEFF 		bl	sprintf
 3875              	.LVL323:
  64:SynthMenis.cpp ****             // This is to avoid Max/MSP Note outs for now..
 3876              		.loc 14 64 13 is_stmt 1 view .LVU909
  64:SynthMenis.cpp ****             // This is to avoid Max/MSP Note outs for now..
 3877              		.loc 14 64 43 is_stmt 0 view .LVU910
 3878 0058 02A8     		add	r0, sp, #8
 3879 005a FFF7FEFF 		bl	strlen
 3880              	.LVL324:
 3881 005e 02A9     		add	r1, sp, #8
 3882 0060 0246     		mov	r2, r0
 3883 0062 1948     		ldr	r0, .L300+4
 3884 0064 FFF7FEFF 		bl	_ZN5daisy9UsbHandle16TransmitInternalEPhj
 3885              	.LVL325:
  66:SynthMenis.cpp ****             {
 3886              		.loc 14 66 13 is_stmt 1 view .LVU911
 3887 0068 002D     		cmp	r5, #0
ARM GAS  C:\Users\VINCIU~1\AppData\Local\Temp\cc6Tz7la.s 			page 118


 3888 006a E9D0     		beq	.L287
  68:SynthMenis.cpp ****             }
 3889              		.loc 14 68 17 view .LVU912
  68:SynthMenis.cpp ****             }
 3890              		.loc 14 68 22 is_stmt 0 view .LVU913
 3891 006c 184B     		ldr	r3, .L300+12
 3892 006e 1C70     		strb	r4, [r3]
 3893              	.LBE825:
  71:SynthMenis.cpp ****         default: break;
 3894              		.loc 14 71 9 is_stmt 1 view .LVU914
 3895              	.LBE827:
 3896              	.LBE830:
  74:SynthMenis.cpp **** 
 3897              		.loc 14 74 1 is_stmt 0 view .LVU915
 3898 0070 0DF5027D 		add	sp, sp, #520
 3899              		.cfi_remember_state
 3900              		.cfi_def_cfa_offset 32
 3901              		@ sp needed
 3902 0074 BDE87040 		pop	{r4, r5, r6, lr}
 3903              		.cfi_restore 14
 3904              		.cfi_restore 6
 3905              		.cfi_restore 5
 3906              		.cfi_restore 4
 3907              		.cfi_def_cfa_offset 16
 3908              	.LVL326:
  74:SynthMenis.cpp **** 
 3909              		.loc 14 74 1 view .LVU916
 3910 0078 04B0     		add	sp, sp, #16
 3911              		.cfi_def_cfa_offset 0
 3912 007a 7047     		bx	lr
 3913              	.LVL327:
 3914              	.L299:
 3915              		.cfi_restore_state
 3916              	.LBB831:
 3917              	.LBB828:
 3918              	.LBB826:
  47:SynthMenis.cpp ****                            p.note,
 3919              		.loc 14 47 17 is_stmt 1 view .LVU917
  47:SynthMenis.cpp ****                            p.note,
 3920              		.loc 14 47 48 is_stmt 0 view .LVU918
 3921 007c 154B     		ldr	r3, .L300+16
  47:SynthMenis.cpp ****                            p.note,
 3922              		.loc 14 47 27 view .LVU919
 3923 007e 06EE906A 		vmov	s13, r6	@ int
 3924 0082 DFED154A 		vldr.32	s9, .L300+20
  47:SynthMenis.cpp ****                            p.note,
 3925              		.loc 14 47 35 view .LVU920
 3926 0086 07EE906A 		vmov	s15, r6	@ int
  47:SynthMenis.cpp ****                            p.note,
 3927              		.loc 14 47 58 view .LVU921
 3928 008a 93ED246A 		vldr.32	s12, [r3, #144]	@ int
  47:SynthMenis.cpp ****                            p.note,
 3929              		.loc 14 47 35 view .LVU922
 3930 008e B5EE005B 		vmov.f64	d5, #2.5e-1
  47:SynthMenis.cpp ****                            p.note,
 3931              		.loc 14 47 27 view .LVU923
 3932 0092 93ED251A 		vldr.32	s2, [r3, #148]
ARM GAS  C:\Users\VINCIU~1\AppData\Local\Temp\cc6Tz7la.s 			page 119


 3933 0096 F8EE660A 		vcvt.f32.u32	s1, s13
  47:SynthMenis.cpp ****                            p.note,
 3934              		.loc 14 47 35 view .LVU924
 3935 009a B8EEE77B 		vcvt.f64.s32	d7, s15
  47:SynthMenis.cpp ****                            p.note,
 3936              		.loc 14 47 27 view .LVU925
 3937 009e 0F48     		ldr	r0, .L300+24
  47:SynthMenis.cpp ****                            p.note,
 3938              		.loc 14 47 58 view .LVU926
 3939 00a0 B8EEC66B 		vcvt.f64.s32	d6, s12
  47:SynthMenis.cpp ****                            p.note,
 3940              		.loc 14 47 27 view .LVU927
 3941 00a4 81EE241A 		vdiv.f32	s2, s2, s9
  47:SynthMenis.cpp ****                            p.note,
 3942              		.loc 14 47 35 view .LVU928
 3943 00a8 A6EE057B 		vfma.f64	d7, d6, d5
  47:SynthMenis.cpp ****                            p.note,
 3944              		.loc 14 47 27 view .LVU929
 3945 00ac B7EEC70B 		vcvt.f32.f64	s0, d7
 3946 00b0 FFF7FEFF 		bl	_ZN7daisysp4Line5StartEfff
 3947              	.LVL328:
  50:SynthMenis.cpp ****                 //env.Retrigger(true);
 3948              		.loc 14 50 17 is_stmt 1 view .LVU930
  50:SynthMenis.cpp ****                 //env.Retrigger(true);
 3949              		.loc 14 50 22 is_stmt 0 view .LVU931
 3950 00b4 064B     		ldr	r3, .L300+12
 3951 00b6 1C70     		strb	r4, [r3]
 3952              	.LBE826:
  54:SynthMenis.cpp **** 
 3953              		.loc 14 54 9 is_stmt 1 view .LVU932
 3954              	.LBE828:
 3955              	.LBE831:
  74:SynthMenis.cpp **** 
 3956              		.loc 14 74 1 is_stmt 0 view .LVU933
 3957 00b8 0DF5027D 		add	sp, sp, #520
 3958              		.cfi_def_cfa_offset 32
 3959              		@ sp needed
 3960 00bc BDE87040 		pop	{r4, r5, r6, lr}
 3961              		.cfi_restore 14
 3962              		.cfi_restore 6
 3963              		.cfi_restore 5
 3964              		.cfi_restore 4
 3965              		.cfi_def_cfa_offset 16
 3966              	.LVL329:
  74:SynthMenis.cpp **** 
 3967              		.loc 14 74 1 view .LVU934
 3968 00c0 04B0     		add	sp, sp, #16
 3969              		.cfi_def_cfa_offset 0
 3970 00c2 7047     		bx	lr
 3971              	.L301:
 3972              		.align	2
 3973              	.L300:
 3974 00c4 00000000 		.word	.LC5
 3975 00c8 24000000 		.word	.LANCHOR7+36
 3976 00cc 1C000000 		.word	.LC6
 3977 00d0 00000000 		.word	.LANCHOR0
 3978 00d4 00000000 		.word	.LANCHOR3
ARM GAS  C:\Users\VINCIU~1\AppData\Local\Temp\cc6Tz7la.s 			page 120


 3979 00d8 0000C842 		.word	1120403456
 3980 00dc 00000000 		.word	.LANCHOR5
 3981              		.cfi_endproc
 3982              	.LFE4037:
 3984              		.section	.text._ZN5daisy13SSD130xDriverILj128ELj64ENS_24SSD130x4WireSpiTransportEE4InitENS2_6Confi
 3985              		.align	1
 3986              		.p2align 2,,3
 3987              		.weak	_ZN5daisy13SSD130xDriverILj128ELj64ENS_24SSD130x4WireSpiTransportEE4InitENS2_6ConfigE
 3988              		.syntax unified
 3989              		.thumb
 3990              		.thumb_func
 3991              		.fpu fpv5-d16
 3993              	_ZN5daisy13SSD130xDriverILj128ELj64ENS_24SSD130x4WireSpiTransportEE4InitENS2_6ConfigE:
 3994              	.LVL330:
 3995              	.LFB4481:
 140:../../libdaisy/src/dev/oled_ssd130x.h ****     {
 3996              		.loc 15 140 10 is_stmt 1 view -0
 3997              		.cfi_startproc
 3998              		@ args = 0, pretend = 0, frame = 48
 3999              		@ frame_needed = 0, uses_anonymous_args = 0
 140:../../libdaisy/src/dev/oled_ssd130x.h ****     {
 4000              		.loc 15 140 10 is_stmt 0 view .LVU936
 4001 0000 2DE9F041 		push	{r4, r5, r6, r7, r8, lr}
 4002              		.cfi_def_cfa_offset 24
 4003              		.cfi_offset 4, -24
 4004              		.cfi_offset 5, -20
 4005              		.cfi_offset 6, -16
 4006              		.cfi_offset 7, -12
 4007              		.cfi_offset 8, -8
 4008              		.cfi_offset 14, -4
 4009              	.LBB880:
 4010              	.LBB881:
  79:../../libdaisy/src/dev/oled_ssd130x.h ****         pin_dc_.pin  = config.pin_config.dc;
 4011              		.loc 15 79 22 view .LVU937
 4012 0004 0126     		movs	r6, #1
 4013              	.LBE881:
 4014              	.LBE880:
 140:../../libdaisy/src/dev/oled_ssd130x.h ****     {
 4015              		.loc 15 140 10 view .LVU938
 4016 0006 8CB0     		sub	sp, sp, #48
 4017              		.cfi_def_cfa_offset 72
 4018              	.LBB885:
 4019              	.LBB882:
  80:../../libdaisy/src/dev/oled_ssd130x.h ****         dsy_gpio_init(&pin_dc_);
 4020              		.loc 15 80 22 view .LVU939
 4021 0008 0746     		mov	r7, r0
 4022              	.LBE882:
 4023              	.LBE885:
 140:../../libdaisy/src/dev/oled_ssd130x.h ****     {
 4024              		.loc 15 140 10 view .LVU940
 4025 000a 0446     		mov	r4, r0
 4026              	.LVL331:
 4027              	.LBB886:
 4028              	.LBI880:
  76:../../libdaisy/src/dev/oled_ssd130x.h ****     {
 4029              		.loc 15 76 10 is_stmt 1 view .LVU941
 4030              	.LBB883:
ARM GAS  C:\Users\VINCIU~1\AppData\Local\Temp\cc6Tz7la.s 			page 121


  79:../../libdaisy/src/dev/oled_ssd130x.h ****         pin_dc_.pin  = config.pin_config.dc;
 4031              		.loc 15 79 9 view .LVU942
  83:../../libdaisy/src/dev/oled_ssd130x.h ****         dsy_gpio_init(&pin_reset_);
 4032              		.loc 15 83 25 is_stmt 0 view .LVU943
 4033 000c 8046     		mov	r8, r0
 4034              	.LBE883:
 4035              	.LBE886:
 140:../../libdaisy/src/dev/oled_ssd130x.h ****     {
 4036              		.loc 15 140 10 view .LVU944
 4037 000e 0191     		str	r1, [sp, #4]
 4038              	.LBB887:
 4039              	.LBB884:
  79:../../libdaisy/src/dev/oled_ssd130x.h ****         pin_dc_.pin  = config.pin_config.dc;
 4040              		.loc 15 79 22 view .LVU945
 4041 0010 8672     		strb	r6, [r0, #10]
  80:../../libdaisy/src/dev/oled_ssd130x.h ****         dsy_gpio_init(&pin_dc_);
 4042              		.loc 15 80 9 is_stmt 1 view .LVU946
  87:../../libdaisy/src/dev/oled_ssd130x.h ****         spi_config.mode      = SpiHandle::Config::Mode::MASTER;
 4043              		.loc 15 87 30 is_stmt 0 view .LVU947
 4044 0012 0025     		movs	r5, #0
  80:../../libdaisy/src/dev/oled_ssd130x.h ****         dsy_gpio_init(&pin_dc_);
 4045              		.loc 15 80 22 view .LVU948
 4046 0014 27F8081F 		strh	r1, [r7, #8]!	@ movhi
  81:../../libdaisy/src/dev/oled_ssd130x.h ****         pin_reset_.mode = DSY_GPIO_MODE_OUTPUT_PP;
 4047              		.loc 15 81 9 is_stmt 1 view .LVU949
  81:../../libdaisy/src/dev/oled_ssd130x.h ****         pin_reset_.mode = DSY_GPIO_MODE_OUTPUT_PP;
 4048              		.loc 15 81 22 is_stmt 0 view .LVU950
 4049 0018 3846     		mov	r0, r7
 4050              	.LVL332:
  81:../../libdaisy/src/dev/oled_ssd130x.h ****         pin_reset_.mode = DSY_GPIO_MODE_OUTPUT_PP;
 4051              		.loc 15 81 22 view .LVU951
 4052 001a FFF7FEFF 		bl	dsy_gpio_init
 4053              	.LVL333:
  82:../../libdaisy/src/dev/oled_ssd130x.h ****         pin_reset_.pin  = config.pin_config.reset;
 4054              		.loc 15 82 9 is_stmt 1 view .LVU952
  83:../../libdaisy/src/dev/oled_ssd130x.h ****         dsy_gpio_init(&pin_reset_);
 4055              		.loc 15 83 25 is_stmt 0 view .LVU953
 4056 001e BDF80630 		ldrh	r3, [sp, #6]
  82:../../libdaisy/src/dev/oled_ssd130x.h ****         pin_reset_.pin  = config.pin_config.reset;
 4057              		.loc 15 82 25 view .LVU954
 4058 0022 A671     		strb	r6, [r4, #6]
  83:../../libdaisy/src/dev/oled_ssd130x.h ****         dsy_gpio_init(&pin_reset_);
 4059              		.loc 15 83 9 is_stmt 1 view .LVU955
  83:../../libdaisy/src/dev/oled_ssd130x.h ****         dsy_gpio_init(&pin_reset_);
 4060              		.loc 15 83 25 is_stmt 0 view .LVU956
 4061 0024 28F8043F 		strh	r3, [r8, #4]!	@ movhi
  84:../../libdaisy/src/dev/oled_ssd130x.h ****         // Initialize SPI
 4062              		.loc 15 84 9 is_stmt 1 view .LVU957
  84:../../libdaisy/src/dev/oled_ssd130x.h ****         // Initialize SPI
 4063              		.loc 15 84 22 is_stmt 0 view .LVU958
 4064 0028 4046     		mov	r0, r8
 4065 002a FFF7FEFF 		bl	dsy_gpio_init
 4066              	.LVL334:
  86:../../libdaisy/src/dev/oled_ssd130x.h ****         spi_config.periph    = SpiHandle::Config::Peripheral::SPI_1;
 4067              		.loc 15 86 9 is_stmt 1 view .LVU959
  87:../../libdaisy/src/dev/oled_ssd130x.h ****         spi_config.mode      = SpiHandle::Config::Mode::MASTER;
 4068              		.loc 15 87 9 view .LVU960
ARM GAS  C:\Users\VINCIU~1\AppData\Local\Temp\cc6Tz7la.s 			page 122


  88:../../libdaisy/src/dev/oled_ssd130x.h ****         spi_config.direction = SpiHandle::Config::Direction::TWO_LINES_TX_ONLY;
 4069              		.loc 15 88 9 view .LVU961
  89:../../libdaisy/src/dev/oled_ssd130x.h ****         spi_config.datasize  = 8;
 4070              		.loc 15 89 9 view .LVU962
  90:../../libdaisy/src/dev/oled_ssd130x.h ****         spi_config.clock_polarity = SpiHandle::Config::ClockPolarity::LOW;
 4071              		.loc 15 90 9 view .LVU963
  91:../../libdaisy/src/dev/oled_ssd130x.h ****         spi_config.clock_phase    = SpiHandle::Config::ClockPhase::ONE_EDGE;
 4072              		.loc 15 91 9 view .LVU964
  92:../../libdaisy/src/dev/oled_ssd130x.h ****         spi_config.nss            = SpiHandle::Config::NSS::HARD_OUTPUT;
 4073              		.loc 15 92 9 view .LVU965
  93:../../libdaisy/src/dev/oled_ssd130x.h ****         spi_config.baud_prescaler = SpiHandle::Config::BaudPrescaler::PS_8;
 4074              		.loc 15 93 9 view .LVU966
  94:../../libdaisy/src/dev/oled_ssd130x.h **** 
 4075              		.loc 15 94 9 view .LVU967
  96:../../libdaisy/src/dev/oled_ssd130x.h ****         spi_config.pin_config.miso = {DSY_GPIOX, 0};
 4076              		.loc 15 96 9 view .LVU968
  97:../../libdaisy/src/dev/oled_ssd130x.h ****         spi_config.pin_config.mosi = {DSY_GPIOB, 5};
 4077              		.loc 15 97 9 view .LVU969
  98:../../libdaisy/src/dev/oled_ssd130x.h ****         spi_config.pin_config.nss  = {DSY_GPIOG, 10};
 4078              		.loc 15 98 9 view .LVU970
  99:../../libdaisy/src/dev/oled_ssd130x.h **** 
 4079              		.loc 15 99 9 view .LVU971
  96:../../libdaisy/src/dev/oled_ssd130x.h ****         spi_config.pin_config.miso = {DSY_GPIOX, 0};
 4080              		.loc 15 96 36 is_stmt 0 view .LVU972
 4081 002e A74B     		ldr	r3, .L304
 101:../../libdaisy/src/dev/oled_ssd130x.h **** 
 4082              		.loc 15 101 18 view .LVU973
 4083 0030 2046     		mov	r0, r4
  89:../../libdaisy/src/dev/oled_ssd130x.h ****         spi_config.datasize  = 8;
 4084              		.loc 15 89 30 view .LVU974
 4085 0032 0696     		str	r6, [sp, #24]
  96:../../libdaisy/src/dev/oled_ssd130x.h ****         spi_config.pin_config.miso = {DSY_GPIOX, 0};
 4086              		.loc 15 96 36 view .LVU975
 4087 0034 0293     		str	r3, [sp, #8]
  87:../../libdaisy/src/dev/oled_ssd130x.h ****         spi_config.mode      = SpiHandle::Config::Mode::MASTER;
 4088              		.loc 15 87 30 view .LVU976
 4089 0036 A64B     		ldr	r3, .L304+4
  88:../../libdaisy/src/dev/oled_ssd130x.h ****         spi_config.direction = SpiHandle::Config::Direction::TWO_LINES_TX_ONLY;
 4090              		.loc 15 88 30 view .LVU977
 4091 0038 0595     		str	r5, [sp, #20]
  87:../../libdaisy/src/dev/oled_ssd130x.h ****         spi_config.mode      = SpiHandle::Config::Mode::MASTER;
 4092              		.loc 15 87 30 view .LVU978
 4093 003a CDE90335 		strd	r3, r5, [sp, #12]
  93:../../libdaisy/src/dev/oled_ssd130x.h ****         spi_config.baud_prescaler = SpiHandle::Config::BaudPrescaler::PS_8;
 4094              		.loc 15 93 35 view .LVU979
 4095 003e 0223     		movs	r3, #2
  94:../../libdaisy/src/dev/oled_ssd130x.h **** 
 4096              		.loc 15 94 35 view .LVU980
 4097 0040 CDE90A33 		strd	r3, r3, [sp, #40]
 101:../../libdaisy/src/dev/oled_ssd130x.h **** 
 4098              		.loc 15 101 9 is_stmt 1 view .LVU981
  90:../../libdaisy/src/dev/oled_ssd130x.h ****         spi_config.clock_polarity = SpiHandle::Config::ClockPolarity::LOW;
 4099              		.loc 15 90 30 is_stmt 0 view .LVU982
 4100 0044 0823     		movs	r3, #8
 101:../../libdaisy/src/dev/oled_ssd130x.h **** 
 4101              		.loc 15 101 18 view .LVU983
 4102 0046 0DEB0301 		add	r1, sp, r3
ARM GAS  C:\Users\VINCIU~1\AppData\Local\Temp\cc6Tz7la.s 			page 123


  90:../../libdaisy/src/dev/oled_ssd130x.h ****         spi_config.clock_polarity = SpiHandle::Config::ClockPolarity::LOW;
 4103              		.loc 15 90 30 view .LVU984
 4104 004a 0793     		str	r3, [sp, #28]
  92:../../libdaisy/src/dev/oled_ssd130x.h ****         spi_config.nss            = SpiHandle::Config::NSS::HARD_OUTPUT;
 4105              		.loc 15 92 35 view .LVU985
 4106 004c CDE90855 		strd	r5, r5, [sp, #32]
 101:../../libdaisy/src/dev/oled_ssd130x.h **** 
 4107              		.loc 15 101 18 view .LVU986
 4108 0050 FFF7FEFF 		bl	_ZN5daisy9SpiHandle4InitERKNS0_6ConfigE
 4109              	.LVL335:
 104:../../libdaisy/src/dev/oled_ssd130x.h ****         System::Delay(10);
 4110              		.loc 15 104 9 is_stmt 1 view .LVU987
 104:../../libdaisy/src/dev/oled_ssd130x.h ****         System::Delay(10);
 4111              		.loc 15 104 23 is_stmt 0 view .LVU988
 4112 0054 2946     		mov	r1, r5
 4113 0056 4046     		mov	r0, r8
 4114 0058 FFF7FEFF 		bl	dsy_gpio_write
 4115              	.LVL336:
 105:../../libdaisy/src/dev/oled_ssd130x.h ****         dsy_gpio_write(&pin_reset_, 1);
 4116              		.loc 15 105 9 is_stmt 1 view .LVU989
 105:../../libdaisy/src/dev/oled_ssd130x.h ****         dsy_gpio_write(&pin_reset_, 1);
 4117              		.loc 15 105 22 is_stmt 0 view .LVU990
 4118 005c 0A20     		movs	r0, #10
 4119 005e FFF7FEFF 		bl	_ZN5daisy6System5DelayEm
 4120              	.LVL337:
 106:../../libdaisy/src/dev/oled_ssd130x.h ****         System::Delay(10);
 4121              		.loc 15 106 9 is_stmt 1 view .LVU991
 106:../../libdaisy/src/dev/oled_ssd130x.h ****         System::Delay(10);
 4122              		.loc 15 106 23 is_stmt 0 view .LVU992
 4123 0062 3146     		mov	r1, r6
 4124 0064 4046     		mov	r0, r8
 4125 0066 FFF7FEFF 		bl	dsy_gpio_write
 4126              	.LVL338:
 107:../../libdaisy/src/dev/oled_ssd130x.h ****     };
 4127              		.loc 15 107 9 is_stmt 1 view .LVU993
 107:../../libdaisy/src/dev/oled_ssd130x.h ****     };
 4128              		.loc 15 107 22 is_stmt 0 view .LVU994
 4129 006a 0A20     		movs	r0, #10
 4130 006c FFF7FEFF 		bl	_ZN5daisy6System5DelayEm
 4131              	.LVL339:
 107:../../libdaisy/src/dev/oled_ssd130x.h ****     };
 4132              		.loc 15 107 22 view .LVU995
 4133 0070 AE23     		movs	r3, #174
 4134              	.LBE884:
 4135              	.LBE887:
 4136              	.LBB888:
 4137              	.LBB889:
 111:../../libdaisy/src/dev/oled_ssd130x.h ****         spi_.BlockingTransmit(&cmd, 1);
 4138              		.loc 15 111 23 view .LVU996
 4139 0072 2946     		mov	r1, r5
 4140 0074 3846     		mov	r0, r7
 4141 0076 8DF80830 		strb	r3, [sp, #8]
 4142              	.LVL340:
 111:../../libdaisy/src/dev/oled_ssd130x.h ****         spi_.BlockingTransmit(&cmd, 1);
 4143              		.loc 15 111 23 view .LVU997
 4144              	.LBE889:
 4145              	.LBI888:
ARM GAS  C:\Users\VINCIU~1\AppData\Local\Temp\cc6Tz7la.s 			page 124


 109:../../libdaisy/src/dev/oled_ssd130x.h ****     {
 4146              		.loc 15 109 10 is_stmt 1 view .LVU998
 4147              	.LBB890:
 111:../../libdaisy/src/dev/oled_ssd130x.h ****         spi_.BlockingTransmit(&cmd, 1);
 4148              		.loc 15 111 9 view .LVU999
 111:../../libdaisy/src/dev/oled_ssd130x.h ****         spi_.BlockingTransmit(&cmd, 1);
 4149              		.loc 15 111 23 is_stmt 0 view .LVU1000
 4150 007a FFF7FEFF 		bl	dsy_gpio_write
 4151              	.LVL341:
 112:../../libdaisy/src/dev/oled_ssd130x.h ****     };
 4152              		.loc 15 112 9 is_stmt 1 view .LVU1001
 112:../../libdaisy/src/dev/oled_ssd130x.h ****     };
 4153              		.loc 15 112 30 is_stmt 0 view .LVU1002
 4154 007e 3246     		mov	r2, r6
 4155 0080 02A9     		add	r1, sp, #8
 4156 0082 6423     		movs	r3, #100
 4157 0084 2046     		mov	r0, r4
 4158 0086 FFF7FEFF 		bl	_ZN5daisy9SpiHandle16BlockingTransmitEPhjm
 4159              	.LVL342:
 112:../../libdaisy/src/dev/oled_ssd130x.h ****     };
 4160              		.loc 15 112 30 view .LVU1003
 4161 008a D523     		movs	r3, #213
 4162              	.LBE890:
 4163              	.LBE888:
 4164              	.LBB891:
 4165              	.LBB892:
 111:../../libdaisy/src/dev/oled_ssd130x.h ****         spi_.BlockingTransmit(&cmd, 1);
 4166              		.loc 15 111 23 view .LVU1004
 4167 008c 2946     		mov	r1, r5
 4168 008e 3846     		mov	r0, r7
 4169 0090 8DF80830 		strb	r3, [sp, #8]
 4170              	.LVL343:
 111:../../libdaisy/src/dev/oled_ssd130x.h ****         spi_.BlockingTransmit(&cmd, 1);
 4171              		.loc 15 111 23 view .LVU1005
 4172              	.LBE892:
 4173              	.LBI891:
 109:../../libdaisy/src/dev/oled_ssd130x.h ****     {
 4174              		.loc 15 109 10 is_stmt 1 view .LVU1006
 4175              	.LBB893:
 111:../../libdaisy/src/dev/oled_ssd130x.h ****         spi_.BlockingTransmit(&cmd, 1);
 4176              		.loc 15 111 9 view .LVU1007
 111:../../libdaisy/src/dev/oled_ssd130x.h ****         spi_.BlockingTransmit(&cmd, 1);
 4177              		.loc 15 111 23 is_stmt 0 view .LVU1008
 4178 0094 FFF7FEFF 		bl	dsy_gpio_write
 4179              	.LVL344:
 112:../../libdaisy/src/dev/oled_ssd130x.h ****     };
 4180              		.loc 15 112 9 is_stmt 1 view .LVU1009
 112:../../libdaisy/src/dev/oled_ssd130x.h ****     };
 4181              		.loc 15 112 30 is_stmt 0 view .LVU1010
 4182 0098 3246     		mov	r2, r6
 4183 009a 02A9     		add	r1, sp, #8
 4184 009c 6423     		movs	r3, #100
 4185 009e 2046     		mov	r0, r4
 4186 00a0 FFF7FEFF 		bl	_ZN5daisy9SpiHandle16BlockingTransmitEPhjm
 4187              	.LVL345:
 112:../../libdaisy/src/dev/oled_ssd130x.h ****     };
 4188              		.loc 15 112 30 view .LVU1011
ARM GAS  C:\Users\VINCIU~1\AppData\Local\Temp\cc6Tz7la.s 			page 125


 4189 00a4 8023     		movs	r3, #128
 4190              	.LBE893:
 4191              	.LBE891:
 4192              	.LBB894:
 4193              	.LBB895:
 111:../../libdaisy/src/dev/oled_ssd130x.h ****         spi_.BlockingTransmit(&cmd, 1);
 4194              		.loc 15 111 23 view .LVU1012
 4195 00a6 2946     		mov	r1, r5
 4196 00a8 3846     		mov	r0, r7
 4197 00aa 8DF80830 		strb	r3, [sp, #8]
 4198              	.LVL346:
 111:../../libdaisy/src/dev/oled_ssd130x.h ****         spi_.BlockingTransmit(&cmd, 1);
 4199              		.loc 15 111 23 view .LVU1013
 4200              	.LBE895:
 4201              	.LBI894:
 109:../../libdaisy/src/dev/oled_ssd130x.h ****     {
 4202              		.loc 15 109 10 is_stmt 1 view .LVU1014
 4203              	.LBB896:
 111:../../libdaisy/src/dev/oled_ssd130x.h ****         spi_.BlockingTransmit(&cmd, 1);
 4204              		.loc 15 111 9 view .LVU1015
 111:../../libdaisy/src/dev/oled_ssd130x.h ****         spi_.BlockingTransmit(&cmd, 1);
 4205              		.loc 15 111 23 is_stmt 0 view .LVU1016
 4206 00ae FFF7FEFF 		bl	dsy_gpio_write
 4207              	.LVL347:
 112:../../libdaisy/src/dev/oled_ssd130x.h ****     };
 4208              		.loc 15 112 9 is_stmt 1 view .LVU1017
 112:../../libdaisy/src/dev/oled_ssd130x.h ****     };
 4209              		.loc 15 112 30 is_stmt 0 view .LVU1018
 4210 00b2 3246     		mov	r2, r6
 4211 00b4 02A9     		add	r1, sp, #8
 4212 00b6 6423     		movs	r3, #100
 4213 00b8 2046     		mov	r0, r4
 4214 00ba FFF7FEFF 		bl	_ZN5daisy9SpiHandle16BlockingTransmitEPhjm
 4215              	.LVL348:
 112:../../libdaisy/src/dev/oled_ssd130x.h ****     };
 4216              		.loc 15 112 30 view .LVU1019
 4217 00be A823     		movs	r3, #168
 4218              	.LBE896:
 4219              	.LBE894:
 4220              	.LBB897:
 4221              	.LBB898:
 111:../../libdaisy/src/dev/oled_ssd130x.h ****         spi_.BlockingTransmit(&cmd, 1);
 4222              		.loc 15 111 23 view .LVU1020
 4223 00c0 2946     		mov	r1, r5
 4224 00c2 3846     		mov	r0, r7
 4225 00c4 8DF80830 		strb	r3, [sp, #8]
 4226              	.LVL349:
 111:../../libdaisy/src/dev/oled_ssd130x.h ****         spi_.BlockingTransmit(&cmd, 1);
 4227              		.loc 15 111 23 view .LVU1021
 4228              	.LBE898:
 4229              	.LBI897:
 109:../../libdaisy/src/dev/oled_ssd130x.h ****     {
 4230              		.loc 15 109 10 is_stmt 1 view .LVU1022
 4231              	.LBB899:
 111:../../libdaisy/src/dev/oled_ssd130x.h ****         spi_.BlockingTransmit(&cmd, 1);
 4232              		.loc 15 111 9 view .LVU1023
 111:../../libdaisy/src/dev/oled_ssd130x.h ****         spi_.BlockingTransmit(&cmd, 1);
ARM GAS  C:\Users\VINCIU~1\AppData\Local\Temp\cc6Tz7la.s 			page 126


 4233              		.loc 15 111 23 is_stmt 0 view .LVU1024
 4234 00c8 FFF7FEFF 		bl	dsy_gpio_write
 4235              	.LVL350:
 112:../../libdaisy/src/dev/oled_ssd130x.h ****     };
 4236              		.loc 15 112 9 is_stmt 1 view .LVU1025
 112:../../libdaisy/src/dev/oled_ssd130x.h ****     };
 4237              		.loc 15 112 30 is_stmt 0 view .LVU1026
 4238 00cc 3246     		mov	r2, r6
 4239 00ce 02A9     		add	r1, sp, #8
 4240 00d0 6423     		movs	r3, #100
 4241 00d2 2046     		mov	r0, r4
 4242 00d4 FFF7FEFF 		bl	_ZN5daisy9SpiHandle16BlockingTransmitEPhjm
 4243              	.LVL351:
 112:../../libdaisy/src/dev/oled_ssd130x.h ****     };
 4244              		.loc 15 112 30 view .LVU1027
 4245 00d8 3F23     		movs	r3, #63
 4246              	.LBE899:
 4247              	.LBE897:
 4248              	.LBB900:
 4249              	.LBB901:
 111:../../libdaisy/src/dev/oled_ssd130x.h ****         spi_.BlockingTransmit(&cmd, 1);
 4250              		.loc 15 111 23 view .LVU1028
 4251 00da 2946     		mov	r1, r5
 4252 00dc 3846     		mov	r0, r7
 4253 00de 8DF80830 		strb	r3, [sp, #8]
 4254              	.LVL352:
 111:../../libdaisy/src/dev/oled_ssd130x.h ****         spi_.BlockingTransmit(&cmd, 1);
 4255              		.loc 15 111 23 view .LVU1029
 4256              	.LBE901:
 4257              	.LBI900:
 109:../../libdaisy/src/dev/oled_ssd130x.h ****     {
 4258              		.loc 15 109 10 is_stmt 1 view .LVU1030
 4259              	.LBB902:
 111:../../libdaisy/src/dev/oled_ssd130x.h ****         spi_.BlockingTransmit(&cmd, 1);
 4260              		.loc 15 111 9 view .LVU1031
 111:../../libdaisy/src/dev/oled_ssd130x.h ****         spi_.BlockingTransmit(&cmd, 1);
 4261              		.loc 15 111 23 is_stmt 0 view .LVU1032
 4262 00e2 FFF7FEFF 		bl	dsy_gpio_write
 4263              	.LVL353:
 112:../../libdaisy/src/dev/oled_ssd130x.h ****     };
 4264              		.loc 15 112 9 is_stmt 1 view .LVU1033
 112:../../libdaisy/src/dev/oled_ssd130x.h ****     };
 4265              		.loc 15 112 30 is_stmt 0 view .LVU1034
 4266 00e6 3246     		mov	r2, r6
 4267 00e8 02A9     		add	r1, sp, #8
 4268 00ea 6423     		movs	r3, #100
 4269 00ec 2046     		mov	r0, r4
 4270 00ee FFF7FEFF 		bl	_ZN5daisy9SpiHandle16BlockingTransmitEPhjm
 4271              	.LVL354:
 112:../../libdaisy/src/dev/oled_ssd130x.h ****     };
 4272              		.loc 15 112 30 view .LVU1035
 4273 00f2 DA23     		movs	r3, #218
 4274              	.LBE902:
 4275              	.LBE900:
 4276              	.LBB903:
 4277              	.LBB904:
 111:../../libdaisy/src/dev/oled_ssd130x.h ****         spi_.BlockingTransmit(&cmd, 1);
ARM GAS  C:\Users\VINCIU~1\AppData\Local\Temp\cc6Tz7la.s 			page 127


 4278              		.loc 15 111 23 view .LVU1036
 4279 00f4 2946     		mov	r1, r5
 4280 00f6 3846     		mov	r0, r7
 4281 00f8 8DF80830 		strb	r3, [sp, #8]
 4282              	.LVL355:
 111:../../libdaisy/src/dev/oled_ssd130x.h ****         spi_.BlockingTransmit(&cmd, 1);
 4283              		.loc 15 111 23 view .LVU1037
 4284              	.LBE904:
 4285              	.LBI903:
 109:../../libdaisy/src/dev/oled_ssd130x.h ****     {
 4286              		.loc 15 109 10 is_stmt 1 view .LVU1038
 4287              	.LBB905:
 111:../../libdaisy/src/dev/oled_ssd130x.h ****         spi_.BlockingTransmit(&cmd, 1);
 4288              		.loc 15 111 9 view .LVU1039
 111:../../libdaisy/src/dev/oled_ssd130x.h ****         spi_.BlockingTransmit(&cmd, 1);
 4289              		.loc 15 111 23 is_stmt 0 view .LVU1040
 4290 00fc FFF7FEFF 		bl	dsy_gpio_write
 4291              	.LVL356:
 112:../../libdaisy/src/dev/oled_ssd130x.h ****     };
 4292              		.loc 15 112 9 is_stmt 1 view .LVU1041
 112:../../libdaisy/src/dev/oled_ssd130x.h ****     };
 4293              		.loc 15 112 30 is_stmt 0 view .LVU1042
 4294 0100 3246     		mov	r2, r6
 4295 0102 02A9     		add	r1, sp, #8
 4296 0104 6423     		movs	r3, #100
 4297 0106 2046     		mov	r0, r4
 4298 0108 FFF7FEFF 		bl	_ZN5daisy9SpiHandle16BlockingTransmitEPhjm
 4299              	.LVL357:
 112:../../libdaisy/src/dev/oled_ssd130x.h ****     };
 4300              		.loc 15 112 30 view .LVU1043
 4301 010c 1223     		movs	r3, #18
 4302              	.LBE905:
 4303              	.LBE903:
 4304              	.LBB906:
 4305              	.LBB907:
 111:../../libdaisy/src/dev/oled_ssd130x.h ****         spi_.BlockingTransmit(&cmd, 1);
 4306              		.loc 15 111 23 view .LVU1044
 4307 010e 2946     		mov	r1, r5
 4308 0110 3846     		mov	r0, r7
 4309 0112 8DF80830 		strb	r3, [sp, #8]
 4310              	.LVL358:
 111:../../libdaisy/src/dev/oled_ssd130x.h ****         spi_.BlockingTransmit(&cmd, 1);
 4311              		.loc 15 111 23 view .LVU1045
 4312              	.LBE907:
 4313              	.LBI906:
 109:../../libdaisy/src/dev/oled_ssd130x.h ****     {
 4314              		.loc 15 109 10 is_stmt 1 view .LVU1046
 4315              	.LBB908:
 111:../../libdaisy/src/dev/oled_ssd130x.h ****         spi_.BlockingTransmit(&cmd, 1);
 4316              		.loc 15 111 9 view .LVU1047
 111:../../libdaisy/src/dev/oled_ssd130x.h ****         spi_.BlockingTransmit(&cmd, 1);
 4317              		.loc 15 111 23 is_stmt 0 view .LVU1048
 4318 0116 FFF7FEFF 		bl	dsy_gpio_write
 4319              	.LVL359:
 112:../../libdaisy/src/dev/oled_ssd130x.h ****     };
 4320              		.loc 15 112 9 is_stmt 1 view .LVU1049
 112:../../libdaisy/src/dev/oled_ssd130x.h ****     };
ARM GAS  C:\Users\VINCIU~1\AppData\Local\Temp\cc6Tz7la.s 			page 128


 4321              		.loc 15 112 30 is_stmt 0 view .LVU1050
 4322 011a 3246     		mov	r2, r6
 4323 011c 02A9     		add	r1, sp, #8
 4324 011e 6423     		movs	r3, #100
 4325 0120 2046     		mov	r0, r4
 4326 0122 FFF7FEFF 		bl	_ZN5daisy9SpiHandle16BlockingTransmitEPhjm
 4327              	.LVL360:
 112:../../libdaisy/src/dev/oled_ssd130x.h ****     };
 4328              		.loc 15 112 30 view .LVU1051
 4329 0126 D323     		movs	r3, #211
 4330              	.LBE908:
 4331              	.LBE906:
 4332              	.LBB909:
 4333              	.LBB910:
 111:../../libdaisy/src/dev/oled_ssd130x.h ****         spi_.BlockingTransmit(&cmd, 1);
 4334              		.loc 15 111 23 view .LVU1052
 4335 0128 2946     		mov	r1, r5
 4336 012a 3846     		mov	r0, r7
 4337 012c 8DF80830 		strb	r3, [sp, #8]
 4338              	.LVL361:
 111:../../libdaisy/src/dev/oled_ssd130x.h ****         spi_.BlockingTransmit(&cmd, 1);
 4339              		.loc 15 111 23 view .LVU1053
 4340              	.LBE910:
 4341              	.LBI909:
 109:../../libdaisy/src/dev/oled_ssd130x.h ****     {
 4342              		.loc 15 109 10 is_stmt 1 view .LVU1054
 4343              	.LBB911:
 111:../../libdaisy/src/dev/oled_ssd130x.h ****         spi_.BlockingTransmit(&cmd, 1);
 4344              		.loc 15 111 9 view .LVU1055
 111:../../libdaisy/src/dev/oled_ssd130x.h ****         spi_.BlockingTransmit(&cmd, 1);
 4345              		.loc 15 111 23 is_stmt 0 view .LVU1056
 4346 0130 FFF7FEFF 		bl	dsy_gpio_write
 4347              	.LVL362:
 112:../../libdaisy/src/dev/oled_ssd130x.h ****     };
 4348              		.loc 15 112 9 is_stmt 1 view .LVU1057
 112:../../libdaisy/src/dev/oled_ssd130x.h ****     };
 4349              		.loc 15 112 30 is_stmt 0 view .LVU1058
 4350 0134 3246     		mov	r2, r6
 4351 0136 6423     		movs	r3, #100
 4352 0138 02A9     		add	r1, sp, #8
 4353 013a 2046     		mov	r0, r4
 4354 013c FFF7FEFF 		bl	_ZN5daisy9SpiHandle16BlockingTransmitEPhjm
 4355              	.LVL363:
 112:../../libdaisy/src/dev/oled_ssd130x.h ****     };
 4356              		.loc 15 112 30 view .LVU1059
 4357              	.LBE911:
 4358              	.LBE909:
 4359              	.LBB912:
 4360              	.LBB913:
 111:../../libdaisy/src/dev/oled_ssd130x.h ****         spi_.BlockingTransmit(&cmd, 1);
 4361              		.loc 15 111 23 view .LVU1060
 4362 0140 2946     		mov	r1, r5
 4363 0142 3846     		mov	r0, r7
 4364 0144 8DF80850 		strb	r5, [sp, #8]
 4365              	.LVL364:
 111:../../libdaisy/src/dev/oled_ssd130x.h ****         spi_.BlockingTransmit(&cmd, 1);
 4366              		.loc 15 111 23 view .LVU1061
ARM GAS  C:\Users\VINCIU~1\AppData\Local\Temp\cc6Tz7la.s 			page 129


 4367              	.LBE913:
 4368              	.LBI912:
 109:../../libdaisy/src/dev/oled_ssd130x.h ****     {
 4369              		.loc 15 109 10 is_stmt 1 view .LVU1062
 4370              	.LBB914:
 111:../../libdaisy/src/dev/oled_ssd130x.h ****         spi_.BlockingTransmit(&cmd, 1);
 4371              		.loc 15 111 9 view .LVU1063
 111:../../libdaisy/src/dev/oled_ssd130x.h ****         spi_.BlockingTransmit(&cmd, 1);
 4372              		.loc 15 111 23 is_stmt 0 view .LVU1064
 4373 0148 FFF7FEFF 		bl	dsy_gpio_write
 4374              	.LVL365:
 112:../../libdaisy/src/dev/oled_ssd130x.h ****     };
 4375              		.loc 15 112 9 is_stmt 1 view .LVU1065
 112:../../libdaisy/src/dev/oled_ssd130x.h ****     };
 4376              		.loc 15 112 30 is_stmt 0 view .LVU1066
 4377 014c 3246     		mov	r2, r6
 4378 014e 02A9     		add	r1, sp, #8
 4379 0150 6423     		movs	r3, #100
 4380 0152 2046     		mov	r0, r4
 4381 0154 FFF7FEFF 		bl	_ZN5daisy9SpiHandle16BlockingTransmitEPhjm
 4382              	.LVL366:
 112:../../libdaisy/src/dev/oled_ssd130x.h ****     };
 4383              		.loc 15 112 30 view .LVU1067
 4384 0158 4023     		movs	r3, #64
 4385              	.LBE914:
 4386              	.LBE912:
 4387              	.LBB915:
 4388              	.LBB916:
 111:../../libdaisy/src/dev/oled_ssd130x.h ****         spi_.BlockingTransmit(&cmd, 1);
 4389              		.loc 15 111 23 view .LVU1068
 4390 015a 2946     		mov	r1, r5
 4391 015c 3846     		mov	r0, r7
 4392 015e 8DF80830 		strb	r3, [sp, #8]
 4393              	.LVL367:
 111:../../libdaisy/src/dev/oled_ssd130x.h ****         spi_.BlockingTransmit(&cmd, 1);
 4394              		.loc 15 111 23 view .LVU1069
 4395              	.LBE916:
 4396              	.LBI915:
 109:../../libdaisy/src/dev/oled_ssd130x.h ****     {
 4397              		.loc 15 109 10 is_stmt 1 view .LVU1070
 4398              	.LBB917:
 111:../../libdaisy/src/dev/oled_ssd130x.h ****         spi_.BlockingTransmit(&cmd, 1);
 4399              		.loc 15 111 9 view .LVU1071
 111:../../libdaisy/src/dev/oled_ssd130x.h ****         spi_.BlockingTransmit(&cmd, 1);
 4400              		.loc 15 111 23 is_stmt 0 view .LVU1072
 4401 0162 FFF7FEFF 		bl	dsy_gpio_write
 4402              	.LVL368:
 112:../../libdaisy/src/dev/oled_ssd130x.h ****     };
 4403              		.loc 15 112 9 is_stmt 1 view .LVU1073
 112:../../libdaisy/src/dev/oled_ssd130x.h ****     };
 4404              		.loc 15 112 30 is_stmt 0 view .LVU1074
 4405 0166 3246     		mov	r2, r6
 4406 0168 02A9     		add	r1, sp, #8
 4407 016a 6423     		movs	r3, #100
 4408 016c 2046     		mov	r0, r4
 4409 016e FFF7FEFF 		bl	_ZN5daisy9SpiHandle16BlockingTransmitEPhjm
 4410              	.LVL369:
ARM GAS  C:\Users\VINCIU~1\AppData\Local\Temp\cc6Tz7la.s 			page 130


 112:../../libdaisy/src/dev/oled_ssd130x.h ****     };
 4411              		.loc 15 112 30 view .LVU1075
 4412 0172 A623     		movs	r3, #166
 4413              	.LBE917:
 4414              	.LBE915:
 4415              	.LBB918:
 4416              	.LBB919:
 111:../../libdaisy/src/dev/oled_ssd130x.h ****         spi_.BlockingTransmit(&cmd, 1);
 4417              		.loc 15 111 23 view .LVU1076
 4418 0174 2946     		mov	r1, r5
 4419 0176 3846     		mov	r0, r7
 4420 0178 8DF80830 		strb	r3, [sp, #8]
 4421              	.LVL370:
 111:../../libdaisy/src/dev/oled_ssd130x.h ****         spi_.BlockingTransmit(&cmd, 1);
 4422              		.loc 15 111 23 view .LVU1077
 4423              	.LBE919:
 4424              	.LBI918:
 109:../../libdaisy/src/dev/oled_ssd130x.h ****     {
 4425              		.loc 15 109 10 is_stmt 1 view .LVU1078
 4426              	.LBB920:
 111:../../libdaisy/src/dev/oled_ssd130x.h ****         spi_.BlockingTransmit(&cmd, 1);
 4427              		.loc 15 111 9 view .LVU1079
 111:../../libdaisy/src/dev/oled_ssd130x.h ****         spi_.BlockingTransmit(&cmd, 1);
 4428              		.loc 15 111 23 is_stmt 0 view .LVU1080
 4429 017c FFF7FEFF 		bl	dsy_gpio_write
 4430              	.LVL371:
 112:../../libdaisy/src/dev/oled_ssd130x.h ****     };
 4431              		.loc 15 112 9 is_stmt 1 view .LVU1081
 112:../../libdaisy/src/dev/oled_ssd130x.h ****     };
 4432              		.loc 15 112 30 is_stmt 0 view .LVU1082
 4433 0180 3246     		mov	r2, r6
 4434 0182 02A9     		add	r1, sp, #8
 4435 0184 6423     		movs	r3, #100
 4436 0186 2046     		mov	r0, r4
 4437 0188 FFF7FEFF 		bl	_ZN5daisy9SpiHandle16BlockingTransmitEPhjm
 4438              	.LVL372:
 112:../../libdaisy/src/dev/oled_ssd130x.h ****     };
 4439              		.loc 15 112 30 view .LVU1083
 4440 018c A423     		movs	r3, #164
 4441              	.LBE920:
 4442              	.LBE918:
 4443              	.LBB921:
 4444              	.LBB922:
 111:../../libdaisy/src/dev/oled_ssd130x.h ****         spi_.BlockingTransmit(&cmd, 1);
 4445              		.loc 15 111 23 view .LVU1084
 4446 018e 2946     		mov	r1, r5
 4447 0190 3846     		mov	r0, r7
 4448 0192 8DF80830 		strb	r3, [sp, #8]
 4449              	.LVL373:
 111:../../libdaisy/src/dev/oled_ssd130x.h ****         spi_.BlockingTransmit(&cmd, 1);
 4450              		.loc 15 111 23 view .LVU1085
 4451              	.LBE922:
 4452              	.LBI921:
 109:../../libdaisy/src/dev/oled_ssd130x.h ****     {
 4453              		.loc 15 109 10 is_stmt 1 view .LVU1086
 4454              	.LBB923:
 111:../../libdaisy/src/dev/oled_ssd130x.h ****         spi_.BlockingTransmit(&cmd, 1);
ARM GAS  C:\Users\VINCIU~1\AppData\Local\Temp\cc6Tz7la.s 			page 131


 4455              		.loc 15 111 9 view .LVU1087
 111:../../libdaisy/src/dev/oled_ssd130x.h ****         spi_.BlockingTransmit(&cmd, 1);
 4456              		.loc 15 111 23 is_stmt 0 view .LVU1088
 4457 0196 FFF7FEFF 		bl	dsy_gpio_write
 4458              	.LVL374:
 112:../../libdaisy/src/dev/oled_ssd130x.h ****     };
 4459              		.loc 15 112 9 is_stmt 1 view .LVU1089
 112:../../libdaisy/src/dev/oled_ssd130x.h ****     };
 4460              		.loc 15 112 30 is_stmt 0 view .LVU1090
 4461 019a 3246     		mov	r2, r6
 4462 019c 02A9     		add	r1, sp, #8
 4463 019e 6423     		movs	r3, #100
 4464 01a0 2046     		mov	r0, r4
 4465 01a2 FFF7FEFF 		bl	_ZN5daisy9SpiHandle16BlockingTransmitEPhjm
 4466              	.LVL375:
 112:../../libdaisy/src/dev/oled_ssd130x.h ****     };
 4467              		.loc 15 112 30 view .LVU1091
 4468 01a6 8D23     		movs	r3, #141
 4469              	.LBE923:
 4470              	.LBE921:
 4471              	.LBB924:
 4472              	.LBB925:
 111:../../libdaisy/src/dev/oled_ssd130x.h ****         spi_.BlockingTransmit(&cmd, 1);
 4473              		.loc 15 111 23 view .LVU1092
 4474 01a8 2946     		mov	r1, r5
 4475 01aa 3846     		mov	r0, r7
 4476 01ac 8DF80830 		strb	r3, [sp, #8]
 4477              	.LVL376:
 111:../../libdaisy/src/dev/oled_ssd130x.h ****         spi_.BlockingTransmit(&cmd, 1);
 4478              		.loc 15 111 23 view .LVU1093
 4479              	.LBE925:
 4480              	.LBI924:
 109:../../libdaisy/src/dev/oled_ssd130x.h ****     {
 4481              		.loc 15 109 10 is_stmt 1 view .LVU1094
 4482              	.LBB926:
 111:../../libdaisy/src/dev/oled_ssd130x.h ****         spi_.BlockingTransmit(&cmd, 1);
 4483              		.loc 15 111 9 view .LVU1095
 111:../../libdaisy/src/dev/oled_ssd130x.h ****         spi_.BlockingTransmit(&cmd, 1);
 4484              		.loc 15 111 23 is_stmt 0 view .LVU1096
 4485 01b0 FFF7FEFF 		bl	dsy_gpio_write
 4486              	.LVL377:
 112:../../libdaisy/src/dev/oled_ssd130x.h ****     };
 4487              		.loc 15 112 9 is_stmt 1 view .LVU1097
 112:../../libdaisy/src/dev/oled_ssd130x.h ****     };
 4488              		.loc 15 112 30 is_stmt 0 view .LVU1098
 4489 01b4 3246     		mov	r2, r6
 4490 01b6 02A9     		add	r1, sp, #8
 4491 01b8 6423     		movs	r3, #100
 4492 01ba 2046     		mov	r0, r4
 4493 01bc FFF7FEFF 		bl	_ZN5daisy9SpiHandle16BlockingTransmitEPhjm
 4494              	.LVL378:
 112:../../libdaisy/src/dev/oled_ssd130x.h ****     };
 4495              		.loc 15 112 30 view .LVU1099
 4496 01c0 1423     		movs	r3, #20
 4497              	.LBE926:
 4498              	.LBE924:
 4499              	.LBB927:
ARM GAS  C:\Users\VINCIU~1\AppData\Local\Temp\cc6Tz7la.s 			page 132


 4500              	.LBB928:
 111:../../libdaisy/src/dev/oled_ssd130x.h ****         spi_.BlockingTransmit(&cmd, 1);
 4501              		.loc 15 111 23 view .LVU1100
 4502 01c2 2946     		mov	r1, r5
 4503 01c4 3846     		mov	r0, r7
 4504 01c6 8DF80830 		strb	r3, [sp, #8]
 4505              	.LVL379:
 111:../../libdaisy/src/dev/oled_ssd130x.h ****         spi_.BlockingTransmit(&cmd, 1);
 4506              		.loc 15 111 23 view .LVU1101
 4507              	.LBE928:
 4508              	.LBI927:
 109:../../libdaisy/src/dev/oled_ssd130x.h ****     {
 4509              		.loc 15 109 10 is_stmt 1 view .LVU1102
 4510              	.LBB929:
 111:../../libdaisy/src/dev/oled_ssd130x.h ****         spi_.BlockingTransmit(&cmd, 1);
 4511              		.loc 15 111 9 view .LVU1103
 111:../../libdaisy/src/dev/oled_ssd130x.h ****         spi_.BlockingTransmit(&cmd, 1);
 4512              		.loc 15 111 23 is_stmt 0 view .LVU1104
 4513 01ca FFF7FEFF 		bl	dsy_gpio_write
 4514              	.LVL380:
 112:../../libdaisy/src/dev/oled_ssd130x.h ****     };
 4515              		.loc 15 112 9 is_stmt 1 view .LVU1105
 112:../../libdaisy/src/dev/oled_ssd130x.h ****     };
 4516              		.loc 15 112 30 is_stmt 0 view .LVU1106
 4517 01ce 3246     		mov	r2, r6
 4518 01d0 02A9     		add	r1, sp, #8
 4519 01d2 6423     		movs	r3, #100
 4520 01d4 2046     		mov	r0, r4
 4521 01d6 FFF7FEFF 		bl	_ZN5daisy9SpiHandle16BlockingTransmitEPhjm
 4522              	.LVL381:
 112:../../libdaisy/src/dev/oled_ssd130x.h ****     };
 4523              		.loc 15 112 30 view .LVU1107
 4524 01da A123     		movs	r3, #161
 4525              	.LBE929:
 4526              	.LBE927:
 4527              	.LBB930:
 4528              	.LBB931:
 111:../../libdaisy/src/dev/oled_ssd130x.h ****         spi_.BlockingTransmit(&cmd, 1);
 4529              		.loc 15 111 23 view .LVU1108
 4530 01dc 2946     		mov	r1, r5
 4531 01de 3846     		mov	r0, r7
 4532 01e0 8DF80830 		strb	r3, [sp, #8]
 4533              	.LVL382:
 111:../../libdaisy/src/dev/oled_ssd130x.h ****         spi_.BlockingTransmit(&cmd, 1);
 4534              		.loc 15 111 23 view .LVU1109
 4535              	.LBE931:
 4536              	.LBI930:
 109:../../libdaisy/src/dev/oled_ssd130x.h ****     {
 4537              		.loc 15 109 10 is_stmt 1 view .LVU1110
 4538              	.LBB932:
 111:../../libdaisy/src/dev/oled_ssd130x.h ****         spi_.BlockingTransmit(&cmd, 1);
 4539              		.loc 15 111 9 view .LVU1111
 111:../../libdaisy/src/dev/oled_ssd130x.h ****         spi_.BlockingTransmit(&cmd, 1);
 4540              		.loc 15 111 23 is_stmt 0 view .LVU1112
 4541 01e4 FFF7FEFF 		bl	dsy_gpio_write
 4542              	.LVL383:
 112:../../libdaisy/src/dev/oled_ssd130x.h ****     };
ARM GAS  C:\Users\VINCIU~1\AppData\Local\Temp\cc6Tz7la.s 			page 133


 4543              		.loc 15 112 9 is_stmt 1 view .LVU1113
 112:../../libdaisy/src/dev/oled_ssd130x.h ****     };
 4544              		.loc 15 112 30 is_stmt 0 view .LVU1114
 4545 01e8 3246     		mov	r2, r6
 4546 01ea 02A9     		add	r1, sp, #8
 4547 01ec 6423     		movs	r3, #100
 4548 01ee 2046     		mov	r0, r4
 4549 01f0 FFF7FEFF 		bl	_ZN5daisy9SpiHandle16BlockingTransmitEPhjm
 4550              	.LVL384:
 112:../../libdaisy/src/dev/oled_ssd130x.h ****     };
 4551              		.loc 15 112 30 view .LVU1115
 4552 01f4 C823     		movs	r3, #200
 4553              	.LBE932:
 4554              	.LBE930:
 4555              	.LBB933:
 4556              	.LBB934:
 111:../../libdaisy/src/dev/oled_ssd130x.h ****         spi_.BlockingTransmit(&cmd, 1);
 4557              		.loc 15 111 23 view .LVU1116
 4558 01f6 2946     		mov	r1, r5
 4559 01f8 3846     		mov	r0, r7
 4560 01fa 8DF80830 		strb	r3, [sp, #8]
 4561              	.LVL385:
 111:../../libdaisy/src/dev/oled_ssd130x.h ****         spi_.BlockingTransmit(&cmd, 1);
 4562              		.loc 15 111 23 view .LVU1117
 4563              	.LBE934:
 4564              	.LBI933:
 109:../../libdaisy/src/dev/oled_ssd130x.h ****     {
 4565              		.loc 15 109 10 is_stmt 1 view .LVU1118
 4566              	.LBB935:
 111:../../libdaisy/src/dev/oled_ssd130x.h ****         spi_.BlockingTransmit(&cmd, 1);
 4567              		.loc 15 111 9 view .LVU1119
 111:../../libdaisy/src/dev/oled_ssd130x.h ****         spi_.BlockingTransmit(&cmd, 1);
 4568              		.loc 15 111 23 is_stmt 0 view .LVU1120
 4569 01fe FFF7FEFF 		bl	dsy_gpio_write
 4570              	.LVL386:
 112:../../libdaisy/src/dev/oled_ssd130x.h ****     };
 4571              		.loc 15 112 9 is_stmt 1 view .LVU1121
 112:../../libdaisy/src/dev/oled_ssd130x.h ****     };
 4572              		.loc 15 112 30 is_stmt 0 view .LVU1122
 4573 0202 3246     		mov	r2, r6
 4574 0204 02A9     		add	r1, sp, #8
 4575 0206 6423     		movs	r3, #100
 4576 0208 2046     		mov	r0, r4
 4577 020a FFF7FEFF 		bl	_ZN5daisy9SpiHandle16BlockingTransmitEPhjm
 4578              	.LVL387:
 112:../../libdaisy/src/dev/oled_ssd130x.h ****     };
 4579              		.loc 15 112 30 view .LVU1123
 4580 020e 8123     		movs	r3, #129
 4581              	.LBE935:
 4582              	.LBE933:
 4583              	.LBB936:
 4584              	.LBB937:
 111:../../libdaisy/src/dev/oled_ssd130x.h ****         spi_.BlockingTransmit(&cmd, 1);
 4585              		.loc 15 111 23 view .LVU1124
 4586 0210 2946     		mov	r1, r5
 4587 0212 3846     		mov	r0, r7
 4588 0214 8DF80830 		strb	r3, [sp, #8]
ARM GAS  C:\Users\VINCIU~1\AppData\Local\Temp\cc6Tz7la.s 			page 134


 4589              	.LVL388:
 111:../../libdaisy/src/dev/oled_ssd130x.h ****         spi_.BlockingTransmit(&cmd, 1);
 4590              		.loc 15 111 23 view .LVU1125
 4591              	.LBE937:
 4592              	.LBI936:
 109:../../libdaisy/src/dev/oled_ssd130x.h ****     {
 4593              		.loc 15 109 10 is_stmt 1 view .LVU1126
 4594              	.LBB938:
 111:../../libdaisy/src/dev/oled_ssd130x.h ****         spi_.BlockingTransmit(&cmd, 1);
 4595              		.loc 15 111 9 view .LVU1127
 111:../../libdaisy/src/dev/oled_ssd130x.h ****         spi_.BlockingTransmit(&cmd, 1);
 4596              		.loc 15 111 23 is_stmt 0 view .LVU1128
 4597 0218 FFF7FEFF 		bl	dsy_gpio_write
 4598              	.LVL389:
 112:../../libdaisy/src/dev/oled_ssd130x.h ****     };
 4599              		.loc 15 112 9 is_stmt 1 view .LVU1129
 112:../../libdaisy/src/dev/oled_ssd130x.h ****     };
 4600              		.loc 15 112 30 is_stmt 0 view .LVU1130
 4601 021c 3246     		mov	r2, r6
 4602 021e 02A9     		add	r1, sp, #8
 4603 0220 6423     		movs	r3, #100
 4604 0222 2046     		mov	r0, r4
 4605 0224 FFF7FEFF 		bl	_ZN5daisy9SpiHandle16BlockingTransmitEPhjm
 4606              	.LVL390:
 112:../../libdaisy/src/dev/oled_ssd130x.h ****     };
 4607              		.loc 15 112 30 view .LVU1131
 4608 0228 8F23     		movs	r3, #143
 4609              	.LBE938:
 4610              	.LBE936:
 4611              	.LBB939:
 4612              	.LBB940:
 111:../../libdaisy/src/dev/oled_ssd130x.h ****         spi_.BlockingTransmit(&cmd, 1);
 4613              		.loc 15 111 23 view .LVU1132
 4614 022a 2946     		mov	r1, r5
 4615 022c 3846     		mov	r0, r7
 4616 022e 8DF80830 		strb	r3, [sp, #8]
 4617              	.LVL391:
 111:../../libdaisy/src/dev/oled_ssd130x.h ****         spi_.BlockingTransmit(&cmd, 1);
 4618              		.loc 15 111 23 view .LVU1133
 4619              	.LBE940:
 4620              	.LBI939:
 109:../../libdaisy/src/dev/oled_ssd130x.h ****     {
 4621              		.loc 15 109 10 is_stmt 1 view .LVU1134
 4622              	.LBB941:
 111:../../libdaisy/src/dev/oled_ssd130x.h ****         spi_.BlockingTransmit(&cmd, 1);
 4623              		.loc 15 111 9 view .LVU1135
 111:../../libdaisy/src/dev/oled_ssd130x.h ****         spi_.BlockingTransmit(&cmd, 1);
 4624              		.loc 15 111 23 is_stmt 0 view .LVU1136
 4625 0232 FFF7FEFF 		bl	dsy_gpio_write
 4626              	.LVL392:
 112:../../libdaisy/src/dev/oled_ssd130x.h ****     };
 4627              		.loc 15 112 9 is_stmt 1 view .LVU1137
 112:../../libdaisy/src/dev/oled_ssd130x.h ****     };
 4628              		.loc 15 112 30 is_stmt 0 view .LVU1138
 4629 0236 3246     		mov	r2, r6
 4630 0238 02A9     		add	r1, sp, #8
 4631 023a 6423     		movs	r3, #100
ARM GAS  C:\Users\VINCIU~1\AppData\Local\Temp\cc6Tz7la.s 			page 135


 4632 023c 2046     		mov	r0, r4
 4633 023e FFF7FEFF 		bl	_ZN5daisy9SpiHandle16BlockingTransmitEPhjm
 4634              	.LVL393:
 112:../../libdaisy/src/dev/oled_ssd130x.h ****     };
 4635              		.loc 15 112 30 view .LVU1139
 4636 0242 D923     		movs	r3, #217
 4637              	.LBE941:
 4638              	.LBE939:
 4639              	.LBB942:
 4640              	.LBB943:
 111:../../libdaisy/src/dev/oled_ssd130x.h ****         spi_.BlockingTransmit(&cmd, 1);
 4641              		.loc 15 111 23 view .LVU1140
 4642 0244 2946     		mov	r1, r5
 4643 0246 3846     		mov	r0, r7
 4644 0248 8DF80830 		strb	r3, [sp, #8]
 4645              	.LVL394:
 111:../../libdaisy/src/dev/oled_ssd130x.h ****         spi_.BlockingTransmit(&cmd, 1);
 4646              		.loc 15 111 23 view .LVU1141
 4647              	.LBE943:
 4648              	.LBI942:
 109:../../libdaisy/src/dev/oled_ssd130x.h ****     {
 4649              		.loc 15 109 10 is_stmt 1 view .LVU1142
 4650              	.LBB944:
 111:../../libdaisy/src/dev/oled_ssd130x.h ****         spi_.BlockingTransmit(&cmd, 1);
 4651              		.loc 15 111 9 view .LVU1143
 111:../../libdaisy/src/dev/oled_ssd130x.h ****         spi_.BlockingTransmit(&cmd, 1);
 4652              		.loc 15 111 23 is_stmt 0 view .LVU1144
 4653 024c FFF7FEFF 		bl	dsy_gpio_write
 4654              	.LVL395:
 112:../../libdaisy/src/dev/oled_ssd130x.h ****     };
 4655              		.loc 15 112 9 is_stmt 1 view .LVU1145
 112:../../libdaisy/src/dev/oled_ssd130x.h ****     };
 4656              		.loc 15 112 30 is_stmt 0 view .LVU1146
 4657 0250 3246     		mov	r2, r6
 4658 0252 02A9     		add	r1, sp, #8
 4659 0254 6423     		movs	r3, #100
 4660 0256 2046     		mov	r0, r4
 4661 0258 FFF7FEFF 		bl	_ZN5daisy9SpiHandle16BlockingTransmitEPhjm
 4662              	.LVL396:
 112:../../libdaisy/src/dev/oled_ssd130x.h ****     };
 4663              		.loc 15 112 30 view .LVU1147
 4664 025c 2523     		movs	r3, #37
 4665              	.LBE944:
 4666              	.LBE942:
 4667              	.LBB945:
 4668              	.LBB946:
 111:../../libdaisy/src/dev/oled_ssd130x.h ****         spi_.BlockingTransmit(&cmd, 1);
 4669              		.loc 15 111 23 view .LVU1148
 4670 025e 2946     		mov	r1, r5
 4671 0260 3846     		mov	r0, r7
 4672 0262 8DF80830 		strb	r3, [sp, #8]
 4673              	.LVL397:
 111:../../libdaisy/src/dev/oled_ssd130x.h ****         spi_.BlockingTransmit(&cmd, 1);
 4674              		.loc 15 111 23 view .LVU1149
 4675              	.LBE946:
 4676              	.LBI945:
 109:../../libdaisy/src/dev/oled_ssd130x.h ****     {
ARM GAS  C:\Users\VINCIU~1\AppData\Local\Temp\cc6Tz7la.s 			page 136


 4677              		.loc 15 109 10 is_stmt 1 view .LVU1150
 4678              	.LBB947:
 111:../../libdaisy/src/dev/oled_ssd130x.h ****         spi_.BlockingTransmit(&cmd, 1);
 4679              		.loc 15 111 9 view .LVU1151
 111:../../libdaisy/src/dev/oled_ssd130x.h ****         spi_.BlockingTransmit(&cmd, 1);
 4680              		.loc 15 111 23 is_stmt 0 view .LVU1152
 4681 0266 FFF7FEFF 		bl	dsy_gpio_write
 4682              	.LVL398:
 112:../../libdaisy/src/dev/oled_ssd130x.h ****     };
 4683              		.loc 15 112 9 is_stmt 1 view .LVU1153
 112:../../libdaisy/src/dev/oled_ssd130x.h ****     };
 4684              		.loc 15 112 30 is_stmt 0 view .LVU1154
 4685 026a 3246     		mov	r2, r6
 4686 026c 02A9     		add	r1, sp, #8
 4687 026e 6423     		movs	r3, #100
 4688 0270 2046     		mov	r0, r4
 4689 0272 FFF7FEFF 		bl	_ZN5daisy9SpiHandle16BlockingTransmitEPhjm
 4690              	.LVL399:
 112:../../libdaisy/src/dev/oled_ssd130x.h ****     };
 4691              		.loc 15 112 30 view .LVU1155
 4692 0276 DB23     		movs	r3, #219
 4693              	.LBE947:
 4694              	.LBE945:
 4695              	.LBB948:
 4696              	.LBB949:
 111:../../libdaisy/src/dev/oled_ssd130x.h ****         spi_.BlockingTransmit(&cmd, 1);
 4697              		.loc 15 111 23 view .LVU1156
 4698 0278 2946     		mov	r1, r5
 4699 027a 3846     		mov	r0, r7
 4700 027c 8DF80830 		strb	r3, [sp, #8]
 4701              	.LVL400:
 111:../../libdaisy/src/dev/oled_ssd130x.h ****         spi_.BlockingTransmit(&cmd, 1);
 4702              		.loc 15 111 23 view .LVU1157
 4703              	.LBE949:
 4704              	.LBI948:
 109:../../libdaisy/src/dev/oled_ssd130x.h ****     {
 4705              		.loc 15 109 10 is_stmt 1 view .LVU1158
 4706              	.LBB950:
 111:../../libdaisy/src/dev/oled_ssd130x.h ****         spi_.BlockingTransmit(&cmd, 1);
 4707              		.loc 15 111 9 view .LVU1159
 111:../../libdaisy/src/dev/oled_ssd130x.h ****         spi_.BlockingTransmit(&cmd, 1);
 4708              		.loc 15 111 23 is_stmt 0 view .LVU1160
 4709 0280 FFF7FEFF 		bl	dsy_gpio_write
 4710              	.LVL401:
 112:../../libdaisy/src/dev/oled_ssd130x.h ****     };
 4711              		.loc 15 112 9 is_stmt 1 view .LVU1161
 112:../../libdaisy/src/dev/oled_ssd130x.h ****     };
 4712              		.loc 15 112 30 is_stmt 0 view .LVU1162
 4713 0284 3246     		mov	r2, r6
 4714 0286 02A9     		add	r1, sp, #8
 4715 0288 6423     		movs	r3, #100
 4716 028a 2046     		mov	r0, r4
 4717 028c FFF7FEFF 		bl	_ZN5daisy9SpiHandle16BlockingTransmitEPhjm
 4718              	.LVL402:
 112:../../libdaisy/src/dev/oled_ssd130x.h ****     };
 4719              		.loc 15 112 30 view .LVU1163
 4720 0290 3423     		movs	r3, #52
ARM GAS  C:\Users\VINCIU~1\AppData\Local\Temp\cc6Tz7la.s 			page 137


 4721              	.LBE950:
 4722              	.LBE948:
 4723              	.LBB951:
 4724              	.LBB952:
 111:../../libdaisy/src/dev/oled_ssd130x.h ****         spi_.BlockingTransmit(&cmd, 1);
 4725              		.loc 15 111 23 view .LVU1164
 4726 0292 2946     		mov	r1, r5
 4727 0294 3846     		mov	r0, r7
 4728 0296 8DF80830 		strb	r3, [sp, #8]
 4729              	.LVL403:
 111:../../libdaisy/src/dev/oled_ssd130x.h ****         spi_.BlockingTransmit(&cmd, 1);
 4730              		.loc 15 111 23 view .LVU1165
 4731              	.LBE952:
 4732              	.LBI951:
 109:../../libdaisy/src/dev/oled_ssd130x.h ****     {
 4733              		.loc 15 109 10 is_stmt 1 view .LVU1166
 4734              	.LBB953:
 111:../../libdaisy/src/dev/oled_ssd130x.h ****         spi_.BlockingTransmit(&cmd, 1);
 4735              		.loc 15 111 9 view .LVU1167
 111:../../libdaisy/src/dev/oled_ssd130x.h ****         spi_.BlockingTransmit(&cmd, 1);
 4736              		.loc 15 111 23 is_stmt 0 view .LVU1168
 4737 029a FFF7FEFF 		bl	dsy_gpio_write
 4738              	.LVL404:
 112:../../libdaisy/src/dev/oled_ssd130x.h ****     };
 4739              		.loc 15 112 9 is_stmt 1 view .LVU1169
 112:../../libdaisy/src/dev/oled_ssd130x.h ****     };
 4740              		.loc 15 112 30 is_stmt 0 view .LVU1170
 4741 029e 3246     		mov	r2, r6
 4742 02a0 02A9     		add	r1, sp, #8
 4743 02a2 6423     		movs	r3, #100
 4744 02a4 2046     		mov	r0, r4
 4745 02a6 FFF7FEFF 		bl	_ZN5daisy9SpiHandle16BlockingTransmitEPhjm
 4746              	.LVL405:
 112:../../libdaisy/src/dev/oled_ssd130x.h ****     };
 4747              		.loc 15 112 30 view .LVU1171
 4748 02aa AF23     		movs	r3, #175
 4749              	.LBE953:
 4750              	.LBE951:
 4751              	.LBB954:
 4752              	.LBB955:
 111:../../libdaisy/src/dev/oled_ssd130x.h ****         spi_.BlockingTransmit(&cmd, 1);
 4753              		.loc 15 111 23 view .LVU1172
 4754 02ac 2946     		mov	r1, r5
 4755 02ae 3846     		mov	r0, r7
 4756 02b0 8DF80830 		strb	r3, [sp, #8]
 4757              	.LVL406:
 111:../../libdaisy/src/dev/oled_ssd130x.h ****         spi_.BlockingTransmit(&cmd, 1);
 4758              		.loc 15 111 23 view .LVU1173
 4759              	.LBE955:
 4760              	.LBI954:
 109:../../libdaisy/src/dev/oled_ssd130x.h ****     {
 4761              		.loc 15 109 10 is_stmt 1 view .LVU1174
 4762              	.LBB956:
 111:../../libdaisy/src/dev/oled_ssd130x.h ****         spi_.BlockingTransmit(&cmd, 1);
 4763              		.loc 15 111 9 view .LVU1175
 111:../../libdaisy/src/dev/oled_ssd130x.h ****         spi_.BlockingTransmit(&cmd, 1);
 4764              		.loc 15 111 23 is_stmt 0 view .LVU1176
ARM GAS  C:\Users\VINCIU~1\AppData\Local\Temp\cc6Tz7la.s 			page 138


 4765 02b4 FFF7FEFF 		bl	dsy_gpio_write
 4766              	.LVL407:
 112:../../libdaisy/src/dev/oled_ssd130x.h ****     };
 4767              		.loc 15 112 9 is_stmt 1 view .LVU1177
 112:../../libdaisy/src/dev/oled_ssd130x.h ****     };
 4768              		.loc 15 112 30 is_stmt 0 view .LVU1178
 4769 02b8 6423     		movs	r3, #100
 4770 02ba 3246     		mov	r2, r6
 4771 02bc 02A9     		add	r1, sp, #8
 4772 02be 2046     		mov	r0, r4
 4773 02c0 FFF7FEFF 		bl	_ZN5daisy9SpiHandle16BlockingTransmitEPhjm
 4774              	.LVL408:
 112:../../libdaisy/src/dev/oled_ssd130x.h ****     };
 4775              		.loc 15 112 30 view .LVU1179
 4776              	.LBE956:
 4777              	.LBE954:
 234:../../libdaisy/src/dev/oled_ssd130x.h **** 
 4778              		.loc 15 234 5 view .LVU1180
 4779 02c4 0CB0     		add	sp, sp, #48
 4780              		.cfi_def_cfa_offset 24
 4781              		@ sp needed
 4782 02c6 BDE8F081 		pop	{r4, r5, r6, r7, r8, pc}
 4783              	.LVL409:
 4784              	.L305:
 234:../../libdaisy/src/dev/oled_ssd130x.h **** 
 4785              		.loc 15 234 5 view .LVU1181
 4786 02ca 00BF     		.align	2
 4787              	.L304:
 4788 02cc 060B0B00 		.word	723718
 4789 02d0 0105060A 		.word	168166657
 4790              		.cfi_endproc
 4791              	.LFE4481:
 4793              		.section	.text._ZN5daisy11MidiHandlerINS_17MidiUartTransportEE5ParseEh,"axG",%progbits,_ZN5daisy11
 4794              		.align	1
 4795              		.p2align 2,,3
 4796              		.weak	_ZN5daisy11MidiHandlerINS_17MidiUartTransportEE5ParseEh
 4797              		.syntax unified
 4798              		.thumb
 4799              		.thumb_func
 4800              		.fpu fpv5-d16
 4802              	_ZN5daisy11MidiHandlerINS_17MidiUartTransportEE5ParseEh:
 4803              	.LVL410:
 4804              	.LFB4483:
  83:../../libdaisy/src/hid/midi.h **** 
  84:../../libdaisy/src/hid/midi.h ****     struct Config
  85:../../libdaisy/src/hid/midi.h ****     {
  86:../../libdaisy/src/hid/midi.h ****         typename Transport::Config transport_config;
  87:../../libdaisy/src/hid/midi.h ****     };
  88:../../libdaisy/src/hid/midi.h **** 
  89:../../libdaisy/src/hid/midi.h ****     /** Initializes the MidiHandler 
  90:../../libdaisy/src/hid/midi.h ****     \param in_mode Input mode
  91:../../libdaisy/src/hid/midi.h ****     \param out_mode Output mode
  92:../../libdaisy/src/hid/midi.h ****      */
  93:../../libdaisy/src/hid/midi.h ****     void Init(Config config)
  94:../../libdaisy/src/hid/midi.h ****     {
  95:../../libdaisy/src/hid/midi.h ****         config_ = config;
  96:../../libdaisy/src/hid/midi.h **** 
ARM GAS  C:\Users\VINCIU~1\AppData\Local\Temp\cc6Tz7la.s 			page 139


  97:../../libdaisy/src/hid/midi.h ****         transport_.Init(config_.transport_config);
  98:../../libdaisy/src/hid/midi.h **** 
  99:../../libdaisy/src/hid/midi.h ****         event_q_.Init();
 100:../../libdaisy/src/hid/midi.h ****         incoming_message_.type = MessageLast;
 101:../../libdaisy/src/hid/midi.h ****         pstate_                = ParserEmpty;
 102:../../libdaisy/src/hid/midi.h ****     }
 103:../../libdaisy/src/hid/midi.h **** 
 104:../../libdaisy/src/hid/midi.h ****     /** Starts listening on the selected input mode(s). MidiEvent Queue will begin to fill, and can
 105:../../libdaisy/src/hid/midi.h ****     void StartReceive() { transport_.StartRx(); }
 106:../../libdaisy/src/hid/midi.h **** 
 107:../../libdaisy/src/hid/midi.h ****     /** Start listening */
 108:../../libdaisy/src/hid/midi.h ****     void Listen()
 109:../../libdaisy/src/hid/midi.h ****     {
 110:../../libdaisy/src/hid/midi.h ****         uint32_t now;
 111:../../libdaisy/src/hid/midi.h ****         now = System::GetNow();
 112:../../libdaisy/src/hid/midi.h ****         while(transport_.Readable())
 113:../../libdaisy/src/hid/midi.h ****         {
 114:../../libdaisy/src/hid/midi.h ****             last_read_ = now;
 115:../../libdaisy/src/hid/midi.h ****             Parse(transport_.Rx());
 116:../../libdaisy/src/hid/midi.h ****         }
 117:../../libdaisy/src/hid/midi.h **** 
 118:../../libdaisy/src/hid/midi.h ****         // In case of UART Error, (particularly
 119:../../libdaisy/src/hid/midi.h ****         //  overrun error), UART disables itself.
 120:../../libdaisy/src/hid/midi.h ****         // Flush the buff, and restart.
 121:../../libdaisy/src/hid/midi.h ****         if(!transport_.RxActive())
 122:../../libdaisy/src/hid/midi.h ****         {
 123:../../libdaisy/src/hid/midi.h ****             pstate_ = ParserEmpty;
 124:../../libdaisy/src/hid/midi.h ****             transport_.FlushRx();
 125:../../libdaisy/src/hid/midi.h ****             StartReceive();
 126:../../libdaisy/src/hid/midi.h ****         }
 127:../../libdaisy/src/hid/midi.h ****     }
 128:../../libdaisy/src/hid/midi.h **** 
 129:../../libdaisy/src/hid/midi.h ****     /** Checks if there are unhandled messages in the queue 
 130:../../libdaisy/src/hid/midi.h ****     \return True if there are events to be handled, else false.
 131:../../libdaisy/src/hid/midi.h ****      */
 132:../../libdaisy/src/hid/midi.h ****     bool HasEvents() const { return event_q_.readable(); }
 133:../../libdaisy/src/hid/midi.h **** 
 134:../../libdaisy/src/hid/midi.h **** 
 135:../../libdaisy/src/hid/midi.h ****     /** Pops the oldest unhandled MidiEvent from the internal queue
 136:../../libdaisy/src/hid/midi.h ****     \return The event to be handled
 137:../../libdaisy/src/hid/midi.h ****      */
 138:../../libdaisy/src/hid/midi.h ****     MidiEvent PopEvent() { return event_q_.Read(); }
 139:../../libdaisy/src/hid/midi.h **** 
 140:../../libdaisy/src/hid/midi.h ****     /** SendMessage
 141:../../libdaisy/src/hid/midi.h ****     Send raw bytes as message
 142:../../libdaisy/src/hid/midi.h ****     */
 143:../../libdaisy/src/hid/midi.h ****     void SendMessage(uint8_t* bytes, size_t size)
 144:../../libdaisy/src/hid/midi.h ****     {
 145:../../libdaisy/src/hid/midi.h ****         transport_.Tx(bytes, size);
 146:../../libdaisy/src/hid/midi.h ****     }
 147:../../libdaisy/src/hid/midi.h **** 
 148:../../libdaisy/src/hid/midi.h ****     /** Feed in bytes to state machine from a queue.
 149:../../libdaisy/src/hid/midi.h ****     Populates internal FIFO queue with MIDI Messages
 150:../../libdaisy/src/hid/midi.h ****     For example with uart:
 151:../../libdaisy/src/hid/midi.h ****     midi.Parse(uart.PopRx());
 152:../../libdaisy/src/hid/midi.h ****     \param byte &
 153:../../libdaisy/src/hid/midi.h ****     */
ARM GAS  C:\Users\VINCIU~1\AppData\Local\Temp\cc6Tz7la.s 			page 140


 154:../../libdaisy/src/hid/midi.h ****     void Parse(uint8_t byte)
 4805              		.loc 16 154 10 is_stmt 1 view -0
 4806              		.cfi_startproc
 4807              		@ args = 0, pretend = 0, frame = 232
 4808              		@ frame_needed = 0, uses_anonymous_args = 0
 4809              		.loc 16 154 10 is_stmt 0 view .LVU1183
 4810 0000 0379     		ldrb	r3, [r0, #4]	@ zero_extendqisi2
 4811 0002 2DE9F041 		push	{r4, r5, r6, r7, r8, lr}
 4812              		.cfi_def_cfa_offset 24
 4813              		.cfi_offset 4, -24
 4814              		.cfi_offset 5, -20
 4815              		.cfi_offset 6, -16
 4816              		.cfi_offset 7, -12
 4817              		.cfi_offset 8, -8
 4818              		.cfi_offset 14, -4
 4819 0006 0546     		mov	r5, r0
 4820 0008 BAB0     		sub	sp, sp, #232
 4821              		.cfi_def_cfa_offset 256
 4822 000a 032B     		cmp	r3, #3
 4823 000c 0CD8     		bhi	.L306
 4824 000e DFE803F0 		tbb	[pc, r3]
 4825              	.L309:
 4826 0012 67       		.byte	(.L312-.L309)/2
 4827 0013 1C       		.byte	(.L311-.L309)/2
 4828 0014 02       		.byte	(.L310-.L309)/2
 4829 0015 0E       		.byte	(.L308-.L309)/2
 4830              		.p2align 1
 4831              	.L310:
 155:../../libdaisy/src/hid/midi.h ****     {
 156:../../libdaisy/src/hid/midi.h ****         switch(pstate_)
 157:../../libdaisy/src/hid/midi.h ****         {
 158:../../libdaisy/src/hid/midi.h ****             case ParserEmpty:
 159:../../libdaisy/src/hid/midi.h ****                 // check byte for valid Status Byte
 160:../../libdaisy/src/hid/midi.h ****                 if(byte & kStatusByteMask)
 161:../../libdaisy/src/hid/midi.h ****                 {
 162:../../libdaisy/src/hid/midi.h ****                     // Get MessageType, and Channel
 163:../../libdaisy/src/hid/midi.h ****                     incoming_message_.channel = byte & kChannelMask;
 164:../../libdaisy/src/hid/midi.h ****                     incoming_message_.type    = static_cast<MidiMessageType>(
 165:../../libdaisy/src/hid/midi.h ****                         (byte & kMessageMask) >> 4);
 166:../../libdaisy/src/hid/midi.h **** 
 167:../../libdaisy/src/hid/midi.h ****                     // Validate, and move on.
 168:../../libdaisy/src/hid/midi.h ****                     if(incoming_message_.type < MessageLast)
 169:../../libdaisy/src/hid/midi.h ****                     {
 170:../../libdaisy/src/hid/midi.h ****                         pstate_ = ParserHasStatus;
 171:../../libdaisy/src/hid/midi.h ****                         // Mark this status byte as running_status
 172:../../libdaisy/src/hid/midi.h ****                         running_status_ = incoming_message_.type;
 173:../../libdaisy/src/hid/midi.h **** 
 174:../../libdaisy/src/hid/midi.h ****                         if(running_status_ == SystemCommon)
 175:../../libdaisy/src/hid/midi.h ****                         {
 176:../../libdaisy/src/hid/midi.h ****                             incoming_message_.channel = 0;
 177:../../libdaisy/src/hid/midi.h ****                             //system real time = 1111 1xxx
 178:../../libdaisy/src/hid/midi.h ****                             if(byte & 0x08)
 179:../../libdaisy/src/hid/midi.h ****                             {
 180:../../libdaisy/src/hid/midi.h ****                                 incoming_message_.type = SystemRealTime;
 181:../../libdaisy/src/hid/midi.h ****                                 running_status_        = SystemRealTime;
 182:../../libdaisy/src/hid/midi.h ****                                 incoming_message_.srt_type
 183:../../libdaisy/src/hid/midi.h ****                                     = static_cast<SystemRealTimeType>(
ARM GAS  C:\Users\VINCIU~1\AppData\Local\Temp\cc6Tz7la.s 			page 141


 184:../../libdaisy/src/hid/midi.h ****                                         byte & kSystemRealTimeMask);
 185:../../libdaisy/src/hid/midi.h **** 
 186:../../libdaisy/src/hid/midi.h ****                                 //short circuit to start
 187:../../libdaisy/src/hid/midi.h ****                                 pstate_ = ParserEmpty;
 188:../../libdaisy/src/hid/midi.h ****                                 event_q_.Write(incoming_message_);
 189:../../libdaisy/src/hid/midi.h ****                             }
 190:../../libdaisy/src/hid/midi.h ****                             //system common
 191:../../libdaisy/src/hid/midi.h ****                             else
 192:../../libdaisy/src/hid/midi.h ****                             {
 193:../../libdaisy/src/hid/midi.h ****                                 incoming_message_.sc_type
 194:../../libdaisy/src/hid/midi.h ****                                     = static_cast<SystemCommonType>(byte
 195:../../libdaisy/src/hid/midi.h ****                                                                     & 0x07);
 196:../../libdaisy/src/hid/midi.h ****                                 //sysex
 197:../../libdaisy/src/hid/midi.h ****                                 if(incoming_message_.sc_type == SystemExclusive)
 198:../../libdaisy/src/hid/midi.h ****                                 {
 199:../../libdaisy/src/hid/midi.h ****                                     pstate_ = ParserSysEx;
 200:../../libdaisy/src/hid/midi.h ****                                     incoming_message_.sysex_message_len = 0;
 201:../../libdaisy/src/hid/midi.h ****                                 }
 202:../../libdaisy/src/hid/midi.h ****                                 //short circuit
 203:../../libdaisy/src/hid/midi.h ****                                 else if(incoming_message_.sc_type > SongSelect)
 204:../../libdaisy/src/hid/midi.h ****                                 {
 205:../../libdaisy/src/hid/midi.h ****                                     pstate_ = ParserEmpty;
 206:../../libdaisy/src/hid/midi.h ****                                     event_q_.Write(incoming_message_);
 207:../../libdaisy/src/hid/midi.h ****                                 }
 208:../../libdaisy/src/hid/midi.h ****                             }
 209:../../libdaisy/src/hid/midi.h ****                         }
 210:../../libdaisy/src/hid/midi.h ****                     }
 211:../../libdaisy/src/hid/midi.h ****                     // Else we'll keep waiting for a valid incoming status byte
 212:../../libdaisy/src/hid/midi.h ****                 }
 213:../../libdaisy/src/hid/midi.h ****                 else
 214:../../libdaisy/src/hid/midi.h ****                 {
 215:../../libdaisy/src/hid/midi.h ****                     // Handle as running status
 216:../../libdaisy/src/hid/midi.h ****                     incoming_message_.type    = running_status_;
 217:../../libdaisy/src/hid/midi.h ****                     incoming_message_.data[0] = byte & kDataByteMask;
 218:../../libdaisy/src/hid/midi.h ****                     pstate_                   = ParserHasData0;
 219:../../libdaisy/src/hid/midi.h ****                 }
 220:../../libdaisy/src/hid/midi.h ****                 break;
 221:../../libdaisy/src/hid/midi.h ****             case ParserHasStatus:
 222:../../libdaisy/src/hid/midi.h ****                 if((byte & kStatusByteMask) == 0)
 223:../../libdaisy/src/hid/midi.h ****                 {
 224:../../libdaisy/src/hid/midi.h ****                     incoming_message_.data[0] = byte & kDataByteMask;
 225:../../libdaisy/src/hid/midi.h ****                     if(running_status_ == ChannelPressure
 226:../../libdaisy/src/hid/midi.h ****                        || running_status_ == ProgramChange
 227:../../libdaisy/src/hid/midi.h ****                        || incoming_message_.sc_type == MTCQuarterFrame
 228:../../libdaisy/src/hid/midi.h ****                        || incoming_message_.sc_type == SongSelect)
 229:../../libdaisy/src/hid/midi.h ****                     {
 230:../../libdaisy/src/hid/midi.h ****                         //these are just one data byte, so we short circuit back to start
 231:../../libdaisy/src/hid/midi.h ****                         pstate_ = ParserEmpty;
 232:../../libdaisy/src/hid/midi.h ****                         event_q_.Write(incoming_message_);
 233:../../libdaisy/src/hid/midi.h ****                     }
 234:../../libdaisy/src/hid/midi.h ****                     else
 235:../../libdaisy/src/hid/midi.h ****                     {
 236:../../libdaisy/src/hid/midi.h ****                         pstate_ = ParserHasData0;
 237:../../libdaisy/src/hid/midi.h ****                     }
 238:../../libdaisy/src/hid/midi.h **** 
 239:../../libdaisy/src/hid/midi.h ****                     //ChannelModeMessages (reserved Control Changes)
 240:../../libdaisy/src/hid/midi.h ****                     if(running_status_ == ControlChange
ARM GAS  C:\Users\VINCIU~1\AppData\Local\Temp\cc6Tz7la.s 			page 142


 241:../../libdaisy/src/hid/midi.h ****                        && incoming_message_.data[0] > 119)
 242:../../libdaisy/src/hid/midi.h ****                     {
 243:../../libdaisy/src/hid/midi.h ****                         incoming_message_.type = ChannelMode;
 244:../../libdaisy/src/hid/midi.h ****                         running_status_        = ChannelMode;
 245:../../libdaisy/src/hid/midi.h ****                         incoming_message_.cm_type
 246:../../libdaisy/src/hid/midi.h ****                             = static_cast<ChannelModeType>(
 247:../../libdaisy/src/hid/midi.h ****                                 incoming_message_.data[0] - 120);
 248:../../libdaisy/src/hid/midi.h ****                     }
 249:../../libdaisy/src/hid/midi.h ****                 }
 250:../../libdaisy/src/hid/midi.h ****                 else
 251:../../libdaisy/src/hid/midi.h ****                 {
 252:../../libdaisy/src/hid/midi.h ****                     // invalid message go back to start ;p
 253:../../libdaisy/src/hid/midi.h ****                     pstate_ = ParserEmpty;
 254:../../libdaisy/src/hid/midi.h ****                 }
 255:../../libdaisy/src/hid/midi.h ****                 break;
 256:../../libdaisy/src/hid/midi.h ****             case ParserHasData0:
 257:../../libdaisy/src/hid/midi.h ****                 if((byte & kStatusByteMask) == 0)
 4832              		.loc 16 257 28 view .LVU1184
 4833 0016 00F5E044 		add	r4, r0, #28672
 4834              		.loc 16 257 26 view .LVU1185
 4835 001a 94F89834 		ldrb	r3, [r4, #1176]	@ zero_extendqisi2
 4836              		.loc 16 257 17 view .LVU1186
 4837 001e 1942     		tst	r1, r3
 4838 0020 00F09280 		beq	.L353
 4839              	.LVL411:
 4840              	.L320:
 253:../../libdaisy/src/hid/midi.h ****                 }
 4841              		.loc 16 253 29 view .LVU1187
 4842 0024 0023     		movs	r3, #0
 4843 0026 2B71     		strb	r3, [r5, #4]
 4844              	.L306:
 258:../../libdaisy/src/hid/midi.h ****                 {
 259:../../libdaisy/src/hid/midi.h ****                     incoming_message_.data[1] = byte & kDataByteMask;
 260:../../libdaisy/src/hid/midi.h ****                     // At this point the message is valid, and we can add this MidiEvent to the que
 261:../../libdaisy/src/hid/midi.h ****                     event_q_.Write(incoming_message_);
 262:../../libdaisy/src/hid/midi.h ****                 }
 263:../../libdaisy/src/hid/midi.h ****                 // Regardless, of whether the data was valid or not we go back to empty
 264:../../libdaisy/src/hid/midi.h ****                 // because either the message is queued for handling or its not.
 265:../../libdaisy/src/hid/midi.h ****                 pstate_ = ParserEmpty;
 266:../../libdaisy/src/hid/midi.h ****                 break;
 267:../../libdaisy/src/hid/midi.h ****             case ParserSysEx:
 268:../../libdaisy/src/hid/midi.h ****                 // end of sysex
 269:../../libdaisy/src/hid/midi.h ****                 if(byte == 0xf7
 270:../../libdaisy/src/hid/midi.h ****                    || incoming_message_.sysex_message_len >= SYSEX_BUFFER_LEN)
 271:../../libdaisy/src/hid/midi.h ****                 {
 272:../../libdaisy/src/hid/midi.h ****                     pstate_ = ParserEmpty;
 273:../../libdaisy/src/hid/midi.h ****                     event_q_.Write(incoming_message_);
 274:../../libdaisy/src/hid/midi.h ****                 }
 275:../../libdaisy/src/hid/midi.h ****                 else
 276:../../libdaisy/src/hid/midi.h ****                 {
 277:../../libdaisy/src/hid/midi.h ****                     incoming_message_
 278:../../libdaisy/src/hid/midi.h ****                         .sysex_data[incoming_message_.sysex_message_len]
 279:../../libdaisy/src/hid/midi.h ****                         = byte;
 280:../../libdaisy/src/hid/midi.h ****                     incoming_message_.sysex_message_len++;
 281:../../libdaisy/src/hid/midi.h ****                 }
 282:../../libdaisy/src/hid/midi.h ****                 break;
 283:../../libdaisy/src/hid/midi.h ****             default: break;
ARM GAS  C:\Users\VINCIU~1\AppData\Local\Temp\cc6Tz7la.s 			page 143


 284:../../libdaisy/src/hid/midi.h ****         }
 285:../../libdaisy/src/hid/midi.h ****     }
 4845              		.loc 16 285 5 view .LVU1188
 4846 0028 3AB0     		add	sp, sp, #232
 4847              		.cfi_remember_state
 4848              		.cfi_def_cfa_offset 24
 4849              		@ sp needed
 4850 002a BDE8F081 		pop	{r4, r5, r6, r7, r8, pc}
 4851              	.LVL412:
 4852              	.L308:
 4853              		.cfi_restore_state
 269:../../libdaisy/src/hid/midi.h ****                    || incoming_message_.sysex_message_len >= SYSEX_BUFFER_LEN)
 4854              		.loc 16 269 17 view .LVU1189
 4855 002e F729     		cmp	r1, #247
 4856 0030 00F0B280 		beq	.L326
 270:../../libdaisy/src/hid/midi.h ****                 {
 4857              		.loc 16 270 41 view .LVU1190
 4858 0034 90F87630 		ldrb	r3, [r0, #118]	@ zero_extendqisi2
 270:../../libdaisy/src/hid/midi.h ****                 {
 4859              		.loc 16 270 20 view .LVU1191
 4860 0038 632B     		cmp	r3, #99
 4861 003a 00F2AD80 		bhi	.L326
 279:../../libdaisy/src/hid/midi.h ****                     incoming_message_.sysex_message_len++;
 4862              		.loc 16 279 25 view .LVU1192
 4863 003e C218     		adds	r2, r0, r3
 280:../../libdaisy/src/hid/midi.h ****                 }
 4864              		.loc 16 280 21 view .LVU1193
 4865 0040 0133     		adds	r3, r3, #1
 279:../../libdaisy/src/hid/midi.h ****                     incoming_message_.sysex_message_len++;
 4866              		.loc 16 279 25 view .LVU1194
 4867 0042 9174     		strb	r1, [r2, #18]
 280:../../libdaisy/src/hid/midi.h ****                 }
 4868              		.loc 16 280 21 view .LVU1195
 4869 0044 80F87630 		strb	r3, [r0, #118]
 4870              		.loc 16 285 5 view .LVU1196
 4871 0048 EEE7     		b	.L306
 4872              	.L311:
 222:../../libdaisy/src/hid/midi.h ****                 {
 4873              		.loc 16 222 28 view .LVU1197
 4874 004a 00F5E044 		add	r4, r0, #28672
 222:../../libdaisy/src/hid/midi.h ****                 {
 4875              		.loc 16 222 26 view .LVU1198
 4876 004e 94F89834 		ldrb	r3, [r4, #1176]	@ zero_extendqisi2
 222:../../libdaisy/src/hid/midi.h ****                 {
 4877              		.loc 16 222 17 view .LVU1199
 4878 0052 1942     		tst	r1, r3
 4879 0054 E6D1     		bne	.L320
 224:../../libdaisy/src/hid/midi.h ****                     if(running_status_ == ChannelPressure
 4880              		.loc 16 224 54 view .LVU1200
 4881 0056 94F89A84 		ldrb	r8, [r4, #1178]	@ zero_extendqisi2
 4882 005a 01EA0808 		and	r8, r1, r8
 224:../../libdaisy/src/hid/midi.h ****                     if(running_status_ == ChannelPressure
 4883              		.loc 16 224 47 view .LVU1201
 4884 005e 80F81080 		strb	r8, [r0, #16]
 225:../../libdaisy/src/hid/midi.h ****                        || running_status_ == ProgramChange
 4885              		.loc 16 225 24 view .LVU1202
 4886 0062 94F88874 		ldrb	r7, [r4, #1160]	@ zero_extendqisi2
ARM GAS  C:\Users\VINCIU~1\AppData\Local\Temp\cc6Tz7la.s 			page 144


 225:../../libdaisy/src/hid/midi.h ****                        || running_status_ == ProgramChange
 4887              		.loc 16 225 21 view .LVU1203
 4888 0066 3B1F     		subs	r3, r7, #4
 4889 0068 012B     		cmp	r3, #1
 4890 006a 06D9     		bls	.L321
 227:../../libdaisy/src/hid/midi.h ****                        || incoming_message_.sc_type == SongSelect)
 4891              		.loc 16 227 24 view .LVU1204
 4892 006c 90F87730 		ldrb	r3, [r0, #119]	@ zero_extendqisi2
 228:../../libdaisy/src/hid/midi.h ****                     {
 4893              		.loc 16 228 24 view .LVU1205
 4894 0070 03F0FD03 		and	r3, r3, #253
 4895 0074 012B     		cmp	r3, #1
 4896 0076 40F0B980 		bne	.L322
 4897              	.L321:
 231:../../libdaisy/src/hid/midi.h ****                         event_q_.Write(incoming_message_);
 4898              		.loc 16 231 33 view .LVU1206
 4899 007a 0023     		movs	r3, #0
 4900 007c 6E46     		mov	r6, sp
 4901 007e 7422     		movs	r2, #116
 4902 0080 05F10801 		add	r1, r5, #8
 4903              	.LVL413:
 231:../../libdaisy/src/hid/midi.h ****                         event_q_.Write(incoming_message_);
 4904              		.loc 16 231 33 view .LVU1207
 4905 0084 3046     		mov	r0, r6
 4906              	.LVL414:
 231:../../libdaisy/src/hid/midi.h ****                         event_q_.Write(incoming_message_);
 4907              		.loc 16 231 33 view .LVU1208
 4908 0086 2B71     		strb	r3, [r5, #4]
 4909              	.LVL415:
 231:../../libdaisy/src/hid/midi.h ****                         event_q_.Write(incoming_message_);
 4910              		.loc 16 231 33 view .LVU1209
 4911 0088 FFF7FEFF 		bl	memcpy
 4912              	.LVL416:
 4913              	.LBB987:
 4914              	.LBI987:
 4915              		.file 20 "../../libdaisy/src/util/ringbuffer.h"
   1:../../libdaisy/src/util/ringbuffer.h **** #pragma once
   2:../../libdaisy/src/util/ringbuffer.h **** #ifndef DSY_RINGBUFFER_H
   3:../../libdaisy/src/util/ringbuffer.h **** #define DSY_RINGBUFFER_H
   4:../../libdaisy/src/util/ringbuffer.h **** 
   5:../../libdaisy/src/util/ringbuffer.h **** #include <algorithm>
   6:../../libdaisy/src/util/ringbuffer.h **** 
   7:../../libdaisy/src/util/ringbuffer.h **** namespace daisy
   8:../../libdaisy/src/util/ringbuffer.h **** {
   9:../../libdaisy/src/util/ringbuffer.h **** /** @addtogroup utility
  10:../../libdaisy/src/util/ringbuffer.h ****     @{
  11:../../libdaisy/src/util/ringbuffer.h **** */
  12:../../libdaisy/src/util/ringbuffer.h **** 
  13:../../libdaisy/src/util/ringbuffer.h **** /**
  14:../../libdaisy/src/util/ringbuffer.h **** Utility Ring Buffer \n 
  15:../../libdaisy/src/util/ringbuffer.h **** imported from pichenettes/stmlib
  16:../../libdaisy/src/util/ringbuffer.h **** */
  17:../../libdaisy/src/util/ringbuffer.h **** template <typename T, size_t size>
  18:../../libdaisy/src/util/ringbuffer.h **** class RingBuffer
  19:../../libdaisy/src/util/ringbuffer.h **** {
  20:../../libdaisy/src/util/ringbuffer.h ****   public:
  21:../../libdaisy/src/util/ringbuffer.h ****     RingBuffer() {}
ARM GAS  C:\Users\VINCIU~1\AppData\Local\Temp\cc6Tz7la.s 			page 145


  22:../../libdaisy/src/util/ringbuffer.h **** 
  23:../../libdaisy/src/util/ringbuffer.h ****     /** Initializes the Ring Buffer */
  24:../../libdaisy/src/util/ringbuffer.h ****     inline void Init() { read_ptr_ = write_ptr_ = 0; }
  25:../../libdaisy/src/util/ringbuffer.h **** 
  26:../../libdaisy/src/util/ringbuffer.h ****     /** \return The total size of the ring buffer */
  27:../../libdaisy/src/util/ringbuffer.h ****     inline size_t capacity() const { return size; }
  28:../../libdaisy/src/util/ringbuffer.h **** 
  29:../../libdaisy/src/util/ringbuffer.h ****     /** \return the number of samples that can be written to ring buffer without overwriting unread
  30:../../libdaisy/src/util/ringbuffer.h ****     inline size_t writable() const
  31:../../libdaisy/src/util/ringbuffer.h ****     {
  32:../../libdaisy/src/util/ringbuffer.h ****         return (read_ptr_ - write_ptr_ - 1) % size;
  33:../../libdaisy/src/util/ringbuffer.h ****     }
  34:../../libdaisy/src/util/ringbuffer.h **** 
  35:../../libdaisy/src/util/ringbuffer.h ****     /** \return number of unread elements in ring buffer */
  36:../../libdaisy/src/util/ringbuffer.h ****     inline size_t readable() const { return (write_ptr_ - read_ptr_) % size; }
  37:../../libdaisy/src/util/ringbuffer.h **** 
  38:../../libdaisy/src/util/ringbuffer.h ****     /** \returns True, if the buffer is empty. */
  39:../../libdaisy/src/util/ringbuffer.h ****     inline bool isEmpty() const { return write_ptr_ == read_ptr_; }
  40:../../libdaisy/src/util/ringbuffer.h **** 
  41:../../libdaisy/src/util/ringbuffer.h ****     /** Writes the value to the next available position in the ring buffer
  42:../../libdaisy/src/util/ringbuffer.h ****     \param v Value to write
  43:../../libdaisy/src/util/ringbuffer.h ****     */
  44:../../libdaisy/src/util/ringbuffer.h ****     inline void Write(T v)
 4916              		.loc 20 44 17 is_stmt 1 view .LVU1210
 4917              	.L323:
 4918              	.LBB988:
  45:../../libdaisy/src/util/ringbuffer.h ****     {
  46:../../libdaisy/src/util/ringbuffer.h ****         while(!writable())
 4919              		.loc 20 46 24 view .LVU1211
 4920              	.LBB989:
 4921              	.LBI989:
  30:../../libdaisy/src/util/ringbuffer.h ****     {
 4922              		.loc 20 30 19 view .LVU1212
 4923              	.LBB990:
  32:../../libdaisy/src/util/ringbuffer.h ****     }
 4924              		.loc 20 32 17 is_stmt 0 view .LVU1213
 4925 008c D4F87C34 		ldr	r3, [r4, #1148]
  32:../../libdaisy/src/util/ringbuffer.h ****     }
 4926              		.loc 20 32 29 view .LVU1214
 4927 0090 D4F88024 		ldr	r2, [r4, #1152]
 4928              	.LVL417:
  32:../../libdaisy/src/util/ringbuffer.h ****     }
 4929              		.loc 20 32 40 view .LVU1215
 4930 0094 013B     		subs	r3, r3, #1
 4931 0096 9B1A     		subs	r3, r3, r2
  32:../../libdaisy/src/util/ringbuffer.h ****     }
 4932              		.loc 20 32 47 view .LVU1216
 4933 0098 DBB2     		uxtb	r3, r3
 4934              	.LBE990:
 4935              	.LBE989:
 4936              		.loc 20 46 24 view .LVU1217
 4937 009a 002B     		cmp	r3, #0
 4938 009c F6D0     		beq	.L323
 4939              	.LVL418:
 4940              		.loc 20 46 24 view .LVU1218
 4941 009e 7422     		movs	r2, #116
 4942 00a0 3146     		mov	r1, r6
ARM GAS  C:\Users\VINCIU~1\AppData\Local\Temp\cc6Tz7la.s 			page 146


 4943 00a2 0DEB0200 		add	r0, sp, r2
 4944 00a6 FFF7FEFF 		bl	memcpy
 4945              	.LVL419:
 4946              	.LBB991:
 4947              	.LBI991:
  47:../../libdaisy/src/util/ringbuffer.h ****             ;
  48:../../libdaisy/src/util/ringbuffer.h ****         Overwrite(v);
  49:../../libdaisy/src/util/ringbuffer.h ****     }
  50:../../libdaisy/src/util/ringbuffer.h **** 
  51:../../libdaisy/src/util/ringbuffer.h ****     /** Writes the new element to the ring buffer, overwriting unread data if necessary. 
  52:../../libdaisy/src/util/ringbuffer.h ****     \param v Value to overwrite
  53:../../libdaisy/src/util/ringbuffer.h ****      */
  54:../../libdaisy/src/util/ringbuffer.h ****     inline void Overwrite(T v)
 4948              		.loc 20 54 17 is_stmt 1 view .LVU1219
 4949              	.LBB992:
  55:../../libdaisy/src/util/ringbuffer.h ****     {
  56:../../libdaisy/src/util/ringbuffer.h ****         size_t w   = write_ptr_;
 4950              		.loc 20 56 16 is_stmt 0 view .LVU1220
 4951 00aa D4F88064 		ldr	r6, [r4, #1152]
 4952              	.LVL420:
  57:../../libdaisy/src/util/ringbuffer.h ****         buffer_[w] = v;
 4953              		.loc 20 57 9 view .LVU1221
 4954 00ae 7422     		movs	r2, #116
 4955 00b0 1DA9     		add	r1, sp, #116
 4956 00b2 02FB0650 		mla	r0, r2, r6, r5
  58:../../libdaisy/src/util/ringbuffer.h ****         write_ptr_ = (w + 1) % size;
 4957              		.loc 20 58 25 view .LVU1222
 4958 00b6 0136     		adds	r6, r6, #1
 4959              	.LVL421:
 4960              		.loc 20 58 30 view .LVU1223
 4961 00b8 F6B2     		uxtb	r6, r6
 4962              	.LVL422:
  57:../../libdaisy/src/util/ringbuffer.h ****         buffer_[w] = v;
 4963              		.loc 20 57 9 view .LVU1224
 4964 00ba 7C30     		adds	r0, r0, #124
 4965 00bc FFF7FEFF 		bl	memcpy
 4966              	.LVL423:
 4967              		.loc 20 58 20 view .LVU1225
 4968 00c0 C4F88064 		str	r6, [r4, #1152]
 4969              	.LVL424:
 4970              	.L324:
 4971              		.loc 20 58 20 view .LVU1226
 4972              	.LBE992:
 4973              	.LBE991:
 4974              	.LBE988:
 4975              	.LBE987:
 241:../../libdaisy/src/hid/midi.h ****                     {
 4976              		.loc 16 241 24 view .LVU1227
 4977 00c4 B8F1770F 		cmp	r8, #119
 4978 00c8 AED9     		bls	.L306
 4979 00ca 032F     		cmp	r7, #3
 4980 00cc ACD1     		bne	.L306
 243:../../libdaisy/src/hid/midi.h ****                         running_status_        = ChannelMode;
 4981              		.loc 16 243 48 view .LVU1228
 4982 00ce 0923     		movs	r3, #9
 247:../../libdaisy/src/hid/midi.h ****                     }
 4983              		.loc 16 247 59 view .LVU1229
ARM GAS  C:\Users\VINCIU~1\AppData\Local\Temp\cc6Tz7la.s 			page 147


 4984 00d0 A8F17801 		sub	r1, r8, #120
 243:../../libdaisy/src/hid/midi.h ****                         running_status_        = ChannelMode;
 4985              		.loc 16 243 48 view .LVU1230
 4986 00d4 2B72     		strb	r3, [r5, #8]
 244:../../libdaisy/src/hid/midi.h ****                         incoming_message_.cm_type
 4987              		.loc 16 244 48 view .LVU1231
 4988 00d6 84F88834 		strb	r3, [r4, #1160]
 246:../../libdaisy/src/hid/midi.h ****                                 incoming_message_.data[0] - 120);
 4989              		.loc 16 246 29 view .LVU1232
 4990 00da 85F87910 		strb	r1, [r5, #121]
 4991 00de A3E7     		b	.L306
 4992              	.LVL425:
 4993              	.L312:
 160:../../libdaisy/src/hid/midi.h ****                 {
 4994              		.loc 16 160 27 view .LVU1233
 4995 00e0 00F5E044 		add	r4, r0, #28672
 160:../../libdaisy/src/hid/midi.h ****                 {
 4996              		.loc 16 160 25 view .LVU1234
 4997 00e4 94F89834 		ldrb	r3, [r4, #1176]	@ zero_extendqisi2
 160:../../libdaisy/src/hid/midi.h ****                 {
 4998              		.loc 16 160 17 view .LVU1235
 4999 00e8 1942     		tst	r1, r3
 5000 00ea 21D0     		beq	.L313
 163:../../libdaisy/src/hid/midi.h ****                     incoming_message_.type    = static_cast<MidiMessageType>(
 5001              		.loc 16 163 54 view .LVU1236
 5002 00ec 94F89C34 		ldrb	r3, [r4, #1180]	@ zero_extendqisi2
 5003 00f0 0B40     		ands	r3, r3, r1
 5004 00f2 C360     		str	r3, [r0, #12]
 165:../../libdaisy/src/hid/midi.h **** 
 5005              		.loc 16 165 31 view .LVU1237
 5006 00f4 94F89934 		ldrb	r3, [r4, #1177]	@ zero_extendqisi2
 165:../../libdaisy/src/hid/midi.h **** 
 5007              		.loc 16 165 47 view .LVU1238
 5008 00f8 0B40     		ands	r3, r3, r1
 5009 00fa 1B09     		lsrs	r3, r3, #4
 168:../../libdaisy/src/hid/midi.h ****                     {
 5010              		.loc 16 168 21 view .LVU1239
 5011 00fc 092B     		cmp	r3, #9
 164:../../libdaisy/src/hid/midi.h ****                         (byte & kMessageMask) >> 4);
 5012              		.loc 16 164 47 view .LVU1240
 5013 00fe 0372     		strb	r3, [r0, #8]
 168:../../libdaisy/src/hid/midi.h ****                     {
 5014              		.loc 16 168 21 view .LVU1241
 5015 0100 92D8     		bhi	.L306
 170:../../libdaisy/src/hid/midi.h ****                         // Mark this status byte as running_status
 5016              		.loc 16 170 33 view .LVU1242
 5017 0102 0122     		movs	r2, #1
 174:../../libdaisy/src/hid/midi.h ****                         {
 5018              		.loc 16 174 25 view .LVU1243
 5019 0104 072B     		cmp	r3, #7
 170:../../libdaisy/src/hid/midi.h ****                         // Mark this status byte as running_status
 5020              		.loc 16 170 33 view .LVU1244
 5021 0106 0271     		strb	r2, [r0, #4]
 172:../../libdaisy/src/hid/midi.h **** 
 5022              		.loc 16 172 41 view .LVU1245
 5023 0108 84F88834 		strb	r3, [r4, #1160]
 174:../../libdaisy/src/hid/midi.h ****                         {
ARM GAS  C:\Users\VINCIU~1\AppData\Local\Temp\cc6Tz7la.s 			page 148


 5024              		.loc 16 174 25 view .LVU1246
 5025 010c 8CD1     		bne	.L306
 176:../../libdaisy/src/hid/midi.h ****                             //system real time = 1111 1xxx
 5026              		.loc 16 176 55 view .LVU1247
 5027 010e 0023     		movs	r3, #0
 5028 0110 C360     		str	r3, [r0, #12]
 178:../../libdaisy/src/hid/midi.h ****                             {
 5029              		.loc 16 178 29 view .LVU1248
 5030 0112 11F00800 		ands	r0, r1, #8
 5031              	.LVL426:
 178:../../libdaisy/src/hid/midi.h ****                             {
 5032              		.loc 16 178 29 view .LVU1249
 5033 0116 40F09480 		bne	.L354
 195:../../libdaisy/src/hid/midi.h ****                                 //sysex
 5034              		.loc 16 195 69 view .LVU1250
 5035 011a 01F00703 		and	r3, r1, #7
 194:../../libdaisy/src/hid/midi.h ****                                                                     & 0x07);
 5036              		.loc 16 194 37 view .LVU1251
 5037 011e 85F87730 		strb	r3, [r5, #119]
 197:../../libdaisy/src/hid/midi.h ****                                 {
 5038              		.loc 16 197 33 view .LVU1252
 5039 0122 002B     		cmp	r3, #0
 5040 0124 65D1     		bne	.L318
 199:../../libdaisy/src/hid/midi.h ****                                     incoming_message_.sysex_message_len = 0;
 5041              		.loc 16 199 45 view .LVU1253
 5042 0126 0322     		movs	r2, #3
 200:../../libdaisy/src/hid/midi.h ****                                 }
 5043              		.loc 16 200 73 view .LVU1254
 5044 0128 85F87630 		strb	r3, [r5, #118]
 199:../../libdaisy/src/hid/midi.h ****                                     incoming_message_.sysex_message_len = 0;
 5045              		.loc 16 199 45 view .LVU1255
 5046 012c 2A71     		strb	r2, [r5, #4]
 5047 012e 7BE7     		b	.L306
 5048              	.LVL427:
 5049              	.L313:
 216:../../libdaisy/src/hid/midi.h ****                     incoming_message_.data[0] = byte & kDataByteMask;
 5050              		.loc 16 216 47 view .LVU1256
 5051 0130 94F88834 		ldrb	r3, [r4, #1160]	@ zero_extendqisi2
 218:../../libdaisy/src/hid/midi.h ****                 }
 5052              		.loc 16 218 47 view .LVU1257
 5053 0134 0222     		movs	r2, #2
 216:../../libdaisy/src/hid/midi.h ****                     incoming_message_.data[0] = byte & kDataByteMask;
 5054              		.loc 16 216 47 view .LVU1258
 5055 0136 0372     		strb	r3, [r0, #8]
 217:../../libdaisy/src/hid/midi.h ****                     pstate_                   = ParserHasData0;
 5056              		.loc 16 217 54 view .LVU1259
 5057 0138 94F89A34 		ldrb	r3, [r4, #1178]	@ zero_extendqisi2
 218:../../libdaisy/src/hid/midi.h ****                 }
 5058              		.loc 16 218 47 view .LVU1260
 5059 013c 0271     		strb	r2, [r0, #4]
 217:../../libdaisy/src/hid/midi.h ****                     pstate_                   = ParserHasData0;
 5060              		.loc 16 217 54 view .LVU1261
 5061 013e 1940     		ands	r1, r1, r3
 5062              	.LVL428:
 217:../../libdaisy/src/hid/midi.h ****                     pstate_                   = ParserHasData0;
 5063              		.loc 16 217 47 view .LVU1262
 5064 0140 0174     		strb	r1, [r0, #16]
ARM GAS  C:\Users\VINCIU~1\AppData\Local\Temp\cc6Tz7la.s 			page 149


 5065              		.loc 16 285 5 view .LVU1263
 5066 0142 3AB0     		add	sp, sp, #232
 5067              		.cfi_remember_state
 5068              		.cfi_def_cfa_offset 24
 5069              		@ sp needed
 5070 0144 BDE8F081 		pop	{r4, r5, r6, r7, r8, pc}
 5071              	.LVL429:
 5072              	.L353:
 5073              		.cfi_restore_state
 259:../../libdaisy/src/hid/midi.h ****                     // At this point the message is valid, and we can add this MidiEvent to the que
 5074              		.loc 16 259 54 view .LVU1264
 5075 0148 94F89A34 		ldrb	r3, [r4, #1178]	@ zero_extendqisi2
 5076 014c 6E46     		mov	r6, sp
 5077 014e 7422     		movs	r2, #116
 5078 0150 1940     		ands	r1, r1, r3
 5079              	.LVL430:
 259:../../libdaisy/src/hid/midi.h ****                     // At this point the message is valid, and we can add this MidiEvent to the que
 5080              		.loc 16 259 47 view .LVU1265
 5081 0152 4174     		strb	r1, [r0, #17]
 5082              	.LVL431:
 259:../../libdaisy/src/hid/midi.h ****                     // At this point the message is valid, and we can add this MidiEvent to the que
 5083              		.loc 16 259 47 view .LVU1266
 5084 0154 00F10801 		add	r1, r0, #8
 5085 0158 3046     		mov	r0, r6
 5086              	.LVL432:
 259:../../libdaisy/src/hid/midi.h ****                     // At this point the message is valid, and we can add this MidiEvent to the que
 5087              		.loc 16 259 47 view .LVU1267
 5088 015a FFF7FEFF 		bl	memcpy
 5089              	.LVL433:
 5090              	.LBB993:
 5091              	.LBI993:
  44:../../libdaisy/src/util/ringbuffer.h ****     {
 5092              		.loc 20 44 17 is_stmt 1 view .LVU1268
 5093              	.L325:
 5094              	.LBB994:
  46:../../libdaisy/src/util/ringbuffer.h ****             ;
 5095              		.loc 20 46 24 view .LVU1269
 5096              	.LBB995:
 5097              	.LBI995:
  30:../../libdaisy/src/util/ringbuffer.h ****     {
 5098              		.loc 20 30 19 view .LVU1270
 5099              	.LBB996:
  32:../../libdaisy/src/util/ringbuffer.h ****     }
 5100              		.loc 20 32 17 is_stmt 0 view .LVU1271
 5101 015e D4F87C34 		ldr	r3, [r4, #1148]
  32:../../libdaisy/src/util/ringbuffer.h ****     }
 5102              		.loc 20 32 29 view .LVU1272
 5103 0162 D4F88024 		ldr	r2, [r4, #1152]
 5104              	.LVL434:
  32:../../libdaisy/src/util/ringbuffer.h ****     }
 5105              		.loc 20 32 40 view .LVU1273
 5106 0166 013B     		subs	r3, r3, #1
 5107 0168 9B1A     		subs	r3, r3, r2
  32:../../libdaisy/src/util/ringbuffer.h ****     }
 5108              		.loc 20 32 47 view .LVU1274
 5109 016a DBB2     		uxtb	r3, r3
 5110              	.LBE996:
ARM GAS  C:\Users\VINCIU~1\AppData\Local\Temp\cc6Tz7la.s 			page 150


 5111              	.LBE995:
  46:../../libdaisy/src/util/ringbuffer.h ****             ;
 5112              		.loc 20 46 24 view .LVU1275
 5113 016c 002B     		cmp	r3, #0
 5114 016e F6D0     		beq	.L325
 5115              	.LVL435:
  46:../../libdaisy/src/util/ringbuffer.h ****             ;
 5116              		.loc 20 46 24 view .LVU1276
 5117 0170 7422     		movs	r2, #116
 5118 0172 3146     		mov	r1, r6
 5119 0174 0DEB0200 		add	r0, sp, r2
 5120 0178 FFF7FEFF 		bl	memcpy
 5121              	.LVL436:
 5122              	.LBB997:
 5123              	.LBI997:
  54:../../libdaisy/src/util/ringbuffer.h ****     {
 5124              		.loc 20 54 17 is_stmt 1 view .LVU1277
 5125              	.LBB998:
  56:../../libdaisy/src/util/ringbuffer.h ****         buffer_[w] = v;
 5126              		.loc 20 56 16 is_stmt 0 view .LVU1278
 5127 017c D4F88064 		ldr	r6, [r4, #1152]
 5128              	.LVL437:
  57:../../libdaisy/src/util/ringbuffer.h ****         write_ptr_ = (w + 1) % size;
 5129              		.loc 20 57 9 view .LVU1279
 5130 0180 7422     		movs	r2, #116
 5131 0182 1DA9     		add	r1, sp, #116
 5132 0184 02FB0650 		mla	r0, r2, r6, r5
 5133              		.loc 20 58 25 view .LVU1280
 5134 0188 0136     		adds	r6, r6, #1
 5135              	.LVL438:
 5136              		.loc 20 58 30 view .LVU1281
 5137 018a F6B2     		uxtb	r6, r6
 5138              	.LVL439:
  57:../../libdaisy/src/util/ringbuffer.h ****         write_ptr_ = (w + 1) % size;
 5139              		.loc 20 57 9 view .LVU1282
 5140 018c 7C30     		adds	r0, r0, #124
 5141 018e FFF7FEFF 		bl	memcpy
 5142              	.LVL440:
 5143              		.loc 20 58 20 view .LVU1283
 5144 0192 C4F88064 		str	r6, [r4, #1152]
 5145              	.LVL441:
 5146              		.loc 20 58 20 view .LVU1284
 5147              	.LBE998:
 5148              	.LBE997:
 5149              	.LBE994:
 5150              	.LBE993:
 5151 0196 45E7     		b	.L320
 5152              	.LVL442:
 5153              	.L326:
 272:../../libdaisy/src/hid/midi.h ****                     event_q_.Write(incoming_message_);
 5154              		.loc 16 272 29 view .LVU1285
 5155 0198 0023     		movs	r3, #0
 5156 019a 6E46     		mov	r6, sp
 5157 019c 7422     		movs	r2, #116
 5158 019e 05F10801 		add	r1, r5, #8
 5159              	.LVL443:
 272:../../libdaisy/src/hid/midi.h ****                     event_q_.Write(incoming_message_);
ARM GAS  C:\Users\VINCIU~1\AppData\Local\Temp\cc6Tz7la.s 			page 151


 5160              		.loc 16 272 29 view .LVU1286
 5161 01a2 3046     		mov	r0, r6
 5162              	.LVL444:
 272:../../libdaisy/src/hid/midi.h ****                     event_q_.Write(incoming_message_);
 5163              		.loc 16 272 29 view .LVU1287
 5164 01a4 2B71     		strb	r3, [r5, #4]
 5165              	.LVL445:
 272:../../libdaisy/src/hid/midi.h ****                     event_q_.Write(incoming_message_);
 5166              		.loc 16 272 29 view .LVU1288
 5167 01a6 05F5E044 		add	r4, r5, #28672
 5168 01aa FFF7FEFF 		bl	memcpy
 5169              	.LVL446:
 5170              	.LBB999:
 5171              	.LBI999:
  44:../../libdaisy/src/util/ringbuffer.h ****     {
 5172              		.loc 20 44 17 is_stmt 1 view .LVU1289
 5173              	.L328:
 5174              	.LBB1000:
  46:../../libdaisy/src/util/ringbuffer.h ****             ;
 5175              		.loc 20 46 24 view .LVU1290
 5176              	.LBB1001:
 5177              	.LBI1001:
  30:../../libdaisy/src/util/ringbuffer.h ****     {
 5178              		.loc 20 30 19 view .LVU1291
 5179              	.LBB1002:
  32:../../libdaisy/src/util/ringbuffer.h ****     }
 5180              		.loc 20 32 17 is_stmt 0 view .LVU1292
 5181 01ae D4F87C34 		ldr	r3, [r4, #1148]
  32:../../libdaisy/src/util/ringbuffer.h ****     }
 5182              		.loc 20 32 29 view .LVU1293
 5183 01b2 D4F88024 		ldr	r2, [r4, #1152]
 5184              	.LVL447:
  32:../../libdaisy/src/util/ringbuffer.h ****     }
 5185              		.loc 20 32 40 view .LVU1294
 5186 01b6 013B     		subs	r3, r3, #1
 5187 01b8 9B1A     		subs	r3, r3, r2
  32:../../libdaisy/src/util/ringbuffer.h ****     }
 5188              		.loc 20 32 47 view .LVU1295
 5189 01ba DBB2     		uxtb	r3, r3
 5190              	.LBE1002:
 5191              	.LBE1001:
  46:../../libdaisy/src/util/ringbuffer.h ****             ;
 5192              		.loc 20 46 24 view .LVU1296
 5193 01bc 002B     		cmp	r3, #0
 5194 01be F6D0     		beq	.L328
 5195              	.LVL448:
  46:../../libdaisy/src/util/ringbuffer.h ****             ;
 5196              		.loc 20 46 24 view .LVU1297
 5197 01c0 7422     		movs	r2, #116
 5198 01c2 3146     		mov	r1, r6
 5199 01c4 0DEB0200 		add	r0, sp, r2
 5200 01c8 FFF7FEFF 		bl	memcpy
 5201              	.LVL449:
 5202              	.LBB1003:
 5203              	.LBI1003:
  54:../../libdaisy/src/util/ringbuffer.h ****     {
 5204              		.loc 20 54 17 is_stmt 1 view .LVU1298
ARM GAS  C:\Users\VINCIU~1\AppData\Local\Temp\cc6Tz7la.s 			page 152


 5205              	.LBB1004:
  56:../../libdaisy/src/util/ringbuffer.h ****         buffer_[w] = v;
 5206              		.loc 20 56 16 is_stmt 0 view .LVU1299
 5207 01cc D4F88064 		ldr	r6, [r4, #1152]
 5208              	.LVL450:
  57:../../libdaisy/src/util/ringbuffer.h ****         write_ptr_ = (w + 1) % size;
 5209              		.loc 20 57 9 view .LVU1300
 5210 01d0 7422     		movs	r2, #116
 5211 01d2 1DA9     		add	r1, sp, #116
 5212 01d4 02FB0650 		mla	r0, r2, r6, r5
 5213              		.loc 20 58 25 view .LVU1301
 5214 01d8 0136     		adds	r6, r6, #1
 5215              	.LVL451:
 5216              		.loc 20 58 30 view .LVU1302
 5217 01da F6B2     		uxtb	r6, r6
 5218              	.LVL452:
  57:../../libdaisy/src/util/ringbuffer.h ****         write_ptr_ = (w + 1) % size;
 5219              		.loc 20 57 9 view .LVU1303
 5220 01dc 7C30     		adds	r0, r0, #124
 5221 01de FFF7FEFF 		bl	memcpy
 5222              	.LVL453:
 5223              		.loc 20 58 20 view .LVU1304
 5224 01e2 C4F88064 		str	r6, [r4, #1152]
 5225              	.LVL454:
 5226              		.loc 20 58 20 view .LVU1305
 5227              	.LBE1004:
 5228              	.LBE1003:
 5229              	.LBE1000:
 5230              	.LBE999:
 5231              		.loc 16 285 5 view .LVU1306
 5232 01e6 3AB0     		add	sp, sp, #232
 5233              		.cfi_remember_state
 5234              		.cfi_def_cfa_offset 24
 5235              		@ sp needed
 5236 01e8 BDE8F081 		pop	{r4, r5, r6, r7, r8, pc}
 5237              	.LVL455:
 5238              	.L322:
 5239              		.cfi_restore_state
 236:../../libdaisy/src/hid/midi.h ****                     }
 5240              		.loc 16 236 33 view .LVU1307
 5241 01ec 0223     		movs	r3, #2
 5242 01ee 0371     		strb	r3, [r0, #4]
 5243 01f0 68E7     		b	.L324
 5244              	.LVL456:
 5245              	.L318:
 203:../../libdaisy/src/hid/midi.h ****                                 {
 5246              		.loc 16 203 38 view .LVU1308
 5247 01f2 4B07     		lsls	r3, r1, #29
 5248 01f4 7FF518AF 		bpl	.L306
 5249 01f8 6E46     		mov	r6, sp
 205:../../libdaisy/src/hid/midi.h ****                                     event_q_.Write(incoming_message_);
 5250              		.loc 16 205 45 view .LVU1309
 5251 01fa 2871     		strb	r0, [r5, #4]
 5252              	.LVL457:
 205:../../libdaisy/src/hid/midi.h ****                                     event_q_.Write(incoming_message_);
 5253              		.loc 16 205 45 view .LVU1310
 5254 01fc 7422     		movs	r2, #116
ARM GAS  C:\Users\VINCIU~1\AppData\Local\Temp\cc6Tz7la.s 			page 153


 5255 01fe 05F10801 		add	r1, r5, #8
 5256              	.LVL458:
 205:../../libdaisy/src/hid/midi.h ****                                     event_q_.Write(incoming_message_);
 5257              		.loc 16 205 45 view .LVU1311
 5258 0202 3046     		mov	r0, r6
 5259 0204 FFF7FEFF 		bl	memcpy
 5260              	.LVL459:
 5261              	.LBB1005:
 5262              	.LBI1005:
  44:../../libdaisy/src/util/ringbuffer.h ****     {
 5263              		.loc 20 44 17 is_stmt 1 view .LVU1312
 5264              	.L319:
 5265              	.LBB1006:
  46:../../libdaisy/src/util/ringbuffer.h ****             ;
 5266              		.loc 20 46 24 view .LVU1313
 5267              	.LBB1007:
 5268              	.LBI1007:
  30:../../libdaisy/src/util/ringbuffer.h ****     {
 5269              		.loc 20 30 19 view .LVU1314
 5270              	.LBB1008:
  32:../../libdaisy/src/util/ringbuffer.h ****     }
 5271              		.loc 20 32 17 is_stmt 0 view .LVU1315
 5272 0208 D4F87C34 		ldr	r3, [r4, #1148]
  32:../../libdaisy/src/util/ringbuffer.h ****     }
 5273              		.loc 20 32 29 view .LVU1316
 5274 020c D4F88024 		ldr	r2, [r4, #1152]
 5275              	.LVL460:
  32:../../libdaisy/src/util/ringbuffer.h ****     }
 5276              		.loc 20 32 40 view .LVU1317
 5277 0210 013B     		subs	r3, r3, #1
 5278 0212 9B1A     		subs	r3, r3, r2
  32:../../libdaisy/src/util/ringbuffer.h ****     }
 5279              		.loc 20 32 47 view .LVU1318
 5280 0214 DBB2     		uxtb	r3, r3
 5281              	.LBE1008:
 5282              	.LBE1007:
  46:../../libdaisy/src/util/ringbuffer.h ****             ;
 5283              		.loc 20 46 24 view .LVU1319
 5284 0216 002B     		cmp	r3, #0
 5285 0218 F6D0     		beq	.L319
 5286              	.LVL461:
 5287              	.L352:
  46:../../libdaisy/src/util/ringbuffer.h ****             ;
 5288              		.loc 20 46 24 view .LVU1320
 5289 021a 7422     		movs	r2, #116
 5290 021c 3146     		mov	r1, r6
 5291 021e 0DEB0200 		add	r0, sp, r2
 5292 0222 FFF7FEFF 		bl	memcpy
 5293              	.LVL462:
 5294              	.LBB1009:
 5295              	.LBI1009:
  54:../../libdaisy/src/util/ringbuffer.h ****     {
 5296              		.loc 20 54 17 is_stmt 1 view .LVU1321
 5297              	.LBB1010:
  56:../../libdaisy/src/util/ringbuffer.h ****         buffer_[w] = v;
 5298              		.loc 20 56 16 is_stmt 0 view .LVU1322
 5299 0226 D4F88064 		ldr	r6, [r4, #1152]
ARM GAS  C:\Users\VINCIU~1\AppData\Local\Temp\cc6Tz7la.s 			page 154


 5300              	.LVL463:
  57:../../libdaisy/src/util/ringbuffer.h ****         write_ptr_ = (w + 1) % size;
 5301              		.loc 20 57 9 view .LVU1323
 5302 022a 7422     		movs	r2, #116
 5303 022c 1DA9     		add	r1, sp, #116
 5304 022e 02FB0650 		mla	r0, r2, r6, r5
 5305 0232 7C30     		adds	r0, r0, #124
 5306 0234 FFF7FEFF 		bl	memcpy
 5307              	.LVL464:
 5308              		.loc 20 58 25 view .LVU1324
 5309 0238 731C     		adds	r3, r6, #1
 5310              		.loc 20 58 30 view .LVU1325
 5311 023a DBB2     		uxtb	r3, r3
 5312              		.loc 20 58 20 view .LVU1326
 5313 023c C4F88034 		str	r3, [r4, #1152]
 5314              	.LVL465:
 5315              		.loc 20 58 20 view .LVU1327
 5316              	.LBE1010:
 5317              	.LBE1009:
 5318              	.LBE1006:
 5319              	.LBE1005:
 5320 0240 F2E6     		b	.L306
 5321              	.LVL466:
 5322              	.L354:
 180:../../libdaisy/src/hid/midi.h ****                                 running_status_        = SystemRealTime;
 5323              		.loc 16 180 56 view .LVU1328
 5324 0242 0822     		movs	r2, #8
 5325 0244 6E46     		mov	r6, sp
 5326 0246 2A72     		strb	r2, [r5, #8]
 5327 0248 3046     		mov	r0, r6
 181:../../libdaisy/src/hid/midi.h ****                                 incoming_message_.srt_type
 5328              		.loc 16 181 56 view .LVU1329
 5329 024a 84F88824 		strb	r2, [r4, #1160]
 184:../../libdaisy/src/hid/midi.h **** 
 5330              		.loc 16 184 46 view .LVU1330
 5331 024e 94F89E24 		ldrb	r2, [r4, #1182]	@ zero_extendqisi2
 187:../../libdaisy/src/hid/midi.h ****                                 event_q_.Write(incoming_message_);
 5332              		.loc 16 187 41 view .LVU1331
 5333 0252 2B71     		strb	r3, [r5, #4]
 5334              	.LVL467:
 184:../../libdaisy/src/hid/midi.h **** 
 5335              		.loc 16 184 46 view .LVU1332
 5336 0254 1140     		ands	r1, r1, r2
 5337              	.LVL468:
 184:../../libdaisy/src/hid/midi.h **** 
 5338              		.loc 16 184 46 view .LVU1333
 5339 0256 7422     		movs	r2, #116
 183:../../libdaisy/src/hid/midi.h ****                                         byte & kSystemRealTimeMask);
 5340              		.loc 16 183 37 view .LVU1334
 5341 0258 85F87810 		strb	r1, [r5, #120]
 5342 025c 05F10801 		add	r1, r5, #8
 5343 0260 FFF7FEFF 		bl	memcpy
 5344              	.LVL469:
 5345              	.LBB1011:
 5346              	.LBI1011:
  44:../../libdaisy/src/util/ringbuffer.h ****     {
 5347              		.loc 20 44 17 is_stmt 1 view .LVU1335
ARM GAS  C:\Users\VINCIU~1\AppData\Local\Temp\cc6Tz7la.s 			page 155


 5348              	.L317:
 5349              	.LBB1012:
  46:../../libdaisy/src/util/ringbuffer.h ****             ;
 5350              		.loc 20 46 24 view .LVU1336
 5351              	.LBB1013:
 5352              	.LBI1013:
  30:../../libdaisy/src/util/ringbuffer.h ****     {
 5353              		.loc 20 30 19 view .LVU1337
 5354              	.LBB1014:
  32:../../libdaisy/src/util/ringbuffer.h ****     }
 5355              		.loc 20 32 17 is_stmt 0 view .LVU1338
 5356 0264 D4F87C34 		ldr	r3, [r4, #1148]
  32:../../libdaisy/src/util/ringbuffer.h ****     }
 5357              		.loc 20 32 29 view .LVU1339
 5358 0268 D4F88024 		ldr	r2, [r4, #1152]
 5359              	.LVL470:
  32:../../libdaisy/src/util/ringbuffer.h ****     }
 5360              		.loc 20 32 40 view .LVU1340
 5361 026c 013B     		subs	r3, r3, #1
 5362 026e 9B1A     		subs	r3, r3, r2
  32:../../libdaisy/src/util/ringbuffer.h ****     }
 5363              		.loc 20 32 47 view .LVU1341
 5364 0270 DBB2     		uxtb	r3, r3
 5365              	.LBE1014:
 5366              	.LBE1013:
  46:../../libdaisy/src/util/ringbuffer.h ****             ;
 5367              		.loc 20 46 24 view .LVU1342
 5368 0272 002B     		cmp	r3, #0
 5369 0274 F6D0     		beq	.L317
 5370 0276 D0E7     		b	.L352
 5371              	.LBE1012:
 5372              	.LBE1011:
 5373              		.cfi_endproc
 5374              	.LFE4483:
 5376              		.section	.rodata.main.str1.4,"aMS",%progbits,1
 5377              		.align	2
 5378              	.LC7:
 5379 0000 53656D69 		.ascii	"Semi_%dst\000"
 5379      5F256473 
 5379      7400
 5380 000a 0000     		.align	2
 5381              	.LC8:
 5382 000c 46696E65 		.ascii	"Fine_%d%%\000"
 5382      5F256425 
 5382      2500
 5383              		.section	.text.startup.main,"ax",%progbits
 5384              		.align	1
 5385              		.p2align 2,,3
 5386              		.global	main
 5387              		.syntax unified
 5388              		.thumb
 5389              		.thumb_func
 5390              		.fpu fpv5-d16
 5392              	main:
 5393              	.LFB4039:
  95:SynthMenis.cpp **** 
  96:SynthMenis.cpp **** int main(void)
ARM GAS  C:\Users\VINCIU~1\AppData\Local\Temp\cc6Tz7la.s 			page 156


  97:SynthMenis.cpp **** {
 5394              		.loc 14 97 1 is_stmt 1 view -0
 5395              		.cfi_startproc
 5396              		@ args = 0, pretend = 0, frame = 1200
 5397              		@ frame_needed = 0, uses_anonymous_args = 0
  98:SynthMenis.cpp ****     hw.Configure();
 5398              		.loc 14 98 5 view .LVU1344
  97:SynthMenis.cpp ****     hw.Configure();
 5399              		.loc 14 97 1 is_stmt 0 view .LVU1345
 5400 0000 2DE9F04F 		push	{r4, r5, r6, r7, r8, r9, r10, fp, lr}
 5401              		.cfi_def_cfa_offset 36
 5402              		.cfi_offset 4, -36
 5403              		.cfi_offset 5, -32
 5404              		.cfi_offset 6, -28
 5405              		.cfi_offset 7, -24
 5406              		.cfi_offset 8, -20
 5407              		.cfi_offset 9, -16
 5408              		.cfi_offset 10, -12
 5409              		.cfi_offset 11, -8
 5410              		.cfi_offset 14, -4
 5411              		.loc 14 98 17 view .LVU1346
 5412 0004 9C48     		ldr	r0, .L385
  99:SynthMenis.cpp ****     hw.Init();
 100:SynthMenis.cpp ****     sprintf(synthmenu.buff, "Semi_%dst", synthmenu.noteSemiAdd);
 5413              		.loc 14 100 12 view .LVU1347
 5414 0006 9D4E     		ldr	r6, .L385+4
 5415 0008 9D4F     		ldr	r7, .L385+8
  97:SynthMenis.cpp ****     hw.Configure();
 5416              		.loc 14 97 1 view .LVU1348
 5417 000a 2DED048B 		vpush.64	{d8, d9}
 5418              		.cfi_def_cfa_offset 52
 5419              		.cfi_offset 80, -52
 5420              		.cfi_offset 81, -48
 5421              		.cfi_offset 82, -44
 5422              		.cfi_offset 83, -40
 5423 000e ADF21C5D 		subw	sp, sp, #1308
 5424              		.cfi_def_cfa_offset 1360
 101:SynthMenis.cpp ****     sprintf(synthmenu.buff2, "Semi_%dst", synthmenu.noteSemiAdd2);
 102:SynthMenis.cpp ****     sprintf(synthmenu.buffFine, "Fine_%d%%", (int)(synthmenu.freqFine * 100));
 5425              		.loc 14 102 71 view .LVU1349
 5426 0012 9FED9C8A 		vldr.32	s16, .L385+12
  98:SynthMenis.cpp ****     hw.Init();
 5427              		.loc 14 98 17 view .LVU1350
 5428 0016 FFF7FEFF 		bl	_ZN5daisy9DaisySeed9ConfigureEv
 5429              	.LVL471:
  99:SynthMenis.cpp ****     hw.Init();
 5430              		.loc 14 99 5 is_stmt 1 view .LVU1351
  99:SynthMenis.cpp ****     hw.Init();
 5431              		.loc 14 99 12 is_stmt 0 view .LVU1352
 5432 001a 0021     		movs	r1, #0
 5433 001c 9648     		ldr	r0, .L385
 5434 001e 3C46     		mov	r4, r7
 5435 0020 FFF7FEFF 		bl	_ZN5daisy9DaisySeed4InitEb
 5436              	.LVL472:
 100:SynthMenis.cpp ****     sprintf(synthmenu.buff2, "Semi_%dst", synthmenu.noteSemiAdd2);
 5437              		.loc 14 100 5 is_stmt 1 view .LVU1353
 100:SynthMenis.cpp ****     sprintf(synthmenu.buff2, "Semi_%dst", synthmenu.noteSemiAdd2);
ARM GAS  C:\Users\VINCIU~1\AppData\Local\Temp\cc6Tz7la.s 			page 157


 5438              		.loc 14 100 12 is_stmt 0 view .LVU1354
 5439 0024 D6F86421 		ldr	r2, [r6, #356]
 5440 0028 9749     		ldr	r1, .L385+16
 5441 002a 06F1A400 		add	r0, r6, #164
 5442 002e FFF7FEFF 		bl	sprintf
 5443              	.LVL473:
 101:SynthMenis.cpp ****     sprintf(synthmenu.buff2, "Semi_%dst", synthmenu.noteSemiAdd2);
 5444              		.loc 14 101 5 is_stmt 1 view .LVU1355
 101:SynthMenis.cpp ****     sprintf(synthmenu.buff2, "Semi_%dst", synthmenu.noteSemiAdd2);
 5445              		.loc 14 101 12 is_stmt 0 view .LVU1356
 5446 0032 D6F86821 		ldr	r2, [r6, #360]
 5447 0036 9449     		ldr	r1, .L385+16
 5448 0038 06F1BC00 		add	r0, r6, #188
 5449 003c FFF7FEFF 		bl	sprintf
 5450              	.LVL474:
 5451              		.loc 14 102 5 is_stmt 1 view .LVU1357
 5452              		.loc 14 102 71 is_stmt 0 view .LVU1358
 5453 0040 D6ED5D7A 		vldr.32	s15, [r6, #372]
 5454              		.loc 14 102 12 view .LVU1359
 5455 0044 9149     		ldr	r1, .L385+20
 5456 0046 06F1D400 		add	r0, r6, #212
 5457              		.loc 14 102 71 view .LVU1360
 5458 004a 67EE887A 		vmul.f32	s15, s15, s16
 5459 004e 07F1500A 		add	r10, r7, #80
 5460              		.loc 14 102 12 view .LVU1361
 5461 0052 FDEEE77A 		vcvt.s32.f32	s15, s15
 5462 0056 17EE902A 		vmov	r2, s15	@ int
 5463 005a FFF7FEFF 		bl	sprintf
 5464              	.LVL475:
 103:SynthMenis.cpp ****     sprintf(synthmenu.buffFine2, "Fine_%d%%", (int)(synthmenu.freqFine2 * 100));
 5465              		.loc 14 103 5 is_stmt 1 view .LVU1362
 5466              		.loc 14 103 73 is_stmt 0 view .LVU1363
 5467 005e D6ED5E7A 		vldr.32	s15, [r6, #376]
 5468              		.loc 14 103 12 view .LVU1364
 5469 0062 8A49     		ldr	r1, .L385+20
 5470 0064 06F1EC00 		add	r0, r6, #236
 5471              		.loc 14 103 73 view .LVU1365
 5472 0068 67EE887A 		vmul.f32	s15, s15, s16
 5473              		.loc 14 103 12 view .LVU1366
 5474 006c FDEEE77A 		vcvt.s32.f32	s15, s15
 5475 0070 17EE902A 		vmov	r2, s15	@ int
 5476 0074 FFF7FEFF 		bl	sprintf
 5477              	.LVL476:
 104:SynthMenis.cpp ****     hw.usb_handle.Init(UsbHandle::FS_INTERNAL);
 5478              		.loc 14 104 5 is_stmt 1 view .LVU1367
 5479              		.loc 14 104 23 is_stmt 0 view .LVU1368
 5480 0078 0021     		movs	r1, #0
 5481 007a 8548     		ldr	r0, .L385+24
 5482 007c FFF7FEFF 		bl	_ZN5daisy9UsbHandle4InitENS0_9UsbPeriphE
 5483              	.LVL477:
 105:SynthMenis.cpp ****     System::Delay(250);
 5484              		.loc 14 105 5 is_stmt 1 view .LVU1369
 5485              		.loc 14 105 18 is_stmt 0 view .LVU1370
 5486 0080 FA20     		movs	r0, #250
 5487 0082 FFF7FEFF 		bl	_ZN5daisy6System5DelayEm
 5488              	.LVL478:
 106:SynthMenis.cpp ****     //AdcChannelConfig adc_config[2];
ARM GAS  C:\Users\VINCIU~1\AppData\Local\Temp\cc6Tz7la.s 			page 158


 107:SynthMenis.cpp ****     //adc_config[0].InitSingle(hw.GetPin(24));
 108:SynthMenis.cpp ****     //adc_config[1].InitSingle(hw.GetPin(25));
 109:SynthMenis.cpp ****     //hw.adc.Init(adc_config, 2);
 110:SynthMenis.cpp ****     //hw.adc.Start();
 111:SynthMenis.cpp ****     float                           samplerate = hw.AudioSampleRate();
 5489              		.loc 14 111 5 is_stmt 1 view .LVU1371
 5490              		.loc 14 111 68 is_stmt 0 view .LVU1372
 5491 0086 7C48     		ldr	r0, .L385
 5492 0088 FFF7FEFF 		bl	_ZN5daisy9DaisySeed15AudioSampleRateEv
 5493              	.LVL479:
 112:SynthMenis.cpp ****     OledDisplayExtravaganza::Config disp_cfg;
 113:SynthMenis.cpp ****     disp_cfg.driver_config.transport_config.pin_config.dc    = hw.GetPin(9);
 5494              		.loc 14 113 75 view .LVU1373
 5495 008c 0920     		movs	r0, #9
 111:SynthMenis.cpp ****     OledDisplayExtravaganza::Config disp_cfg;
 5496              		.loc 14 111 68 view .LVU1374
 5497 008e B0EE408A 		vmov.f32	s16, s0
 5498              	.LVL480:
 112:SynthMenis.cpp ****     OledDisplayExtravaganza::Config disp_cfg;
 5499              		.loc 14 112 5 is_stmt 1 view .LVU1375
 5500              		.loc 14 113 5 view .LVU1376
 5501              		.loc 14 113 75 is_stmt 0 view .LVU1377
 5502 0092 FFF7FEFF 		bl	_ZN5daisy9DaisySeed6GetPinEh
 5503              	.LVL481:
 5504              		.loc 14 113 75 view .LVU1378
 5505 0096 ADF88C00 		strh	r0, [sp, #140]	@ movhi
 114:SynthMenis.cpp ****     disp_cfg.driver_config.transport_config.pin_config.reset = hw.GetPin(30);
 5506              		.loc 14 114 5 is_stmt 1 view .LVU1379
 5507              		.loc 14 114 76 is_stmt 0 view .LVU1380
 5508 009a 1E20     		movs	r0, #30
 5509 009c FFF7FEFF 		bl	_ZN5daisy9DaisySeed6GetPinEh
 5510              	.LVL482:
 5511 00a0 ADF88E00 		strh	r0, [sp, #142]	@ movhi
 115:SynthMenis.cpp ****     screen.Init(disp_cfg);
 5512              		.loc 14 115 5 is_stmt 1 view .LVU1381
 5513              	.LVL483:
 5514              		.loc 14 115 5 is_stmt 0 view .LVU1382
 5515 00a4 2399     		ldr	r1, [sp, #140]
 5516              	.LBB1115:
 5517              	.LBB1116:
  24:../../libdaisy/src/hid/disp/oled_display.h **** 
 5518              		.loc 8 24 44 view .LVU1383
 5519 00a6 7B48     		ldr	r0, .L385+28
 5520 00a8 4191     		str	r1, [sp, #260]
 5521              	.LBE1116:
 5522              	.LBI1115:
  24:../../libdaisy/src/hid/disp/oled_display.h **** 
 5523              		.loc 8 24 10 is_stmt 1 view .LVU1384
 5524              	.LBB1117:
  24:../../libdaisy/src/hid/disp/oled_display.h **** 
 5525              		.loc 8 24 44 is_stmt 0 view .LVU1385
 5526 00aa FFF7FEFF 		bl	_ZN5daisy13SSD130xDriverILj128ELj64ENS_24SSD130x4WireSpiTransportEE4InitENS2_6ConfigE
 5527              	.LVL484:
  24:../../libdaisy/src/hid/disp/oled_display.h **** 
 5528              		.loc 8 24 44 view .LVU1386
 5529              	.LBE1117:
 5530              	.LBE1115:
ARM GAS  C:\Users\VINCIU~1\AppData\Local\Temp\cc6Tz7la.s 			page 159


 116:SynthMenis.cpp ****     synthmenu.buttonLeft.Init(hw.GetPin(27), (samplerate));
 5531              		.loc 14 116 5 is_stmt 1 view .LVU1387
 5532              		.loc 14 116 30 is_stmt 0 view .LVU1388
 5533 00ae 1B20     		movs	r0, #27
 5534 00b0 FFF7FEFF 		bl	_ZN5daisy9DaisySeed6GetPinEh
 5535              	.LVL485:
 5536 00b4 ADF86C00 		strh	r0, [sp, #108]	@ movhi
 5537 00b8 B0EE480A 		vmov.f32	s0, s16
 5538 00bc 1B99     		ldr	r1, [sp, #108]
 5539 00be 06F14C00 		add	r0, r6, #76
 5540 00c2 FFF7FEFF 		bl	_ZN5daisy6Switch4InitE12dsy_gpio_pinf
 5541              	.LVL486:
 117:SynthMenis.cpp ****     synthmenu.buttonRight.Init(hw.GetPin(26), (samplerate));
 5542              		.loc 14 117 5 is_stmt 1 view .LVU1389
 5543              		.loc 14 117 31 is_stmt 0 view .LVU1390
 5544 00c6 1A20     		movs	r0, #26
 5545 00c8 FFF7FEFF 		bl	_ZN5daisy9DaisySeed6GetPinEh
 5546              	.LVL487:
 5547 00cc ADF87000 		strh	r0, [sp, #112]	@ movhi
 5548 00d0 B0EE480A 		vmov.f32	s0, s16
 5549 00d4 1C99     		ldr	r1, [sp, #112]
 5550 00d6 06F15C00 		add	r0, r6, #92
 5551 00da FFF7FEFF 		bl	_ZN5daisy6Switch4InitE12dsy_gpio_pinf
 5552              	.LVL488:
 118:SynthMenis.cpp ****     synthmenu.encoderLeft.Init(
 5553              		.loc 14 118 5 is_stmt 1 view .LVU1391
 5554              		.loc 14 118 31 is_stmt 0 view .LVU1392
 5555 00de 1020     		movs	r0, #16
 5556 00e0 FFF7FEFF 		bl	_ZN5daisy9DaisySeed6GetPinEh
 5557              	.LVL489:
 5558 00e4 ADF87400 		strh	r0, [sp, #116]	@ movhi
 5559 00e8 1120     		movs	r0, #17
 5560 00ea FFF7FEFF 		bl	_ZN5daisy9DaisySeed6GetPinEh
 5561              	.LVL490:
 5562 00ee ADF87800 		strh	r0, [sp, #120]	@ movhi
 5563 00f2 0F20     		movs	r0, #15
 5564 00f4 FFF7FEFF 		bl	_ZN5daisy9DaisySeed6GetPinEh
 5565              	.LVL491:
 5566 00f8 ADF87C00 		strh	r0, [sp, #124]	@ movhi
 5567 00fc B0EE480A 		vmov.f32	s0, s16
 5568 0100 1F9B     		ldr	r3, [sp, #124]
 5569 0102 06F10C00 		add	r0, r6, #12
 5570 0106 DDE91D12 		ldrd	r1, r2, [sp, #116]
 5571 010a FFF7FEFF 		bl	_ZN5daisy7Encoder4InitE12dsy_gpio_pinS1_S1_f
 5572              	.LVL492:
 119:SynthMenis.cpp ****         hw.GetPin(16), hw.GetPin(17), hw.GetPin(15), samplerate);
 120:SynthMenis.cpp ****     synthmenu.encoderRight.Init(
 5573              		.loc 14 120 5 is_stmt 1 view .LVU1393
 5574              		.loc 14 120 32 is_stmt 0 view .LVU1394
 5575 010e 1320     		movs	r0, #19
 5576 0110 FFF7FEFF 		bl	_ZN5daisy9DaisySeed6GetPinEh
 5577              	.LVL493:
 5578 0114 ADF88000 		strh	r0, [sp, #128]	@ movhi
 5579 0118 1420     		movs	r0, #20
 5580 011a FFF7FEFF 		bl	_ZN5daisy9DaisySeed6GetPinEh
 5581              	.LVL494:
 5582 011e ADF88400 		strh	r0, [sp, #132]	@ movhi
ARM GAS  C:\Users\VINCIU~1\AppData\Local\Temp\cc6Tz7la.s 			page 160


 5583 0122 1220     		movs	r0, #18
 5584 0124 FFF7FEFF 		bl	_ZN5daisy9DaisySeed6GetPinEh
 5585              	.LVL495:
 5586 0128 ADF88800 		strh	r0, [sp, #136]	@ movhi
 5587 012c B0EE480A 		vmov.f32	s0, s16
 5588 0130 229B     		ldr	r3, [sp, #136]
 5589 0132 06F12C00 		add	r0, r6, #44
 5590 0136 DDE92012 		ldrd	r1, r2, [sp, #128]
 5591 013a FFF7FEFF 		bl	_ZN5daisy7Encoder4InitE12dsy_gpio_pinS1_S1_f
 5592              	.LVL496:
 121:SynthMenis.cpp ****         hw.GetPin(19), hw.GetPin(20), hw.GetPin(18), samplerate);
 122:SynthMenis.cpp ****     hw.StartAudio(AudioCallback);
 5593              		.loc 14 122 5 is_stmt 1 view .LVU1395
 5594              		.loc 14 122 18 is_stmt 0 view .LVU1396
 5595 013e 5649     		ldr	r1, .L385+32
 5596 0140 4D48     		ldr	r0, .L385
 5597 0142 FFF7FEFF 		bl	_ZN5daisy9DaisySeed10StartAudioEPFvPKfPfjE
 5598              	.LVL497:
 123:SynthMenis.cpp **** 
 124:SynthMenis.cpp ****     for(int i = 0; i < 2; i++)
 5599              		.loc 14 124 5 is_stmt 1 view .LVU1397
 5600              	.LBB1118:
 5601              		.loc 14 124 22 view .LVU1398
 5602              	.LBB1119:
 5603              	.LBB1120:
  45:../../DaisySP/Source/Synthesis/oscillator.h ****         freq_      = 100.0f;
 5604              		.loc 17 45 27 is_stmt 0 view .LVU1399
 5605 0146 F7EE007A 		vmov.f32	s15, #1.0e+0
 5606 014a C7EE888A 		vdiv.f32	s17, s15, s16
 5607              	.LVL498:
 5608              	.L356:
  45:../../DaisySP/Source/Synthesis/oscillator.h ****         freq_      = 100.0f;
 5609              		.loc 17 45 27 view .LVU1400
 5610              	.LBE1120:
 5611              	.LBE1119:
 125:SynthMenis.cpp ****     {
 126:SynthMenis.cpp ****         osc[i].Init(samplerate);
 5612              		.loc 14 126 9 is_stmt 1 discriminator 2 view .LVU1401
 5613              	.LBB1126:
 5614              	.LBI1119:
  42:../../DaisySP/Source/Synthesis/oscillator.h ****     {
 5615              		.loc 17 42 10 discriminator 2 view .LVU1402
 5616              	.LBB1121:
  44:../../DaisySP/Source/Synthesis/oscillator.h ****         sr_recip_  = 1.0f / sample_rate;
 5617              		.loc 17 44 9 discriminator 2 view .LVU1403
  48:../../DaisySP/Source/Synthesis/oscillator.h ****         phase_inc_ = CalcPhaseInc(freq_);
 5618              		.loc 17 48 20 is_stmt 0 discriminator 2 view .LVU1404
 5619 014e 0023     		movs	r3, #0
  47:../../DaisySP/Source/Synthesis/oscillator.h ****         phase_     = 0.0f;
 5620              		.loc 17 47 20 discriminator 2 view .LVU1405
 5621 0150 4FF07C59 		mov	r9, #1056964608
  46:../../DaisySP/Source/Synthesis/oscillator.h ****         amp_       = 0.5f;
 5622              		.loc 17 46 20 discriminator 2 view .LVU1406
 5623 0154 9FED4B0A 		vldr.32	s0, .L385+12
  49:../../DaisySP/Source/Synthesis/oscillator.h ****         waveform_  = WAVE_SIN;
 5624              		.loc 17 49 34 discriminator 2 view .LVU1407
 5625 0158 2046     		mov	r0, r4
ARM GAS  C:\Users\VINCIU~1\AppData\Local\Temp\cc6Tz7la.s 			page 161


  48:../../DaisySP/Source/Synthesis/oscillator.h ****         phase_inc_ = CalcPhaseInc(freq_);
 5626              		.loc 17 48 20 discriminator 2 view .LVU1408
 5627 015a 6361     		str	r3, [r4, #20]	@ float
  51:../../DaisySP/Source/Synthesis/oscillator.h ****         eor_       = true;
 5628              		.loc 17 51 20 discriminator 2 view .LVU1409
 5629 015c 0125     		movs	r5, #1
  44:../../DaisySP/Source/Synthesis/oscillator.h ****         sr_recip_  = 1.0f / sample_rate;
 5630              		.loc 17 44 20 discriminator 2 view .LVU1410
 5631 015e 84ED038A 		vstr.32	s16, [r4, #12]
  45:../../DaisySP/Source/Synthesis/oscillator.h ****         freq_      = 100.0f;
 5632              		.loc 17 45 9 is_stmt 1 discriminator 2 view .LVU1411
  50:../../DaisySP/Source/Synthesis/oscillator.h ****         eoc_       = true;
 5633              		.loc 17 50 20 is_stmt 0 discriminator 2 view .LVU1412
 5634 0162 4FF00008 		mov	r8, #0
  45:../../DaisySP/Source/Synthesis/oscillator.h ****         freq_      = 100.0f;
 5635              		.loc 17 45 20 discriminator 2 view .LVU1413
 5636 0166 C4ED048A 		vstr.32	s17, [r4, #16]
  46:../../DaisySP/Source/Synthesis/oscillator.h ****         amp_       = 0.5f;
 5637              		.loc 17 46 9 is_stmt 1 discriminator 2 view .LVU1414
  46:../../DaisySP/Source/Synthesis/oscillator.h ****         amp_       = 0.5f;
 5638              		.loc 17 46 20 is_stmt 0 discriminator 2 view .LVU1415
 5639 016a 84ED020A 		vstr.32	s0, [r4, #8]
  47:../../DaisySP/Source/Synthesis/oscillator.h ****         phase_     = 0.0f;
 5640              		.loc 17 47 9 is_stmt 1 discriminator 2 view .LVU1416
  47:../../DaisySP/Source/Synthesis/oscillator.h ****         phase_     = 0.0f;
 5641              		.loc 17 47 20 is_stmt 0 discriminator 2 view .LVU1417
 5642 016e C4F80490 		str	r9, [r4, #4]	@ float
  48:../../DaisySP/Source/Synthesis/oscillator.h ****         phase_inc_ = CalcPhaseInc(freq_);
 5643              		.loc 17 48 9 is_stmt 1 discriminator 2 view .LVU1418
  49:../../DaisySP/Source/Synthesis/oscillator.h ****         waveform_  = WAVE_SIN;
 5644              		.loc 17 49 9 discriminator 2 view .LVU1419
  49:../../DaisySP/Source/Synthesis/oscillator.h ****         waveform_  = WAVE_SIN;
 5645              		.loc 17 49 34 is_stmt 0 discriminator 2 view .LVU1420
 5646 0172 FFF7FEFF 		bl	_ZN7daisysp10Oscillator12CalcPhaseIncEf
 5647              	.LVL499:
 5648              	.LBE1121:
 5649              	.LBE1126:
 5650              	.LBB1127:
 5651              	.LBB1128:
  60:../../DaisySP/Source/Synthesis/oscillator.h ****         phase_inc_ = CalcPhaseInc(f);
 5652              		.loc 17 60 20 discriminator 2 view .LVU1421
 5653 0176 DFED497A 		vldr.32	s15, .L385+36
 5654              	.LBE1128:
 5655              	.LBE1127:
 5656              	.LBB1132:
 5657              	.LBB1122:
  49:../../DaisySP/Source/Synthesis/oscillator.h ****         waveform_  = WAVE_SIN;
 5658              		.loc 17 49 20 discriminator 2 view .LVU1422
 5659 017a 84ED060A 		vstr.32	s0, [r4, #24]
  50:../../DaisySP/Source/Synthesis/oscillator.h ****         eoc_       = true;
 5660              		.loc 17 50 9 is_stmt 1 discriminator 2 view .LVU1423
 5661              	.LBE1122:
 5662              	.LBE1132:
 5663              	.LBB1133:
 5664              	.LBB1129:
  61:../../DaisySP/Source/Synthesis/oscillator.h ****     }
 5665              		.loc 17 61 34 is_stmt 0 discriminator 2 view .LVU1424
ARM GAS  C:\Users\VINCIU~1\AppData\Local\Temp\cc6Tz7la.s 			page 162


 5666 017e 2046     		mov	r0, r4
 5667              	.LBE1129:
 5668              	.LBE1133:
 5669              	.LBB1134:
 5670              	.LBB1123:
  51:../../DaisySP/Source/Synthesis/oscillator.h ****         eor_       = true;
 5671              		.loc 17 51 20 discriminator 2 view .LVU1425
 5672 0180 84F82550 		strb	r5, [r4, #37]
 5673              	.LBE1123:
 5674              	.LBE1134:
 5675              	.LBB1135:
 5676              	.LBB1130:
  61:../../DaisySP/Source/Synthesis/oscillator.h ****     }
 5677              		.loc 17 61 34 discriminator 2 view .LVU1426
 5678 0184 B0EE670A 		vmov.f32	s0, s15
 5679              	.LBE1130:
 5680              	.LBE1135:
 5681              	.LBB1136:
 5682              	.LBB1124:
  50:../../DaisySP/Source/Synthesis/oscillator.h ****         eoc_       = true;
 5683              		.loc 17 50 20 discriminator 2 view .LVU1427
 5684 0188 84F80080 		strb	r8, [r4]
  51:../../DaisySP/Source/Synthesis/oscillator.h ****         eor_       = true;
 5685              		.loc 17 51 9 is_stmt 1 discriminator 2 view .LVU1428
  52:../../DaisySP/Source/Synthesis/oscillator.h ****     }
 5686              		.loc 17 52 9 discriminator 2 view .LVU1429
 5687              	.LBE1124:
 5688              	.LBE1136:
 124:SynthMenis.cpp ****     {
 5689              		.loc 14 124 22 is_stmt 0 discriminator 2 view .LVU1430
 5690 018c 2834     		adds	r4, r4, #40
 5691              	.LVL500:
 5692              	.LBB1137:
 5693              	.LBB1125:
  52:../../DaisySP/Source/Synthesis/oscillator.h ****     }
 5694              		.loc 17 52 20 discriminator 2 view .LVU1431
 5695 018e 04F8045C 		strb	r5, [r4, #-4]
 5696              	.LVL501:
  52:../../DaisySP/Source/Synthesis/oscillator.h ****     }
 5697              		.loc 17 52 20 discriminator 2 view .LVU1432
 5698              	.LBE1125:
 5699              	.LBE1137:
 127:SynthMenis.cpp ****         osc[i].SetWaveform(osc[i].WAVE_SIN);
 5700              		.loc 14 127 9 is_stmt 1 discriminator 2 view .LVU1433
 5701              		.loc 14 127 9 is_stmt 0 discriminator 2 view .LVU1434
 5702              	.LBE1118:
  68:../../DaisySP/Source/Synthesis/oscillator.h ****     /** Sets the waveform to be synthesized by the Process() function.
  69:../../DaisySP/Source/Synthesis/oscillator.h ****     */
  70:../../DaisySP/Source/Synthesis/oscillator.h ****     inline void SetWaveform(const uint8_t wf)
  71:../../DaisySP/Source/Synthesis/oscillator.h ****     {
  72:../../DaisySP/Source/Synthesis/oscillator.h ****         waveform_ = wf < WAVE_LAST ? wf : WAVE_SIN;
 5703              		.loc 17 72 9 is_stmt 1 discriminator 2 view .LVU1435
 5704              	.LBB1141:
 128:SynthMenis.cpp ****         osc[i].SetAmp(0.5);
 5705              		.loc 14 128 9 discriminator 2 view .LVU1436
 5706              	.LBB1138:
 5707              	.LBI1138:
ARM GAS  C:\Users\VINCIU~1\AppData\Local\Temp\cc6Tz7la.s 			page 163


  67:../../DaisySP/Source/Synthesis/oscillator.h ****     /** Sets the waveform to be synthesized by the Process() function.
 5708              		.loc 17 67 17 discriminator 2 view .LVU1437
 5709              	.LBB1139:
  67:../../DaisySP/Source/Synthesis/oscillator.h ****     /** Sets the waveform to be synthesized by the Process() function.
 5710              		.loc 17 67 41 discriminator 2 view .LVU1438
  67:../../DaisySP/Source/Synthesis/oscillator.h ****     /** Sets the waveform to be synthesized by the Process() function.
 5711              		.loc 17 67 46 is_stmt 0 discriminator 2 view .LVU1439
 5712 0192 44F8249C 		str	r9, [r4, #-36]	@ float
 5713              	.LVL502:
  67:../../DaisySP/Source/Synthesis/oscillator.h ****     /** Sets the waveform to be synthesized by the Process() function.
 5714              		.loc 17 67 46 discriminator 2 view .LVU1440
 5715              	.LBE1139:
 5716              	.LBE1138:
 129:SynthMenis.cpp ****         osc[i].SetFreq(440);
 5717              		.loc 14 129 9 is_stmt 1 discriminator 2 view .LVU1441
 5718              	.LBB1140:
 5719              	.LBI1127:
  58:../../DaisySP/Source/Synthesis/oscillator.h ****     {
 5720              		.loc 17 58 17 discriminator 2 view .LVU1442
 5721              	.LBB1131:
  60:../../DaisySP/Source/Synthesis/oscillator.h ****         phase_inc_ = CalcPhaseInc(f);
 5722              		.loc 17 60 9 discriminator 2 view .LVU1443
  60:../../DaisySP/Source/Synthesis/oscillator.h ****         phase_inc_ = CalcPhaseInc(f);
 5723              		.loc 17 60 20 is_stmt 0 discriminator 2 view .LVU1444
 5724 0196 44ED087A 		vstr.32	s15, [r4, #-32]
  61:../../DaisySP/Source/Synthesis/oscillator.h ****     }
 5725              		.loc 17 61 9 is_stmt 1 discriminator 2 view .LVU1445
  61:../../DaisySP/Source/Synthesis/oscillator.h ****     }
 5726              		.loc 17 61 34 is_stmt 0 discriminator 2 view .LVU1446
 5727 019a FFF7FEFF 		bl	_ZN7daisysp10Oscillator12CalcPhaseIncEf
 5728              	.LVL503:
  61:../../DaisySP/Source/Synthesis/oscillator.h ****     }
 5729              		.loc 17 61 20 discriminator 2 view .LVU1447
 5730 019e 04ED040A 		vstr.32	s0, [r4, #-16]
 5731              	.LVL504:
  61:../../DaisySP/Source/Synthesis/oscillator.h ****     }
 5732              		.loc 17 61 20 discriminator 2 view .LVU1448
 5733              	.LBE1131:
 5734              	.LBE1140:
 124:SynthMenis.cpp ****     {
 5735              		.loc 14 124 5 is_stmt 1 discriminator 2 view .LVU1449
 124:SynthMenis.cpp ****     {
 5736              		.loc 14 124 22 discriminator 2 view .LVU1450
 5737 01a2 A245     		cmp	r10, r4
 5738 01a4 D3D1     		bne	.L356
 5739              	.LBE1141:
 130:SynthMenis.cpp ****     }
 131:SynthMenis.cpp ****     line.Init(samplerate);
 5740              		.loc 14 131 5 view .LVU1451
 132:SynthMenis.cpp ****     env.Init(samplerate);
 5741              		.loc 14 132 13 is_stmt 0 view .LVU1452
 5742 01a6 3E4C     		ldr	r4, .L385+40
 131:SynthMenis.cpp ****     env.Init(samplerate);
 5743              		.loc 14 131 14 view .LVU1453
 5744 01a8 B0EE480A 		vmov.f32	s0, s16
 5745 01ac 3D48     		ldr	r0, .L385+44
 5746 01ae FFF7FEFF 		bl	_ZN7daisysp4Line4InitEf
ARM GAS  C:\Users\VINCIU~1\AppData\Local\Temp\cc6Tz7la.s 			page 164


 5747              	.LVL505:
 5748              		.loc 14 132 5 is_stmt 1 view .LVU1454
 5749              		.loc 14 132 13 is_stmt 0 view .LVU1455
 5750 01b2 2946     		mov	r1, r5
 5751 01b4 2046     		mov	r0, r4
 5752 01b6 B0EE480A 		vmov.f32	s0, s16
 5753 01ba FFF7FEFF 		bl	_ZN7daisysp4Adsr4InitEfi
 5754              	.LVL506:
 133:SynthMenis.cpp ****     env.SetTime(ADSR_SEG_ATTACK, .05);
 5755              		.loc 14 133 5 is_stmt 1 view .LVU1456
 5756              		.loc 14 133 16 is_stmt 0 view .LVU1457
 5757 01be 2946     		mov	r1, r5
 5758 01c0 2046     		mov	r0, r4
 5759 01c2 9FED390A 		vldr.32	s0, .L385+48
 5760 01c6 FFF7FEFF 		bl	_ZN7daisysp4Adsr7SetTimeEif
 5761              	.LVL507:
 134:SynthMenis.cpp ****     env.SetTime(ADSR_SEG_DECAY, .1);
 5762              		.loc 14 134 5 is_stmt 1 view .LVU1458
 5763              		.loc 14 134 16 is_stmt 0 view .LVU1459
 5764 01ca 2046     		mov	r0, r4
 5765 01cc 9FED370A 		vldr.32	s0, .L385+52
 5766 01d0 0221     		movs	r1, #2
 5767 01d2 FFF7FEFF 		bl	_ZN7daisysp4Adsr7SetTimeEif
 5768              	.LVL508:
 135:SynthMenis.cpp ****     env.SetTime(ADSR_SEG_RELEASE, .25);
 5769              		.loc 14 135 5 is_stmt 1 view .LVU1460
 5770              		.loc 14 135 16 is_stmt 0 view .LVU1461
 5771 01d6 2046     		mov	r0, r4
 5772 01d8 B5EE000A 		vmov.f32	s0, #2.5e-1
 5773 01dc 0421     		movs	r1, #4
 5774 01de FFF7FEFF 		bl	_ZN7daisysp4Adsr7SetTimeEif
 5775              	.LVL509:
 136:SynthMenis.cpp ****     env.SetSustainLevel(.5);
 5776              		.loc 14 136 5 is_stmt 1 view .LVU1462
 5777              	.LBB1142:
 5778              	.LBI1142:
  38:../../DaisySP/Source/Control/adsr.h ****     /** Initializes the Adsr module.
  39:../../DaisySP/Source/Control/adsr.h ****         \param sample_rate - The sample rate of the audio engine being run. 
  40:../../DaisySP/Source/Control/adsr.h ****     */
  41:../../DaisySP/Source/Control/adsr.h ****     void Init(float sample_rate, int blockSize = 1);
  42:../../DaisySP/Source/Control/adsr.h ****     /**
  43:../../DaisySP/Source/Control/adsr.h ****      \function Retrigger forces the envelope back to attack phase
  44:../../DaisySP/Source/Control/adsr.h ****      \param hard  resets the history to zero, results in a click.
  45:../../DaisySP/Source/Control/adsr.h ****      */
  46:../../DaisySP/Source/Control/adsr.h ****     void Retrigger(bool hard);
  47:../../DaisySP/Source/Control/adsr.h ****     /** Processes one sample through the filter and returns one sample.
  48:../../DaisySP/Source/Control/adsr.h ****         \param gate - trigger the envelope, hold it to sustain 
  49:../../DaisySP/Source/Control/adsr.h ****     */
  50:../../DaisySP/Source/Control/adsr.h ****     float Process(bool gate);
  51:../../DaisySP/Source/Control/adsr.h ****     /** Sets time
  52:../../DaisySP/Source/Control/adsr.h ****         Set time per segment in seconds
  53:../../DaisySP/Source/Control/adsr.h ****     */
  54:../../DaisySP/Source/Control/adsr.h ****     void SetTime(int seg, float time);
  55:../../DaisySP/Source/Control/adsr.h ****     void SetAttackTime(float timeInS, float shape = 0.0f);
  56:../../DaisySP/Source/Control/adsr.h ****     void SetDecayTime(float timeInS);
  57:../../DaisySP/Source/Control/adsr.h ****     void SetReleaseTime(float timeInS);
  58:../../DaisySP/Source/Control/adsr.h **** 
ARM GAS  C:\Users\VINCIU~1\AppData\Local\Temp\cc6Tz7la.s 			page 165


  59:../../DaisySP/Source/Control/adsr.h ****   private:
  60:../../DaisySP/Source/Control/adsr.h ****     void SetTimeConstant(float timeInS, float& time, float& coeff);
  61:../../DaisySP/Source/Control/adsr.h **** 
  62:../../DaisySP/Source/Control/adsr.h ****   public:
  63:../../DaisySP/Source/Control/adsr.h ****     /** Sustain level
  64:../../DaisySP/Source/Control/adsr.h ****         \param sus_level - sets sustain level, 0...1.0
  65:../../DaisySP/Source/Control/adsr.h ****     */
  66:../../DaisySP/Source/Control/adsr.h ****     inline void SetSustainLevel(float sus_level)
 5779              		.loc 6 66 17 view .LVU1463
 5780              	.LBB1143:
  67:../../DaisySP/Source/Control/adsr.h ****     {
  68:../../DaisySP/Source/Control/adsr.h ****         sus_level = (sus_level <= 0.f) ? -0.01f // forces envelope into idle
 5781              		.loc 6 68 9 view .LVU1464
  69:../../DaisySP/Source/Control/adsr.h ****                                        : (sus_level > 1.f) ? 1.f : sus_level;
  70:../../DaisySP/Source/Control/adsr.h ****         sus_level_ = sus_level;
 5782              		.loc 6 70 9 view .LVU1465
 5783 01e2 334B     		ldr	r3, .L385+56
 5784              	.LBE1143:
 5785              	.LBE1142:
 5786              	.LBB1145:
 5787              	.LBB1146:
 5788              	.LBB1147:
 5789              	.LBB1148:
  45:../../libdaisy/src/hid/midi.h ****         uart_config.stopbits   = UartHandler::Config::StopBits::BITS_1;
 5790              		.loc 16 45 32 is_stmt 0 view .LVU1466
 5791 01e4 47F61222 		movw	r2, #31250
  46:../../libdaisy/src/hid/midi.h ****         uart_config.parity     = UartHandler::Config::Parity::NONE;
 5792              		.loc 16 46 32 view .LVU1467
 5793 01e8 4395     		str	r5, [sp, #268]
  49:../../libdaisy/src/hid/midi.h **** 
 5794              		.loc 16 49 32 view .LVU1468
 5795 01ea 4695     		str	r5, [sp, #280]
  56:../../libdaisy/src/hid/midi.h ****     }
 5796              		.loc 16 56 19 view .LVU1469
 5797 01ec 41A9     		add	r1, sp, #260
 5798              	.LBE1148:
 5799              	.LBE1147:
  95:../../libdaisy/src/hid/midi.h **** 
 5800              		.loc 16 95 9 view .LVU1470
 5801 01ee 314D     		ldr	r5, .L385+60
 5802              	.LBE1146:
 5803              	.LBE1145:
 5804              	.LBB1168:
 5805              	.LBB1144:
 5806              		.loc 6 70 20 view .LVU1471
 5807 01f0 C4F80090 		str	r9, [r4]	@ float
 5808              	.LVL510:
 5809              		.loc 6 70 20 view .LVU1472
 5810              	.LBE1144:
 5811              	.LBE1168:
 137:SynthMenis.cpp ****     midi.Init(midi_cfg);
 5812              		.loc 14 137 5 is_stmt 1 view .LVU1473
 5813              	.LBB1169:
 5814              	.LBB1164:
 5815              	.LBB1154:
 5816              	.LBB1149:
  45:../../libdaisy/src/hid/midi.h ****         uart_config.stopbits   = UartHandler::Config::StopBits::BITS_1;
ARM GAS  C:\Users\VINCIU~1\AppData\Local\Temp\cc6Tz7la.s 			page 166


 5817              		.loc 16 45 32 is_stmt 0 view .LVU1474
 5818 01f4 4792     		str	r2, [sp, #284]
 5819              	.LBE1149:
 5820              	.LBE1154:
  95:../../libdaisy/src/hid/midi.h **** 
 5821              		.loc 16 95 9 view .LVU1475
 5822 01f6 05F5E044 		add	r4, r5, #28672
 5823 01fa 1A68     		ldr	r2, [r3]
 5824              	.LVL511:
 5825              	.LBB1155:
 5826              	.LBB1150:
  56:../../libdaisy/src/hid/midi.h ****     }
 5827              		.loc 16 56 19 view .LVU1476
 5828 01fc 04F29440 		addw	r0, r4, #1172
  47:../../libdaisy/src/hid/midi.h ****         uart_config.mode       = UartHandler::Config::Mode::TX_RX;
 5829              		.loc 16 47 32 view .LVU1477
 5830 0200 CDF81081 		str	r8, [sp, #272]
 5831              	.LBE1150:
 5832              	.LBE1155:
  95:../../libdaisy/src/hid/midi.h **** 
 5833              		.loc 16 95 9 view .LVU1478
 5834 0204 C4F88C24 		str	r2, [r4, #1164]
 5835              	.LBB1156:
 5836              	.LBB1151:
  52:../../libdaisy/src/hid/midi.h ****         uart_config.pin_config.rx = config.rx;
 5837              		.loc 16 52 35 view .LVU1479
 5838 0208 4292     		str	r2, [sp, #264]
 5839 020a 1A79     		ldrb	r2, [r3, #4]	@ zero_extendqisi2
 5840              	.LVL512:
  52:../../libdaisy/src/hid/midi.h ****         uart_config.pin_config.rx = config.rx;
 5841              		.loc 16 52 35 view .LVU1480
 5842 020c DFF8A890 		ldr	r9, .L385+64
  53:../../libdaisy/src/hid/midi.h ****         uart_config.pin_config.tx = config.tx;
 5843              		.loc 16 53 35 view .LVU1481
 5844 0210 8DF80621 		strb	r2, [sp, #262]
 5845 0214 5A79     		ldrb	r2, [r3, #5]	@ zero_extendqisi2
 5846              	.LVL513:
  53:../../libdaisy/src/hid/midi.h ****         uart_config.pin_config.tx = config.tx;
 5847              		.loc 16 53 35 view .LVU1482
 5848 0216 DFF8A4B0 		ldr	fp, .L385+68
 5849 021a 8DF80721 		strb	r2, [sp, #263]
 5850 021e 9A79     		ldrb	r2, [r3, #6]	@ zero_extendqisi2
 5851              	.LVL514:
  53:../../libdaisy/src/hid/midi.h ****         uart_config.pin_config.tx = config.tx;
 5852              		.loc 16 53 35 view .LVU1483
 5853 0220 DFF89CA0 		ldr	r10, .L385+72
  54:../../libdaisy/src/hid/midi.h **** 
 5854              		.loc 16 54 35 view .LVU1484
 5855 0224 8DF80421 		strb	r2, [sp, #260]
 5856 0228 DA79     		ldrb	r2, [r3, #7]	@ zero_extendqisi2
 5857              	.LVL515:
  54:../../libdaisy/src/hid/midi.h **** 
 5858              		.loc 16 54 35 view .LVU1485
 5859 022a 5B68     		ldr	r3, [r3, #4]
 5860              	.LVL516:
  54:../../libdaisy/src/hid/midi.h **** 
 5861              		.loc 16 54 35 view .LVU1486
ARM GAS  C:\Users\VINCIU~1\AppData\Local\Temp\cc6Tz7la.s 			page 167


 5862              	.LBE1151:
 5863              	.LBE1156:
 5864              	.LBE1164:
 5865              	.LBI1145:
  93:../../libdaisy/src/hid/midi.h ****     {
 5866              		.loc 16 93 10 is_stmt 1 view .LVU1487
 5867              	.LBB1165:
 5868              	.LBB1157:
 5869              	.LBB1152:
  54:../../libdaisy/src/hid/midi.h **** 
 5870              		.loc 16 54 35 is_stmt 0 view .LVU1488
 5871 022c 8DF80521 		strb	r2, [sp, #261]
 5872              	.LBE1152:
 5873              	.LBE1157:
  95:../../libdaisy/src/hid/midi.h **** 
 5874              		.loc 16 95 9 view .LVU1489
 5875 0230 C4F89034 		str	r3, [r4, #1168]
 5876              	.LVL517:
 5877              	.LBB1158:
 5878              	.LBI1147:
  40:../../libdaisy/src/hid/midi.h ****     {
 5879              		.loc 16 40 17 is_stmt 1 view .LVU1490
 5880              	.LBB1153:
  42:../../libdaisy/src/hid/midi.h **** 
 5881              		.loc 16 42 9 view .LVU1491
  45:../../libdaisy/src/hid/midi.h ****         uart_config.stopbits   = UartHandler::Config::StopBits::BITS_1;
 5882              		.loc 16 45 9 view .LVU1492
  46:../../libdaisy/src/hid/midi.h ****         uart_config.parity     = UartHandler::Config::Parity::NONE;
 5883              		.loc 16 46 9 view .LVU1493
  47:../../libdaisy/src/hid/midi.h ****         uart_config.mode       = UartHandler::Config::Mode::TX_RX;
 5884              		.loc 16 47 9 view .LVU1494
  48:../../libdaisy/src/hid/midi.h ****         uart_config.wordlength = UartHandler::Config::WordLength::BITS_8;
 5885              		.loc 16 48 9 view .LVU1495
  48:../../libdaisy/src/hid/midi.h ****         uart_config.wordlength = UartHandler::Config::WordLength::BITS_8;
 5886              		.loc 16 48 32 is_stmt 0 view .LVU1496
 5887 0234 0223     		movs	r3, #2
 5888 0236 4593     		str	r3, [sp, #276]
  49:../../libdaisy/src/hid/midi.h **** 
 5889              		.loc 16 49 9 is_stmt 1 view .LVU1497
  52:../../libdaisy/src/hid/midi.h ****         uart_config.pin_config.rx = config.rx;
 5890              		.loc 16 52 9 view .LVU1498
  53:../../libdaisy/src/hid/midi.h ****         uart_config.pin_config.tx = config.tx;
 5891              		.loc 16 53 9 view .LVU1499
  54:../../libdaisy/src/hid/midi.h **** 
 5892              		.loc 16 54 9 view .LVU1500
  56:../../libdaisy/src/hid/midi.h ****     }
 5893              		.loc 16 56 9 view .LVU1501
  56:../../libdaisy/src/hid/midi.h ****     }
 5894              		.loc 16 56 19 is_stmt 0 view .LVU1502
 5895 0238 FFF7FEFF 		bl	_ZN5daisy11UartHandler4InitERKNS0_6ConfigE
 5896              	.LVL518:
  56:../../libdaisy/src/hid/midi.h ****     }
 5897              		.loc 16 56 19 view .LVU1503
 5898              	.LBE1153:
 5899              	.LBE1158:
 5900              	.LBB1159:
 5901              	.LBI1159:
ARM GAS  C:\Users\VINCIU~1\AppData\Local\Temp\cc6Tz7la.s 			page 168


  24:../../libdaisy/src/util/ringbuffer.h **** 
 5902              		.loc 20 24 17 is_stmt 1 view .LVU1504
 5903              	.LBE1159:
 100:../../libdaisy/src/hid/midi.h ****         pstate_                = ParserEmpty;
 5904              		.loc 16 100 32 is_stmt 0 view .LVU1505
 5905 023c 0A23     		movs	r3, #10
 5906              	.LBB1162:
 5907              	.LBB1160:
  24:../../libdaisy/src/util/ringbuffer.h **** 
 5908              		.loc 20 24 49 view .LVU1506
 5909 023e C4F88084 		str	r8, [r4, #1152]
 5910              	.LBE1160:
 5911              	.LBE1162:
 5912              	.LBE1165:
 5913              	.LBE1169:
 5914              	.LBB1170:
 5915              	.LBB1171:
 5916              	.LBB1172:
 5917              	.LBB1173:
  59:../../libdaisy/src/hid/midi.h ****     inline size_t  Readable() { return uart_.Readable(); }
 5918              		.loc 16 59 45 view .LVU1507
 5919 0242 04F29440 		addw	r0, r4, #1172
 5920              	.LBE1173:
 5921              	.LBE1172:
 5922              	.LBE1171:
 5923              	.LBE1170:
 5924              	.LBB1180:
 5925              	.LBB1166:
 5926              	.LBB1163:
 5927              	.LBB1161:
  24:../../libdaisy/src/util/ringbuffer.h **** 
 5928              		.loc 20 24 36 view .LVU1508
 5929 0246 C4F87C84 		str	r8, [r4, #1148]
 5930              	.LVL519:
  24:../../libdaisy/src/util/ringbuffer.h **** 
 5931              		.loc 20 24 36 view .LVU1509
 5932              	.LBE1161:
 5933              	.LBE1163:
 5934              	.LBE1166:
 5935              	.LBE1180:
 138:SynthMenis.cpp ****     midi.StartReceive();
 5936              		.loc 14 138 5 is_stmt 1 view .LVU1510
 5937              	.LBB1181:
 5938              	.LBI1170:
 105:../../libdaisy/src/hid/midi.h **** 
 5939              		.loc 16 105 10 view .LVU1511
 5940              	.LBB1178:
 5941              	.LBB1176:
 5942              	.LBI1172:
  59:../../libdaisy/src/hid/midi.h ****     inline size_t  Readable() { return uart_.Readable(); }
 5943              		.loc 16 59 20 view .LVU1512
 5944              	.LBB1174:
  59:../../libdaisy/src/hid/midi.h ****     inline size_t  Readable() { return uart_.Readable(); }
 5945              		.loc 16 59 32 view .LVU1513
 5946              	.LBE1174:
 5947              	.LBE1176:
 5948              	.LBE1178:
ARM GAS  C:\Users\VINCIU~1\AppData\Local\Temp\cc6Tz7la.s 			page 169


 5949              	.LBE1181:
 5950              	.LBB1182:
 5951              	.LBB1167:
 101:../../libdaisy/src/hid/midi.h ****     }
 5952              		.loc 16 101 32 is_stmt 0 view .LVU1514
 5953 024a 85F80480 		strb	r8, [r5, #4]
 5954 024e 0DF19008 		add	r8, sp, #144
 100:../../libdaisy/src/hid/midi.h ****         pstate_                = ParserEmpty;
 5955              		.loc 16 100 32 view .LVU1515
 5956 0252 2B72     		strb	r3, [r5, #8]
 5957              	.LBE1167:
 5958              	.LBE1182:
 5959              	.LBB1183:
 5960              	.LBB1179:
 5961              	.LBB1177:
 5962              	.LBB1175:
  59:../../libdaisy/src/hid/midi.h ****     inline size_t  Readable() { return uart_.Readable(); }
 5963              		.loc 16 59 45 view .LVU1516
 5964 0254 FFF7FEFF 		bl	_ZN5daisy11UartHandler7StartRxEv
 5965              	.LVL520:
 5966              	.L372:
  59:../../libdaisy/src/hid/midi.h ****     inline size_t  Readable() { return uart_.Readable(); }
 5967              		.loc 16 59 45 view .LVU1517
 5968              	.LBE1175:
 5969              	.LBE1177:
 5970              	.LBE1179:
 5971              	.LBE1183:
 139:SynthMenis.cpp **** 
 140:SynthMenis.cpp **** 
 141:SynthMenis.cpp ****     while(1)
 5972              		.loc 14 141 5 is_stmt 1 view .LVU1518
 142:SynthMenis.cpp ****     {
 143:SynthMenis.cpp ****         if(synthmenu.analogRead > 1)
 5973              		.loc 14 143 9 view .LVU1519
 5974 0258 F7EE007A 		vmov.f32	s15, #1.0e+0
 5975              		.loc 14 143 22 is_stmt 0 view .LVU1520
 5976 025c 96ED007A 		vldr.32	s14, [r6]
 5977              		.loc 14 143 9 view .LVU1521
 5978 0260 B4EEE77A 		vcmpe.f32	s14, s15
 5979 0264 F1EE10FA 		vmrs	APSR_nzcv, FPSCR
 5980 0268 40F3ED80 		ble	.L381
 144:SynthMenis.cpp ****         {
 145:SynthMenis.cpp ****             synthmenu.analogRead = 1;
 5981              		.loc 14 145 13 is_stmt 1 view .LVU1522
 5982              		.loc 14 145 34 is_stmt 0 view .LVU1523
 5983 026c C6ED007A 		vstr.32	s15, [r6]
 146:SynthMenis.cpp ****         }
 147:SynthMenis.cpp ****         if(synthmenu.analogRead < 0)
 5984              		.loc 14 147 9 is_stmt 1 view .LVU1524
 5985              	.L359:
 148:SynthMenis.cpp ****         {
 149:SynthMenis.cpp ****             synthmenu.analogRead = 0;
 150:SynthMenis.cpp ****         }
 151:SynthMenis.cpp **** 
 152:SynthMenis.cpp ****         midi.Listen();
 5986              		.loc 14 152 9 view .LVU1525
 5987              	.LVL521:
ARM GAS  C:\Users\VINCIU~1\AppData\Local\Temp\cc6Tz7la.s 			page 170


 5988              	.LBB1184:
 5989              	.LBI1184:
 108:../../libdaisy/src/hid/midi.h ****     {
 5990              		.loc 16 108 10 view .LVU1526
 5991              	.LBB1185:
 111:../../libdaisy/src/hid/midi.h ****         while(transport_.Readable())
 5992              		.loc 16 111 29 is_stmt 0 view .LVU1527
 5993 0270 FFF7FEFF 		bl	_ZN5daisy6System6GetNowEv
 5994              	.LVL522:
 5995 0274 0546     		mov	r5, r0
 5996              	.LVL523:
 111:../../libdaisy/src/hid/midi.h ****         while(transport_.Readable())
 5997              		.loc 16 111 29 view .LVU1528
 5998 0276 2DE0     		b	.L362
 5999              	.L386:
 6000              		.align	2
 6001              	.L385:
 6002 0278 00000000 		.word	.LANCHOR7
 6003 027c 00000000 		.word	.LANCHOR3
 6004 0280 00000000 		.word	.LANCHOR2
 6005 0284 0000C842 		.word	1120403456
 6006 0288 00000000 		.word	.LC7
 6007 028c 0C000000 		.word	.LC8
 6008 0290 24000000 		.word	.LANCHOR7+36
 6009 0294 08000000 		.word	.LANCHOR8+8
 6010 0298 00000000 		.word	_Z13AudioCallbackPKfPfj
 6011 029c 0000DC43 		.word	1138491392
 6012 02a0 00000000 		.word	.LANCHOR1
 6013 02a4 00000000 		.word	.LANCHOR5
 6014 02a8 CDCC4C3D 		.word	1028443341
 6015 02ac CDCCCC3D 		.word	1036831949
 6016 02b0 00000000 		.word	.LANCHOR9
 6017 02b4 00000000 		.word	midi
 6018 02b8 00000000 		.word	.LANCHOR10
 6019 02bc 00000000 		.word	.LANCHOR8
 6020 02c0 00000000 		.word	.LANCHOR6
 6021              	.LVL524:
 6022              	.L383:
 114:../../libdaisy/src/hid/midi.h ****             Parse(transport_.Rx());
 6023              		.loc 16 114 24 view .LVU1529
 6024 02c4 C4F88454 		str	r5, [r4, #1156]
 6025              	.LVL525:
 6026              	.LBB1186:
 6027              	.LBI1186:
  61:../../libdaisy/src/hid/midi.h ****     inline bool    RxActive() { return uart_.RxActive(); }
 6028              		.loc 16 61 20 is_stmt 1 view .LVU1530
 6029              	.LBB1187:
  61:../../libdaisy/src/hid/midi.h ****     inline bool    RxActive() { return uart_.RxActive(); }
 6030              		.loc 16 61 27 view .LVU1531
  61:../../libdaisy/src/hid/midi.h ****     inline bool    RxActive() { return uart_.RxActive(); }
 6031              		.loc 16 61 45 is_stmt 0 view .LVU1532
 6032 02c8 FFF7FEFF 		bl	_ZN5daisy11UartHandler5PopRxEv
 6033              	.LVL526:
  61:../../libdaisy/src/hid/midi.h ****     inline bool    RxActive() { return uart_.RxActive(); }
 6034              		.loc 16 61 45 view .LVU1533
 6035 02cc 0146     		mov	r1, r0
 6036              	.LBE1187:
ARM GAS  C:\Users\VINCIU~1\AppData\Local\Temp\cc6Tz7la.s 			page 171


 6037              	.LBE1186:
 115:../../libdaisy/src/hid/midi.h ****         }
 6038              		.loc 16 115 18 view .LVU1534
 6039 02ce 7248     		ldr	r0, .L387
 6040 02d0 FFF7FEFF 		bl	_ZN5daisy11MidiHandlerINS_17MidiUartTransportEE5ParseEh
 6041              	.LVL527:
 6042              	.L362:
 112:../../libdaisy/src/hid/midi.h ****         {
 6043              		.loc 16 112 34 is_stmt 1 view .LVU1535
 6044              	.LBB1189:
 6045              	.LBI1189:
  60:../../libdaisy/src/hid/midi.h ****     inline uint8_t Rx() { return uart_.PopRx(); }
 6046              		.loc 16 60 20 view .LVU1536
 6047              	.LBB1190:
  60:../../libdaisy/src/hid/midi.h ****     inline uint8_t Rx() { return uart_.PopRx(); }
 6048              		.loc 16 60 33 view .LVU1537
  60:../../libdaisy/src/hid/midi.h ****     inline uint8_t Rx() { return uart_.PopRx(); }
 6049              		.loc 16 60 54 is_stmt 0 view .LVU1538
 6050 02d4 7148     		ldr	r0, .L387+4
 6051              	.LVL528:
  60:../../libdaisy/src/hid/midi.h ****     inline uint8_t Rx() { return uart_.PopRx(); }
 6052              		.loc 16 60 54 view .LVU1539
 6053 02d6 FFF7FEFF 		bl	_ZN5daisy11UartHandler8ReadableEv
 6054              	.LVL529:
  60:../../libdaisy/src/hid/midi.h ****     inline uint8_t Rx() { return uart_.PopRx(); }
 6055              		.loc 16 60 54 view .LVU1540
 6056 02da 0346     		mov	r3, r0
 6057              	.LBE1190:
 6058              	.LBE1189:
 6059              	.LBB1191:
 6060              	.LBB1188:
  61:../../libdaisy/src/hid/midi.h ****     inline bool    RxActive() { return uart_.RxActive(); }
 6061              		.loc 16 61 45 view .LVU1541
 6062 02dc 6F48     		ldr	r0, .L387+4
 6063              	.LBE1188:
 6064              	.LBE1191:
 112:../../libdaisy/src/hid/midi.h ****         {
 6065              		.loc 16 112 34 view .LVU1542
 6066 02de 002B     		cmp	r3, #0
 6067 02e0 F0D1     		bne	.L383
 6068              	.LVL530:
 6069              	.LBB1192:
 6070              	.LBI1192:
  62:../../libdaisy/src/hid/midi.h ****     inline void    FlushRx() { uart_.FlushRx(); }
 6071              		.loc 16 62 20 is_stmt 1 view .LVU1543
 6072              	.LBB1193:
  62:../../libdaisy/src/hid/midi.h ****     inline void    FlushRx() { uart_.FlushRx(); }
 6073              		.loc 16 62 33 view .LVU1544
  62:../../libdaisy/src/hid/midi.h ****     inline void    FlushRx() { uart_.FlushRx(); }
 6074              		.loc 16 62 54 is_stmt 0 view .LVU1545
 6075 02e2 6E48     		ldr	r0, .L387+4
  62:../../libdaisy/src/hid/midi.h ****     inline void    FlushRx() { uart_.FlushRx(); }
 6076              		.loc 16 62 54 view .LVU1546
 6077 02e4 FFF7FEFF 		bl	_ZN5daisy11UartHandler8RxActiveEv
 6078              	.LVL531:
  62:../../libdaisy/src/hid/midi.h ****     inline void    FlushRx() { uart_.FlushRx(); }
 6079              		.loc 16 62 54 view .LVU1547
ARM GAS  C:\Users\VINCIU~1\AppData\Local\Temp\cc6Tz7la.s 			page 172


 6080              	.LBE1193:
 6081              	.LBE1192:
 121:../../libdaisy/src/hid/midi.h ****         {
 6082              		.loc 16 121 9 view .LVU1548
 6083 02e8 0028     		cmp	r0, #0
 6084 02ea 00F0B480 		beq	.L384
 6085              	.L363:
 6086              	.LVL532:
 121:../../libdaisy/src/hid/midi.h ****         {
 6087              		.loc 16 121 9 view .LVU1549
 6088              	.LBE1185:
 6089              	.LBE1184:
 153:SynthMenis.cpp ****         synthmenu.buttonLeft.Debounce();
 6090              		.loc 14 153 9 is_stmt 1 view .LVU1550
 6091              		.loc 14 153 38 is_stmt 0 view .LVU1551
 6092 02ee 6C48     		ldr	r0, .L387+8
 6093 02f0 FFF7FEFF 		bl	_ZN5daisy6Switch8DebounceEv
 6094              	.LVL533:
 154:SynthMenis.cpp ****         synthmenu.buttonRight.Debounce();
 6095              		.loc 14 154 9 is_stmt 1 view .LVU1552
 6096              		.loc 14 154 39 is_stmt 0 view .LVU1553
 6097 02f4 6B48     		ldr	r0, .L387+12
 6098 02f6 FFF7FEFF 		bl	_ZN5daisy6Switch8DebounceEv
 6099              	.LVL534:
 155:SynthMenis.cpp ****         synthmenu.encoderLeft.Debounce();
 6100              		.loc 14 155 9 is_stmt 1 view .LVU1554
 6101              		.loc 14 155 39 is_stmt 0 view .LVU1555
 6102 02fa 6B48     		ldr	r0, .L387+16
 6103 02fc FFF7FEFF 		bl	_ZN5daisy7Encoder8DebounceEv
 6104              	.LVL535:
 156:SynthMenis.cpp ****         synthmenu.encoderRight.Debounce();
 6105              		.loc 14 156 9 is_stmt 1 view .LVU1556
 6106              		.loc 14 156 40 is_stmt 0 view .LVU1557
 6107 0300 6A48     		ldr	r0, .L387+20
 6108 0302 FFF7FEFF 		bl	_ZN5daisy7Encoder8DebounceEv
 6109              	.LVL536:
 157:SynthMenis.cpp ****         navigation += synthmenu.encoderLeft.Increment();
 6110              		.loc 14 157 9 is_stmt 1 view .LVU1558
 6111              	.LBB1201:
 6112              	.LBI1201:
  22:../../libdaisy/src/hid/encoder.h **** 
  23:../../libdaisy/src/hid/encoder.h ****     /** Initializes the encoder with the specified hardware pins.
  24:../../libdaisy/src/hid/encoder.h **** */
  25:../../libdaisy/src/hid/encoder.h ****     //
  26:../../libdaisy/src/hid/encoder.h ****     /** Update rate should be the rate at which Debounce() gets called
  27:../../libdaisy/src/hid/encoder.h **** in Hertz.
  28:../../libdaisy/src/hid/encoder.h **** */
  29:../../libdaisy/src/hid/encoder.h ****     //
  30:../../libdaisy/src/hid/encoder.h ****     void
  31:../../libdaisy/src/hid/encoder.h ****     Init(dsy_gpio_pin a, dsy_gpio_pin b, dsy_gpio_pin click, float update_rate);
  32:../../libdaisy/src/hid/encoder.h ****     /** Called at update_rate to debounce and handle timing for the switch.
  33:../../libdaisy/src/hid/encoder.h **** */
  34:../../libdaisy/src/hid/encoder.h ****     //
  35:../../libdaisy/src/hid/encoder.h ****     /** In order for events not to be missed, its important that the Edge/Pressed checks
  36:../../libdaisy/src/hid/encoder.h **** be made at the same rate as the debounce function is being called.
  37:../../libdaisy/src/hid/encoder.h **** */
  38:../../libdaisy/src/hid/encoder.h ****     void Debounce();
ARM GAS  C:\Users\VINCIU~1\AppData\Local\Temp\cc6Tz7la.s 			page 173


  39:../../libdaisy/src/hid/encoder.h ****     /** Returns +1 if the encoder was turned clockwise, -1 if it was turned counter-clockwise, or 0
  40:../../libdaisy/src/hid/encoder.h **** */
  41:../../libdaisy/src/hid/encoder.h ****     inline int32_t Increment() const { return inc_; }
 6113              		.loc 13 41 20 view .LVU1559
 6114              	.LBB1202:
 6115              		.loc 13 41 40 view .LVU1560
 6116              		.loc 13 41 40 is_stmt 0 view .LVU1561
 6117              	.LBE1202:
 6118              	.LBE1201:
 6119              		.loc 14 157 20 view .LVU1562
 6120 0306 D9F80030 		ldr	r3, [r9]
 6121 030a B26A     		ldr	r2, [r6, #40]
 6122 030c 1344     		add	r3, r3, r2
 158:SynthMenis.cpp ****         if(navigation > 2)
 6123              		.loc 14 158 9 is_stmt 1 view .LVU1563
 6124 030e 022B     		cmp	r3, #2
 6125 0310 40F38380 		ble	.L364
 159:SynthMenis.cpp ****         {
 160:SynthMenis.cpp ****             navigation = 2;
 6126              		.loc 14 160 13 view .LVU1564
 6127              		.loc 14 160 24 is_stmt 0 view .LVU1565
 6128 0314 0223     		movs	r3, #2
 6129 0316 C9F80030 		str	r3, [r9]
 161:SynthMenis.cpp ****         }
 162:SynthMenis.cpp ****         if(navigation < 0)
 6130              		.loc 14 162 9 is_stmt 1 view .LVU1566
 163:SynthMenis.cpp ****         {
 164:SynthMenis.cpp ****             navigation = 0;
 165:SynthMenis.cpp ****         }
 166:SynthMenis.cpp **** 
 167:SynthMenis.cpp ****         if(navigation == 0)
 6131              		.loc 14 167 9 view .LVU1567
 168:SynthMenis.cpp ****         {
 169:SynthMenis.cpp ****             synthmenu.Menu1(screen, osc);
 170:SynthMenis.cpp ****         }
 171:SynthMenis.cpp ****         else if(navigation == 1)
 6132              		.loc 14 171 14 view .LVU1568
 6133              	.L365:
 172:SynthMenis.cpp ****         {
 173:SynthMenis.cpp ****             synthmenu.Menu2(screen, osc);
 174:SynthMenis.cpp ****         }
 175:SynthMenis.cpp ****         else if(navigation == 2)
 176:SynthMenis.cpp ****         {
 177:SynthMenis.cpp ****             synthmenu.Menu3(screen, osc,env);
 6134              		.loc 14 177 13 view .LVU1569
 6135              	.LVL537:
 6136              	.LBB1203:
 6137              	.LBI1203:
 6138              		.loc 9 9 7 view .LVU1570
 6139              	.LBB1204:
 6140              	.LBB1205:
 6141              	.LBI1205:
  13:../../libdaisy/src/hid/disp/oled_display.h **** {
 6142              		.loc 8 13 7 view .LVU1571
 6143              	.LBB1206:
 6144              	.LBB1207:
 6145              	.LBB1208:
ARM GAS  C:\Users\VINCIU~1\AppData\Local\Temp\cc6Tz7la.s 			page 174


 6146              	.LBI1208:
 175:../../libdaisy/src/hid/disp/display.h **** {
 6147              		.loc 10 175 7 view .LVU1572
 6148              	.LBB1209:
 6149              	.LBI1209:
  18:../../libdaisy/src/hid/disp/display.h **** {
 6150              		.loc 10 18 7 view .LVU1573
 6151              	.LBB1210:
 6152              	.LBB1211:
 6153 031a DBF80430 		ldr	r3, [fp, #4]
 6154              	.LBE1211:
 6155              	.LBE1210:
 6156              	.LBE1209:
 6157              	.LBE1208:
  13:../../libdaisy/src/hid/disp/oled_display.h **** {
 6158              		.loc 8 13 7 is_stmt 0 view .LVU1574
 6159 031e 40F20C42 		movw	r2, #1036
 6160 0322 6349     		ldr	r1, .L387+24
 6161 0324 43A8     		add	r0, sp, #268
 6162              	.LBB1215:
 6163              	.LBB1214:
 6164              	.LBB1213:
 6165              	.LBB1212:
  18:../../libdaisy/src/hid/disp/display.h **** {
 6166              		.loc 10 18 7 view .LVU1575
 6167 0326 4293     		str	r3, [sp, #264]
 6168              	.LVL538:
  18:../../libdaisy/src/hid/disp/display.h **** {
 6169              		.loc 10 18 7 view .LVU1576
 6170              	.LBE1212:
 6171              	.LBE1213:
 6172              	.LBE1214:
 6173              	.LBE1215:
  13:../../libdaisy/src/hid/disp/oled_display.h **** {
 6174              		.loc 8 13 7 view .LVU1577
 6175 0328 FFF7FEFF 		bl	memcpy
 6176              	.LVL539:
  13:../../libdaisy/src/hid/disp/oled_display.h **** {
 6177              		.loc 8 13 7 view .LVU1578
 6178              	.LBE1207:
 6179              	.LBE1206:
 6180              	.LBE1205:
 6181              		.loc 9 9 7 view .LVU1579
 6182 032c 614A     		ldr	r2, .L387+28
 6183              	.LBE1204:
 6184              	.LBE1203:
 6185              		.loc 14 177 28 view .LVU1580
 6186 032e 41A9     		add	r1, sp, #260
 6187              	.LVL540:
 6188              		.loc 14 177 28 view .LVU1581
 6189 0330 614B     		ldr	r3, .L387+32
 6190              	.LBB1217:
 6191              	.LBB1216:
 6192              		.loc 9 9 7 view .LVU1582
 6193 0332 4192     		str	r2, [sp, #260]
 6194              	.LVL541:
 6195              		.loc 9 9 7 view .LVU1583
ARM GAS  C:\Users\VINCIU~1\AppData\Local\Temp\cc6Tz7la.s 			page 175


 6196              	.LBE1216:
 6197              	.LBE1217:
 6198              		.loc 14 177 28 view .LVU1584
 6199 0334 6148     		ldr	r0, .L387+36
 6200 0336 624A     		ldr	r2, .L387+40
 6201 0338 FFF7FEFF 		bl	_ZN5Menus5Menu3E23OledDisplayExtravaganzaPN7daisysp10OscillatorERNS1_4AdsrE
 6202              	.LVL542:
 6203              	.LBB1218:
 6204              	.LBI1218:
 6205              		.loc 9 9 7 is_stmt 1 view .LVU1585
 6206              	.LBB1219:
 6207              	.LBB1220:
 6208              	.LBI1220:
  17:../../libdaisy/src/hid/disp/oled_display.h **** 
 6209              		.loc 8 17 13 view .LVU1586
 6210              	.LBB1221:
 6211              	.LBI1221:
 179:../../libdaisy/src/hid/disp/display.h **** 
 6212              		.loc 10 179 13 view .LVU1587
 6213              	.LBB1222:
 6214              	.LBI1222:
  22:../../libdaisy/src/hid/disp/display.h **** 
 6215              		.loc 10 22 13 view .LVU1588
 6216              	.L369:
  22:../../libdaisy/src/hid/disp/display.h **** 
 6217              		.loc 10 22 13 is_stmt 0 view .LVU1589
 6218              	.LBE1222:
 6219              	.LBE1221:
 6220              	.LBE1220:
 6221              	.LBE1219:
 6222              	.LBE1218:
 178:SynthMenis.cpp ****         }
 179:SynthMenis.cpp **** 
 180:SynthMenis.cpp **** 
 181:SynthMenis.cpp ****         if(midi.HasEvents())
 6223              		.loc 14 181 9 is_stmt 1 view .LVU1590
 6224              	.LBB1223:
 6225              	.LBI1223:
 132:../../libdaisy/src/hid/midi.h **** 
 6226              		.loc 16 132 10 view .LVU1591
 6227              	.LBB1224:
 6228              	.LBI1224:
  36:../../libdaisy/src/util/ringbuffer.h **** 
 6229              		.loc 20 36 19 view .LVU1592
 6230              	.LBB1225:
  36:../../libdaisy/src/util/ringbuffer.h **** 
 6231              		.loc 20 36 46 is_stmt 0 view .LVU1593
 6232 033c D4F88034 		ldr	r3, [r4, #1152]
  36:../../libdaisy/src/util/ringbuffer.h **** 
 6233              		.loc 20 36 59 view .LVU1594
 6234 0340 D4F87C24 		ldr	r2, [r4, #1148]
 6235              	.LVL543:
  36:../../libdaisy/src/util/ringbuffer.h **** 
 6236              		.loc 20 36 57 view .LVU1595
 6237 0344 9B1A     		subs	r3, r3, r2
  36:../../libdaisy/src/util/ringbuffer.h **** 
 6238              		.loc 20 36 72 view .LVU1596
ARM GAS  C:\Users\VINCIU~1\AppData\Local\Temp\cc6Tz7la.s 			page 176


 6239 0346 DBB2     		uxtb	r3, r3
 6240              	.LBE1225:
 6241              	.LBE1224:
 6242              	.LBE1223:
 6243              		.loc 14 181 9 view .LVU1597
 6244 0348 F3B1     		cbz	r3, .L370
 6245              	.L371:
 6246              	.LBB1226:
 6247              	.LBB1227:
 6248              	.LBB1228:
  59:../../libdaisy/src/util/ringbuffer.h ****     }
  60:../../libdaisy/src/util/ringbuffer.h **** 
  61:../../libdaisy/src/util/ringbuffer.h ****     /** Reads the first available element from the ring buffer
  62:../../libdaisy/src/util/ringbuffer.h ****     \return read value
  63:../../libdaisy/src/util/ringbuffer.h ****      */
  64:../../libdaisy/src/util/ringbuffer.h ****     inline T Read()
  65:../../libdaisy/src/util/ringbuffer.h ****     {
  66:../../libdaisy/src/util/ringbuffer.h ****         while(!readable())
 6249              		.loc 20 66 24 is_stmt 1 view .LVU1598
 6250              	.LVL544:
 6251              	.LBB1229:
 6252              	.LBI1229:
  36:../../libdaisy/src/util/ringbuffer.h **** 
 6253              		.loc 20 36 19 view .LVU1599
 6254              	.LBB1230:
  36:../../libdaisy/src/util/ringbuffer.h **** 
 6255              		.loc 20 36 46 is_stmt 0 view .LVU1600
 6256 034a D4F88034 		ldr	r3, [r4, #1152]
  36:../../libdaisy/src/util/ringbuffer.h **** 
 6257              		.loc 20 36 59 view .LVU1601
 6258 034e D4F87C24 		ldr	r2, [r4, #1148]
 6259              	.LVL545:
  36:../../libdaisy/src/util/ringbuffer.h **** 
 6260              		.loc 20 36 57 view .LVU1602
 6261 0352 9B1A     		subs	r3, r3, r2
  36:../../libdaisy/src/util/ringbuffer.h **** 
 6262              		.loc 20 36 72 view .LVU1603
 6263 0354 DBB2     		uxtb	r3, r3
 6264              	.LBE1230:
 6265              	.LBE1229:
 6266              		.loc 20 66 24 view .LVU1604
 6267 0356 002B     		cmp	r3, #0
 6268 0358 F7D0     		beq	.L371
 6269              	.LVL546:
 6270              	.LBB1231:
 6271              	.LBI1231:
  67:../../libdaisy/src/util/ringbuffer.h ****             ;
  68:../../libdaisy/src/util/ringbuffer.h ****         return ImmediateRead();
  69:../../libdaisy/src/util/ringbuffer.h ****     }
  70:../../libdaisy/src/util/ringbuffer.h **** 
  71:../../libdaisy/src/util/ringbuffer.h ****     /** Reads next element from ring buffer immediately
  72:../../libdaisy/src/util/ringbuffer.h ****     \return read value
  73:../../libdaisy/src/util/ringbuffer.h ****      */
  74:../../libdaisy/src/util/ringbuffer.h ****     inline T ImmediateRead()
 6272              		.loc 20 74 14 is_stmt 1 view .LVU1605
 6273              	.LBB1232:
  75:../../libdaisy/src/util/ringbuffer.h ****     {
ARM GAS  C:\Users\VINCIU~1\AppData\Local\Temp\cc6Tz7la.s 			page 177


  76:../../libdaisy/src/util/ringbuffer.h ****         size_t r      = read_ptr_;
  77:../../libdaisy/src/util/ringbuffer.h ****         T      result = buffer_[r];
 6274              		.loc 20 77 16 is_stmt 0 view .LVU1606
 6275 035a 4F4B     		ldr	r3, .L387
 6276 035c 7422     		movs	r2, #116
  76:../../libdaisy/src/util/ringbuffer.h ****         T      result = buffer_[r];
 6277              		.loc 20 76 16 view .LVU1607
 6278 035e D4F87C54 		ldr	r5, [r4, #1148]
 6279              	.LVL547:
 6280              		.loc 20 77 16 view .LVU1608
 6281 0362 4046     		mov	r0, r8
 6282 0364 02FB0531 		mla	r1, r2, r5, r3
  78:../../libdaisy/src/util/ringbuffer.h ****         read_ptr_     = (r + 1) % size;
 6283              		.loc 20 78 28 view .LVU1609
 6284 0368 0135     		adds	r5, r5, #1
 6285              	.LVL548:
 6286              		.loc 20 78 33 view .LVU1610
 6287 036a EDB2     		uxtb	r5, r5
  77:../../libdaisy/src/util/ringbuffer.h ****         read_ptr_     = (r + 1) % size;
 6288              		.loc 20 77 16 view .LVU1611
 6289 036c 7C31     		adds	r1, r1, #124
 6290 036e FFF7FEFF 		bl	memcpy
 6291              	.LVL549:
  77:../../libdaisy/src/util/ringbuffer.h ****         read_ptr_     = (r + 1) % size;
 6292              		.loc 20 77 16 view .LVU1612
 6293              	.LBE1232:
 6294              	.LBE1231:
 6295              	.LBE1228:
 6296              	.LBE1227:
 6297              	.LBE1226:
 182:SynthMenis.cpp ****         {
 183:SynthMenis.cpp ****             HandleMidiMessage(midi.PopEvent());
 6298              		.loc 14 183 30 view .LVU1613
 6299 0372 6422     		movs	r2, #100
 6300 0374 28A9     		add	r1, sp, #160
 6301 0376 6846     		mov	r0, sp
 6302              	.LBB1237:
 6303              	.LBB1236:
 6304              	.LBB1235:
 6305              	.LBB1234:
 6306              	.LBB1233:
 6307              		.loc 20 78 23 view .LVU1614
 6308 0378 C4F87C54 		str	r5, [r4, #1148]
 6309              	.LVL550:
 6310              		.loc 20 78 23 view .LVU1615
 6311              	.LBE1233:
 6312              	.LBE1234:
 6313              	.LBE1235:
 6314              	.LBE1236:
 6315              	.LBE1237:
 6316              		.loc 14 183 30 view .LVU1616
 6317 037c FFF7FEFF 		bl	memcpy
 6318              	.LVL551:
 6319 0380 98E80F00 		ldm	r8, {r0, r1, r2, r3}
 6320 0384 FFF7FEFF 		bl	_Z17HandleMidiMessage9MidiEvent
 6321              	.LVL552:
 6322              	.L370:
ARM GAS  C:\Users\VINCIU~1\AppData\Local\Temp\cc6Tz7la.s 			page 178


 184:SynthMenis.cpp ****         }
 185:SynthMenis.cpp ****         osc[0].SetFreq(mtof(osc1Freq + synthmenu.noteSemiAdd)
 6323              		.loc 14 185 9 is_stmt 1 view .LVU1617
 6324              	.LBB1238:
 6325              	.LBI1238:
 6326              		.file 21 "../../DaisySP/Source/Utility/dsp.h"
   1:../../DaisySP/Source/Utility/dsp.h **** /** Helpful defines, functions, and other utilities for use in/with daisysp modules.
   2:../../DaisySP/Source/Utility/dsp.h **** */
   3:../../DaisySP/Source/Utility/dsp.h **** #pragma once
   4:../../DaisySP/Source/Utility/dsp.h **** #ifndef DSY_CORE_DSP
   5:../../DaisySP/Source/Utility/dsp.h **** #define DSY_CORE_DSP
   6:../../DaisySP/Source/Utility/dsp.h **** #include <cassert>
   7:../../DaisySP/Source/Utility/dsp.h **** #include <cstdint>
   8:../../DaisySP/Source/Utility/dsp.h **** #include <random>
   9:../../DaisySP/Source/Utility/dsp.h **** #include <cmath>
  10:../../DaisySP/Source/Utility/dsp.h **** 
  11:../../DaisySP/Source/Utility/dsp.h **** /** PIs
  12:../../DaisySP/Source/Utility/dsp.h **** */
  13:../../DaisySP/Source/Utility/dsp.h **** #define PI_F 3.1415927410125732421875f
  14:../../DaisySP/Source/Utility/dsp.h **** #define TWOPI_F (2.0f * PI_F)
  15:../../DaisySP/Source/Utility/dsp.h **** #define HALFPI_F (PI_F * 0.5f)
  16:../../DaisySP/Source/Utility/dsp.h **** #define DSY_MIN(in, mn) (in < mn ? in : mn)
  17:../../DaisySP/Source/Utility/dsp.h **** #define DSY_MAX(in, mx) (in > mx ? in : mx)
  18:../../DaisySP/Source/Utility/dsp.h **** #define DSY_CLAMP(in, mn, mx) (DSY_MIN(DSY_MAX(in, mn), mx))
  19:../../DaisySP/Source/Utility/dsp.h **** #define DSY_COUNTOF(_arr) (sizeof(_arr) / sizeof(_arr[0]))
  20:../../DaisySP/Source/Utility/dsp.h **** 
  21:../../DaisySP/Source/Utility/dsp.h **** namespace daisysp
  22:../../DaisySP/Source/Utility/dsp.h **** {
  23:../../DaisySP/Source/Utility/dsp.h **** //Avoids division for random floats. e.g. rand() * kRandFrac
  24:../../DaisySP/Source/Utility/dsp.h **** static constexpr float kRandFrac = 1.f / (float)RAND_MAX;
  25:../../DaisySP/Source/Utility/dsp.h **** 
  26:../../DaisySP/Source/Utility/dsp.h **** //Convert from semitones to other units. e.g. 2 ^ (kOneTwelfth * x)
  27:../../DaisySP/Source/Utility/dsp.h **** static constexpr float kOneTwelfth = 1.f / 12.f;
  28:../../DaisySP/Source/Utility/dsp.h **** 
  29:../../DaisySP/Source/Utility/dsp.h **** /** efficient floating point min/max
  30:../../DaisySP/Source/Utility/dsp.h **** c/o stephen mccaul
  31:../../DaisySP/Source/Utility/dsp.h **** */
  32:../../DaisySP/Source/Utility/dsp.h **** inline float fmax(float a, float b)
  33:../../DaisySP/Source/Utility/dsp.h **** {
  34:../../DaisySP/Source/Utility/dsp.h ****     float r;
  35:../../DaisySP/Source/Utility/dsp.h **** #ifdef __arm__
  36:../../DaisySP/Source/Utility/dsp.h ****     asm("vmaxnm.f32 %[d], %[n], %[m]" : [d] "=t"(r) : [n] "t"(a), [m] "t"(b) :);
  37:../../DaisySP/Source/Utility/dsp.h **** #else
  38:../../DaisySP/Source/Utility/dsp.h ****     r = (a > b) ? a : b;
  39:../../DaisySP/Source/Utility/dsp.h **** #endif // __arm__
  40:../../DaisySP/Source/Utility/dsp.h ****     return r;
  41:../../DaisySP/Source/Utility/dsp.h **** }
  42:../../DaisySP/Source/Utility/dsp.h **** 
  43:../../DaisySP/Source/Utility/dsp.h **** inline float fmin(float a, float b)
  44:../../DaisySP/Source/Utility/dsp.h **** {
  45:../../DaisySP/Source/Utility/dsp.h ****     float r;
  46:../../DaisySP/Source/Utility/dsp.h **** #ifdef __arm__
  47:../../DaisySP/Source/Utility/dsp.h ****     asm("vminnm.f32 %[d], %[n], %[m]" : [d] "=t"(r) : [n] "t"(a), [m] "t"(b) :);
  48:../../DaisySP/Source/Utility/dsp.h **** #else
  49:../../DaisySP/Source/Utility/dsp.h ****     r = (a < b) ? a : b;
  50:../../DaisySP/Source/Utility/dsp.h **** #endif // __arm__
  51:../../DaisySP/Source/Utility/dsp.h ****     return r;
ARM GAS  C:\Users\VINCIU~1\AppData\Local\Temp\cc6Tz7la.s 			page 179


  52:../../DaisySP/Source/Utility/dsp.h **** }
  53:../../DaisySP/Source/Utility/dsp.h **** 
  54:../../DaisySP/Source/Utility/dsp.h **** /** quick fp clamp
  55:../../DaisySP/Source/Utility/dsp.h **** */
  56:../../DaisySP/Source/Utility/dsp.h **** inline float fclamp(float in, float min, float max)
  57:../../DaisySP/Source/Utility/dsp.h **** {
  58:../../DaisySP/Source/Utility/dsp.h ****     return fmin(fmax(in, min), max);
  59:../../DaisySP/Source/Utility/dsp.h **** }
  60:../../DaisySP/Source/Utility/dsp.h **** 
  61:../../DaisySP/Source/Utility/dsp.h **** /** From Musicdsp.org "Fast power and root estimates for 32bit floats)
  62:../../DaisySP/Source/Utility/dsp.h **** Original code by Stefan Stenzel
  63:../../DaisySP/Source/Utility/dsp.h **** These are approximations
  64:../../DaisySP/Source/Utility/dsp.h **** */
  65:../../DaisySP/Source/Utility/dsp.h **** inline float fastpower(float f, int n)
  66:../../DaisySP/Source/Utility/dsp.h **** {
  67:../../DaisySP/Source/Utility/dsp.h ****     long *lp, l;
  68:../../DaisySP/Source/Utility/dsp.h ****     lp = (long *)(&f);
  69:../../DaisySP/Source/Utility/dsp.h ****     l  = *lp;
  70:../../DaisySP/Source/Utility/dsp.h ****     l -= 0x3F800000;
  71:../../DaisySP/Source/Utility/dsp.h ****     l <<= (n - 1);
  72:../../DaisySP/Source/Utility/dsp.h ****     l += 0x3F800000;
  73:../../DaisySP/Source/Utility/dsp.h ****     *lp = l;
  74:../../DaisySP/Source/Utility/dsp.h ****     return f;
  75:../../DaisySP/Source/Utility/dsp.h **** }
  76:../../DaisySP/Source/Utility/dsp.h **** 
  77:../../DaisySP/Source/Utility/dsp.h **** inline float fastroot(float f, int n)
  78:../../DaisySP/Source/Utility/dsp.h **** {
  79:../../DaisySP/Source/Utility/dsp.h ****     long *lp, l;
  80:../../DaisySP/Source/Utility/dsp.h ****     lp = (long *)(&f);
  81:../../DaisySP/Source/Utility/dsp.h ****     l  = *lp;
  82:../../DaisySP/Source/Utility/dsp.h ****     l -= 0x3F800000;
  83:../../DaisySP/Source/Utility/dsp.h ****     l >>= (n = 1);
  84:../../DaisySP/Source/Utility/dsp.h ****     l += 0x3F800000;
  85:../../DaisySP/Source/Utility/dsp.h ****     *lp = l;
  86:../../DaisySP/Source/Utility/dsp.h ****     return f;
  87:../../DaisySP/Source/Utility/dsp.h **** }
  88:../../DaisySP/Source/Utility/dsp.h **** 
  89:../../DaisySP/Source/Utility/dsp.h **** /** From http://openaudio.blogspot.com/2017/02/faster-log10-and-pow.html
  90:../../DaisySP/Source/Utility/dsp.h **** No approximation, pow10f(x) gives a 90% speed increase over powf(10.f, x)
  91:../../DaisySP/Source/Utility/dsp.h **** */
  92:../../DaisySP/Source/Utility/dsp.h **** inline float pow10f(float f)
  93:../../DaisySP/Source/Utility/dsp.h **** {
  94:../../DaisySP/Source/Utility/dsp.h ****     return expf(2.302585092994046f * f);
  95:../../DaisySP/Source/Utility/dsp.h **** }
  96:../../DaisySP/Source/Utility/dsp.h **** 
  97:../../DaisySP/Source/Utility/dsp.h **** /* Original code for fastlog2f by Dr. Paul Beckmann from the ARM community forum, adapted from the 
  98:../../DaisySP/Source/Utility/dsp.h **** About 25% performance increase over std::log10f
  99:../../DaisySP/Source/Utility/dsp.h **** */
 100:../../DaisySP/Source/Utility/dsp.h **** inline float fastlog2f(float f)
 101:../../DaisySP/Source/Utility/dsp.h **** {
 102:../../DaisySP/Source/Utility/dsp.h ****     float frac;
 103:../../DaisySP/Source/Utility/dsp.h ****     int   exp;
 104:../../DaisySP/Source/Utility/dsp.h ****     frac = frexpf(fabsf(f), &exp);
 105:../../DaisySP/Source/Utility/dsp.h ****     f    = 1.23149591368684f;
 106:../../DaisySP/Source/Utility/dsp.h ****     f *= frac;
 107:../../DaisySP/Source/Utility/dsp.h ****     f += -4.11852516267426f;
 108:../../DaisySP/Source/Utility/dsp.h ****     f *= frac;
ARM GAS  C:\Users\VINCIU~1\AppData\Local\Temp\cc6Tz7la.s 			page 180


 109:../../DaisySP/Source/Utility/dsp.h ****     f += 6.02197014179219f;
 110:../../DaisySP/Source/Utility/dsp.h ****     f *= frac;
 111:../../DaisySP/Source/Utility/dsp.h ****     f += -3.13396450166353f;
 112:../../DaisySP/Source/Utility/dsp.h ****     f += exp;
 113:../../DaisySP/Source/Utility/dsp.h ****     return (f);
 114:../../DaisySP/Source/Utility/dsp.h **** }
 115:../../DaisySP/Source/Utility/dsp.h **** 
 116:../../DaisySP/Source/Utility/dsp.h **** inline float fastlog10f(float f)
 117:../../DaisySP/Source/Utility/dsp.h **** {
 118:../../DaisySP/Source/Utility/dsp.h ****     return fastlog2f(f) * 0.3010299956639812f;
 119:../../DaisySP/Source/Utility/dsp.h **** }
 120:../../DaisySP/Source/Utility/dsp.h **** 
 121:../../DaisySP/Source/Utility/dsp.h **** /** Midi to frequency helper
 122:../../DaisySP/Source/Utility/dsp.h **** */
 123:../../DaisySP/Source/Utility/dsp.h **** inline float mtof(float m)
 6327              		.loc 21 123 14 view .LVU1618
 6328              	.LBB1239:
 124:../../DaisySP/Source/Utility/dsp.h **** {
 125:../../DaisySP/Source/Utility/dsp.h ****     return powf(2, (m - 69.0f) / 12.0f) * 440.0f;
 6329              		.loc 21 125 5 view .LVU1619
 6330              	.LBE1239:
 6331              	.LBE1238:
 6332              		.loc 14 185 28 is_stmt 0 view .LVU1620
 6333 0388 96ED597A 		vldr.32	s14, [r6, #356]	@ int
 6334              	.LBB1244:
 6335              	.LBB1240:
 6336              		.loc 21 125 16 view .LVU1621
 6337 038c B2EE089A 		vmov.f32	s18, #1.2e+1
 6338              	.LBE1240:
 6339              	.LBE1244:
 6340              		.loc 14 185 28 view .LVU1622
 6341 0390 DAED007A 		vldr.32	s15, [r10]
 186:SynthMenis.cpp ****                        * (1 + synthmenu.freqFine));
 6342              		.loc 14 186 29 view .LVU1623
 6343 0394 B7EE008A 		vmov.f32	s16, #1.0e+0
 185:SynthMenis.cpp ****                        * (1 + synthmenu.freqFine));
 6344              		.loc 14 185 28 view .LVU1624
 6345 0398 F8EEC70A 		vcvt.f32.s32	s1, s14
 6346              	.LBB1245:
 6347              	.LBB1241:
 6348              		.loc 21 125 23 view .LVU1625
 6349 039c DFED499A 		vldr.32	s19, .L387+44
 6350              		.loc 21 125 16 view .LVU1626
 6351 03a0 B0EE000A 		vmov.f32	s0, #2.0e+0
 6352              		.loc 21 125 43 view .LVU1627
 6353 03a4 DFED488A 		vldr.32	s17, .L387+48
 6354              	.LBE1241:
 6355              	.LBE1245:
 185:SynthMenis.cpp ****                        * (1 + synthmenu.freqFine));
 6356              		.loc 14 185 28 view .LVU1628
 6357 03a8 70EEA70A 		vadd.f32	s1, s1, s15
 6358              	.LVL553:
 6359              	.LBB1246:
 6360              	.LBB1242:
 6361              		.loc 21 125 23 view .LVU1629
 6362 03ac 70EEE90A 		vsub.f32	s1, s1, s19
 6363              	.LVL554:
ARM GAS  C:\Users\VINCIU~1\AppData\Local\Temp\cc6Tz7la.s 			page 181


 6364              		.loc 21 125 16 view .LVU1630
 6365 03b0 C0EE890A 		vdiv.f32	s1, s1, s18
 6366 03b4 FFF7FEFF 		bl	powf
 6367              	.LVL555:
 6368              		.loc 21 125 16 view .LVU1631
 6369              	.LBE1242:
 6370              	.LBE1246:
 6371              		.loc 14 186 29 view .LVU1632
 6372 03b8 D6ED5D7A 		vldr.32	s15, [r6, #372]
 6373              	.LBB1247:
 6374              	.LBB1248:
  61:../../DaisySP/Source/Synthesis/oscillator.h ****     }
 6375              		.loc 17 61 34 view .LVU1633
 6376 03bc 4048     		ldr	r0, .L387+40
 6377              	.LBE1248:
 6378              	.LBE1247:
 6379              		.loc 14 186 29 view .LVU1634
 6380 03be 77EE887A 		vadd.f32	s15, s15, s16
 6381              	.LBB1251:
 6382              	.LBB1243:
 6383              		.loc 21 125 43 view .LVU1635
 6384 03c2 20EE280A 		vmul.f32	s0, s0, s17
 6385              	.LBE1243:
 6386              	.LBE1251:
 185:SynthMenis.cpp ****                        * (1 + synthmenu.freqFine));
 6387              		.loc 14 185 23 view .LVU1636
 6388 03c6 27EE800A 		vmul.f32	s0, s15, s0
 6389              	.LVL556:
 6390              	.LBB1252:
 6391              	.LBI1247:
  58:../../DaisySP/Source/Synthesis/oscillator.h ****     {
 6392              		.loc 17 58 17 is_stmt 1 view .LVU1637
 6393              	.LBB1249:
  60:../../DaisySP/Source/Synthesis/oscillator.h ****         phase_inc_ = CalcPhaseInc(f);
 6394              		.loc 17 60 9 view .LVU1638
  60:../../DaisySP/Source/Synthesis/oscillator.h ****         phase_inc_ = CalcPhaseInc(f);
 6395              		.loc 17 60 20 is_stmt 0 view .LVU1639
 6396 03ca 87ED020A 		vstr.32	s0, [r7, #8]
  61:../../DaisySP/Source/Synthesis/oscillator.h ****     }
 6397              		.loc 17 61 9 is_stmt 1 view .LVU1640
  61:../../DaisySP/Source/Synthesis/oscillator.h ****     }
 6398              		.loc 17 61 34 is_stmt 0 view .LVU1641
 6399 03ce FFF7FEFF 		bl	_ZN7daisysp10Oscillator12CalcPhaseIncEf
 6400              	.LVL557:
  61:../../DaisySP/Source/Synthesis/oscillator.h ****     }
 6401              		.loc 17 61 34 view .LVU1642
 6402 03d2 B0EE407A 		vmov.f32	s14, s0
 6403              	.LBE1249:
 6404              	.LBE1252:
 187:SynthMenis.cpp ****         osc[1].SetFreq(mtof(osc1Freq + synthmenu.noteSemiAdd2)
 6405              		.loc 14 187 28 view .LVU1643
 6406 03d6 DAED007A 		vldr.32	s15, [r10]
 6407              	.LBB1253:
 6408              	.LBB1254:
 6409              		.loc 21 125 16 view .LVU1644
 6410 03da B0EE000A 		vmov.f32	s0, #2.0e+0
 6411              	.LBE1254:
ARM GAS  C:\Users\VINCIU~1\AppData\Local\Temp\cc6Tz7la.s 			page 182


 6412              	.LBE1253:
 6413              	.LBB1258:
 6414              	.LBB1250:
  61:../../DaisySP/Source/Synthesis/oscillator.h ****     }
 6415              		.loc 17 61 20 view .LVU1645
 6416 03de 87ED067A 		vstr.32	s14, [r7, #24]
 6417              	.LVL558:
  61:../../DaisySP/Source/Synthesis/oscillator.h ****     }
 6418              		.loc 17 61 20 view .LVU1646
 6419              	.LBE1250:
 6420              	.LBE1258:
 6421              		.loc 14 187 9 is_stmt 1 view .LVU1647
 6422              	.LBB1259:
 6423              	.LBI1253:
 123:../../DaisySP/Source/Utility/dsp.h **** {
 6424              		.loc 21 123 14 view .LVU1648
 6425              	.LBB1255:
 6426              		.loc 21 125 5 view .LVU1649
 6427              	.LBE1255:
 6428              	.LBE1259:
 6429              		.loc 14 187 28 is_stmt 0 view .LVU1650
 6430 03e2 96ED5A7A 		vldr.32	s14, [r6, #360]	@ int
 6431 03e6 F8EEC70A 		vcvt.f32.s32	s1, s14
 6432 03ea 70EEA70A 		vadd.f32	s1, s1, s15
 6433              	.LVL559:
 6434              	.LBB1260:
 6435              	.LBB1256:
 6436              		.loc 21 125 23 view .LVU1651
 6437 03ee 70EEE90A 		vsub.f32	s1, s1, s19
 6438              	.LVL560:
 6439              		.loc 21 125 16 view .LVU1652
 6440 03f2 C0EE890A 		vdiv.f32	s1, s1, s18
 6441 03f6 FFF7FEFF 		bl	powf
 6442              	.LVL561:
 6443              		.loc 21 125 16 view .LVU1653
 6444              	.LBE1256:
 6445              	.LBE1260:
 188:SynthMenis.cpp ****                        * (1 + synthmenu.freqFine2));
 6446              		.loc 14 188 29 view .LVU1654
 6447 03fa D6ED5E7A 		vldr.32	s15, [r6, #376]
 6448              	.LBB1261:
 6449              	.LBB1262:
  61:../../DaisySP/Source/Synthesis/oscillator.h ****     }
 6450              		.loc 17 61 34 view .LVU1655
 6451 03fe 3348     		ldr	r0, .L387+52
 6452              	.LBE1262:
 6453              	.LBE1261:
 6454              		.loc 14 188 29 view .LVU1656
 6455 0400 77EE887A 		vadd.f32	s15, s15, s16
 6456              	.LBB1264:
 6457              	.LBB1257:
 6458              		.loc 21 125 43 view .LVU1657
 6459 0404 20EE280A 		vmul.f32	s0, s0, s17
 6460              	.LBE1257:
 6461              	.LBE1264:
 187:SynthMenis.cpp ****                        * (1 + synthmenu.freqFine2));
 6462              		.loc 14 187 23 view .LVU1658
ARM GAS  C:\Users\VINCIU~1\AppData\Local\Temp\cc6Tz7la.s 			page 183


 6463 0408 27EE800A 		vmul.f32	s0, s15, s0
 6464              	.LVL562:
 6465              	.LBB1265:
 6466              	.LBI1261:
  58:../../DaisySP/Source/Synthesis/oscillator.h ****     {
 6467              		.loc 17 58 17 is_stmt 1 view .LVU1659
 6468              	.LBB1263:
  60:../../DaisySP/Source/Synthesis/oscillator.h ****         phase_inc_ = CalcPhaseInc(f);
 6469              		.loc 17 60 9 view .LVU1660
  60:../../DaisySP/Source/Synthesis/oscillator.h ****         phase_inc_ = CalcPhaseInc(f);
 6470              		.loc 17 60 20 is_stmt 0 view .LVU1661
 6471 040c 87ED0C0A 		vstr.32	s0, [r7, #48]
  61:../../DaisySP/Source/Synthesis/oscillator.h ****     }
 6472              		.loc 17 61 9 is_stmt 1 view .LVU1662
  61:../../DaisySP/Source/Synthesis/oscillator.h ****     }
 6473              		.loc 17 61 34 is_stmt 0 view .LVU1663
 6474 0410 FFF7FEFF 		bl	_ZN7daisysp10Oscillator12CalcPhaseIncEf
 6475              	.LVL563:
  61:../../DaisySP/Source/Synthesis/oscillator.h ****     }
 6476              		.loc 17 61 20 view .LVU1664
 6477 0414 87ED100A 		vstr.32	s0, [r7, #64]
  62:../../DaisySP/Source/Synthesis/oscillator.h **** 
 6478              		.loc 17 62 5 view .LVU1665
 6479 0418 1EE7     		b	.L372
 6480              	.LVL564:
 6481              	.L364:
  62:../../DaisySP/Source/Synthesis/oscillator.h **** 
 6482              		.loc 17 62 5 view .LVU1666
 6483              	.LBE1263:
 6484              	.LBE1265:
 162:SynthMenis.cpp ****         {
 6485              		.loc 14 162 9 is_stmt 1 view .LVU1667
 6486 041a 002B     		cmp	r3, #0
 6487 041c 24DA     		bge	.L366
 164:SynthMenis.cpp ****         }
 6488              		.loc 14 164 13 view .LVU1668
 164:SynthMenis.cpp ****         }
 6489              		.loc 14 164 24 is_stmt 0 view .LVU1669
 6490 041e 0023     		movs	r3, #0
 6491 0420 C9F80030 		str	r3, [r9]
 167:SynthMenis.cpp ****         {
 6492              		.loc 14 167 9 is_stmt 1 view .LVU1670
 6493              	.L367:
 169:SynthMenis.cpp ****         }
 6494              		.loc 14 169 13 view .LVU1671
 6495              	.LVL565:
 6496              	.LBB1266:
 6497              	.LBI1266:
 6498              		.loc 9 9 7 view .LVU1672
 6499              	.LBB1267:
 6500              	.LBB1268:
 6501              	.LBI1268:
  13:../../libdaisy/src/hid/disp/oled_display.h **** {
 6502              		.loc 8 13 7 view .LVU1673
 6503              	.LBB1269:
 6504              	.LBB1270:
 6505              	.LBB1271:
ARM GAS  C:\Users\VINCIU~1\AppData\Local\Temp\cc6Tz7la.s 			page 184


 6506              	.LBI1271:
 175:../../libdaisy/src/hid/disp/display.h **** {
 6507              		.loc 10 175 7 view .LVU1674
 6508              	.LBB1272:
 6509              	.LBI1272:
  18:../../libdaisy/src/hid/disp/display.h **** {
 6510              		.loc 10 18 7 view .LVU1675
 6511              	.LBB1273:
 6512              	.LBB1274:
 6513 0424 DBF80430 		ldr	r3, [fp, #4]
 6514              	.LBE1274:
 6515              	.LBE1273:
 6516              	.LBE1272:
 6517              	.LBE1271:
  13:../../libdaisy/src/hid/disp/oled_display.h **** {
 6518              		.loc 8 13 7 is_stmt 0 view .LVU1676
 6519 0428 40F20C42 		movw	r2, #1036
 6520 042c 2049     		ldr	r1, .L387+24
 6521 042e 43A8     		add	r0, sp, #268
 6522              	.LBB1278:
 6523              	.LBB1277:
 6524              	.LBB1276:
 6525              	.LBB1275:
  18:../../libdaisy/src/hid/disp/display.h **** {
 6526              		.loc 10 18 7 view .LVU1677
 6527 0430 4293     		str	r3, [sp, #264]
 6528              	.LVL566:
  18:../../libdaisy/src/hid/disp/display.h **** {
 6529              		.loc 10 18 7 view .LVU1678
 6530              	.LBE1275:
 6531              	.LBE1276:
 6532              	.LBE1277:
 6533              	.LBE1278:
  13:../../libdaisy/src/hid/disp/oled_display.h **** {
 6534              		.loc 8 13 7 view .LVU1679
 6535 0432 FFF7FEFF 		bl	memcpy
 6536              	.LVL567:
  13:../../libdaisy/src/hid/disp/oled_display.h **** {
 6537              		.loc 8 13 7 view .LVU1680
 6538              	.LBE1270:
 6539              	.LBE1269:
 6540              	.LBE1268:
 6541              		.loc 9 9 7 view .LVU1681
 6542 0436 1F4B     		ldr	r3, .L387+28
 6543              	.LBE1267:
 6544              	.LBE1266:
 169:SynthMenis.cpp ****         }
 6545              		.loc 14 169 28 view .LVU1682
 6546 0438 41A9     		add	r1, sp, #260
 6547              	.LVL568:
 169:SynthMenis.cpp ****         }
 6548              		.loc 14 169 28 view .LVU1683
 6549 043a 214A     		ldr	r2, .L387+40
 6550 043c 1F48     		ldr	r0, .L387+36
 6551              	.LBB1280:
 6552              	.LBB1279:
 6553              		.loc 9 9 7 view .LVU1684
ARM GAS  C:\Users\VINCIU~1\AppData\Local\Temp\cc6Tz7la.s 			page 185


 6554 043e 4193     		str	r3, [sp, #260]
 6555              	.LVL569:
 6556              		.loc 9 9 7 view .LVU1685
 6557              	.LBE1279:
 6558              	.LBE1280:
 169:SynthMenis.cpp ****         }
 6559              		.loc 14 169 28 view .LVU1686
 6560 0440 FFF7FEFF 		bl	_ZN5Menus5Menu1E23OledDisplayExtravaganzaPN7daisysp10OscillatorE
 6561              	.LVL570:
 6562              	.LBB1281:
 6563              	.LBI1281:
 6564              		.loc 9 9 7 is_stmt 1 view .LVU1687
 6565              	.LBB1282:
 6566              	.LBB1283:
 6567              	.LBI1283:
  17:../../libdaisy/src/hid/disp/oled_display.h **** 
 6568              		.loc 8 17 13 view .LVU1688
 6569              	.LBB1284:
 6570              	.LBI1284:
 179:../../libdaisy/src/hid/disp/display.h **** 
 6571              		.loc 10 179 13 view .LVU1689
 6572              	.LBB1285:
 6573              	.LBI1285:
  22:../../libdaisy/src/hid/disp/display.h **** 
 6574              		.loc 10 22 13 view .LVU1690
  22:../../libdaisy/src/hid/disp/display.h **** 
 6575              		.loc 10 22 13 is_stmt 0 view .LVU1691
 6576              	.LBE1285:
 6577              	.LBE1284:
 6578              	.LBE1283:
 6579              	.LBE1282:
 6580              	.LBE1281:
 6581 0444 7AE7     		b	.L369
 6582              	.L381:
 147:SynthMenis.cpp ****         {
 6583              		.loc 14 147 9 is_stmt 1 view .LVU1692
 6584 0446 B5EEC07A 		vcmpe.f32	s14, #0
 6585 044a 0023     		movs	r3, #0
 6586 044c F1EE10FA 		vmrs	APSR_nzcv, FPSCR
 149:SynthMenis.cpp ****         }
 6587              		.loc 14 149 13 view .LVU1693
 149:SynthMenis.cpp ****         }
 6588              		.loc 14 149 34 is_stmt 0 view .LVU1694
 6589 0450 48BF     		it	mi
 6590 0452 3360     		strmi	r3, [r6]	@ float
 6591 0454 0CE7     		b	.L359
 6592              	.LVL571:
 6593              	.L384:
 6594              	.LBB1286:
 6595              	.LBB1200:
 123:../../libdaisy/src/hid/midi.h ****             transport_.FlushRx();
 6596              		.loc 16 123 21 view .LVU1695
 6597 0456 104B     		ldr	r3, .L387
 6598 0458 1871     		strb	r0, [r3, #4]
 6599              	.LVL572:
 6600              	.LBB1194:
 6601              	.LBI1194:
ARM GAS  C:\Users\VINCIU~1\AppData\Local\Temp\cc6Tz7la.s 			page 186


  63:../../libdaisy/src/hid/midi.h ****     inline void    Tx(uint8_t* buff, size_t size) { uart_.PollTx(buff, size); }
 6602              		.loc 16 63 20 is_stmt 1 view .LVU1696
 6603              	.LBB1195:
  63:../../libdaisy/src/hid/midi.h ****     inline void    Tx(uint8_t* buff, size_t size) { uart_.PollTx(buff, size); }
 6604              		.loc 16 63 32 view .LVU1697
  63:../../libdaisy/src/hid/midi.h ****     inline void    Tx(uint8_t* buff, size_t size) { uart_.PollTx(buff, size); }
 6605              		.loc 16 63 45 is_stmt 0 view .LVU1698
 6606 045a 1048     		ldr	r0, .L387+4
 6607              	.LVL573:
  63:../../libdaisy/src/hid/midi.h ****     inline void    Tx(uint8_t* buff, size_t size) { uart_.PollTx(buff, size); }
 6608              		.loc 16 63 45 view .LVU1699
 6609 045c FFF7FEFF 		bl	_ZN5daisy11UartHandler7FlushRxEv
 6610              	.LVL574:
  63:../../libdaisy/src/hid/midi.h ****     inline void    Tx(uint8_t* buff, size_t size) { uart_.PollTx(buff, size); }
 6611              		.loc 16 63 45 view .LVU1700
 6612              	.LBE1195:
 6613              	.LBE1194:
 6614              	.LBB1196:
 6615              	.LBI1196:
 105:../../libdaisy/src/hid/midi.h **** 
 6616              		.loc 16 105 10 is_stmt 1 view .LVU1701
 6617              	.LBB1197:
 6618              	.LBB1198:
 6619              	.LBI1198:
  59:../../libdaisy/src/hid/midi.h ****     inline size_t  Readable() { return uart_.Readable(); }
 6620              		.loc 16 59 20 view .LVU1702
 6621              	.LBB1199:
  59:../../libdaisy/src/hid/midi.h ****     inline size_t  Readable() { return uart_.Readable(); }
 6622              		.loc 16 59 32 view .LVU1703
  59:../../libdaisy/src/hid/midi.h ****     inline size_t  Readable() { return uart_.Readable(); }
 6623              		.loc 16 59 45 is_stmt 0 view .LVU1704
 6624 0460 0E48     		ldr	r0, .L387+4
 6625              	.LVL575:
  59:../../libdaisy/src/hid/midi.h ****     inline size_t  Readable() { return uart_.Readable(); }
 6626              		.loc 16 59 45 view .LVU1705
 6627 0462 FFF7FEFF 		bl	_ZN5daisy11UartHandler7StartRxEv
 6628              	.LVL576:
  59:../../libdaisy/src/hid/midi.h ****     inline size_t  Readable() { return uart_.Readable(); }
 6629              		.loc 16 59 45 view .LVU1706
 6630              	.LBE1199:
 6631              	.LBE1198:
 105:../../libdaisy/src/hid/midi.h **** 
 6632              		.loc 16 105 49 view .LVU1707
 6633 0466 42E7     		b	.L363
 6634              	.LVL577:
 6635              	.L366:
 105:../../libdaisy/src/hid/midi.h **** 
 6636              		.loc 16 105 49 view .LVU1708
 6637              	.LBE1197:
 6638              	.LBE1196:
 6639              	.LBE1200:
 6640              	.LBE1286:
 157:SynthMenis.cpp ****         if(navigation > 2)
 6641              		.loc 14 157 20 view .LVU1709
 6642 0468 C9F80030 		str	r3, [r9]
 167:SynthMenis.cpp ****         {
 6643              		.loc 14 167 9 is_stmt 1 view .LVU1710
ARM GAS  C:\Users\VINCIU~1\AppData\Local\Temp\cc6Tz7la.s 			page 187


 6644 046c DAD0     		beq	.L367
 171:SynthMenis.cpp ****         {
 6645              		.loc 14 171 14 view .LVU1711
 6646 046e 012B     		cmp	r3, #1
 6647 0470 7FF453AF 		bne	.L365
 173:SynthMenis.cpp ****         }
 6648              		.loc 14 173 13 view .LVU1712
 6649              	.LVL578:
 6650              	.LBB1287:
 6651              	.LBI1287:
 6652              		.loc 9 9 7 view .LVU1713
 6653              	.LBB1288:
 6654              	.LBB1289:
 6655              	.LBI1289:
  13:../../libdaisy/src/hid/disp/oled_display.h **** {
 6656              		.loc 8 13 7 view .LVU1714
 6657              	.LBB1290:
 6658              	.LBB1291:
 6659              	.LBB1292:
 6660              	.LBI1292:
 175:../../libdaisy/src/hid/disp/display.h **** {
 6661              		.loc 10 175 7 view .LVU1715
 6662              	.LBB1293:
 6663              	.LBI1293:
  18:../../libdaisy/src/hid/disp/display.h **** {
 6664              		.loc 10 18 7 view .LVU1716
 6665              	.LBB1294:
 6666              	.LBB1295:
 6667 0474 DBF80430 		ldr	r3, [fp, #4]
 6668              	.LBE1295:
 6669              	.LBE1294:
 6670              	.LBE1293:
 6671              	.LBE1292:
  13:../../libdaisy/src/hid/disp/oled_display.h **** {
 6672              		.loc 8 13 7 is_stmt 0 view .LVU1717
 6673 0478 40F20C42 		movw	r2, #1036
 6674 047c 0C49     		ldr	r1, .L387+24
 6675 047e 43A8     		add	r0, sp, #268
 6676              	.LBB1299:
 6677              	.LBB1298:
 6678              	.LBB1297:
 6679              	.LBB1296:
  18:../../libdaisy/src/hid/disp/display.h **** {
 6680              		.loc 10 18 7 view .LVU1718
 6681 0480 4293     		str	r3, [sp, #264]
 6682              	.LVL579:
  18:../../libdaisy/src/hid/disp/display.h **** {
 6683              		.loc 10 18 7 view .LVU1719
 6684              	.LBE1296:
 6685              	.LBE1297:
 6686              	.LBE1298:
 6687              	.LBE1299:
  13:../../libdaisy/src/hid/disp/oled_display.h **** {
 6688              		.loc 8 13 7 view .LVU1720
 6689 0482 FFF7FEFF 		bl	memcpy
 6690              	.LVL580:
  13:../../libdaisy/src/hid/disp/oled_display.h **** {
ARM GAS  C:\Users\VINCIU~1\AppData\Local\Temp\cc6Tz7la.s 			page 188


 6691              		.loc 8 13 7 view .LVU1721
 6692              	.LBE1291:
 6693              	.LBE1290:
 6694              	.LBE1289:
 6695              		.loc 9 9 7 view .LVU1722
 6696 0486 0B4B     		ldr	r3, .L387+28
 6697              	.LBE1288:
 6698              	.LBE1287:
 173:SynthMenis.cpp ****         }
 6699              		.loc 14 173 28 view .LVU1723
 6700 0488 41A9     		add	r1, sp, #260
 6701              	.LVL581:
 173:SynthMenis.cpp ****         }
 6702              		.loc 14 173 28 view .LVU1724
 6703 048a 0D4A     		ldr	r2, .L387+40
 6704 048c 0B48     		ldr	r0, .L387+36
 6705              	.LBB1301:
 6706              	.LBB1300:
 6707              		.loc 9 9 7 view .LVU1725
 6708 048e 4193     		str	r3, [sp, #260]
 6709              	.LVL582:
 6710              		.loc 9 9 7 view .LVU1726
 6711              	.LBE1300:
 6712              	.LBE1301:
 173:SynthMenis.cpp ****         }
 6713              		.loc 14 173 28 view .LVU1727
 6714 0490 FFF7FEFF 		bl	_ZN5Menus5Menu2E23OledDisplayExtravaganzaPN7daisysp10OscillatorE
 6715              	.LVL583:
 6716              	.LBB1302:
 6717              	.LBI1302:
 6718              		.loc 9 9 7 is_stmt 1 view .LVU1728
 6719              	.LBB1303:
 6720              	.LBB1304:
 6721              	.LBI1304:
  17:../../libdaisy/src/hid/disp/oled_display.h **** 
 6722              		.loc 8 17 13 view .LVU1729
 6723              	.LBB1305:
 6724              	.LBI1305:
 179:../../libdaisy/src/hid/disp/display.h **** 
 6725              		.loc 10 179 13 view .LVU1730
 6726              	.LBB1306:
 6727              	.LBI1306:
  22:../../libdaisy/src/hid/disp/display.h **** 
 6728              		.loc 10 22 13 view .LVU1731
  22:../../libdaisy/src/hid/disp/display.h **** 
 6729              		.loc 10 22 13 is_stmt 0 view .LVU1732
 6730              	.LBE1306:
 6731              	.LBE1305:
 6732              	.LBE1304:
 6733              	.LBE1303:
 6734              	.LBE1302:
 6735 0494 52E7     		b	.L369
 6736              	.L388:
 6737 0496 00BF     		.align	2
 6738              	.L387:
 6739 0498 00000000 		.word	midi
 6740 049c 94740000 		.word	midi+29844
ARM GAS  C:\Users\VINCIU~1\AppData\Local\Temp\cc6Tz7la.s 			page 189


 6741 04a0 4C000000 		.word	.LANCHOR3+76
 6742 04a4 5C000000 		.word	.LANCHOR3+92
 6743 04a8 0C000000 		.word	.LANCHOR3+12
 6744 04ac 2C000000 		.word	.LANCHOR3+44
 6745 04b0 08000000 		.word	.LANCHOR8+8
 6746 04b4 08000000 		.word	_ZTV23OledDisplayExtravaganza+8
 6747 04b8 00000000 		.word	.LANCHOR1
 6748 04bc 00000000 		.word	.LANCHOR3
 6749 04c0 00000000 		.word	.LANCHOR2
 6750 04c4 00008A42 		.word	1116340224
 6751 04c8 0000DC43 		.word	1138491392
 6752 04cc 28000000 		.word	.LANCHOR2+40
 6753              		.cfi_endproc
 6754              	.LFE4039:
 6756              		.section	.text.startup._GLOBAL__sub_I_synthmenu,"ax",%progbits
 6757              		.align	1
 6758              		.p2align 2,,3
 6759              		.syntax unified
 6760              		.thumb
 6761              		.thumb_func
 6762              		.fpu fpv5-d16
 6764              	_GLOBAL__sub_I_synthmenu:
 6765              	.LFB4649:
 189:SynthMenis.cpp ****     }
 190:SynthMenis.cpp **** }
 6766              		.loc 14 190 1 is_stmt 1 view -0
 6767              		.cfi_startproc
 6768              		@ args = 0, pretend = 0, frame = 0
 6769              		@ frame_needed = 0, uses_anonymous_args = 0
 6770              	.LBB1349:
 6771              	.LBI1349:
 6772              		.loc 14 190 1 view .LVU1734
 6773              	.LVL584:
 6774              		.loc 14 190 1 is_stmt 0 view .LVU1735
 6775              	.LBE1349:
 6776 0000 70B5     		push	{r4, r5, r6, lr}
 6777              		.cfi_def_cfa_offset 16
 6778              		.cfi_offset 4, -16
 6779              		.cfi_offset 5, -12
 6780              		.cfi_offset 6, -8
 6781              		.cfi_offset 14, -4
 6782              	.LBB1424:
 6783              	.LBB1350:
  13:SynthMenis.cpp **** DaisySeed                              hw;
 6784              		.loc 14 13 40 view .LVU1736
 6785 0002 2C4C     		ldr	r4, .L391
 6786 0004 2C4D     		ldr	r5, .L391+4
 6787 0006 2046     		mov	r0, r4
  15:SynthMenis.cpp **** const int                              height = screen.Height();
 6788              		.loc 14 15 40 view .LVU1737
 6789 0008 2C4E     		ldr	r6, .L391+8
  13:SynthMenis.cpp **** DaisySeed                              hw;
 6790              		.loc 14 13 40 view .LVU1738
 6791 000a FFF7FEFF 		bl	_ZN5MenusC1Ev
 6792              	.LVL585:
 6793 000e 2A46     		mov	r2, r5
 6794 0010 2B49     		ldr	r1, .L391+12
ARM GAS  C:\Users\VINCIU~1\AppData\Local\Temp\cc6Tz7la.s 			page 190


 6795 0012 2046     		mov	r0, r4
 6796 0014 FFF7FEFF 		bl	__aeabi_atexit
 6797              	.LVL586:
 6798              	.LBB1351:
 6799              	.LBI1351:
  21:../../libdaisy/src/daisy_seed.h ****     ~DaisySeed() {}
 6800              		.loc 1 21 5 is_stmt 1 view .LVU1739
 6801              	.LBB1352:
 6802              	.LBB1353:
 6803              	.LBI1353:
  62:../../libdaisy/src/hid/audio.h ****     ~AudioHandle() {}
 6804              		.loc 5 62 5 view .LVU1740
 6805              	.LBB1354:
 6806              	.LBB1355:
  62:../../libdaisy/src/hid/audio.h ****     ~AudioHandle() {}
 6807              		.loc 5 62 35 is_stmt 0 view .LVU1741
 6808 0018 0024     		movs	r4, #0
 6809 001a 2A48     		ldr	r0, .L391+16
 6810              	.LBE1355:
 6811              	.LBE1354:
 6812              	.LBE1353:
 6813              	.LBE1352:
 6814              	.LBE1351:
  14:SynthMenis.cpp **** OledDisplayExtravaganza                screen;
 6815              		.loc 14 14 40 view .LVU1742
 6816 001c 2A46     		mov	r2, r5
 6817 001e 2A49     		ldr	r1, .L391+20
 6818              	.LBB1366:
 6819              	.LBB1365:
 6820              	.LBB1358:
 6821              	.LBB1357:
 6822              	.LBB1356:
  62:../../libdaisy/src/hid/audio.h ****     ~AudioHandle() {}
 6823              		.loc 5 62 35 view .LVU1743
 6824 0020 4461     		str	r4, [r0, #20]
 6825              	.LVL587:
  62:../../libdaisy/src/hid/audio.h ****     ~AudioHandle() {}
 6826              		.loc 5 62 35 view .LVU1744
 6827              	.LBE1356:
 6828              	.LBE1357:
 6829              	.LBE1358:
 6830              	.LBB1359:
 6831              	.LBI1359:
  84:../../libdaisy/src/per/adc.h ****     ~AdcHandle() {}
 6832              		.loc 4 84 5 is_stmt 1 view .LVU1745
  84:../../libdaisy/src/per/adc.h ****     ~AdcHandle() {}
 6833              		.loc 4 84 5 is_stmt 0 view .LVU1746
 6834              	.LBE1359:
 6835              	.LBB1360:
 6836              	.LBI1360:
 6837              		.file 22 "../../libdaisy/src/per/dac.h"
   1:../../libdaisy/src/per/dac.h **** #pragma once
   2:../../libdaisy/src/per/dac.h **** #ifndef DSY_DAC_H
   3:../../libdaisy/src/per/dac.h **** #define DSY_DAC_H
   4:../../libdaisy/src/per/dac.h **** 
   5:../../libdaisy/src/per/dac.h **** #include "daisy_core.h"
   6:../../libdaisy/src/per/dac.h **** 
ARM GAS  C:\Users\VINCIU~1\AppData\Local\Temp\cc6Tz7la.s 			page 191


   7:../../libdaisy/src/per/dac.h **** namespace daisy
   8:../../libdaisy/src/per/dac.h **** {
   9:../../libdaisy/src/per/dac.h **** /** DAC handle for Built-in DAC Peripheral 
  10:../../libdaisy/src/per/dac.h ****  ** 
  11:../../libdaisy/src/per/dac.h ****  ** For now only Normal Mode is supported,
  12:../../libdaisy/src/per/dac.h ****  ** Sample and hold mode provides reduced power consumption, but requires a bit more setup.
  13:../../libdaisy/src/per/dac.h ****  **
  14:../../libdaisy/src/per/dac.h ****  ** For now connecting the DAC through other internal periphearls is also not supported.
  15:../../libdaisy/src/per/dac.h ****  **
  16:../../libdaisy/src/per/dac.h ****  ** Since the DAC channels have dedicated pins we don't need to pass in a pin config like with
  17:../../libdaisy/src/per/dac.h ****  ** other modules. However, it is still important to not try to use the DAC pins for anything else.
  18:../../libdaisy/src/per/dac.h ****  ** DAC Channel 1 is on PA4, and DAC Channel 2 is on PA5
  19:../../libdaisy/src/per/dac.h ****  ***/
  20:../../libdaisy/src/per/dac.h **** class DacHandle
  21:../../libdaisy/src/per/dac.h **** {
  22:../../libdaisy/src/per/dac.h ****   public:
  23:../../libdaisy/src/per/dac.h ****     /** Return Values for the DacHandle class */
  24:../../libdaisy/src/per/dac.h ****     enum class Result
  25:../../libdaisy/src/per/dac.h ****     {
  26:../../libdaisy/src/per/dac.h ****         OK,
  27:../../libdaisy/src/per/dac.h ****         ERR,
  28:../../libdaisy/src/per/dac.h ****     };
  29:../../libdaisy/src/per/dac.h **** 
  30:../../libdaisy/src/per/dac.h ****     /** Selects which channel(s) will be configured for use. */
  31:../../libdaisy/src/per/dac.h ****     enum class Channel
  32:../../libdaisy/src/per/dac.h ****     {
  33:../../libdaisy/src/per/dac.h ****         ONE,
  34:../../libdaisy/src/per/dac.h ****         TWO,
  35:../../libdaisy/src/per/dac.h ****         BOTH,
  36:../../libdaisy/src/per/dac.h ****     };
  37:../../libdaisy/src/per/dac.h **** 
  38:../../libdaisy/src/per/dac.h ****     /** Sets the Mode for the DAC channels.
  39:../../libdaisy/src/per/dac.h ****      **
  40:../../libdaisy/src/per/dac.h ****      ** Polling mode uses the blocking mode to transmit a single value at a time.
  41:../../libdaisy/src/per/dac.h ****      **
  42:../../libdaisy/src/per/dac.h ****      ** DMA mode uses a buffer, and periodically transmits it triggering a 
  43:../../libdaisy/src/per/dac.h ****      ** callback to fill the buffer when it is ready for more samples.
  44:../../libdaisy/src/per/dac.h ****      ***/
  45:../../libdaisy/src/per/dac.h ****     enum class Mode
  46:../../libdaisy/src/per/dac.h ****     {
  47:../../libdaisy/src/per/dac.h ****         POLLING,
  48:../../libdaisy/src/per/dac.h ****         DMA,
  49:../../libdaisy/src/per/dac.h ****     };
  50:../../libdaisy/src/per/dac.h **** 
  51:../../libdaisy/src/per/dac.h ****     /** Sets the number of bits per sample transmitted out of the DAC.
  52:../../libdaisy/src/per/dac.h ****      ** The output range will be: 0V - VDDA
  53:../../libdaisy/src/per/dac.h ****      ** The resolution will be roughly: bitdepth / (VDDA - 0V) 
  54:../../libdaisy/src/per/dac.h ****      ***/
  55:../../libdaisy/src/per/dac.h ****     enum class BitDepth
  56:../../libdaisy/src/per/dac.h ****     {
  57:../../libdaisy/src/per/dac.h ****         BITS_8,
  58:../../libdaisy/src/per/dac.h ****         BITS_12
  59:../../libdaisy/src/per/dac.h ****     };
  60:../../libdaisy/src/per/dac.h **** 
  61:../../libdaisy/src/per/dac.h ****     /** Sets whether the DAC output is buffered for higher drive ability. */
  62:../../libdaisy/src/per/dac.h ****     enum class BufferState
  63:../../libdaisy/src/per/dac.h ****     {
ARM GAS  C:\Users\VINCIU~1\AppData\Local\Temp\cc6Tz7la.s 			page 192


  64:../../libdaisy/src/per/dac.h ****         ENABLED,
  65:../../libdaisy/src/per/dac.h ****         DISABLED,
  66:../../libdaisy/src/per/dac.h ****     };
  67:../../libdaisy/src/per/dac.h **** 
  68:../../libdaisy/src/per/dac.h ****     /** Configuration structure for initializing the DAC structure. */
  69:../../libdaisy/src/per/dac.h ****     struct Config
  70:../../libdaisy/src/per/dac.h ****     {
  71:../../libdaisy/src/per/dac.h ****         /** Target Samplerate in Hz used to configure the internal 
  72:../../libdaisy/src/per/dac.h ****          ** timebase for DMA mode. Does nothing in POLLING mode.
  73:../../libdaisy/src/per/dac.h ****          ** If the value is 0 at Init time this will default to 48000Hz 
  74:../../libdaisy/src/per/dac.h ****          ** otherwise the driver will attempt meet the target.*/
  75:../../libdaisy/src/per/dac.h ****         uint32_t target_samplerate;
  76:../../libdaisy/src/per/dac.h **** 
  77:../../libdaisy/src/per/dac.h ****         Channel     chn;
  78:../../libdaisy/src/per/dac.h ****         Mode        mode;
  79:../../libdaisy/src/per/dac.h ****         BitDepth    bitdepth;
  80:../../libdaisy/src/per/dac.h ****         BufferState buff_state;
  81:../../libdaisy/src/per/dac.h ****     };
  82:../../libdaisy/src/per/dac.h **** 
  83:../../libdaisy/src/per/dac.h ****     DacHandle() : pimpl_(nullptr) {}
 6838              		.loc 22 83 5 is_stmt 1 view .LVU1747
 6839              	.LBB1361:
 6840              	.LBB1362:
 6841              		.loc 22 83 33 is_stmt 0 view .LVU1748
 6842 0022 0462     		str	r4, [r0, #32]
 6843              	.LVL588:
 6844              		.loc 22 83 33 view .LVU1749
 6845              	.LBE1362:
 6846              	.LBE1361:
 6847              	.LBE1360:
 6848              	.LBB1363:
 6849              	.LBI1363:
  40:../../libdaisy/src/hid/usb.h **** 
 6850              		.loc 3 40 5 is_stmt 1 view .LVU1750
  40:../../libdaisy/src/hid/usb.h **** 
 6851              		.loc 3 40 5 is_stmt 0 view .LVU1751
 6852              	.LBE1363:
 6853              	.LBB1364:
 6854              	.LBI1364:
  58:../../libdaisy/src/sys/system.h ****     ~System() {}
 6855              		.loc 2 58 5 is_stmt 1 view .LVU1752
  58:../../libdaisy/src/sys/system.h ****     ~System() {}
 6856              		.loc 2 58 5 is_stmt 0 view .LVU1753
 6857              	.LBE1364:
 6858              	.LBE1365:
 6859              	.LBE1366:
  14:SynthMenis.cpp **** OledDisplayExtravaganza                screen;
 6860              		.loc 14 14 40 view .LVU1754
 6861 0024 FFF7FEFF 		bl	__aeabi_atexit
 6862              	.LVL589:
  15:SynthMenis.cpp **** const int                              height = screen.Height();
 6863              		.loc 14 15 40 view .LVU1755
 6864 0028 3046     		mov	r0, r6
 6865 002a FFF7FEFF 		bl	_ZN23OledDisplayExtravaganzaC1Ev
 6866              	.LVL590:
 6867 002e 2A46     		mov	r2, r5
 6868 0030 2649     		ldr	r1, .L391+24
ARM GAS  C:\Users\VINCIU~1\AppData\Local\Temp\cc6Tz7la.s 			page 193


 6869 0032 3046     		mov	r0, r6
 6870 0034 FFF7FEFF 		bl	__aeabi_atexit
 6871              	.LVL591:
  18:SynthMenis.cpp **** Line                                   line;
 6872              		.loc 14 18 45 is_stmt 1 view .LVU1756
  18:SynthMenis.cpp **** Line                                   line;
 6873              		.loc 14 18 40 is_stmt 0 view .LVU1757
 6874 0038 2A46     		mov	r2, r5
 6875 003a 2549     		ldr	r1, .L391+28
 6876 003c 2046     		mov	r0, r4
 6877 003e FFF7FEFF 		bl	__aeabi_atexit
 6878              	.LVL592:
 6879              	.LBB1367:
 6880              	.LBI1367:
  14:../../DaisySP/Source/Control/line.h ****     ~Line() {}
 6881              		.loc 7 14 5 is_stmt 1 view .LVU1758
  14:../../DaisySP/Source/Control/line.h ****     ~Line() {}
 6882              		.loc 7 14 5 is_stmt 0 view .LVU1759
 6883              	.LBE1367:
  19:SynthMenis.cpp **** Adsr                                   env;
 6884              		.loc 14 19 40 view .LVU1760
 6885 0042 2A46     		mov	r2, r5
 6886 0044 2349     		ldr	r1, .L391+32
 6887 0046 2448     		ldr	r0, .L391+36
 6888 0048 FFF7FEFF 		bl	__aeabi_atexit
 6889              	.LVL593:
 6890              	.LBB1368:
 6891              	.LBI1368:
  36:../../DaisySP/Source/Control/adsr.h ****     ~Adsr() {}
 6892              		.loc 6 36 5 is_stmt 1 view .LVU1761
 6893              	.LBB1369:
 6894              	.LBB1370:
  36:../../DaisySP/Source/Control/adsr.h ****     ~Adsr() {}
 6895              		.loc 6 36 12 is_stmt 0 view .LVU1762
 6896 004c 2348     		ldr	r0, .L391+40
 6897 004e 0023     		movs	r3, #0
 6898 0050 234A     		ldr	r2, .L391+44
 6899              	.LBE1370:
 6900              	.LBE1369:
 6901              	.LBE1368:
  20:SynthMenis.cpp **** bool                                   gate;
 6902              		.loc 14 20 40 view .LVU1763
 6903 0052 2449     		ldr	r1, .L391+48
 6904              	.LBB1375:
 6905              	.LBB1373:
 6906              	.LBB1371:
  36:../../DaisySP/Source/Control/adsr.h ****     ~Adsr() {}
 6907              		.loc 6 36 12 view .LVU1764
 6908 0054 0360     		str	r3, [r0]	@ float
 6909 0056 4360     		str	r3, [r0, #4]	@ float
 6910 0058 8260     		str	r2, [r0, #8]	@ float
 6911 005a C360     		str	r3, [r0, #12]	@ float
 6912 005c 0261     		str	r2, [r0, #16]	@ float
 6913 005e 4261     		str	r2, [r0, #20]	@ float
 6914 0060 8261     		str	r2, [r0, #24]	@ float
 6915              	.LBE1371:
 6916              	.LBE1373:
ARM GAS  C:\Users\VINCIU~1\AppData\Local\Temp\cc6Tz7la.s 			page 194


 6917              	.LBE1375:
  20:SynthMenis.cpp **** bool                                   gate;
 6918              		.loc 14 20 40 view .LVU1765
 6919 0062 2A46     		mov	r2, r5
 6920              	.LBB1376:
 6921              	.LBB1374:
 6922              	.LBB1372:
  36:../../DaisySP/Source/Control/adsr.h ****     ~Adsr() {}
 6923              		.loc 6 36 12 view .LVU1766
 6924 0064 C361     		str	r3, [r0, #28]	@ float
 6925 0066 0362     		str	r3, [r0, #32]	@ float
 6926 0068 4362     		str	r3, [r0, #36]	@ float
 6927              	.LBE1372:
 6928 006a 8485     		strh	r4, [r0, #44]	@ movhi
 6929              	.LVL594:
  36:../../DaisySP/Source/Control/adsr.h ****     ~Adsr() {}
 6930              		.loc 6 36 12 view .LVU1767
 6931              	.LBE1374:
 6932              	.LBE1376:
  20:SynthMenis.cpp **** bool                                   gate;
 6933              		.loc 14 20 40 view .LVU1768
 6934 006c FFF7FEFF 		bl	__aeabi_atexit
 6935              	.LVL595:
 6936              	.LBB1377:
 6937              	.LBI1377:
  81:../../libdaisy/src/hid/midi.h ****     ~MidiHandler() {}
 6938              		.loc 16 81 5 is_stmt 1 view .LVU1769
 6939              	.LBB1378:
 6940              	.LBB1379:
 6941              	.LBB1380:
 6942              	.LBI1380:
 6943              		.file 23 "../../libdaisy/src/per/uart.h"
   1:../../libdaisy/src/per/uart.h **** /* 
   2:../../libdaisy/src/per/uart.h **** TODO
   3:../../libdaisy/src/per/uart.h **** - Add flexible config for:
   4:../../libdaisy/src/per/uart.h ****   - data size, stop bits, parity, baud, etc.
   5:../../libdaisy/src/per/uart.h ****   - dma vs interrupt (or not).
   6:../../libdaisy/src/per/uart.h ****   - Error handling
   7:../../libdaisy/src/per/uart.h **** - Transmit function improvements.
   8:../../libdaisy/src/per/uart.h **** - Other UART Peripherals (currently only handles USART1 in UART mode.
   9:../../libdaisy/src/per/uart.h **** - Overflow handling, etc. for Rx Queue.
  10:../../libdaisy/src/per/uart.h **** */
  11:../../libdaisy/src/per/uart.h **** 
  12:../../libdaisy/src/per/uart.h **** #pragma once
  13:../../libdaisy/src/per/uart.h **** #ifndef DSY_UART_H
  14:../../libdaisy/src/per/uart.h **** #define DSY_UART_H /**< macro */
  15:../../libdaisy/src/per/uart.h **** #include "daisy_core.h"
  16:../../libdaisy/src/per/uart.h **** 
  17:../../libdaisy/src/per/uart.h **** 
  18:../../libdaisy/src/per/uart.h **** namespace daisy
  19:../../libdaisy/src/per/uart.h **** {
  20:../../libdaisy/src/per/uart.h **** /** @addtogroup serial
  21:../../libdaisy/src/per/uart.h ****     @{
  22:../../libdaisy/src/per/uart.h ****     */
  23:../../libdaisy/src/per/uart.h **** 
  24:../../libdaisy/src/per/uart.h **** /** 
  25:../../libdaisy/src/per/uart.h ****     Uart Peripheral
ARM GAS  C:\Users\VINCIU~1\AppData\Local\Temp\cc6Tz7la.s 			page 195


  26:../../libdaisy/src/per/uart.h ****     @author shensley
  27:../../libdaisy/src/per/uart.h ****     @date March 2020
  28:../../libdaisy/src/per/uart.h ****     */
  29:../../libdaisy/src/per/uart.h **** class UartHandler
  30:../../libdaisy/src/per/uart.h **** {
  31:../../libdaisy/src/per/uart.h ****   public:
  32:../../libdaisy/src/per/uart.h ****     struct Config
  33:../../libdaisy/src/per/uart.h ****     {
  34:../../libdaisy/src/per/uart.h ****         enum class Peripheral
  35:../../libdaisy/src/per/uart.h ****         {
  36:../../libdaisy/src/per/uart.h ****             USART_1,
  37:../../libdaisy/src/per/uart.h ****             USART_2,
  38:../../libdaisy/src/per/uart.h ****             USART_3,
  39:../../libdaisy/src/per/uart.h ****             UART_4,
  40:../../libdaisy/src/per/uart.h ****             UART_5,
  41:../../libdaisy/src/per/uart.h ****             USART_6,
  42:../../libdaisy/src/per/uart.h ****             UART_7,
  43:../../libdaisy/src/per/uart.h ****             UART_8,
  44:../../libdaisy/src/per/uart.h ****             LPUART_1,
  45:../../libdaisy/src/per/uart.h ****         };
  46:../../libdaisy/src/per/uart.h **** 
  47:../../libdaisy/src/per/uart.h ****         enum class StopBits
  48:../../libdaisy/src/per/uart.h ****         {
  49:../../libdaisy/src/per/uart.h ****             BITS_0_5,
  50:../../libdaisy/src/per/uart.h ****             BITS_1,
  51:../../libdaisy/src/per/uart.h ****             BITS_1_5,
  52:../../libdaisy/src/per/uart.h ****             BITS_2,
  53:../../libdaisy/src/per/uart.h ****         };
  54:../../libdaisy/src/per/uart.h **** 
  55:../../libdaisy/src/per/uart.h ****         enum class Parity
  56:../../libdaisy/src/per/uart.h ****         {
  57:../../libdaisy/src/per/uart.h ****             NONE,
  58:../../libdaisy/src/per/uart.h ****             EVEN,
  59:../../libdaisy/src/per/uart.h ****             ODD,
  60:../../libdaisy/src/per/uart.h ****         };
  61:../../libdaisy/src/per/uart.h **** 
  62:../../libdaisy/src/per/uart.h ****         enum class Mode
  63:../../libdaisy/src/per/uart.h ****         {
  64:../../libdaisy/src/per/uart.h ****             RX,
  65:../../libdaisy/src/per/uart.h ****             TX,
  66:../../libdaisy/src/per/uart.h ****             TX_RX,
  67:../../libdaisy/src/per/uart.h ****         };
  68:../../libdaisy/src/per/uart.h **** 
  69:../../libdaisy/src/per/uart.h ****         enum class WordLength
  70:../../libdaisy/src/per/uart.h ****         {
  71:../../libdaisy/src/per/uart.h ****             BITS_7,
  72:../../libdaisy/src/per/uart.h ****             BITS_8,
  73:../../libdaisy/src/per/uart.h ****             BITS_9,
  74:../../libdaisy/src/per/uart.h ****         };
  75:../../libdaisy/src/per/uart.h **** 
  76:../../libdaisy/src/per/uart.h ****         struct
  77:../../libdaisy/src/per/uart.h ****         {
  78:../../libdaisy/src/per/uart.h ****             dsy_gpio_pin tx; /**< & */
  79:../../libdaisy/src/per/uart.h ****             dsy_gpio_pin rx; /**< & */
  80:../../libdaisy/src/per/uart.h ****         } pin_config;        /**< & */
  81:../../libdaisy/src/per/uart.h **** 
  82:../../libdaisy/src/per/uart.h ****         Peripheral periph;
ARM GAS  C:\Users\VINCIU~1\AppData\Local\Temp\cc6Tz7la.s 			page 196


  83:../../libdaisy/src/per/uart.h ****         StopBits   stopbits;
  84:../../libdaisy/src/per/uart.h ****         Parity     parity;
  85:../../libdaisy/src/per/uart.h ****         Mode       mode;
  86:../../libdaisy/src/per/uart.h ****         WordLength wordlength;
  87:../../libdaisy/src/per/uart.h ****         uint32_t   baudrate;
  88:../../libdaisy/src/per/uart.h ****     };
  89:../../libdaisy/src/per/uart.h **** 
  90:../../libdaisy/src/per/uart.h **** 
  91:../../libdaisy/src/per/uart.h ****     UartHandler() : pimpl_(nullptr) {}
 6944              		.loc 23 91 5 view .LVU1770
 6945              	.LBB1381:
 6946              	.LBB1382:
 6947              		.loc 23 91 35 is_stmt 0 view .LVU1771
 6948 0070 1D48     		ldr	r0, .L391+52
 6949              	.LBE1382:
 6950              	.LBE1381:
 6951              	.LBE1380:
 6952              	.LBB1385:
 6953              	.LBB1386:
 6954              	.LBB1387:
 6955              	.LBB1388:
  35:../../libdaisy/src/hid/midi.h ****             tx     = {DSY_GPIOB, 6};
 6956              		.loc 16 35 20 view .LVU1772
 6957 0072 1E49     		ldr	r1, .L391+56
 6958              	.LBE1388:
 6959              	.LBE1387:
 6960              	.LBE1386:
 6961              	.LBE1385:
 6962              	.LBE1379:
 6963              	.LBE1378:
 6964              	.LBE1377:
  22:SynthMenis.cpp **** MidiHandler<MidiUartTransport>::Config midi_cfg;
 6965              		.loc 14 22 40 view .LVU1773
 6966 0074 2A46     		mov	r2, r5
 6967              	.LBB1419:
 6968              	.LBB1418:
 6969              	.LBB1417:
 6970              	.LBB1404:
 6971              	.LBB1399:
 6972              	.LBB1394:
 6973              	.LBB1389:
  34:../../libdaisy/src/hid/midi.h ****             rx     = {DSY_GPIOB, 7};
 6974              		.loc 16 34 20 view .LVU1774
 6975 0076 00F5E043 		add	r3, r0, #28672
 6976              	.LBE1389:
 6977              	.LBE1394:
 6978              	.LBE1399:
 6979              	.LBE1404:
 6980              	.LBB1405:
 6981              	.LBB1384:
 6982              	.LBB1383:
 6983              		.loc 23 91 35 view .LVU1775
 6984 007a 0460     		str	r4, [r0]
 6985              	.LVL596:
 6986              		.loc 23 91 35 view .LVU1776
 6987              	.LBE1383:
 6988              	.LBE1384:
ARM GAS  C:\Users\VINCIU~1\AppData\Local\Temp\cc6Tz7la.s 			page 197


 6989              	.LBE1405:
 6990              	.LBB1406:
 6991              	.LBI1406:
  21:../../libdaisy/src/util/ringbuffer.h **** 
 6992              		.loc 20 21 5 is_stmt 1 view .LVU1777
  21:../../libdaisy/src/util/ringbuffer.h **** 
 6993              		.loc 20 21 5 is_stmt 0 view .LVU1778
 6994              	.LBE1406:
 6995              	.LBB1407:
 6996              	.LBI1385:
  84:../../libdaisy/src/hid/midi.h ****     {
 6997              		.loc 16 84 12 is_stmt 1 view .LVU1779
 6998              	.LBB1400:
 6999              	.LBI1386:
  32:../../libdaisy/src/hid/midi.h ****         {
 7000              		.loc 16 32 9 view .LVU1780
 7001              	.LBB1395:
 7002              	.LBB1390:
  34:../../libdaisy/src/hid/midi.h ****             rx     = {DSY_GPIOB, 7};
 7003              		.loc 16 34 13 view .LVU1781
  35:../../libdaisy/src/hid/midi.h ****             tx     = {DSY_GPIOB, 6};
 7004              		.loc 16 35 20 is_stmt 0 view .LVU1782
 7005 007c 0E88     		ldrh	r6, [r1]
  36:../../libdaisy/src/hid/midi.h ****         }
 7006              		.loc 16 36 20 view .LVU1783
 7007 007e 8D88     		ldrh	r5, [r1, #4]
 7008              	.LBE1390:
 7009              	.LBE1395:
 7010              	.LBE1400:
 7011              	.LBE1407:
  81:../../libdaisy/src/hid/midi.h ****     ~MidiHandler() {}
 7012              		.loc 16 81 19 view .LVU1784
 7013 0080 1B49     		ldr	r1, .L391+60
 7014              	.LBB1408:
 7015              	.LBB1401:
 7016              	.LBB1396:
 7017              	.LBB1391:
  34:../../libdaisy/src/hid/midi.h ****             rx     = {DSY_GPIOB, 7};
 7018              		.loc 16 34 20 view .LVU1785
 7019 0082 C3F88C44 		str	r4, [r3, #1164]
  35:../../libdaisy/src/hid/midi.h ****             tx     = {DSY_GPIOB, 6};
 7020              		.loc 16 35 13 is_stmt 1 view .LVU1786
 7021              	.LBE1391:
 7022              	.LBE1396:
 7023              	.LBE1401:
 7024              	.LBE1408:
  81:../../libdaisy/src/hid/midi.h ****     ~MidiHandler() {}
 7025              		.loc 16 81 19 is_stmt 0 view .LVU1787
 7026 0086 C3F89814 		str	r1, [r3, #1176]
 7027 008a 4FF60F01 		movw	r1, #63503
 7028              	.LBB1409:
 7029              	.LBB1410:
 7030              	.LBB1411:
 7031              	.LBB1412:
 7032              		.loc 23 91 35 view .LVU1788
 7033 008e C3F89444 		str	r4, [r3, #1172]
 7034              	.LBE1412:
ARM GAS  C:\Users\VINCIU~1\AppData\Local\Temp\cc6Tz7la.s 			page 198


 7035              	.LBE1411:
 7036              	.LBE1410:
 7037              	.LBE1409:
  81:../../libdaisy/src/hid/midi.h ****     ~MidiHandler() {}
 7038              		.loc 16 81 19 view .LVU1789
 7039 0092 A3F89C14 		strh	r1, [r3, #1180]	@ movhi
 7040 0096 0721     		movs	r1, #7
 7041              	.LBB1414:
 7042              	.LBB1402:
 7043              	.LBB1397:
 7044              	.LBB1392:
  35:../../libdaisy/src/hid/midi.h ****             tx     = {DSY_GPIOB, 6};
 7045              		.loc 16 35 20 view .LVU1790
 7046 0098 A3F89064 		strh	r6, [r3, #1168]	@ movhi
  36:../../libdaisy/src/hid/midi.h ****         }
 7047              		.loc 16 36 13 is_stmt 1 view .LVU1791
 7048              	.LBE1392:
 7049              	.LBE1397:
 7050              	.LBE1402:
 7051              	.LBE1414:
  81:../../libdaisy/src/hid/midi.h ****     ~MidiHandler() {}
 7052              		.loc 16 81 19 is_stmt 0 view .LVU1792
 7053 009c 83F89E14 		strb	r1, [r3, #1182]
 7054              	.LBB1415:
 7055              	.LBB1403:
 7056              	.LBB1398:
 7057              	.LBB1393:
  36:../../libdaisy/src/hid/midi.h ****         }
 7058              		.loc 16 36 20 view .LVU1793
 7059 00a0 A3F89254 		strh	r5, [r3, #1170]	@ movhi
 7060              	.LVL597:
  36:../../libdaisy/src/hid/midi.h ****         }
 7061              		.loc 16 36 20 view .LVU1794
 7062              	.LBE1393:
 7063              	.LBE1398:
 7064              	.LBE1403:
 7065              	.LBE1415:
 7066              	.LBB1416:
 7067              	.LBI1409:
  23:../../libdaisy/src/hid/midi.h ****     ~MidiUartTransport() {}
 7068              		.loc 16 23 5 is_stmt 1 view .LVU1795
 7069              	.LBB1413:
 7070              	.LBI1410:
 7071              		.loc 23 91 5 view .LVU1796
 7072              		.loc 23 91 5 is_stmt 0 view .LVU1797
 7073              	.LBE1413:
 7074              	.LBE1416:
 7075              	.LBE1417:
 7076              	.LBE1418:
 7077              	.LBE1419:
  22:SynthMenis.cpp **** MidiHandler<MidiUartTransport>::Config midi_cfg;
 7078              		.loc 14 22 40 view .LVU1798
 7079 00a4 1349     		ldr	r1, .L391+64
 7080 00a6 FFF7FEFF 		bl	__aeabi_atexit
 7081              	.LVL598:
 7082              	.LBB1420:
 7083              	.LBI1420:
ARM GAS  C:\Users\VINCIU~1\AppData\Local\Temp\cc6Tz7la.s 			page 199


  84:../../libdaisy/src/hid/midi.h ****     {
 7084              		.loc 16 84 12 is_stmt 1 view .LVU1799
 7085              	.LBB1421:
 7086              	.LBI1421:
  32:../../libdaisy/src/hid/midi.h ****         {
 7087              		.loc 16 32 9 view .LVU1800
 7088              	.LBB1422:
 7089              	.LBB1423:
  34:../../libdaisy/src/hid/midi.h ****             rx     = {DSY_GPIOB, 7};
 7090              		.loc 16 34 13 view .LVU1801
  34:../../libdaisy/src/hid/midi.h ****             rx     = {DSY_GPIOB, 7};
 7091              		.loc 16 34 20 is_stmt 0 view .LVU1802
 7092 00aa 134B     		ldr	r3, .L391+68
 7093 00ac 1C60     		str	r4, [r3]
  35:../../libdaisy/src/hid/midi.h ****             tx     = {DSY_GPIOB, 6};
 7094              		.loc 16 35 13 is_stmt 1 view .LVU1803
  35:../../libdaisy/src/hid/midi.h ****             tx     = {DSY_GPIOB, 6};
 7095              		.loc 16 35 20 is_stmt 0 view .LVU1804
 7096 00ae 9E80     		strh	r6, [r3, #4]	@ movhi
  36:../../libdaisy/src/hid/midi.h ****         }
 7097              		.loc 16 36 13 is_stmt 1 view .LVU1805
  36:../../libdaisy/src/hid/midi.h ****         }
 7098              		.loc 16 36 20 is_stmt 0 view .LVU1806
 7099 00b0 DD80     		strh	r5, [r3, #6]	@ movhi
 7100              	.LVL599:
  36:../../libdaisy/src/hid/midi.h ****         }
 7101              		.loc 16 36 20 view .LVU1807
 7102              	.LBE1423:
 7103              	.LBE1422:
 7104              	.LBE1421:
 7105              	.LBE1420:
 7106              	.LBE1350:
 7107              	.LBE1424:
 7108              		.loc 14 190 1 view .LVU1808
 7109 00b2 70BD     		pop	{r4, r5, r6, pc}
 7110              	.L392:
 7111              		.align	2
 7112              	.L391:
 7113 00b4 00000000 		.word	.LANCHOR3
 7114 00b8 00000000 		.word	__dso_handle
 7115 00bc 00000000 		.word	.LANCHOR8
 7116 00c0 00000000 		.word	_ZN5MenusD1Ev
 7117 00c4 00000000 		.word	.LANCHOR7
 7118 00c8 00000000 		.word	_ZN5daisy9DaisySeedD1Ev
 7119 00cc 00000000 		.word	_ZN23OledDisplayExtravaganzaD1Ev
 7120 00d0 00000000 		.word	__tcf_0
 7121 00d4 00000000 		.word	_ZN7daisysp4LineD1Ev
 7122 00d8 00000000 		.word	.LANCHOR5
 7123 00dc 00000000 		.word	.LANCHOR1
 7124 00e0 000080BF 		.word	-1082130432
 7125 00e4 00000000 		.word	_ZN7daisysp4AdsrD1Ev
 7126 00e8 00000000 		.word	midi
 7127 00ec 00000000 		.word	.LANCHOR11
 7128 00f0 80707FF0 		.word	-260083584
 7129 00f4 00000000 		.word	_ZN5daisy11MidiHandlerINS_17MidiUartTransportEED1Ev
 7130 00f8 00000000 		.word	.LANCHOR9
 7131              		.cfi_endproc
ARM GAS  C:\Users\VINCIU~1\AppData\Local\Temp\cc6Tz7la.s 			page 200


 7132              	.LFE4649:
 7134              		.section	.init_array,"aw",%init_array
 7135              		.align	2
 7136 0000 00000000 		.word	_GLOBAL__sub_I_synthmenu(target1)
 7137              		.weak	_ZTSN5daisy21OneBitGraphicsDisplayE
 7138              		.section	.rodata._ZTSN5daisy21OneBitGraphicsDisplayE,"aG",%progbits,_ZTSN5daisy21OneBitGraphicsDis
 7139              		.align	2
 7142              	_ZTSN5daisy21OneBitGraphicsDisplayE:
 7143 0000 4E356461 		.ascii	"N5daisy21OneBitGraphicsDisplayE\000"
 7143      69737932 
 7143      314F6E65 
 7143      42697447 
 7143      72617068 
 7144              		.weak	_ZTIN5daisy21OneBitGraphicsDisplayE
 7145              		.section	.rodata._ZTIN5daisy21OneBitGraphicsDisplayE,"aG",%progbits,_ZTIN5daisy21OneBitGraphicsDis
 7146              		.align	2
 7149              	_ZTIN5daisy21OneBitGraphicsDisplayE:
 7150 0000 08000000 		.word	_ZTVN10__cxxabiv117__class_type_infoE+8
 7151 0004 00000000 		.word	_ZTSN5daisy21OneBitGraphicsDisplayE
 7152              		.weak	_ZTSN5daisy25OneBitGraphicsDisplayImplINS_11OledDisplayINS_13SSD130xDriverILj128ELj64ENS_24S
 7153              		.section	.rodata._ZTSN5daisy25OneBitGraphicsDisplayImplINS_11OledDisplayINS_13SSD130xDriverILj128E
 7154              		.align	2
 7157              	_ZTSN5daisy25OneBitGraphicsDisplayImplINS_11OledDisplayINS_13SSD130xDriverILj128ELj64ENS_24SSD130x4
 7158 0000 4E356461 		.ascii	"N5daisy25OneBitGraphicsDisplayImplINS_11OledDisplay"
 7158      69737932 
 7158      354F6E65 
 7158      42697447 
 7158      72617068 
 7159 0033 494E535F 		.ascii	"INS_13SSD130xDriverILj128ELj64ENS_24SSD130x4WireSpi"
 7159      31335353 
 7159      44313330 
 7159      78447269 
 7159      76657249 
 7160 0066 5472616E 		.ascii	"TransportEEEEEEE\000"
 7160      73706F72 
 7160      74454545 
 7160      45454545 
 7160      00
 7161              		.weak	_ZTIN5daisy25OneBitGraphicsDisplayImplINS_11OledDisplayINS_13SSD130xDriverILj128ELj64ENS_24S
 7162              		.section	.rodata._ZTIN5daisy25OneBitGraphicsDisplayImplINS_11OledDisplayINS_13SSD130xDriverILj128E
 7163              		.align	2
 7166              	_ZTIN5daisy25OneBitGraphicsDisplayImplINS_11OledDisplayINS_13SSD130xDriverILj128ELj64ENS_24SSD130x4
 7167 0000 08000000 		.word	_ZTVN10__cxxabiv120__si_class_type_infoE+8
 7168 0004 00000000 		.word	_ZTSN5daisy25OneBitGraphicsDisplayImplINS_11OledDisplayINS_13SSD130xDriverILj128ELj64ENS_24S
 7169 0008 00000000 		.word	_ZTIN5daisy21OneBitGraphicsDisplayE
 7170              		.weak	_ZTSN5daisy11OledDisplayINS_13SSD130xDriverILj128ELj64ENS_24SSD130x4WireSpiTransportEEEEE
 7171              		.section	.rodata._ZTSN5daisy11OledDisplayINS_13SSD130xDriverILj128ELj64ENS_24SSD130x4WireSpiTransp
 7172              		.align	2
 7175              	_ZTSN5daisy11OledDisplayINS_13SSD130xDriverILj128ELj64ENS_24SSD130x4WireSpiTransportEEEEE:
 7176 0000 4E356461 		.ascii	"N5daisy11OledDisplayINS_13SSD130xDriverILj128ELj64E"
 7176      69737931 
 7176      314F6C65 
 7176      64446973 
 7176      706C6179 
 7177 0033 4E535F32 		.ascii	"NS_24SSD130x4WireSpiTransportEEEEE\000"
 7177      34535344 
 7177      31333078 
ARM GAS  C:\Users\VINCIU~1\AppData\Local\Temp\cc6Tz7la.s 			page 201


 7177      34576972 
 7177      65537069 
 7178              		.weak	_ZTIN5daisy11OledDisplayINS_13SSD130xDriverILj128ELj64ENS_24SSD130x4WireSpiTransportEEEEE
 7179              		.section	.rodata._ZTIN5daisy11OledDisplayINS_13SSD130xDriverILj128ELj64ENS_24SSD130x4WireSpiTransp
 7180              		.align	2
 7183              	_ZTIN5daisy11OledDisplayINS_13SSD130xDriverILj128ELj64ENS_24SSD130x4WireSpiTransportEEEEE:
 7184 0000 08000000 		.word	_ZTVN10__cxxabiv120__si_class_type_infoE+8
 7185 0004 00000000 		.word	_ZTSN5daisy11OledDisplayINS_13SSD130xDriverILj128ELj64ENS_24SSD130x4WireSpiTransportEEEEE
 7186 0008 00000000 		.word	_ZTIN5daisy25OneBitGraphicsDisplayImplINS_11OledDisplayINS_13SSD130xDriverILj128ELj64ENS_24S
 7187              		.weak	_ZTS23OledDisplayExtravaganza
 7188              		.section	.rodata._ZTS23OledDisplayExtravaganza,"aG",%progbits,_ZTS23OledDisplayExtravaganza,comdat
 7189              		.align	2
 7192              	_ZTS23OledDisplayExtravaganza:
 7193 0000 32334F6C 		.ascii	"23OledDisplayExtravaganza\000"
 7193      65644469 
 7193      73706C61 
 7193      79457874 
 7193      72617661 
 7194              		.weak	_ZTI23OledDisplayExtravaganza
 7195              		.section	.rodata._ZTI23OledDisplayExtravaganza,"aG",%progbits,_ZTI23OledDisplayExtravaganza,comdat
 7196              		.align	2
 7199              	_ZTI23OledDisplayExtravaganza:
 7200 0000 08000000 		.word	_ZTVN10__cxxabiv120__si_class_type_infoE+8
 7201 0004 00000000 		.word	_ZTS23OledDisplayExtravaganza
 7202 0008 00000000 		.word	_ZTIN5daisy11OledDisplayINS_13SSD130xDriverILj128ELj64ENS_24SSD130x4WireSpiTransportEEEEE
 7203              		.weak	_ZTV23OledDisplayExtravaganza
 7204              		.section	.rodata._ZTV23OledDisplayExtravaganza,"aG",%progbits,_ZTV23OledDisplayExtravaganza,comdat
 7205              		.align	2
 7208              	_ZTV23OledDisplayExtravaganza:
 7209 0000 00000000 		.word	0
 7210 0004 00000000 		.word	_ZTI23OledDisplayExtravaganza
 7211 0008 00000000 		.word	_ZN23OledDisplayExtravaganzaD1Ev
 7212 000c 00000000 		.word	_ZN23OledDisplayExtravaganzaD0Ev
 7213 0010 00000000 		.word	_ZNK5daisy11OledDisplayINS_13SSD130xDriverILj128ELj64ENS_24SSD130x4WireSpiTransportEEEE6Heig
 7214 0014 00000000 		.word	_ZNK5daisy11OledDisplayINS_13SSD130xDriverILj128ELj64ENS_24SSD130x4WireSpiTransportEEEE5Widt
 7215 0018 00000000 		.word	_ZN5daisy11OledDisplayINS_13SSD130xDriverILj128ELj64ENS_24SSD130x4WireSpiTransportEEEE4FillE
 7216 001c 00000000 		.word	_ZN5daisy11OledDisplayINS_13SSD130xDriverILj128ELj64ENS_24SSD130x4WireSpiTransportEEEE9DrawP
 7217 0020 00000000 		.word	_ZN5daisy25OneBitGraphicsDisplayImplINS_11OledDisplayINS_13SSD130xDriverILj128ELj64ENS_24SSD
 7218 0024 00000000 		.word	_ZN5daisy25OneBitGraphicsDisplayImplINS_11OledDisplayINS_13SSD130xDriverILj128ELj64ENS_24SSD
 7219 0028 00000000 		.word	_ZN5daisy25OneBitGraphicsDisplayImplINS_11OledDisplayINS_13SSD130xDriverILj128ELj64ENS_24SSD
 7220 002c 00000000 		.word	_ZN5daisy25OneBitGraphicsDisplayImplINS_11OledDisplayINS_13SSD130xDriverILj128ELj64ENS_24SSD
 7221 0030 00000000 		.word	_ZN5daisy25OneBitGraphicsDisplayImplINS_11OledDisplayINS_13SSD130xDriverILj128ELj64ENS_24SSD
 7222 0034 00000000 		.word	_ZN5daisy11OledDisplayINS_13SSD130xDriverILj128ELj64ENS_24SSD130x4WireSpiTransportEEEE6Updat
 7223              		.global	navigation
 7224              		.global	finished
 7225              		.global	osc1Freq
 7226              		.global	semiMultiplier
 7227              		.global	midi_cfg
 7228              		.global	midi
 7229              		.global	gate
 7230              		.global	env
 7231              		.global	line
 7232              		.global	osc
 7233              		.global	screen
 7234              		.global	hw
 7235              		.global	synthmenu
 7236              		.section	.rodata
ARM GAS  C:\Users\VINCIU~1\AppData\Local\Temp\cc6Tz7la.s 			page 202


 7237              		.align	2
 7238              		.set	.LANCHOR11,. + 0
 7239              	.LC3:
 7240 0000 01       		.byte	1
 7241 0001 07       		.byte	7
 7242 0002 0000     		.space	2
 7243              	.LC4:
 7244 0004 01       		.byte	1
 7245 0005 06       		.byte	6
 7246              		.section	.bss.env,"aw",%nobits
 7247              		.align	2
 7248              		.set	.LANCHOR1,. + 0
 7251              	env:
 7252 0000 00000000 		.space	48
 7252      00000000 
 7252      00000000 
 7252      00000000 
 7252      00000000 
 7253              		.section	.bss.finished,"aw",%nobits
 7254              		.set	.LANCHOR4,. + 0
 7257              	finished:
 7258 0000 00       		.space	1
 7259              		.section	.bss.gate,"aw",%nobits
 7260              		.set	.LANCHOR0,. + 0
 7263              	gate:
 7264 0000 00       		.space	1
 7265              		.section	.bss.hw,"aw",%nobits
 7266              		.align	2
 7267              		.set	.LANCHOR7,. + 0
 7270              	hw:
 7271 0000 00000000 		.space	60
 7271      00000000 
 7271      00000000 
 7271      00000000 
 7271      00000000 
 7272              		.section	.bss.line,"aw",%nobits
 7273              		.align	2
 7274              		.set	.LANCHOR5,. + 0
 7277              	line:
 7278 0000 00000000 		.space	28
 7278      00000000 
 7278      00000000 
 7278      00000000 
 7278      00000000 
 7279              		.section	.bss.midi,"aw",%nobits
 7280              		.align	2
 7283              	midi:
 7284 0000 00000000 		.space	29856
 7284      00000000 
 7284      00000000 
 7284      00000000 
 7284      00000000 
 7285              		.section	.bss.midi_cfg,"aw",%nobits
 7286              		.align	2
 7287              		.set	.LANCHOR9,. + 0
 7290              	midi_cfg:
 7291 0000 00000000 		.space	8
ARM GAS  C:\Users\VINCIU~1\AppData\Local\Temp\cc6Tz7la.s 			page 203


 7291      00000000 
 7292              		.section	.bss.navigation,"aw",%nobits
 7293              		.align	2
 7294              		.set	.LANCHOR10,. + 0
 7297              	navigation:
 7298 0000 00000000 		.space	4
 7299              		.section	.bss.osc,"aw",%nobits
 7300              		.align	2
 7301              		.set	.LANCHOR2,. + 0
 7304              	osc:
 7305 0000 00000000 		.space	80
 7305      00000000 
 7305      00000000 
 7305      00000000 
 7305      00000000 
 7306              		.section	.bss.osc1Freq,"aw",%nobits
 7307              		.align	2
 7308              		.set	.LANCHOR6,. + 0
 7311              	osc1Freq:
 7312 0000 00000000 		.space	4
 7313              		.section	.bss.screen,"aw",%nobits
 7314              		.align	2
 7315              		.set	.LANCHOR8,. + 0
 7318              	screen:
 7319 0000 00000000 		.space	1044
 7319      00000000 
 7319      00000000 
 7319      00000000 
 7319      00000000 
 7320              		.section	.bss.synthmenu,"aw",%nobits
 7321              		.align	2
 7322              		.set	.LANCHOR3,. + 0
 7325              	synthmenu:
 7326 0000 00000000 		.space	448
 7326      00000000 
 7326      00000000 
 7326      00000000 
 7326      00000000 
 7327              		.section	.data.semiMultiplier,"aw"
 7328              		.align	2
 7331              	semiMultiplier:
 7332 0000 0000803F 		.word	1065353216
 7333              		.text
 7334              	.Letext0:
 7335              		.file 24 "c:\\users\\vin\355cius\\documents\\daisytoolchain-0.3.1\\windows\\arm-none-eabi\\include
 7336              		.file 25 "c:\\users\\vin\355cius\\documents\\daisytoolchain-0.3.1\\windows\\arm-none-eabi\\include
 7337              		.file 26 "c:\\users\\vin\355cius\\documents\\daisytoolchain-0.3.1\\windows\\arm-none-eabi\\include
 7338              		.file 27 "c:\\users\\vin\355cius\\documents\\daisytoolchain-0.3.1\\windows\\lib\\gcc\\arm-none-eab
 7339              		.file 28 "c:\\users\\vin\355cius\\documents\\daisytoolchain-0.3.1\\windows\\arm-none-eabi\\include
 7340              		.file 29 "c:\\users\\vin\355cius\\documents\\daisytoolchain-0.3.1\\windows\\arm-none-eabi\\include
 7341              		.file 30 "c:\\users\\vin\355cius\\documents\\daisytoolchain-0.3.1\\windows\\arm-none-eabi\\include
 7342              		.file 31 "c:\\users\\vin\355cius\\documents\\daisytoolchain-0.3.1\\windows\\arm-none-eabi\\include
 7343              		.file 32 "c:\\users\\vin\355cius\\documents\\daisytoolchain-0.3.1\\windows\\arm-none-eabi\\include
 7344              		.file 33 "c:\\users\\vin\355cius\\documents\\daisytoolchain-0.3.1\\windows\\arm-none-eabi\\include
 7345              		.file 34 "c:\\users\\vin\355cius\\documents\\daisytoolchain-0.3.1\\windows\\arm-none-eabi\\include
 7346              		.file 35 "c:\\users\\vin\355cius\\documents\\daisytoolchain-0.3.1\\windows\\arm-none-eabi\\include
 7347              		.file 36 "c:\\users\\vin\355cius\\documents\\daisytoolchain-0.3.1\\windows\\arm-none-eabi\\include
ARM GAS  C:\Users\VINCIU~1\AppData\Local\Temp\cc6Tz7la.s 			page 204


 7348              		.file 37 "c:\\users\\vin\355cius\\documents\\daisytoolchain-0.3.1\\windows\\arm-none-eabi\\include
 7349              		.file 38 "c:\\users\\vin\355cius\\documents\\daisytoolchain-0.3.1\\windows\\arm-none-eabi\\include
 7350              		.file 39 "c:\\users\\vin\355cius\\documents\\daisytoolchain-0.3.1\\windows\\arm-none-eabi\\include
 7351              		.file 40 "c:\\users\\vin\355cius\\documents\\daisytoolchain-0.3.1\\windows\\arm-none-eabi\\include
 7352              		.file 41 "c:\\users\\vin\355cius\\documents\\daisytoolchain-0.3.1\\windows\\arm-none-eabi\\include
 7353              		.file 42 "c:\\users\\vin\355cius\\documents\\daisytoolchain-0.3.1\\windows\\arm-none-eabi\\include
 7354              		.file 43 "c:\\users\\vin\355cius\\documents\\daisytoolchain-0.3.1\\windows\\arm-none-eabi\\include
 7355              		.file 44 "c:\\users\\vin\355cius\\documents\\daisytoolchain-0.3.1\\windows\\arm-none-eabi\\include
 7356              		.file 45 "c:\\users\\vin\355cius\\documents\\daisytoolchain-0.3.1\\windows\\arm-none-eabi\\include
 7357              		.file 46 "c:\\users\\vin\355cius\\documents\\daisytoolchain-0.3.1\\windows\\arm-none-eabi\\include
 7358              		.file 47 "c:\\users\\vin\355cius\\documents\\daisytoolchain-0.3.1\\windows\\arm-none-eabi\\include
 7359              		.file 48 "c:\\users\\vin\355cius\\documents\\daisytoolchain-0.3.1\\windows\\arm-none-eabi\\include
 7360              		.file 49 "c:\\users\\vin\355cius\\documents\\daisytoolchain-0.3.1\\windows\\arm-none-eabi\\include
 7361              		.file 50 "c:\\users\\vin\355cius\\documents\\daisytoolchain-0.3.1\\windows\\arm-none-eabi\\include
 7362              		.file 51 "c:\\users\\vin\355cius\\documents\\daisytoolchain-0.3.1\\windows\\lib\\gcc\\arm-none-eab
 7363              		.file 52 "c:\\users\\vin\355cius\\documents\\daisytoolchain-0.3.1\\windows\\arm-none-eabi\\include
 7364              		.file 53 "c:\\users\\vin\355cius\\documents\\daisytoolchain-0.3.1\\windows\\arm-none-eabi\\include
 7365              		.file 54 "../../libdaisy/src/daisy_core.h"
 7366              		.file 55 "../../libdaisy/src/per/tim.h"
 7367              		.file 56 "../../libdaisy/src/per/sai.h"
 7368              		.file 57 "../../libdaisy/src/per/spi.h"
 7369              		.file 58 "../../libdaisy/src/util/wav_format.h"
 7370              		.file 59 "../../libdaisy/src/hid/logger_impl.h"
 7371              		.file 60 "../../libdaisy/src/per/qspi.h"
 7372              		.file 61 "../../libdaisy/src/per/gpio.h"
 7373              		.file 62 "../../libdaisy/src/dev/sdram.h"
 7374              		.file 63 "../../libdaisy/src/util/oled_fonts.h"
 7375              		.file 64 "../../DaisySP/Source/Control/adenv.h"
 7376              		.file 65 "c:\\users\\vin\355cius\\documents\\daisytoolchain-0.3.1\\windows\\arm-none-eabi\\include
 7377              		.file 66 "c:\\users\\vin\355cius\\documents\\daisytoolchain-0.3.1\\windows\\arm-none-eabi\\include
 7378              		.file 67 "c:\\users\\vin\355cius\\documents\\daisytoolchain-0.3.1\\windows\\arm-none-eabi\\include
 7379              		.file 68 "../../libdaisy/src/dev/sr_595.h"
 7380              		.file 69 "c:\\users\\vin\355cius\\documents\\daisytoolchain-0.3.1\\windows\\arm-none-eabi\\include
 7381              		.file 70 "<built-in>"
ARM GAS  C:\Users\VINCIU~1\AppData\Local\Temp\cc6Tz7la.s 			page 205


DEFINED SYMBOLS
                            *ABS*:00000000 SynthMenis.cpp
C:\Users\VINCIU~1\AppData\Local\Temp\cc6Tz7la.s:17     .text._ZN5daisy9DaisySeedD2Ev:00000000 $t
C:\Users\VINCIU~1\AppData\Local\Temp\cc6Tz7la.s:26     .text._ZN5daisy9DaisySeedD2Ev:00000000 _ZN5daisy9DaisySeedD2Ev
C:\Users\VINCIU~1\AppData\Local\Temp\cc6Tz7la.s:26     .text._ZN5daisy9DaisySeedD2Ev:00000000 _ZN5daisy9DaisySeedD1Ev
C:\Users\VINCIU~1\AppData\Local\Temp\cc6Tz7la.s:67     .text._ZN7daisysp4AdsrD2Ev:00000000 $t
C:\Users\VINCIU~1\AppData\Local\Temp\cc6Tz7la.s:75     .text._ZN7daisysp4AdsrD2Ev:00000000 _ZN7daisysp4AdsrD2Ev
C:\Users\VINCIU~1\AppData\Local\Temp\cc6Tz7la.s:75     .text._ZN7daisysp4AdsrD2Ev:00000000 _ZN7daisysp4AdsrD1Ev
C:\Users\VINCIU~1\AppData\Local\Temp\cc6Tz7la.s:92     .text._ZN7daisysp4LineD2Ev:00000000 $t
C:\Users\VINCIU~1\AppData\Local\Temp\cc6Tz7la.s:100    .text._ZN7daisysp4LineD2Ev:00000000 _ZN7daisysp4LineD2Ev
C:\Users\VINCIU~1\AppData\Local\Temp\cc6Tz7la.s:100    .text._ZN7daisysp4LineD2Ev:00000000 _ZN7daisysp4LineD1Ev
C:\Users\VINCIU~1\AppData\Local\Temp\cc6Tz7la.s:117    .text._ZNK5daisy11OledDisplayINS_13SSD130xDriverILj128ELj64ENS_24SSD130x4WireSpiTransportEEEE6HeightEv:00000000 $t
C:\Users\VINCIU~1\AppData\Local\Temp\cc6Tz7la.s:125    .text._ZNK5daisy11OledDisplayINS_13SSD130xDriverILj128ELj64ENS_24SSD130x4WireSpiTransportEEEE6HeightEv:00000000 _ZNK5daisy11OledDisplayINS_13SSD130xDriverILj128ELj64ENS_24SSD130x4WireSpiTransportEEEE6HeightEv
C:\Users\VINCIU~1\AppData\Local\Temp\cc6Tz7la.s:143    .text._ZNK5daisy11OledDisplayINS_13SSD130xDriverILj128ELj64ENS_24SSD130x4WireSpiTransportEEEE5WidthEv:00000000 $t
C:\Users\VINCIU~1\AppData\Local\Temp\cc6Tz7la.s:151    .text._ZNK5daisy11OledDisplayINS_13SSD130xDriverILj128ELj64ENS_24SSD130x4WireSpiTransportEEEE5WidthEv:00000000 _ZNK5daisy11OledDisplayINS_13SSD130xDriverILj128ELj64ENS_24SSD130x4WireSpiTransportEEEE5WidthEv
C:\Users\VINCIU~1\AppData\Local\Temp\cc6Tz7la.s:168    .text._ZN23OledDisplayExtravaganzaD2Ev:00000000 $t
C:\Users\VINCIU~1\AppData\Local\Temp\cc6Tz7la.s:176    .text._ZN23OledDisplayExtravaganzaD2Ev:00000000 _ZN23OledDisplayExtravaganzaD2Ev
C:\Users\VINCIU~1\AppData\Local\Temp\cc6Tz7la.s:176    .text._ZN23OledDisplayExtravaganzaD2Ev:00000000 _ZN23OledDisplayExtravaganzaD1Ev
C:\Users\VINCIU~1\AppData\Local\Temp\cc6Tz7la.s:207    .text._ZN5MenusD2Ev:00000000 $t
C:\Users\VINCIU~1\AppData\Local\Temp\cc6Tz7la.s:215    .text._ZN5MenusD2Ev:00000000 _ZN5MenusD2Ev
C:\Users\VINCIU~1\AppData\Local\Temp\cc6Tz7la.s:215    .text._ZN5MenusD2Ev:00000000 _ZN5MenusD1Ev
C:\Users\VINCIU~1\AppData\Local\Temp\cc6Tz7la.s:262    .text.__tcf_0:00000000 $t
C:\Users\VINCIU~1\AppData\Local\Temp\cc6Tz7la.s:269    .text.__tcf_0:00000000 __tcf_0
C:\Users\VINCIU~1\AppData\Local\Temp\cc6Tz7la.s:283    .text._ZN5daisy11OledDisplayINS_13SSD130xDriverILj128ELj64ENS_24SSD130x4WireSpiTransportEEEE4FillEb:00000000 $t
C:\Users\VINCIU~1\AppData\Local\Temp\cc6Tz7la.s:291    .text._ZN5daisy11OledDisplayINS_13SSD130xDriverILj128ELj64ENS_24SSD130x4WireSpiTransportEEEE4FillEb:00000000 _ZN5daisy11OledDisplayINS_13SSD130xDriverILj128ELj64ENS_24SSD130x4WireSpiTransportEEEE4FillEb
C:\Users\VINCIU~1\AppData\Local\Temp\cc6Tz7la.s:323    .text._ZN5daisy11MidiHandlerINS_17MidiUartTransportEED2Ev:00000000 $t
C:\Users\VINCIU~1\AppData\Local\Temp\cc6Tz7la.s:331    .text._ZN5daisy11MidiHandlerINS_17MidiUartTransportEED2Ev:00000000 _ZN5daisy11MidiHandlerINS_17MidiUartTransportEED2Ev
C:\Users\VINCIU~1\AppData\Local\Temp\cc6Tz7la.s:331    .text._ZN5daisy11MidiHandlerINS_17MidiUartTransportEED2Ev:00000000 _ZN5daisy11MidiHandlerINS_17MidiUartTransportEED1Ev
C:\Users\VINCIU~1\AppData\Local\Temp\cc6Tz7la.s:353    .text._Z13AudioCallbackPKfPfj:00000000 $t
C:\Users\VINCIU~1\AppData\Local\Temp\cc6Tz7la.s:361    .text._Z13AudioCallbackPKfPfj:00000000 _Z13AudioCallbackPKfPfj
C:\Users\VINCIU~1\AppData\Local\Temp\cc6Tz7la.s:529    .text._Z13AudioCallbackPKfPfj:0000009c $d
C:\Users\VINCIU~1\AppData\Local\Temp\cc6Tz7la.s:541    .text._ZN23OledDisplayExtravaganzaD0Ev:00000000 $t
C:\Users\VINCIU~1\AppData\Local\Temp\cc6Tz7la.s:549    .text._ZN23OledDisplayExtravaganzaD0Ev:00000000 _ZN23OledDisplayExtravaganzaD0Ev
C:\Users\VINCIU~1\AppData\Local\Temp\cc6Tz7la.s:593    .text._ZN5daisy11OledDisplayINS_13SSD130xDriverILj128ELj64ENS_24SSD130x4WireSpiTransportEEEE6UpdateEv:00000000 $t
C:\Users\VINCIU~1\AppData\Local\Temp\cc6Tz7la.s:601    .text._ZN5daisy11OledDisplayINS_13SSD130xDriverILj128ELj64ENS_24SSD130x4WireSpiTransportEEEE6UpdateEv:00000000 _ZN5daisy11OledDisplayINS_13SSD130xDriverILj128ELj64ENS_24SSD130x4WireSpiTransportEEEE6UpdateEv
C:\Users\VINCIU~1\AppData\Local\Temp\cc6Tz7la.s:788    .text._ZN5daisy25OneBitGraphicsDisplayImplINS_11OledDisplayINS_13SSD130xDriverILj128ELj64ENS_24SSD130x4WireSpiTransportEEEEEE9WriteCharEc7FontDefb:00000000 $t
C:\Users\VINCIU~1\AppData\Local\Temp\cc6Tz7la.s:796    .text._ZN5daisy25OneBitGraphicsDisplayImplINS_11OledDisplayINS_13SSD130xDriverILj128ELj64ENS_24SSD130x4WireSpiTransportEEEEEE9WriteCharEc7FontDefb:00000000 _ZN5daisy25OneBitGraphicsDisplayImplINS_11OledDisplayINS_13SSD130xDriverILj128ELj64ENS_24SSD130x4WireSpiTransportEEEEEE9WriteCharEc7FontDefb
C:\Users\VINCIU~1\AppData\Local\Temp\cc6Tz7la.s:1222   .text._ZN5daisy25OneBitGraphicsDisplayImplINS_11OledDisplayINS_13SSD130xDriverILj128ELj64ENS_24SSD130x4WireSpiTransportEEEEEE9WriteCharEc7FontDefb:00000198 $d
C:\Users\VINCIU~1\AppData\Local\Temp\cc6Tz7la.s:1230   .text._ZN5daisy25OneBitGraphicsDisplayImplINS_11OledDisplayINS_13SSD130xDriverILj128ELj64ENS_24SSD130x4WireSpiTransportEEEEEE11WriteStringEPKc7FontDefb:00000000 $t
C:\Users\VINCIU~1\AppData\Local\Temp\cc6Tz7la.s:1238   .text._ZN5daisy25OneBitGraphicsDisplayImplINS_11OledDisplayINS_13SSD130xDriverILj128ELj64ENS_24SSD130x4WireSpiTransportEEEEEE11WriteStringEPKc7FontDefb:00000000 _ZN5daisy25OneBitGraphicsDisplayImplINS_11OledDisplayINS_13SSD130xDriverILj128ELj64ENS_24SSD130x4WireSpiTransportEEEEEE11WriteStringEPKc7FontDefb
C:\Users\VINCIU~1\AppData\Local\Temp\cc6Tz7la.s:1312   .text._ZN5daisy11OledDisplayINS_13SSD130xDriverILj128ELj64ENS_24SSD130x4WireSpiTransportEEEE9DrawPixelEjjb:00000000 $t
C:\Users\VINCIU~1\AppData\Local\Temp\cc6Tz7la.s:1320   .text._ZN5daisy11OledDisplayINS_13SSD130xDriverILj128ELj64ENS_24SSD130x4WireSpiTransportEEEE9DrawPixelEjjb:00000000 _ZN5daisy11OledDisplayINS_13SSD130xDriverILj128ELj64ENS_24SSD130x4WireSpiTransportEEEE9DrawPixelEjjb
C:\Users\VINCIU~1\AppData\Local\Temp\cc6Tz7la.s:1397   .text._ZN5daisy25OneBitGraphicsDisplayImplINS_11OledDisplayINS_13SSD130xDriverILj128ELj64ENS_24SSD130x4WireSpiTransportEEEEEE8DrawLineEjjjjb:00000000 $t
C:\Users\VINCIU~1\AppData\Local\Temp\cc6Tz7la.s:1405   .text._ZN5daisy25OneBitGraphicsDisplayImplINS_11OledDisplayINS_13SSD130xDriverILj128ELj64ENS_24SSD130x4WireSpiTransportEEEEEE8DrawLineEjjjjb:00000000 _ZN5daisy25OneBitGraphicsDisplayImplINS_11OledDisplayINS_13SSD130xDriverILj128ELj64ENS_24SSD130x4WireSpiTransportEEEEEE8DrawLineEjjjjb
C:\Users\VINCIU~1\AppData\Local\Temp\cc6Tz7la.s:1690   .text._ZN5daisy25OneBitGraphicsDisplayImplINS_11OledDisplayINS_13SSD130xDriverILj128ELj64ENS_24SSD130x4WireSpiTransportEEEEEE7DrawArcEjjjiib:00000000 $t
C:\Users\VINCIU~1\AppData\Local\Temp\cc6Tz7la.s:1698   .text._ZN5daisy25OneBitGraphicsDisplayImplINS_11OledDisplayINS_13SSD130xDriverILj128ELj64ENS_24SSD130x4WireSpiTransportEEEEEE7DrawArcEjjjiib:00000000 _ZN5daisy25OneBitGraphicsDisplayImplINS_11OledDisplayINS_13SSD130xDriverILj128ELj64ENS_24SSD130x4WireSpiTransportEEEEEE7DrawArcEjjjiib
C:\Users\VINCIU~1\AppData\Local\Temp\cc6Tz7la.s:2383   .text._ZN5daisy25OneBitGraphicsDisplayImplINS_11OledDisplayINS_13SSD130xDriverILj128ELj64ENS_24SSD130x4WireSpiTransportEEEEEE7DrawArcEjjjiib:00000368 $d
C:\Users\VINCIU~1\AppData\Local\Temp\cc6Tz7la.s:2397   .text._ZN5daisy25OneBitGraphicsDisplayImplINS_11OledDisplayINS_13SSD130xDriverILj128ELj64ENS_24SSD130x4WireSpiTransportEEEEEE7DrawArcEjjjiib:00000378 $t
C:\Users\VINCIU~1\AppData\Local\Temp\cc6Tz7la.s:2623   .text._ZN5daisy25OneBitGraphicsDisplayImplINS_11OledDisplayINS_13SSD130xDriverILj128ELj64ENS_24SSD130x4WireSpiTransportEEEEEE8DrawRectEjjjjbb:00000000 $t
C:\Users\VINCIU~1\AppData\Local\Temp\cc6Tz7la.s:2631   .text._ZN5daisy25OneBitGraphicsDisplayImplINS_11OledDisplayINS_13SSD130xDriverILj128ELj64ENS_24SSD130x4WireSpiTransportEEEEEE8DrawRectEjjjjbb:00000000 _ZN5daisy25OneBitGraphicsDisplayImplINS_11OledDisplayINS_13SSD130xDriverILj128ELj64ENS_24SSD130x4WireSpiTransportEEEEEE8DrawRectEjjjjbb
C:\Users\VINCIU~1\AppData\Local\Temp\cc6Tz7la.s:3741   .rodata._Z17HandleMidiMessage9MidiEvent.str1.4:00000000 $d
C:\Users\VINCIU~1\AppData\Local\Temp\cc6Tz7la.s:3748   .text._Z17HandleMidiMessage9MidiEvent:00000000 $t
C:\Users\VINCIU~1\AppData\Local\Temp\cc6Tz7la.s:3756   .text._Z17HandleMidiMessage9MidiEvent:00000000 _Z17HandleMidiMessage9MidiEvent
C:\Users\VINCIU~1\AppData\Local\Temp\cc6Tz7la.s:3974   .text._Z17HandleMidiMessage9MidiEvent:000000c4 $d
C:\Users\VINCIU~1\AppData\Local\Temp\cc6Tz7la.s:3985   .text._ZN5daisy13SSD130xDriverILj128ELj64ENS_24SSD130x4WireSpiTransportEE4InitENS2_6ConfigE:00000000 $t
C:\Users\VINCIU~1\AppData\Local\Temp\cc6Tz7la.s:3993   .text._ZN5daisy13SSD130xDriverILj128ELj64ENS_24SSD130x4WireSpiTransportEE4InitENS2_6ConfigE:00000000 _ZN5daisy13SSD130xDriverILj128ELj64ENS_24SSD130x4WireSpiTransportEE4InitENS2_6ConfigE
C:\Users\VINCIU~1\AppData\Local\Temp\cc6Tz7la.s:4788   .text._ZN5daisy13SSD130xDriverILj128ELj64ENS_24SSD130x4WireSpiTransportEE4InitENS2_6ConfigE:000002cc $d
ARM GAS  C:\Users\VINCIU~1\AppData\Local\Temp\cc6Tz7la.s 			page 206


C:\Users\VINCIU~1\AppData\Local\Temp\cc6Tz7la.s:4794   .text._ZN5daisy11MidiHandlerINS_17MidiUartTransportEE5ParseEh:00000000 $t
C:\Users\VINCIU~1\AppData\Local\Temp\cc6Tz7la.s:4802   .text._ZN5daisy11MidiHandlerINS_17MidiUartTransportEE5ParseEh:00000000 _ZN5daisy11MidiHandlerINS_17MidiUartTransportEE5ParseEh
C:\Users\VINCIU~1\AppData\Local\Temp\cc6Tz7la.s:4826   .text._ZN5daisy11MidiHandlerINS_17MidiUartTransportEE5ParseEh:00000012 $d
C:\Users\VINCIU~1\AppData\Local\Temp\cc6Tz7la.s:4830   .text._ZN5daisy11MidiHandlerINS_17MidiUartTransportEE5ParseEh:00000016 $t
C:\Users\VINCIU~1\AppData\Local\Temp\cc6Tz7la.s:5377   .rodata.main.str1.4:00000000 $d
C:\Users\VINCIU~1\AppData\Local\Temp\cc6Tz7la.s:5384   .text.startup.main:00000000 $t
C:\Users\VINCIU~1\AppData\Local\Temp\cc6Tz7la.s:5392   .text.startup.main:00000000 main
C:\Users\VINCIU~1\AppData\Local\Temp\cc6Tz7la.s:6002   .text.startup.main:00000278 $d
C:\Users\VINCIU~1\AppData\Local\Temp\cc6Tz7la.s:7283   .bss.midi:00000000 midi
C:\Users\VINCIU~1\AppData\Local\Temp\cc6Tz7la.s:6024   .text.startup.main:000002c4 $t
C:\Users\VINCIU~1\AppData\Local\Temp\cc6Tz7la.s:6739   .text.startup.main:00000498 $d
C:\Users\VINCIU~1\AppData\Local\Temp\cc6Tz7la.s:7208   .rodata._ZTV23OledDisplayExtravaganza:00000000 _ZTV23OledDisplayExtravaganza
C:\Users\VINCIU~1\AppData\Local\Temp\cc6Tz7la.s:6757   .text.startup._GLOBAL__sub_I_synthmenu:00000000 $t
C:\Users\VINCIU~1\AppData\Local\Temp\cc6Tz7la.s:6764   .text.startup._GLOBAL__sub_I_synthmenu:00000000 _GLOBAL__sub_I_synthmenu
C:\Users\VINCIU~1\AppData\Local\Temp\cc6Tz7la.s:7113   .text.startup._GLOBAL__sub_I_synthmenu:000000b4 $d
C:\Users\VINCIU~1\AppData\Local\Temp\cc6Tz7la.s:7135   .init_array:00000000 $d
C:\Users\VINCIU~1\AppData\Local\Temp\cc6Tz7la.s:7142   .rodata._ZTSN5daisy21OneBitGraphicsDisplayE:00000000 _ZTSN5daisy21OneBitGraphicsDisplayE
C:\Users\VINCIU~1\AppData\Local\Temp\cc6Tz7la.s:7139   .rodata._ZTSN5daisy21OneBitGraphicsDisplayE:00000000 $d
C:\Users\VINCIU~1\AppData\Local\Temp\cc6Tz7la.s:7149   .rodata._ZTIN5daisy21OneBitGraphicsDisplayE:00000000 _ZTIN5daisy21OneBitGraphicsDisplayE
C:\Users\VINCIU~1\AppData\Local\Temp\cc6Tz7la.s:7146   .rodata._ZTIN5daisy21OneBitGraphicsDisplayE:00000000 $d
C:\Users\VINCIU~1\AppData\Local\Temp\cc6Tz7la.s:7157   .rodata._ZTSN5daisy25OneBitGraphicsDisplayImplINS_11OledDisplayINS_13SSD130xDriverILj128ELj64ENS_24SSD130x4WireSpiTransportEEEEEEE:00000000 _ZTSN5daisy25OneBitGraphicsDisplayImplINS_11OledDisplayINS_13SSD130xDriverILj128ELj64ENS_24SSD130x4WireSpiTransportEEEEEEE
C:\Users\VINCIU~1\AppData\Local\Temp\cc6Tz7la.s:7154   .rodata._ZTSN5daisy25OneBitGraphicsDisplayImplINS_11OledDisplayINS_13SSD130xDriverILj128ELj64ENS_24SSD130x4WireSpiTransportEEEEEEE:00000000 $d
C:\Users\VINCIU~1\AppData\Local\Temp\cc6Tz7la.s:7166   .rodata._ZTIN5daisy25OneBitGraphicsDisplayImplINS_11OledDisplayINS_13SSD130xDriverILj128ELj64ENS_24SSD130x4WireSpiTransportEEEEEEE:00000000 _ZTIN5daisy25OneBitGraphicsDisplayImplINS_11OledDisplayINS_13SSD130xDriverILj128ELj64ENS_24SSD130x4WireSpiTransportEEEEEEE
C:\Users\VINCIU~1\AppData\Local\Temp\cc6Tz7la.s:7163   .rodata._ZTIN5daisy25OneBitGraphicsDisplayImplINS_11OledDisplayINS_13SSD130xDriverILj128ELj64ENS_24SSD130x4WireSpiTransportEEEEEEE:00000000 $d
C:\Users\VINCIU~1\AppData\Local\Temp\cc6Tz7la.s:7175   .rodata._ZTSN5daisy11OledDisplayINS_13SSD130xDriverILj128ELj64ENS_24SSD130x4WireSpiTransportEEEEE:00000000 _ZTSN5daisy11OledDisplayINS_13SSD130xDriverILj128ELj64ENS_24SSD130x4WireSpiTransportEEEEE
C:\Users\VINCIU~1\AppData\Local\Temp\cc6Tz7la.s:7172   .rodata._ZTSN5daisy11OledDisplayINS_13SSD130xDriverILj128ELj64ENS_24SSD130x4WireSpiTransportEEEEE:00000000 $d
C:\Users\VINCIU~1\AppData\Local\Temp\cc6Tz7la.s:7183   .rodata._ZTIN5daisy11OledDisplayINS_13SSD130xDriverILj128ELj64ENS_24SSD130x4WireSpiTransportEEEEE:00000000 _ZTIN5daisy11OledDisplayINS_13SSD130xDriverILj128ELj64ENS_24SSD130x4WireSpiTransportEEEEE
C:\Users\VINCIU~1\AppData\Local\Temp\cc6Tz7la.s:7180   .rodata._ZTIN5daisy11OledDisplayINS_13SSD130xDriverILj128ELj64ENS_24SSD130x4WireSpiTransportEEEEE:00000000 $d
C:\Users\VINCIU~1\AppData\Local\Temp\cc6Tz7la.s:7192   .rodata._ZTS23OledDisplayExtravaganza:00000000 _ZTS23OledDisplayExtravaganza
C:\Users\VINCIU~1\AppData\Local\Temp\cc6Tz7la.s:7189   .rodata._ZTS23OledDisplayExtravaganza:00000000 $d
C:\Users\VINCIU~1\AppData\Local\Temp\cc6Tz7la.s:7199   .rodata._ZTI23OledDisplayExtravaganza:00000000 _ZTI23OledDisplayExtravaganza
C:\Users\VINCIU~1\AppData\Local\Temp\cc6Tz7la.s:7196   .rodata._ZTI23OledDisplayExtravaganza:00000000 $d
C:\Users\VINCIU~1\AppData\Local\Temp\cc6Tz7la.s:7205   .rodata._ZTV23OledDisplayExtravaganza:00000000 $d
C:\Users\VINCIU~1\AppData\Local\Temp\cc6Tz7la.s:7297   .bss.navigation:00000000 navigation
C:\Users\VINCIU~1\AppData\Local\Temp\cc6Tz7la.s:7257   .bss.finished:00000000 finished
C:\Users\VINCIU~1\AppData\Local\Temp\cc6Tz7la.s:7311   .bss.osc1Freq:00000000 osc1Freq
C:\Users\VINCIU~1\AppData\Local\Temp\cc6Tz7la.s:7331   .data.semiMultiplier:00000000 semiMultiplier
C:\Users\VINCIU~1\AppData\Local\Temp\cc6Tz7la.s:7290   .bss.midi_cfg:00000000 midi_cfg
C:\Users\VINCIU~1\AppData\Local\Temp\cc6Tz7la.s:7263   .bss.gate:00000000 gate
C:\Users\VINCIU~1\AppData\Local\Temp\cc6Tz7la.s:7251   .bss.env:00000000 env
C:\Users\VINCIU~1\AppData\Local\Temp\cc6Tz7la.s:7277   .bss.line:00000000 line
C:\Users\VINCIU~1\AppData\Local\Temp\cc6Tz7la.s:7304   .bss.osc:00000000 osc
C:\Users\VINCIU~1\AppData\Local\Temp\cc6Tz7la.s:7318   .bss.screen:00000000 screen
C:\Users\VINCIU~1\AppData\Local\Temp\cc6Tz7la.s:7270   .bss.hw:00000000 hw
C:\Users\VINCIU~1\AppData\Local\Temp\cc6Tz7la.s:7325   .bss.synthmenu:00000000 synthmenu
C:\Users\VINCIU~1\AppData\Local\Temp\cc6Tz7la.s:7237   .rodata:00000000 $d
C:\Users\VINCIU~1\AppData\Local\Temp\cc6Tz7la.s:7247   .bss.env:00000000 $d
C:\Users\VINCIU~1\AppData\Local\Temp\cc6Tz7la.s:7258   .bss.finished:00000000 $d
C:\Users\VINCIU~1\AppData\Local\Temp\cc6Tz7la.s:7264   .bss.gate:00000000 $d
C:\Users\VINCIU~1\AppData\Local\Temp\cc6Tz7la.s:7266   .bss.hw:00000000 $d
C:\Users\VINCIU~1\AppData\Local\Temp\cc6Tz7la.s:7273   .bss.line:00000000 $d
C:\Users\VINCIU~1\AppData\Local\Temp\cc6Tz7la.s:7280   .bss.midi:00000000 $d
C:\Users\VINCIU~1\AppData\Local\Temp\cc6Tz7la.s:7286   .bss.midi_cfg:00000000 $d
C:\Users\VINCIU~1\AppData\Local\Temp\cc6Tz7la.s:7293   .bss.navigation:00000000 $d
C:\Users\VINCIU~1\AppData\Local\Temp\cc6Tz7la.s:7300   .bss.osc:00000000 $d
C:\Users\VINCIU~1\AppData\Local\Temp\cc6Tz7la.s:7307   .bss.osc1Freq:00000000 $d
C:\Users\VINCIU~1\AppData\Local\Temp\cc6Tz7la.s:7314   .bss.screen:00000000 $d
ARM GAS  C:\Users\VINCIU~1\AppData\Local\Temp\cc6Tz7la.s 			page 207


C:\Users\VINCIU~1\AppData\Local\Temp\cc6Tz7la.s:7321   .bss.synthmenu:00000000 $d
C:\Users\VINCIU~1\AppData\Local\Temp\cc6Tz7la.s:7328   .data.semiMultiplier:00000000 $d
                           .group:00000000 _ZN5daisy9DaisySeedD5Ev
                           .group:00000000 _ZN7daisysp4AdsrD5Ev
                           .group:00000000 _ZN7daisysp4LineD5Ev
                           .group:00000000 _ZN23OledDisplayExtravaganzaD5Ev
                           .group:00000000 _ZN5MenusD5Ev
                           .group:00000000 _ZN5daisy11MidiHandlerINS_17MidiUartTransportEED5Ev

UNDEFINED SYMBOLS
memset
_ZN7daisysp4Adsr7ProcessEb
_ZN7daisysp10Oscillator7ProcessEv
_ZN7daisysp4Line7ProcessEPh
_ZdlPvj
dsy_gpio_write
_ZN5daisy9SpiHandle16BlockingTransmitEPhjm
cosf
sinf
sprintf
strlen
_ZN5daisy9UsbHandle16TransmitInternalEPhj
_ZN7daisysp4Line5StartEfff
dsy_gpio_init
_ZN5daisy9SpiHandle4InitERKNS0_6ConfigE
_ZN5daisy6System5DelayEm
memcpy
_ZN5daisy9DaisySeed9ConfigureEv
_ZN5daisy9DaisySeed4InitEb
_ZN5daisy9UsbHandle4InitENS0_9UsbPeriphE
_ZN5daisy9DaisySeed15AudioSampleRateEv
_ZN5daisy9DaisySeed6GetPinEh
_ZN5daisy6Switch4InitE12dsy_gpio_pinf
_ZN5daisy7Encoder4InitE12dsy_gpio_pinS1_S1_f
_ZN5daisy9DaisySeed10StartAudioEPFvPKfPfjE
_ZN7daisysp10Oscillator12CalcPhaseIncEf
_ZN7daisysp4Line4InitEf
_ZN7daisysp4Adsr4InitEfi
_ZN7daisysp4Adsr7SetTimeEif
_ZN5daisy11UartHandler4InitERKNS0_6ConfigE
_ZN5daisy11UartHandler7StartRxEv
_ZN5daisy6System6GetNowEv
_ZN5daisy11UartHandler5PopRxEv
_ZN5daisy11UartHandler8ReadableEv
_ZN5daisy11UartHandler8RxActiveEv
_ZN5daisy6Switch8DebounceEv
_ZN5daisy7Encoder8DebounceEv
_ZN5Menus5Menu3E23OledDisplayExtravaganzaPN7daisysp10OscillatorERNS1_4AdsrE
powf
_ZN5Menus5Menu1E23OledDisplayExtravaganzaPN7daisysp10OscillatorE
_ZN5daisy11UartHandler7FlushRxEv
_ZN5Menus5Menu2E23OledDisplayExtravaganzaPN7daisysp10OscillatorE
_ZN5MenusC1Ev
__aeabi_atexit
_ZN23OledDisplayExtravaganzaC1Ev
__dso_handle
_ZTVN10__cxxabiv117__class_type_infoE
ARM GAS  C:\Users\VINCIU~1\AppData\Local\Temp\cc6Tz7la.s 			page 208


_ZTVN10__cxxabiv120__si_class_type_infoE
