ARM GAS  C:\Users\VINCIU~1\AppData\Local\Temp\cc6F1pHH.s 			page 1


   1              		.cpu cortex-m7
   2              		.eabi_attribute 28, 1
   3              		.eabi_attribute 20, 1
   4              		.eabi_attribute 21, 1
   5              		.eabi_attribute 23, 3
   6              		.eabi_attribute 24, 1
   7              		.eabi_attribute 25, 1
   8              		.eabi_attribute 26, 1
   9              		.eabi_attribute 30, 2
  10              		.eabi_attribute 34, 1
  11              		.eabi_attribute 18, 4
  12              		.file	"SynthMenis.cpp"
  13              		.text
  14              	.Ltext0:
  15              		.cfi_sections	.debug_frame
  16              		.section	.text._ZN5daisy9DaisySeedD2Ev,"axG",%progbits,_ZN5daisy9DaisySeedD5Ev,comdat
  17              		.align	1
  18              		.p2align 2,,3
  19              		.weak	_ZN5daisy9DaisySeedD2Ev
  20              		.arch armv7e-m
  21              		.syntax unified
  22              		.thumb
  23              		.thumb_func
  24              		.fpu fpv5-d16
  26              	_ZN5daisy9DaisySeedD2Ev:
  27              	.LVL0:
  28              	.LFB1793:
  29              		.file 1 "../../libdaisy/src/daisy_seed.h"
   1:../../libdaisy/src/daisy_seed.h **** #pragma once
   2:../../libdaisy/src/daisy_seed.h **** #ifndef DSY_SEED_H
   3:../../libdaisy/src/daisy_seed.h **** #define DSY_SEED_H
   4:../../libdaisy/src/daisy_seed.h **** 
   5:../../libdaisy/src/daisy_seed.h **** #include "daisy.h"
   6:../../libdaisy/src/daisy_seed.h **** 
   7:../../libdaisy/src/daisy_seed.h **** //Uncomment this out if you're still using the rev2 hardware
   8:../../libdaisy/src/daisy_seed.h **** //#define SEED_REV2
   9:../../libdaisy/src/daisy_seed.h **** 
  10:../../libdaisy/src/daisy_seed.h **** namespace daisy
  11:../../libdaisy/src/daisy_seed.h **** {
  12:../../libdaisy/src/daisy_seed.h **** /**
  13:../../libdaisy/src/daisy_seed.h ****    @brief This is the higher-level interface for the Daisy board. \n 
  14:../../libdaisy/src/daisy_seed.h ****     All basic peripheral configuration/initialization is setup here. \n
  15:../../libdaisy/src/daisy_seed.h **** 
  16:../../libdaisy/src/daisy_seed.h ****    @ingroup boards
  17:../../libdaisy/src/daisy_seed.h **** */
  18:../../libdaisy/src/daisy_seed.h **** class DaisySeed
  19:../../libdaisy/src/daisy_seed.h **** {
  20:../../libdaisy/src/daisy_seed.h ****   public:
  21:../../libdaisy/src/daisy_seed.h ****     DaisySeed() {}
  22:../../libdaisy/src/daisy_seed.h ****     ~DaisySeed() {}
  30              		.loc 1 22 5 view -0
  31              		.cfi_startproc
  32              		@ args = 0, pretend = 0, frame = 0
  33              		@ frame_needed = 0, uses_anonymous_args = 0
  34              		@ link register save eliminated.
  35              	.LBB305:
  36              	.LBI305:
ARM GAS  C:\Users\VINCIU~1\AppData\Local\Temp\cc6F1pHH.s 			page 2


  37              		.file 2 "../../libdaisy/src/sys/system.h"
   1:../../libdaisy/src/sys/system.h **** #ifndef DSY_SYSTEM_H
   2:../../libdaisy/src/sys/system.h **** #define DSY_SYSTEM_H
   3:../../libdaisy/src/sys/system.h **** 
   4:../../libdaisy/src/sys/system.h **** #ifndef UNIT_TEST // for unit tests, a dummy implementation is provided below
   5:../../libdaisy/src/sys/system.h **** 
   6:../../libdaisy/src/sys/system.h **** #include <cstdint>
   7:../../libdaisy/src/sys/system.h **** #include "per/tim.h"
   8:../../libdaisy/src/sys/system.h **** 
   9:../../libdaisy/src/sys/system.h **** namespace daisy
  10:../../libdaisy/src/sys/system.h **** {
  11:../../libdaisy/src/sys/system.h **** /** A handle for interacting with the Core System. 
  12:../../libdaisy/src/sys/system.h ****  ** This includes the Clock tree, MPU, global DMA initialization,
  13:../../libdaisy/src/sys/system.h ****  ** cache handling, and any other necessary global initiailzation
  14:../../libdaisy/src/sys/system.h ****  **
  15:../../libdaisy/src/sys/system.h ****  ** @author shensley
  16:../../libdaisy/src/sys/system.h ****  ** @addtogroup system
  17:../../libdaisy/src/sys/system.h ****  */
  18:../../libdaisy/src/sys/system.h **** class System
  19:../../libdaisy/src/sys/system.h **** {
  20:../../libdaisy/src/sys/system.h ****   public:
  21:../../libdaisy/src/sys/system.h ****     /** Contains settings for initializing the System */
  22:../../libdaisy/src/sys/system.h ****     struct Config
  23:../../libdaisy/src/sys/system.h ****     {
  24:../../libdaisy/src/sys/system.h ****         /** Specifies the system clock frequency that feeds APB/AHB clocks, etc. */
  25:../../libdaisy/src/sys/system.h ****         enum class SysClkFreq
  26:../../libdaisy/src/sys/system.h ****         {
  27:../../libdaisy/src/sys/system.h ****             FREQ_400MHZ,
  28:../../libdaisy/src/sys/system.h ****             FREQ_480MHZ,
  29:../../libdaisy/src/sys/system.h ****         };
  30:../../libdaisy/src/sys/system.h **** 
  31:../../libdaisy/src/sys/system.h ****         /** Method to call on the struct to set to defaults
  32:../../libdaisy/src/sys/system.h ****          ** CPU Freq set to 400MHz
  33:../../libdaisy/src/sys/system.h ****          ** Cache Enabled 
  34:../../libdaisy/src/sys/system.h ****          ** */
  35:../../libdaisy/src/sys/system.h ****         void Defaults()
  36:../../libdaisy/src/sys/system.h ****         {
  37:../../libdaisy/src/sys/system.h ****             cpu_freq   = SysClkFreq::FREQ_400MHZ;
  38:../../libdaisy/src/sys/system.h ****             use_dcache = true;
  39:../../libdaisy/src/sys/system.h ****             use_icache = true;
  40:../../libdaisy/src/sys/system.h ****         }
  41:../../libdaisy/src/sys/system.h **** 
  42:../../libdaisy/src/sys/system.h ****         /** Method to call on the struct to set to boost mode:
  43:../../libdaisy/src/sys/system.h ****          ** CPU Freq set to 480MHz
  44:../../libdaisy/src/sys/system.h ****          ** Cache Enabled 
  45:../../libdaisy/src/sys/system.h ****          ** */
  46:../../libdaisy/src/sys/system.h ****         void Boost()
  47:../../libdaisy/src/sys/system.h ****         {
  48:../../libdaisy/src/sys/system.h ****             cpu_freq   = SysClkFreq::FREQ_480MHZ;
  49:../../libdaisy/src/sys/system.h ****             use_dcache = true;
  50:../../libdaisy/src/sys/system.h ****             use_icache = true;
  51:../../libdaisy/src/sys/system.h ****         }
  52:../../libdaisy/src/sys/system.h **** 
  53:../../libdaisy/src/sys/system.h ****         SysClkFreq cpu_freq;
  54:../../libdaisy/src/sys/system.h ****         bool       use_dcache;
  55:../../libdaisy/src/sys/system.h ****         bool       use_icache;
  56:../../libdaisy/src/sys/system.h ****     };
ARM GAS  C:\Users\VINCIU~1\AppData\Local\Temp\cc6F1pHH.s 			page 3


  57:../../libdaisy/src/sys/system.h **** 
  58:../../libdaisy/src/sys/system.h ****     System() {}
  59:../../libdaisy/src/sys/system.h ****     ~System() {}
  38              		.loc 2 59 5 view .LVU1
  39              		.loc 2 59 5 is_stmt 0 view .LVU2
  40              	.LBE305:
  41              	.LBB306:
  42              	.LBI306:
  43              		.file 3 "../../libdaisy/src/hid/usb.h"
   1:../../libdaisy/src/hid/usb.h **** #pragma once
   2:../../libdaisy/src/hid/usb.h **** #ifndef DSY_HID_USB_H
   3:../../libdaisy/src/hid/usb.h **** #define DSY_HID_USB_H
   4:../../libdaisy/src/hid/usb.h **** #include <stdint.h>
   5:../../libdaisy/src/hid/usb.h **** #include <stdlib.h>
   6:../../libdaisy/src/hid/usb.h **** 
   7:../../libdaisy/src/hid/usb.h **** namespace daisy
   8:../../libdaisy/src/hid/usb.h **** /** @addtogroup externals
   9:../../libdaisy/src/hid/usb.h ****     @{
  10:../../libdaisy/src/hid/usb.h **** */
  11:../../libdaisy/src/hid/usb.h **** 
  12:../../libdaisy/src/hid/usb.h **** {
  13:../../libdaisy/src/hid/usb.h **** /** 
  14:../../libdaisy/src/hid/usb.h ****     @brief Interface for initializing and using the USB Peripherals on the daisy
  15:../../libdaisy/src/hid/usb.h ****     @author Stephen Hensley
  16:../../libdaisy/src/hid/usb.h ****     @date December 2019
  17:../../libdaisy/src/hid/usb.h **** */
  18:../../libdaisy/src/hid/usb.h **** class UsbHandle
  19:../../libdaisy/src/hid/usb.h **** {
  20:../../libdaisy/src/hid/usb.h ****   public:
  21:../../libdaisy/src/hid/usb.h ****     /** Return values for USBHandle Functions */
  22:../../libdaisy/src/hid/usb.h ****     enum class Result
  23:../../libdaisy/src/hid/usb.h ****     {
  24:../../libdaisy/src/hid/usb.h ****         OK,
  25:../../libdaisy/src/hid/usb.h ****         ERR,
  26:../../libdaisy/src/hid/usb.h ****     };
  27:../../libdaisy/src/hid/usb.h **** 
  28:../../libdaisy/src/hid/usb.h ****     /** Specified which of the two USB Peripherals to initialize. */
  29:../../libdaisy/src/hid/usb.h ****     enum UsbPeriph
  30:../../libdaisy/src/hid/usb.h ****     {
  31:../../libdaisy/src/hid/usb.h ****         FS_INTERNAL, /**< Internal pin */
  32:../../libdaisy/src/hid/usb.h ****         FS_EXTERNAL, /**< FS External D+ pin is Pin 38 (GPIO32). FS External D- pin is Pin 37 (GPIO
  33:../../libdaisy/src/hid/usb.h ****         FS_BOTH,     /**< Both */
  34:../../libdaisy/src/hid/usb.h ****     };
  35:../../libdaisy/src/hid/usb.h **** 
  36:../../libdaisy/src/hid/usb.h **** 
  37:../../libdaisy/src/hid/usb.h ****     /** Function called upon reception of a buffer */
  38:../../libdaisy/src/hid/usb.h ****     typedef void (*ReceiveCallback)(uint8_t* buff, uint32_t* len);
  39:../../libdaisy/src/hid/usb.h **** 
  40:../../libdaisy/src/hid/usb.h ****     UsbHandle() {}
  41:../../libdaisy/src/hid/usb.h **** 
  42:../../libdaisy/src/hid/usb.h ****     ~UsbHandle() {}
  44              		.loc 3 42 5 is_stmt 1 view .LVU3
  45              		.loc 3 42 5 is_stmt 0 view .LVU4
  46              	.LBE306:
  47              	.LBB307:
  48              	.LBI307:
  49              		.file 4 "../../libdaisy/src/per/adc.h"
ARM GAS  C:\Users\VINCIU~1\AppData\Local\Temp\cc6F1pHH.s 			page 4


   1:../../libdaisy/src/per/adc.h **** #pragma once
   2:../../libdaisy/src/per/adc.h **** #ifndef DSY_ADC_H
   3:../../libdaisy/src/per/adc.h **** #define DSY_ADC_H /**< Macro */
   4:../../libdaisy/src/per/adc.h **** #include <stdint.h>
   5:../../libdaisy/src/per/adc.h **** #include <stdlib.h>
   6:../../libdaisy/src/per/adc.h **** #include "daisy_core.h"
   7:../../libdaisy/src/per/adc.h **** #include "per/gpio.h"
   8:../../libdaisy/src/per/adc.h **** 
   9:../../libdaisy/src/per/adc.h **** #define DSY_ADC_MAX_CHANNELS 14 /**< Maximum number of ADC channels */
  10:../../libdaisy/src/per/adc.h **** 
  11:../../libdaisy/src/per/adc.h **** namespace daisy
  12:../../libdaisy/src/per/adc.h **** {
  13:../../libdaisy/src/per/adc.h **** /** @addtogroup analog_digital_conversion
  14:../../libdaisy/src/per/adc.h ****     @{
  15:../../libdaisy/src/per/adc.h **** */
  16:../../libdaisy/src/per/adc.h **** 
  17:../../libdaisy/src/per/adc.h **** /* While there may not be many configuration options here,
  18:../../libdaisy/src/per/adc.h **** using a struct like this allows us to add more configuration
  19:../../libdaisy/src/per/adc.h **** later without breaking existing functionality.
  20:../../libdaisy/src/per/adc.h **** */
  21:../../libdaisy/src/per/adc.h **** 
  22:../../libdaisy/src/per/adc.h **** /** Configuration Structure for a given channel */
  23:../../libdaisy/src/per/adc.h **** struct AdcChannelConfig
  24:../../libdaisy/src/per/adc.h **** {
  25:../../libdaisy/src/per/adc.h ****     /** Which pin to use for multiplexing */
  26:../../libdaisy/src/per/adc.h ****     enum MuxPin
  27:../../libdaisy/src/per/adc.h ****     {
  28:../../libdaisy/src/per/adc.h ****         MUX_SEL_0,    /**< & */
  29:../../libdaisy/src/per/adc.h ****         MUX_SEL_1,    /**< & */
  30:../../libdaisy/src/per/adc.h ****         MUX_SEL_2,    /**< & */
  31:../../libdaisy/src/per/adc.h ****         MUX_SEL_LAST, /**< & */
  32:../../libdaisy/src/per/adc.h ****     };
  33:../../libdaisy/src/per/adc.h **** 
  34:../../libdaisy/src/per/adc.h ****     /** Initializes a single ADC pin as an ADC. 
  35:../../libdaisy/src/per/adc.h ****     \param pin Pin to init.
  36:../../libdaisy/src/per/adc.h ****      */
  37:../../libdaisy/src/per/adc.h ****     void InitSingle(dsy_gpio_pin pin);
  38:../../libdaisy/src/per/adc.h **** 
  39:../../libdaisy/src/per/adc.h ****     /** 
  40:../../libdaisy/src/per/adc.h ****     Initializes a single ADC pin as a Multiplexed ADC.
  41:../../libdaisy/src/per/adc.h ****     Requires a CD405X Multiplexer connected to the pin.
  42:../../libdaisy/src/per/adc.h ****     You only need to supply the mux pins that are required,
  43:../../libdaisy/src/per/adc.h ****     e.g. a 4052 mux would only require mux_0 and mux_1.
  44:../../libdaisy/src/per/adc.h ****     Internal Callbacks handle the pin addressing.
  45:../../libdaisy/src/per/adc.h ****     \param mux_channels must be 1-8
  46:../../libdaisy/src/per/adc.h ****     \param mux_0 First mux pin
  47:../../libdaisy/src/per/adc.h ****     \param mux_1 Second mux pin
  48:../../libdaisy/src/per/adc.h ****     \param mux_2 Third mux pin
  49:../../libdaisy/src/per/adc.h ****     \param adc_pin &
  50:../../libdaisy/src/per/adc.h ****     */
  51:../../libdaisy/src/per/adc.h ****     void InitMux(dsy_gpio_pin adc_pin,
  52:../../libdaisy/src/per/adc.h ****                  size_t       mux_channels,
  53:../../libdaisy/src/per/adc.h ****                  dsy_gpio_pin mux_0,
  54:../../libdaisy/src/per/adc.h ****                  dsy_gpio_pin mux_1 = {DSY_GPIOX, 0},
  55:../../libdaisy/src/per/adc.h ****                  dsy_gpio_pin mux_2 = {DSY_GPIOX, 0});
  56:../../libdaisy/src/per/adc.h **** 
  57:../../libdaisy/src/per/adc.h ****     dsy_gpio pin_;                   /**< & */
ARM GAS  C:\Users\VINCIU~1\AppData\Local\Temp\cc6F1pHH.s 			page 5


  58:../../libdaisy/src/per/adc.h ****     dsy_gpio mux_pin_[MUX_SEL_LAST]; /**< & */
  59:../../libdaisy/src/per/adc.h ****     uint8_t  mux_channels_;          /**< & */
  60:../../libdaisy/src/per/adc.h **** };
  61:../../libdaisy/src/per/adc.h **** 
  62:../../libdaisy/src/per/adc.h **** /**
  63:../../libdaisy/src/per/adc.h ****    Handler for analog to digital conversion
  64:../../libdaisy/src/per/adc.h **** */
  65:../../libdaisy/src/per/adc.h **** class AdcHandle
  66:../../libdaisy/src/per/adc.h **** {
  67:../../libdaisy/src/per/adc.h ****   public:
  68:../../libdaisy/src/per/adc.h ****     /** Supported oversampling amounts */
  69:../../libdaisy/src/per/adc.h ****     enum OverSampling
  70:../../libdaisy/src/per/adc.h ****     {
  71:../../libdaisy/src/per/adc.h ****         OVS_NONE, /**< & */
  72:../../libdaisy/src/per/adc.h ****         OVS_4,    /**< & */
  73:../../libdaisy/src/per/adc.h ****         OVS_8,    /**< & */
  74:../../libdaisy/src/per/adc.h ****         OVS_16,   /**< & */
  75:../../libdaisy/src/per/adc.h ****         OVS_32,   /**< & */
  76:../../libdaisy/src/per/adc.h ****         OVS_64,   /**< & */
  77:../../libdaisy/src/per/adc.h ****         OVS_128,  /**< & */
  78:../../libdaisy/src/per/adc.h ****         OVS_256,  /**< & */
  79:../../libdaisy/src/per/adc.h ****         OVS_512,  /**< & */
  80:../../libdaisy/src/per/adc.h ****         OVS_1024, /**< & */
  81:../../libdaisy/src/per/adc.h ****         OVS_LAST, /**< & */
  82:../../libdaisy/src/per/adc.h ****     };
  83:../../libdaisy/src/per/adc.h **** 
  84:../../libdaisy/src/per/adc.h ****     AdcHandle() {}
  85:../../libdaisy/src/per/adc.h ****     ~AdcHandle() {}
  50              		.loc 4 85 5 is_stmt 1 view .LVU5
  51              		.loc 4 85 5 is_stmt 0 view .LVU6
  52              	.LBE307:
  53              	.LBB308:
  54              	.LBI308:
  55              		.file 5 "../../libdaisy/src/hid/audio.h"
   1:../../libdaisy/src/hid/audio.h **** #ifndef DSY_AUDIO_H
   2:../../libdaisy/src/hid/audio.h **** #define DSY_AUDIO_H /**< & */
   3:../../libdaisy/src/hid/audio.h **** 
   4:../../libdaisy/src/hid/audio.h **** #include "per/sai.h"
   5:../../libdaisy/src/hid/audio.h **** 
   6:../../libdaisy/src/hid/audio.h **** namespace daisy
   7:../../libdaisy/src/hid/audio.h **** {
   8:../../libdaisy/src/hid/audio.h **** class AudioHandle
   9:../../libdaisy/src/hid/audio.h **** {
  10:../../libdaisy/src/hid/audio.h ****   public:
  11:../../libdaisy/src/hid/audio.h ****     /** Manually configurable details about the Audio Engine */
  12:../../libdaisy/src/hid/audio.h ****     /** TODO: Figure out how to get samplerate in here. */
  13:../../libdaisy/src/hid/audio.h ****     struct Config
  14:../../libdaisy/src/hid/audio.h ****     {
  15:../../libdaisy/src/hid/audio.h ****         size_t                        blocksize;
  16:../../libdaisy/src/hid/audio.h ****         SaiHandle::Config::SampleRate samplerate;
  17:../../libdaisy/src/hid/audio.h ****         float                         postgain;
  18:../../libdaisy/src/hid/audio.h ****     };
  19:../../libdaisy/src/hid/audio.h **** 
  20:../../libdaisy/src/hid/audio.h ****     enum class Result
  21:../../libdaisy/src/hid/audio.h ****     {
  22:../../libdaisy/src/hid/audio.h ****         OK,
  23:../../libdaisy/src/hid/audio.h ****         ERR,
ARM GAS  C:\Users\VINCIU~1\AppData\Local\Temp\cc6F1pHH.s 			page 6


  24:../../libdaisy/src/hid/audio.h ****     };
  25:../../libdaisy/src/hid/audio.h **** 
  26:../../libdaisy/src/hid/audio.h ****     /** Non-Interleaving input buffer
  27:../../libdaisy/src/hid/audio.h ****      * Buffer arranged by float[chn][sample] 
  28:../../libdaisy/src/hid/audio.h ****      * const so that the user can't modify the input
  29:../../libdaisy/src/hid/audio.h ****     */
  30:../../libdaisy/src/hid/audio.h ****     typedef const float* const* InputBuffer;
  31:../../libdaisy/src/hid/audio.h **** 
  32:../../libdaisy/src/hid/audio.h ****     /** Non-Interleaving output buffer
  33:../../libdaisy/src/hid/audio.h ****      * Arranged by float[chn][sample] 
  34:../../libdaisy/src/hid/audio.h ****     */
  35:../../libdaisy/src/hid/audio.h ****     typedef float** OutputBuffer;
  36:../../libdaisy/src/hid/audio.h **** 
  37:../../libdaisy/src/hid/audio.h ****     /** Type for a Non-Interleaving audio callback 
  38:../../libdaisy/src/hid/audio.h ****    * Non-Interleaving audio callbacks in daisy will be of this type
  39:../../libdaisy/src/hid/audio.h ****   */
  40:../../libdaisy/src/hid/audio.h ****     typedef void (*AudioCallback)(InputBuffer  in,
  41:../../libdaisy/src/hid/audio.h ****                                   OutputBuffer out,
  42:../../libdaisy/src/hid/audio.h ****                                   size_t       size);
  43:../../libdaisy/src/hid/audio.h **** 
  44:../../libdaisy/src/hid/audio.h ****     /** Interleaving Input buffer
  45:../../libdaisy/src/hid/audio.h ****      ** audio is prepared as { L0, R0, L1, R1, . . . LN, RN }]
  46:../../libdaisy/src/hid/audio.h ****      ** this is const, as the user shouldn't modify it
  47:../../libdaisy/src/hid/audio.h ****     */
  48:../../libdaisy/src/hid/audio.h ****     typedef const float* InterleavingInputBuffer;
  49:../../libdaisy/src/hid/audio.h **** 
  50:../../libdaisy/src/hid/audio.h ****     /** Interleaving Output buffer 
  51:../../libdaisy/src/hid/audio.h ****      ** audio is prepared as { L0, R0, L1, R1, . . . LN, RN }
  52:../../libdaisy/src/hid/audio.h ****     */
  53:../../libdaisy/src/hid/audio.h ****     typedef float* InterleavingOutputBuffer;
  54:../../libdaisy/src/hid/audio.h **** 
  55:../../libdaisy/src/hid/audio.h ****     /** Interleaving Audio Callback 
  56:../../libdaisy/src/hid/audio.h ****    * Interleaving audio callbacks in daisy must be of this type
  57:../../libdaisy/src/hid/audio.h ****   */
  58:../../libdaisy/src/hid/audio.h ****     typedef void (*InterleavingAudioCallback)(InterleavingInputBuffer  in,
  59:../../libdaisy/src/hid/audio.h ****                                               InterleavingOutputBuffer out,
  60:../../libdaisy/src/hid/audio.h ****                                               size_t                   size);
  61:../../libdaisy/src/hid/audio.h **** 
  62:../../libdaisy/src/hid/audio.h ****     AudioHandle() : pimpl_(nullptr) {}
  63:../../libdaisy/src/hid/audio.h ****     ~AudioHandle() {}
  56              		.loc 5 63 5 is_stmt 1 view .LVU7
  57              		.loc 5 63 5 is_stmt 0 view .LVU8
  58              	.LBE308:
  59              		.loc 1 22 19 view .LVU9
  60 0000 7047     		bx	lr
  61              		.cfi_endproc
  62              	.LFE1793:
  64              		.weak	_ZN5daisy9DaisySeedD1Ev
  65              		.thumb_set _ZN5daisy9DaisySeedD1Ev,_ZN5daisy9DaisySeedD2Ev
  66 0002 00BF     		.section	.text._ZN7daisysp4AdsrD2Ev,"axG",%progbits,_ZN7daisysp4AdsrD5Ev,comdat
  67              		.align	1
  68              		.p2align 2,,3
  69              		.weak	_ZN7daisysp4AdsrD2Ev
  70              		.syntax unified
  71              		.thumb
  72              		.thumb_func
  73              		.fpu fpv5-d16
ARM GAS  C:\Users\VINCIU~1\AppData\Local\Temp\cc6F1pHH.s 			page 7


  75              	_ZN7daisysp4AdsrD2Ev:
  76              	.LVL1:
  77              	.LFB1816:
  78              		.file 6 "../../DaisySP/Source/Control/adsr.h"
   1:../../DaisySP/Source/Control/adsr.h **** #pragma once
   2:../../DaisySP/Source/Control/adsr.h **** #ifndef DSY_ADSR_H
   3:../../DaisySP/Source/Control/adsr.h **** #define DSY_ADSR_H
   4:../../DaisySP/Source/Control/adsr.h **** 
   5:../../DaisySP/Source/Control/adsr.h **** #include <stdint.h>
   6:../../DaisySP/Source/Control/adsr.h **** #ifdef __cplusplus
   7:../../DaisySP/Source/Control/adsr.h **** 
   8:../../DaisySP/Source/Control/adsr.h **** namespace daisysp
   9:../../DaisySP/Source/Control/adsr.h **** {
  10:../../DaisySP/Source/Control/adsr.h **** /** Distinct stages that the phase of the envelope can be located in.
  11:../../DaisySP/Source/Control/adsr.h **** - IDLE   = located at phase location 0, and not currently running
  12:../../DaisySP/Source/Control/adsr.h **** - ATTACK  = First segment of envelope where phase moves from 0 to 1
  13:../../DaisySP/Source/Control/adsr.h **** - DECAY   = Second segment of envelope where phase moves from 1 to SUSTAIN value
  14:../../DaisySP/Source/Control/adsr.h **** - RELEASE =     Fourth segment of envelop where phase moves from SUSTAIN to 0
  15:../../DaisySP/Source/Control/adsr.h **** */
  16:../../DaisySP/Source/Control/adsr.h **** enum
  17:../../DaisySP/Source/Control/adsr.h **** {
  18:../../DaisySP/Source/Control/adsr.h ****     ADSR_SEG_IDLE    = 0,
  19:../../DaisySP/Source/Control/adsr.h ****     ADSR_SEG_ATTACK  = 1,
  20:../../DaisySP/Source/Control/adsr.h ****     ADSR_SEG_DECAY   = 2,
  21:../../DaisySP/Source/Control/adsr.h ****     ADSR_SEG_RELEASE = 4
  22:../../DaisySP/Source/Control/adsr.h **** };
  23:../../DaisySP/Source/Control/adsr.h **** 
  24:../../DaisySP/Source/Control/adsr.h **** 
  25:../../DaisySP/Source/Control/adsr.h **** /** adsr envelope module
  26:../../DaisySP/Source/Control/adsr.h **** 
  27:../../DaisySP/Source/Control/adsr.h **** Original author(s) : Paul Batchelor
  28:../../DaisySP/Source/Control/adsr.h **** 
  29:../../DaisySP/Source/Control/adsr.h **** Ported from Soundpipe by Ben Sergentanis, May 2020
  30:../../DaisySP/Source/Control/adsr.h ****  
  31:../../DaisySP/Source/Control/adsr.h **** Remake by Steffan DIedrichsen, May 2021
  32:../../DaisySP/Source/Control/adsr.h **** */
  33:../../DaisySP/Source/Control/adsr.h **** class Adsr
  34:../../DaisySP/Source/Control/adsr.h **** {
  35:../../DaisySP/Source/Control/adsr.h ****   public:
  36:../../DaisySP/Source/Control/adsr.h ****     Adsr() {}
  37:../../DaisySP/Source/Control/adsr.h ****     ~Adsr() {}
  79              		.loc 6 37 5 is_stmt 1 view -0
  80              		.cfi_startproc
  81              		@ args = 0, pretend = 0, frame = 0
  82              		@ frame_needed = 0, uses_anonymous_args = 0
  83              		@ link register save eliminated.
  84              		.loc 6 37 14 is_stmt 0 view .LVU11
  85 0000 7047     		bx	lr
  86              		.cfi_endproc
  87              	.LFE1816:
  89              		.weak	_ZN7daisysp4AdsrD1Ev
  90              		.thumb_set _ZN7daisysp4AdsrD1Ev,_ZN7daisysp4AdsrD2Ev
  91              		.section	.text._ZN7daisysp4LineD2Ev,"axG",%progbits,_ZN7daisysp4LineD5Ev,comdat
  92              		.align	1
  93              		.p2align 2,,3
  94              		.weak	_ZN7daisysp4LineD2Ev
  95              		.syntax unified
ARM GAS  C:\Users\VINCIU~1\AppData\Local\Temp\cc6F1pHH.s 			page 8


  96              		.thumb
  97              		.thumb_func
  98              		.fpu fpv5-d16
 100              	_ZN7daisysp4LineD2Ev:
 101              	.LVL2:
 102              	.LFB1825:
 103              		.file 7 "../../DaisySP/Source/Control/line.h"
   1:../../DaisySP/Source/Control/line.h **** #pragma once
   2:../../DaisySP/Source/Control/line.h **** #ifndef LINE_H
   3:../../DaisySP/Source/Control/line.h **** #define LINE_H
   4:../../DaisySP/Source/Control/line.h **** #include <stdint.h>
   5:../../DaisySP/Source/Control/line.h **** #ifdef __cplusplus
   6:../../DaisySP/Source/Control/line.h **** 
   7:../../DaisySP/Source/Control/line.h **** namespace daisysp
   8:../../DaisySP/Source/Control/line.h **** {
   9:../../DaisySP/Source/Control/line.h **** /** creates a Line segment signal
  10:../../DaisySP/Source/Control/line.h ****     */
  11:../../DaisySP/Source/Control/line.h **** class Line
  12:../../DaisySP/Source/Control/line.h **** {
  13:../../DaisySP/Source/Control/line.h ****   public:
  14:../../DaisySP/Source/Control/line.h ****     Line() {}
  15:../../DaisySP/Source/Control/line.h ****     ~Line() {}
 104              		.loc 7 15 5 is_stmt 1 view -0
 105              		.cfi_startproc
 106              		@ args = 0, pretend = 0, frame = 0
 107              		@ frame_needed = 0, uses_anonymous_args = 0
 108              		@ link register save eliminated.
 109              		.loc 7 15 14 is_stmt 0 view .LVU13
 110 0000 7047     		bx	lr
 111              		.cfi_endproc
 112              	.LFE1825:
 114              		.weak	_ZN7daisysp4LineD1Ev
 115              		.thumb_set _ZN7daisysp4LineD1Ev,_ZN7daisysp4LineD2Ev
 116              		.section	.text._ZNK5daisy11OledDisplayINS_13SSD130xDriverILj128ELj64ENS_24SSD130x4WireSpiTransport
 117              		.align	1
 118              		.p2align 2,,3
 119              		.weak	_ZNK5daisy11OledDisplayINS_13SSD130xDriverILj128ELj64ENS_24SSD130x4WireSpiTransportEEEE6Heig
 120              		.syntax unified
 121              		.thumb
 122              		.thumb_func
 123              		.fpu fpv5-d16
 125              	_ZNK5daisy11OledDisplayINS_13SSD130xDriverILj128ELj64ENS_24SSD130x4WireSpiTransportEEEE6HeightEv:
 126              	.LVL3:
 127              	.LFB4346:
 128              		.file 8 "../../libdaisy/src/hid/disp/oled_display.h"
   1:../../libdaisy/src/hid/disp/oled_display.h **** #pragma once
   2:../../libdaisy/src/hid/disp/oled_display.h **** #ifndef DSY_OLED_DISPLAY_H
   3:../../libdaisy/src/hid/disp/oled_display.h **** #define DSY_OLED_DISPLAY_H /**< Macro */
   4:../../libdaisy/src/hid/disp/oled_display.h **** 
   5:../../libdaisy/src/hid/disp/oled_display.h **** #include "display.h"
   6:../../libdaisy/src/hid/disp/oled_display.h **** 
   7:../../libdaisy/src/hid/disp/oled_display.h **** namespace daisy
   8:../../libdaisy/src/hid/disp/oled_display.h **** {
   9:../../libdaisy/src/hid/disp/oled_display.h **** /** 
  10:../../libdaisy/src/hid/disp/oled_display.h ****  * This class is for drawing to a monochrome OLED display. 
  11:../../libdaisy/src/hid/disp/oled_display.h **** */
  12:../../libdaisy/src/hid/disp/oled_display.h **** template <typename DisplayDriver>
ARM GAS  C:\Users\VINCIU~1\AppData\Local\Temp\cc6F1pHH.s 			page 9


  13:../../libdaisy/src/hid/disp/oled_display.h **** class OledDisplay : public OneBitGraphicsDisplayImpl<OledDisplay<DisplayDriver>>
  14:../../libdaisy/src/hid/disp/oled_display.h **** {
  15:../../libdaisy/src/hid/disp/oled_display.h ****   public:
  16:../../libdaisy/src/hid/disp/oled_display.h ****     OledDisplay() {}
  17:../../libdaisy/src/hid/disp/oled_display.h ****     virtual ~OledDisplay() {}
  18:../../libdaisy/src/hid/disp/oled_display.h **** 
  19:../../libdaisy/src/hid/disp/oled_display.h ****     struct Config
  20:../../libdaisy/src/hid/disp/oled_display.h ****     {
  21:../../libdaisy/src/hid/disp/oled_display.h ****         typename DisplayDriver::Config driver_config;
  22:../../libdaisy/src/hid/disp/oled_display.h ****     };
  23:../../libdaisy/src/hid/disp/oled_display.h **** 
  24:../../libdaisy/src/hid/disp/oled_display.h ****     void Init(Config config) { driver_.Init(config.driver_config); }
  25:../../libdaisy/src/hid/disp/oled_display.h **** 
  26:../../libdaisy/src/hid/disp/oled_display.h ****     uint16_t Height() const override { return driver_.Height(); }
 129              		.loc 8 26 14 is_stmt 1 view -0
 130              		.cfi_startproc
 131              		@ args = 0, pretend = 0, frame = 0
 132              		@ frame_needed = 0, uses_anonymous_args = 0
 133              		@ link register save eliminated.
 134              		.loc 8 26 65 is_stmt 0 view .LVU15
 135 0000 4020     		movs	r0, #64
 136              	.LVL4:
 137              		.loc 8 26 65 view .LVU16
 138 0002 7047     		bx	lr
 139              		.cfi_endproc
 140              	.LFE4346:
 142              		.section	.text._ZNK5daisy11OledDisplayINS_13SSD130xDriverILj128ELj64ENS_24SSD130x4WireSpiTransport
 143              		.align	1
 144              		.p2align 2,,3
 145              		.weak	_ZNK5daisy11OledDisplayINS_13SSD130xDriverILj128ELj64ENS_24SSD130x4WireSpiTransportEEEE5Widt
 146              		.syntax unified
 147              		.thumb
 148              		.thumb_func
 149              		.fpu fpv5-d16
 151              	_ZNK5daisy11OledDisplayINS_13SSD130xDriverILj128ELj64ENS_24SSD130x4WireSpiTransportEEEE5WidthEv:
 152              	.LVL5:
 153              	.LFB4347:
  27:../../libdaisy/src/hid/disp/oled_display.h ****     uint16_t Width() const override { return driver_.Width(); }
 154              		.loc 8 27 14 is_stmt 1 view -0
 155              		.cfi_startproc
 156              		@ args = 0, pretend = 0, frame = 0
 157              		@ frame_needed = 0, uses_anonymous_args = 0
 158              		@ link register save eliminated.
 159              		.loc 8 27 63 is_stmt 0 view .LVU18
 160 0000 8020     		movs	r0, #128
 161              	.LVL6:
 162              		.loc 8 27 63 view .LVU19
 163 0002 7047     		bx	lr
 164              		.cfi_endproc
 165              	.LFE4347:
 167              		.section	.text._ZN23OledDisplayExtravaganzaD2Ev,"axG",%progbits,_ZN23OledDisplayExtravaganzaD5Ev,c
 168              		.align	1
 169              		.p2align 2,,3
 170              		.weak	_ZN23OledDisplayExtravaganzaD2Ev
 171              		.syntax unified
 172              		.thumb
 173              		.thumb_func
ARM GAS  C:\Users\VINCIU~1\AppData\Local\Temp\cc6F1pHH.s 			page 10


 174              		.fpu fpv5-d16
 176              	_ZN23OledDisplayExtravaganzaD2Ev:
 177              	.LVL7:
 178              	.LFB4627:
 179              		.file 9 "OledDisplayExtravaganza.h"
   1:OledDisplayExtravaganza.h **** #ifndef OledDisplayExtravaganza_H
   2:OledDisplayExtravaganza.h **** #define OledDisplayExtravaganza_H
   3:OledDisplayExtravaganza.h **** #include "daisy_seed.h"
   4:OledDisplayExtravaganza.h **** #include "dev/oled_ssd130x.h"
   5:OledDisplayExtravaganza.h **** #include <stdio.h>
   6:OledDisplayExtravaganza.h **** #include <math.h>
   7:OledDisplayExtravaganza.h **** 
   8:OledDisplayExtravaganza.h **** 
   9:OledDisplayExtravaganza.h **** class OledDisplayExtravaganza
 180              		.loc 9 9 7 is_stmt 1 view -0
 181              		.cfi_startproc
 182              		@ args = 0, pretend = 0, frame = 0
 183              		@ frame_needed = 0, uses_anonymous_args = 0
 184              		@ link register save eliminated.
 185              	.LBB309:
 186              	.LBI309:
  17:../../libdaisy/src/hid/disp/oled_display.h **** 
 187              		.loc 8 17 13 view .LVU21
 188              	.LBB310:
 189              	.LBI310:
 190              		.file 10 "../../libdaisy/src/hid/disp/display.h"
   1:../../libdaisy/src/hid/disp/display.h **** #pragma once
   2:../../libdaisy/src/hid/disp/display.h **** #ifndef DSY_DISPLAY_H
   3:../../libdaisy/src/hid/disp/display.h **** #define DSY_DISPLAY_H /**< Macro */
   4:../../libdaisy/src/hid/disp/display.h **** #include <cmath>
   5:../../libdaisy/src/hid/disp/display.h **** #include "util/oled_fonts.h"
   6:../../libdaisy/src/hid/disp/display.h **** #include "daisy_core.h"
   7:../../libdaisy/src/hid/disp/display.h **** 
   8:../../libdaisy/src/hid/disp/display.h **** #ifndef deg2rad
   9:../../libdaisy/src/hid/disp/display.h **** #define deg2rad(deg) ((deg)*3.141592 / 180.0)
  10:../../libdaisy/src/hid/disp/display.h **** #endif
  11:../../libdaisy/src/hid/disp/display.h **** 
  12:../../libdaisy/src/hid/disp/display.h **** namespace daisy
  13:../../libdaisy/src/hid/disp/display.h **** {
  14:../../libdaisy/src/hid/disp/display.h **** /** 
  15:../../libdaisy/src/hid/disp/display.h ****  * This interface is used as a base class for all types of 1bit-per-pixel
  16:../../libdaisy/src/hid/disp/display.h ****  * graphics displays.
  17:../../libdaisy/src/hid/disp/display.h **** */
  18:../../libdaisy/src/hid/disp/display.h **** class OneBitGraphicsDisplay
  19:../../libdaisy/src/hid/disp/display.h **** {
  20:../../libdaisy/src/hid/disp/display.h ****   public:
  21:../../libdaisy/src/hid/disp/display.h ****     OneBitGraphicsDisplay() {}
  22:../../libdaisy/src/hid/disp/display.h ****     virtual ~OneBitGraphicsDisplay() {}
  23:../../libdaisy/src/hid/disp/display.h **** 
  24:../../libdaisy/src/hid/disp/display.h ****     virtual uint16_t Height() const = 0;
  25:../../libdaisy/src/hid/disp/display.h ****     virtual uint16_t Width() const  = 0;
  26:../../libdaisy/src/hid/disp/display.h **** 
  27:../../libdaisy/src/hid/disp/display.h ****     size_t CurrentX() { return currentX_; };
  28:../../libdaisy/src/hid/disp/display.h ****     size_t CurrentY() { return currentY_; };
  29:../../libdaisy/src/hid/disp/display.h **** 
  30:../../libdaisy/src/hid/disp/display.h ****     /** 
  31:../../libdaisy/src/hid/disp/display.h ****     Fills the entire display with either on/off.
ARM GAS  C:\Users\VINCIU~1\AppData\Local\Temp\cc6F1pHH.s 			page 11


  32:../../libdaisy/src/hid/disp/display.h ****     \param on Sets on or off.
  33:../../libdaisy/src/hid/disp/display.h ****     */
  34:../../libdaisy/src/hid/disp/display.h ****     virtual void Fill(bool on) = 0;
  35:../../libdaisy/src/hid/disp/display.h **** 
  36:../../libdaisy/src/hid/disp/display.h ****     /**
  37:../../libdaisy/src/hid/disp/display.h ****     Sets the pixel at the specified coordinate to be on/off.
  38:../../libdaisy/src/hid/disp/display.h ****     \param x   x Coordinate
  39:../../libdaisy/src/hid/disp/display.h ****     \param y   y coordinate
  40:../../libdaisy/src/hid/disp/display.h ****     \param on  on or off
  41:../../libdaisy/src/hid/disp/display.h ****     */
  42:../../libdaisy/src/hid/disp/display.h ****     virtual void DrawPixel(uint_fast8_t x, uint_fast8_t y, bool on) = 0;
  43:../../libdaisy/src/hid/disp/display.h **** 
  44:../../libdaisy/src/hid/disp/display.h ****     /**
  45:../../libdaisy/src/hid/disp/display.h ****     Draws a line from (x1, y1) to (y1, y2)
  46:../../libdaisy/src/hid/disp/display.h ****     \param x1  x Coordinate of the starting point
  47:../../libdaisy/src/hid/disp/display.h ****     \param y1  y Coordinate of the starting point
  48:../../libdaisy/src/hid/disp/display.h ****     \param x2  x Coordinate of the ending point
  49:../../libdaisy/src/hid/disp/display.h ****     \param y2  y Coordinate of the ending point
  50:../../libdaisy/src/hid/disp/display.h ****     \param on  on or off
  51:../../libdaisy/src/hid/disp/display.h ****     */
  52:../../libdaisy/src/hid/disp/display.h ****     virtual void DrawLine(uint_fast8_t x1,
  53:../../libdaisy/src/hid/disp/display.h ****                           uint_fast8_t y1,
  54:../../libdaisy/src/hid/disp/display.h ****                           uint_fast8_t x2,
  55:../../libdaisy/src/hid/disp/display.h ****                           uint_fast8_t y2,
  56:../../libdaisy/src/hid/disp/display.h ****                           bool         on)
  57:../../libdaisy/src/hid/disp/display.h ****         = 0;
  58:../../libdaisy/src/hid/disp/display.h **** 
  59:../../libdaisy/src/hid/disp/display.h ****     /**
  60:../../libdaisy/src/hid/disp/display.h ****     Draws a rectangle based on two coordinates.
  61:../../libdaisy/src/hid/disp/display.h ****     \param x1 x Coordinate of the first point
  62:../../libdaisy/src/hid/disp/display.h ****     \param y1 y Coordinate of the first point
  63:../../libdaisy/src/hid/disp/display.h ****     \param x2 x Coordinate of the second point
  64:../../libdaisy/src/hid/disp/display.h ****     \param y2 y Coordinate of the second point
  65:../../libdaisy/src/hid/disp/display.h ****     \param on on or off
  66:../../libdaisy/src/hid/disp/display.h ****     */
  67:../../libdaisy/src/hid/disp/display.h ****     virtual void DrawRect(uint_fast8_t x1,
  68:../../libdaisy/src/hid/disp/display.h ****                           uint_fast8_t y1,
  69:../../libdaisy/src/hid/disp/display.h ****                           uint_fast8_t x2,
  70:../../libdaisy/src/hid/disp/display.h ****                           uint_fast8_t y2,
  71:../../libdaisy/src/hid/disp/display.h ****                           bool         on,
  72:../../libdaisy/src/hid/disp/display.h ****                           bool         fill = false)
  73:../../libdaisy/src/hid/disp/display.h ****         = 0;
  74:../../libdaisy/src/hid/disp/display.h **** 
  75:../../libdaisy/src/hid/disp/display.h ****     /**
  76:../../libdaisy/src/hid/disp/display.h ****     Draws an arc around the specified coordinate
  77:../../libdaisy/src/hid/disp/display.h ****     \param x           x Coordinate of the center of the arc
  78:../../libdaisy/src/hid/disp/display.h ****     \param y           y Coordinate of the center of the arc
  79:../../libdaisy/src/hid/disp/display.h ****     \param radius      radius of the arc
  80:../../libdaisy/src/hid/disp/display.h ****     \param start_angle angle where to start the arc
  81:../../libdaisy/src/hid/disp/display.h ****     \param sweep       total angle of the arc
  82:../../libdaisy/src/hid/disp/display.h ****     \param on  on or off
  83:../../libdaisy/src/hid/disp/display.h ****     */
  84:../../libdaisy/src/hid/disp/display.h ****     virtual void DrawArc(uint_fast8_t x,
  85:../../libdaisy/src/hid/disp/display.h ****                          uint_fast8_t y,
  86:../../libdaisy/src/hid/disp/display.h ****                          uint_fast8_t radius,
  87:../../libdaisy/src/hid/disp/display.h ****                          int_fast16_t start_angle,
  88:../../libdaisy/src/hid/disp/display.h ****                          int_fast16_t sweep,
ARM GAS  C:\Users\VINCIU~1\AppData\Local\Temp\cc6F1pHH.s 			page 12


  89:../../libdaisy/src/hid/disp/display.h ****                          bool         on)
  90:../../libdaisy/src/hid/disp/display.h ****         = 0;
  91:../../libdaisy/src/hid/disp/display.h **** 
  92:../../libdaisy/src/hid/disp/display.h ****     /**
  93:../../libdaisy/src/hid/disp/display.h ****     Draws a circle around the specified coordinate
  94:../../libdaisy/src/hid/disp/display.h ****     \param x           x Coordinate of the center of the circle
  95:../../libdaisy/src/hid/disp/display.h ****     \param y           y Coordinate of the center of the circle
  96:../../libdaisy/src/hid/disp/display.h ****     \param radius      radius of the circle
  97:../../libdaisy/src/hid/disp/display.h ****     \param on  on or off
  98:../../libdaisy/src/hid/disp/display.h ****     */
  99:../../libdaisy/src/hid/disp/display.h ****     void
 100:../../libdaisy/src/hid/disp/display.h ****     DrawCircle(uint_fast8_t x, uint_fast8_t y, uint_fast8_t radius, bool on)
 101:../../libdaisy/src/hid/disp/display.h ****     {
 102:../../libdaisy/src/hid/disp/display.h ****         DrawArc(x, y, radius, 0, 360, on);
 103:../../libdaisy/src/hid/disp/display.h ****     };
 104:../../libdaisy/src/hid/disp/display.h **** 
 105:../../libdaisy/src/hid/disp/display.h ****     /** 
 106:../../libdaisy/src/hid/disp/display.h ****     Writes the character with the specific FontDef
 107:../../libdaisy/src/hid/disp/display.h ****     to the display buffer at the current Cursor position.
 108:../../libdaisy/src/hid/disp/display.h ****     \param ch character to be written
 109:../../libdaisy/src/hid/disp/display.h ****     \param font font to be written in
 110:../../libdaisy/src/hid/disp/display.h ****     \param on    on or off
 111:../../libdaisy/src/hid/disp/display.h ****     \return &
 112:../../libdaisy/src/hid/disp/display.h ****     */
 113:../../libdaisy/src/hid/disp/display.h ****     virtual char WriteChar(char ch, FontDef font, bool on) = 0;
 114:../../libdaisy/src/hid/disp/display.h **** 
 115:../../libdaisy/src/hid/disp/display.h ****     /** 
 116:../../libdaisy/src/hid/disp/display.h ****     Similar to WriteChar, except it will handle an entire String.
 117:../../libdaisy/src/hid/disp/display.h ****     Wrapping does not happen automatically, so the width
 118:../../libdaisy/src/hid/disp/display.h ****     of the string must be kept within the dimensions of the screen.
 119:../../libdaisy/src/hid/disp/display.h ****     \param str string to be written
 120:../../libdaisy/src/hid/disp/display.h ****     \param font font to use
 121:../../libdaisy/src/hid/disp/display.h ****     \param on  on or off
 122:../../libdaisy/src/hid/disp/display.h ****     \return &
 123:../../libdaisy/src/hid/disp/display.h ****     */
 124:../../libdaisy/src/hid/disp/display.h ****     virtual char WriteString(const char* str, FontDef font, bool on) = 0;
 125:../../libdaisy/src/hid/disp/display.h **** 
 126:../../libdaisy/src/hid/disp/display.h ****     /** 
 127:../../libdaisy/src/hid/disp/display.h ****     Moves the 'Cursor' position used for WriteChar, and WriteStr to the specified coordinate.
 128:../../libdaisy/src/hid/disp/display.h ****     \param x x pos
 129:../../libdaisy/src/hid/disp/display.h ****     \param y y pos
 130:../../libdaisy/src/hid/disp/display.h ****     */
 131:../../libdaisy/src/hid/disp/display.h ****     void SetCursor(uint16_t x, uint16_t y)
 132:../../libdaisy/src/hid/disp/display.h ****     {
 133:../../libdaisy/src/hid/disp/display.h ****         currentX_ = (x >= Width()) ? Width() - 1 : x;
 134:../../libdaisy/src/hid/disp/display.h ****         currentY_ = (y >= Height()) ? Height() - 1 : y;
 135:../../libdaisy/src/hid/disp/display.h ****     }
 136:../../libdaisy/src/hid/disp/display.h **** 
 137:../../libdaisy/src/hid/disp/display.h ****     /** 
 138:../../libdaisy/src/hid/disp/display.h ****     Writes the current display buffer to the OLED device using SPI or I2C depending on 
 139:../../libdaisy/src/hid/disp/display.h ****     how the object was initialized.
 140:../../libdaisy/src/hid/disp/display.h ****     */
 141:../../libdaisy/src/hid/disp/display.h ****     virtual void Update() = 0;
 142:../../libdaisy/src/hid/disp/display.h **** 
 143:../../libdaisy/src/hid/disp/display.h ****   protected:
 144:../../libdaisy/src/hid/disp/display.h ****     uint16_t currentX_;
 145:../../libdaisy/src/hid/disp/display.h ****     uint16_t currentY_;
ARM GAS  C:\Users\VINCIU~1\AppData\Local\Temp\cc6F1pHH.s 			page 13


 146:../../libdaisy/src/hid/disp/display.h **** };
 147:../../libdaisy/src/hid/disp/display.h **** 
 148:../../libdaisy/src/hid/disp/display.h **** /** This class is intended as a intermediary class for your actual implementation of the OneBitGrap
 149:../../libdaisy/src/hid/disp/display.h ****  *  interface. It uses the CRTP design pattern where the template argument is the child class. It p
 150:../../libdaisy/src/hid/disp/display.h ****  *  implementations for most of the functions, except DrawPixel(), Update() and Fill(), which you'l
 151:../../libdaisy/src/hid/disp/display.h ****  *  to provide in your child class.
 152:../../libdaisy/src/hid/disp/display.h ****  *  The main goal of this class is to provide common drawing functions without relying on massive a
 153:../../libdaisy/src/hid/disp/display.h ****  *  virtual function calls that would result in a performance loss. To achieve this, any drawing fu
 154:../../libdaisy/src/hid/disp/display.h ****  *  is implemented here and internally calls other drawing functions (e.g. DrawRect() which interna
 155:../../libdaisy/src/hid/disp/display.h ****  *  DrawPixel() and DrawLine()) makes these calls via the qualified name of these functions to expl
 156:../../libdaisy/src/hid/disp/display.h ****  *  suppress the virtual dispatch mechanism like this:
 157:../../libdaisy/src/hid/disp/display.h ****  * 
 158:../../libdaisy/src/hid/disp/display.h ****  *      ChildType::DrawPixel(...); // no virtual function call; direct call into the child class fu
 159:../../libdaisy/src/hid/disp/display.h ****  *  
 160:../../libdaisy/src/hid/disp/display.h ****  *  To create a custom OneBitGraphicsDisplay implementation, you can 
 161:../../libdaisy/src/hid/disp/display.h ****  *  A) inherit from OneBitGraphicsDisplay directly and provide all the drawing functions yourself
 162:../../libdaisy/src/hid/disp/display.h ****  *  B) Inherit from OneBitGraphicsDisplayImpl and only provide DrawPixel(), Fill() and Update()
 163:../../libdaisy/src/hid/disp/display.h ****  *     like this:
 164:../../libdaisy/src/hid/disp/display.h ****  *  
 165:../../libdaisy/src/hid/disp/display.h ****  *      class MyDisplayClass : public OneBitGraphicsDisplayImpl<MyDisplayClass> 
 166:../../libdaisy/src/hid/disp/display.h ****  *      {
 167:../../libdaisy/src/hid/disp/display.h ****  *      public:
 168:../../libdaisy/src/hid/disp/display.h ****  *          void Fill() override { ... };
 169:../../libdaisy/src/hid/disp/display.h ****  *          void DrawPixel(uint_fast8_t x, uint_fast8_t y, bool on) override { ... };
 170:../../libdaisy/src/hid/disp/display.h ****  *          void Update() override { ... }
 171:../../libdaisy/src/hid/disp/display.h ****  *      };
 172:../../libdaisy/src/hid/disp/display.h ****  *  
 173:../../libdaisy/src/hid/disp/display.h ****  */
 174:../../libdaisy/src/hid/disp/display.h **** template <class ChildType>
 175:../../libdaisy/src/hid/disp/display.h **** class OneBitGraphicsDisplayImpl : public OneBitGraphicsDisplay
 176:../../libdaisy/src/hid/disp/display.h **** {
 177:../../libdaisy/src/hid/disp/display.h ****   public:
 178:../../libdaisy/src/hid/disp/display.h ****     OneBitGraphicsDisplayImpl() {}
 179:../../libdaisy/src/hid/disp/display.h ****     virtual ~OneBitGraphicsDisplayImpl() {}
 191              		.loc 10 179 13 view .LVU22
 192              	.LBB311:
 193              	.LBI311:
  22:../../libdaisy/src/hid/disp/display.h **** 
 194              		.loc 10 22 13 view .LVU23
  22:../../libdaisy/src/hid/disp/display.h **** 
 195              		.loc 10 22 13 is_stmt 0 view .LVU24
 196              	.LBE311:
 197              	.LBE310:
 198              	.LBE309:
 199              		.loc 9 9 7 view .LVU25
 200 0000 7047     		bx	lr
 201              		.cfi_endproc
 202              	.LFE4627:
 204              		.weak	_ZN23OledDisplayExtravaganzaD1Ev
 205              		.thumb_set _ZN23OledDisplayExtravaganzaD1Ev,_ZN23OledDisplayExtravaganzaD2Ev
 206 0002 00BF     		.section	.text._ZN5MenusD2Ev,"axG",%progbits,_ZN5MenusD5Ev,comdat
 207              		.align	1
 208              		.p2align 2,,3
 209              		.weak	_ZN5MenusD2Ev
 210              		.syntax unified
 211              		.thumb
 212              		.thumb_func
ARM GAS  C:\Users\VINCIU~1\AppData\Local\Temp\cc6F1pHH.s 			page 14


 213              		.fpu fpv5-d16
 215              	_ZN5MenusD2Ev:
 216              	.LVL8:
 217              	.LFB4632:
 218              		.file 11 "Menus.h"
   1:Menus.h       **** #ifndef Menus_H
   2:Menus.h       **** #define Menus_H
   3:Menus.h       **** #include "OledDisplayExtravaganza.h"
   4:Menus.h       **** #include "daisy_seed.h"
   5:Menus.h       **** #include "daisysp.h"
   6:Menus.h       **** 
   7:Menus.h       **** class Menus
 219              		.loc 11 7 7 is_stmt 1 view -0
 220              		.cfi_startproc
 221              		@ args = 0, pretend = 0, frame = 0
 222              		@ frame_needed = 0, uses_anonymous_args = 0
 223              		@ link register save eliminated.
 224              	.LBB312:
 225              	.LBI312:
 226              		.file 12 "../../libdaisy/src/hid/switch.h"
   1:../../libdaisy/src/hid/switch.h **** #pragma once
   2:../../libdaisy/src/hid/switch.h **** #ifndef DSY_SWITCH_H
   3:../../libdaisy/src/hid/switch.h **** #define DSY_SWITCH_H
   4:../../libdaisy/src/hid/switch.h **** #include "daisy_core.h"
   5:../../libdaisy/src/hid/switch.h **** #include "per/gpio.h"
   6:../../libdaisy/src/hid/switch.h **** 
   7:../../libdaisy/src/hid/switch.h **** namespace daisy
   8:../../libdaisy/src/hid/switch.h **** {
   9:../../libdaisy/src/hid/switch.h **** /** 
  10:../../libdaisy/src/hid/switch.h ****     Generic Class for handling momentary/latching switches \n 
  11:../../libdaisy/src/hid/switch.h ****     Inspired/influenced by Mutable Instruments (pichenettes) Switch classes
  12:../../libdaisy/src/hid/switch.h ****     @author Stephen Hensley
  13:../../libdaisy/src/hid/switch.h ****     @date December 2019
  14:../../libdaisy/src/hid/switch.h ****     @ingroup controls
  15:../../libdaisy/src/hid/switch.h **** */
  16:../../libdaisy/src/hid/switch.h **** class Switch
  17:../../libdaisy/src/hid/switch.h **** {
  18:../../libdaisy/src/hid/switch.h ****   public:
  19:../../libdaisy/src/hid/switch.h ****     /** Specifies the expected behavior of the switch */
  20:../../libdaisy/src/hid/switch.h ****     enum Type
  21:../../libdaisy/src/hid/switch.h ****     {
  22:../../libdaisy/src/hid/switch.h ****         TYPE_TOGGLE,    /**< & */
  23:../../libdaisy/src/hid/switch.h ****         TYPE_MOMENTARY, /**< & */
  24:../../libdaisy/src/hid/switch.h ****     };
  25:../../libdaisy/src/hid/switch.h ****     /** Specifies whether the pressed is HIGH or LOW. */
  26:../../libdaisy/src/hid/switch.h ****     enum Polarity
  27:../../libdaisy/src/hid/switch.h ****     {
  28:../../libdaisy/src/hid/switch.h ****         POLARITY_NORMAL,   /**< & */
  29:../../libdaisy/src/hid/switch.h ****         POLARITY_INVERTED, /**< & */
  30:../../libdaisy/src/hid/switch.h ****     };
  31:../../libdaisy/src/hid/switch.h **** 
  32:../../libdaisy/src/hid/switch.h ****     /** Specifies whether to use built-in Pull Up/Down resistors to hold button at a given state wh
  33:../../libdaisy/src/hid/switch.h ****     enum Pull
  34:../../libdaisy/src/hid/switch.h ****     {
  35:../../libdaisy/src/hid/switch.h ****         PULL_UP,   /**< & */
  36:../../libdaisy/src/hid/switch.h ****         PULL_DOWN, /**< & */
  37:../../libdaisy/src/hid/switch.h ****         PULL_NONE, /**< & */
ARM GAS  C:\Users\VINCIU~1\AppData\Local\Temp\cc6F1pHH.s 			page 15


  38:../../libdaisy/src/hid/switch.h ****     };
  39:../../libdaisy/src/hid/switch.h **** 
  40:../../libdaisy/src/hid/switch.h ****     Switch() {}
  41:../../libdaisy/src/hid/switch.h ****     ~Switch() {}
 227              		.loc 12 41 5 view .LVU27
 228              		.loc 12 41 5 is_stmt 0 view .LVU28
 229              	.LBE312:
 230              	.LBB313:
 231              	.LBI313:
 232              		.loc 12 41 5 is_stmt 1 view .LVU29
 233              		.loc 12 41 5 is_stmt 0 view .LVU30
 234              	.LBE313:
 235              		.loc 11 7 7 view .LVU31
 236 0000 7047     		bx	lr
 237              		.cfi_endproc
 238              	.LFE4632:
 240              		.weak	_ZN5MenusD1Ev
 241              		.thumb_set _ZN5MenusD1Ev,_ZN5MenusD2Ev
 242 0002 00BF     		.section	.text.__tcf_0,"ax",%progbits
 243              		.align	1
 244              		.p2align 2,,3
 245              		.syntax unified
 246              		.thumb
 247              		.thumb_func
 248              		.fpu fpv5-d16
 250              	__tcf_0:
 251              	.LFB4634:
 252              		.file 13 "SynthMenis.cpp"
   1:SynthMenis.cpp **** #include <stdio.h>
   2:SynthMenis.cpp **** #include <string.h>
   3:SynthMenis.cpp **** #include "daisy_seed.h"
   4:SynthMenis.cpp **** #include "daisysp.h"
   5:SynthMenis.cpp **** #include "dev/oled_ssd130x.h"
   6:SynthMenis.cpp **** #include "OledDisplayExtravaganza.h"
   7:SynthMenis.cpp **** #include "Menus.h"
   8:SynthMenis.cpp **** 
   9:SynthMenis.cpp **** using namespace daisy;
  10:SynthMenis.cpp **** using namespace daisysp;
  11:SynthMenis.cpp **** 
  12:SynthMenis.cpp **** 
  13:SynthMenis.cpp **** Menus                                  synthmenu;
  14:SynthMenis.cpp **** DaisySeed                              hw;
  15:SynthMenis.cpp **** OledDisplayExtravaganza                screen;
  16:SynthMenis.cpp **** const int                              height = screen.Height();
  17:SynthMenis.cpp **** const int                              width  = screen.Width();
  18:SynthMenis.cpp **** Oscillator                             osc[2];
 253              		.loc 13 18 40 is_stmt 1 view -0
 254              		.cfi_startproc
 255              		@ args = 0, pretend = 0, frame = 0
 256              		@ frame_needed = 0, uses_anonymous_args = 0
 257              		@ link register save eliminated.
 258              		.loc 13 18 40 is_stmt 0 view .LVU33
 259 0000 7047     		bx	lr
 260              		.cfi_endproc
 261              	.LFE4634:
 263 0002 00BF     		.section	.text._ZN5daisy11OledDisplayINS_13SSD130xDriverILj128ELj64ENS_24SSD130x4WireSpiTransportE
 264              		.align	1
ARM GAS  C:\Users\VINCIU~1\AppData\Local\Temp\cc6F1pHH.s 			page 16


 265              		.p2align 2,,3
 266              		.weak	_ZN5daisy11OledDisplayINS_13SSD130xDriverILj128ELj64ENS_24SSD130x4WireSpiTransportEEEE4FillE
 267              		.syntax unified
 268              		.thumb
 269              		.thumb_func
 270              		.fpu fpv5-d16
 272              	_ZN5daisy11OledDisplayINS_13SSD130xDriverILj128ELj64ENS_24SSD130x4WireSpiTransportEEEE4FillEb:
 273              	.LVL9:
 274              	.LFB4635:
  28:../../libdaisy/src/hid/disp/oled_display.h **** 
  29:../../libdaisy/src/hid/disp/oled_display.h ****     /** 
  30:../../libdaisy/src/hid/disp/oled_display.h ****     Fills the entire display with either on/off.
  31:../../libdaisy/src/hid/disp/oled_display.h ****     \param on Sets on or off.
  32:../../libdaisy/src/hid/disp/oled_display.h ****     */
  33:../../libdaisy/src/hid/disp/oled_display.h ****     void Fill(bool on) override { driver_.Fill(on); }
 275              		.loc 8 33 10 is_stmt 1 view -0
 276              		.cfi_startproc
 277              		@ args = 0, pretend = 0, frame = 0
 278              		@ frame_needed = 0, uses_anonymous_args = 0
 279              		@ link register save eliminated.
 280              	.LBB314:
 281              	.LBI314:
 282              		.file 14 "../../libdaisy/src/dev/oled_ssd130x.h"
   1:../../libdaisy/src/dev/oled_ssd130x.h **** #pragma once
   2:../../libdaisy/src/dev/oled_ssd130x.h **** #ifndef SA_OLED_SSD130X_H
   3:../../libdaisy/src/dev/oled_ssd130x.h **** #define SA_OLED_SSD130X_H /**< & */
   4:../../libdaisy/src/dev/oled_ssd130x.h **** 
   5:../../libdaisy/src/dev/oled_ssd130x.h **** #include "per/i2c.h"
   6:../../libdaisy/src/dev/oled_ssd130x.h **** #include "per/spi.h"
   7:../../libdaisy/src/dev/oled_ssd130x.h **** #include "per/gpio.h"
   8:../../libdaisy/src/dev/oled_ssd130x.h **** #include "sys/system.h"
   9:../../libdaisy/src/dev/oled_ssd130x.h **** 
  10:../../libdaisy/src/dev/oled_ssd130x.h **** namespace daisy
  11:../../libdaisy/src/dev/oled_ssd130x.h **** {
  12:../../libdaisy/src/dev/oled_ssd130x.h **** /**
  13:../../libdaisy/src/dev/oled_ssd130x.h ****  * I2C Transport for SSD1306 / SSD1309 OLED display devices
  14:../../libdaisy/src/dev/oled_ssd130x.h ****  */
  15:../../libdaisy/src/dev/oled_ssd130x.h **** class SSD130xI2CTransport
  16:../../libdaisy/src/dev/oled_ssd130x.h **** {
  17:../../libdaisy/src/dev/oled_ssd130x.h ****   public:
  18:../../libdaisy/src/dev/oled_ssd130x.h ****     struct Config
  19:../../libdaisy/src/dev/oled_ssd130x.h ****     {
  20:../../libdaisy/src/dev/oled_ssd130x.h ****         I2CHandle::Config i2c_config;
  21:../../libdaisy/src/dev/oled_ssd130x.h ****         uint8_t           i2c_address;
  22:../../libdaisy/src/dev/oled_ssd130x.h ****         void              Defaults()
  23:../../libdaisy/src/dev/oled_ssd130x.h ****         {
  24:../../libdaisy/src/dev/oled_ssd130x.h ****             i2c_config.periph         = I2CHandle::Config::Peripheral::I2C_1;
  25:../../libdaisy/src/dev/oled_ssd130x.h ****             i2c_config.speed          = I2CHandle::Config::Speed::I2C_1MHZ;
  26:../../libdaisy/src/dev/oled_ssd130x.h ****             i2c_config.mode           = I2CHandle::Config::Mode::I2C_MASTER;
  27:../../libdaisy/src/dev/oled_ssd130x.h ****             i2c_config.pin_config.scl = {DSY_GPIOB, 8};
  28:../../libdaisy/src/dev/oled_ssd130x.h ****             i2c_config.pin_config.sda = {DSY_GPIOB, 9};
  29:../../libdaisy/src/dev/oled_ssd130x.h ****             i2c_address               = 0x3C;
  30:../../libdaisy/src/dev/oled_ssd130x.h ****         }
  31:../../libdaisy/src/dev/oled_ssd130x.h ****     };
  32:../../libdaisy/src/dev/oled_ssd130x.h ****     void Init(const Config& config)
  33:../../libdaisy/src/dev/oled_ssd130x.h ****     {
  34:../../libdaisy/src/dev/oled_ssd130x.h ****         i2c_address_ = config.i2c_address;
ARM GAS  C:\Users\VINCIU~1\AppData\Local\Temp\cc6F1pHH.s 			page 17


  35:../../libdaisy/src/dev/oled_ssd130x.h ****         i2c_.Init(config.i2c_config);
  36:../../libdaisy/src/dev/oled_ssd130x.h ****     };
  37:../../libdaisy/src/dev/oled_ssd130x.h ****     void SendCommand(uint8_t cmd)
  38:../../libdaisy/src/dev/oled_ssd130x.h ****     {
  39:../../libdaisy/src/dev/oled_ssd130x.h ****         uint8_t buf[2] = {0X00, cmd};
  40:../../libdaisy/src/dev/oled_ssd130x.h ****         i2c_.TransmitBlocking(i2c_address_, buf, 2, 1000);
  41:../../libdaisy/src/dev/oled_ssd130x.h ****     };
  42:../../libdaisy/src/dev/oled_ssd130x.h **** 
  43:../../libdaisy/src/dev/oled_ssd130x.h ****     void SendData(uint8_t* buff, size_t size)
  44:../../libdaisy/src/dev/oled_ssd130x.h ****     {
  45:../../libdaisy/src/dev/oled_ssd130x.h ****         for(size_t i = 0; i < size; i++)
  46:../../libdaisy/src/dev/oled_ssd130x.h ****         {
  47:../../libdaisy/src/dev/oled_ssd130x.h ****             uint8_t buf[2] = {0X40, buff[i]};
  48:../../libdaisy/src/dev/oled_ssd130x.h ****             i2c_.TransmitBlocking(i2c_address_, buf, 2, 1000);
  49:../../libdaisy/src/dev/oled_ssd130x.h ****         }
  50:../../libdaisy/src/dev/oled_ssd130x.h ****     };
  51:../../libdaisy/src/dev/oled_ssd130x.h **** 
  52:../../libdaisy/src/dev/oled_ssd130x.h ****   private:
  53:../../libdaisy/src/dev/oled_ssd130x.h ****     daisy::I2CHandle i2c_;
  54:../../libdaisy/src/dev/oled_ssd130x.h ****     uint8_t          i2c_address_;
  55:../../libdaisy/src/dev/oled_ssd130x.h **** };
  56:../../libdaisy/src/dev/oled_ssd130x.h **** 
  57:../../libdaisy/src/dev/oled_ssd130x.h **** /**
  58:../../libdaisy/src/dev/oled_ssd130x.h ****  * 4 Wire SPI Transport for SSD1306 / SSD1309 OLED display devices
  59:../../libdaisy/src/dev/oled_ssd130x.h ****  */
  60:../../libdaisy/src/dev/oled_ssd130x.h **** class SSD130x4WireSpiTransport
  61:../../libdaisy/src/dev/oled_ssd130x.h **** {
  62:../../libdaisy/src/dev/oled_ssd130x.h ****   public:
  63:../../libdaisy/src/dev/oled_ssd130x.h ****     struct Config
  64:../../libdaisy/src/dev/oled_ssd130x.h ****     {
  65:../../libdaisy/src/dev/oled_ssd130x.h ****         struct
  66:../../libdaisy/src/dev/oled_ssd130x.h ****         {
  67:../../libdaisy/src/dev/oled_ssd130x.h ****             dsy_gpio_pin dc;    /**< & */
  68:../../libdaisy/src/dev/oled_ssd130x.h ****             dsy_gpio_pin reset; /**< & */
  69:../../libdaisy/src/dev/oled_ssd130x.h ****         } pin_config;
  70:../../libdaisy/src/dev/oled_ssd130x.h ****         void Defaults()
  71:../../libdaisy/src/dev/oled_ssd130x.h ****         {
  72:../../libdaisy/src/dev/oled_ssd130x.h ****             pin_config.dc    = {DSY_GPIOB, 4};
  73:../../libdaisy/src/dev/oled_ssd130x.h ****             pin_config.reset = {DSY_GPIOB, 15};
  74:../../libdaisy/src/dev/oled_ssd130x.h ****         }
  75:../../libdaisy/src/dev/oled_ssd130x.h ****     };
  76:../../libdaisy/src/dev/oled_ssd130x.h ****     void Init(const Config& config)
  77:../../libdaisy/src/dev/oled_ssd130x.h ****     {
  78:../../libdaisy/src/dev/oled_ssd130x.h ****         // Initialize both GPIO
  79:../../libdaisy/src/dev/oled_ssd130x.h ****         pin_dc_.mode = DSY_GPIO_MODE_OUTPUT_PP;
  80:../../libdaisy/src/dev/oled_ssd130x.h ****         pin_dc_.pin  = config.pin_config.dc;
  81:../../libdaisy/src/dev/oled_ssd130x.h ****         dsy_gpio_init(&pin_dc_);
  82:../../libdaisy/src/dev/oled_ssd130x.h ****         pin_reset_.mode = DSY_GPIO_MODE_OUTPUT_PP;
  83:../../libdaisy/src/dev/oled_ssd130x.h ****         pin_reset_.pin  = config.pin_config.reset;
  84:../../libdaisy/src/dev/oled_ssd130x.h ****         dsy_gpio_init(&pin_reset_);
  85:../../libdaisy/src/dev/oled_ssd130x.h ****         // Initialize SPI
  86:../../libdaisy/src/dev/oled_ssd130x.h ****         SpiHandle::Config spi_config;
  87:../../libdaisy/src/dev/oled_ssd130x.h ****         spi_config.periph    = SpiHandle::Config::Peripheral::SPI_1;
  88:../../libdaisy/src/dev/oled_ssd130x.h ****         spi_config.mode      = SpiHandle::Config::Mode::MASTER;
  89:../../libdaisy/src/dev/oled_ssd130x.h ****         spi_config.direction = SpiHandle::Config::Direction::TWO_LINES_TX_ONLY;
  90:../../libdaisy/src/dev/oled_ssd130x.h ****         spi_config.datasize  = 8;
  91:../../libdaisy/src/dev/oled_ssd130x.h ****         spi_config.clock_polarity = SpiHandle::Config::ClockPolarity::LOW;
ARM GAS  C:\Users\VINCIU~1\AppData\Local\Temp\cc6F1pHH.s 			page 18


  92:../../libdaisy/src/dev/oled_ssd130x.h ****         spi_config.clock_phase    = SpiHandle::Config::ClockPhase::ONE_EDGE;
  93:../../libdaisy/src/dev/oled_ssd130x.h ****         spi_config.nss            = SpiHandle::Config::NSS::HARD_OUTPUT;
  94:../../libdaisy/src/dev/oled_ssd130x.h ****         spi_config.baud_prescaler = SpiHandle::Config::BaudPrescaler::PS_8;
  95:../../libdaisy/src/dev/oled_ssd130x.h **** 
  96:../../libdaisy/src/dev/oled_ssd130x.h ****         spi_config.pin_config.sclk = {DSY_GPIOG, 11};
  97:../../libdaisy/src/dev/oled_ssd130x.h ****         spi_config.pin_config.miso = {DSY_GPIOX, 0};
  98:../../libdaisy/src/dev/oled_ssd130x.h ****         spi_config.pin_config.mosi = {DSY_GPIOB, 5};
  99:../../libdaisy/src/dev/oled_ssd130x.h ****         spi_config.pin_config.nss  = {DSY_GPIOG, 10};
 100:../../libdaisy/src/dev/oled_ssd130x.h **** 
 101:../../libdaisy/src/dev/oled_ssd130x.h ****         spi_.Init(spi_config);
 102:../../libdaisy/src/dev/oled_ssd130x.h **** 
 103:../../libdaisy/src/dev/oled_ssd130x.h ****         // Reset and Configure OLED.
 104:../../libdaisy/src/dev/oled_ssd130x.h ****         dsy_gpio_write(&pin_reset_, 0);
 105:../../libdaisy/src/dev/oled_ssd130x.h ****         System::Delay(10);
 106:../../libdaisy/src/dev/oled_ssd130x.h ****         dsy_gpio_write(&pin_reset_, 1);
 107:../../libdaisy/src/dev/oled_ssd130x.h ****         System::Delay(10);
 108:../../libdaisy/src/dev/oled_ssd130x.h ****     };
 109:../../libdaisy/src/dev/oled_ssd130x.h ****     void SendCommand(uint8_t cmd)
 110:../../libdaisy/src/dev/oled_ssd130x.h ****     {
 111:../../libdaisy/src/dev/oled_ssd130x.h ****         dsy_gpio_write(&pin_dc_, 0);
 112:../../libdaisy/src/dev/oled_ssd130x.h ****         spi_.BlockingTransmit(&cmd, 1);
 113:../../libdaisy/src/dev/oled_ssd130x.h ****     };
 114:../../libdaisy/src/dev/oled_ssd130x.h **** 
 115:../../libdaisy/src/dev/oled_ssd130x.h ****     void SendData(uint8_t* buff, size_t size)
 116:../../libdaisy/src/dev/oled_ssd130x.h ****     {
 117:../../libdaisy/src/dev/oled_ssd130x.h ****         dsy_gpio_write(&pin_dc_, 1);
 118:../../libdaisy/src/dev/oled_ssd130x.h ****         spi_.BlockingTransmit(buff, size);
 119:../../libdaisy/src/dev/oled_ssd130x.h ****     };
 120:../../libdaisy/src/dev/oled_ssd130x.h **** 
 121:../../libdaisy/src/dev/oled_ssd130x.h ****   private:
 122:../../libdaisy/src/dev/oled_ssd130x.h ****     SpiHandle spi_;
 123:../../libdaisy/src/dev/oled_ssd130x.h ****     dsy_gpio  pin_reset_;
 124:../../libdaisy/src/dev/oled_ssd130x.h ****     dsy_gpio  pin_dc_;
 125:../../libdaisy/src/dev/oled_ssd130x.h **** };
 126:../../libdaisy/src/dev/oled_ssd130x.h **** 
 127:../../libdaisy/src/dev/oled_ssd130x.h **** 
 128:../../libdaisy/src/dev/oled_ssd130x.h **** /**
 129:../../libdaisy/src/dev/oled_ssd130x.h ****  * A driver implementation for the SSD1306/SSD1309
 130:../../libdaisy/src/dev/oled_ssd130x.h ****  */
 131:../../libdaisy/src/dev/oled_ssd130x.h **** template <size_t width, size_t height, typename Transport>
 132:../../libdaisy/src/dev/oled_ssd130x.h **** class SSD130xDriver
 133:../../libdaisy/src/dev/oled_ssd130x.h **** {
 134:../../libdaisy/src/dev/oled_ssd130x.h ****   public:
 135:../../libdaisy/src/dev/oled_ssd130x.h ****     struct Config
 136:../../libdaisy/src/dev/oled_ssd130x.h ****     {
 137:../../libdaisy/src/dev/oled_ssd130x.h ****         typename Transport::Config transport_config;
 138:../../libdaisy/src/dev/oled_ssd130x.h ****     };
 139:../../libdaisy/src/dev/oled_ssd130x.h **** 
 140:../../libdaisy/src/dev/oled_ssd130x.h ****     void Init(Config config)
 141:../../libdaisy/src/dev/oled_ssd130x.h ****     {
 142:../../libdaisy/src/dev/oled_ssd130x.h ****         transport_.Init(config.transport_config);
 143:../../libdaisy/src/dev/oled_ssd130x.h **** 
 144:../../libdaisy/src/dev/oled_ssd130x.h ****         // Init routine...
 145:../../libdaisy/src/dev/oled_ssd130x.h **** 
 146:../../libdaisy/src/dev/oled_ssd130x.h ****         // Display Off
 147:../../libdaisy/src/dev/oled_ssd130x.h ****         transport_.SendCommand(0xaE);
 148:../../libdaisy/src/dev/oled_ssd130x.h ****         // Dimension dependent commands...
ARM GAS  C:\Users\VINCIU~1\AppData\Local\Temp\cc6F1pHH.s 			page 19


 149:../../libdaisy/src/dev/oled_ssd130x.h ****         switch(height)
 150:../../libdaisy/src/dev/oled_ssd130x.h ****         {
 151:../../libdaisy/src/dev/oled_ssd130x.h ****             case 16:
 152:../../libdaisy/src/dev/oled_ssd130x.h ****                 // Display Clock Divide Ratio
 153:../../libdaisy/src/dev/oled_ssd130x.h ****                 transport_.SendCommand(0xD5);
 154:../../libdaisy/src/dev/oled_ssd130x.h ****                 transport_.SendCommand(0x60);
 155:../../libdaisy/src/dev/oled_ssd130x.h ****                 // Multiplex Ratio
 156:../../libdaisy/src/dev/oled_ssd130x.h ****                 transport_.SendCommand(0xA8);
 157:../../libdaisy/src/dev/oled_ssd130x.h ****                 transport_.SendCommand(0x0F);
 158:../../libdaisy/src/dev/oled_ssd130x.h ****                 // COM Pins
 159:../../libdaisy/src/dev/oled_ssd130x.h ****                 transport_.SendCommand(0xDA);
 160:../../libdaisy/src/dev/oled_ssd130x.h ****                 transport_.SendCommand(0x02);
 161:../../libdaisy/src/dev/oled_ssd130x.h ****                 break;
 162:../../libdaisy/src/dev/oled_ssd130x.h ****             case 32:
 163:../../libdaisy/src/dev/oled_ssd130x.h ****                 // Display Clock Divide Ratio
 164:../../libdaisy/src/dev/oled_ssd130x.h ****                 transport_.SendCommand(0xD5);
 165:../../libdaisy/src/dev/oled_ssd130x.h ****                 transport_.SendCommand(0x80);
 166:../../libdaisy/src/dev/oled_ssd130x.h ****                 // Multiplex Ratio
 167:../../libdaisy/src/dev/oled_ssd130x.h ****                 transport_.SendCommand(0xA8);
 168:../../libdaisy/src/dev/oled_ssd130x.h ****                 transport_.SendCommand(0x1F);
 169:../../libdaisy/src/dev/oled_ssd130x.h ****                 // COM Pins
 170:../../libdaisy/src/dev/oled_ssd130x.h ****                 transport_.SendCommand(0xDA);
 171:../../libdaisy/src/dev/oled_ssd130x.h ****                 if(width == 64)
 172:../../libdaisy/src/dev/oled_ssd130x.h ****                 {
 173:../../libdaisy/src/dev/oled_ssd130x.h ****                     transport_.SendCommand(0x12);
 174:../../libdaisy/src/dev/oled_ssd130x.h ****                 }
 175:../../libdaisy/src/dev/oled_ssd130x.h ****                 else
 176:../../libdaisy/src/dev/oled_ssd130x.h ****                 {
 177:../../libdaisy/src/dev/oled_ssd130x.h ****                     transport_.SendCommand(0x02);
 178:../../libdaisy/src/dev/oled_ssd130x.h ****                 }
 179:../../libdaisy/src/dev/oled_ssd130x.h **** 
 180:../../libdaisy/src/dev/oled_ssd130x.h ****                 break;
 181:../../libdaisy/src/dev/oled_ssd130x.h ****             case 48:
 182:../../libdaisy/src/dev/oled_ssd130x.h ****                 // Display Clock Divide Ratio
 183:../../libdaisy/src/dev/oled_ssd130x.h ****                 transport_.SendCommand(0xD5);
 184:../../libdaisy/src/dev/oled_ssd130x.h ****                 transport_.SendCommand(0x80);
 185:../../libdaisy/src/dev/oled_ssd130x.h ****                 // Multiplex Ratio
 186:../../libdaisy/src/dev/oled_ssd130x.h ****                 transport_.SendCommand(0xA8);
 187:../../libdaisy/src/dev/oled_ssd130x.h ****                 transport_.SendCommand(0x2F);
 188:../../libdaisy/src/dev/oled_ssd130x.h ****                 // COM Pins
 189:../../libdaisy/src/dev/oled_ssd130x.h ****                 transport_.SendCommand(0xDA);
 190:../../libdaisy/src/dev/oled_ssd130x.h ****                 transport_.SendCommand(0x12);
 191:../../libdaisy/src/dev/oled_ssd130x.h ****                 break;
 192:../../libdaisy/src/dev/oled_ssd130x.h ****             default: // 128
 193:../../libdaisy/src/dev/oled_ssd130x.h ****                 // Display Clock Divide Ratio
 194:../../libdaisy/src/dev/oled_ssd130x.h ****                 transport_.SendCommand(0xD5);
 195:../../libdaisy/src/dev/oled_ssd130x.h ****                 transport_.SendCommand(0x80);
 196:../../libdaisy/src/dev/oled_ssd130x.h ****                 // Multiplex Ratio
 197:../../libdaisy/src/dev/oled_ssd130x.h ****                 transport_.SendCommand(0xA8);
 198:../../libdaisy/src/dev/oled_ssd130x.h ****                 transport_.SendCommand(0x3F);
 199:../../libdaisy/src/dev/oled_ssd130x.h ****                 // COM Pins
 200:../../libdaisy/src/dev/oled_ssd130x.h ****                 transport_.SendCommand(0xDA);
 201:../../libdaisy/src/dev/oled_ssd130x.h ****                 transport_.SendCommand(0x12);
 202:../../libdaisy/src/dev/oled_ssd130x.h ****                 break;
 203:../../libdaisy/src/dev/oled_ssd130x.h ****         }
 204:../../libdaisy/src/dev/oled_ssd130x.h **** 
 205:../../libdaisy/src/dev/oled_ssd130x.h ****         // Display Offset
ARM GAS  C:\Users\VINCIU~1\AppData\Local\Temp\cc6F1pHH.s 			page 20


 206:../../libdaisy/src/dev/oled_ssd130x.h ****         transport_.SendCommand(0xD3);
 207:../../libdaisy/src/dev/oled_ssd130x.h ****         transport_.SendCommand(0x00);
 208:../../libdaisy/src/dev/oled_ssd130x.h ****         // Start Line Address
 209:../../libdaisy/src/dev/oled_ssd130x.h ****         transport_.SendCommand(0x40);
 210:../../libdaisy/src/dev/oled_ssd130x.h ****         // Normal Display
 211:../../libdaisy/src/dev/oled_ssd130x.h ****         transport_.SendCommand(0xA6);
 212:../../libdaisy/src/dev/oled_ssd130x.h ****         // All On Resume
 213:../../libdaisy/src/dev/oled_ssd130x.h ****         transport_.SendCommand(0xA4);
 214:../../libdaisy/src/dev/oled_ssd130x.h ****         // Charge Pump
 215:../../libdaisy/src/dev/oled_ssd130x.h ****         transport_.SendCommand(0x8D);
 216:../../libdaisy/src/dev/oled_ssd130x.h ****         transport_.SendCommand(0x14);
 217:../../libdaisy/src/dev/oled_ssd130x.h ****         // Set Segment Remap
 218:../../libdaisy/src/dev/oled_ssd130x.h ****         transport_.SendCommand(0xA1);
 219:../../libdaisy/src/dev/oled_ssd130x.h ****         // COM Output Scan Direction
 220:../../libdaisy/src/dev/oled_ssd130x.h ****         transport_.SendCommand(0xC8);
 221:../../libdaisy/src/dev/oled_ssd130x.h ****         // Contrast Control
 222:../../libdaisy/src/dev/oled_ssd130x.h ****         transport_.SendCommand(0x81);
 223:../../libdaisy/src/dev/oled_ssd130x.h ****         transport_.SendCommand(0x8F);
 224:../../libdaisy/src/dev/oled_ssd130x.h ****         // Pre Charge
 225:../../libdaisy/src/dev/oled_ssd130x.h ****         transport_.SendCommand(0xD9);
 226:../../libdaisy/src/dev/oled_ssd130x.h ****         transport_.SendCommand(0x25);
 227:../../libdaisy/src/dev/oled_ssd130x.h ****         // VCOM Detect
 228:../../libdaisy/src/dev/oled_ssd130x.h ****         transport_.SendCommand(0xDB);
 229:../../libdaisy/src/dev/oled_ssd130x.h ****         transport_.SendCommand(0x34);
 230:../../libdaisy/src/dev/oled_ssd130x.h **** 
 231:../../libdaisy/src/dev/oled_ssd130x.h **** 
 232:../../libdaisy/src/dev/oled_ssd130x.h ****         // Display On
 233:../../libdaisy/src/dev/oled_ssd130x.h ****         transport_.SendCommand(0xAF); //--turn on oled panel
 234:../../libdaisy/src/dev/oled_ssd130x.h ****     };
 235:../../libdaisy/src/dev/oled_ssd130x.h **** 
 236:../../libdaisy/src/dev/oled_ssd130x.h ****     size_t Width() const { return width; };
 237:../../libdaisy/src/dev/oled_ssd130x.h ****     size_t Height() const { return height; };
 238:../../libdaisy/src/dev/oled_ssd130x.h **** 
 239:../../libdaisy/src/dev/oled_ssd130x.h ****     void DrawPixel(uint_fast8_t x, uint_fast8_t y, bool on)
 240:../../libdaisy/src/dev/oled_ssd130x.h ****     {
 241:../../libdaisy/src/dev/oled_ssd130x.h ****         if(x >= width || y >= height)
 242:../../libdaisy/src/dev/oled_ssd130x.h ****             return;
 243:../../libdaisy/src/dev/oled_ssd130x.h ****         if(on)
 244:../../libdaisy/src/dev/oled_ssd130x.h ****             buffer_[x + (y / 8) * width] |= (1 << (y % 8));
 245:../../libdaisy/src/dev/oled_ssd130x.h ****         else
 246:../../libdaisy/src/dev/oled_ssd130x.h ****             buffer_[x + (y / 8) * width] &= ~(1 << (y % 8));
 247:../../libdaisy/src/dev/oled_ssd130x.h ****     }
 248:../../libdaisy/src/dev/oled_ssd130x.h **** 
 249:../../libdaisy/src/dev/oled_ssd130x.h ****     void Fill(bool on)
 283              		.loc 14 249 10 view .LVU35
 284              	.LBB315:
 250:../../libdaisy/src/dev/oled_ssd130x.h ****     {
 251:../../libdaisy/src/dev/oled_ssd130x.h ****         for(size_t i = 0; i < sizeof(buffer_); i++)
 285              		.loc 14 251 29 view .LVU36
 252:../../libdaisy/src/dev/oled_ssd130x.h ****         {
 253:../../libdaisy/src/dev/oled_ssd130x.h ****             buffer_[i] = on ? 0xff : 0x00;
 286              		.loc 14 253 24 is_stmt 0 view .LVU37
 287 0000 4942     		rsbs	r1, r1, #0
 288              	.LVL10:
 289              		.loc 14 253 24 view .LVU38
 290 0002 4FF48062 		mov	r2, #1024
 291 0006 1430     		adds	r0, r0, #20
ARM GAS  C:\Users\VINCIU~1\AppData\Local\Temp\cc6F1pHH.s 			page 21


 292              	.LVL11:
 293              		.loc 14 253 24 view .LVU39
 294 0008 C9B2     		uxtb	r1, r1
 295 000a FFF7FEBF 		b	memset
 296              	.LVL12:
 297              		.loc 14 253 24 view .LVU40
 298              	.LBE315:
 299              	.LBE314:
 300              		.cfi_endproc
 301              	.LFE4635:
 303 000e 00BF     		.section	.text._ZN5daisy11MidiHandlerINS_17MidiUartTransportEED2Ev,"axG",%progbits,_ZN5daisy11Midi
 304              		.align	1
 305              		.p2align 2,,3
 306              		.weak	_ZN5daisy11MidiHandlerINS_17MidiUartTransportEED2Ev
 307              		.syntax unified
 308              		.thumb
 309              		.thumb_func
 310              		.fpu fpv5-d16
 312              	_ZN5daisy11MidiHandlerINS_17MidiUartTransportEED2Ev:
 313              	.LVL13:
 314              	.LFB4644:
 315              		.file 15 "../../libdaisy/src/hid/midi.h"
   1:../../libdaisy/src/hid/midi.h **** #pragma once
   2:../../libdaisy/src/hid/midi.h **** #ifndef DSY_MIDI_H
   3:../../libdaisy/src/hid/midi.h **** #define DSY_MIDI_H
   4:../../libdaisy/src/hid/midi.h **** 
   5:../../libdaisy/src/hid/midi.h **** // TODO: make this adjustable
   6:../../libdaisy/src/hid/midi.h **** #define SYSEX_BUFFER_LEN 100
   7:../../libdaisy/src/hid/midi.h **** 
   8:../../libdaisy/src/hid/midi.h **** #include <stdint.h>
   9:../../libdaisy/src/hid/midi.h **** #include <stdlib.h>
  10:../../libdaisy/src/hid/midi.h **** #include "per/uart.h"
  11:../../libdaisy/src/hid/midi.h **** #include "util/ringbuffer.h"
  12:../../libdaisy/src/hid/midi.h **** #include "hid/MidiEvent.h"
  13:../../libdaisy/src/hid/midi.h **** 
  14:../../libdaisy/src/hid/midi.h **** namespace daisy
  15:../../libdaisy/src/hid/midi.h **** {
  16:../../libdaisy/src/hid/midi.h **** /** @addtogroup external 
  17:../../libdaisy/src/hid/midi.h ****     @{ 
  18:../../libdaisy/src/hid/midi.h **** */
  19:../../libdaisy/src/hid/midi.h **** 
  20:../../libdaisy/src/hid/midi.h **** class MidiUartTransport
  21:../../libdaisy/src/hid/midi.h **** {
  22:../../libdaisy/src/hid/midi.h ****   public:
  23:../../libdaisy/src/hid/midi.h ****     MidiUartTransport() {}
  24:../../libdaisy/src/hid/midi.h ****     ~MidiUartTransport() {}
  25:../../libdaisy/src/hid/midi.h **** 
  26:../../libdaisy/src/hid/midi.h ****     struct Config
  27:../../libdaisy/src/hid/midi.h ****     {
  28:../../libdaisy/src/hid/midi.h ****         UartHandler::Config::Peripheral periph;
  29:../../libdaisy/src/hid/midi.h ****         dsy_gpio_pin                    rx;
  30:../../libdaisy/src/hid/midi.h ****         dsy_gpio_pin                    tx;
  31:../../libdaisy/src/hid/midi.h **** 
  32:../../libdaisy/src/hid/midi.h ****         Config()
  33:../../libdaisy/src/hid/midi.h ****         {
  34:../../libdaisy/src/hid/midi.h ****             periph = UartHandler::Config::Peripheral::USART_1;
  35:../../libdaisy/src/hid/midi.h ****             rx     = {DSY_GPIOB, 7};
ARM GAS  C:\Users\VINCIU~1\AppData\Local\Temp\cc6F1pHH.s 			page 22


  36:../../libdaisy/src/hid/midi.h ****             tx     = {DSY_GPIOB, 6};
  37:../../libdaisy/src/hid/midi.h ****         }
  38:../../libdaisy/src/hid/midi.h ****     };
  39:../../libdaisy/src/hid/midi.h **** 
  40:../../libdaisy/src/hid/midi.h ****     inline void Init(Config config)
  41:../../libdaisy/src/hid/midi.h ****     {
  42:../../libdaisy/src/hid/midi.h ****         UartHandler::Config uart_config;
  43:../../libdaisy/src/hid/midi.h **** 
  44:../../libdaisy/src/hid/midi.h ****         //defaults
  45:../../libdaisy/src/hid/midi.h ****         uart_config.baudrate   = 31250;
  46:../../libdaisy/src/hid/midi.h ****         uart_config.stopbits   = UartHandler::Config::StopBits::BITS_1;
  47:../../libdaisy/src/hid/midi.h ****         uart_config.parity     = UartHandler::Config::Parity::NONE;
  48:../../libdaisy/src/hid/midi.h ****         uart_config.mode       = UartHandler::Config::Mode::TX_RX;
  49:../../libdaisy/src/hid/midi.h ****         uart_config.wordlength = UartHandler::Config::WordLength::BITS_8;
  50:../../libdaisy/src/hid/midi.h **** 
  51:../../libdaisy/src/hid/midi.h ****         //user settings
  52:../../libdaisy/src/hid/midi.h ****         uart_config.periph        = config.periph;
  53:../../libdaisy/src/hid/midi.h ****         uart_config.pin_config.rx = config.rx;
  54:../../libdaisy/src/hid/midi.h ****         uart_config.pin_config.tx = config.tx;
  55:../../libdaisy/src/hid/midi.h **** 
  56:../../libdaisy/src/hid/midi.h ****         uart_.Init(uart_config);
  57:../../libdaisy/src/hid/midi.h ****     }
  58:../../libdaisy/src/hid/midi.h **** 
  59:../../libdaisy/src/hid/midi.h ****     inline void    StartRx() { uart_.StartRx(); }
  60:../../libdaisy/src/hid/midi.h ****     inline size_t  Readable() { return uart_.Readable(); }
  61:../../libdaisy/src/hid/midi.h ****     inline uint8_t Rx() { return uart_.PopRx(); }
  62:../../libdaisy/src/hid/midi.h ****     inline bool    RxActive() { return uart_.RxActive(); }
  63:../../libdaisy/src/hid/midi.h ****     inline void    FlushRx() { uart_.FlushRx(); }
  64:../../libdaisy/src/hid/midi.h ****     inline void    Tx(uint8_t* buff, size_t size) { uart_.PollTx(buff, size); }
  65:../../libdaisy/src/hid/midi.h **** 
  66:../../libdaisy/src/hid/midi.h ****   private:
  67:../../libdaisy/src/hid/midi.h ****     UartHandler uart_;
  68:../../libdaisy/src/hid/midi.h **** };
  69:../../libdaisy/src/hid/midi.h **** 
  70:../../libdaisy/src/hid/midi.h **** /** 
  71:../../libdaisy/src/hid/midi.h ****     @brief Simple MIDI Handler \n 
  72:../../libdaisy/src/hid/midi.h ****     Parses bytes from an input into valid MidiEvents. \n 
  73:../../libdaisy/src/hid/midi.h ****     The MidiEvents fill a FIFO queue that the user can pop messages from.
  74:../../libdaisy/src/hid/midi.h ****     @author shensley
  75:../../libdaisy/src/hid/midi.h ****     @date March 2020
  76:../../libdaisy/src/hid/midi.h **** */
  77:../../libdaisy/src/hid/midi.h **** template <typename Transport>
  78:../../libdaisy/src/hid/midi.h **** class MidiHandler
  79:../../libdaisy/src/hid/midi.h **** {
  80:../../libdaisy/src/hid/midi.h ****   public:
  81:../../libdaisy/src/hid/midi.h ****     MidiHandler() {}
  82:../../libdaisy/src/hid/midi.h ****     ~MidiHandler() {}
 316              		.loc 15 82 5 is_stmt 1 view -0
 317              		.cfi_startproc
 318              		@ args = 0, pretend = 0, frame = 0
 319              		@ frame_needed = 0, uses_anonymous_args = 0
 320              		@ link register save eliminated.
 321              	.LBB316:
 322              	.LBI316:
  24:../../libdaisy/src/hid/midi.h **** 
 323              		.loc 15 24 5 view .LVU42
  24:../../libdaisy/src/hid/midi.h **** 
ARM GAS  C:\Users\VINCIU~1\AppData\Local\Temp\cc6F1pHH.s 			page 23


 324              		.loc 15 24 5 is_stmt 0 view .LVU43
 325              	.LBE316:
 326              		.loc 15 82 21 view .LVU44
 327 0000 7047     		bx	lr
 328              		.cfi_endproc
 329              	.LFE4644:
 331              		.weak	_ZN5daisy11MidiHandlerINS_17MidiUartTransportEED1Ev
 332              		.thumb_set _ZN5daisy11MidiHandlerINS_17MidiUartTransportEED1Ev,_ZN5daisy11MidiHandlerINS_17MidiUar
 333 0002 00BF     		.section	.text._Z13AudioCallbackPKfPfj,"ax",%progbits
 334              		.align	1
 335              		.p2align 2,,3
 336              		.global	_Z13AudioCallbackPKfPfj
 337              		.syntax unified
 338              		.thumb
 339              		.thumb_func
 340              		.fpu fpv5-d16
 342              	_Z13AudioCallbackPKfPfj:
 343              	.LVL14:
 344              	.LFB4038:
  19:SynthMenis.cpp **** Line                                   line;
  20:SynthMenis.cpp **** Adsr                                   env;
  21:SynthMenis.cpp **** bool                                   gate;
  22:SynthMenis.cpp **** float                                  analogRead = 0;
  23:SynthMenis.cpp **** MidiHandler<MidiUartTransport>         midi;
  24:SynthMenis.cpp **** MidiHandler<MidiUartTransport>::Config midi_cfg;
  25:SynthMenis.cpp **** float                                  semiMultiplier = 1;
  26:SynthMenis.cpp **** float                                  osc1Freq       = 0;
  27:SynthMenis.cpp **** uint8_t                                finished;
  28:SynthMenis.cpp **** 
  29:SynthMenis.cpp **** void HandleMidiMessage(MidiEvent m)
  30:SynthMenis.cpp **** {
  31:SynthMenis.cpp ****     switch(m.type)
  32:SynthMenis.cpp ****     {
  33:SynthMenis.cpp ****         case NoteOn:
  34:SynthMenis.cpp ****         {
  35:SynthMenis.cpp ****             NoteOnEvent p = m.AsNoteOn();
  36:SynthMenis.cpp ****             char        buff[512];
  37:SynthMenis.cpp ****             sprintf(buff,
  38:SynthMenis.cpp ****                     "Note Received:\t%d\t%d\t%d\r\n",
  39:SynthMenis.cpp ****                     m.channel,
  40:SynthMenis.cpp ****                     m.data[0],
  41:SynthMenis.cpp ****                     m.data[1]);
  42:SynthMenis.cpp ****             hw.usb_handle.TransmitInternal((uint8_t *)buff, strlen(buff));
  43:SynthMenis.cpp ****             // This is to avoid Max/MSP Note outs for now..
  44:SynthMenis.cpp ****             if(m.data[1] != 0)
  45:SynthMenis.cpp ****             {
  46:SynthMenis.cpp ****                 //osc1Freq = p.note;
  47:SynthMenis.cpp ****                 line.Start(
  48:SynthMenis.cpp ****                     p.note + synthmenu.glideInit, p.note, synthmenu.glideTime);
  49:SynthMenis.cpp ****                 gate = true;
  50:SynthMenis.cpp ****             }
  51:SynthMenis.cpp ****         }
  52:SynthMenis.cpp ****         break;
  53:SynthMenis.cpp **** 
  54:SynthMenis.cpp ****         case NoteOff:
  55:SynthMenis.cpp ****         {
  56:SynthMenis.cpp ****             char buff[512];
ARM GAS  C:\Users\VINCIU~1\AppData\Local\Temp\cc6F1pHH.s 			page 24


  57:SynthMenis.cpp ****             sprintf(buff,
  58:SynthMenis.cpp ****                     "NoteOff Received:\t%d\t%d\t%d\r\n",
  59:SynthMenis.cpp ****                     m.channel,
  60:SynthMenis.cpp ****                     m.data[0],
  61:SynthMenis.cpp ****                     m.data[1]);
  62:SynthMenis.cpp ****             hw.usb_handle.TransmitInternal((uint8_t *)buff, strlen(buff));
  63:SynthMenis.cpp ****             // This is to avoid Max/MSP Note outs for now..
  64:SynthMenis.cpp ****             if(m.data[1] != 0)
  65:SynthMenis.cpp ****             {
  66:SynthMenis.cpp ****                 gate = false;
  67:SynthMenis.cpp ****             }
  68:SynthMenis.cpp ****         }
  69:SynthMenis.cpp ****         break;
  70:SynthMenis.cpp ****         default: break;
  71:SynthMenis.cpp ****     }
  72:SynthMenis.cpp **** }
  73:SynthMenis.cpp **** 
  74:SynthMenis.cpp **** 
  75:SynthMenis.cpp **** void AudioCallback(AudioHandle::InterleavingInputBuffer  in,
  76:SynthMenis.cpp ****                    AudioHandle::InterleavingOutputBuffer out,
  77:SynthMenis.cpp ****                    size_t                                size)
  78:SynthMenis.cpp **** {
 345              		.loc 13 78 1 is_stmt 1 view -0
 346              		.cfi_startproc
 347              		@ args = 0, pretend = 0, frame = 0
 348              		@ frame_needed = 0, uses_anonymous_args = 0
  79:SynthMenis.cpp ****     float osc_out;
 349              		.loc 13 79 5 view .LVU46
  80:SynthMenis.cpp ****     float env_out;
 350              		.loc 13 80 5 view .LVU47
  81:SynthMenis.cpp ****     for(size_t i = 0; i < size; i += 2)
 351              		.loc 13 81 5 view .LVU48
 352              	.LBB317:
 353              		.loc 13 81 25 view .LVU49
 354 0000 002A     		cmp	r2, #0
 355 0002 4AD0     		beq	.L20
 356 0004 013A     		subs	r2, r2, #1
 357              	.LVL15:
 358              		.loc 13 81 25 is_stmt 0 view .LVU50
 359              	.LBE317:
  78:SynthMenis.cpp ****     float osc_out;
 360              		.loc 13 78 1 view .LVU51
 361 0006 2DE9F047 		push	{r4, r5, r6, r7, r8, r9, r10, lr}
 362              		.cfi_def_cfa_offset 32
 363              		.cfi_offset 4, -32
 364              		.cfi_offset 5, -28
 365              		.cfi_offset 6, -24
 366              		.cfi_offset 7, -20
 367              		.cfi_offset 8, -16
 368              		.cfi_offset 9, -12
 369              		.cfi_offset 10, -8
 370              		.cfi_offset 14, -4
 371 000a 0C46     		mov	r4, r1
 372              	.LBB322:
 373              		.loc 13 81 25 view .LVU52
 374 000c 0025     		movs	r5, #0
 375 000e DFF8A090 		ldr	r9, .L23+20
ARM GAS  C:\Users\VINCIU~1\AppData\Local\Temp\cc6F1pHH.s 			page 25


 376 0012 5708     		lsrs	r7, r2, #1
 377 0014 214E     		ldr	r6, .L23
 378 0016 DFF89CA0 		ldr	r10, .L23+24
 379 001a DFF89C80 		ldr	r8, .L23+28
 380              	.LBE322:
  78:SynthMenis.cpp ****     float osc_out;
 381              		.loc 13 78 1 view .LVU53
 382 001e 2DED028B 		vpush.64	{d8}
 383              		.cfi_def_cfa_offset 40
 384              		.cfi_offset 80, -40
 385              		.cfi_offset 81, -36
 386              	.LVL16:
 387              	.L14:
 388              	.LBB323:
  82:SynthMenis.cpp ****     {
  83:SynthMenis.cpp ****         env_out = env.Process(gate);
 389              		.loc 13 83 9 is_stmt 1 discriminator 2 view .LVU54
 390              		.loc 13 83 30 is_stmt 0 discriminator 2 view .LVU55
 391 0022 99F80010 		ldrb	r1, [r9]	@ zero_extendqisi2
  81:SynthMenis.cpp ****     {
 392              		.loc 13 81 25 discriminator 2 view .LVU56
 393 0026 0834     		adds	r4, r4, #8
 394              		.loc 13 83 30 discriminator 2 view .LVU57
 395 0028 1D48     		ldr	r0, .L23+4
 396 002a FFF7FEFF 		bl	_ZN7daisysp4Adsr7ProcessEb
 397              	.LVL17:
  84:SynthMenis.cpp **** 
  85:SynthMenis.cpp ****         osc[0].SetAmp((env_out * 0.5) * synthmenu.synthOn);
 398              		.loc 13 85 9 is_stmt 1 discriminator 2 view .LVU58
 399              		.loc 13 85 32 is_stmt 0 discriminator 2 view .LVU59
 400 002e B6EE005B 		vmov.f64	d5, #5.0e-1
 401              		.loc 13 85 24 discriminator 2 view .LVU60
 402 0032 B7EEC00A 		vcvt.f64.f32	d0, s0
 403              	.LVL18:
 404              		.loc 13 85 39 discriminator 2 view .LVU61
 405 0036 DAED407A 		vldr.32	s15, [r10, #256]	@ int
  86:SynthMenis.cpp ****         osc[1].SetAmp((env_out * 0.5) * synthmenu.synthOn2);
  87:SynthMenis.cpp ****         osc_out    = osc[0].Process() + osc[1].Process();
 406              		.loc 13 87 36 discriminator 2 view .LVU62
 407 003a 1848     		ldr	r0, .L23
  85:SynthMenis.cpp ****         osc[1].SetAmp((env_out * 0.5) * synthmenu.synthOn2);
 408              		.loc 13 85 39 discriminator 2 view .LVU63
 409 003c B8EEE76B 		vcvt.f64.s32	d6, s15
  86:SynthMenis.cpp ****         osc[1].SetAmp((env_out * 0.5) * synthmenu.synthOn2);
 410              		.loc 13 86 39 discriminator 2 view .LVU64
 411 0040 DAED417A 		vldr.32	s15, [r10, #260]	@ int
  85:SynthMenis.cpp ****         osc[1].SetAmp((env_out * 0.5) * synthmenu.synthOn2);
 412              		.loc 13 85 32 discriminator 2 view .LVU65
 413 0044 20EE050B 		vmul.f64	d0, d0, d5
 414              	.LVL19:
 415              	.LBB318:
 416              	.LBI318:
 417              		.file 16 "../../DaisySP/Source/Synthesis/oscillator.h"
   1:../../DaisySP/Source/Synthesis/oscillator.h **** #pragma once
   2:../../DaisySP/Source/Synthesis/oscillator.h **** #ifndef DSY_OSCILLATOR_H
   3:../../DaisySP/Source/Synthesis/oscillator.h **** #define DSY_OSCILLATOR_H
   4:../../DaisySP/Source/Synthesis/oscillator.h **** #include <stdint.h>
ARM GAS  C:\Users\VINCIU~1\AppData\Local\Temp\cc6F1pHH.s 			page 26


   5:../../DaisySP/Source/Synthesis/oscillator.h **** #include "Utility/dsp.h"
   6:../../DaisySP/Source/Synthesis/oscillator.h **** #ifdef __cplusplus
   7:../../DaisySP/Source/Synthesis/oscillator.h **** 
   8:../../DaisySP/Source/Synthesis/oscillator.h **** namespace daisysp
   9:../../DaisySP/Source/Synthesis/oscillator.h **** {
  10:../../DaisySP/Source/Synthesis/oscillator.h **** /** Synthesis of several waveforms, including polyBLEP bandlimited waveforms.
  11:../../DaisySP/Source/Synthesis/oscillator.h **** */
  12:../../DaisySP/Source/Synthesis/oscillator.h **** class Oscillator
  13:../../DaisySP/Source/Synthesis/oscillator.h **** {
  14:../../DaisySP/Source/Synthesis/oscillator.h ****   public:
  15:../../DaisySP/Source/Synthesis/oscillator.h ****     Oscillator() {}
  16:../../DaisySP/Source/Synthesis/oscillator.h ****     ~Oscillator() {}
  17:../../DaisySP/Source/Synthesis/oscillator.h ****     /** Choices for output waveforms, POLYBLEP are appropriately labeled. Others are naive forms.
  18:../../DaisySP/Source/Synthesis/oscillator.h ****     */
  19:../../DaisySP/Source/Synthesis/oscillator.h ****     enum
  20:../../DaisySP/Source/Synthesis/oscillator.h ****     {
  21:../../DaisySP/Source/Synthesis/oscillator.h ****         WAVE_SIN,
  22:../../DaisySP/Source/Synthesis/oscillator.h ****         WAVE_TRI,
  23:../../DaisySP/Source/Synthesis/oscillator.h ****         WAVE_SAW,
  24:../../DaisySP/Source/Synthesis/oscillator.h ****         WAVE_RAMP,
  25:../../DaisySP/Source/Synthesis/oscillator.h ****         WAVE_SQUARE,
  26:../../DaisySP/Source/Synthesis/oscillator.h ****         WAVE_POLYBLEP_TRI,
  27:../../DaisySP/Source/Synthesis/oscillator.h ****         WAVE_POLYBLEP_SAW,
  28:../../DaisySP/Source/Synthesis/oscillator.h ****         WAVE_POLYBLEP_SQUARE,
  29:../../DaisySP/Source/Synthesis/oscillator.h ****         WAVE_LAST,
  30:../../DaisySP/Source/Synthesis/oscillator.h ****     };
  31:../../DaisySP/Source/Synthesis/oscillator.h **** 
  32:../../DaisySP/Source/Synthesis/oscillator.h **** 
  33:../../DaisySP/Source/Synthesis/oscillator.h ****     /** Initializes the Oscillator
  34:../../DaisySP/Source/Synthesis/oscillator.h **** 
  35:../../DaisySP/Source/Synthesis/oscillator.h ****         \param sample_rate - sample rate of the audio engine being run, and the frequency that the 
  36:../../DaisySP/Source/Synthesis/oscillator.h **** 
  37:../../DaisySP/Source/Synthesis/oscillator.h ****         Defaults:
  38:../../DaisySP/Source/Synthesis/oscillator.h ****         - freq_ = 100 Hz
  39:../../DaisySP/Source/Synthesis/oscillator.h ****         - amp_ = 0.5
  40:../../DaisySP/Source/Synthesis/oscillator.h ****         - waveform_ = sine wave.
  41:../../DaisySP/Source/Synthesis/oscillator.h ****     */
  42:../../DaisySP/Source/Synthesis/oscillator.h ****     void Init(float sample_rate)
  43:../../DaisySP/Source/Synthesis/oscillator.h ****     {
  44:../../DaisySP/Source/Synthesis/oscillator.h ****         sr_        = sample_rate;
  45:../../DaisySP/Source/Synthesis/oscillator.h ****         sr_recip_  = 1.0f / sample_rate;
  46:../../DaisySP/Source/Synthesis/oscillator.h ****         freq_      = 100.0f;
  47:../../DaisySP/Source/Synthesis/oscillator.h ****         amp_       = 0.5f;
  48:../../DaisySP/Source/Synthesis/oscillator.h ****         phase_     = 0.0f;
  49:../../DaisySP/Source/Synthesis/oscillator.h ****         phase_inc_ = CalcPhaseInc(freq_);
  50:../../DaisySP/Source/Synthesis/oscillator.h ****         waveform_  = WAVE_SIN;
  51:../../DaisySP/Source/Synthesis/oscillator.h ****         eoc_       = true;
  52:../../DaisySP/Source/Synthesis/oscillator.h ****         eor_       = true;
  53:../../DaisySP/Source/Synthesis/oscillator.h ****     }
  54:../../DaisySP/Source/Synthesis/oscillator.h **** 
  55:../../DaisySP/Source/Synthesis/oscillator.h **** 
  56:../../DaisySP/Source/Synthesis/oscillator.h ****     /** Changes the frequency of the Oscillator, and recalculates phase increment.
  57:../../DaisySP/Source/Synthesis/oscillator.h ****     */
  58:../../DaisySP/Source/Synthesis/oscillator.h ****     inline void SetFreq(const float f)
  59:../../DaisySP/Source/Synthesis/oscillator.h ****     {
  60:../../DaisySP/Source/Synthesis/oscillator.h ****         freq_      = f;
  61:../../DaisySP/Source/Synthesis/oscillator.h ****         phase_inc_ = CalcPhaseInc(f);
ARM GAS  C:\Users\VINCIU~1\AppData\Local\Temp\cc6F1pHH.s 			page 27


  62:../../DaisySP/Source/Synthesis/oscillator.h ****     }
  63:../../DaisySP/Source/Synthesis/oscillator.h **** 
  64:../../DaisySP/Source/Synthesis/oscillator.h **** 
  65:../../DaisySP/Source/Synthesis/oscillator.h ****     /** Sets the amplitude of the waveform.
  66:../../DaisySP/Source/Synthesis/oscillator.h ****     */
  67:../../DaisySP/Source/Synthesis/oscillator.h ****     inline void SetAmp(const float a) { amp_ = a; }
 418              		.loc 16 67 17 is_stmt 1 discriminator 2 view .LVU66
 419              	.LBB319:
 420              		.loc 16 67 41 discriminator 2 view .LVU67
 421              	.LBE319:
 422              	.LBE318:
  86:SynthMenis.cpp ****         osc_out    = osc[0].Process() + osc[1].Process();
 423              		.loc 13 86 39 is_stmt 0 discriminator 2 view .LVU68
 424 0048 B8EEE77B 		vcvt.f64.s32	d7, s15
  85:SynthMenis.cpp ****         osc[1].SetAmp((env_out * 0.5) * synthmenu.synthOn2);
 425              		.loc 13 85 39 discriminator 2 view .LVU69
 426 004c 26EE006B 		vmul.f64	d6, d6, d0
  86:SynthMenis.cpp ****         osc_out    = osc[0].Process() + osc[1].Process();
 427              		.loc 13 86 39 discriminator 2 view .LVU70
 428 0050 27EE000B 		vmul.f64	d0, d7, d0
 429              	.LVL20:
  85:SynthMenis.cpp ****         osc[1].SetAmp((env_out * 0.5) * synthmenu.synthOn2);
 430              		.loc 13 85 22 discriminator 2 view .LVU71
 431 0054 B7EEC66B 		vcvt.f32.f64	s12, d6
 432              	.LVL21:
  86:SynthMenis.cpp ****         osc_out    = osc[0].Process() + osc[1].Process();
 433              		.loc 13 86 22 discriminator 2 view .LVU72
 434 0058 B7EEC00B 		vcvt.f32.f64	s0, d0
  85:SynthMenis.cpp ****         osc[1].SetAmp((env_out * 0.5) * synthmenu.synthOn2);
 435              		.loc 13 85 22 discriminator 2 view .LVU73
 436 005c 86ED016A 		vstr.32	s12, [r6, #4]
 437              	.LVL22:
  86:SynthMenis.cpp ****         osc_out    = osc[0].Process() + osc[1].Process();
 438              		.loc 13 86 9 is_stmt 1 discriminator 2 view .LVU74
 439              	.LBB320:
 440              	.LBI320:
 441              		.loc 16 67 17 discriminator 2 view .LVU75
 442              	.LBB321:
 443              		.loc 16 67 41 discriminator 2 view .LVU76
 444              	.LBE321:
 445              	.LBE320:
  86:SynthMenis.cpp ****         osc_out    = osc[0].Process() + osc[1].Process();
 446              		.loc 13 86 22 is_stmt 0 discriminator 2 view .LVU77
 447 0060 86ED0B0A 		vstr.32	s0, [r6, #44]
 448              	.LVL23:
 449              		.loc 13 87 9 is_stmt 1 discriminator 2 view .LVU78
 450              		.loc 13 87 36 is_stmt 0 discriminator 2 view .LVU79
 451 0064 FFF7FEFF 		bl	_ZN7daisysp10Oscillator7ProcessEv
 452              	.LVL24:
 453 0068 B0EE408A 		vmov.f32	s16, s0
 454              		.loc 13 87 55 discriminator 2 view .LVU80
 455 006c 0D48     		ldr	r0, .L23+8
 456 006e FFF7FEFF 		bl	_ZN7daisysp10Oscillator7ProcessEv
 457              	.LVL25:
  88:SynthMenis.cpp ****         osc1Freq   = line.Process(&finished);
 458              		.loc 13 88 34 discriminator 2 view .LVU81
 459 0072 0D49     		ldr	r1, .L23+12
ARM GAS  C:\Users\VINCIU~1\AppData\Local\Temp\cc6F1pHH.s 			page 28


 460 0074 0D48     		ldr	r0, .L23+16
  87:SynthMenis.cpp ****         osc1Freq   = line.Process(&finished);
 461              		.loc 13 87 20 discriminator 2 view .LVU82
 462 0076 38EE008A 		vadd.f32	s16, s16, s0
 463              	.LVL26:
 464              		.loc 13 88 9 is_stmt 1 discriminator 2 view .LVU83
 465              		.loc 13 88 34 is_stmt 0 discriminator 2 view .LVU84
 466 007a FFF7FEFF 		bl	_ZN7daisysp4Line7ProcessEPh
 467              	.LVL27:
  81:SynthMenis.cpp ****     {
 468              		.loc 13 81 25 discriminator 2 view .LVU85
 469 007e AF42     		cmp	r7, r5
 470              		.loc 13 88 20 discriminator 2 view .LVU86
 471 0080 88ED000A 		vstr.32	s0, [r8]
  89:SynthMenis.cpp ****         out[i]     = osc_out;
 472              		.loc 13 89 9 is_stmt 1 discriminator 2 view .LVU87
  81:SynthMenis.cpp ****     {
 473              		.loc 13 81 25 is_stmt 0 discriminator 2 view .LVU88
 474 0084 05F10105 		add	r5, r5, #1
 475              	.LVL28:
 476              		.loc 13 89 20 discriminator 2 view .LVU89
 477 0088 04ED028A 		vstr.32	s16, [r4, #-8]
  90:SynthMenis.cpp ****         out[i + 1] = osc_out;
 478              		.loc 13 90 9 is_stmt 1 discriminator 2 view .LVU90
 479              		.loc 13 90 20 is_stmt 0 discriminator 2 view .LVU91
 480 008c 04ED018A 		vstr.32	s16, [r4, #-4]
  81:SynthMenis.cpp ****     {
 481              		.loc 13 81 5 is_stmt 1 discriminator 2 view .LVU92
 482              	.LVL29:
  81:SynthMenis.cpp ****     {
 483              		.loc 13 81 25 discriminator 2 view .LVU93
 484 0090 C7D1     		bne	.L14
 485              	.LBE323:
  91:SynthMenis.cpp ****     }
  92:SynthMenis.cpp **** }
 486              		.loc 13 92 1 is_stmt 0 view .LVU94
 487 0092 BDEC028B 		vldm	sp!, {d8}
 488              		.cfi_restore 80
 489              		.cfi_restore 81
 490              		.cfi_def_cfa_offset 32
 491              	.LVL30:
 492              		.loc 13 92 1 view .LVU95
 493 0096 BDE8F087 		pop	{r4, r5, r6, r7, r8, r9, r10, pc}
 494              	.LVL31:
 495              	.L20:
 496              		.cfi_def_cfa_offset 0
 497              		.cfi_restore 4
 498              		.cfi_restore 5
 499              		.cfi_restore 6
 500              		.cfi_restore 7
 501              		.cfi_restore 8
 502              		.cfi_restore 9
 503              		.cfi_restore 10
 504              		.cfi_restore 14
 505              		.loc 13 92 1 view .LVU96
 506 009a 7047     		bx	lr
 507              	.L24:
ARM GAS  C:\Users\VINCIU~1\AppData\Local\Temp\cc6F1pHH.s 			page 29


 508              		.align	2
 509              	.L23:
 510 009c 00000000 		.word	.LANCHOR2
 511 00a0 00000000 		.word	.LANCHOR1
 512 00a4 28000000 		.word	.LANCHOR2+40
 513 00a8 00000000 		.word	.LANCHOR4
 514 00ac 00000000 		.word	.LANCHOR5
 515 00b0 00000000 		.word	.LANCHOR0
 516 00b4 00000000 		.word	.LANCHOR3
 517 00b8 00000000 		.word	.LANCHOR6
 518              		.cfi_endproc
 519              	.LFE4038:
 521              		.section	.text._ZN23OledDisplayExtravaganzaD0Ev,"axG",%progbits,_ZN23OledDisplayExtravaganzaD5Ev,c
 522              		.align	1
 523              		.p2align 2,,3
 524              		.weak	_ZN23OledDisplayExtravaganzaD0Ev
 525              		.syntax unified
 526              		.thumb
 527              		.thumb_func
 528              		.fpu fpv5-d16
 530              	_ZN23OledDisplayExtravaganzaD0Ev:
 531              	.LVL32:
 532              	.LFB4629:
 533              		.loc 9 9 7 is_stmt 1 view -0
 534              		.cfi_startproc
 535              		@ args = 0, pretend = 0, frame = 0
 536              		@ frame_needed = 0, uses_anonymous_args = 0
 537              		.loc 9 9 7 is_stmt 0 view .LVU98
 538 0000 10B5     		push	{r4, lr}
 539              		.cfi_def_cfa_offset 8
 540              		.cfi_offset 4, -8
 541              		.cfi_offset 14, -4
 542              		.loc 9 9 7 view .LVU99
 543 0002 0446     		mov	r4, r0
 544              	.LVL33:
 545              	.LBB324:
 546              	.LBI324:
 547              		.loc 9 9 7 is_stmt 1 view .LVU100
 548              	.LBB325:
 549              	.LBI325:
  17:../../libdaisy/src/hid/disp/oled_display.h **** 
 550              		.loc 8 17 13 view .LVU101
 551              	.LBB326:
 552              	.LBI326:
 553              		.loc 10 179 13 view .LVU102
 554              	.LBB327:
 555              	.LBI327:
  22:../../libdaisy/src/hid/disp/display.h **** 
 556              		.loc 10 22 13 view .LVU103
  22:../../libdaisy/src/hid/disp/display.h **** 
 557              		.loc 10 22 13 is_stmt 0 view .LVU104
 558              	.LBE327:
 559              	.LBE326:
 560              	.LBE325:
 561              	.LBE324:
 562              		.loc 9 9 7 view .LVU105
 563 0004 40F21441 		movw	r1, #1044
ARM GAS  C:\Users\VINCIU~1\AppData\Local\Temp\cc6F1pHH.s 			page 30


 564 0008 FFF7FEFF 		bl	_ZdlPvj
 565              	.LVL34:
 566              		.loc 9 9 7 view .LVU106
 567 000c 2046     		mov	r0, r4
 568 000e 10BD     		pop	{r4, pc}
 569              		.loc 9 9 7 view .LVU107
 570              		.cfi_endproc
 571              	.LFE4629:
 573              		.section	.text._ZN5daisy11OledDisplayINS_13SSD130xDriverILj128ELj64ENS_24SSD130x4WireSpiTransportE
 574              		.align	1
 575              		.p2align 2,,3
 576              		.weak	_ZN5daisy11OledDisplayINS_13SSD130xDriverILj128ELj64ENS_24SSD130x4WireSpiTransportEEEE6Updat
 577              		.syntax unified
 578              		.thumb
 579              		.thumb_func
 580              		.fpu fpv5-d16
 582              	_ZN5daisy11OledDisplayINS_13SSD130xDriverILj128ELj64ENS_24SSD130x4WireSpiTransportEEEE6UpdateEv:
 583              	.LVL35:
 584              	.LFB4642:
  34:../../libdaisy/src/hid/disp/oled_display.h **** 
  35:../../libdaisy/src/hid/disp/oled_display.h ****     /**
  36:../../libdaisy/src/hid/disp/oled_display.h ****     Sets the pixel at the specified coordinate to be on/off.
  37:../../libdaisy/src/hid/disp/oled_display.h ****     \param x   x Coordinate
  38:../../libdaisy/src/hid/disp/oled_display.h ****     \param y   y coordinate
  39:../../libdaisy/src/hid/disp/oled_display.h ****     \param on  on or off
  40:../../libdaisy/src/hid/disp/oled_display.h ****     */
  41:../../libdaisy/src/hid/disp/oled_display.h ****     void DrawPixel(uint_fast8_t x, uint_fast8_t y, bool on) override
  42:../../libdaisy/src/hid/disp/oled_display.h ****     {
  43:../../libdaisy/src/hid/disp/oled_display.h ****         driver_.DrawPixel(x, y, on);
  44:../../libdaisy/src/hid/disp/oled_display.h ****     }
  45:../../libdaisy/src/hid/disp/oled_display.h **** 
  46:../../libdaisy/src/hid/disp/oled_display.h ****     /** 
  47:../../libdaisy/src/hid/disp/oled_display.h ****     Writes the current display buffer to the OLED device using SPI or I2C depending on 
  48:../../libdaisy/src/hid/disp/oled_display.h ****     how the object was initialized.
  49:../../libdaisy/src/hid/disp/oled_display.h ****     */
  50:../../libdaisy/src/hid/disp/oled_display.h ****     void Update() override { driver_.Update(); }
 585              		.loc 8 50 10 is_stmt 1 view -0
 586              		.cfi_startproc
 587              		@ args = 0, pretend = 0, frame = 8
 588              		@ frame_needed = 0, uses_anonymous_args = 0
 589              	.LBB338:
 590              	.LBI338:
 254:../../libdaisy/src/dev/oled_ssd130x.h ****         }
 255:../../libdaisy/src/dev/oled_ssd130x.h ****     };
 256:../../libdaisy/src/dev/oled_ssd130x.h **** 
 257:../../libdaisy/src/dev/oled_ssd130x.h ****     /**
 258:../../libdaisy/src/dev/oled_ssd130x.h ****      * Update the display 
 259:../../libdaisy/src/dev/oled_ssd130x.h ****     */
 260:../../libdaisy/src/dev/oled_ssd130x.h ****     void Update()
 591              		.loc 14 260 10 view .LVU109
 592              	.LBB339:
 261:../../libdaisy/src/dev/oled_ssd130x.h ****     {
 262:../../libdaisy/src/dev/oled_ssd130x.h ****         uint8_t i;
 263:../../libdaisy/src/dev/oled_ssd130x.h ****         uint8_t high_column_addr;
 264:../../libdaisy/src/dev/oled_ssd130x.h ****         switch(height)
 265:../../libdaisy/src/dev/oled_ssd130x.h ****         {
 266:../../libdaisy/src/dev/oled_ssd130x.h ****             case 32: high_column_addr = 0x12; break;
ARM GAS  C:\Users\VINCIU~1\AppData\Local\Temp\cc6F1pHH.s 			page 31


 267:../../libdaisy/src/dev/oled_ssd130x.h **** 
 268:../../libdaisy/src/dev/oled_ssd130x.h ****             default: high_column_addr = 0x10; break;
 269:../../libdaisy/src/dev/oled_ssd130x.h ****         }
 270:../../libdaisy/src/dev/oled_ssd130x.h ****         for(i = 0; i < (height / 8); i++)
 593              		.loc 14 270 22 view .LVU110
 594              	.LBE339:
 595              	.LBE338:
 596              		.loc 8 50 10 is_stmt 0 view .LVU111
 597 0000 2DE9F041 		push	{r4, r5, r6, r7, r8, lr}
 598              		.cfi_def_cfa_offset 24
 599              		.cfi_offset 4, -24
 600              		.cfi_offset 5, -20
 601              		.cfi_offset 6, -16
 602              		.cfi_offset 7, -12
 603              		.cfi_offset 8, -8
 604              		.cfi_offset 14, -4
 605              	.LBB361:
 606              	.LBB359:
 607              	.LBB340:
 608              	.LBB341:
 112:../../libdaisy/src/dev/oled_ssd130x.h ****     };
 609              		.loc 14 112 30 view .LVU112
 610 0004 B024     		movs	r4, #176
 611              	.LBE341:
 612              	.LBE340:
 613              	.LBE359:
 614              	.LBE361:
 615              		.loc 8 50 10 view .LVU113
 616 0006 82B0     		sub	sp, sp, #8
 617              		.cfi_def_cfa_offset 32
 618              	.LBB362:
 619              	.LBB360:
 620              	.LBB346:
 621              	.LBB342:
 111:../../libdaisy/src/dev/oled_ssd130x.h ****         spi_.BlockingTransmit(&cmd, 1);
 622              		.loc 14 111 24 view .LVU114
 623 0008 00F10806 		add	r6, r0, #8
 624 000c 00F11005 		add	r5, r0, #16
 625 0010 00F11408 		add	r8, r0, #20
 626              	.LVL36:
 627              	.L28:
 111:../../libdaisy/src/dev/oled_ssd130x.h ****         spi_.BlockingTransmit(&cmd, 1);
 628              		.loc 14 111 24 view .LVU115
 629 0014 0027     		movs	r7, #0
 111:../../libdaisy/src/dev/oled_ssd130x.h ****         spi_.BlockingTransmit(&cmd, 1);
 630              		.loc 14 111 23 view .LVU116
 631 0016 2846     		mov	r0, r5
 632 0018 8DF80740 		strb	r4, [sp, #7]
 633              	.LVL37:
 111:../../libdaisy/src/dev/oled_ssd130x.h ****         spi_.BlockingTransmit(&cmd, 1);
 634              		.loc 14 111 23 view .LVU117
 635              	.LBE342:
 636              	.LBI340:
 109:../../libdaisy/src/dev/oled_ssd130x.h ****     {
 637              		.loc 14 109 10 is_stmt 1 view .LVU118
 638              	.LBB343:
 111:../../libdaisy/src/dev/oled_ssd130x.h ****         spi_.BlockingTransmit(&cmd, 1);
ARM GAS  C:\Users\VINCIU~1\AppData\Local\Temp\cc6F1pHH.s 			page 32


 639              		.loc 14 111 9 view .LVU119
 640              	.LBE343:
 641              	.LBE346:
 642              		.loc 14 270 22 is_stmt 0 view .LVU120
 643 001c 0134     		adds	r4, r4, #1
 644              	.LVL38:
 645              	.LBB347:
 646              	.LBB344:
 111:../../libdaisy/src/dev/oled_ssd130x.h ****         spi_.BlockingTransmit(&cmd, 1);
 647              		.loc 14 111 23 view .LVU121
 648 001e 3946     		mov	r1, r7
 649 0020 FFF7FEFF 		bl	dsy_gpio_write
 650              	.LVL39:
 112:../../libdaisy/src/dev/oled_ssd130x.h ****     };
 651              		.loc 14 112 9 is_stmt 1 view .LVU122
 112:../../libdaisy/src/dev/oled_ssd130x.h ****     };
 652              		.loc 14 112 30 is_stmt 0 view .LVU123
 653 0024 6423     		movs	r3, #100
 654 0026 0122     		movs	r2, #1
 655 0028 0DF10701 		add	r1, sp, #7
 656 002c 3046     		mov	r0, r6
 657              	.LBE344:
 658              	.LBE347:
 659              		.loc 14 270 22 view .LVU124
 660 002e E4B2     		uxtb	r4, r4
 661              	.LBB348:
 662              	.LBB345:
 112:../../libdaisy/src/dev/oled_ssd130x.h ****     };
 663              		.loc 14 112 30 view .LVU125
 664 0030 FFF7FEFF 		bl	_ZN5daisy9SpiHandle16BlockingTransmitEPhjm
 665              	.LVL40:
 112:../../libdaisy/src/dev/oled_ssd130x.h ****     };
 666              		.loc 14 112 30 view .LVU126
 667              	.LBE345:
 668              	.LBE348:
 669              	.LBB349:
 670              	.LBB350:
 111:../../libdaisy/src/dev/oled_ssd130x.h ****         spi_.BlockingTransmit(&cmd, 1);
 671              		.loc 14 111 23 view .LVU127
 672 0034 3946     		mov	r1, r7
 673 0036 2846     		mov	r0, r5
 674 0038 8DF80770 		strb	r7, [sp, #7]
 675              	.LVL41:
 111:../../libdaisy/src/dev/oled_ssd130x.h ****         spi_.BlockingTransmit(&cmd, 1);
 676              		.loc 14 111 23 view .LVU128
 677              	.LBE350:
 678              	.LBI349:
 109:../../libdaisy/src/dev/oled_ssd130x.h ****     {
 679              		.loc 14 109 10 is_stmt 1 view .LVU129
 680              	.LBB351:
 111:../../libdaisy/src/dev/oled_ssd130x.h ****         spi_.BlockingTransmit(&cmd, 1);
 681              		.loc 14 111 9 view .LVU130
 111:../../libdaisy/src/dev/oled_ssd130x.h ****         spi_.BlockingTransmit(&cmd, 1);
 682              		.loc 14 111 23 is_stmt 0 view .LVU131
 683 003c FFF7FEFF 		bl	dsy_gpio_write
 684              	.LVL42:
 112:../../libdaisy/src/dev/oled_ssd130x.h ****     };
ARM GAS  C:\Users\VINCIU~1\AppData\Local\Temp\cc6F1pHH.s 			page 33


 685              		.loc 14 112 9 is_stmt 1 view .LVU132
 112:../../libdaisy/src/dev/oled_ssd130x.h ****     };
 686              		.loc 14 112 30 is_stmt 0 view .LVU133
 687 0040 0122     		movs	r2, #1
 688 0042 6423     		movs	r3, #100
 689 0044 0DF10701 		add	r1, sp, #7
 690 0048 3046     		mov	r0, r6
 691 004a FFF7FEFF 		bl	_ZN5daisy9SpiHandle16BlockingTransmitEPhjm
 692              	.LVL43:
 112:../../libdaisy/src/dev/oled_ssd130x.h ****     };
 693              		.loc 14 112 30 view .LVU134
 694 004e 1023     		movs	r3, #16
 695              	.LBE351:
 696              	.LBE349:
 697              	.LBB352:
 698              	.LBB353:
 111:../../libdaisy/src/dev/oled_ssd130x.h ****         spi_.BlockingTransmit(&cmd, 1);
 699              		.loc 14 111 23 view .LVU135
 700 0050 3946     		mov	r1, r7
 701 0052 2846     		mov	r0, r5
 702 0054 8DF80730 		strb	r3, [sp, #7]
 703              	.LVL44:
 111:../../libdaisy/src/dev/oled_ssd130x.h ****         spi_.BlockingTransmit(&cmd, 1);
 704              		.loc 14 111 23 view .LVU136
 705              	.LBE353:
 706              	.LBI352:
 109:../../libdaisy/src/dev/oled_ssd130x.h ****     {
 707              		.loc 14 109 10 is_stmt 1 view .LVU137
 708              	.LBB354:
 111:../../libdaisy/src/dev/oled_ssd130x.h ****         spi_.BlockingTransmit(&cmd, 1);
 709              		.loc 14 111 9 view .LVU138
 111:../../libdaisy/src/dev/oled_ssd130x.h ****         spi_.BlockingTransmit(&cmd, 1);
 710              		.loc 14 111 23 is_stmt 0 view .LVU139
 711 0058 FFF7FEFF 		bl	dsy_gpio_write
 712              	.LVL45:
 112:../../libdaisy/src/dev/oled_ssd130x.h ****     };
 713              		.loc 14 112 9 is_stmt 1 view .LVU140
 112:../../libdaisy/src/dev/oled_ssd130x.h ****     };
 714              		.loc 14 112 30 is_stmt 0 view .LVU141
 715 005c 6423     		movs	r3, #100
 716 005e 0122     		movs	r2, #1
 717 0060 0DF10701 		add	r1, sp, #7
 718 0064 3046     		mov	r0, r6
 719 0066 FFF7FEFF 		bl	_ZN5daisy9SpiHandle16BlockingTransmitEPhjm
 720              	.LVL46:
 112:../../libdaisy/src/dev/oled_ssd130x.h ****     };
 721              		.loc 14 112 30 view .LVU142
 722              	.LBE354:
 723              	.LBE352:
 724              	.LBB355:
 725              	.LBI355:
 115:../../libdaisy/src/dev/oled_ssd130x.h ****     {
 726              		.loc 14 115 10 is_stmt 1 view .LVU143
 727              	.LBB356:
 117:../../libdaisy/src/dev/oled_ssd130x.h ****         spi_.BlockingTransmit(buff, size);
 728              		.loc 14 117 9 view .LVU144
 117:../../libdaisy/src/dev/oled_ssd130x.h ****         spi_.BlockingTransmit(buff, size);
ARM GAS  C:\Users\VINCIU~1\AppData\Local\Temp\cc6F1pHH.s 			page 34


 729              		.loc 14 117 23 is_stmt 0 view .LVU145
 730 006a 0121     		movs	r1, #1
 731 006c 2846     		mov	r0, r5
 732 006e FFF7FEFF 		bl	dsy_gpio_write
 733              	.LVL47:
 118:../../libdaisy/src/dev/oled_ssd130x.h ****     };
 734              		.loc 14 118 9 is_stmt 1 view .LVU146
 118:../../libdaisy/src/dev/oled_ssd130x.h ****     };
 735              		.loc 14 118 30 is_stmt 0 view .LVU147
 736 0072 8022     		movs	r2, #128
 737 0074 4146     		mov	r1, r8
 738 0076 6423     		movs	r3, #100
 739 0078 3046     		mov	r0, r6
 740              	.LBE356:
 741              	.LBE355:
 742              		.loc 14 270 22 view .LVU148
 743 007a 9044     		add	r8, r8, r2
 744              	.LVL48:
 745              	.LBB358:
 746              	.LBB357:
 118:../../libdaisy/src/dev/oled_ssd130x.h ****     };
 747              		.loc 14 118 30 view .LVU149
 748 007c FFF7FEFF 		bl	_ZN5daisy9SpiHandle16BlockingTransmitEPhjm
 749              	.LVL49:
 118:../../libdaisy/src/dev/oled_ssd130x.h ****     };
 750              		.loc 14 118 30 view .LVU150
 751              	.LBE357:
 752              	.LBE358:
 753              		.loc 14 270 9 is_stmt 1 view .LVU151
 754              		.loc 14 270 22 view .LVU152
 755 0080 B82C     		cmp	r4, #184
 756 0082 C7D1     		bne	.L28
 757              	.LBE360:
 758              	.LBE362:
 759              		.loc 8 50 48 is_stmt 0 view .LVU153
 760 0084 02B0     		add	sp, sp, #8
 761              		.cfi_def_cfa_offset 24
 762              		@ sp needed
 763 0086 BDE8F081 		pop	{r4, r5, r6, r7, r8, pc}
 764              		.loc 8 50 48 view .LVU154
 765              		.cfi_endproc
 766              	.LFE4642:
 768 008a 00BF     		.section	.text._ZN5daisy25OneBitGraphicsDisplayImplINS_11OledDisplayINS_13SSD130xDriverILj128ELj64
 769              		.align	1
 770              		.p2align 2,,3
 771              		.weak	_ZN5daisy25OneBitGraphicsDisplayImplINS_11OledDisplayINS_13SSD130xDriverILj128ELj64ENS_24SSD
 772              		.syntax unified
 773              		.thumb
 774              		.thumb_func
 775              		.fpu fpv5-d16
 777              	_ZN5daisy25OneBitGraphicsDisplayImplINS_11OledDisplayINS_13SSD130xDriverILj128ELj64ENS_24SSD130x4Wi
 778              	.LVL50:
 779              	.LFB4640:
 180:../../libdaisy/src/hid/disp/display.h **** 
 181:../../libdaisy/src/hid/disp/display.h ****     void DrawLine(uint_fast8_t x1,
 182:../../libdaisy/src/hid/disp/display.h ****                   uint_fast8_t y1,
 183:../../libdaisy/src/hid/disp/display.h ****                   uint_fast8_t x2,
ARM GAS  C:\Users\VINCIU~1\AppData\Local\Temp\cc6F1pHH.s 			page 35


 184:../../libdaisy/src/hid/disp/display.h ****                   uint_fast8_t y2,
 185:../../libdaisy/src/hid/disp/display.h ****                   bool         on) override
 186:../../libdaisy/src/hid/disp/display.h ****     {
 187:../../libdaisy/src/hid/disp/display.h ****         int_fast16_t deltaX = abs((int_fast16_t)x2 - (int_fast16_t)x1);
 188:../../libdaisy/src/hid/disp/display.h ****         int_fast16_t deltaY = abs((int_fast16_t)y2 - (int_fast16_t)y1);
 189:../../libdaisy/src/hid/disp/display.h ****         int_fast16_t signX  = ((x1 < x2) ? 1 : -1);
 190:../../libdaisy/src/hid/disp/display.h ****         int_fast16_t signY  = ((y1 < y2) ? 1 : -1);
 191:../../libdaisy/src/hid/disp/display.h ****         int_fast16_t error  = deltaX - deltaY;
 192:../../libdaisy/src/hid/disp/display.h ****         int_fast16_t error2;
 193:../../libdaisy/src/hid/disp/display.h **** 
 194:../../libdaisy/src/hid/disp/display.h ****         // If we write "ChildType::DrawPixel(x2, y2, on);", we end up with
 195:../../libdaisy/src/hid/disp/display.h ****         // all sorts of weird compiler errors when the Child class is a template
 196:../../libdaisy/src/hid/disp/display.h ****         // class. The only way around this is to use this very verbose syntax:
 197:../../libdaisy/src/hid/disp/display.h ****         ((ChildType*)(this))->ChildType::DrawPixel(x2, y2, on);
 198:../../libdaisy/src/hid/disp/display.h **** 
 199:../../libdaisy/src/hid/disp/display.h ****         while((x1 != x2) || (y1 != y2))
 200:../../libdaisy/src/hid/disp/display.h ****         {
 201:../../libdaisy/src/hid/disp/display.h ****             ((ChildType*)(this))->ChildType::DrawPixel(x1, y1, on);
 202:../../libdaisy/src/hid/disp/display.h ****             error2 = error * 2;
 203:../../libdaisy/src/hid/disp/display.h ****             if(error2 > -deltaY)
 204:../../libdaisy/src/hid/disp/display.h ****             {
 205:../../libdaisy/src/hid/disp/display.h ****                 error -= deltaY;
 206:../../libdaisy/src/hid/disp/display.h ****                 x1 += signX;
 207:../../libdaisy/src/hid/disp/display.h ****             }
 208:../../libdaisy/src/hid/disp/display.h **** 
 209:../../libdaisy/src/hid/disp/display.h ****             if(error2 < deltaX)
 210:../../libdaisy/src/hid/disp/display.h ****             {
 211:../../libdaisy/src/hid/disp/display.h ****                 error += deltaX;
 212:../../libdaisy/src/hid/disp/display.h ****                 y1 += signY;
 213:../../libdaisy/src/hid/disp/display.h ****             }
 214:../../libdaisy/src/hid/disp/display.h ****         }
 215:../../libdaisy/src/hid/disp/display.h ****     }
 216:../../libdaisy/src/hid/disp/display.h **** 
 217:../../libdaisy/src/hid/disp/display.h ****     void DrawRect(uint_fast8_t x1,
 218:../../libdaisy/src/hid/disp/display.h ****                   uint_fast8_t y1,
 219:../../libdaisy/src/hid/disp/display.h ****                   uint_fast8_t x2,
 220:../../libdaisy/src/hid/disp/display.h ****                   uint_fast8_t y2,
 221:../../libdaisy/src/hid/disp/display.h ****                   bool         on,
 222:../../libdaisy/src/hid/disp/display.h ****                   bool         fill = false) override
 223:../../libdaisy/src/hid/disp/display.h ****     {
 224:../../libdaisy/src/hid/disp/display.h ****         if(fill)
 225:../../libdaisy/src/hid/disp/display.h ****         {
 226:../../libdaisy/src/hid/disp/display.h ****             for(uint_fast8_t x = x1; x <= x2; x++)
 227:../../libdaisy/src/hid/disp/display.h ****             {
 228:../../libdaisy/src/hid/disp/display.h ****                 for(uint_fast8_t y = y1; y <= y2; y++)
 229:../../libdaisy/src/hid/disp/display.h ****                 {
 230:../../libdaisy/src/hid/disp/display.h ****                     ((ChildType*)(this))->ChildType::DrawPixel(x, y, on);
 231:../../libdaisy/src/hid/disp/display.h ****                 }
 232:../../libdaisy/src/hid/disp/display.h ****             }
 233:../../libdaisy/src/hid/disp/display.h ****         }
 234:../../libdaisy/src/hid/disp/display.h ****         else
 235:../../libdaisy/src/hid/disp/display.h ****         {
 236:../../libdaisy/src/hid/disp/display.h ****             ((ChildType*)(this))->ChildType::DrawLine(x1, y1, x2, y1, on);
 237:../../libdaisy/src/hid/disp/display.h ****             ((ChildType*)(this))->ChildType::DrawLine(x2, y1, x2, y2, on);
 238:../../libdaisy/src/hid/disp/display.h ****             ((ChildType*)(this))->ChildType::DrawLine(x2, y2, x1, y2, on);
 239:../../libdaisy/src/hid/disp/display.h ****             ((ChildType*)(this))->ChildType::DrawLine(x1, y2, x1, y1, on);
 240:../../libdaisy/src/hid/disp/display.h ****         }
ARM GAS  C:\Users\VINCIU~1\AppData\Local\Temp\cc6F1pHH.s 			page 36


 241:../../libdaisy/src/hid/disp/display.h ****     }
 242:../../libdaisy/src/hid/disp/display.h **** 
 243:../../libdaisy/src/hid/disp/display.h ****     void DrawArc(uint_fast8_t x,
 244:../../libdaisy/src/hid/disp/display.h ****                  uint_fast8_t y,
 245:../../libdaisy/src/hid/disp/display.h ****                  uint_fast8_t radius,
 246:../../libdaisy/src/hid/disp/display.h ****                  int_fast16_t start_angle,
 247:../../libdaisy/src/hid/disp/display.h ****                  int_fast16_t sweep,
 248:../../libdaisy/src/hid/disp/display.h ****                  bool         on) override
 249:../../libdaisy/src/hid/disp/display.h ****     {
 250:../../libdaisy/src/hid/disp/display.h ****         // Values to calculate the circle
 251:../../libdaisy/src/hid/disp/display.h ****         int_fast16_t t_x, t_y, err, e2;
 252:../../libdaisy/src/hid/disp/display.h **** 
 253:../../libdaisy/src/hid/disp/display.h ****         // Temporary values to speed up comparisons
 254:../../libdaisy/src/hid/disp/display.h ****         float t_sxy, t_syx, t_sxny, t_synx;
 255:../../libdaisy/src/hid/disp/display.h ****         float t_exy, t_eyx, t_exny, t_eynx;
 256:../../libdaisy/src/hid/disp/display.h **** 
 257:../../libdaisy/src/hid/disp/display.h ****         float start_angle_rad, end_angle_rad;
 258:../../libdaisy/src/hid/disp/display.h ****         float start_x, start_y, end_x, end_y;
 259:../../libdaisy/src/hid/disp/display.h **** 
 260:../../libdaisy/src/hid/disp/display.h ****         bool d1, d2, d3, d4;
 261:../../libdaisy/src/hid/disp/display.h **** 
 262:../../libdaisy/src/hid/disp/display.h ****         d1 = d2 = d3 = d4 = true;
 263:../../libdaisy/src/hid/disp/display.h **** 
 264:../../libdaisy/src/hid/disp/display.h ****         bool circle = false;
 265:../../libdaisy/src/hid/disp/display.h **** 
 266:../../libdaisy/src/hid/disp/display.h ****         if(sweep < 0)
 267:../../libdaisy/src/hid/disp/display.h ****         {
 268:../../libdaisy/src/hid/disp/display.h ****             start_angle += sweep;
 269:../../libdaisy/src/hid/disp/display.h ****             sweep = -sweep;
 270:../../libdaisy/src/hid/disp/display.h ****         }
 271:../../libdaisy/src/hid/disp/display.h **** 
 272:../../libdaisy/src/hid/disp/display.h ****         start_angle_rad = deg2rad(start_angle);
 273:../../libdaisy/src/hid/disp/display.h ****         end_angle_rad   = deg2rad(start_angle + sweep);
 274:../../libdaisy/src/hid/disp/display.h **** 
 275:../../libdaisy/src/hid/disp/display.h ****         start_x = cos(start_angle_rad) * radius;
 276:../../libdaisy/src/hid/disp/display.h ****         start_y = -sin(start_angle_rad) * radius;
 277:../../libdaisy/src/hid/disp/display.h ****         end_x   = cos(end_angle_rad) * radius;
 278:../../libdaisy/src/hid/disp/display.h ****         end_y   = -sin(end_angle_rad) * radius;
 279:../../libdaisy/src/hid/disp/display.h **** 
 280:../../libdaisy/src/hid/disp/display.h ****         // Check if start and endpoint are very near
 281:../../libdaisy/src/hid/disp/display.h ****         if((end_x - start_x) * (end_x - start_x)
 282:../../libdaisy/src/hid/disp/display.h ****                + (end_y - start_y) * (end_y - start_y)
 283:../../libdaisy/src/hid/disp/display.h ****            < 2.0f)
 284:../../libdaisy/src/hid/disp/display.h ****         {
 285:../../libdaisy/src/hid/disp/display.h ****             if(sweep > 180)
 286:../../libdaisy/src/hid/disp/display.h ****                 circle = true;
 287:../../libdaisy/src/hid/disp/display.h ****             else
 288:../../libdaisy/src/hid/disp/display.h ****                 // Nothing to draw
 289:../../libdaisy/src/hid/disp/display.h ****                 return;
 290:../../libdaisy/src/hid/disp/display.h ****         }
 291:../../libdaisy/src/hid/disp/display.h **** 
 292:../../libdaisy/src/hid/disp/display.h ****         t_x = -radius;
 293:../../libdaisy/src/hid/disp/display.h ****         t_y = 0;
 294:../../libdaisy/src/hid/disp/display.h ****         err = 2 - 2 * radius;
 295:../../libdaisy/src/hid/disp/display.h **** 
 296:../../libdaisy/src/hid/disp/display.h ****         do
 297:../../libdaisy/src/hid/disp/display.h ****         {
ARM GAS  C:\Users\VINCIU~1\AppData\Local\Temp\cc6F1pHH.s 			page 37


 298:../../libdaisy/src/hid/disp/display.h ****             if(!circle)
 299:../../libdaisy/src/hid/disp/display.h ****             {
 300:../../libdaisy/src/hid/disp/display.h ****                 t_sxy  = start_x * t_y;
 301:../../libdaisy/src/hid/disp/display.h ****                 t_syx  = start_y * t_x;
 302:../../libdaisy/src/hid/disp/display.h ****                 t_sxny = start_x * -t_y;
 303:../../libdaisy/src/hid/disp/display.h ****                 t_synx = start_y * -t_x;
 304:../../libdaisy/src/hid/disp/display.h ****                 t_exy  = end_x * t_y;
 305:../../libdaisy/src/hid/disp/display.h ****                 t_eyx  = end_y * t_x;
 306:../../libdaisy/src/hid/disp/display.h ****                 t_exny = end_x * -t_y;
 307:../../libdaisy/src/hid/disp/display.h ****                 t_eynx = end_y * -t_x;
 308:../../libdaisy/src/hid/disp/display.h **** 
 309:../../libdaisy/src/hid/disp/display.h ****                 if(sweep > 180)
 310:../../libdaisy/src/hid/disp/display.h ****                 {
 311:../../libdaisy/src/hid/disp/display.h ****                     d1 = (t_sxy - t_synx < 0 || t_exy - t_eynx > 0);
 312:../../libdaisy/src/hid/disp/display.h ****                     d2 = (t_sxy - t_syx < 0 || t_exy - t_eyx > 0);
 313:../../libdaisy/src/hid/disp/display.h ****                     d3 = (t_sxny - t_syx < 0 || t_exny - t_eyx > 0);
 314:../../libdaisy/src/hid/disp/display.h ****                     d4 = (t_sxny - t_synx < 0 || t_exny - t_eynx > 0);
 315:../../libdaisy/src/hid/disp/display.h ****                 }
 316:../../libdaisy/src/hid/disp/display.h ****                 else
 317:../../libdaisy/src/hid/disp/display.h ****                 {
 318:../../libdaisy/src/hid/disp/display.h ****                     d1 = (t_sxy - t_synx < 0 && t_exy - t_eynx > 0);
 319:../../libdaisy/src/hid/disp/display.h ****                     d2 = (t_sxy - t_syx < 0 && t_exy - t_eyx > 0);
 320:../../libdaisy/src/hid/disp/display.h ****                     d3 = (t_sxny - t_syx < 0 && t_exny - t_eyx > 0);
 321:../../libdaisy/src/hid/disp/display.h ****                     d4 = (t_sxny - t_synx < 0 && t_exny - t_eynx > 0);
 322:../../libdaisy/src/hid/disp/display.h ****                 }
 323:../../libdaisy/src/hid/disp/display.h ****             }
 324:../../libdaisy/src/hid/disp/display.h **** 
 325:../../libdaisy/src/hid/disp/display.h ****             if(d1)
 326:../../libdaisy/src/hid/disp/display.h ****                 ((ChildType*)(this))
 327:../../libdaisy/src/hid/disp/display.h ****                     ->ChildType::DrawPixel(x - t_x, y + t_y, on);
 328:../../libdaisy/src/hid/disp/display.h ****             if(d2)
 329:../../libdaisy/src/hid/disp/display.h ****                 ((ChildType*)(this))
 330:../../libdaisy/src/hid/disp/display.h ****                     ->ChildType::DrawPixel(x + t_x, y + t_y, on);
 331:../../libdaisy/src/hid/disp/display.h ****             if(d3)
 332:../../libdaisy/src/hid/disp/display.h ****                 ((ChildType*)(this))
 333:../../libdaisy/src/hid/disp/display.h ****                     ->ChildType::DrawPixel(x + t_x, y - t_y, on);
 334:../../libdaisy/src/hid/disp/display.h ****             if(d4)
 335:../../libdaisy/src/hid/disp/display.h ****                 ((ChildType*)(this))
 336:../../libdaisy/src/hid/disp/display.h ****                     ->ChildType::DrawPixel(x - t_x, y - t_y, on);
 337:../../libdaisy/src/hid/disp/display.h **** 
 338:../../libdaisy/src/hid/disp/display.h ****             e2 = err;
 339:../../libdaisy/src/hid/disp/display.h ****             if(e2 <= t_y)
 340:../../libdaisy/src/hid/disp/display.h ****             {
 341:../../libdaisy/src/hid/disp/display.h ****                 t_y++;
 342:../../libdaisy/src/hid/disp/display.h ****                 err = err + (t_y * 2 + 1);
 343:../../libdaisy/src/hid/disp/display.h ****                 if(-t_x == t_y && e2 <= t_x)
 344:../../libdaisy/src/hid/disp/display.h ****                 {
 345:../../libdaisy/src/hid/disp/display.h ****                     e2 = 0;
 346:../../libdaisy/src/hid/disp/display.h ****                 }
 347:../../libdaisy/src/hid/disp/display.h ****             }
 348:../../libdaisy/src/hid/disp/display.h ****             if(e2 > t_x)
 349:../../libdaisy/src/hid/disp/display.h ****             {
 350:../../libdaisy/src/hid/disp/display.h ****                 t_x++;
 351:../../libdaisy/src/hid/disp/display.h ****                 err = err + (t_x * 2 + 1);
 352:../../libdaisy/src/hid/disp/display.h ****             }
 353:../../libdaisy/src/hid/disp/display.h ****         } while(t_x <= 0);
 354:../../libdaisy/src/hid/disp/display.h ****     }
ARM GAS  C:\Users\VINCIU~1\AppData\Local\Temp\cc6F1pHH.s 			page 38


 355:../../libdaisy/src/hid/disp/display.h **** 
 356:../../libdaisy/src/hid/disp/display.h ****     char WriteChar(char ch, FontDef font, bool on) override
 780              		.loc 10 356 10 is_stmt 1 view -0
 781              		.cfi_startproc
 782              		@ args = 4, pretend = 0, frame = 16
 783              		@ frame_needed = 0, uses_anonymous_args = 0
 784              		.loc 10 356 10 is_stmt 0 view .LVU156
 785 0000 2DE9F04F 		push	{r4, r5, r6, r7, r8, r9, r10, fp, lr}
 786              		.cfi_def_cfa_offset 36
 787              		.cfi_offset 4, -36
 788              		.cfi_offset 5, -32
 789              		.cfi_offset 6, -28
 790              		.cfi_offset 7, -24
 791              		.cfi_offset 8, -20
 792              		.cfi_offset 9, -16
 793              		.cfi_offset 10, -12
 794              		.cfi_offset 11, -8
 795              		.cfi_offset 14, -4
 796 0004 85B0     		sub	sp, sp, #20
 797              		.cfi_def_cfa_offset 56
 798              	.LVL51:
 357:../../libdaisy/src/hid/disp/display.h ****     {
 358:../../libdaisy/src/hid/disp/display.h ****         uint32_t i, b, j;
 359:../../libdaisy/src/hid/disp/display.h **** 
 360:../../libdaisy/src/hid/disp/display.h ****         // Check if character is valid
 361:../../libdaisy/src/hid/disp/display.h ****         if(ch < 32 || ch > 126)
 799              		.loc 10 361 20 view .LVU157
 800 0006 A1F12005 		sub	r5, r1, #32
 356:../../libdaisy/src/hid/disp/display.h ****     {
 801              		.loc 10 356 10 view .LVU158
 802 000a 04AC     		add	r4, sp, #16
 803 000c 9DF83870 		ldrb	r7, [sp, #56]	@ zero_extendqisi2
 804 0010 0091     		str	r1, [sp]
 805 0012 04E90C00 		stmdb	r4, {r2, r3}
 806              	.LVL52:
 807              		.loc 10 361 9 view .LVU159
 808 0016 EBB2     		uxtb	r3, r5
 809 0018 5E2B     		cmp	r3, #94
 810 001a 00F29580 		bhi	.L35
 362:../../libdaisy/src/hid/disp/display.h ****             return 0;
 363:../../libdaisy/src/hid/disp/display.h **** 
 364:../../libdaisy/src/hid/disp/display.h ****         // Check remaining space on current line
 365:../../libdaisy/src/hid/disp/display.h ****         if(Width() < (currentX_ + font.FontWidth)
 811              		.loc 10 365 17 view .LVU160
 812 001e 0368     		ldr	r3, [r0]
 813 0020 8046     		mov	r8, r0
 814 0022 5D4A     		ldr	r2, .L70
 815 0024 DB68     		ldr	r3, [r3, #12]
 816 0026 9DF80840 		ldrb	r4, [sp, #8]	@ zero_extendqisi2
 817 002a 9342     		cmp	r3, r2
 818 002c 9DF80960 		ldrb	r6, [sp, #9]	@ zero_extendqisi2
 819 0030 40F09480 		bne	.L62
 820 0034 8020     		movs	r0, #128
 821              	.LVL53:
 822              	.L34:
 823              		.loc 10 365 23 view .LVU161
 824 0036 B8F80430 		ldrh	r3, [r8, #4]
ARM GAS  C:\Users\VINCIU~1\AppData\Local\Temp\cc6F1pHH.s 			page 39


 825              		.loc 10 365 33 view .LVU162
 826 003a 2344     		add	r3, r3, r4
 366:../../libdaisy/src/hid/disp/display.h ****            || Height() < (currentY_ + font.FontHeight))
 827              		.loc 10 366 12 view .LVU163
 828 003c 8342     		cmp	r3, r0
 829 003e 00F38380 		bgt	.L35
 830              		.loc 10 366 21 discriminator 2 view .LVU164
 831 0042 D8F80030 		ldr	r3, [r8]
 832 0046 554A     		ldr	r2, .L70+4
 833 0048 9B68     		ldr	r3, [r3, #8]
 834 004a 9342     		cmp	r3, r2
 835 004c 40F08880 		bne	.L63
 836              		.loc 10 366 21 view .LVU165
 837 0050 4020     		movs	r0, #64
 838              	.L36:
 839              		.loc 10 366 27 discriminator 2 view .LVU166
 840 0052 B8F80620 		ldrh	r2, [r8, #6]
 841              		.loc 10 366 37 discriminator 2 view .LVU167
 842 0056 9319     		adds	r3, r2, r6
 843              		.loc 10 366 27 discriminator 2 view .LVU168
 844 0058 0192     		str	r2, [sp, #4]
 845              		.loc 10 366 12 discriminator 2 view .LVU169
 846 005a 8342     		cmp	r3, r0
 847 005c 74DC     		bgt	.L35
 848              	.LVL54:
 367:../../libdaisy/src/hid/disp/display.h ****         {
 368:../../libdaisy/src/hid/disp/display.h ****             // Not enough space on current line
 369:../../libdaisy/src/hid/disp/display.h ****             return 0;
 370:../../libdaisy/src/hid/disp/display.h ****         }
 371:../../libdaisy/src/hid/disp/display.h **** 
 372:../../libdaisy/src/hid/disp/display.h ****         // Use the font to write
 373:../../libdaisy/src/hid/disp/display.h ****         for(i = 0; i < font.FontHeight; i++)
 849              		.loc 10 373 22 is_stmt 1 view .LVU170
 850 005e 002E     		cmp	r6, #0
 851 0060 00F08980 		beq	.L37
 374:../../libdaisy/src/hid/disp/display.h ****         {
 375:../../libdaisy/src/hid/disp/display.h ****             b = font.data[(ch - 32) * font.FontHeight + i];
 852              		.loc 10 375 37 is_stmt 0 view .LVU171
 853 0064 06FB05F5 		mul	r5, r6, r5
 854 0068 6FF00040 		mvn	r0, #-2147483648
 855              		.loc 10 375 22 view .LVU172
 856 006c 039B     		ldr	r3, [sp, #12]
 857 006e 9646     		mov	lr, r2
 858 0070 2844     		add	r0, r0, r5
 859 0072 2E44     		add	r6, r6, r5
 376:../../libdaisy/src/hid/disp/display.h ****             for(j = 0; j < font.FontWidth; j++)
 377:../../libdaisy/src/hid/disp/display.h ****             {
 378:../../libdaisy/src/hid/disp/display.h ****                 if((b << j) & 0x8000)
 379:../../libdaisy/src/hid/disp/display.h ****                 {
 380:../../libdaisy/src/hid/disp/display.h ****                     ((ChildType*)(this))
 381:../../libdaisy/src/hid/disp/display.h ****                         ->ChildType::DrawPixel(
 382:../../libdaisy/src/hid/disp/display.h ****                             currentX_ + j, (currentY_ + i), on);
 383:../../libdaisy/src/hid/disp/display.h ****                 }
 384:../../libdaisy/src/hid/disp/display.h ****                 else
 385:../../libdaisy/src/hid/disp/display.h ****                 {
 386:../../libdaisy/src/hid/disp/display.h ****                     ((ChildType*)(this))
 387:../../libdaisy/src/hid/disp/display.h ****                         ->ChildType::DrawPixel(
ARM GAS  C:\Users\VINCIU~1\AppData\Local\Temp\cc6F1pHH.s 			page 40


 388:../../libdaisy/src/hid/disp/display.h ****                             currentX_ + j, (currentY_ + i), !on);
 389:../../libdaisy/src/hid/disp/display.h ****                 }
 390:../../libdaisy/src/hid/disp/display.h ****             }
 391:../../libdaisy/src/hid/disp/display.h ****         }
 392:../../libdaisy/src/hid/disp/display.h **** 
 393:../../libdaisy/src/hid/disp/display.h ****         // The current space is now taken
 394:../../libdaisy/src/hid/disp/display.h ****         SetCursor(currentX_ + font.FontWidth, currentY_);
 860              		.loc 10 394 19 view .LVU173
 861 0074 B8F804A0 		ldrh	r10, [r8, #4]
 862 0078 03EB4000 		add	r0, r3, r0, lsl #1
 863 007c 023B     		subs	r3, r3, #2
 864 007e 03EB460B 		add	fp, r3, r6, lsl #1
 865              	.LVL55:
 866              	.L40:
 375:../../libdaisy/src/hid/disp/display.h ****             for(j = 0; j < font.FontWidth; j++)
 867              		.loc 10 375 15 view .LVU174
 868 0082 30F8026F 		ldrh	r6, [r0, #2]!
 869              	.LVL56:
 376:../../libdaisy/src/hid/disp/display.h ****             for(j = 0; j < font.FontWidth; j++)
 870              		.loc 10 376 26 is_stmt 1 view .LVU175
 871 0086 BCB3     		cbz	r4, .L45
 872              	.LBB389:
 873              	.LBB390:
 874              	.LBB391:
 875              	.LBB392:
 876              	.LBB393:
 246:../../libdaisy/src/dev/oled_ssd130x.h ****     }
 877              		.loc 14 246 55 is_stmt 0 view .LVU176
 878 0088 0EF00703 		and	r3, lr, #7
 246:../../libdaisy/src/dev/oled_ssd130x.h ****     }
 879              		.loc 14 246 49 view .LVU177
 880 008c 4FF0010C 		mov	ip, #1
 246:../../libdaisy/src/dev/oled_ssd130x.h ****     }
 881              		.loc 14 246 28 view .LVU178
 882 0090 4FEADE02 		lsr	r2, lr, #3
 883 0094 5146     		mov	r1, r10
 246:../../libdaisy/src/dev/oled_ssd130x.h ****     }
 884              		.loc 14 246 49 view .LVU179
 885 0096 0CFA03FC 		lsl	ip, ip, r3
 886 009a 0AF11403 		add	r3, r10, #20
 246:../../libdaisy/src/dev/oled_ssd130x.h ****     }
 887              		.loc 14 246 42 view .LVU180
 888 009e 4FFA8CFC 		sxtb	ip, ip
 889 00a2 03EBC212 		add	r2, r3, r2, lsl #7
 890              	.LBE393:
 891              	.LBE392:
 892              	.LBE391:
 893              	.LBE390:
 894              	.LBE389:
 376:../../libdaisy/src/hid/disp/display.h ****             for(j = 0; j < font.FontWidth; j++)
 895              		.loc 10 376 19 view .LVU181
 896 00a6 0023     		movs	r3, #0
 897              	.LBB411:
 898              	.LBB406:
 899              	.LBB401:
 900              	.LBB397:
 901              	.LBB394:
ARM GAS  C:\Users\VINCIU~1\AppData\Local\Temp\cc6F1pHH.s 			page 41


 246:../../libdaisy/src/dev/oled_ssd130x.h ****     }
 902              		.loc 14 246 42 view .LVU182
 903 00a8 6FEA0C09 		mvn	r9, ip
 904 00ac 4244     		add	r2, r2, r8
 905 00ae 0EE0     		b	.L46
 906              	.LVL57:
 907              	.L64:
 246:../../libdaisy/src/dev/oled_ssd130x.h ****     }
 908              		.loc 14 246 42 view .LVU183
 909              	.LBE394:
 910              	.LBE397:
 911              	.LBE401:
 912              	.LBE406:
 913              	.LBE411:
 914              	.LBB412:
 915              	.LBI412:
  41:../../libdaisy/src/hid/disp/oled_display.h ****     {
 916              		.loc 8 41 10 is_stmt 1 view .LVU184
 917              	.LBB413:
 918              	.LBI413:
 239:../../libdaisy/src/dev/oled_ssd130x.h ****     {
 919              		.loc 14 239 10 view .LVU185
 920              	.LBB414:
 241:../../libdaisy/src/dev/oled_ssd130x.h ****             return;
 921              		.loc 14 241 9 is_stmt 0 view .LVU186
 922 00b0 7F29     		cmp	r1, #127
 923 00b2 07D8     		bhi	.L42
 924 00b4 BEF13F0F 		cmp	lr, #63
 925 00b8 04D8     		bhi	.L42
 244:../../libdaisy/src/dev/oled_ssd130x.h ****         else
 926              		.loc 14 244 42 view .LVU187
 927 00ba 1578     		ldrb	r5, [r2]	@ zero_extendqisi2
 243:../../libdaisy/src/dev/oled_ssd130x.h ****             buffer_[x + (y / 8) * width] |= (1 << (y % 8));
 928              		.loc 14 243 9 view .LVU188
 929 00bc 9FB1     		cbz	r7, .L44
 930              	.L61:
 243:../../libdaisy/src/dev/oled_ssd130x.h ****             buffer_[x + (y / 8) * width] |= (1 << (y % 8));
 931              		.loc 14 243 9 view .LVU189
 932              	.LBE414:
 933              	.LBE413:
 934              	.LBE412:
 935              	.LBB415:
 936              	.LBB407:
 937              	.LBB402:
 244:../../libdaisy/src/dev/oled_ssd130x.h ****         else
 938              		.loc 14 244 42 view .LVU190
 939 00be 4CEA0505 		orr	r5, ip, r5
 940 00c2 1570     		strb	r5, [r2]
 941              	.L42:
 942              	.LBE402:
 943              	.LBE407:
 944              	.LBE415:
 376:../../libdaisy/src/hid/disp/display.h ****             {
 945              		.loc 10 376 13 is_stmt 1 discriminator 2 view .LVU191
 946 00c4 0133     		adds	r3, r3, #1
 947              	.LVL58:
 376:../../libdaisy/src/hid/disp/display.h ****             {
ARM GAS  C:\Users\VINCIU~1\AppData\Local\Temp\cc6F1pHH.s 			page 42


 948              		.loc 10 376 26 discriminator 2 view .LVU192
 949 00c6 0132     		adds	r2, r2, #1
 950 00c8 0131     		adds	r1, r1, #1
 951 00ca 9C42     		cmp	r4, r3
 952 00cc 14D0     		beq	.L45
 953              	.LVL59:
 954              	.L46:
 378:../../libdaisy/src/hid/disp/display.h ****                 {
 955              		.loc 10 378 23 is_stmt 0 view .LVU193
 956 00ce 06FA03F5 		lsl	r5, r6, r3
 378:../../libdaisy/src/hid/disp/display.h ****                 {
 957              		.loc 10 378 17 view .LVU194
 958 00d2 2D04     		lsls	r5, r5, #16
 959 00d4 ECD4     		bmi	.L64
 960              	.LVL60:
 961              	.LBB416:
 962              	.LBI389:
  41:../../libdaisy/src/hid/disp/oled_display.h ****     {
 963              		.loc 8 41 10 is_stmt 1 view .LVU195
 964              	.LBB408:
 965              	.LBI390:
 239:../../libdaisy/src/dev/oled_ssd130x.h ****     {
 966              		.loc 14 239 10 view .LVU196
 967              	.LBB403:
 241:../../libdaisy/src/dev/oled_ssd130x.h ****             return;
 968              		.loc 14 241 9 is_stmt 0 view .LVU197
 969 00d6 7F29     		cmp	r1, #127
 970 00d8 F4D8     		bhi	.L42
 971 00da BEF13F0F 		cmp	lr, #63
 972 00de F1D8     		bhi	.L42
 244:../../libdaisy/src/dev/oled_ssd130x.h ****         else
 973              		.loc 14 244 42 view .LVU198
 974 00e0 1578     		ldrb	r5, [r2]	@ zero_extendqisi2
 243:../../libdaisy/src/dev/oled_ssd130x.h ****             buffer_[x + (y / 8) * width] |= (1 << (y % 8));
 975              		.loc 14 243 9 view .LVU199
 976 00e2 002F     		cmp	r7, #0
 977 00e4 EBD0     		beq	.L61
 978              	.L44:
 979              	.LVL61:
 980              	.LBB398:
 981              	.LBI392:
 239:../../libdaisy/src/dev/oled_ssd130x.h ****     {
 982              		.loc 14 239 10 is_stmt 1 view .LVU200
 239:../../libdaisy/src/dev/oled_ssd130x.h ****     {
 983              		.loc 14 239 10 is_stmt 0 view .LVU201
 984              	.LBE398:
 985              	.LBE403:
 986              	.LBE408:
 987              	.LBE416:
 376:../../libdaisy/src/hid/disp/display.h ****             {
 988              		.loc 10 376 13 view .LVU202
 989 00e6 0133     		adds	r3, r3, #1
 990              	.LVL62:
 991              	.LBB417:
 992              	.LBB409:
 993              	.LBB404:
 994              	.LBB399:
ARM GAS  C:\Users\VINCIU~1\AppData\Local\Temp\cc6F1pHH.s 			page 43


 995              	.LBB395:
 246:../../libdaisy/src/dev/oled_ssd130x.h ****     }
 996              		.loc 14 246 42 view .LVU203
 997 00e8 09EA0505 		and	r5, r9, r5
 998              	.LBE395:
 999              	.LBE399:
 1000              	.LBE404:
 1001              	.LBE409:
 1002              	.LBE417:
 376:../../libdaisy/src/hid/disp/display.h ****             {
 1003              		.loc 10 376 26 view .LVU204
 1004 00ec 0132     		adds	r2, r2, #1
 1005 00ee 0131     		adds	r1, r1, #1
 1006 00f0 9C42     		cmp	r4, r3
 1007              	.LBB418:
 1008              	.LBB410:
 1009              	.LBB405:
 1010              	.LBB400:
 1011              	.LBB396:
 246:../../libdaisy/src/dev/oled_ssd130x.h ****     }
 1012              		.loc 14 246 42 view .LVU205
 1013 00f2 02F8015C 		strb	r5, [r2, #-1]
 246:../../libdaisy/src/dev/oled_ssd130x.h ****     }
 1014              		.loc 14 246 42 view .LVU206
 1015              	.LBE396:
 1016              	.LBE400:
 1017              	.LBE405:
 1018              	.LBE410:
 1019              	.LBE418:
 376:../../libdaisy/src/hid/disp/display.h ****             {
 1020              		.loc 10 376 13 is_stmt 1 view .LVU207
 1021              	.LVL63:
 376:../../libdaisy/src/hid/disp/display.h ****             {
 1022              		.loc 10 376 26 view .LVU208
 1023 00f6 EAD1     		bne	.L46
 1024              	.LVL64:
 1025              	.L45:
 373:../../libdaisy/src/hid/disp/display.h ****         {
 1026              		.loc 10 373 9 view .LVU209
 373:../../libdaisy/src/hid/disp/display.h ****         {
 1027              		.loc 10 373 22 view .LVU210
 1028 00f8 5845     		cmp	r0, fp
 1029 00fa 0EF1010E 		add	lr, lr, #1
 1030 00fe C0D1     		bne	.L40
 1031              	.LVL65:
 1032              	.L39:
 1033              	.LBB419:
 1034              	.LBB420:
 133:../../libdaisy/src/hid/disp/display.h ****         currentY_ = (y >= Height()) ? Height() - 1 : y;
 1035              		.loc 10 133 33 is_stmt 0 view .LVU211
 1036 0100 D8F80030 		ldr	r3, [r8]
 1037              	.LBE420:
 1038              	.LBE419:
 1039              		.loc 10 394 18 view .LVU212
 1040 0104 5444     		add	r4, r4, r10
 1041 0106 2449     		ldr	r1, .L70
 1042              	.LBB426:
ARM GAS  C:\Users\VINCIU~1\AppData\Local\Temp\cc6F1pHH.s 			page 44


 1043              	.LBB421:
 133:../../libdaisy/src/hid/disp/display.h ****         currentY_ = (y >= Height()) ? Height() - 1 : y;
 1044              		.loc 10 133 33 view .LVU213
 1045 0108 DA68     		ldr	r2, [r3, #12]
 1046              	.LBE421:
 1047              	.LBE426:
 1048              		.loc 10 394 18 view .LVU214
 1049 010a A4B2     		uxth	r4, r4
 1050              	.LVL66:
 1051              	.LBB427:
 1052              	.LBI419:
 131:../../libdaisy/src/hid/disp/display.h ****     {
 1053              		.loc 10 131 10 is_stmt 1 view .LVU215
 1054              	.LBB422:
 133:../../libdaisy/src/hid/disp/display.h ****         currentY_ = (y >= Height()) ? Height() - 1 : y;
 1055              		.loc 10 133 9 view .LVU216
 1056 010c 8A42     		cmp	r2, r1
 1057 010e 2DD1     		bne	.L65
 133:../../libdaisy/src/hid/disp/display.h ****         currentY_ = (y >= Height()) ? Height() - 1 : y;
 1058              		.loc 10 133 33 is_stmt 0 view .LVU217
 1059 0110 8020     		movs	r0, #128
 1060              	.L47:
 133:../../libdaisy/src/hid/disp/display.h ****         currentY_ = (y >= Height()) ? Height() - 1 : y;
 1061              		.loc 10 133 19 view .LVU218
 1062 0112 8442     		cmp	r4, r0
 1063 0114 1CD2     		bcs	.L66
 1064              	.LVL67:
 1065              	.L48:
 134:../../libdaisy/src/hid/disp/display.h ****     }
 1066              		.loc 10 134 34 view .LVU219
 1067 0116 9B68     		ldr	r3, [r3, #8]
 1068 0118 204A     		ldr	r2, .L70+4
 133:../../libdaisy/src/hid/disp/display.h ****         currentY_ = (y >= Height()) ? Height() - 1 : y;
 1069              		.loc 10 133 19 view .LVU220
 1070 011a A8F80440 		strh	r4, [r8, #4]	@ movhi
 134:../../libdaisy/src/hid/disp/display.h ****     }
 1071              		.loc 10 134 9 is_stmt 1 view .LVU221
 1072 011e 9342     		cmp	r3, r2
 1073 0120 21D1     		bne	.L67
 134:../../libdaisy/src/hid/disp/display.h ****     }
 1074              		.loc 10 134 34 is_stmt 0 view .LVU222
 1075 0122 4020     		movs	r0, #64
 1076              	.L50:
 134:../../libdaisy/src/hid/disp/display.h ****     }
 1077              		.loc 10 134 19 view .LVU223
 1078 0124 019B     		ldr	r3, [sp, #4]
 1079 0126 8342     		cmp	r3, r0
 1080 0128 07D3     		bcc	.L51
 134:../../libdaisy/src/hid/disp/display.h ****     }
 1081              		.loc 10 134 46 view .LVU224
 1082 012a D8F80030 		ldr	r3, [r8]
 1083 012e 1B4A     		ldr	r2, .L70+4
 1084 0130 9B68     		ldr	r3, [r3, #8]
 1085 0132 9342     		cmp	r3, r2
 1086 0134 29D1     		bne	.L68
 1087 0136 3F23     		movs	r3, #63
 1088 0138 0193     		str	r3, [sp, #4]
ARM GAS  C:\Users\VINCIU~1\AppData\Local\Temp\cc6F1pHH.s 			page 45


 1089              	.LVL68:
 1090              	.L51:
 134:../../libdaisy/src/hid/disp/display.h ****     }
 1091              		.loc 10 134 19 view .LVU225
 1092 013a DDE90003 		ldrd	r0, r3, [sp]
 1093 013e A8F80630 		strh	r3, [r8, #6]	@ movhi
 1094              	.LVL69:
 134:../../libdaisy/src/hid/disp/display.h ****     }
 1095              		.loc 10 134 19 view .LVU226
 1096              	.LBE422:
 1097              	.LBE427:
 395:../../libdaisy/src/hid/disp/display.h **** 
 396:../../libdaisy/src/hid/disp/display.h ****         // Return written char for validation
 397:../../libdaisy/src/hid/disp/display.h ****         return ch;
 398:../../libdaisy/src/hid/disp/display.h ****     }
 1098              		.loc 10 398 5 view .LVU227
 1099 0142 05B0     		add	sp, sp, #20
 1100              		.cfi_remember_state
 1101              		.cfi_def_cfa_offset 36
 1102              		@ sp needed
 1103 0144 BDE8F08F 		pop	{r4, r5, r6, r7, r8, r9, r10, fp, pc}
 1104              	.LVL70:
 1105              	.L35:
 1106              		.cfi_restore_state
 362:../../libdaisy/src/hid/disp/display.h **** 
 1107              		.loc 10 362 20 view .LVU228
 1108 0148 0020     		movs	r0, #0
 1109              		.loc 10 398 5 view .LVU229
 1110 014a 05B0     		add	sp, sp, #20
 1111              		.cfi_remember_state
 1112              		.cfi_def_cfa_offset 36
 1113              		@ sp needed
 1114 014c BDE8F08F 		pop	{r4, r5, r6, r7, r8, r9, r10, fp, pc}
 1115              	.LVL71:
 1116              	.L66:
 1117              		.cfi_restore_state
 1118              	.LBB428:
 1119              	.LBB423:
 133:../../libdaisy/src/hid/disp/display.h ****         currentY_ = (y >= Height()) ? Height() - 1 : y;
 1120              		.loc 10 133 44 view .LVU230
 1121 0150 DA68     		ldr	r2, [r3, #12]
 1122 0152 1149     		ldr	r1, .L70
 1123 0154 8A42     		cmp	r2, r1
 1124 0156 11D1     		bne	.L69
 1125 0158 7F24     		movs	r4, #127
 1126              	.LVL72:
 133:../../libdaisy/src/hid/disp/display.h ****         currentY_ = (y >= Height()) ? Height() - 1 : y;
 1127              		.loc 10 133 44 view .LVU231
 1128 015a DCE7     		b	.L48
 1129              	.LVL73:
 1130              	.L62:
 133:../../libdaisy/src/hid/disp/display.h ****         currentY_ = (y >= Height()) ? Height() - 1 : y;
 1131              		.loc 10 133 44 view .LVU232
 1132              	.LBE423:
 1133              	.LBE428:
 365:../../libdaisy/src/hid/disp/display.h ****            || Height() < (currentY_ + font.FontHeight))
 1134              		.loc 10 365 17 view .LVU233
ARM GAS  C:\Users\VINCIU~1\AppData\Local\Temp\cc6F1pHH.s 			page 46


 1135 015c 9847     		blx	r3
 1136              	.LVL74:
 365:../../libdaisy/src/hid/disp/display.h ****            || Height() < (currentY_ + font.FontHeight))
 1137              		.loc 10 365 17 view .LVU234
 1138 015e 6AE7     		b	.L34
 1139              	.L63:
 366:../../libdaisy/src/hid/disp/display.h ****         {
 1140              		.loc 10 366 21 discriminator 2 view .LVU235
 1141 0160 4046     		mov	r0, r8
 1142 0162 9847     		blx	r3
 1143              	.LVL75:
 1144 0164 75E7     		b	.L36
 1145              	.LVL76:
 1146              	.L67:
 1147              	.LBB429:
 1148              	.LBB424:
 134:../../libdaisy/src/hid/disp/display.h ****     }
 1149              		.loc 10 134 33 view .LVU236
 1150 0166 4046     		mov	r0, r8
 1151 0168 9847     		blx	r3
 1152              	.LVL77:
 1153 016a DBE7     		b	.L50
 1154              	.LVL78:
 1155              	.L65:
 133:../../libdaisy/src/hid/disp/display.h ****         currentY_ = (y >= Height()) ? Height() - 1 : y;
 1156              		.loc 10 133 32 view .LVU237
 1157 016c 4046     		mov	r0, r8
 1158 016e 9047     		blx	r2
 1159              	.LVL79:
 133:../../libdaisy/src/hid/disp/display.h ****         currentY_ = (y >= Height()) ? Height() - 1 : y;
 1160              		.loc 10 133 44 view .LVU238
 1161 0170 D8F80030 		ldr	r3, [r8]
 1162 0174 CDE7     		b	.L47
 1163              	.LVL80:
 1164              	.L37:
 133:../../libdaisy/src/hid/disp/display.h ****         currentY_ = (y >= Height()) ? Height() - 1 : y;
 1165              		.loc 10 133 44 view .LVU239
 1166              	.LBE424:
 1167              	.LBE429:
 394:../../libdaisy/src/hid/disp/display.h **** 
 1168              		.loc 10 394 19 view .LVU240
 1169 0176 B8F804A0 		ldrh	r10, [r8, #4]
 1170 017a C1E7     		b	.L39
 1171              	.LVL81:
 1172              	.L69:
 1173              	.LBB430:
 1174              	.LBB425:
 133:../../libdaisy/src/hid/disp/display.h ****         currentY_ = (y >= Height()) ? Height() - 1 : y;
 1175              		.loc 10 133 43 view .LVU241
 1176 017c 4046     		mov	r0, r8
 1177 017e 9047     		blx	r2
 1178              	.LVL82:
 133:../../libdaisy/src/hid/disp/display.h ****         currentY_ = (y >= Height()) ? Height() - 1 : y;
 1179              		.loc 10 133 19 view .LVU242
 1180 0180 0138     		subs	r0, r0, #1
 134:../../libdaisy/src/hid/disp/display.h ****     }
 1181              		.loc 10 134 34 view .LVU243
ARM GAS  C:\Users\VINCIU~1\AppData\Local\Temp\cc6F1pHH.s 			page 47


 1182 0182 D8F80030 		ldr	r3, [r8]
 133:../../libdaisy/src/hid/disp/display.h ****         currentY_ = (y >= Height()) ? Height() - 1 : y;
 1183              		.loc 10 133 19 view .LVU244
 1184 0186 84B2     		uxth	r4, r0
 1185              	.LVL83:
 133:../../libdaisy/src/hid/disp/display.h ****         currentY_ = (y >= Height()) ? Height() - 1 : y;
 1186              		.loc 10 133 19 view .LVU245
 1187 0188 C5E7     		b	.L48
 1188              	.L68:
 134:../../libdaisy/src/hid/disp/display.h ****     }
 1189              		.loc 10 134 45 view .LVU246
 1190 018a 4046     		mov	r0, r8
 1191 018c 9847     		blx	r3
 1192              	.LVL84:
 134:../../libdaisy/src/hid/disp/display.h ****     }
 1193              		.loc 10 134 19 view .LVU247
 1194 018e 0138     		subs	r0, r0, #1
 1195 0190 83B2     		uxth	r3, r0
 1196 0192 0193     		str	r3, [sp, #4]
 1197              	.LVL85:
 134:../../libdaisy/src/hid/disp/display.h ****     }
 1198              		.loc 10 134 19 view .LVU248
 1199 0194 D1E7     		b	.L51
 1200              	.L71:
 1201 0196 00BF     		.align	2
 1202              	.L70:
 1203 0198 00000000 		.word	_ZNK5daisy11OledDisplayINS_13SSD130xDriverILj128ELj64ENS_24SSD130x4WireSpiTransportEEEE5Widt
 1204 019c 00000000 		.word	_ZNK5daisy11OledDisplayINS_13SSD130xDriverILj128ELj64ENS_24SSD130x4WireSpiTransportEEEE6Heig
 1205              	.LBE425:
 1206              	.LBE430:
 1207              		.cfi_endproc
 1208              	.LFE4640:
 1210              		.section	.text._ZN5daisy25OneBitGraphicsDisplayImplINS_11OledDisplayINS_13SSD130xDriverILj128ELj64
 1211              		.align	1
 1212              		.p2align 2,,3
 1213              		.weak	_ZN5daisy25OneBitGraphicsDisplayImplINS_11OledDisplayINS_13SSD130xDriverILj128ELj64ENS_24SSD
 1214              		.syntax unified
 1215              		.thumb
 1216              		.thumb_func
 1217              		.fpu fpv5-d16
 1219              	_ZN5daisy25OneBitGraphicsDisplayImplINS_11OledDisplayINS_13SSD130xDriverILj128ELj64ENS_24SSD130x4Wi
 1220              	.LVL86:
 1221              	.LFB4641:
 399:../../libdaisy/src/hid/disp/display.h **** 
 400:../../libdaisy/src/hid/disp/display.h ****     char WriteString(const char* str, FontDef font, bool on) override
 1222              		.loc 10 400 10 is_stmt 1 view -0
 1223              		.cfi_startproc
 1224              		@ args = 4, pretend = 0, frame = 8
 1225              		@ frame_needed = 0, uses_anonymous_args = 0
 1226              		.loc 10 400 10 is_stmt 0 view .LVU250
 1227 0000 F0B5     		push	{r4, r5, r6, r7, lr}
 1228              		.cfi_def_cfa_offset 20
 1229              		.cfi_offset 4, -20
 1230              		.cfi_offset 5, -16
 1231              		.cfi_offset 6, -12
 1232              		.cfi_offset 7, -8
 1233              		.cfi_offset 14, -4
ARM GAS  C:\Users\VINCIU~1\AppData\Local\Temp\cc6F1pHH.s 			page 48


 1234 0002 85B0     		sub	sp, sp, #20
 1235              		.cfi_def_cfa_offset 40
 1236              		.loc 10 400 10 view .LVU251
 1237 0004 0C46     		mov	r4, r1
 401:../../libdaisy/src/hid/disp/display.h ****     {
 402:../../libdaisy/src/hid/disp/display.h ****         // Write until null-byte
 403:../../libdaisy/src/hid/disp/display.h ****         while(*str)
 1238              		.loc 10 403 9 is_stmt 1 view .LVU252
 1239 0006 0978     		ldrb	r1, [r1]	@ zero_extendqisi2
 1240              	.LVL87:
 400:../../libdaisy/src/hid/disp/display.h ****     {
 1241              		.loc 10 400 10 is_stmt 0 view .LVU253
 1242 0008 02AD     		add	r5, sp, #8
 1243 000a 9DF82870 		ldrb	r7, [sp, #40]	@ zero_extendqisi2
 1244 000e 85E80C00 		stm	r5, {r2, r3}
 1245              		.loc 10 403 9 view .LVU254
 1246 0012 81B1     		cbz	r1, .L75
 1247 0014 0646     		mov	r6, r0
 1248 0016 02E0     		b	.L76
 1249              	.LVL88:
 1250              	.L82:
 1251              		.loc 10 403 9 view .LVU255
 1252 0018 14F8011F 		ldrb	r1, [r4, #1]!	@ zero_extendqisi2
 1253              	.LVL89:
 1254              		.loc 10 403 9 view .LVU256
 1255 001c 59B1     		cbz	r1, .L75
 1256              	.LVL90:
 1257              	.L76:
 404:../../libdaisy/src/hid/disp/display.h ****         {
 405:../../libdaisy/src/hid/disp/display.h ****             if(((ChildType*)(this))->ChildType::WriteChar(*str, font, on)
 1258              		.loc 10 405 58 view .LVU257
 1259 001e 3046     		mov	r0, r6
 1260 0020 95E80C00 		ldm	r5, {r2, r3}
 1261 0024 0097     		str	r7, [sp]
 1262 0026 FFF7FEFF 		bl	_ZN5daisy25OneBitGraphicsDisplayImplINS_11OledDisplayINS_13SSD130xDriverILj128ELj64ENS_24SSD130
 1263              	.LVL91:
 403:../../libdaisy/src/hid/disp/display.h ****         {
 1264              		.loc 10 403 9 is_stmt 1 view .LVU258
 406:../../libdaisy/src/hid/disp/display.h ****                != *str)
 1265              		.loc 10 406 16 is_stmt 0 view .LVU259
 1266 002a 2378     		ldrb	r3, [r4]	@ zero_extendqisi2
 405:../../libdaisy/src/hid/disp/display.h ****                != *str)
 1267              		.loc 10 405 13 view .LVU260
 1268 002c 9842     		cmp	r0, r3
 1269 002e F3D0     		beq	.L82
 407:../../libdaisy/src/hid/disp/display.h ****             {
 408:../../libdaisy/src/hid/disp/display.h ****                 // Char could not be written
 409:../../libdaisy/src/hid/disp/display.h ****                 return *str;
 410:../../libdaisy/src/hid/disp/display.h ****             }
 411:../../libdaisy/src/hid/disp/display.h **** 
 412:../../libdaisy/src/hid/disp/display.h ****             // Next char
 413:../../libdaisy/src/hid/disp/display.h ****             str++;
 414:../../libdaisy/src/hid/disp/display.h ****         }
 415:../../libdaisy/src/hid/disp/display.h **** 
 416:../../libdaisy/src/hid/disp/display.h ****         // Everything ok
 417:../../libdaisy/src/hid/disp/display.h ****         return *str;
 418:../../libdaisy/src/hid/disp/display.h ****     }
ARM GAS  C:\Users\VINCIU~1\AppData\Local\Temp\cc6F1pHH.s 			page 49


 1270              		.loc 10 418 5 view .LVU261
 1271 0030 1846     		mov	r0, r3
 1272 0032 05B0     		add	sp, sp, #20
 1273              		.cfi_remember_state
 1274              		.cfi_def_cfa_offset 20
 1275              		@ sp needed
 1276 0034 F0BD     		pop	{r4, r5, r6, r7, pc}
 1277              	.LVL92:
 1278              	.L75:
 1279              		.cfi_restore_state
 400:../../libdaisy/src/hid/disp/display.h ****     {
 1280              		.loc 10 400 10 view .LVU262
 1281 0036 0023     		movs	r3, #0
 1282              		.loc 10 418 5 view .LVU263
 1283 0038 1846     		mov	r0, r3
 1284 003a 05B0     		add	sp, sp, #20
 1285              		.cfi_def_cfa_offset 20
 1286              		@ sp needed
 1287 003c F0BD     		pop	{r4, r5, r6, r7, pc}
 1288              		.loc 10 418 5 view .LVU264
 1289              		.cfi_endproc
 1290              	.LFE4641:
 1292 003e 00BF     		.section	.text._ZN5daisy11OledDisplayINS_13SSD130xDriverILj128ELj64ENS_24SSD130x4WireSpiTransportE
 1293              		.align	1
 1294              		.p2align 2,,3
 1295              		.weak	_ZN5daisy11OledDisplayINS_13SSD130xDriverILj128ELj64ENS_24SSD130x4WireSpiTransportEEEE9DrawP
 1296              		.syntax unified
 1297              		.thumb
 1298              		.thumb_func
 1299              		.fpu fpv5-d16
 1301              	_ZN5daisy11OledDisplayINS_13SSD130xDriverILj128ELj64ENS_24SSD130x4WireSpiTransportEEEE9DrawPixelEjj
 1302              	.LVL93:
 1303              	.LFB4636:
  41:../../libdaisy/src/hid/disp/oled_display.h ****     {
 1304              		.loc 8 41 10 is_stmt 1 view -0
 1305              		.cfi_startproc
 1306              		@ args = 0, pretend = 0, frame = 0
 1307              		@ frame_needed = 0, uses_anonymous_args = 0
 1308              		@ link register save eliminated.
 1309              	.LBB435:
 1310              	.LBI435:
 239:../../libdaisy/src/dev/oled_ssd130x.h ****     {
 1311              		.loc 14 239 10 view .LVU266
 1312              	.LBB436:
 241:../../libdaisy/src/dev/oled_ssd130x.h ****             return;
 1313              		.loc 14 241 9 is_stmt 0 view .LVU267
 1314 0000 7F29     		cmp	r1, #127
 1315 0002 1ED8     		bhi	.L83
 1316 0004 3F2A     		cmp	r2, #63
 1317 0006 1CD8     		bhi	.L83
 243:../../libdaisy/src/dev/oled_ssd130x.h ****             buffer_[x + (y / 8) * width] |= (1 << (y % 8));
 1318              		.loc 14 243 9 view .LVU268
 1319 0008 6BB1     		cbz	r3, .L85
 244:../../libdaisy/src/dev/oled_ssd130x.h ****         else
 1320              		.loc 14 244 28 view .LVU269
 1321 000a D308     		lsrs	r3, r2, #3
 1322              	.LVL94:
ARM GAS  C:\Users\VINCIU~1\AppData\Local\Temp\cc6F1pHH.s 			page 50


 244:../../libdaisy/src/dev/oled_ssd130x.h ****         else
 1323              		.loc 14 244 48 view .LVU270
 1324 000c 4FF0010C 		mov	ip, #1
 244:../../libdaisy/src/dev/oled_ssd130x.h ****         else
 1325              		.loc 14 244 54 view .LVU271
 1326 0010 02F00702 		and	r2, r2, #7
 1327              	.LVL95:
 244:../../libdaisy/src/dev/oled_ssd130x.h ****         else
 1328              		.loc 14 244 42 view .LVU272
 1329 0014 01EBC313 		add	r3, r1, r3, lsl #7
 244:../../libdaisy/src/dev/oled_ssd130x.h ****         else
 1330              		.loc 14 244 48 view .LVU273
 1331 0018 0CFA02F2 		lsl	r2, ip, r2
 244:../../libdaisy/src/dev/oled_ssd130x.h ****         else
 1332              		.loc 14 244 42 view .LVU274
 1333 001c C118     		adds	r1, r0, r3
 1334              	.LVL96:
 244:../../libdaisy/src/dev/oled_ssd130x.h ****         else
 1335              		.loc 14 244 42 view .LVU275
 1336 001e 0B7D     		ldrb	r3, [r1, #20]	@ zero_extendqisi2
 1337 0020 1A43     		orrs	r2, r2, r3
 1338 0022 0A75     		strb	r2, [r1, #20]
 1339 0024 7047     		bx	lr
 1340              	.LVL97:
 1341              	.L85:
 1342              	.LBB437:
 1343              	.LBI437:
 239:../../libdaisy/src/dev/oled_ssd130x.h ****     {
 1344              		.loc 14 239 10 is_stmt 1 view .LVU276
 1345              	.LBB438:
 246:../../libdaisy/src/dev/oled_ssd130x.h ****     }
 1346              		.loc 14 246 28 is_stmt 0 view .LVU277
 1347 0026 D308     		lsrs	r3, r2, #3
 1348              	.LVL98:
 246:../../libdaisy/src/dev/oled_ssd130x.h ****     }
 1349              		.loc 14 246 49 view .LVU278
 1350 0028 4FF0010C 		mov	ip, #1
 246:../../libdaisy/src/dev/oled_ssd130x.h ****     }
 1351              		.loc 14 246 55 view .LVU279
 1352 002c 02F00702 		and	r2, r2, #7
 1353              	.LVL99:
 246:../../libdaisy/src/dev/oled_ssd130x.h ****     }
 1354              		.loc 14 246 42 view .LVU280
 1355 0030 01EBC313 		add	r3, r1, r3, lsl #7
 246:../../libdaisy/src/dev/oled_ssd130x.h ****     }
 1356              		.loc 14 246 49 view .LVU281
 1357 0034 0CFA02FC 		lsl	ip, ip, r2
 246:../../libdaisy/src/dev/oled_ssd130x.h ****     }
 1358              		.loc 14 246 42 view .LVU282
 1359 0038 C118     		adds	r1, r0, r3
 1360              	.LVL100:
 246:../../libdaisy/src/dev/oled_ssd130x.h ****     }
 1361              		.loc 14 246 42 view .LVU283
 1362 003a 0A7D     		ldrb	r2, [r1, #20]	@ zero_extendqisi2
 1363 003c 22EA0C02 		bic	r2, r2, ip
 1364 0040 0A75     		strb	r2, [r1, #20]
 1365              	.LVL101:
ARM GAS  C:\Users\VINCIU~1\AppData\Local\Temp\cc6F1pHH.s 			page 51


 1366              	.L83:
 246:../../libdaisy/src/dev/oled_ssd130x.h ****     }
 1367              		.loc 14 246 42 view .LVU284
 1368              	.LBE438:
 1369              	.LBE437:
 1370              	.LBE436:
 1371              	.LBE435:
  44:../../libdaisy/src/hid/disp/oled_display.h **** 
 1372              		.loc 8 44 5 view .LVU285
 1373 0042 7047     		bx	lr
 1374              		.cfi_endproc
 1375              	.LFE4636:
 1377              		.section	.text._ZN5daisy25OneBitGraphicsDisplayImplINS_11OledDisplayINS_13SSD130xDriverILj128ELj64
 1378              		.align	1
 1379              		.p2align 2,,3
 1380              		.weak	_ZN5daisy25OneBitGraphicsDisplayImplINS_11OledDisplayINS_13SSD130xDriverILj128ELj64ENS_24SSD
 1381              		.syntax unified
 1382              		.thumb
 1383              		.thumb_func
 1384              		.fpu fpv5-d16
 1386              	_ZN5daisy25OneBitGraphicsDisplayImplINS_11OledDisplayINS_13SSD130xDriverILj128ELj64ENS_24SSD130x4Wi
 1387              	.LVL102:
 1388              	.LFB4637:
 181:../../libdaisy/src/hid/disp/display.h ****                   uint_fast8_t y1,
 1389              		.loc 10 181 10 is_stmt 1 view -0
 1390              		.cfi_startproc
 1391              		@ args = 8, pretend = 0, frame = 8
 1392              		@ frame_needed = 0, uses_anonymous_args = 0
 181:../../libdaisy/src/hid/disp/display.h ****                   uint_fast8_t y1,
 1393              		.loc 10 181 10 is_stmt 0 view .LVU287
 1394 0000 2DE9F04F 		push	{r4, r5, r6, r7, r8, r9, r10, fp, lr}
 1395              		.cfi_def_cfa_offset 36
 1396              		.cfi_offset 4, -36
 1397              		.cfi_offset 5, -32
 1398              		.cfi_offset 6, -28
 1399              		.cfi_offset 7, -24
 1400              		.cfi_offset 8, -20
 1401              		.cfi_offset 9, -16
 1402              		.cfi_offset 10, -12
 1403              		.cfi_offset 11, -8
 1404              		.cfi_offset 14, -4
 1405 0004 83B0     		sub	sp, sp, #12
 1406              		.cfi_def_cfa_offset 48
 187:../../libdaisy/src/hid/disp/display.h ****         int_fast16_t deltaY = abs((int_fast16_t)y2 - (int_fast16_t)y1);
 1407              		.loc 10 187 52 view .LVU288
 1408 0006 5C1A     		subs	r4, r3, r1
 181:../../libdaisy/src/hid/disp/display.h ****                   uint_fast8_t y1,
 1409              		.loc 10 181 10 view .LVU289
 1410 0008 0C9E     		ldr	r6, [sp, #48]
 187:../../libdaisy/src/hid/disp/display.h ****         int_fast16_t deltaY = abs((int_fast16_t)y2 - (int_fast16_t)y1);
 1411              		.loc 10 187 22 view .LVU290
 1412 000a 002C     		cmp	r4, #0
 181:../../libdaisy/src/hid/disp/display.h ****                   uint_fast8_t y1,
 1413              		.loc 10 181 10 view .LVU291
 1414 000c 9DF83490 		ldrb	r9, [sp, #52]	@ zero_extendqisi2
 188:../../libdaisy/src/hid/disp/display.h ****         int_fast16_t signX  = ((x1 < x2) ? 1 : -1);
 1415              		.loc 10 188 52 view .LVU292
ARM GAS  C:\Users\VINCIU~1\AppData\Local\Temp\cc6F1pHH.s 			page 52


 1416 0010 A6EB0208 		sub	r8, r6, r2
 187:../../libdaisy/src/hid/disp/display.h ****         int_fast16_t deltaY = abs((int_fast16_t)y2 - (int_fast16_t)y1);
 1417              		.loc 10 187 22 view .LVU293
 1418 0014 B8BF     		it	lt
 1419 0016 6442     		rsblt	r4, r4, #0
 1420              	.LVL103:
 188:../../libdaisy/src/hid/disp/display.h ****         int_fast16_t signX  = ((x1 < x2) ? 1 : -1);
 1421              		.loc 10 188 22 view .LVU294
 1422 0018 B8F1000F 		cmp	r8, #0
 1423 001c B8BF     		it	lt
 1424 001e C8F10008 		rsblt	r8, r8, #0
 1425              	.LVL104:
 189:../../libdaisy/src/hid/disp/display.h ****         int_fast16_t signY  = ((y1 < y2) ? 1 : -1);
 1426              		.loc 10 189 42 view .LVU295
 1427 0022 8B42     		cmp	r3, r1
 1428 0024 8CBF     		ite	hi
 1429 0026 4FF0010A 		movhi	r10, #1
 1430 002a 4FF0FF3A 		movls	r10, #-1
 1431              	.LVL105:
 190:../../libdaisy/src/hid/disp/display.h ****         int_fast16_t error  = deltaX - deltaY;
 1432              		.loc 10 190 42 view .LVU296
 1433 002e 9642     		cmp	r6, r2
 191:../../libdaisy/src/hid/disp/display.h ****         int_fast16_t error2;
 1434              		.loc 10 191 22 view .LVU297
 1435 0030 A4EB080C 		sub	ip, r4, r8
 190:../../libdaisy/src/hid/disp/display.h ****         int_fast16_t error  = deltaX - deltaY;
 1436              		.loc 10 190 42 view .LVU298
 1437 0034 51D8     		bhi	.L88
 1438              	.LVL106:
 1439              	.LBB455:
 1440              	.LBI455:
  41:../../libdaisy/src/hid/disp/oled_display.h ****     {
 1441              		.loc 8 41 10 is_stmt 1 discriminator 4 view .LVU299
 1442              	.LBB456:
 1443              	.LBI456:
 239:../../libdaisy/src/dev/oled_ssd130x.h ****     {
 1444              		.loc 14 239 10 discriminator 4 view .LVU300
 1445              	.LBE456:
 1446              	.LBE455:
 190:../../libdaisy/src/hid/disp/display.h ****         int_fast16_t error  = deltaX - deltaY;
 1447              		.loc 10 190 42 is_stmt 0 discriminator 4 view .LVU301
 1448 0036 4FF0FF35 		mov	r5, #-1
 1449              	.LBB472:
 1450              	.LBB466:
 1451              	.LBB457:
 241:../../libdaisy/src/dev/oled_ssd130x.h ****             return;
 1452              		.loc 14 241 9 discriminator 4 view .LVU302
 1453 003a 7F2B     		cmp	r3, #127
 1454              	.LBE457:
 1455              	.LBE466:
 1456              	.LBE472:
 190:../../libdaisy/src/hid/disp/display.h ****         int_fast16_t error  = deltaX - deltaY;
 1457              		.loc 10 190 42 discriminator 4 view .LVU303
 1458 003c 0195     		str	r5, [sp, #4]
 1459              	.LBB473:
 1460              	.LBB467:
 1461              	.LBB462:
ARM GAS  C:\Users\VINCIU~1\AppData\Local\Temp\cc6F1pHH.s 			page 53


 241:../../libdaisy/src/dev/oled_ssd130x.h ****             return;
 1462              		.loc 14 241 9 discriminator 4 view .LVU304
 1463 003e 12D8     		bhi	.L89
 1464 0040 3F2E     		cmp	r6, #63
 1465 0042 10D8     		bhi	.L89
 1466              	.LVL107:
 1467              	.L100:
 244:../../libdaisy/src/dev/oled_ssd130x.h ****         else
 1468              		.loc 14 244 28 view .LVU305
 1469 0044 F508     		lsrs	r5, r6, #3
 244:../../libdaisy/src/dev/oled_ssd130x.h ****         else
 1470              		.loc 14 244 54 view .LVU306
 1471 0046 06F0070E 		and	lr, r6, #7
 244:../../libdaisy/src/dev/oled_ssd130x.h ****         else
 1472              		.loc 14 244 48 view .LVU307
 1473 004a 0127     		movs	r7, #1
 244:../../libdaisy/src/dev/oled_ssd130x.h ****         else
 1474              		.loc 14 244 42 view .LVU308
 1475 004c 03EBC515 		add	r5, r3, r5, lsl #7
 1476 0050 0544     		add	r5, r5, r0
 243:../../libdaisy/src/dev/oled_ssd130x.h ****             buffer_[x + (y / 8) * width] |= (1 << (y % 8));
 1477              		.loc 14 243 9 view .LVU309
 1478 0052 B9F1000F 		cmp	r9, #0
 1479 0056 47D0     		beq	.L90
 244:../../libdaisy/src/dev/oled_ssd130x.h ****         else
 1480              		.loc 14 244 48 view .LVU310
 1481 0058 07FA0EF7 		lsl	r7, r7, lr
 244:../../libdaisy/src/dev/oled_ssd130x.h ****         else
 1482              		.loc 14 244 42 view .LVU311
 1483 005c 95F814E0 		ldrb	lr, [r5, #20]	@ zero_extendqisi2
 1484 0060 47EA0E07 		orr	r7, r7, lr
 1485 0064 2F75     		strb	r7, [r5, #20]
 1486              	.LVL108:
 1487              	.L89:
 244:../../libdaisy/src/dev/oled_ssd130x.h ****         else
 1488              		.loc 14 244 42 view .LVU312
 1489              	.LBE462:
 1490              	.LBE467:
 1491              	.LBE473:
 199:../../libdaisy/src/hid/disp/display.h ****         {
 1492              		.loc 10 199 26 is_stmt 1 view .LVU313
 1493 0066 9642     		cmp	r6, r2
 1494 0068 01D1     		bne	.L93
 1495              	.L112:
 199:../../libdaisy/src/hid/disp/display.h ****         {
 1496              		.loc 10 199 26 is_stmt 0 view .LVU314
 1497 006a 8B42     		cmp	r3, r1
 1498 006c 29D0     		beq	.L86
 1499              	.L93:
 1500              	.LVL109:
 203:../../libdaisy/src/hid/disp/display.h ****             {
 1501              		.loc 10 203 23 view .LVU315
 1502 006e C8F10007 		rsb	r7, r8, #0
 1503              	.L95:
 1504              	.LVL110:
 1505              	.LBB474:
 1506              	.LBI474:
ARM GAS  C:\Users\VINCIU~1\AppData\Local\Temp\cc6F1pHH.s 			page 54


  41:../../libdaisy/src/hid/disp/oled_display.h ****     {
 1507              		.loc 8 41 10 is_stmt 1 view .LVU316
 1508              	.LBB475:
 1509              	.LBI475:
 239:../../libdaisy/src/dev/oled_ssd130x.h ****     {
 1510              		.loc 14 239 10 view .LVU317
 1511              	.LBB476:
 241:../../libdaisy/src/dev/oled_ssd130x.h ****             return;
 1512              		.loc 14 241 9 is_stmt 0 view .LVU318
 1513 0072 7F29     		cmp	r1, #127
 1514 0074 14D8     		bhi	.L96
 1515 0076 3F2A     		cmp	r2, #63
 1516 0078 12D8     		bhi	.L96
 244:../../libdaisy/src/dev/oled_ssd130x.h ****         else
 1517              		.loc 14 244 28 view .LVU319
 1518 007a D508     		lsrs	r5, r2, #3
 244:../../libdaisy/src/dev/oled_ssd130x.h ****         else
 1519              		.loc 14 244 54 view .LVU320
 1520 007c 02F0070B 		and	fp, r2, #7
 244:../../libdaisy/src/dev/oled_ssd130x.h ****         else
 1521              		.loc 14 244 48 view .LVU321
 1522 0080 4FF0010E 		mov	lr, #1
 244:../../libdaisy/src/dev/oled_ssd130x.h ****         else
 1523              		.loc 14 244 42 view .LVU322
 1524 0084 01EBC515 		add	r5, r1, r5, lsl #7
 1525 0088 0544     		add	r5, r5, r0
 243:../../libdaisy/src/dev/oled_ssd130x.h ****             buffer_[x + (y / 8) * width] |= (1 << (y % 8));
 1526              		.loc 14 243 9 view .LVU323
 1527 008a B9F1000F 		cmp	r9, #0
 1528 008e 1BD0     		beq	.L97
 244:../../libdaisy/src/dev/oled_ssd130x.h ****         else
 1529              		.loc 14 244 48 view .LVU324
 1530 0090 0EFA0BFE 		lsl	lr, lr, fp
 244:../../libdaisy/src/dev/oled_ssd130x.h ****         else
 1531              		.loc 14 244 42 view .LVU325
 1532 0094 95F814B0 		ldrb	fp, [r5, #20]	@ zero_extendqisi2
 1533 0098 4EEA0B0E 		orr	lr, lr, fp
 1534 009c 85F814E0 		strb	lr, [r5, #20]
 1535              	.L96:
 1536              	.LVL111:
 244:../../libdaisy/src/dev/oled_ssd130x.h ****         else
 1537              		.loc 14 244 42 view .LVU326
 1538              	.LBE476:
 1539              	.LBE475:
 1540              	.LBE474:
 203:../../libdaisy/src/hid/disp/display.h ****             {
 1541              		.loc 10 203 13 view .LVU327
 1542 00a0 B7EB4C0F 		cmp	r7, ip, lsl #1
 202:../../libdaisy/src/hid/disp/display.h ****             if(error2 > -deltaY)
 1543              		.loc 10 202 20 view .LVU328
 1544 00a4 4FEA4C05 		lsl	r5, ip, #1
 1545              	.LVL112:
 203:../../libdaisy/src/hid/disp/display.h ****             {
 1546              		.loc 10 203 13 view .LVU329
 1547 00a8 02DA     		bge	.L98
 205:../../libdaisy/src/hid/disp/display.h ****                 x1 += signX;
 1548              		.loc 10 205 23 view .LVU330
ARM GAS  C:\Users\VINCIU~1\AppData\Local\Temp\cc6F1pHH.s 			page 55


 1549 00aa ACEB080C 		sub	ip, ip, r8
 1550              	.LVL113:
 206:../../libdaisy/src/hid/disp/display.h ****             }
 1551              		.loc 10 206 20 view .LVU331
 1552 00ae 5144     		add	r1, r1, r10
 1553              	.LVL114:
 1554              	.L98:
 209:../../libdaisy/src/hid/disp/display.h ****             {
 1555              		.loc 10 209 13 view .LVU332
 1556 00b0 AC42     		cmp	r4, r5
 1557 00b2 02DD     		ble	.L99
 212:../../libdaisy/src/hid/disp/display.h ****             }
 1558              		.loc 10 212 20 view .LVU333
 1559 00b4 019D     		ldr	r5, [sp, #4]
 1560              	.LVL115:
 211:../../libdaisy/src/hid/disp/display.h ****                 y1 += signY;
 1561              		.loc 10 211 23 view .LVU334
 1562 00b6 A444     		add	ip, ip, r4
 1563              	.LVL116:
 212:../../libdaisy/src/hid/disp/display.h ****             }
 1564              		.loc 10 212 20 view .LVU335
 1565 00b8 2A44     		add	r2, r2, r5
 1566              	.LVL117:
 1567              	.L99:
 199:../../libdaisy/src/hid/disp/display.h ****         {
 1568              		.loc 10 199 26 is_stmt 1 view .LVU336
 1569 00ba 9942     		cmp	r1, r3
 1570 00bc D9D1     		bne	.L95
 199:../../libdaisy/src/hid/disp/display.h ****         {
 1571              		.loc 10 199 26 is_stmt 0 view .LVU337
 1572 00be 9642     		cmp	r6, r2
 1573 00c0 D7D1     		bne	.L95
 1574              	.L86:
 215:../../libdaisy/src/hid/disp/display.h **** 
 1575              		.loc 10 215 5 view .LVU338
 1576 00c2 03B0     		add	sp, sp, #12
 1577              		.cfi_remember_state
 1578              		.cfi_def_cfa_offset 36
 1579              		@ sp needed
 1580 00c4 BDE8F08F 		pop	{r4, r5, r6, r7, r8, r9, r10, fp, pc}
 1581              	.LVL118:
 1582              	.L97:
 1583              		.cfi_restore_state
 1584              	.LBB481:
 1585              	.LBB480:
 1586              	.LBB479:
 1587              	.LBB477:
 1588              	.LBI477:
 239:../../libdaisy/src/dev/oled_ssd130x.h ****     {
 1589              		.loc 14 239 10 is_stmt 1 view .LVU339
 1590              	.LBB478:
 246:../../libdaisy/src/dev/oled_ssd130x.h ****     }
 1591              		.loc 14 246 49 is_stmt 0 view .LVU340
 1592 00c8 0EFA0BFB 		lsl	fp, lr, fp
 246:../../libdaisy/src/dev/oled_ssd130x.h ****     }
 1593              		.loc 14 246 42 view .LVU341
 1594 00cc 95F814E0 		ldrb	lr, [r5, #20]	@ zero_extendqisi2
ARM GAS  C:\Users\VINCIU~1\AppData\Local\Temp\cc6F1pHH.s 			page 56


 1595 00d0 2EEA0B0E 		bic	lr, lr, fp
 1596 00d4 85F814E0 		strb	lr, [r5, #20]
 1597 00d8 E2E7     		b	.L96
 1598              	.LVL119:
 1599              	.L88:
 246:../../libdaisy/src/dev/oled_ssd130x.h ****     }
 1600              		.loc 14 246 42 view .LVU342
 1601              	.LBE478:
 1602              	.LBE477:
 1603              	.LBE479:
 1604              	.LBE480:
 1605              	.LBE481:
 1606              	.LBB482:
  41:../../libdaisy/src/hid/disp/oled_display.h ****     {
 1607              		.loc 8 41 10 is_stmt 1 view .LVU343
 1608              	.LBB468:
 239:../../libdaisy/src/dev/oled_ssd130x.h ****     {
 1609              		.loc 14 239 10 view .LVU344
 1610              	.LBE468:
 1611              	.LBE482:
 190:../../libdaisy/src/hid/disp/display.h ****         int_fast16_t error  = deltaX - deltaY;
 1612              		.loc 10 190 42 is_stmt 0 view .LVU345
 1613 00da 0125     		movs	r5, #1
 1614              	.LBB483:
 1615              	.LBB469:
 1616              	.LBB463:
 241:../../libdaisy/src/dev/oled_ssd130x.h ****             return;
 1617              		.loc 14 241 9 view .LVU346
 1618 00dc 7F2B     		cmp	r3, #127
 1619              	.LBE463:
 1620              	.LBE469:
 1621              	.LBE483:
 190:../../libdaisy/src/hid/disp/display.h ****         int_fast16_t error  = deltaX - deltaY;
 1622              		.loc 10 190 42 view .LVU347
 1623 00de 0195     		str	r5, [sp, #4]
 1624              	.LBB484:
 1625              	.LBB470:
 1626              	.LBB464:
 241:../../libdaisy/src/dev/oled_ssd130x.h ****             return;
 1627              		.loc 14 241 9 view .LVU348
 1628 00e0 C5D8     		bhi	.L93
 1629 00e2 3F2E     		cmp	r6, #63
 1630 00e4 AED9     		bls	.L100
 1631 00e6 C2E7     		b	.L93
 1632              	.LVL120:
 1633              	.L90:
 1634              	.LBB458:
 1635              	.LBI458:
 239:../../libdaisy/src/dev/oled_ssd130x.h ****     {
 1636              		.loc 14 239 10 is_stmt 1 view .LVU349
 1637              	.LBB459:
 246:../../libdaisy/src/dev/oled_ssd130x.h ****     }
 1638              		.loc 14 246 49 is_stmt 0 view .LVU350
 1639 00e8 07FA0EFE 		lsl	lr, r7, lr
 246:../../libdaisy/src/dev/oled_ssd130x.h ****     }
 1640              		.loc 14 246 42 view .LVU351
 1641 00ec 2F7D     		ldrb	r7, [r5, #20]	@ zero_extendqisi2
ARM GAS  C:\Users\VINCIU~1\AppData\Local\Temp\cc6F1pHH.s 			page 57


 1642              	.LBE459:
 1643              	.LBE458:
 1644              	.LBE464:
 1645              	.LBE470:
 1646              	.LBE484:
 199:../../libdaisy/src/hid/disp/display.h ****         {
 1647              		.loc 10 199 26 view .LVU352
 1648 00ee 9642     		cmp	r6, r2
 1649              	.LBB485:
 1650              	.LBB471:
 1651              	.LBB465:
 1652              	.LBB461:
 1653              	.LBB460:
 246:../../libdaisy/src/dev/oled_ssd130x.h ****     }
 1654              		.loc 14 246 42 view .LVU353
 1655 00f0 27EA0E07 		bic	r7, r7, lr
 1656 00f4 2F75     		strb	r7, [r5, #20]
 1657              	.LVL121:
 246:../../libdaisy/src/dev/oled_ssd130x.h ****     }
 1658              		.loc 14 246 42 view .LVU354
 1659              	.LBE460:
 1660              	.LBE461:
 1661              	.LBE465:
 1662              	.LBE471:
 1663              	.LBE485:
 199:../../libdaisy/src/hid/disp/display.h ****         {
 1664              		.loc 10 199 26 is_stmt 1 view .LVU355
 1665 00f6 B8D0     		beq	.L112
 1666 00f8 B9E7     		b	.L93
 1667              		.cfi_endproc
 1668              	.LFE4637:
 1670 00fa 00BF     		.section	.text._ZN5daisy25OneBitGraphicsDisplayImplINS_11OledDisplayINS_13SSD130xDriverILj128ELj64
 1671              		.align	1
 1672              		.p2align 2,,3
 1673              		.weak	_ZN5daisy25OneBitGraphicsDisplayImplINS_11OledDisplayINS_13SSD130xDriverILj128ELj64ENS_24SSD
 1674              		.syntax unified
 1675              		.thumb
 1676              		.thumb_func
 1677              		.fpu fpv5-d16
 1679              	_ZN5daisy25OneBitGraphicsDisplayImplINS_11OledDisplayINS_13SSD130xDriverILj128ELj64ENS_24SSD130x4Wi
 1680              	.LVL122:
 1681              	.LFB4639:
 243:../../libdaisy/src/hid/disp/display.h ****                  uint_fast8_t y,
 1682              		.loc 10 243 10 view -0
 1683              		.cfi_startproc
 1684              		@ args = 12, pretend = 0, frame = 8
 1685              		@ frame_needed = 0, uses_anonymous_args = 0
 243:../../libdaisy/src/hid/disp/display.h ****                  uint_fast8_t y,
 1686              		.loc 10 243 10 is_stmt 0 view .LVU357
 1687 0000 2DE9F04F 		push	{r4, r5, r6, r7, r8, r9, r10, fp, lr}
 1688              		.cfi_def_cfa_offset 36
 1689              		.cfi_offset 4, -36
 1690              		.cfi_offset 5, -32
 1691              		.cfi_offset 6, -28
 1692              		.cfi_offset 7, -24
 1693              		.cfi_offset 8, -20
 1694              		.cfi_offset 9, -16
ARM GAS  C:\Users\VINCIU~1\AppData\Local\Temp\cc6F1pHH.s 			page 58


 1695              		.cfi_offset 10, -12
 1696              		.cfi_offset 11, -8
 1697              		.cfi_offset 14, -4
 1698 0004 2DED068B 		vpush.64	{d8, d9, d10}
 1699              		.cfi_def_cfa_offset 60
 1700              		.cfi_offset 80, -60
 1701              		.cfi_offset 81, -56
 1702              		.cfi_offset 82, -52
 1703              		.cfi_offset 83, -48
 1704              		.cfi_offset 84, -44
 1705              		.cfi_offset 85, -40
 1706 0008 83B0     		sub	sp, sp, #12
 1707              		.cfi_def_cfa_offset 72
 243:../../libdaisy/src/hid/disp/display.h ****                  uint_fast8_t y,
 1708              		.loc 10 243 10 view .LVU358
 1709 000a 1F46     		mov	r7, r3
 1710 000c 8046     		mov	r8, r0
 1711 000e 0D46     		mov	r5, r1
 1712 0010 9DF85030 		ldrb	r3, [sp, #80]	@ zero_extendqisi2
 1713              	.LVL123:
 243:../../libdaisy/src/hid/disp/display.h ****                  uint_fast8_t y,
 1714              		.loc 10 243 10 view .LVU359
 1715 0014 1646     		mov	r6, r2
 1716 0016 0193     		str	r3, [sp, #4]
 266:../../libdaisy/src/hid/disp/display.h ****         {
 1717              		.loc 10 266 9 view .LVU360
 1718 0018 139B     		ldr	r3, [sp, #76]
 1719 001a 002B     		cmp	r3, #0
 1720 001c C0F22182 		blt	.L114
 273:../../libdaisy/src/hid/disp/display.h **** 
 1721              		.loc 10 273 27 view .LVU361
 1722 0020 129A     		ldr	r2, [sp, #72]
 1723              	.LVL124:
 273:../../libdaisy/src/hid/disp/display.h **** 
 1724              		.loc 10 273 27 view .LVU362
 1725 0022 1344     		add	r3, r3, r2
 1726 0024 06EE103A 		vmov	s12, r3	@ int
 1727              	.LVL125:
 1728              	.L115:
 272:../../libdaisy/src/hid/disp/display.h ****         end_angle_rad   = deg2rad(start_angle + sweep);
 1729              		.loc 10 272 27 view .LVU363
 1730 0028 DDED127A 		vldr.32	s15, [sp, #72]	@ int
 273:../../libdaisy/src/hid/disp/display.h **** 
 1731              		.loc 10 273 27 view .LVU364
 1732 002c B8EEC66B 		vcvt.f64.s32	d6, s12
 272:../../libdaisy/src/hid/disp/display.h ****         end_angle_rad   = deg2rad(start_angle + sweep);
 1733              		.loc 10 272 27 view .LVU365
 1734 0030 9FEDCD4B 		vldr.64	d4, .L190
 1735 0034 B8EEE77B 		vcvt.f64.s32	d7, s15
 1736 0038 9FEDCD5B 		vldr.64	d5, .L190+8
 1737 003c 27EE047B 		vmul.f64	d7, d7, d4
 273:../../libdaisy/src/hid/disp/display.h **** 
 1738              		.loc 10 273 27 view .LVU366
 1739 0040 26EE046B 		vmul.f64	d6, d6, d4
 272:../../libdaisy/src/hid/disp/display.h ****         end_angle_rad   = deg2rad(start_angle + sweep);
 1740              		.loc 10 272 27 view .LVU367
 1741 0044 87EE050B 		vdiv.f64	d0, d7, d5
ARM GAS  C:\Users\VINCIU~1\AppData\Local\Temp\cc6F1pHH.s 			page 59


 273:../../libdaisy/src/hid/disp/display.h **** 
 1742              		.loc 10 273 27 view .LVU368
 1743 0048 86EE05AB 		vdiv.f64	d10, d6, d5
 272:../../libdaisy/src/hid/disp/display.h ****         end_angle_rad   = deg2rad(start_angle + sweep);
 1744              		.loc 10 272 25 view .LVU369
 1745 004c F7EEC08B 		vcvt.f32.f64	s17, d0
 1746              	.LVL126:
 1747              	.LBB518:
 1748              	.LBB519:
 1749              		.file 17 "c:\\users\\vin\355cius\\documents\\daisytoolchain-0.3.1\\windows\\arm-none-eabi\\include
   1:c:\users\vincius\documents\daisytoolchain-0.3.1\windows\arm-none-eabi\include\c++\10.2.1\cmath **** // -*- C++ -*- C forwarding header.
   2:c:\users\vincius\documents\daisytoolchain-0.3.1\windows\arm-none-eabi\include\c++\10.2.1\cmath **** 
   3:c:\users\vincius\documents\daisytoolchain-0.3.1\windows\arm-none-eabi\include\c++\10.2.1\cmath **** // Copyright (C) 1997-2020 Free Software Foundation, Inc.
   4:c:\users\vincius\documents\daisytoolchain-0.3.1\windows\arm-none-eabi\include\c++\10.2.1\cmath **** //
   5:c:\users\vincius\documents\daisytoolchain-0.3.1\windows\arm-none-eabi\include\c++\10.2.1\cmath **** // This file is part of the GNU ISO C++ Library.  This library is free
   6:c:\users\vincius\documents\daisytoolchain-0.3.1\windows\arm-none-eabi\include\c++\10.2.1\cmath **** // software; you can redistribute it and/or modify it under the
   7:c:\users\vincius\documents\daisytoolchain-0.3.1\windows\arm-none-eabi\include\c++\10.2.1\cmath **** // terms of the GNU General Public License as published by the
   8:c:\users\vincius\documents\daisytoolchain-0.3.1\windows\arm-none-eabi\include\c++\10.2.1\cmath **** // Free Software Foundation; either version 3, or (at your option)
   9:c:\users\vincius\documents\daisytoolchain-0.3.1\windows\arm-none-eabi\include\c++\10.2.1\cmath **** // any later version.
  10:c:\users\vincius\documents\daisytoolchain-0.3.1\windows\arm-none-eabi\include\c++\10.2.1\cmath **** 
  11:c:\users\vincius\documents\daisytoolchain-0.3.1\windows\arm-none-eabi\include\c++\10.2.1\cmath **** // This library is distributed in the hope that it will be useful,
  12:c:\users\vincius\documents\daisytoolchain-0.3.1\windows\arm-none-eabi\include\c++\10.2.1\cmath **** // but WITHOUT ANY WARRANTY; without even the implied warranty of
  13:c:\users\vincius\documents\daisytoolchain-0.3.1\windows\arm-none-eabi\include\c++\10.2.1\cmath **** // MERCHANTABILITY or FITNESS FOR A PARTICULAR PURPOSE.  See the
  14:c:\users\vincius\documents\daisytoolchain-0.3.1\windows\arm-none-eabi\include\c++\10.2.1\cmath **** // GNU General Public License for more details.
  15:c:\users\vincius\documents\daisytoolchain-0.3.1\windows\arm-none-eabi\include\c++\10.2.1\cmath **** 
  16:c:\users\vincius\documents\daisytoolchain-0.3.1\windows\arm-none-eabi\include\c++\10.2.1\cmath **** // Under Section 7 of GPL version 3, you are granted additional
  17:c:\users\vincius\documents\daisytoolchain-0.3.1\windows\arm-none-eabi\include\c++\10.2.1\cmath **** // permissions described in the GCC Runtime Library Exception, version
  18:c:\users\vincius\documents\daisytoolchain-0.3.1\windows\arm-none-eabi\include\c++\10.2.1\cmath **** // 3.1, as published by the Free Software Foundation.
  19:c:\users\vincius\documents\daisytoolchain-0.3.1\windows\arm-none-eabi\include\c++\10.2.1\cmath **** 
  20:c:\users\vincius\documents\daisytoolchain-0.3.1\windows\arm-none-eabi\include\c++\10.2.1\cmath **** // You should have received a copy of the GNU General Public License and
  21:c:\users\vincius\documents\daisytoolchain-0.3.1\windows\arm-none-eabi\include\c++\10.2.1\cmath **** // a copy of the GCC Runtime Library Exception along with this program;
  22:c:\users\vincius\documents\daisytoolchain-0.3.1\windows\arm-none-eabi\include\c++\10.2.1\cmath **** // see the files COPYING3 and COPYING.RUNTIME respectively.  If not, see
  23:c:\users\vincius\documents\daisytoolchain-0.3.1\windows\arm-none-eabi\include\c++\10.2.1\cmath **** // <http://www.gnu.org/licenses/>.
  24:c:\users\vincius\documents\daisytoolchain-0.3.1\windows\arm-none-eabi\include\c++\10.2.1\cmath **** 
  25:c:\users\vincius\documents\daisytoolchain-0.3.1\windows\arm-none-eabi\include\c++\10.2.1\cmath **** /** @file include/cmath
  26:c:\users\vincius\documents\daisytoolchain-0.3.1\windows\arm-none-eabi\include\c++\10.2.1\cmath ****  *  This is a Standard C++ Library file.  You should @c \#include this file
  27:c:\users\vincius\documents\daisytoolchain-0.3.1\windows\arm-none-eabi\include\c++\10.2.1\cmath ****  *  in your programs, rather than any of the @a *.h implementation files.
  28:c:\users\vincius\documents\daisytoolchain-0.3.1\windows\arm-none-eabi\include\c++\10.2.1\cmath ****  *
  29:c:\users\vincius\documents\daisytoolchain-0.3.1\windows\arm-none-eabi\include\c++\10.2.1\cmath ****  *  This is the C++ version of the Standard C Library header @c math.h,
  30:c:\users\vincius\documents\daisytoolchain-0.3.1\windows\arm-none-eabi\include\c++\10.2.1\cmath ****  *  and its contents are (mostly) the same as that header, but are all
  31:c:\users\vincius\documents\daisytoolchain-0.3.1\windows\arm-none-eabi\include\c++\10.2.1\cmath ****  *  contained in the namespace @c std (except for names which are defined
  32:c:\users\vincius\documents\daisytoolchain-0.3.1\windows\arm-none-eabi\include\c++\10.2.1\cmath ****  *  as macros in C).
  33:c:\users\vincius\documents\daisytoolchain-0.3.1\windows\arm-none-eabi\include\c++\10.2.1\cmath ****  */
  34:c:\users\vincius\documents\daisytoolchain-0.3.1\windows\arm-none-eabi\include\c++\10.2.1\cmath **** 
  35:c:\users\vincius\documents\daisytoolchain-0.3.1\windows\arm-none-eabi\include\c++\10.2.1\cmath **** //
  36:c:\users\vincius\documents\daisytoolchain-0.3.1\windows\arm-none-eabi\include\c++\10.2.1\cmath **** // ISO C++ 14882: 26.5  C library
  37:c:\users\vincius\documents\daisytoolchain-0.3.1\windows\arm-none-eabi\include\c++\10.2.1\cmath **** //
  38:c:\users\vincius\documents\daisytoolchain-0.3.1\windows\arm-none-eabi\include\c++\10.2.1\cmath **** 
  39:c:\users\vincius\documents\daisytoolchain-0.3.1\windows\arm-none-eabi\include\c++\10.2.1\cmath **** #pragma GCC system_header
  40:c:\users\vincius\documents\daisytoolchain-0.3.1\windows\arm-none-eabi\include\c++\10.2.1\cmath **** 
  41:c:\users\vincius\documents\daisytoolchain-0.3.1\windows\arm-none-eabi\include\c++\10.2.1\cmath **** #include <bits/c++config.h>
  42:c:\users\vincius\documents\daisytoolchain-0.3.1\windows\arm-none-eabi\include\c++\10.2.1\cmath **** #include <bits/cpp_type_traits.h>
  43:c:\users\vincius\documents\daisytoolchain-0.3.1\windows\arm-none-eabi\include\c++\10.2.1\cmath **** #include <ext/type_traits.h>
  44:c:\users\vincius\documents\daisytoolchain-0.3.1\windows\arm-none-eabi\include\c++\10.2.1\cmath **** #define _GLIBCXX_INCLUDE_NEXT_C_HEADERS
  45:c:\users\vincius\documents\daisytoolchain-0.3.1\windows\arm-none-eabi\include\c++\10.2.1\cmath **** #include_next <math.h>
  46:c:\users\vincius\documents\daisytoolchain-0.3.1\windows\arm-none-eabi\include\c++\10.2.1\cmath **** #undef _GLIBCXX_INCLUDE_NEXT_C_HEADERS
  47:c:\users\vincius\documents\daisytoolchain-0.3.1\windows\arm-none-eabi\include\c++\10.2.1\cmath **** #include <bits/std_abs.h>
ARM GAS  C:\Users\VINCIU~1\AppData\Local\Temp\cc6F1pHH.s 			page 60


  48:c:\users\vincius\documents\daisytoolchain-0.3.1\windows\arm-none-eabi\include\c++\10.2.1\cmath **** 
  49:c:\users\vincius\documents\daisytoolchain-0.3.1\windows\arm-none-eabi\include\c++\10.2.1\cmath **** #ifndef _GLIBCXX_CMATH
  50:c:\users\vincius\documents\daisytoolchain-0.3.1\windows\arm-none-eabi\include\c++\10.2.1\cmath **** #define _GLIBCXX_CMATH 1
  51:c:\users\vincius\documents\daisytoolchain-0.3.1\windows\arm-none-eabi\include\c++\10.2.1\cmath **** 
  52:c:\users\vincius\documents\daisytoolchain-0.3.1\windows\arm-none-eabi\include\c++\10.2.1\cmath **** // Get rid of those macros defined in <math.h> in lieu of real functions.
  53:c:\users\vincius\documents\daisytoolchain-0.3.1\windows\arm-none-eabi\include\c++\10.2.1\cmath **** #undef div
  54:c:\users\vincius\documents\daisytoolchain-0.3.1\windows\arm-none-eabi\include\c++\10.2.1\cmath **** #undef acos
  55:c:\users\vincius\documents\daisytoolchain-0.3.1\windows\arm-none-eabi\include\c++\10.2.1\cmath **** #undef asin
  56:c:\users\vincius\documents\daisytoolchain-0.3.1\windows\arm-none-eabi\include\c++\10.2.1\cmath **** #undef atan
  57:c:\users\vincius\documents\daisytoolchain-0.3.1\windows\arm-none-eabi\include\c++\10.2.1\cmath **** #undef atan2
  58:c:\users\vincius\documents\daisytoolchain-0.3.1\windows\arm-none-eabi\include\c++\10.2.1\cmath **** #undef ceil
  59:c:\users\vincius\documents\daisytoolchain-0.3.1\windows\arm-none-eabi\include\c++\10.2.1\cmath **** #undef cos
  60:c:\users\vincius\documents\daisytoolchain-0.3.1\windows\arm-none-eabi\include\c++\10.2.1\cmath **** #undef cosh
  61:c:\users\vincius\documents\daisytoolchain-0.3.1\windows\arm-none-eabi\include\c++\10.2.1\cmath **** #undef exp
  62:c:\users\vincius\documents\daisytoolchain-0.3.1\windows\arm-none-eabi\include\c++\10.2.1\cmath **** #undef fabs
  63:c:\users\vincius\documents\daisytoolchain-0.3.1\windows\arm-none-eabi\include\c++\10.2.1\cmath **** #undef floor
  64:c:\users\vincius\documents\daisytoolchain-0.3.1\windows\arm-none-eabi\include\c++\10.2.1\cmath **** #undef fmod
  65:c:\users\vincius\documents\daisytoolchain-0.3.1\windows\arm-none-eabi\include\c++\10.2.1\cmath **** #undef frexp
  66:c:\users\vincius\documents\daisytoolchain-0.3.1\windows\arm-none-eabi\include\c++\10.2.1\cmath **** #undef ldexp
  67:c:\users\vincius\documents\daisytoolchain-0.3.1\windows\arm-none-eabi\include\c++\10.2.1\cmath **** #undef log
  68:c:\users\vincius\documents\daisytoolchain-0.3.1\windows\arm-none-eabi\include\c++\10.2.1\cmath **** #undef log10
  69:c:\users\vincius\documents\daisytoolchain-0.3.1\windows\arm-none-eabi\include\c++\10.2.1\cmath **** #undef modf
  70:c:\users\vincius\documents\daisytoolchain-0.3.1\windows\arm-none-eabi\include\c++\10.2.1\cmath **** #undef pow
  71:c:\users\vincius\documents\daisytoolchain-0.3.1\windows\arm-none-eabi\include\c++\10.2.1\cmath **** #undef sin
  72:c:\users\vincius\documents\daisytoolchain-0.3.1\windows\arm-none-eabi\include\c++\10.2.1\cmath **** #undef sinh
  73:c:\users\vincius\documents\daisytoolchain-0.3.1\windows\arm-none-eabi\include\c++\10.2.1\cmath **** #undef sqrt
  74:c:\users\vincius\documents\daisytoolchain-0.3.1\windows\arm-none-eabi\include\c++\10.2.1\cmath **** #undef tan
  75:c:\users\vincius\documents\daisytoolchain-0.3.1\windows\arm-none-eabi\include\c++\10.2.1\cmath **** #undef tanh
  76:c:\users\vincius\documents\daisytoolchain-0.3.1\windows\arm-none-eabi\include\c++\10.2.1\cmath **** 
  77:c:\users\vincius\documents\daisytoolchain-0.3.1\windows\arm-none-eabi\include\c++\10.2.1\cmath **** extern "C++"
  78:c:\users\vincius\documents\daisytoolchain-0.3.1\windows\arm-none-eabi\include\c++\10.2.1\cmath **** {
  79:c:\users\vincius\documents\daisytoolchain-0.3.1\windows\arm-none-eabi\include\c++\10.2.1\cmath **** namespace std _GLIBCXX_VISIBILITY(default)
  80:c:\users\vincius\documents\daisytoolchain-0.3.1\windows\arm-none-eabi\include\c++\10.2.1\cmath **** {
  81:c:\users\vincius\documents\daisytoolchain-0.3.1\windows\arm-none-eabi\include\c++\10.2.1\cmath **** _GLIBCXX_BEGIN_NAMESPACE_VERSION
  82:c:\users\vincius\documents\daisytoolchain-0.3.1\windows\arm-none-eabi\include\c++\10.2.1\cmath **** 
  83:c:\users\vincius\documents\daisytoolchain-0.3.1\windows\arm-none-eabi\include\c++\10.2.1\cmath ****   using ::acos;
  84:c:\users\vincius\documents\daisytoolchain-0.3.1\windows\arm-none-eabi\include\c++\10.2.1\cmath **** 
  85:c:\users\vincius\documents\daisytoolchain-0.3.1\windows\arm-none-eabi\include\c++\10.2.1\cmath **** #ifndef __CORRECT_ISO_CPP_MATH_H_PROTO
  86:c:\users\vincius\documents\daisytoolchain-0.3.1\windows\arm-none-eabi\include\c++\10.2.1\cmath ****   inline _GLIBCXX_CONSTEXPR float
  87:c:\users\vincius\documents\daisytoolchain-0.3.1\windows\arm-none-eabi\include\c++\10.2.1\cmath ****   acos(float __x)
  88:c:\users\vincius\documents\daisytoolchain-0.3.1\windows\arm-none-eabi\include\c++\10.2.1\cmath ****   { return __builtin_acosf(__x); }
  89:c:\users\vincius\documents\daisytoolchain-0.3.1\windows\arm-none-eabi\include\c++\10.2.1\cmath **** 
  90:c:\users\vincius\documents\daisytoolchain-0.3.1\windows\arm-none-eabi\include\c++\10.2.1\cmath ****   inline _GLIBCXX_CONSTEXPR long double
  91:c:\users\vincius\documents\daisytoolchain-0.3.1\windows\arm-none-eabi\include\c++\10.2.1\cmath ****   acos(long double __x)
  92:c:\users\vincius\documents\daisytoolchain-0.3.1\windows\arm-none-eabi\include\c++\10.2.1\cmath ****   { return __builtin_acosl(__x); }
  93:c:\users\vincius\documents\daisytoolchain-0.3.1\windows\arm-none-eabi\include\c++\10.2.1\cmath **** #endif
  94:c:\users\vincius\documents\daisytoolchain-0.3.1\windows\arm-none-eabi\include\c++\10.2.1\cmath **** 
  95:c:\users\vincius\documents\daisytoolchain-0.3.1\windows\arm-none-eabi\include\c++\10.2.1\cmath ****   template<typename _Tp>
  96:c:\users\vincius\documents\daisytoolchain-0.3.1\windows\arm-none-eabi\include\c++\10.2.1\cmath ****     inline _GLIBCXX_CONSTEXPR
  97:c:\users\vincius\documents\daisytoolchain-0.3.1\windows\arm-none-eabi\include\c++\10.2.1\cmath ****     typename __gnu_cxx::__enable_if<__is_integer<_Tp>::__value, 
  98:c:\users\vincius\documents\daisytoolchain-0.3.1\windows\arm-none-eabi\include\c++\10.2.1\cmath ****                                     double>::__type
  99:c:\users\vincius\documents\daisytoolchain-0.3.1\windows\arm-none-eabi\include\c++\10.2.1\cmath ****     acos(_Tp __x)
 100:c:\users\vincius\documents\daisytoolchain-0.3.1\windows\arm-none-eabi\include\c++\10.2.1\cmath ****     { return __builtin_acos(__x); }
 101:c:\users\vincius\documents\daisytoolchain-0.3.1\windows\arm-none-eabi\include\c++\10.2.1\cmath **** 
 102:c:\users\vincius\documents\daisytoolchain-0.3.1\windows\arm-none-eabi\include\c++\10.2.1\cmath ****   using ::asin;
 103:c:\users\vincius\documents\daisytoolchain-0.3.1\windows\arm-none-eabi\include\c++\10.2.1\cmath **** 
 104:c:\users\vincius\documents\daisytoolchain-0.3.1\windows\arm-none-eabi\include\c++\10.2.1\cmath **** #ifndef __CORRECT_ISO_CPP_MATH_H_PROTO
ARM GAS  C:\Users\VINCIU~1\AppData\Local\Temp\cc6F1pHH.s 			page 61


 105:c:\users\vincius\documents\daisytoolchain-0.3.1\windows\arm-none-eabi\include\c++\10.2.1\cmath ****   inline _GLIBCXX_CONSTEXPR float
 106:c:\users\vincius\documents\daisytoolchain-0.3.1\windows\arm-none-eabi\include\c++\10.2.1\cmath ****   asin(float __x)
 107:c:\users\vincius\documents\daisytoolchain-0.3.1\windows\arm-none-eabi\include\c++\10.2.1\cmath ****   { return __builtin_asinf(__x); }
 108:c:\users\vincius\documents\daisytoolchain-0.3.1\windows\arm-none-eabi\include\c++\10.2.1\cmath **** 
 109:c:\users\vincius\documents\daisytoolchain-0.3.1\windows\arm-none-eabi\include\c++\10.2.1\cmath ****   inline _GLIBCXX_CONSTEXPR long double
 110:c:\users\vincius\documents\daisytoolchain-0.3.1\windows\arm-none-eabi\include\c++\10.2.1\cmath ****   asin(long double __x)
 111:c:\users\vincius\documents\daisytoolchain-0.3.1\windows\arm-none-eabi\include\c++\10.2.1\cmath ****   { return __builtin_asinl(__x); }
 112:c:\users\vincius\documents\daisytoolchain-0.3.1\windows\arm-none-eabi\include\c++\10.2.1\cmath **** #endif
 113:c:\users\vincius\documents\daisytoolchain-0.3.1\windows\arm-none-eabi\include\c++\10.2.1\cmath **** 
 114:c:\users\vincius\documents\daisytoolchain-0.3.1\windows\arm-none-eabi\include\c++\10.2.1\cmath ****   template<typename _Tp>
 115:c:\users\vincius\documents\daisytoolchain-0.3.1\windows\arm-none-eabi\include\c++\10.2.1\cmath ****     inline _GLIBCXX_CONSTEXPR
 116:c:\users\vincius\documents\daisytoolchain-0.3.1\windows\arm-none-eabi\include\c++\10.2.1\cmath ****     typename __gnu_cxx::__enable_if<__is_integer<_Tp>::__value,
 117:c:\users\vincius\documents\daisytoolchain-0.3.1\windows\arm-none-eabi\include\c++\10.2.1\cmath ****                                     double>::__type
 118:c:\users\vincius\documents\daisytoolchain-0.3.1\windows\arm-none-eabi\include\c++\10.2.1\cmath ****     asin(_Tp __x)
 119:c:\users\vincius\documents\daisytoolchain-0.3.1\windows\arm-none-eabi\include\c++\10.2.1\cmath ****     { return __builtin_asin(__x); }
 120:c:\users\vincius\documents\daisytoolchain-0.3.1\windows\arm-none-eabi\include\c++\10.2.1\cmath **** 
 121:c:\users\vincius\documents\daisytoolchain-0.3.1\windows\arm-none-eabi\include\c++\10.2.1\cmath ****   using ::atan;
 122:c:\users\vincius\documents\daisytoolchain-0.3.1\windows\arm-none-eabi\include\c++\10.2.1\cmath **** 
 123:c:\users\vincius\documents\daisytoolchain-0.3.1\windows\arm-none-eabi\include\c++\10.2.1\cmath **** #ifndef __CORRECT_ISO_CPP_MATH_H_PROTO
 124:c:\users\vincius\documents\daisytoolchain-0.3.1\windows\arm-none-eabi\include\c++\10.2.1\cmath ****   inline _GLIBCXX_CONSTEXPR float
 125:c:\users\vincius\documents\daisytoolchain-0.3.1\windows\arm-none-eabi\include\c++\10.2.1\cmath ****   atan(float __x)
 126:c:\users\vincius\documents\daisytoolchain-0.3.1\windows\arm-none-eabi\include\c++\10.2.1\cmath ****   { return __builtin_atanf(__x); }
 127:c:\users\vincius\documents\daisytoolchain-0.3.1\windows\arm-none-eabi\include\c++\10.2.1\cmath **** 
 128:c:\users\vincius\documents\daisytoolchain-0.3.1\windows\arm-none-eabi\include\c++\10.2.1\cmath ****   inline _GLIBCXX_CONSTEXPR long double
 129:c:\users\vincius\documents\daisytoolchain-0.3.1\windows\arm-none-eabi\include\c++\10.2.1\cmath ****   atan(long double __x)
 130:c:\users\vincius\documents\daisytoolchain-0.3.1\windows\arm-none-eabi\include\c++\10.2.1\cmath ****   { return __builtin_atanl(__x); }
 131:c:\users\vincius\documents\daisytoolchain-0.3.1\windows\arm-none-eabi\include\c++\10.2.1\cmath **** #endif
 132:c:\users\vincius\documents\daisytoolchain-0.3.1\windows\arm-none-eabi\include\c++\10.2.1\cmath **** 
 133:c:\users\vincius\documents\daisytoolchain-0.3.1\windows\arm-none-eabi\include\c++\10.2.1\cmath ****   template<typename _Tp>
 134:c:\users\vincius\documents\daisytoolchain-0.3.1\windows\arm-none-eabi\include\c++\10.2.1\cmath ****     inline _GLIBCXX_CONSTEXPR
 135:c:\users\vincius\documents\daisytoolchain-0.3.1\windows\arm-none-eabi\include\c++\10.2.1\cmath ****     typename __gnu_cxx::__enable_if<__is_integer<_Tp>::__value,
 136:c:\users\vincius\documents\daisytoolchain-0.3.1\windows\arm-none-eabi\include\c++\10.2.1\cmath ****                                     double>::__type
 137:c:\users\vincius\documents\daisytoolchain-0.3.1\windows\arm-none-eabi\include\c++\10.2.1\cmath ****     atan(_Tp __x)
 138:c:\users\vincius\documents\daisytoolchain-0.3.1\windows\arm-none-eabi\include\c++\10.2.1\cmath ****     { return __builtin_atan(__x); }
 139:c:\users\vincius\documents\daisytoolchain-0.3.1\windows\arm-none-eabi\include\c++\10.2.1\cmath **** 
 140:c:\users\vincius\documents\daisytoolchain-0.3.1\windows\arm-none-eabi\include\c++\10.2.1\cmath ****   using ::atan2;
 141:c:\users\vincius\documents\daisytoolchain-0.3.1\windows\arm-none-eabi\include\c++\10.2.1\cmath **** 
 142:c:\users\vincius\documents\daisytoolchain-0.3.1\windows\arm-none-eabi\include\c++\10.2.1\cmath **** #ifndef __CORRECT_ISO_CPP_MATH_H_PROTO
 143:c:\users\vincius\documents\daisytoolchain-0.3.1\windows\arm-none-eabi\include\c++\10.2.1\cmath ****   inline _GLIBCXX_CONSTEXPR float
 144:c:\users\vincius\documents\daisytoolchain-0.3.1\windows\arm-none-eabi\include\c++\10.2.1\cmath ****   atan2(float __y, float __x)
 145:c:\users\vincius\documents\daisytoolchain-0.3.1\windows\arm-none-eabi\include\c++\10.2.1\cmath ****   { return __builtin_atan2f(__y, __x); }
 146:c:\users\vincius\documents\daisytoolchain-0.3.1\windows\arm-none-eabi\include\c++\10.2.1\cmath **** 
 147:c:\users\vincius\documents\daisytoolchain-0.3.1\windows\arm-none-eabi\include\c++\10.2.1\cmath ****   inline _GLIBCXX_CONSTEXPR long double
 148:c:\users\vincius\documents\daisytoolchain-0.3.1\windows\arm-none-eabi\include\c++\10.2.1\cmath ****   atan2(long double __y, long double __x)
 149:c:\users\vincius\documents\daisytoolchain-0.3.1\windows\arm-none-eabi\include\c++\10.2.1\cmath ****   { return __builtin_atan2l(__y, __x); }
 150:c:\users\vincius\documents\daisytoolchain-0.3.1\windows\arm-none-eabi\include\c++\10.2.1\cmath **** #endif
 151:c:\users\vincius\documents\daisytoolchain-0.3.1\windows\arm-none-eabi\include\c++\10.2.1\cmath **** 
 152:c:\users\vincius\documents\daisytoolchain-0.3.1\windows\arm-none-eabi\include\c++\10.2.1\cmath ****   template<typename _Tp, typename _Up>
 153:c:\users\vincius\documents\daisytoolchain-0.3.1\windows\arm-none-eabi\include\c++\10.2.1\cmath ****     inline _GLIBCXX_CONSTEXPR
 154:c:\users\vincius\documents\daisytoolchain-0.3.1\windows\arm-none-eabi\include\c++\10.2.1\cmath ****     typename __gnu_cxx::__promote_2<_Tp, _Up>::__type
 155:c:\users\vincius\documents\daisytoolchain-0.3.1\windows\arm-none-eabi\include\c++\10.2.1\cmath ****     atan2(_Tp __y, _Up __x)
 156:c:\users\vincius\documents\daisytoolchain-0.3.1\windows\arm-none-eabi\include\c++\10.2.1\cmath ****     {
 157:c:\users\vincius\documents\daisytoolchain-0.3.1\windows\arm-none-eabi\include\c++\10.2.1\cmath ****       typedef typename __gnu_cxx::__promote_2<_Tp, _Up>::__type __type;
 158:c:\users\vincius\documents\daisytoolchain-0.3.1\windows\arm-none-eabi\include\c++\10.2.1\cmath ****       return atan2(__type(__y), __type(__x));
 159:c:\users\vincius\documents\daisytoolchain-0.3.1\windows\arm-none-eabi\include\c++\10.2.1\cmath ****     }
 160:c:\users\vincius\documents\daisytoolchain-0.3.1\windows\arm-none-eabi\include\c++\10.2.1\cmath **** 
 161:c:\users\vincius\documents\daisytoolchain-0.3.1\windows\arm-none-eabi\include\c++\10.2.1\cmath ****   using ::ceil;
ARM GAS  C:\Users\VINCIU~1\AppData\Local\Temp\cc6F1pHH.s 			page 62


 162:c:\users\vincius\documents\daisytoolchain-0.3.1\windows\arm-none-eabi\include\c++\10.2.1\cmath **** 
 163:c:\users\vincius\documents\daisytoolchain-0.3.1\windows\arm-none-eabi\include\c++\10.2.1\cmath **** #ifndef __CORRECT_ISO_CPP_MATH_H_PROTO
 164:c:\users\vincius\documents\daisytoolchain-0.3.1\windows\arm-none-eabi\include\c++\10.2.1\cmath ****   inline _GLIBCXX_CONSTEXPR float
 165:c:\users\vincius\documents\daisytoolchain-0.3.1\windows\arm-none-eabi\include\c++\10.2.1\cmath ****   ceil(float __x)
 166:c:\users\vincius\documents\daisytoolchain-0.3.1\windows\arm-none-eabi\include\c++\10.2.1\cmath ****   { return __builtin_ceilf(__x); }
 167:c:\users\vincius\documents\daisytoolchain-0.3.1\windows\arm-none-eabi\include\c++\10.2.1\cmath **** 
 168:c:\users\vincius\documents\daisytoolchain-0.3.1\windows\arm-none-eabi\include\c++\10.2.1\cmath ****   inline _GLIBCXX_CONSTEXPR long double
 169:c:\users\vincius\documents\daisytoolchain-0.3.1\windows\arm-none-eabi\include\c++\10.2.1\cmath ****   ceil(long double __x)
 170:c:\users\vincius\documents\daisytoolchain-0.3.1\windows\arm-none-eabi\include\c++\10.2.1\cmath ****   { return __builtin_ceill(__x); }
 171:c:\users\vincius\documents\daisytoolchain-0.3.1\windows\arm-none-eabi\include\c++\10.2.1\cmath **** #endif
 172:c:\users\vincius\documents\daisytoolchain-0.3.1\windows\arm-none-eabi\include\c++\10.2.1\cmath **** 
 173:c:\users\vincius\documents\daisytoolchain-0.3.1\windows\arm-none-eabi\include\c++\10.2.1\cmath ****   template<typename _Tp>
 174:c:\users\vincius\documents\daisytoolchain-0.3.1\windows\arm-none-eabi\include\c++\10.2.1\cmath ****     inline _GLIBCXX_CONSTEXPR
 175:c:\users\vincius\documents\daisytoolchain-0.3.1\windows\arm-none-eabi\include\c++\10.2.1\cmath ****     typename __gnu_cxx::__enable_if<__is_integer<_Tp>::__value, 
 176:c:\users\vincius\documents\daisytoolchain-0.3.1\windows\arm-none-eabi\include\c++\10.2.1\cmath ****                                     double>::__type
 177:c:\users\vincius\documents\daisytoolchain-0.3.1\windows\arm-none-eabi\include\c++\10.2.1\cmath ****     ceil(_Tp __x)
 178:c:\users\vincius\documents\daisytoolchain-0.3.1\windows\arm-none-eabi\include\c++\10.2.1\cmath ****     { return __builtin_ceil(__x); }
 179:c:\users\vincius\documents\daisytoolchain-0.3.1\windows\arm-none-eabi\include\c++\10.2.1\cmath **** 
 180:c:\users\vincius\documents\daisytoolchain-0.3.1\windows\arm-none-eabi\include\c++\10.2.1\cmath ****   using ::cos;
 181:c:\users\vincius\documents\daisytoolchain-0.3.1\windows\arm-none-eabi\include\c++\10.2.1\cmath **** 
 182:c:\users\vincius\documents\daisytoolchain-0.3.1\windows\arm-none-eabi\include\c++\10.2.1\cmath **** #ifndef __CORRECT_ISO_CPP_MATH_H_PROTO
 183:c:\users\vincius\documents\daisytoolchain-0.3.1\windows\arm-none-eabi\include\c++\10.2.1\cmath ****   inline _GLIBCXX_CONSTEXPR float
 184:c:\users\vincius\documents\daisytoolchain-0.3.1\windows\arm-none-eabi\include\c++\10.2.1\cmath ****   cos(float __x)
 185:c:\users\vincius\documents\daisytoolchain-0.3.1\windows\arm-none-eabi\include\c++\10.2.1\cmath ****   { return __builtin_cosf(__x); }
 1750              		.loc 17 185 26 view .LVU370
 1751 0050 B0EE680A 		vmov.f32	s0, s17
 1752 0054 FFF7FEFF 		bl	cosf
 1753              	.LVL127:
 1754              		.loc 17 185 26 view .LVU371
 1755              	.LBE519:
 1756              	.LBE518:
 275:../../libdaisy/src/hid/disp/display.h ****         start_y = -sin(start_angle_rad) * radius;
 1757              		.loc 10 275 17 view .LVU372
 1758 0058 07EE907A 		vmov	s15, r7	@ int
 273:../../libdaisy/src/hid/disp/display.h **** 
 1759              		.loc 10 273 25 view .LVU373
 1760 005c B7EECAAB 		vcvt.f32.f64	s20, d10
 1761              	.LVL128:
 1762              	.LBB522:
 1763              	.LBI518:
 184:c:\users\vincius\documents\daisytoolchain-0.3.1\windows\arm-none-eabi\include\c++\10.2.1\cmath ****   { return __builtin_cosf(__x); }
 1764              		.loc 17 184 3 is_stmt 1 view .LVU374
 1765              	.LBB520:
 1766              		.loc 17 185 5 view .LVU375
 1767              		.loc 17 185 5 is_stmt 0 view .LVU376
 1768              	.LBE520:
 1769              	.LBE522:
 275:../../libdaisy/src/hid/disp/display.h ****         start_y = -sin(start_angle_rad) * radius;
 1770              		.loc 10 275 17 view .LVU377
 1771 0060 F8EE679A 		vcvt.f32.u32	s19, s15
 1772              	.LBB523:
 1773              	.LBB521:
 1774              		.loc 17 185 26 view .LVU378
 1775 0064 B0EE408A 		vmov.f32	s16, s0
 1776              	.LBE521:
 1777              	.LBE523:
 1778              	.LBB524:
ARM GAS  C:\Users\VINCIU~1\AppData\Local\Temp\cc6F1pHH.s 			page 63


 1779              	.LBB525:
 186:c:\users\vincius\documents\daisytoolchain-0.3.1\windows\arm-none-eabi\include\c++\10.2.1\cmath **** 
 187:c:\users\vincius\documents\daisytoolchain-0.3.1\windows\arm-none-eabi\include\c++\10.2.1\cmath ****   inline _GLIBCXX_CONSTEXPR long double
 188:c:\users\vincius\documents\daisytoolchain-0.3.1\windows\arm-none-eabi\include\c++\10.2.1\cmath ****   cos(long double __x)
 189:c:\users\vincius\documents\daisytoolchain-0.3.1\windows\arm-none-eabi\include\c++\10.2.1\cmath ****   { return __builtin_cosl(__x); }
 190:c:\users\vincius\documents\daisytoolchain-0.3.1\windows\arm-none-eabi\include\c++\10.2.1\cmath **** #endif
 191:c:\users\vincius\documents\daisytoolchain-0.3.1\windows\arm-none-eabi\include\c++\10.2.1\cmath **** 
 192:c:\users\vincius\documents\daisytoolchain-0.3.1\windows\arm-none-eabi\include\c++\10.2.1\cmath ****   template<typename _Tp>
 193:c:\users\vincius\documents\daisytoolchain-0.3.1\windows\arm-none-eabi\include\c++\10.2.1\cmath ****     inline _GLIBCXX_CONSTEXPR
 194:c:\users\vincius\documents\daisytoolchain-0.3.1\windows\arm-none-eabi\include\c++\10.2.1\cmath ****     typename __gnu_cxx::__enable_if<__is_integer<_Tp>::__value,
 195:c:\users\vincius\documents\daisytoolchain-0.3.1\windows\arm-none-eabi\include\c++\10.2.1\cmath ****                                     double>::__type
 196:c:\users\vincius\documents\daisytoolchain-0.3.1\windows\arm-none-eabi\include\c++\10.2.1\cmath ****     cos(_Tp __x)
 197:c:\users\vincius\documents\daisytoolchain-0.3.1\windows\arm-none-eabi\include\c++\10.2.1\cmath ****     { return __builtin_cos(__x); }
 198:c:\users\vincius\documents\daisytoolchain-0.3.1\windows\arm-none-eabi\include\c++\10.2.1\cmath **** 
 199:c:\users\vincius\documents\daisytoolchain-0.3.1\windows\arm-none-eabi\include\c++\10.2.1\cmath ****   using ::cosh;
 200:c:\users\vincius\documents\daisytoolchain-0.3.1\windows\arm-none-eabi\include\c++\10.2.1\cmath **** 
 201:c:\users\vincius\documents\daisytoolchain-0.3.1\windows\arm-none-eabi\include\c++\10.2.1\cmath **** #ifndef __CORRECT_ISO_CPP_MATH_H_PROTO
 202:c:\users\vincius\documents\daisytoolchain-0.3.1\windows\arm-none-eabi\include\c++\10.2.1\cmath ****   inline _GLIBCXX_CONSTEXPR float
 203:c:\users\vincius\documents\daisytoolchain-0.3.1\windows\arm-none-eabi\include\c++\10.2.1\cmath ****   cosh(float __x)
 204:c:\users\vincius\documents\daisytoolchain-0.3.1\windows\arm-none-eabi\include\c++\10.2.1\cmath ****   { return __builtin_coshf(__x); }
 205:c:\users\vincius\documents\daisytoolchain-0.3.1\windows\arm-none-eabi\include\c++\10.2.1\cmath **** 
 206:c:\users\vincius\documents\daisytoolchain-0.3.1\windows\arm-none-eabi\include\c++\10.2.1\cmath ****   inline _GLIBCXX_CONSTEXPR long double
 207:c:\users\vincius\documents\daisytoolchain-0.3.1\windows\arm-none-eabi\include\c++\10.2.1\cmath ****   cosh(long double __x)
 208:c:\users\vincius\documents\daisytoolchain-0.3.1\windows\arm-none-eabi\include\c++\10.2.1\cmath ****   { return __builtin_coshl(__x); }
 209:c:\users\vincius\documents\daisytoolchain-0.3.1\windows\arm-none-eabi\include\c++\10.2.1\cmath **** #endif
 210:c:\users\vincius\documents\daisytoolchain-0.3.1\windows\arm-none-eabi\include\c++\10.2.1\cmath **** 
 211:c:\users\vincius\documents\daisytoolchain-0.3.1\windows\arm-none-eabi\include\c++\10.2.1\cmath ****   template<typename _Tp>
 212:c:\users\vincius\documents\daisytoolchain-0.3.1\windows\arm-none-eabi\include\c++\10.2.1\cmath ****     inline _GLIBCXX_CONSTEXPR
 213:c:\users\vincius\documents\daisytoolchain-0.3.1\windows\arm-none-eabi\include\c++\10.2.1\cmath ****     typename __gnu_cxx::__enable_if<__is_integer<_Tp>::__value,
 214:c:\users\vincius\documents\daisytoolchain-0.3.1\windows\arm-none-eabi\include\c++\10.2.1\cmath ****                                     double>::__type
 215:c:\users\vincius\documents\daisytoolchain-0.3.1\windows\arm-none-eabi\include\c++\10.2.1\cmath ****     cosh(_Tp __x)
 216:c:\users\vincius\documents\daisytoolchain-0.3.1\windows\arm-none-eabi\include\c++\10.2.1\cmath ****     { return __builtin_cosh(__x); }
 217:c:\users\vincius\documents\daisytoolchain-0.3.1\windows\arm-none-eabi\include\c++\10.2.1\cmath **** 
 218:c:\users\vincius\documents\daisytoolchain-0.3.1\windows\arm-none-eabi\include\c++\10.2.1\cmath ****   using ::exp;
 219:c:\users\vincius\documents\daisytoolchain-0.3.1\windows\arm-none-eabi\include\c++\10.2.1\cmath **** 
 220:c:\users\vincius\documents\daisytoolchain-0.3.1\windows\arm-none-eabi\include\c++\10.2.1\cmath **** #ifndef __CORRECT_ISO_CPP_MATH_H_PROTO
 221:c:\users\vincius\documents\daisytoolchain-0.3.1\windows\arm-none-eabi\include\c++\10.2.1\cmath ****   inline _GLIBCXX_CONSTEXPR float
 222:c:\users\vincius\documents\daisytoolchain-0.3.1\windows\arm-none-eabi\include\c++\10.2.1\cmath ****   exp(float __x)
 223:c:\users\vincius\documents\daisytoolchain-0.3.1\windows\arm-none-eabi\include\c++\10.2.1\cmath ****   { return __builtin_expf(__x); }
 224:c:\users\vincius\documents\daisytoolchain-0.3.1\windows\arm-none-eabi\include\c++\10.2.1\cmath **** 
 225:c:\users\vincius\documents\daisytoolchain-0.3.1\windows\arm-none-eabi\include\c++\10.2.1\cmath ****   inline _GLIBCXX_CONSTEXPR long double
 226:c:\users\vincius\documents\daisytoolchain-0.3.1\windows\arm-none-eabi\include\c++\10.2.1\cmath ****   exp(long double __x)
 227:c:\users\vincius\documents\daisytoolchain-0.3.1\windows\arm-none-eabi\include\c++\10.2.1\cmath ****   { return __builtin_expl(__x); }
 228:c:\users\vincius\documents\daisytoolchain-0.3.1\windows\arm-none-eabi\include\c++\10.2.1\cmath **** #endif
 229:c:\users\vincius\documents\daisytoolchain-0.3.1\windows\arm-none-eabi\include\c++\10.2.1\cmath **** 
 230:c:\users\vincius\documents\daisytoolchain-0.3.1\windows\arm-none-eabi\include\c++\10.2.1\cmath ****   template<typename _Tp>
 231:c:\users\vincius\documents\daisytoolchain-0.3.1\windows\arm-none-eabi\include\c++\10.2.1\cmath ****     inline _GLIBCXX_CONSTEXPR
 232:c:\users\vincius\documents\daisytoolchain-0.3.1\windows\arm-none-eabi\include\c++\10.2.1\cmath ****     typename __gnu_cxx::__enable_if<__is_integer<_Tp>::__value,
 233:c:\users\vincius\documents\daisytoolchain-0.3.1\windows\arm-none-eabi\include\c++\10.2.1\cmath ****                                     double>::__type
 234:c:\users\vincius\documents\daisytoolchain-0.3.1\windows\arm-none-eabi\include\c++\10.2.1\cmath ****     exp(_Tp __x)
 235:c:\users\vincius\documents\daisytoolchain-0.3.1\windows\arm-none-eabi\include\c++\10.2.1\cmath ****     { return __builtin_exp(__x); }
 236:c:\users\vincius\documents\daisytoolchain-0.3.1\windows\arm-none-eabi\include\c++\10.2.1\cmath **** 
 237:c:\users\vincius\documents\daisytoolchain-0.3.1\windows\arm-none-eabi\include\c++\10.2.1\cmath ****   using ::fabs;
 238:c:\users\vincius\documents\daisytoolchain-0.3.1\windows\arm-none-eabi\include\c++\10.2.1\cmath **** 
 239:c:\users\vincius\documents\daisytoolchain-0.3.1\windows\arm-none-eabi\include\c++\10.2.1\cmath **** #ifndef __CORRECT_ISO_CPP_MATH_H_PROTO
 240:c:\users\vincius\documents\daisytoolchain-0.3.1\windows\arm-none-eabi\include\c++\10.2.1\cmath ****   inline _GLIBCXX_CONSTEXPR float
 241:c:\users\vincius\documents\daisytoolchain-0.3.1\windows\arm-none-eabi\include\c++\10.2.1\cmath ****   fabs(float __x)
ARM GAS  C:\Users\VINCIU~1\AppData\Local\Temp\cc6F1pHH.s 			page 64


 242:c:\users\vincius\documents\daisytoolchain-0.3.1\windows\arm-none-eabi\include\c++\10.2.1\cmath ****   { return __builtin_fabsf(__x); }
 243:c:\users\vincius\documents\daisytoolchain-0.3.1\windows\arm-none-eabi\include\c++\10.2.1\cmath **** 
 244:c:\users\vincius\documents\daisytoolchain-0.3.1\windows\arm-none-eabi\include\c++\10.2.1\cmath ****   inline _GLIBCXX_CONSTEXPR long double
 245:c:\users\vincius\documents\daisytoolchain-0.3.1\windows\arm-none-eabi\include\c++\10.2.1\cmath ****   fabs(long double __x)
 246:c:\users\vincius\documents\daisytoolchain-0.3.1\windows\arm-none-eabi\include\c++\10.2.1\cmath ****   { return __builtin_fabsl(__x); }
 247:c:\users\vincius\documents\daisytoolchain-0.3.1\windows\arm-none-eabi\include\c++\10.2.1\cmath **** #endif
 248:c:\users\vincius\documents\daisytoolchain-0.3.1\windows\arm-none-eabi\include\c++\10.2.1\cmath **** 
 249:c:\users\vincius\documents\daisytoolchain-0.3.1\windows\arm-none-eabi\include\c++\10.2.1\cmath ****   template<typename _Tp>
 250:c:\users\vincius\documents\daisytoolchain-0.3.1\windows\arm-none-eabi\include\c++\10.2.1\cmath ****     inline _GLIBCXX_CONSTEXPR
 251:c:\users\vincius\documents\daisytoolchain-0.3.1\windows\arm-none-eabi\include\c++\10.2.1\cmath ****     typename __gnu_cxx::__enable_if<__is_integer<_Tp>::__value,
 252:c:\users\vincius\documents\daisytoolchain-0.3.1\windows\arm-none-eabi\include\c++\10.2.1\cmath ****                                     double>::__type
 253:c:\users\vincius\documents\daisytoolchain-0.3.1\windows\arm-none-eabi\include\c++\10.2.1\cmath ****     fabs(_Tp __x)
 254:c:\users\vincius\documents\daisytoolchain-0.3.1\windows\arm-none-eabi\include\c++\10.2.1\cmath ****     { return __builtin_fabs(__x); }
 255:c:\users\vincius\documents\daisytoolchain-0.3.1\windows\arm-none-eabi\include\c++\10.2.1\cmath **** 
 256:c:\users\vincius\documents\daisytoolchain-0.3.1\windows\arm-none-eabi\include\c++\10.2.1\cmath ****   using ::floor;
 257:c:\users\vincius\documents\daisytoolchain-0.3.1\windows\arm-none-eabi\include\c++\10.2.1\cmath **** 
 258:c:\users\vincius\documents\daisytoolchain-0.3.1\windows\arm-none-eabi\include\c++\10.2.1\cmath **** #ifndef __CORRECT_ISO_CPP_MATH_H_PROTO
 259:c:\users\vincius\documents\daisytoolchain-0.3.1\windows\arm-none-eabi\include\c++\10.2.1\cmath ****   inline _GLIBCXX_CONSTEXPR float
 260:c:\users\vincius\documents\daisytoolchain-0.3.1\windows\arm-none-eabi\include\c++\10.2.1\cmath ****   floor(float __x)
 261:c:\users\vincius\documents\daisytoolchain-0.3.1\windows\arm-none-eabi\include\c++\10.2.1\cmath ****   { return __builtin_floorf(__x); }
 262:c:\users\vincius\documents\daisytoolchain-0.3.1\windows\arm-none-eabi\include\c++\10.2.1\cmath **** 
 263:c:\users\vincius\documents\daisytoolchain-0.3.1\windows\arm-none-eabi\include\c++\10.2.1\cmath ****   inline _GLIBCXX_CONSTEXPR long double
 264:c:\users\vincius\documents\daisytoolchain-0.3.1\windows\arm-none-eabi\include\c++\10.2.1\cmath ****   floor(long double __x)
 265:c:\users\vincius\documents\daisytoolchain-0.3.1\windows\arm-none-eabi\include\c++\10.2.1\cmath ****   { return __builtin_floorl(__x); }
 266:c:\users\vincius\documents\daisytoolchain-0.3.1\windows\arm-none-eabi\include\c++\10.2.1\cmath **** #endif
 267:c:\users\vincius\documents\daisytoolchain-0.3.1\windows\arm-none-eabi\include\c++\10.2.1\cmath **** 
 268:c:\users\vincius\documents\daisytoolchain-0.3.1\windows\arm-none-eabi\include\c++\10.2.1\cmath ****   template<typename _Tp>
 269:c:\users\vincius\documents\daisytoolchain-0.3.1\windows\arm-none-eabi\include\c++\10.2.1\cmath ****     inline _GLIBCXX_CONSTEXPR
 270:c:\users\vincius\documents\daisytoolchain-0.3.1\windows\arm-none-eabi\include\c++\10.2.1\cmath ****     typename __gnu_cxx::__enable_if<__is_integer<_Tp>::__value,
 271:c:\users\vincius\documents\daisytoolchain-0.3.1\windows\arm-none-eabi\include\c++\10.2.1\cmath ****                                     double>::__type
 272:c:\users\vincius\documents\daisytoolchain-0.3.1\windows\arm-none-eabi\include\c++\10.2.1\cmath ****     floor(_Tp __x)
 273:c:\users\vincius\documents\daisytoolchain-0.3.1\windows\arm-none-eabi\include\c++\10.2.1\cmath ****     { return __builtin_floor(__x); }
 274:c:\users\vincius\documents\daisytoolchain-0.3.1\windows\arm-none-eabi\include\c++\10.2.1\cmath **** 
 275:c:\users\vincius\documents\daisytoolchain-0.3.1\windows\arm-none-eabi\include\c++\10.2.1\cmath ****   using ::fmod;
 276:c:\users\vincius\documents\daisytoolchain-0.3.1\windows\arm-none-eabi\include\c++\10.2.1\cmath **** 
 277:c:\users\vincius\documents\daisytoolchain-0.3.1\windows\arm-none-eabi\include\c++\10.2.1\cmath **** #ifndef __CORRECT_ISO_CPP_MATH_H_PROTO
 278:c:\users\vincius\documents\daisytoolchain-0.3.1\windows\arm-none-eabi\include\c++\10.2.1\cmath ****   inline _GLIBCXX_CONSTEXPR float
 279:c:\users\vincius\documents\daisytoolchain-0.3.1\windows\arm-none-eabi\include\c++\10.2.1\cmath ****   fmod(float __x, float __y)
 280:c:\users\vincius\documents\daisytoolchain-0.3.1\windows\arm-none-eabi\include\c++\10.2.1\cmath ****   { return __builtin_fmodf(__x, __y); }
 281:c:\users\vincius\documents\daisytoolchain-0.3.1\windows\arm-none-eabi\include\c++\10.2.1\cmath **** 
 282:c:\users\vincius\documents\daisytoolchain-0.3.1\windows\arm-none-eabi\include\c++\10.2.1\cmath ****   inline _GLIBCXX_CONSTEXPR long double
 283:c:\users\vincius\documents\daisytoolchain-0.3.1\windows\arm-none-eabi\include\c++\10.2.1\cmath ****   fmod(long double __x, long double __y)
 284:c:\users\vincius\documents\daisytoolchain-0.3.1\windows\arm-none-eabi\include\c++\10.2.1\cmath ****   { return __builtin_fmodl(__x, __y); }
 285:c:\users\vincius\documents\daisytoolchain-0.3.1\windows\arm-none-eabi\include\c++\10.2.1\cmath **** #endif
 286:c:\users\vincius\documents\daisytoolchain-0.3.1\windows\arm-none-eabi\include\c++\10.2.1\cmath **** 
 287:c:\users\vincius\documents\daisytoolchain-0.3.1\windows\arm-none-eabi\include\c++\10.2.1\cmath ****   template<typename _Tp, typename _Up>
 288:c:\users\vincius\documents\daisytoolchain-0.3.1\windows\arm-none-eabi\include\c++\10.2.1\cmath ****     inline _GLIBCXX_CONSTEXPR
 289:c:\users\vincius\documents\daisytoolchain-0.3.1\windows\arm-none-eabi\include\c++\10.2.1\cmath ****     typename __gnu_cxx::__promote_2<_Tp, _Up>::__type
 290:c:\users\vincius\documents\daisytoolchain-0.3.1\windows\arm-none-eabi\include\c++\10.2.1\cmath ****     fmod(_Tp __x, _Up __y)
 291:c:\users\vincius\documents\daisytoolchain-0.3.1\windows\arm-none-eabi\include\c++\10.2.1\cmath ****     {
 292:c:\users\vincius\documents\daisytoolchain-0.3.1\windows\arm-none-eabi\include\c++\10.2.1\cmath ****       typedef typename __gnu_cxx::__promote_2<_Tp, _Up>::__type __type;
 293:c:\users\vincius\documents\daisytoolchain-0.3.1\windows\arm-none-eabi\include\c++\10.2.1\cmath ****       return fmod(__type(__x), __type(__y));
 294:c:\users\vincius\documents\daisytoolchain-0.3.1\windows\arm-none-eabi\include\c++\10.2.1\cmath ****     }
 295:c:\users\vincius\documents\daisytoolchain-0.3.1\windows\arm-none-eabi\include\c++\10.2.1\cmath **** 
 296:c:\users\vincius\documents\daisytoolchain-0.3.1\windows\arm-none-eabi\include\c++\10.2.1\cmath ****   using ::frexp;
 297:c:\users\vincius\documents\daisytoolchain-0.3.1\windows\arm-none-eabi\include\c++\10.2.1\cmath **** 
 298:c:\users\vincius\documents\daisytoolchain-0.3.1\windows\arm-none-eabi\include\c++\10.2.1\cmath **** #ifndef __CORRECT_ISO_CPP_MATH_H_PROTO
ARM GAS  C:\Users\VINCIU~1\AppData\Local\Temp\cc6F1pHH.s 			page 65


 299:c:\users\vincius\documents\daisytoolchain-0.3.1\windows\arm-none-eabi\include\c++\10.2.1\cmath ****   inline float
 300:c:\users\vincius\documents\daisytoolchain-0.3.1\windows\arm-none-eabi\include\c++\10.2.1\cmath ****   frexp(float __x, int* __exp)
 301:c:\users\vincius\documents\daisytoolchain-0.3.1\windows\arm-none-eabi\include\c++\10.2.1\cmath ****   { return __builtin_frexpf(__x, __exp); }
 302:c:\users\vincius\documents\daisytoolchain-0.3.1\windows\arm-none-eabi\include\c++\10.2.1\cmath **** 
 303:c:\users\vincius\documents\daisytoolchain-0.3.1\windows\arm-none-eabi\include\c++\10.2.1\cmath ****   inline long double
 304:c:\users\vincius\documents\daisytoolchain-0.3.1\windows\arm-none-eabi\include\c++\10.2.1\cmath ****   frexp(long double __x, int* __exp)
 305:c:\users\vincius\documents\daisytoolchain-0.3.1\windows\arm-none-eabi\include\c++\10.2.1\cmath ****   { return __builtin_frexpl(__x, __exp); }
 306:c:\users\vincius\documents\daisytoolchain-0.3.1\windows\arm-none-eabi\include\c++\10.2.1\cmath **** #endif
 307:c:\users\vincius\documents\daisytoolchain-0.3.1\windows\arm-none-eabi\include\c++\10.2.1\cmath **** 
 308:c:\users\vincius\documents\daisytoolchain-0.3.1\windows\arm-none-eabi\include\c++\10.2.1\cmath ****   template<typename _Tp>
 309:c:\users\vincius\documents\daisytoolchain-0.3.1\windows\arm-none-eabi\include\c++\10.2.1\cmath ****     inline _GLIBCXX_CONSTEXPR
 310:c:\users\vincius\documents\daisytoolchain-0.3.1\windows\arm-none-eabi\include\c++\10.2.1\cmath ****     typename __gnu_cxx::__enable_if<__is_integer<_Tp>::__value, 
 311:c:\users\vincius\documents\daisytoolchain-0.3.1\windows\arm-none-eabi\include\c++\10.2.1\cmath ****                                     double>::__type
 312:c:\users\vincius\documents\daisytoolchain-0.3.1\windows\arm-none-eabi\include\c++\10.2.1\cmath ****     frexp(_Tp __x, int* __exp)
 313:c:\users\vincius\documents\daisytoolchain-0.3.1\windows\arm-none-eabi\include\c++\10.2.1\cmath ****     { return __builtin_frexp(__x, __exp); }
 314:c:\users\vincius\documents\daisytoolchain-0.3.1\windows\arm-none-eabi\include\c++\10.2.1\cmath **** 
 315:c:\users\vincius\documents\daisytoolchain-0.3.1\windows\arm-none-eabi\include\c++\10.2.1\cmath ****   using ::ldexp;
 316:c:\users\vincius\documents\daisytoolchain-0.3.1\windows\arm-none-eabi\include\c++\10.2.1\cmath **** 
 317:c:\users\vincius\documents\daisytoolchain-0.3.1\windows\arm-none-eabi\include\c++\10.2.1\cmath **** #ifndef __CORRECT_ISO_CPP_MATH_H_PROTO
 318:c:\users\vincius\documents\daisytoolchain-0.3.1\windows\arm-none-eabi\include\c++\10.2.1\cmath ****   inline _GLIBCXX_CONSTEXPR float
 319:c:\users\vincius\documents\daisytoolchain-0.3.1\windows\arm-none-eabi\include\c++\10.2.1\cmath ****   ldexp(float __x, int __exp)
 320:c:\users\vincius\documents\daisytoolchain-0.3.1\windows\arm-none-eabi\include\c++\10.2.1\cmath ****   { return __builtin_ldexpf(__x, __exp); }
 321:c:\users\vincius\documents\daisytoolchain-0.3.1\windows\arm-none-eabi\include\c++\10.2.1\cmath **** 
 322:c:\users\vincius\documents\daisytoolchain-0.3.1\windows\arm-none-eabi\include\c++\10.2.1\cmath ****   inline _GLIBCXX_CONSTEXPR long double
 323:c:\users\vincius\documents\daisytoolchain-0.3.1\windows\arm-none-eabi\include\c++\10.2.1\cmath ****   ldexp(long double __x, int __exp)
 324:c:\users\vincius\documents\daisytoolchain-0.3.1\windows\arm-none-eabi\include\c++\10.2.1\cmath ****   { return __builtin_ldexpl(__x, __exp); }
 325:c:\users\vincius\documents\daisytoolchain-0.3.1\windows\arm-none-eabi\include\c++\10.2.1\cmath **** #endif
 326:c:\users\vincius\documents\daisytoolchain-0.3.1\windows\arm-none-eabi\include\c++\10.2.1\cmath **** 
 327:c:\users\vincius\documents\daisytoolchain-0.3.1\windows\arm-none-eabi\include\c++\10.2.1\cmath ****   template<typename _Tp>
 328:c:\users\vincius\documents\daisytoolchain-0.3.1\windows\arm-none-eabi\include\c++\10.2.1\cmath ****     inline _GLIBCXX_CONSTEXPR
 329:c:\users\vincius\documents\daisytoolchain-0.3.1\windows\arm-none-eabi\include\c++\10.2.1\cmath ****     typename __gnu_cxx::__enable_if<__is_integer<_Tp>::__value, 
 330:c:\users\vincius\documents\daisytoolchain-0.3.1\windows\arm-none-eabi\include\c++\10.2.1\cmath ****                                     double>::__type
 331:c:\users\vincius\documents\daisytoolchain-0.3.1\windows\arm-none-eabi\include\c++\10.2.1\cmath ****     ldexp(_Tp __x, int __exp)
 332:c:\users\vincius\documents\daisytoolchain-0.3.1\windows\arm-none-eabi\include\c++\10.2.1\cmath ****     { return __builtin_ldexp(__x, __exp); }
 333:c:\users\vincius\documents\daisytoolchain-0.3.1\windows\arm-none-eabi\include\c++\10.2.1\cmath **** 
 334:c:\users\vincius\documents\daisytoolchain-0.3.1\windows\arm-none-eabi\include\c++\10.2.1\cmath ****   using ::log;
 335:c:\users\vincius\documents\daisytoolchain-0.3.1\windows\arm-none-eabi\include\c++\10.2.1\cmath **** 
 336:c:\users\vincius\documents\daisytoolchain-0.3.1\windows\arm-none-eabi\include\c++\10.2.1\cmath **** #ifndef __CORRECT_ISO_CPP_MATH_H_PROTO
 337:c:\users\vincius\documents\daisytoolchain-0.3.1\windows\arm-none-eabi\include\c++\10.2.1\cmath ****   inline _GLIBCXX_CONSTEXPR float
 338:c:\users\vincius\documents\daisytoolchain-0.3.1\windows\arm-none-eabi\include\c++\10.2.1\cmath ****   log(float __x)
 339:c:\users\vincius\documents\daisytoolchain-0.3.1\windows\arm-none-eabi\include\c++\10.2.1\cmath ****   { return __builtin_logf(__x); }
 340:c:\users\vincius\documents\daisytoolchain-0.3.1\windows\arm-none-eabi\include\c++\10.2.1\cmath **** 
 341:c:\users\vincius\documents\daisytoolchain-0.3.1\windows\arm-none-eabi\include\c++\10.2.1\cmath ****   inline _GLIBCXX_CONSTEXPR long double
 342:c:\users\vincius\documents\daisytoolchain-0.3.1\windows\arm-none-eabi\include\c++\10.2.1\cmath ****   log(long double __x)
 343:c:\users\vincius\documents\daisytoolchain-0.3.1\windows\arm-none-eabi\include\c++\10.2.1\cmath ****   { return __builtin_logl(__x); }
 344:c:\users\vincius\documents\daisytoolchain-0.3.1\windows\arm-none-eabi\include\c++\10.2.1\cmath **** #endif
 345:c:\users\vincius\documents\daisytoolchain-0.3.1\windows\arm-none-eabi\include\c++\10.2.1\cmath **** 
 346:c:\users\vincius\documents\daisytoolchain-0.3.1\windows\arm-none-eabi\include\c++\10.2.1\cmath ****   template<typename _Tp>
 347:c:\users\vincius\documents\daisytoolchain-0.3.1\windows\arm-none-eabi\include\c++\10.2.1\cmath ****     inline _GLIBCXX_CONSTEXPR
 348:c:\users\vincius\documents\daisytoolchain-0.3.1\windows\arm-none-eabi\include\c++\10.2.1\cmath ****     typename __gnu_cxx::__enable_if<__is_integer<_Tp>::__value, 
 349:c:\users\vincius\documents\daisytoolchain-0.3.1\windows\arm-none-eabi\include\c++\10.2.1\cmath ****                                     double>::__type
 350:c:\users\vincius\documents\daisytoolchain-0.3.1\windows\arm-none-eabi\include\c++\10.2.1\cmath ****     log(_Tp __x)
 351:c:\users\vincius\documents\daisytoolchain-0.3.1\windows\arm-none-eabi\include\c++\10.2.1\cmath ****     { return __builtin_log(__x); }
 352:c:\users\vincius\documents\daisytoolchain-0.3.1\windows\arm-none-eabi\include\c++\10.2.1\cmath **** 
 353:c:\users\vincius\documents\daisytoolchain-0.3.1\windows\arm-none-eabi\include\c++\10.2.1\cmath ****   using ::log10;
 354:c:\users\vincius\documents\daisytoolchain-0.3.1\windows\arm-none-eabi\include\c++\10.2.1\cmath **** 
 355:c:\users\vincius\documents\daisytoolchain-0.3.1\windows\arm-none-eabi\include\c++\10.2.1\cmath **** #ifndef __CORRECT_ISO_CPP_MATH_H_PROTO
ARM GAS  C:\Users\VINCIU~1\AppData\Local\Temp\cc6F1pHH.s 			page 66


 356:c:\users\vincius\documents\daisytoolchain-0.3.1\windows\arm-none-eabi\include\c++\10.2.1\cmath ****   inline _GLIBCXX_CONSTEXPR float
 357:c:\users\vincius\documents\daisytoolchain-0.3.1\windows\arm-none-eabi\include\c++\10.2.1\cmath ****   log10(float __x)
 358:c:\users\vincius\documents\daisytoolchain-0.3.1\windows\arm-none-eabi\include\c++\10.2.1\cmath ****   { return __builtin_log10f(__x); }
 359:c:\users\vincius\documents\daisytoolchain-0.3.1\windows\arm-none-eabi\include\c++\10.2.1\cmath **** 
 360:c:\users\vincius\documents\daisytoolchain-0.3.1\windows\arm-none-eabi\include\c++\10.2.1\cmath ****   inline _GLIBCXX_CONSTEXPR long double
 361:c:\users\vincius\documents\daisytoolchain-0.3.1\windows\arm-none-eabi\include\c++\10.2.1\cmath ****   log10(long double __x)
 362:c:\users\vincius\documents\daisytoolchain-0.3.1\windows\arm-none-eabi\include\c++\10.2.1\cmath ****   { return __builtin_log10l(__x); }
 363:c:\users\vincius\documents\daisytoolchain-0.3.1\windows\arm-none-eabi\include\c++\10.2.1\cmath **** #endif
 364:c:\users\vincius\documents\daisytoolchain-0.3.1\windows\arm-none-eabi\include\c++\10.2.1\cmath **** 
 365:c:\users\vincius\documents\daisytoolchain-0.3.1\windows\arm-none-eabi\include\c++\10.2.1\cmath ****   template<typename _Tp>
 366:c:\users\vincius\documents\daisytoolchain-0.3.1\windows\arm-none-eabi\include\c++\10.2.1\cmath ****     inline _GLIBCXX_CONSTEXPR
 367:c:\users\vincius\documents\daisytoolchain-0.3.1\windows\arm-none-eabi\include\c++\10.2.1\cmath ****     typename __gnu_cxx::__enable_if<__is_integer<_Tp>::__value,
 368:c:\users\vincius\documents\daisytoolchain-0.3.1\windows\arm-none-eabi\include\c++\10.2.1\cmath ****                                     double>::__type
 369:c:\users\vincius\documents\daisytoolchain-0.3.1\windows\arm-none-eabi\include\c++\10.2.1\cmath ****     log10(_Tp __x)
 370:c:\users\vincius\documents\daisytoolchain-0.3.1\windows\arm-none-eabi\include\c++\10.2.1\cmath ****     { return __builtin_log10(__x); }
 371:c:\users\vincius\documents\daisytoolchain-0.3.1\windows\arm-none-eabi\include\c++\10.2.1\cmath **** 
 372:c:\users\vincius\documents\daisytoolchain-0.3.1\windows\arm-none-eabi\include\c++\10.2.1\cmath ****   using ::modf;
 373:c:\users\vincius\documents\daisytoolchain-0.3.1\windows\arm-none-eabi\include\c++\10.2.1\cmath **** 
 374:c:\users\vincius\documents\daisytoolchain-0.3.1\windows\arm-none-eabi\include\c++\10.2.1\cmath **** #ifndef __CORRECT_ISO_CPP_MATH_H_PROTO
 375:c:\users\vincius\documents\daisytoolchain-0.3.1\windows\arm-none-eabi\include\c++\10.2.1\cmath ****   inline float
 376:c:\users\vincius\documents\daisytoolchain-0.3.1\windows\arm-none-eabi\include\c++\10.2.1\cmath ****   modf(float __x, float* __iptr)
 377:c:\users\vincius\documents\daisytoolchain-0.3.1\windows\arm-none-eabi\include\c++\10.2.1\cmath ****   { return __builtin_modff(__x, __iptr); }
 378:c:\users\vincius\documents\daisytoolchain-0.3.1\windows\arm-none-eabi\include\c++\10.2.1\cmath **** 
 379:c:\users\vincius\documents\daisytoolchain-0.3.1\windows\arm-none-eabi\include\c++\10.2.1\cmath ****   inline long double
 380:c:\users\vincius\documents\daisytoolchain-0.3.1\windows\arm-none-eabi\include\c++\10.2.1\cmath ****   modf(long double __x, long double* __iptr)
 381:c:\users\vincius\documents\daisytoolchain-0.3.1\windows\arm-none-eabi\include\c++\10.2.1\cmath ****   { return __builtin_modfl(__x, __iptr); }
 382:c:\users\vincius\documents\daisytoolchain-0.3.1\windows\arm-none-eabi\include\c++\10.2.1\cmath **** #endif
 383:c:\users\vincius\documents\daisytoolchain-0.3.1\windows\arm-none-eabi\include\c++\10.2.1\cmath **** 
 384:c:\users\vincius\documents\daisytoolchain-0.3.1\windows\arm-none-eabi\include\c++\10.2.1\cmath ****   using ::pow;
 385:c:\users\vincius\documents\daisytoolchain-0.3.1\windows\arm-none-eabi\include\c++\10.2.1\cmath **** 
 386:c:\users\vincius\documents\daisytoolchain-0.3.1\windows\arm-none-eabi\include\c++\10.2.1\cmath **** #ifndef __CORRECT_ISO_CPP_MATH_H_PROTO
 387:c:\users\vincius\documents\daisytoolchain-0.3.1\windows\arm-none-eabi\include\c++\10.2.1\cmath ****   inline _GLIBCXX_CONSTEXPR float
 388:c:\users\vincius\documents\daisytoolchain-0.3.1\windows\arm-none-eabi\include\c++\10.2.1\cmath ****   pow(float __x, float __y)
 389:c:\users\vincius\documents\daisytoolchain-0.3.1\windows\arm-none-eabi\include\c++\10.2.1\cmath ****   { return __builtin_powf(__x, __y); }
 390:c:\users\vincius\documents\daisytoolchain-0.3.1\windows\arm-none-eabi\include\c++\10.2.1\cmath **** 
 391:c:\users\vincius\documents\daisytoolchain-0.3.1\windows\arm-none-eabi\include\c++\10.2.1\cmath ****   inline _GLIBCXX_CONSTEXPR long double
 392:c:\users\vincius\documents\daisytoolchain-0.3.1\windows\arm-none-eabi\include\c++\10.2.1\cmath ****   pow(long double __x, long double __y)
 393:c:\users\vincius\documents\daisytoolchain-0.3.1\windows\arm-none-eabi\include\c++\10.2.1\cmath ****   { return __builtin_powl(__x, __y); }
 394:c:\users\vincius\documents\daisytoolchain-0.3.1\windows\arm-none-eabi\include\c++\10.2.1\cmath **** 
 395:c:\users\vincius\documents\daisytoolchain-0.3.1\windows\arm-none-eabi\include\c++\10.2.1\cmath **** #if __cplusplus < 201103L
 396:c:\users\vincius\documents\daisytoolchain-0.3.1\windows\arm-none-eabi\include\c++\10.2.1\cmath ****   // _GLIBCXX_RESOLVE_LIB_DEFECTS
 397:c:\users\vincius\documents\daisytoolchain-0.3.1\windows\arm-none-eabi\include\c++\10.2.1\cmath ****   // DR 550. What should the return type of pow(float,int) be?
 398:c:\users\vincius\documents\daisytoolchain-0.3.1\windows\arm-none-eabi\include\c++\10.2.1\cmath ****   inline double
 399:c:\users\vincius\documents\daisytoolchain-0.3.1\windows\arm-none-eabi\include\c++\10.2.1\cmath ****   pow(double __x, int __i)
 400:c:\users\vincius\documents\daisytoolchain-0.3.1\windows\arm-none-eabi\include\c++\10.2.1\cmath ****   { return __builtin_powi(__x, __i); }
 401:c:\users\vincius\documents\daisytoolchain-0.3.1\windows\arm-none-eabi\include\c++\10.2.1\cmath **** 
 402:c:\users\vincius\documents\daisytoolchain-0.3.1\windows\arm-none-eabi\include\c++\10.2.1\cmath ****   inline float
 403:c:\users\vincius\documents\daisytoolchain-0.3.1\windows\arm-none-eabi\include\c++\10.2.1\cmath ****   pow(float __x, int __n)
 404:c:\users\vincius\documents\daisytoolchain-0.3.1\windows\arm-none-eabi\include\c++\10.2.1\cmath ****   { return __builtin_powif(__x, __n); }
 405:c:\users\vincius\documents\daisytoolchain-0.3.1\windows\arm-none-eabi\include\c++\10.2.1\cmath **** 
 406:c:\users\vincius\documents\daisytoolchain-0.3.1\windows\arm-none-eabi\include\c++\10.2.1\cmath ****   inline long double
 407:c:\users\vincius\documents\daisytoolchain-0.3.1\windows\arm-none-eabi\include\c++\10.2.1\cmath ****   pow(long double __x, int __n)
 408:c:\users\vincius\documents\daisytoolchain-0.3.1\windows\arm-none-eabi\include\c++\10.2.1\cmath ****   { return __builtin_powil(__x, __n); }
 409:c:\users\vincius\documents\daisytoolchain-0.3.1\windows\arm-none-eabi\include\c++\10.2.1\cmath **** #endif
 410:c:\users\vincius\documents\daisytoolchain-0.3.1\windows\arm-none-eabi\include\c++\10.2.1\cmath **** #endif
 411:c:\users\vincius\documents\daisytoolchain-0.3.1\windows\arm-none-eabi\include\c++\10.2.1\cmath **** 
 412:c:\users\vincius\documents\daisytoolchain-0.3.1\windows\arm-none-eabi\include\c++\10.2.1\cmath ****   template<typename _Tp, typename _Up>
ARM GAS  C:\Users\VINCIU~1\AppData\Local\Temp\cc6F1pHH.s 			page 67


 413:c:\users\vincius\documents\daisytoolchain-0.3.1\windows\arm-none-eabi\include\c++\10.2.1\cmath ****     inline _GLIBCXX_CONSTEXPR
 414:c:\users\vincius\documents\daisytoolchain-0.3.1\windows\arm-none-eabi\include\c++\10.2.1\cmath ****     typename __gnu_cxx::__promote_2<_Tp, _Up>::__type
 415:c:\users\vincius\documents\daisytoolchain-0.3.1\windows\arm-none-eabi\include\c++\10.2.1\cmath ****     pow(_Tp __x, _Up __y)
 416:c:\users\vincius\documents\daisytoolchain-0.3.1\windows\arm-none-eabi\include\c++\10.2.1\cmath ****     {
 417:c:\users\vincius\documents\daisytoolchain-0.3.1\windows\arm-none-eabi\include\c++\10.2.1\cmath ****       typedef typename __gnu_cxx::__promote_2<_Tp, _Up>::__type __type;
 418:c:\users\vincius\documents\daisytoolchain-0.3.1\windows\arm-none-eabi\include\c++\10.2.1\cmath ****       return pow(__type(__x), __type(__y));
 419:c:\users\vincius\documents\daisytoolchain-0.3.1\windows\arm-none-eabi\include\c++\10.2.1\cmath ****     }
 420:c:\users\vincius\documents\daisytoolchain-0.3.1\windows\arm-none-eabi\include\c++\10.2.1\cmath **** 
 421:c:\users\vincius\documents\daisytoolchain-0.3.1\windows\arm-none-eabi\include\c++\10.2.1\cmath ****   using ::sin;
 422:c:\users\vincius\documents\daisytoolchain-0.3.1\windows\arm-none-eabi\include\c++\10.2.1\cmath **** 
 423:c:\users\vincius\documents\daisytoolchain-0.3.1\windows\arm-none-eabi\include\c++\10.2.1\cmath **** #ifndef __CORRECT_ISO_CPP_MATH_H_PROTO
 424:c:\users\vincius\documents\daisytoolchain-0.3.1\windows\arm-none-eabi\include\c++\10.2.1\cmath ****   inline _GLIBCXX_CONSTEXPR float
 425:c:\users\vincius\documents\daisytoolchain-0.3.1\windows\arm-none-eabi\include\c++\10.2.1\cmath ****   sin(float __x)
 426:c:\users\vincius\documents\daisytoolchain-0.3.1\windows\arm-none-eabi\include\c++\10.2.1\cmath ****   { return __builtin_sinf(__x); }
 1780              		.loc 17 426 26 view .LVU379
 1781 0068 B0EE680A 		vmov.f32	s0, s17
 1782 006c FFF7FEFF 		bl	sinf
 1783              	.LVL129:
 1784              	.LBE525:
 1785              	.LBE524:
 276:../../libdaisy/src/hid/disp/display.h ****         end_x   = cos(end_angle_rad) * radius;
 1786              		.loc 10 276 17 view .LVU380
 1787 0070 60EE698A 		vnmul.f32	s17, s0, s19
 1788              	.LVL130:
 1789              	.LBB527:
 1790              	.LBB528:
 185:c:\users\vincius\documents\daisytoolchain-0.3.1\windows\arm-none-eabi\include\c++\10.2.1\cmath **** 
 1791              		.loc 17 185 26 view .LVU381
 1792 0074 B0EE4A0A 		vmov.f32	s0, s20
 1793 0078 FFF7FEFF 		bl	cosf
 1794              	.LVL131:
 1795 007c B0EE409A 		vmov.f32	s18, s0
 1796              	.LBE528:
 1797              	.LBE527:
 1798              	.LBB530:
 1799              	.LBB531:
 1800              		.loc 17 426 26 view .LVU382
 1801 0080 B0EE4A0A 		vmov.f32	s0, s20
 1802 0084 FFF7FEFF 		bl	sinf
 1803              	.LVL132:
 1804              	.LBE531:
 1805              	.LBE530:
 278:../../libdaisy/src/hid/disp/display.h **** 
 1806              		.loc 10 278 17 view .LVU383
 1807 0088 20EE690A 		vnmul.f32	s0, s0, s19
 275:../../libdaisy/src/hid/disp/display.h ****         start_y = -sin(start_angle_rad) * radius;
 1808              		.loc 10 275 17 view .LVU384
 1809 008c 29EE888A 		vmul.f32	s16, s19, s16
 1810              	.LVL133:
 1811              	.LBB533:
 1812              	.LBI524:
 425:c:\users\vincius\documents\daisytoolchain-0.3.1\windows\arm-none-eabi\include\c++\10.2.1\cmath ****   { return __builtin_sinf(__x); }
 1813              		.loc 17 425 3 is_stmt 1 view .LVU385
 1814              	.LBB526:
 1815              		.loc 17 426 5 view .LVU386
 1816              		.loc 17 426 5 is_stmt 0 view .LVU387
 1817              	.LBE526:
ARM GAS  C:\Users\VINCIU~1\AppData\Local\Temp\cc6F1pHH.s 			page 68


 1818              	.LBE533:
 1819              	.LBB534:
 1820              	.LBI527:
 184:c:\users\vincius\documents\daisytoolchain-0.3.1\windows\arm-none-eabi\include\c++\10.2.1\cmath ****   { return __builtin_cosf(__x); }
 1821              		.loc 17 184 3 is_stmt 1 view .LVU388
 1822              	.LBB529:
 185:c:\users\vincius\documents\daisytoolchain-0.3.1\windows\arm-none-eabi\include\c++\10.2.1\cmath **** 
 1823              		.loc 17 185 5 view .LVU389
 185:c:\users\vincius\documents\daisytoolchain-0.3.1\windows\arm-none-eabi\include\c++\10.2.1\cmath **** 
 1824              		.loc 17 185 5 is_stmt 0 view .LVU390
 1825              	.LBE529:
 1826              	.LBE534:
 277:../../libdaisy/src/hid/disp/display.h ****         end_y   = -sin(end_angle_rad) * radius;
 1827              		.loc 10 277 17 view .LVU391
 1828 0090 29EE899A 		vmul.f32	s18, s19, s18
 1829              	.LVL134:
 1830              	.LBB535:
 1831              	.LBI530:
 425:c:\users\vincius\documents\daisytoolchain-0.3.1\windows\arm-none-eabi\include\c++\10.2.1\cmath ****   { return __builtin_sinf(__x); }
 1832              		.loc 17 425 3 is_stmt 1 view .LVU392
 1833              	.LBB532:
 1834              		.loc 17 426 5 view .LVU393
 1835              		.loc 17 426 5 is_stmt 0 view .LVU394
 1836              	.LBE532:
 1837              	.LBE535:
 282:../../libdaisy/src/hid/disp/display.h ****            < 2.0f)
 1838              		.loc 10 282 25 view .LVU395
